ARM GAS  /tmp/ccUcsWcj.s 			page 1


   1              		.cpu cortex-m7
   2              		.arch armv7e-m
   3              		.fpu fpv5-d16
   4              		.eabi_attribute 28, 1
   5              		.eabi_attribute 20, 1
   6              		.eabi_attribute 21, 1
   7              		.eabi_attribute 23, 3
   8              		.eabi_attribute 24, 1
   9              		.eabi_attribute 25, 1
  10              		.eabi_attribute 26, 1
  11              		.eabi_attribute 30, 1
  12              		.eabi_attribute 34, 1
  13              		.eabi_attribute 18, 4
  14              		.file	"lv_example_get_started_1.c"
  15              		.text
  16              	.Ltext0:
  17              		.cfi_sections	.debug_frame
  18              		.section	.rodata.btn_event_cb.str1.4,"aMS",%progbits,1
  19              		.align	2
  20              	.LC0:
  21 0000 42757474 		.ascii	"Button: %d\000"
  21      6F6E3A20 
  21      256400
  22              		.section	.text.btn_event_cb,"ax",%progbits
  23              		.align	1
  24              		.syntax unified
  25              		.thumb
  26              		.thumb_func
  28              	btn_event_cb:
  29              	.LVL0:
  30              	.LFB184:
  31              		.file 1 "Middlewares/lvgl/examples/get_started/lv_example_get_started_1.c"
   1:Middlewares/lvgl/examples/get_started/lv_example_get_started_1.c **** #include "../lv_examples.h"
   2:Middlewares/lvgl/examples/get_started/lv_example_get_started_1.c **** #if LV_BUILD_EXAMPLES && LV_USE_BTN
   3:Middlewares/lvgl/examples/get_started/lv_example_get_started_1.c **** 
   4:Middlewares/lvgl/examples/get_started/lv_example_get_started_1.c **** static void btn_event_cb(lv_event_t * e)
   5:Middlewares/lvgl/examples/get_started/lv_example_get_started_1.c **** {
  32              		.loc 1 5 1 view -0
  33              		.cfi_startproc
  34              		@ args = 0, pretend = 0, frame = 0
  35              		@ frame_needed = 0, uses_anonymous_args = 0
  36              		.loc 1 5 1 is_stmt 0 view .LVU1
  37 0000 38B5     		push	{r3, r4, r5, lr}
  38              	.LCFI0:
  39              		.cfi_def_cfa_offset 16
  40              		.cfi_offset 3, -16
  41              		.cfi_offset 4, -12
  42              		.cfi_offset 5, -8
  43              		.cfi_offset 14, -4
  44 0002 0546     		mov	r5, r0
   6:Middlewares/lvgl/examples/get_started/lv_example_get_started_1.c ****     lv_event_code_t code = lv_event_get_code(e);
  45              		.loc 1 6 5 is_stmt 1 view .LVU2
  46              		.loc 1 6 28 is_stmt 0 view .LVU3
  47 0004 FFF7FEFF 		bl	lv_event_get_code
  48              	.LVL1:
  49              		.loc 1 6 28 view .LVU4
  50 0008 0446     		mov	r4, r0
ARM GAS  /tmp/ccUcsWcj.s 			page 2


  51              	.LVL2:
   7:Middlewares/lvgl/examples/get_started/lv_example_get_started_1.c ****     lv_obj_t * btn = lv_event_get_target(e);
  52              		.loc 1 7 5 is_stmt 1 view .LVU5
  53              		.loc 1 7 22 is_stmt 0 view .LVU6
  54 000a 2846     		mov	r0, r5
  55 000c FFF7FEFF 		bl	lv_event_get_target
  56              	.LVL3:
   8:Middlewares/lvgl/examples/get_started/lv_example_get_started_1.c ****     if(code == LV_EVENT_CLICKED) {
  57              		.loc 1 8 5 is_stmt 1 view .LVU7
  58              		.loc 1 8 7 is_stmt 0 view .LVU8
  59 0010 072C     		cmp	r4, #7
  60 0012 00D0     		beq	.L4
  61              	.LVL4:
  62              	.L1:
   9:Middlewares/lvgl/examples/get_started/lv_example_get_started_1.c ****         static uint8_t cnt = 0;
  10:Middlewares/lvgl/examples/get_started/lv_example_get_started_1.c ****         cnt++;
  11:Middlewares/lvgl/examples/get_started/lv_example_get_started_1.c **** 
  12:Middlewares/lvgl/examples/get_started/lv_example_get_started_1.c ****         /*Get the first child of the button which is the label and change its text*/
  13:Middlewares/lvgl/examples/get_started/lv_example_get_started_1.c ****         lv_obj_t * label = lv_obj_get_child(btn, 0);
  14:Middlewares/lvgl/examples/get_started/lv_example_get_started_1.c ****         lv_label_set_text_fmt(label, "Button: %d", cnt);
  15:Middlewares/lvgl/examples/get_started/lv_example_get_started_1.c ****     }
  16:Middlewares/lvgl/examples/get_started/lv_example_get_started_1.c **** }
  63              		.loc 1 16 1 view .LVU9
  64 0014 38BD     		pop	{r3, r4, r5, pc}
  65              	.LVL5:
  66              	.L4:
  67              	.LBB4:
   9:Middlewares/lvgl/examples/get_started/lv_example_get_started_1.c ****         static uint8_t cnt = 0;
  68              		.loc 1 9 9 is_stmt 1 view .LVU10
  10:Middlewares/lvgl/examples/get_started/lv_example_get_started_1.c **** 
  69              		.loc 1 10 9 view .LVU11
  10:Middlewares/lvgl/examples/get_started/lv_example_get_started_1.c **** 
  70              		.loc 1 10 12 is_stmt 0 view .LVU12
  71 0016 064C     		ldr	r4, .L5
  72              	.LVL6:
  10:Middlewares/lvgl/examples/get_started/lv_example_get_started_1.c **** 
  73              		.loc 1 10 12 view .LVU13
  74 0018 2378     		ldrb	r3, [r4]	@ zero_extendqisi2
  75 001a 0133     		adds	r3, r3, #1
  76 001c 2370     		strb	r3, [r4]
  13:Middlewares/lvgl/examples/get_started/lv_example_get_started_1.c ****         lv_label_set_text_fmt(label, "Button: %d", cnt);
  77              		.loc 1 13 9 is_stmt 1 view .LVU14
  13:Middlewares/lvgl/examples/get_started/lv_example_get_started_1.c ****         lv_label_set_text_fmt(label, "Button: %d", cnt);
  78              		.loc 1 13 28 is_stmt 0 view .LVU15
  79 001e 0021     		movs	r1, #0
  80 0020 FFF7FEFF 		bl	lv_obj_get_child
  81              	.LVL7:
  14:Middlewares/lvgl/examples/get_started/lv_example_get_started_1.c ****     }
  82              		.loc 1 14 9 is_stmt 1 view .LVU16
  83 0024 2278     		ldrb	r2, [r4]	@ zero_extendqisi2
  84 0026 0349     		ldr	r1, .L5+4
  85 0028 FFF7FEFF 		bl	lv_label_set_text_fmt
  86              	.LVL8:
  14:Middlewares/lvgl/examples/get_started/lv_example_get_started_1.c ****     }
  87              		.loc 1 14 9 is_stmt 0 view .LVU17
  88              	.LBE4:
  89              		.loc 1 16 1 view .LVU18
ARM GAS  /tmp/ccUcsWcj.s 			page 3


  90 002c F2E7     		b	.L1
  91              	.L6:
  92 002e 00BF     		.align	2
  93              	.L5:
  94 0030 00000000 		.word	.LANCHOR0
  95 0034 00000000 		.word	.LC0
  96              		.cfi_endproc
  97              	.LFE184:
  99              		.section	.rodata.lv_example_get_started_1.str1.4,"aMS",%progbits,1
 100              		.align	2
 101              	.LC1:
 102 0000 42757474 		.ascii	"Button\000"
 102      6F6E00
 103              		.section	.text.lv_example_get_started_1,"ax",%progbits
 104              		.align	1
 105              		.global	lv_example_get_started_1
 106              		.syntax unified
 107              		.thumb
 108              		.thumb_func
 110              	lv_example_get_started_1:
 111              	.LFB185:
  17:Middlewares/lvgl/examples/get_started/lv_example_get_started_1.c **** 
  18:Middlewares/lvgl/examples/get_started/lv_example_get_started_1.c **** /**
  19:Middlewares/lvgl/examples/get_started/lv_example_get_started_1.c ****  * Create a button with a label and react on click event.
  20:Middlewares/lvgl/examples/get_started/lv_example_get_started_1.c ****  */
  21:Middlewares/lvgl/examples/get_started/lv_example_get_started_1.c **** void lv_example_get_started_1(void)
  22:Middlewares/lvgl/examples/get_started/lv_example_get_started_1.c **** {
 112              		.loc 1 22 1 is_stmt 1 view -0
 113              		.cfi_startproc
 114              		@ args = 0, pretend = 0, frame = 0
 115              		@ frame_needed = 0, uses_anonymous_args = 0
 116 0000 10B5     		push	{r4, lr}
 117              	.LCFI1:
 118              		.cfi_def_cfa_offset 8
 119              		.cfi_offset 4, -8
 120              		.cfi_offset 14, -4
  23:Middlewares/lvgl/examples/get_started/lv_example_get_started_1.c ****     lv_obj_t * btn = lv_btn_create(lv_scr_act());     /*Add a button the current screen*/
 121              		.loc 1 23 5 view .LVU20
 122              	.LBB9:
 123              	.LBI9:
 124              		.file 2 "Middlewares/lvgl/examples/get_started/../../src/core/lv_disp.h"
   1:Middlewares/lvgl/examples/get_started/../../src/core/lv_disp.h **** /**
   2:Middlewares/lvgl/examples/get_started/../../src/core/lv_disp.h ****  * @file lv_disp.h
   3:Middlewares/lvgl/examples/get_started/../../src/core/lv_disp.h ****  *
   4:Middlewares/lvgl/examples/get_started/../../src/core/lv_disp.h ****  */
   5:Middlewares/lvgl/examples/get_started/../../src/core/lv_disp.h **** 
   6:Middlewares/lvgl/examples/get_started/../../src/core/lv_disp.h **** #ifndef LV_DISP_H
   7:Middlewares/lvgl/examples/get_started/../../src/core/lv_disp.h **** #define LV_DISP_H
   8:Middlewares/lvgl/examples/get_started/../../src/core/lv_disp.h **** 
   9:Middlewares/lvgl/examples/get_started/../../src/core/lv_disp.h **** #ifdef __cplusplus
  10:Middlewares/lvgl/examples/get_started/../../src/core/lv_disp.h **** extern "C" {
  11:Middlewares/lvgl/examples/get_started/../../src/core/lv_disp.h **** #endif
  12:Middlewares/lvgl/examples/get_started/../../src/core/lv_disp.h **** 
  13:Middlewares/lvgl/examples/get_started/../../src/core/lv_disp.h **** /*********************
  14:Middlewares/lvgl/examples/get_started/../../src/core/lv_disp.h ****  *      INCLUDES
  15:Middlewares/lvgl/examples/get_started/../../src/core/lv_disp.h ****  *********************/
  16:Middlewares/lvgl/examples/get_started/../../src/core/lv_disp.h **** #include "../hal/lv_hal.h"
ARM GAS  /tmp/ccUcsWcj.s 			page 4


  17:Middlewares/lvgl/examples/get_started/../../src/core/lv_disp.h **** #include "lv_obj.h"
  18:Middlewares/lvgl/examples/get_started/../../src/core/lv_disp.h **** #include "lv_theme.h"
  19:Middlewares/lvgl/examples/get_started/../../src/core/lv_disp.h **** 
  20:Middlewares/lvgl/examples/get_started/../../src/core/lv_disp.h **** /*********************
  21:Middlewares/lvgl/examples/get_started/../../src/core/lv_disp.h ****  *      DEFINES
  22:Middlewares/lvgl/examples/get_started/../../src/core/lv_disp.h ****  *********************/
  23:Middlewares/lvgl/examples/get_started/../../src/core/lv_disp.h **** 
  24:Middlewares/lvgl/examples/get_started/../../src/core/lv_disp.h **** /**********************
  25:Middlewares/lvgl/examples/get_started/../../src/core/lv_disp.h ****  *      TYPEDEFS
  26:Middlewares/lvgl/examples/get_started/../../src/core/lv_disp.h ****  **********************/
  27:Middlewares/lvgl/examples/get_started/../../src/core/lv_disp.h **** 
  28:Middlewares/lvgl/examples/get_started/../../src/core/lv_disp.h **** typedef enum {
  29:Middlewares/lvgl/examples/get_started/../../src/core/lv_disp.h ****     LV_SCR_LOAD_ANIM_NONE,
  30:Middlewares/lvgl/examples/get_started/../../src/core/lv_disp.h ****     LV_SCR_LOAD_ANIM_OVER_LEFT,
  31:Middlewares/lvgl/examples/get_started/../../src/core/lv_disp.h ****     LV_SCR_LOAD_ANIM_OVER_RIGHT,
  32:Middlewares/lvgl/examples/get_started/../../src/core/lv_disp.h ****     LV_SCR_LOAD_ANIM_OVER_TOP,
  33:Middlewares/lvgl/examples/get_started/../../src/core/lv_disp.h ****     LV_SCR_LOAD_ANIM_OVER_BOTTOM,
  34:Middlewares/lvgl/examples/get_started/../../src/core/lv_disp.h ****     LV_SCR_LOAD_ANIM_MOVE_LEFT,
  35:Middlewares/lvgl/examples/get_started/../../src/core/lv_disp.h ****     LV_SCR_LOAD_ANIM_MOVE_RIGHT,
  36:Middlewares/lvgl/examples/get_started/../../src/core/lv_disp.h ****     LV_SCR_LOAD_ANIM_MOVE_TOP,
  37:Middlewares/lvgl/examples/get_started/../../src/core/lv_disp.h ****     LV_SCR_LOAD_ANIM_MOVE_BOTTOM,
  38:Middlewares/lvgl/examples/get_started/../../src/core/lv_disp.h ****     LV_SCR_LOAD_ANIM_FADE_ON,
  39:Middlewares/lvgl/examples/get_started/../../src/core/lv_disp.h **** } lv_scr_load_anim_t;
  40:Middlewares/lvgl/examples/get_started/../../src/core/lv_disp.h **** 
  41:Middlewares/lvgl/examples/get_started/../../src/core/lv_disp.h **** /**********************
  42:Middlewares/lvgl/examples/get_started/../../src/core/lv_disp.h ****  * GLOBAL PROTOTYPES
  43:Middlewares/lvgl/examples/get_started/../../src/core/lv_disp.h ****  **********************/
  44:Middlewares/lvgl/examples/get_started/../../src/core/lv_disp.h **** 
  45:Middlewares/lvgl/examples/get_started/../../src/core/lv_disp.h **** /**
  46:Middlewares/lvgl/examples/get_started/../../src/core/lv_disp.h ****  * Return with a pointer to the active screen
  47:Middlewares/lvgl/examples/get_started/../../src/core/lv_disp.h ****  * @param disp pointer to display which active screen should be get. (NULL to use the default
  48:Middlewares/lvgl/examples/get_started/../../src/core/lv_disp.h ****  * screen)
  49:Middlewares/lvgl/examples/get_started/../../src/core/lv_disp.h ****  * @return pointer to the active screen object (loaded by 'lv_scr_load()')
  50:Middlewares/lvgl/examples/get_started/../../src/core/lv_disp.h ****  */
  51:Middlewares/lvgl/examples/get_started/../../src/core/lv_disp.h **** lv_obj_t * lv_disp_get_scr_act(lv_disp_t * disp);
  52:Middlewares/lvgl/examples/get_started/../../src/core/lv_disp.h **** 
  53:Middlewares/lvgl/examples/get_started/../../src/core/lv_disp.h **** /**
  54:Middlewares/lvgl/examples/get_started/../../src/core/lv_disp.h ****  * Return with a pointer to the previous screen. Only used during screen transitions.
  55:Middlewares/lvgl/examples/get_started/../../src/core/lv_disp.h ****  * @param disp pointer to display which previous screen should be get. (NULL to use the default
  56:Middlewares/lvgl/examples/get_started/../../src/core/lv_disp.h ****  * screen)
  57:Middlewares/lvgl/examples/get_started/../../src/core/lv_disp.h ****  * @return pointer to the previous screen object or NULL if not used now
  58:Middlewares/lvgl/examples/get_started/../../src/core/lv_disp.h ****  */
  59:Middlewares/lvgl/examples/get_started/../../src/core/lv_disp.h **** lv_obj_t * lv_disp_get_scr_prev(lv_disp_t * disp);
  60:Middlewares/lvgl/examples/get_started/../../src/core/lv_disp.h **** 
  61:Middlewares/lvgl/examples/get_started/../../src/core/lv_disp.h **** /**
  62:Middlewares/lvgl/examples/get_started/../../src/core/lv_disp.h ****  * Make a screen active
  63:Middlewares/lvgl/examples/get_started/../../src/core/lv_disp.h ****  * @param scr pointer to a screen
  64:Middlewares/lvgl/examples/get_started/../../src/core/lv_disp.h ****  */
  65:Middlewares/lvgl/examples/get_started/../../src/core/lv_disp.h **** void lv_disp_load_scr(lv_obj_t * scr);
  66:Middlewares/lvgl/examples/get_started/../../src/core/lv_disp.h **** 
  67:Middlewares/lvgl/examples/get_started/../../src/core/lv_disp.h **** /**
  68:Middlewares/lvgl/examples/get_started/../../src/core/lv_disp.h ****  * Return with the top layer. (Same on every screen and it is above the normal screen layer)
  69:Middlewares/lvgl/examples/get_started/../../src/core/lv_disp.h ****  * @param disp pointer to display which top layer should be get. (NULL to use the default screen)
  70:Middlewares/lvgl/examples/get_started/../../src/core/lv_disp.h ****  * @return pointer to the top layer object  (transparent screen sized lv_obj)
  71:Middlewares/lvgl/examples/get_started/../../src/core/lv_disp.h ****  */
  72:Middlewares/lvgl/examples/get_started/../../src/core/lv_disp.h **** lv_obj_t * lv_disp_get_layer_top(lv_disp_t * disp);
  73:Middlewares/lvgl/examples/get_started/../../src/core/lv_disp.h **** 
ARM GAS  /tmp/ccUcsWcj.s 			page 5


  74:Middlewares/lvgl/examples/get_started/../../src/core/lv_disp.h **** /**
  75:Middlewares/lvgl/examples/get_started/../../src/core/lv_disp.h ****  * Return with the sys. layer. (Same on every screen and it is above the normal screen and the top
  76:Middlewares/lvgl/examples/get_started/../../src/core/lv_disp.h ****  * layer)
  77:Middlewares/lvgl/examples/get_started/../../src/core/lv_disp.h ****  * @param disp pointer to display which sys. layer  should be get. (NULL to use the default screen)
  78:Middlewares/lvgl/examples/get_started/../../src/core/lv_disp.h ****  * @return pointer to the sys layer object  (transparent screen sized lv_obj)
  79:Middlewares/lvgl/examples/get_started/../../src/core/lv_disp.h ****  */
  80:Middlewares/lvgl/examples/get_started/../../src/core/lv_disp.h **** lv_obj_t * lv_disp_get_layer_sys(lv_disp_t * disp);
  81:Middlewares/lvgl/examples/get_started/../../src/core/lv_disp.h **** 
  82:Middlewares/lvgl/examples/get_started/../../src/core/lv_disp.h **** /**
  83:Middlewares/lvgl/examples/get_started/../../src/core/lv_disp.h ****  * Get the theme of a display
  84:Middlewares/lvgl/examples/get_started/../../src/core/lv_disp.h ****  * @param disp pointer to a display
  85:Middlewares/lvgl/examples/get_started/../../src/core/lv_disp.h ****  * @return the display's theme (can be NULL)
  86:Middlewares/lvgl/examples/get_started/../../src/core/lv_disp.h ****  */
  87:Middlewares/lvgl/examples/get_started/../../src/core/lv_disp.h **** void lv_disp_set_theme(lv_disp_t * disp, lv_theme_t * th);
  88:Middlewares/lvgl/examples/get_started/../../src/core/lv_disp.h **** 
  89:Middlewares/lvgl/examples/get_started/../../src/core/lv_disp.h **** /**
  90:Middlewares/lvgl/examples/get_started/../../src/core/lv_disp.h ****  * Get the theme of a display
  91:Middlewares/lvgl/examples/get_started/../../src/core/lv_disp.h ****  * @param disp pointer to a display
  92:Middlewares/lvgl/examples/get_started/../../src/core/lv_disp.h ****  * @return the display's theme (can be NULL)
  93:Middlewares/lvgl/examples/get_started/../../src/core/lv_disp.h ****  */
  94:Middlewares/lvgl/examples/get_started/../../src/core/lv_disp.h **** lv_theme_t * lv_disp_get_theme(lv_disp_t * disp);
  95:Middlewares/lvgl/examples/get_started/../../src/core/lv_disp.h **** 
  96:Middlewares/lvgl/examples/get_started/../../src/core/lv_disp.h **** /**
  97:Middlewares/lvgl/examples/get_started/../../src/core/lv_disp.h ****  * Set the background color of a display
  98:Middlewares/lvgl/examples/get_started/../../src/core/lv_disp.h ****  * @param disp pointer to a display
  99:Middlewares/lvgl/examples/get_started/../../src/core/lv_disp.h ****  * @param color color of the background
 100:Middlewares/lvgl/examples/get_started/../../src/core/lv_disp.h ****  */
 101:Middlewares/lvgl/examples/get_started/../../src/core/lv_disp.h **** void lv_disp_set_bg_color(lv_disp_t * disp, lv_color_t color);
 102:Middlewares/lvgl/examples/get_started/../../src/core/lv_disp.h **** 
 103:Middlewares/lvgl/examples/get_started/../../src/core/lv_disp.h **** /**
 104:Middlewares/lvgl/examples/get_started/../../src/core/lv_disp.h ****  * Set the background image of a display
 105:Middlewares/lvgl/examples/get_started/../../src/core/lv_disp.h ****  * @param disp pointer to a display
 106:Middlewares/lvgl/examples/get_started/../../src/core/lv_disp.h ****  * @param img_src path to file or pointer to an `lv_img_dsc_t` variable
 107:Middlewares/lvgl/examples/get_started/../../src/core/lv_disp.h ****  */
 108:Middlewares/lvgl/examples/get_started/../../src/core/lv_disp.h **** void lv_disp_set_bg_image(lv_disp_t * disp, const void  * img_src);
 109:Middlewares/lvgl/examples/get_started/../../src/core/lv_disp.h **** 
 110:Middlewares/lvgl/examples/get_started/../../src/core/lv_disp.h **** /**
 111:Middlewares/lvgl/examples/get_started/../../src/core/lv_disp.h ****  * Opacity of the background
 112:Middlewares/lvgl/examples/get_started/../../src/core/lv_disp.h ****  * @param disp pointer to a display
 113:Middlewares/lvgl/examples/get_started/../../src/core/lv_disp.h ****  * @param opa opacity (0..255)
 114:Middlewares/lvgl/examples/get_started/../../src/core/lv_disp.h ****  */
 115:Middlewares/lvgl/examples/get_started/../../src/core/lv_disp.h **** void lv_disp_set_bg_opa(lv_disp_t * disp, lv_opa_t opa);
 116:Middlewares/lvgl/examples/get_started/../../src/core/lv_disp.h **** 
 117:Middlewares/lvgl/examples/get_started/../../src/core/lv_disp.h **** /**
 118:Middlewares/lvgl/examples/get_started/../../src/core/lv_disp.h ****  * Switch screen with animation
 119:Middlewares/lvgl/examples/get_started/../../src/core/lv_disp.h ****  * @param scr pointer to the new screen to load
 120:Middlewares/lvgl/examples/get_started/../../src/core/lv_disp.h ****  * @param anim_type type of the animation from `lv_scr_load_anim_t`. E.g.  `LV_SCR_LOAD_ANIM_MOVE_L
 121:Middlewares/lvgl/examples/get_started/../../src/core/lv_disp.h ****  * @param time time of the animation
 122:Middlewares/lvgl/examples/get_started/../../src/core/lv_disp.h ****  * @param delay delay before the transition
 123:Middlewares/lvgl/examples/get_started/../../src/core/lv_disp.h ****  * @param auto_del true: automatically delete the old screen
 124:Middlewares/lvgl/examples/get_started/../../src/core/lv_disp.h ****  */
 125:Middlewares/lvgl/examples/get_started/../../src/core/lv_disp.h **** void lv_scr_load_anim(lv_obj_t * scr, lv_scr_load_anim_t anim_type, uint32_t time, uint32_t delay, 
 126:Middlewares/lvgl/examples/get_started/../../src/core/lv_disp.h **** 
 127:Middlewares/lvgl/examples/get_started/../../src/core/lv_disp.h **** /**
 128:Middlewares/lvgl/examples/get_started/../../src/core/lv_disp.h ****  * Get elapsed time since last user activity on a display (e.g. click)
 129:Middlewares/lvgl/examples/get_started/../../src/core/lv_disp.h ****  * @param disp pointer to an display (NULL to get the overall smallest inactivity)
 130:Middlewares/lvgl/examples/get_started/../../src/core/lv_disp.h ****  * @return elapsed ticks (milliseconds) since the last activity
ARM GAS  /tmp/ccUcsWcj.s 			page 6


 131:Middlewares/lvgl/examples/get_started/../../src/core/lv_disp.h ****  */
 132:Middlewares/lvgl/examples/get_started/../../src/core/lv_disp.h **** uint32_t lv_disp_get_inactive_time(const lv_disp_t * disp);
 133:Middlewares/lvgl/examples/get_started/../../src/core/lv_disp.h **** 
 134:Middlewares/lvgl/examples/get_started/../../src/core/lv_disp.h **** /**
 135:Middlewares/lvgl/examples/get_started/../../src/core/lv_disp.h ****  * Manually trigger an activity on a display
 136:Middlewares/lvgl/examples/get_started/../../src/core/lv_disp.h ****  * @param disp pointer to an display (NULL to use the default display)
 137:Middlewares/lvgl/examples/get_started/../../src/core/lv_disp.h ****  */
 138:Middlewares/lvgl/examples/get_started/../../src/core/lv_disp.h **** void lv_disp_trig_activity(lv_disp_t * disp);
 139:Middlewares/lvgl/examples/get_started/../../src/core/lv_disp.h **** 
 140:Middlewares/lvgl/examples/get_started/../../src/core/lv_disp.h **** /**
 141:Middlewares/lvgl/examples/get_started/../../src/core/lv_disp.h ****  * Clean any CPU cache that is related to the display.
 142:Middlewares/lvgl/examples/get_started/../../src/core/lv_disp.h ****  * @param disp pointer to an display (NULL to use the default display)
 143:Middlewares/lvgl/examples/get_started/../../src/core/lv_disp.h ****  */
 144:Middlewares/lvgl/examples/get_started/../../src/core/lv_disp.h **** void lv_disp_clean_dcache(lv_disp_t * disp);
 145:Middlewares/lvgl/examples/get_started/../../src/core/lv_disp.h **** 
 146:Middlewares/lvgl/examples/get_started/../../src/core/lv_disp.h **** /**
 147:Middlewares/lvgl/examples/get_started/../../src/core/lv_disp.h ****  * Get a pointer to the screen refresher timer to
 148:Middlewares/lvgl/examples/get_started/../../src/core/lv_disp.h ****  * modify its parameters with `lv_timer_...` functions.
 149:Middlewares/lvgl/examples/get_started/../../src/core/lv_disp.h ****  * @param disp pointer to a display
 150:Middlewares/lvgl/examples/get_started/../../src/core/lv_disp.h ****  * @return pointer to the display refresher timer. (NULL on error)
 151:Middlewares/lvgl/examples/get_started/../../src/core/lv_disp.h ****  */
 152:Middlewares/lvgl/examples/get_started/../../src/core/lv_disp.h **** lv_timer_t * _lv_disp_get_refr_timer(lv_disp_t * disp);
 153:Middlewares/lvgl/examples/get_started/../../src/core/lv_disp.h **** 
 154:Middlewares/lvgl/examples/get_started/../../src/core/lv_disp.h **** /*------------------------------------------------
 155:Middlewares/lvgl/examples/get_started/../../src/core/lv_disp.h ****  * To improve backward compatibility
 156:Middlewares/lvgl/examples/get_started/../../src/core/lv_disp.h ****  * Recommended only if you have one display
 157:Middlewares/lvgl/examples/get_started/../../src/core/lv_disp.h ****  *------------------------------------------------*/
 158:Middlewares/lvgl/examples/get_started/../../src/core/lv_disp.h **** 
 159:Middlewares/lvgl/examples/get_started/../../src/core/lv_disp.h **** /**
 160:Middlewares/lvgl/examples/get_started/../../src/core/lv_disp.h ****  * Get the active screen of the default display
 161:Middlewares/lvgl/examples/get_started/../../src/core/lv_disp.h ****  * @return pointer to the active screen
 162:Middlewares/lvgl/examples/get_started/../../src/core/lv_disp.h ****  */
 163:Middlewares/lvgl/examples/get_started/../../src/core/lv_disp.h **** static inline lv_obj_t * lv_scr_act(void)
 125              		.loc 2 163 26 view .LVU21
 126              	.LBB10:
 164:Middlewares/lvgl/examples/get_started/../../src/core/lv_disp.h **** {
 165:Middlewares/lvgl/examples/get_started/../../src/core/lv_disp.h ****     return lv_disp_get_scr_act(lv_disp_get_default());
 127              		.loc 2 165 5 view .LVU22
 128              		.loc 2 165 12 is_stmt 0 view .LVU23
 129 0002 FFF7FEFF 		bl	lv_disp_get_default
 130              	.LVL9:
 131 0006 FFF7FEFF 		bl	lv_disp_get_scr_act
 132              	.LVL10:
 133              	.LBE10:
 134              	.LBE9:
 135              		.loc 1 23 22 view .LVU24
 136 000a FFF7FEFF 		bl	lv_btn_create
 137              	.LVL11:
 138 000e 0446     		mov	r4, r0
 139              	.LVL12:
  24:Middlewares/lvgl/examples/get_started/lv_example_get_started_1.c ****     lv_obj_set_pos(btn, 10, 10);                            /*Set its position*/
 140              		.loc 1 24 5 is_stmt 1 view .LVU25
 141 0010 0A22     		movs	r2, #10
 142 0012 1146     		mov	r1, r2
 143 0014 FFF7FEFF 		bl	lv_obj_set_pos
 144              	.LVL13:
  25:Middlewares/lvgl/examples/get_started/lv_example_get_started_1.c ****     lv_obj_set_size(btn, 120, 50);                          /*Set its size*/
ARM GAS  /tmp/ccUcsWcj.s 			page 7


 145              		.loc 1 25 5 view .LVU26
 146 0018 3222     		movs	r2, #50
 147 001a 7821     		movs	r1, #120
 148 001c 2046     		mov	r0, r4
 149 001e FFF7FEFF 		bl	lv_obj_set_size
 150              	.LVL14:
  26:Middlewares/lvgl/examples/get_started/lv_example_get_started_1.c ****     lv_obj_add_event_cb(btn, btn_event_cb, LV_EVENT_ALL, NULL);           /*Assign a callback to th
 151              		.loc 1 26 5 view .LVU27
 152 0022 0023     		movs	r3, #0
 153 0024 1A46     		mov	r2, r3
 154 0026 0949     		ldr	r1, .L9
 155 0028 2046     		mov	r0, r4
 156 002a FFF7FEFF 		bl	lv_obj_add_event_cb
 157              	.LVL15:
  27:Middlewares/lvgl/examples/get_started/lv_example_get_started_1.c **** 
  28:Middlewares/lvgl/examples/get_started/lv_example_get_started_1.c ****     lv_obj_t * label = lv_label_create(btn);          /*Add a label to the button*/
 158              		.loc 1 28 5 view .LVU28
 159              		.loc 1 28 24 is_stmt 0 view .LVU29
 160 002e 2046     		mov	r0, r4
 161 0030 FFF7FEFF 		bl	lv_label_create
 162              	.LVL16:
 163 0034 0446     		mov	r4, r0
 164              	.LVL17:
  29:Middlewares/lvgl/examples/get_started/lv_example_get_started_1.c ****     lv_label_set_text(label, "Button");                     /*Set the labels text*/
 165              		.loc 1 29 5 is_stmt 1 view .LVU30
 166 0036 0649     		ldr	r1, .L9+4
 167 0038 FFF7FEFF 		bl	lv_label_set_text
 168              	.LVL18:
  30:Middlewares/lvgl/examples/get_started/lv_example_get_started_1.c ****     lv_obj_center(label);
 169              		.loc 1 30 5 view .LVU31
 170              	.LBB11:
 171              	.LBI11:
 172              		.file 3 "Middlewares/lvgl/examples/get_started/../../src/core/lv_obj_pos.h"
   1:Middlewares/lvgl/examples/get_started/../../src/core/lv_obj_pos.h **** /**
   2:Middlewares/lvgl/examples/get_started/../../src/core/lv_obj_pos.h ****  * @file lv_obj_pos.h
   3:Middlewares/lvgl/examples/get_started/../../src/core/lv_obj_pos.h ****  *
   4:Middlewares/lvgl/examples/get_started/../../src/core/lv_obj_pos.h ****  */
   5:Middlewares/lvgl/examples/get_started/../../src/core/lv_obj_pos.h **** 
   6:Middlewares/lvgl/examples/get_started/../../src/core/lv_obj_pos.h **** #ifndef LV_OBJ_POS_H
   7:Middlewares/lvgl/examples/get_started/../../src/core/lv_obj_pos.h **** #define LV_OBJ_POS_H
   8:Middlewares/lvgl/examples/get_started/../../src/core/lv_obj_pos.h **** 
   9:Middlewares/lvgl/examples/get_started/../../src/core/lv_obj_pos.h **** #ifdef __cplusplus
  10:Middlewares/lvgl/examples/get_started/../../src/core/lv_obj_pos.h **** extern "C" {
  11:Middlewares/lvgl/examples/get_started/../../src/core/lv_obj_pos.h **** #endif
  12:Middlewares/lvgl/examples/get_started/../../src/core/lv_obj_pos.h **** 
  13:Middlewares/lvgl/examples/get_started/../../src/core/lv_obj_pos.h **** /*********************
  14:Middlewares/lvgl/examples/get_started/../../src/core/lv_obj_pos.h ****  *      INCLUDES
  15:Middlewares/lvgl/examples/get_started/../../src/core/lv_obj_pos.h ****  *********************/
  16:Middlewares/lvgl/examples/get_started/../../src/core/lv_obj_pos.h **** #include "../misc/lv_area.h"
  17:Middlewares/lvgl/examples/get_started/../../src/core/lv_obj_pos.h **** 
  18:Middlewares/lvgl/examples/get_started/../../src/core/lv_obj_pos.h **** /*********************
  19:Middlewares/lvgl/examples/get_started/../../src/core/lv_obj_pos.h ****  *      DEFINES
  20:Middlewares/lvgl/examples/get_started/../../src/core/lv_obj_pos.h ****  *********************/
  21:Middlewares/lvgl/examples/get_started/../../src/core/lv_obj_pos.h **** 
  22:Middlewares/lvgl/examples/get_started/../../src/core/lv_obj_pos.h **** /**********************
  23:Middlewares/lvgl/examples/get_started/../../src/core/lv_obj_pos.h ****  *      TYPEDEFS
  24:Middlewares/lvgl/examples/get_started/../../src/core/lv_obj_pos.h ****  **********************/
ARM GAS  /tmp/ccUcsWcj.s 			page 8


  25:Middlewares/lvgl/examples/get_started/../../src/core/lv_obj_pos.h **** struct _lv_obj_t;
  26:Middlewares/lvgl/examples/get_started/../../src/core/lv_obj_pos.h **** 
  27:Middlewares/lvgl/examples/get_started/../../src/core/lv_obj_pos.h **** typedef void (*lv_layout_update_cb_t)(struct _lv_obj_t *, void * user_data);
  28:Middlewares/lvgl/examples/get_started/../../src/core/lv_obj_pos.h **** typedef struct {
  29:Middlewares/lvgl/examples/get_started/../../src/core/lv_obj_pos.h ****     lv_layout_update_cb_t cb;
  30:Middlewares/lvgl/examples/get_started/../../src/core/lv_obj_pos.h ****     void * user_data;
  31:Middlewares/lvgl/examples/get_started/../../src/core/lv_obj_pos.h **** }lv_layout_dsc_t;
  32:Middlewares/lvgl/examples/get_started/../../src/core/lv_obj_pos.h **** 
  33:Middlewares/lvgl/examples/get_started/../../src/core/lv_obj_pos.h **** /**********************
  34:Middlewares/lvgl/examples/get_started/../../src/core/lv_obj_pos.h ****  * GLOBAL PROTOTYPES
  35:Middlewares/lvgl/examples/get_started/../../src/core/lv_obj_pos.h ****  **********************/
  36:Middlewares/lvgl/examples/get_started/../../src/core/lv_obj_pos.h **** 
  37:Middlewares/lvgl/examples/get_started/../../src/core/lv_obj_pos.h **** /**
  38:Middlewares/lvgl/examples/get_started/../../src/core/lv_obj_pos.h ****  * Set the relative the position of an object (relative to the parent's top left corner)
  39:Middlewares/lvgl/examples/get_started/../../src/core/lv_obj_pos.h ****  * @param obj       pointer to an object
  40:Middlewares/lvgl/examples/get_started/../../src/core/lv_obj_pos.h ****  * @param x         new distance from the left side of the parent plus the parent's left padding
  41:Middlewares/lvgl/examples/get_started/../../src/core/lv_obj_pos.h ****  * @param y         new distance from the top side of the parent  plus the parent's right padding
  42:Middlewares/lvgl/examples/get_started/../../src/core/lv_obj_pos.h ****  */
  43:Middlewares/lvgl/examples/get_started/../../src/core/lv_obj_pos.h **** void lv_obj_set_pos(struct _lv_obj_t * obj, lv_coord_t x, lv_coord_t y);
  44:Middlewares/lvgl/examples/get_started/../../src/core/lv_obj_pos.h **** 
  45:Middlewares/lvgl/examples/get_started/../../src/core/lv_obj_pos.h **** /**
  46:Middlewares/lvgl/examples/get_started/../../src/core/lv_obj_pos.h ****  * Set the x coordinate of a object
  47:Middlewares/lvgl/examples/get_started/../../src/core/lv_obj_pos.h ****  * @param obj       pointer to an object
  48:Middlewares/lvgl/examples/get_started/../../src/core/lv_obj_pos.h ****  * @param x         new distance from the left side from the parent plus the parent's left padding
  49:Middlewares/lvgl/examples/get_started/../../src/core/lv_obj_pos.h ****  */
  50:Middlewares/lvgl/examples/get_started/../../src/core/lv_obj_pos.h **** void lv_obj_set_x(struct _lv_obj_t * obj, lv_coord_t x);
  51:Middlewares/lvgl/examples/get_started/../../src/core/lv_obj_pos.h **** 
  52:Middlewares/lvgl/examples/get_started/../../src/core/lv_obj_pos.h **** /**
  53:Middlewares/lvgl/examples/get_started/../../src/core/lv_obj_pos.h ****  * Set the y coordinate of a object
  54:Middlewares/lvgl/examples/get_started/../../src/core/lv_obj_pos.h ****  * @param obj       pointer to an object
  55:Middlewares/lvgl/examples/get_started/../../src/core/lv_obj_pos.h ****  * @param y         new distance from the top of the parent  plus the parent's top padding
  56:Middlewares/lvgl/examples/get_started/../../src/core/lv_obj_pos.h ****  */
  57:Middlewares/lvgl/examples/get_started/../../src/core/lv_obj_pos.h **** void lv_obj_set_y(struct _lv_obj_t * obj, lv_coord_t y);
  58:Middlewares/lvgl/examples/get_started/../../src/core/lv_obj_pos.h **** 
  59:Middlewares/lvgl/examples/get_started/../../src/core/lv_obj_pos.h **** /**
  60:Middlewares/lvgl/examples/get_started/../../src/core/lv_obj_pos.h ****  * Set the size of an object.
  61:Middlewares/lvgl/examples/get_started/../../src/core/lv_obj_pos.h ****  * @param obj       pointer to an object
  62:Middlewares/lvgl/examples/get_started/../../src/core/lv_obj_pos.h ****  * @param w         the new width
  63:Middlewares/lvgl/examples/get_started/../../src/core/lv_obj_pos.h ****  * @param h         the new height
  64:Middlewares/lvgl/examples/get_started/../../src/core/lv_obj_pos.h ****  * @note            possible values are:
  65:Middlewares/lvgl/examples/get_started/../../src/core/lv_obj_pos.h ****  *                  pixel               simple set the size accordingly
  66:Middlewares/lvgl/examples/get_started/../../src/core/lv_obj_pos.h ****  *                  LV_SIZE_CONTENT     set the size to involve all children in the given direction
  67:Middlewares/lvgl/examples/get_started/../../src/core/lv_obj_pos.h ****  *                  LV_SIZE_PCT(x)     to set size in percentage of the parent's content area size 
  68:Middlewares/lvgl/examples/get_started/../../src/core/lv_obj_pos.h ****  *                                      x should be in [0..1000]% range
  69:Middlewares/lvgl/examples/get_started/../../src/core/lv_obj_pos.h ****  */
  70:Middlewares/lvgl/examples/get_started/../../src/core/lv_obj_pos.h **** void lv_obj_set_size(struct _lv_obj_t * obj, lv_coord_t w, lv_coord_t h);
  71:Middlewares/lvgl/examples/get_started/../../src/core/lv_obj_pos.h **** 
  72:Middlewares/lvgl/examples/get_started/../../src/core/lv_obj_pos.h **** /**
  73:Middlewares/lvgl/examples/get_started/../../src/core/lv_obj_pos.h ****  * Recalculate the size of the object
  74:Middlewares/lvgl/examples/get_started/../../src/core/lv_obj_pos.h ****  * @param obj       pointer to an object
  75:Middlewares/lvgl/examples/get_started/../../src/core/lv_obj_pos.h ****  * @return          true: the size has been changed
  76:Middlewares/lvgl/examples/get_started/../../src/core/lv_obj_pos.h ****  */
  77:Middlewares/lvgl/examples/get_started/../../src/core/lv_obj_pos.h **** bool lv_obj_refr_size(struct _lv_obj_t * obj);
  78:Middlewares/lvgl/examples/get_started/../../src/core/lv_obj_pos.h **** 
  79:Middlewares/lvgl/examples/get_started/../../src/core/lv_obj_pos.h **** /**
  80:Middlewares/lvgl/examples/get_started/../../src/core/lv_obj_pos.h ****  * Set the width of an object
  81:Middlewares/lvgl/examples/get_started/../../src/core/lv_obj_pos.h ****  * @param obj       pointer to an object
ARM GAS  /tmp/ccUcsWcj.s 			page 9


  82:Middlewares/lvgl/examples/get_started/../../src/core/lv_obj_pos.h ****  * @param w         the new width
  83:Middlewares/lvgl/examples/get_started/../../src/core/lv_obj_pos.h ****  * @note            possible values are:
  84:Middlewares/lvgl/examples/get_started/../../src/core/lv_obj_pos.h ****  *                  pixel               simple set the size accordingly
  85:Middlewares/lvgl/examples/get_started/../../src/core/lv_obj_pos.h ****  *                  LV_SIZE_CONTENT     set the size to involve all children in the given direction
  86:Middlewares/lvgl/examples/get_started/../../src/core/lv_obj_pos.h ****  *                  lv_pct(x)           to set size in percentage of the parent's content area size
  87:Middlewares/lvgl/examples/get_started/../../src/core/lv_obj_pos.h ****  *                                      x should be in [0..1000]% range
  88:Middlewares/lvgl/examples/get_started/../../src/core/lv_obj_pos.h ****  */
  89:Middlewares/lvgl/examples/get_started/../../src/core/lv_obj_pos.h **** void lv_obj_set_width(struct _lv_obj_t * obj, lv_coord_t w);
  90:Middlewares/lvgl/examples/get_started/../../src/core/lv_obj_pos.h **** 
  91:Middlewares/lvgl/examples/get_started/../../src/core/lv_obj_pos.h **** /**
  92:Middlewares/lvgl/examples/get_started/../../src/core/lv_obj_pos.h ****  * Set the height of an object
  93:Middlewares/lvgl/examples/get_started/../../src/core/lv_obj_pos.h ****  * @param obj       pointer to an object
  94:Middlewares/lvgl/examples/get_started/../../src/core/lv_obj_pos.h ****  * @param h         the new height
  95:Middlewares/lvgl/examples/get_started/../../src/core/lv_obj_pos.h ****  * @note            possible values are:
  96:Middlewares/lvgl/examples/get_started/../../src/core/lv_obj_pos.h ****  *                  pixel               simple set the size accordingly
  97:Middlewares/lvgl/examples/get_started/../../src/core/lv_obj_pos.h ****  *                  LV_SIZE_CONTENT     set the size to involve all children in the given direction
  98:Middlewares/lvgl/examples/get_started/../../src/core/lv_obj_pos.h ****  *                  lv_pct(x)           to set size in percentage of the parent's content area size
  99:Middlewares/lvgl/examples/get_started/../../src/core/lv_obj_pos.h ****  *                                      x should be in [0..1000]% range
 100:Middlewares/lvgl/examples/get_started/../../src/core/lv_obj_pos.h ****  */
 101:Middlewares/lvgl/examples/get_started/../../src/core/lv_obj_pos.h **** void lv_obj_set_height(struct _lv_obj_t * obj, lv_coord_t h);
 102:Middlewares/lvgl/examples/get_started/../../src/core/lv_obj_pos.h **** 
 103:Middlewares/lvgl/examples/get_started/../../src/core/lv_obj_pos.h **** /**
 104:Middlewares/lvgl/examples/get_started/../../src/core/lv_obj_pos.h ****  * Set the width reduced by the left and right padding and the border width.
 105:Middlewares/lvgl/examples/get_started/../../src/core/lv_obj_pos.h ****  * @param obj       pointer to an object
 106:Middlewares/lvgl/examples/get_started/../../src/core/lv_obj_pos.h ****  * @param w         the width without paddings in pixels
 107:Middlewares/lvgl/examples/get_started/../../src/core/lv_obj_pos.h ****  */
 108:Middlewares/lvgl/examples/get_started/../../src/core/lv_obj_pos.h **** void lv_obj_set_content_width(struct _lv_obj_t * obj, lv_coord_t w);
 109:Middlewares/lvgl/examples/get_started/../../src/core/lv_obj_pos.h **** 
 110:Middlewares/lvgl/examples/get_started/../../src/core/lv_obj_pos.h **** /**
 111:Middlewares/lvgl/examples/get_started/../../src/core/lv_obj_pos.h ****  * Set the height reduced by the top and bottom padding and the border width.
 112:Middlewares/lvgl/examples/get_started/../../src/core/lv_obj_pos.h ****  * @param obj       pointer to an object
 113:Middlewares/lvgl/examples/get_started/../../src/core/lv_obj_pos.h ****  * @param h         the height without paddings in pixels
 114:Middlewares/lvgl/examples/get_started/../../src/core/lv_obj_pos.h ****  */
 115:Middlewares/lvgl/examples/get_started/../../src/core/lv_obj_pos.h **** void lv_obj_set_content_height(struct _lv_obj_t * obj, lv_coord_t h);
 116:Middlewares/lvgl/examples/get_started/../../src/core/lv_obj_pos.h **** 
 117:Middlewares/lvgl/examples/get_started/../../src/core/lv_obj_pos.h **** /**
 118:Middlewares/lvgl/examples/get_started/../../src/core/lv_obj_pos.h ****  * Set a layout for an object
 119:Middlewares/lvgl/examples/get_started/../../src/core/lv_obj_pos.h ****  * @param obj       pointer to an object
 120:Middlewares/lvgl/examples/get_started/../../src/core/lv_obj_pos.h ****  * @param layout    pointer to a layout descriptor to set
 121:Middlewares/lvgl/examples/get_started/../../src/core/lv_obj_pos.h ****  */
 122:Middlewares/lvgl/examples/get_started/../../src/core/lv_obj_pos.h **** void lv_obj_set_layout(struct _lv_obj_t * obj, uint32_t layout);
 123:Middlewares/lvgl/examples/get_started/../../src/core/lv_obj_pos.h **** 
 124:Middlewares/lvgl/examples/get_started/../../src/core/lv_obj_pos.h **** /**
 125:Middlewares/lvgl/examples/get_started/../../src/core/lv_obj_pos.h ****  * Test whether the and object is positioned by a layout or not
 126:Middlewares/lvgl/examples/get_started/../../src/core/lv_obj_pos.h ****  * @param obj       pointer to an object to test
 127:Middlewares/lvgl/examples/get_started/../../src/core/lv_obj_pos.h ****  * @return true:    positioned by a layout; false: not positioned by a layout
 128:Middlewares/lvgl/examples/get_started/../../src/core/lv_obj_pos.h ****  */
 129:Middlewares/lvgl/examples/get_started/../../src/core/lv_obj_pos.h **** bool lv_obj_is_layout_positioned(const struct _lv_obj_t * obj);
 130:Middlewares/lvgl/examples/get_started/../../src/core/lv_obj_pos.h **** 
 131:Middlewares/lvgl/examples/get_started/../../src/core/lv_obj_pos.h **** /**
 132:Middlewares/lvgl/examples/get_started/../../src/core/lv_obj_pos.h ****  * Mark the object for layout update.
 133:Middlewares/lvgl/examples/get_started/../../src/core/lv_obj_pos.h ****  * @param obj      pointer to an object whose children needs to be updated
 134:Middlewares/lvgl/examples/get_started/../../src/core/lv_obj_pos.h ****  */
 135:Middlewares/lvgl/examples/get_started/../../src/core/lv_obj_pos.h **** void lv_obj_mark_layout_as_dirty(struct _lv_obj_t * obj);
 136:Middlewares/lvgl/examples/get_started/../../src/core/lv_obj_pos.h **** 
 137:Middlewares/lvgl/examples/get_started/../../src/core/lv_obj_pos.h **** /**
 138:Middlewares/lvgl/examples/get_started/../../src/core/lv_obj_pos.h ****  * Update the layout of an object.
ARM GAS  /tmp/ccUcsWcj.s 			page 10


 139:Middlewares/lvgl/examples/get_started/../../src/core/lv_obj_pos.h ****  * @param obj      pointer to an object whose children needs to be updated
 140:Middlewares/lvgl/examples/get_started/../../src/core/lv_obj_pos.h ****  */
 141:Middlewares/lvgl/examples/get_started/../../src/core/lv_obj_pos.h **** void lv_obj_update_layout(const struct _lv_obj_t * obj);
 142:Middlewares/lvgl/examples/get_started/../../src/core/lv_obj_pos.h **** 
 143:Middlewares/lvgl/examples/get_started/../../src/core/lv_obj_pos.h **** /**
 144:Middlewares/lvgl/examples/get_started/../../src/core/lv_obj_pos.h ****  * Regsiter a new layout
 145:Middlewares/lvgl/examples/get_started/../../src/core/lv_obj_pos.h ****  * @param cb        the layout update callback
 146:Middlewares/lvgl/examples/get_started/../../src/core/lv_obj_pos.h ****  * @param user_data custom data that will be passed to `cb`
 147:Middlewares/lvgl/examples/get_started/../../src/core/lv_obj_pos.h ****  * @return          the ID of the new layout
 148:Middlewares/lvgl/examples/get_started/../../src/core/lv_obj_pos.h ****  */
 149:Middlewares/lvgl/examples/get_started/../../src/core/lv_obj_pos.h **** uint32_t lv_layout_register(lv_layout_update_cb_t cb, void * user_data);
 150:Middlewares/lvgl/examples/get_started/../../src/core/lv_obj_pos.h **** 
 151:Middlewares/lvgl/examples/get_started/../../src/core/lv_obj_pos.h **** /**
 152:Middlewares/lvgl/examples/get_started/../../src/core/lv_obj_pos.h ****  * Change the alignment of an object.
 153:Middlewares/lvgl/examples/get_started/../../src/core/lv_obj_pos.h ****  * @param obj       pointer to an object to align
 154:Middlewares/lvgl/examples/get_started/../../src/core/lv_obj_pos.h ****  * @param align     type of alignment (see 'lv_align_t' enum) `LV_ALIGN_OUT_...` can't be used.
 155:Middlewares/lvgl/examples/get_started/../../src/core/lv_obj_pos.h ****  */
 156:Middlewares/lvgl/examples/get_started/../../src/core/lv_obj_pos.h **** void lv_obj_set_align(struct _lv_obj_t * obj, lv_align_t align);
 157:Middlewares/lvgl/examples/get_started/../../src/core/lv_obj_pos.h **** 
 158:Middlewares/lvgl/examples/get_started/../../src/core/lv_obj_pos.h **** /**
 159:Middlewares/lvgl/examples/get_started/../../src/core/lv_obj_pos.h ****  * Change the alignment of an object and set new coordinates.
 160:Middlewares/lvgl/examples/get_started/../../src/core/lv_obj_pos.h ****  * Equivalent to:
 161:Middlewares/lvgl/examples/get_started/../../src/core/lv_obj_pos.h ****  * lv_obj_set_align(obj, align);
 162:Middlewares/lvgl/examples/get_started/../../src/core/lv_obj_pos.h ****  * lv_obj_set_pos(obj, x_ofs, y_ofs);
 163:Middlewares/lvgl/examples/get_started/../../src/core/lv_obj_pos.h ****  * @param obj       pointer to an object to align
 164:Middlewares/lvgl/examples/get_started/../../src/core/lv_obj_pos.h ****  * @param align     type of alignment (see 'lv_align_t' enum) `LV_ALIGN_OUT_...` can't be used.
 165:Middlewares/lvgl/examples/get_started/../../src/core/lv_obj_pos.h ****  * @param x_ofs     x coordinate offset after alignment
 166:Middlewares/lvgl/examples/get_started/../../src/core/lv_obj_pos.h ****  * @param y_ofs     y coordinate offset after alignment
 167:Middlewares/lvgl/examples/get_started/../../src/core/lv_obj_pos.h ****  */
 168:Middlewares/lvgl/examples/get_started/../../src/core/lv_obj_pos.h **** void lv_obj_align(struct _lv_obj_t * obj, lv_align_t align, lv_coord_t x_ofs, lv_coord_t y_ofs);
 169:Middlewares/lvgl/examples/get_started/../../src/core/lv_obj_pos.h **** 
 170:Middlewares/lvgl/examples/get_started/../../src/core/lv_obj_pos.h **** /**
 171:Middlewares/lvgl/examples/get_started/../../src/core/lv_obj_pos.h ****  * Align an object to an other object.
 172:Middlewares/lvgl/examples/get_started/../../src/core/lv_obj_pos.h ****  * @param obj       pointer to an object to align
 173:Middlewares/lvgl/examples/get_started/../../src/core/lv_obj_pos.h ****  * @param base      pointer to an other object (if NULL `obj`s parent is used). 'obj' will be align
 174:Middlewares/lvgl/examples/get_started/../../src/core/lv_obj_pos.h ****  * @param align     type of alignment (see 'lv_align_t' enum)
 175:Middlewares/lvgl/examples/get_started/../../src/core/lv_obj_pos.h ****  * @param x_ofs     x coordinate offset after alignment
 176:Middlewares/lvgl/examples/get_started/../../src/core/lv_obj_pos.h ****  * @param y_ofs     y coordinate offset after alignment
 177:Middlewares/lvgl/examples/get_started/../../src/core/lv_obj_pos.h ****  * @note            if the position or size of `base` changes `obj` needs to be aligned manually ag
 178:Middlewares/lvgl/examples/get_started/../../src/core/lv_obj_pos.h ****  */
 179:Middlewares/lvgl/examples/get_started/../../src/core/lv_obj_pos.h **** void lv_obj_align_to(struct _lv_obj_t * obj, const struct _lv_obj_t * base, lv_align_t align, lv_co
 180:Middlewares/lvgl/examples/get_started/../../src/core/lv_obj_pos.h **** 
 181:Middlewares/lvgl/examples/get_started/../../src/core/lv_obj_pos.h **** /**
 182:Middlewares/lvgl/examples/get_started/../../src/core/lv_obj_pos.h ****  * Align an object to the center on its parent.
 183:Middlewares/lvgl/examples/get_started/../../src/core/lv_obj_pos.h ****  * @param obj       pointer to an object to align
 184:Middlewares/lvgl/examples/get_started/../../src/core/lv_obj_pos.h ****  * @note            if the parent size changes `obj` needs to be aligned manually again
 185:Middlewares/lvgl/examples/get_started/../../src/core/lv_obj_pos.h ****  */
 186:Middlewares/lvgl/examples/get_started/../../src/core/lv_obj_pos.h **** static inline void lv_obj_center(struct _lv_obj_t * obj)
 173              		.loc 3 186 20 view .LVU32
 174              	.LBB12:
 187:Middlewares/lvgl/examples/get_started/../../src/core/lv_obj_pos.h **** {
 188:Middlewares/lvgl/examples/get_started/../../src/core/lv_obj_pos.h ****     lv_obj_align(obj, LV_ALIGN_CENTER, 0, 0);
 175              		.loc 3 188 5 view .LVU33
 176 003c 0023     		movs	r3, #0
 177 003e 1A46     		mov	r2, r3
 178 0040 0921     		movs	r1, #9
 179 0042 2046     		mov	r0, r4
ARM GAS  /tmp/ccUcsWcj.s 			page 11


 180 0044 FFF7FEFF 		bl	lv_obj_align
 181              	.LVL19:
 182              		.loc 3 188 5 is_stmt 0 view .LVU34
 183              	.LBE12:
 184              	.LBE11:
  31:Middlewares/lvgl/examples/get_started/lv_example_get_started_1.c **** }
 185              		.loc 1 31 1 view .LVU35
 186 0048 10BD     		pop	{r4, pc}
 187              	.LVL20:
 188              	.L10:
 189              		.loc 1 31 1 view .LVU36
 190 004a 00BF     		.align	2
 191              	.L9:
 192 004c 00000000 		.word	btn_event_cb
 193 0050 00000000 		.word	.LC1
 194              		.cfi_endproc
 195              	.LFE185:
 197              		.section	.bss.cnt.0,"aw",%nobits
 198              		.set	.LANCHOR0,. + 0
 201              	cnt.0:
 202 0000 00       		.space	1
 203              		.text
 204              	.Letext0:
 205              		.file 4 "/home/akinya/gcc-arm-none-eabi/arm-none-eabi/include/machine/_default_types.h"
 206              		.file 5 "/home/akinya/gcc-arm-none-eabi/arm-none-eabi/include/sys/_stdint.h"
 207              		.file 6 "Middlewares/lvgl/examples/get_started/../../src/misc/lv_ll.h"
 208              		.file 7 "Middlewares/lvgl/examples/get_started/../../src/hal/../misc/lv_color.h"
 209              		.file 8 "Middlewares/lvgl/examples/get_started/../../src/hal/../misc/lv_area.h"
 210              		.file 9 "Middlewares/lvgl/examples/get_started/../../src/core/lv_obj.h"
 211              		.file 10 "Middlewares/lvgl/examples/get_started/../../src/core/lv_group.h"
 212              		.file 11 "Middlewares/lvgl/examples/get_started/../../src/core/../misc/lv_style.h"
 213              		.file 12 "Middlewares/lvgl/examples/get_started/../../src/core/lv_obj_scroll.h"
 214              		.file 13 "Middlewares/lvgl/examples/get_started/../../src/core/lv_obj_style.h"
 215              		.file 14 "Middlewares/lvgl/examples/get_started/../../src/core/lv_obj_class.h"
 216              		.file 15 "Middlewares/lvgl/examples/get_started/../../src/core/lv_event.h"
 217              		.file 16 "Middlewares/lvgl/examples/get_started/../../src/hal/lv_hal_disp.h"
 218              		.file 17 "Middlewares/lvgl/examples/get_started/../../src/widgets/lv_btn.h"
 219              		.file 18 "Middlewares/lvgl/examples/get_started/../../src/widgets/lv_label.h"
 220              		.file 19 "Middlewares/lvgl/examples/get_started/../../src/core/lv_obj_tree.h"
ARM GAS  /tmp/ccUcsWcj.s 			page 12

