ARM GAS  /tmp/ccjMyaD4.s 			page 1


   1              		.cpu cortex-m7
   2              		.arch armv7e-m
   3              		.fpu fpv5-d16
   4              		.eabi_attribute 28, 1
   5              		.eabi_attribute 20, 1
   6              		.eabi_attribute 21, 1
   7              		.eabi_attribute 23, 3
   8              		.eabi_attribute 24, 1
   9              		.eabi_attribute 25, 1
  10              		.eabi_attribute 26, 1
  11              		.eabi_attribute 30, 1
  12              		.eabi_attribute 34, 1
  13              		.eabi_attribute 18, 4
  14              		.file	"lv_example_grid_3.c"
  15              		.text
  16              	.Ltext0:
  17              		.cfi_sections	.debug_frame
  18              		.section	.rodata.lv_example_grid_3.str1.4,"aMS",%progbits,1
  19              		.align	2
  20              	.LC0:
  21 0000 25642C25 		.ascii	"%d,%d\000"
  21      6400
  22              		.section	.text.lv_example_grid_3,"ax",%progbits
  23              		.align	1
  24              		.global	lv_example_grid_3
  25              		.syntax unified
  26              		.thumb
  27              		.thumb_func
  29              	lv_example_grid_3:
  30              	.LFB184:
  31              		.file 1 "Middlewares/lvgl/examples/layouts/grid/lv_example_grid_3.c"
   1:Middlewares/lvgl/examples/layouts/grid/lv_example_grid_3.c **** #include "../../lv_examples.h"
   2:Middlewares/lvgl/examples/layouts/grid/lv_example_grid_3.c **** #if LV_USE_GRID && LV_BUILD_EXAMPLES
   3:Middlewares/lvgl/examples/layouts/grid/lv_example_grid_3.c **** 
   4:Middlewares/lvgl/examples/layouts/grid/lv_example_grid_3.c **** /**
   5:Middlewares/lvgl/examples/layouts/grid/lv_example_grid_3.c ****  * Demonstrate grid's "free unit"
   6:Middlewares/lvgl/examples/layouts/grid/lv_example_grid_3.c ****  */
   7:Middlewares/lvgl/examples/layouts/grid/lv_example_grid_3.c **** void lv_example_grid_3(void)
   8:Middlewares/lvgl/examples/layouts/grid/lv_example_grid_3.c **** {
  32              		.loc 1 8 1 view -0
  33              		.cfi_startproc
  34              		@ args = 0, pretend = 0, frame = 0
  35              		@ frame_needed = 0, uses_anonymous_args = 0
  36 0000 2DE9F041 		push	{r4, r5, r6, r7, r8, lr}
  37              	.LCFI0:
  38              		.cfi_def_cfa_offset 24
  39              		.cfi_offset 4, -24
  40              		.cfi_offset 5, -20
  41              		.cfi_offset 6, -16
  42              		.cfi_offset 7, -12
  43              		.cfi_offset 8, -8
  44              		.cfi_offset 14, -4
  45 0004 84B0     		sub	sp, sp, #16
  46              	.LCFI1:
  47              		.cfi_def_cfa_offset 40
   9:Middlewares/lvgl/examples/layouts/grid/lv_example_grid_3.c ****     /*Column 1: fix width 60 px
  10:Middlewares/lvgl/examples/layouts/grid/lv_example_grid_3.c ****      *Column 2: 1 unit from the remaining free space
ARM GAS  /tmp/ccjMyaD4.s 			page 2


  11:Middlewares/lvgl/examples/layouts/grid/lv_example_grid_3.c ****      *Column 3: 2 unit from the remaining free space*/
  12:Middlewares/lvgl/examples/layouts/grid/lv_example_grid_3.c ****     static lv_coord_t col_dsc[] = {60, LV_GRID_FR(1), LV_GRID_FR(2), LV_GRID_TEMPLATE_LAST};
  48              		.loc 1 12 5 view .LVU1
  13:Middlewares/lvgl/examples/layouts/grid/lv_example_grid_3.c **** 
  14:Middlewares/lvgl/examples/layouts/grid/lv_example_grid_3.c ****     /*Row 1: fix width 50 px
  15:Middlewares/lvgl/examples/layouts/grid/lv_example_grid_3.c ****      *Row 2: 1 unit from the remaining free space
  16:Middlewares/lvgl/examples/layouts/grid/lv_example_grid_3.c ****      *Row 3: fix width 50 px*/
  17:Middlewares/lvgl/examples/layouts/grid/lv_example_grid_3.c ****     static lv_coord_t row_dsc[] = {50, LV_GRID_FR(1), 50, LV_GRID_TEMPLATE_LAST};
  49              		.loc 1 17 5 view .LVU2
  18:Middlewares/lvgl/examples/layouts/grid/lv_example_grid_3.c **** 
  19:Middlewares/lvgl/examples/layouts/grid/lv_example_grid_3.c ****     /*Create a container with grid*/
  20:Middlewares/lvgl/examples/layouts/grid/lv_example_grid_3.c ****     lv_obj_t * cont = lv_obj_create(lv_scr_act());
  50              		.loc 1 20 5 view .LVU3
  51              	.LBB14:
  52              	.LBI14:
  53              		.file 2 "Middlewares/lvgl/examples/layouts/grid/../../../src/core/lv_disp.h"
   1:Middlewares/lvgl/examples/layouts/grid/../../../src/core/lv_disp.h **** /**
   2:Middlewares/lvgl/examples/layouts/grid/../../../src/core/lv_disp.h ****  * @file lv_disp.h
   3:Middlewares/lvgl/examples/layouts/grid/../../../src/core/lv_disp.h ****  *
   4:Middlewares/lvgl/examples/layouts/grid/../../../src/core/lv_disp.h ****  */
   5:Middlewares/lvgl/examples/layouts/grid/../../../src/core/lv_disp.h **** 
   6:Middlewares/lvgl/examples/layouts/grid/../../../src/core/lv_disp.h **** #ifndef LV_DISP_H
   7:Middlewares/lvgl/examples/layouts/grid/../../../src/core/lv_disp.h **** #define LV_DISP_H
   8:Middlewares/lvgl/examples/layouts/grid/../../../src/core/lv_disp.h **** 
   9:Middlewares/lvgl/examples/layouts/grid/../../../src/core/lv_disp.h **** #ifdef __cplusplus
  10:Middlewares/lvgl/examples/layouts/grid/../../../src/core/lv_disp.h **** extern "C" {
  11:Middlewares/lvgl/examples/layouts/grid/../../../src/core/lv_disp.h **** #endif
  12:Middlewares/lvgl/examples/layouts/grid/../../../src/core/lv_disp.h **** 
  13:Middlewares/lvgl/examples/layouts/grid/../../../src/core/lv_disp.h **** /*********************
  14:Middlewares/lvgl/examples/layouts/grid/../../../src/core/lv_disp.h ****  *      INCLUDES
  15:Middlewares/lvgl/examples/layouts/grid/../../../src/core/lv_disp.h ****  *********************/
  16:Middlewares/lvgl/examples/layouts/grid/../../../src/core/lv_disp.h **** #include "../hal/lv_hal.h"
  17:Middlewares/lvgl/examples/layouts/grid/../../../src/core/lv_disp.h **** #include "lv_obj.h"
  18:Middlewares/lvgl/examples/layouts/grid/../../../src/core/lv_disp.h **** #include "lv_theme.h"
  19:Middlewares/lvgl/examples/layouts/grid/../../../src/core/lv_disp.h **** 
  20:Middlewares/lvgl/examples/layouts/grid/../../../src/core/lv_disp.h **** /*********************
  21:Middlewares/lvgl/examples/layouts/grid/../../../src/core/lv_disp.h ****  *      DEFINES
  22:Middlewares/lvgl/examples/layouts/grid/../../../src/core/lv_disp.h ****  *********************/
  23:Middlewares/lvgl/examples/layouts/grid/../../../src/core/lv_disp.h **** 
  24:Middlewares/lvgl/examples/layouts/grid/../../../src/core/lv_disp.h **** /**********************
  25:Middlewares/lvgl/examples/layouts/grid/../../../src/core/lv_disp.h ****  *      TYPEDEFS
  26:Middlewares/lvgl/examples/layouts/grid/../../../src/core/lv_disp.h ****  **********************/
  27:Middlewares/lvgl/examples/layouts/grid/../../../src/core/lv_disp.h **** 
  28:Middlewares/lvgl/examples/layouts/grid/../../../src/core/lv_disp.h **** typedef enum {
  29:Middlewares/lvgl/examples/layouts/grid/../../../src/core/lv_disp.h ****     LV_SCR_LOAD_ANIM_NONE,
  30:Middlewares/lvgl/examples/layouts/grid/../../../src/core/lv_disp.h ****     LV_SCR_LOAD_ANIM_OVER_LEFT,
  31:Middlewares/lvgl/examples/layouts/grid/../../../src/core/lv_disp.h ****     LV_SCR_LOAD_ANIM_OVER_RIGHT,
  32:Middlewares/lvgl/examples/layouts/grid/../../../src/core/lv_disp.h ****     LV_SCR_LOAD_ANIM_OVER_TOP,
  33:Middlewares/lvgl/examples/layouts/grid/../../../src/core/lv_disp.h ****     LV_SCR_LOAD_ANIM_OVER_BOTTOM,
  34:Middlewares/lvgl/examples/layouts/grid/../../../src/core/lv_disp.h ****     LV_SCR_LOAD_ANIM_MOVE_LEFT,
  35:Middlewares/lvgl/examples/layouts/grid/../../../src/core/lv_disp.h ****     LV_SCR_LOAD_ANIM_MOVE_RIGHT,
  36:Middlewares/lvgl/examples/layouts/grid/../../../src/core/lv_disp.h ****     LV_SCR_LOAD_ANIM_MOVE_TOP,
  37:Middlewares/lvgl/examples/layouts/grid/../../../src/core/lv_disp.h ****     LV_SCR_LOAD_ANIM_MOVE_BOTTOM,
  38:Middlewares/lvgl/examples/layouts/grid/../../../src/core/lv_disp.h ****     LV_SCR_LOAD_ANIM_FADE_ON,
  39:Middlewares/lvgl/examples/layouts/grid/../../../src/core/lv_disp.h **** } lv_scr_load_anim_t;
  40:Middlewares/lvgl/examples/layouts/grid/../../../src/core/lv_disp.h **** 
  41:Middlewares/lvgl/examples/layouts/grid/../../../src/core/lv_disp.h **** /**********************
ARM GAS  /tmp/ccjMyaD4.s 			page 3


  42:Middlewares/lvgl/examples/layouts/grid/../../../src/core/lv_disp.h ****  * GLOBAL PROTOTYPES
  43:Middlewares/lvgl/examples/layouts/grid/../../../src/core/lv_disp.h ****  **********************/
  44:Middlewares/lvgl/examples/layouts/grid/../../../src/core/lv_disp.h **** 
  45:Middlewares/lvgl/examples/layouts/grid/../../../src/core/lv_disp.h **** /**
  46:Middlewares/lvgl/examples/layouts/grid/../../../src/core/lv_disp.h ****  * Return with a pointer to the active screen
  47:Middlewares/lvgl/examples/layouts/grid/../../../src/core/lv_disp.h ****  * @param disp pointer to display which active screen should be get. (NULL to use the default
  48:Middlewares/lvgl/examples/layouts/grid/../../../src/core/lv_disp.h ****  * screen)
  49:Middlewares/lvgl/examples/layouts/grid/../../../src/core/lv_disp.h ****  * @return pointer to the active screen object (loaded by 'lv_scr_load()')
  50:Middlewares/lvgl/examples/layouts/grid/../../../src/core/lv_disp.h ****  */
  51:Middlewares/lvgl/examples/layouts/grid/../../../src/core/lv_disp.h **** lv_obj_t * lv_disp_get_scr_act(lv_disp_t * disp);
  52:Middlewares/lvgl/examples/layouts/grid/../../../src/core/lv_disp.h **** 
  53:Middlewares/lvgl/examples/layouts/grid/../../../src/core/lv_disp.h **** /**
  54:Middlewares/lvgl/examples/layouts/grid/../../../src/core/lv_disp.h ****  * Return with a pointer to the previous screen. Only used during screen transitions.
  55:Middlewares/lvgl/examples/layouts/grid/../../../src/core/lv_disp.h ****  * @param disp pointer to display which previous screen should be get. (NULL to use the default
  56:Middlewares/lvgl/examples/layouts/grid/../../../src/core/lv_disp.h ****  * screen)
  57:Middlewares/lvgl/examples/layouts/grid/../../../src/core/lv_disp.h ****  * @return pointer to the previous screen object or NULL if not used now
  58:Middlewares/lvgl/examples/layouts/grid/../../../src/core/lv_disp.h ****  */
  59:Middlewares/lvgl/examples/layouts/grid/../../../src/core/lv_disp.h **** lv_obj_t * lv_disp_get_scr_prev(lv_disp_t * disp);
  60:Middlewares/lvgl/examples/layouts/grid/../../../src/core/lv_disp.h **** 
  61:Middlewares/lvgl/examples/layouts/grid/../../../src/core/lv_disp.h **** /**
  62:Middlewares/lvgl/examples/layouts/grid/../../../src/core/lv_disp.h ****  * Make a screen active
  63:Middlewares/lvgl/examples/layouts/grid/../../../src/core/lv_disp.h ****  * @param scr pointer to a screen
  64:Middlewares/lvgl/examples/layouts/grid/../../../src/core/lv_disp.h ****  */
  65:Middlewares/lvgl/examples/layouts/grid/../../../src/core/lv_disp.h **** void lv_disp_load_scr(lv_obj_t * scr);
  66:Middlewares/lvgl/examples/layouts/grid/../../../src/core/lv_disp.h **** 
  67:Middlewares/lvgl/examples/layouts/grid/../../../src/core/lv_disp.h **** /**
  68:Middlewares/lvgl/examples/layouts/grid/../../../src/core/lv_disp.h ****  * Return with the top layer. (Same on every screen and it is above the normal screen layer)
  69:Middlewares/lvgl/examples/layouts/grid/../../../src/core/lv_disp.h ****  * @param disp pointer to display which top layer should be get. (NULL to use the default screen)
  70:Middlewares/lvgl/examples/layouts/grid/../../../src/core/lv_disp.h ****  * @return pointer to the top layer object  (transparent screen sized lv_obj)
  71:Middlewares/lvgl/examples/layouts/grid/../../../src/core/lv_disp.h ****  */
  72:Middlewares/lvgl/examples/layouts/grid/../../../src/core/lv_disp.h **** lv_obj_t * lv_disp_get_layer_top(lv_disp_t * disp);
  73:Middlewares/lvgl/examples/layouts/grid/../../../src/core/lv_disp.h **** 
  74:Middlewares/lvgl/examples/layouts/grid/../../../src/core/lv_disp.h **** /**
  75:Middlewares/lvgl/examples/layouts/grid/../../../src/core/lv_disp.h ****  * Return with the sys. layer. (Same on every screen and it is above the normal screen and the top
  76:Middlewares/lvgl/examples/layouts/grid/../../../src/core/lv_disp.h ****  * layer)
  77:Middlewares/lvgl/examples/layouts/grid/../../../src/core/lv_disp.h ****  * @param disp pointer to display which sys. layer  should be get. (NULL to use the default screen)
  78:Middlewares/lvgl/examples/layouts/grid/../../../src/core/lv_disp.h ****  * @return pointer to the sys layer object  (transparent screen sized lv_obj)
  79:Middlewares/lvgl/examples/layouts/grid/../../../src/core/lv_disp.h ****  */
  80:Middlewares/lvgl/examples/layouts/grid/../../../src/core/lv_disp.h **** lv_obj_t * lv_disp_get_layer_sys(lv_disp_t * disp);
  81:Middlewares/lvgl/examples/layouts/grid/../../../src/core/lv_disp.h **** 
  82:Middlewares/lvgl/examples/layouts/grid/../../../src/core/lv_disp.h **** /**
  83:Middlewares/lvgl/examples/layouts/grid/../../../src/core/lv_disp.h ****  * Get the theme of a display
  84:Middlewares/lvgl/examples/layouts/grid/../../../src/core/lv_disp.h ****  * @param disp pointer to a display
  85:Middlewares/lvgl/examples/layouts/grid/../../../src/core/lv_disp.h ****  * @return the display's theme (can be NULL)
  86:Middlewares/lvgl/examples/layouts/grid/../../../src/core/lv_disp.h ****  */
  87:Middlewares/lvgl/examples/layouts/grid/../../../src/core/lv_disp.h **** void lv_disp_set_theme(lv_disp_t * disp, lv_theme_t * th);
  88:Middlewares/lvgl/examples/layouts/grid/../../../src/core/lv_disp.h **** 
  89:Middlewares/lvgl/examples/layouts/grid/../../../src/core/lv_disp.h **** /**
  90:Middlewares/lvgl/examples/layouts/grid/../../../src/core/lv_disp.h ****  * Get the theme of a display
  91:Middlewares/lvgl/examples/layouts/grid/../../../src/core/lv_disp.h ****  * @param disp pointer to a display
  92:Middlewares/lvgl/examples/layouts/grid/../../../src/core/lv_disp.h ****  * @return the display's theme (can be NULL)
  93:Middlewares/lvgl/examples/layouts/grid/../../../src/core/lv_disp.h ****  */
  94:Middlewares/lvgl/examples/layouts/grid/../../../src/core/lv_disp.h **** lv_theme_t * lv_disp_get_theme(lv_disp_t * disp);
  95:Middlewares/lvgl/examples/layouts/grid/../../../src/core/lv_disp.h **** 
  96:Middlewares/lvgl/examples/layouts/grid/../../../src/core/lv_disp.h **** /**
  97:Middlewares/lvgl/examples/layouts/grid/../../../src/core/lv_disp.h ****  * Set the background color of a display
  98:Middlewares/lvgl/examples/layouts/grid/../../../src/core/lv_disp.h ****  * @param disp pointer to a display
ARM GAS  /tmp/ccjMyaD4.s 			page 4


  99:Middlewares/lvgl/examples/layouts/grid/../../../src/core/lv_disp.h ****  * @param color color of the background
 100:Middlewares/lvgl/examples/layouts/grid/../../../src/core/lv_disp.h ****  */
 101:Middlewares/lvgl/examples/layouts/grid/../../../src/core/lv_disp.h **** void lv_disp_set_bg_color(lv_disp_t * disp, lv_color_t color);
 102:Middlewares/lvgl/examples/layouts/grid/../../../src/core/lv_disp.h **** 
 103:Middlewares/lvgl/examples/layouts/grid/../../../src/core/lv_disp.h **** /**
 104:Middlewares/lvgl/examples/layouts/grid/../../../src/core/lv_disp.h ****  * Set the background image of a display
 105:Middlewares/lvgl/examples/layouts/grid/../../../src/core/lv_disp.h ****  * @param disp pointer to a display
 106:Middlewares/lvgl/examples/layouts/grid/../../../src/core/lv_disp.h ****  * @param img_src path to file or pointer to an `lv_img_dsc_t` variable
 107:Middlewares/lvgl/examples/layouts/grid/../../../src/core/lv_disp.h ****  */
 108:Middlewares/lvgl/examples/layouts/grid/../../../src/core/lv_disp.h **** void lv_disp_set_bg_image(lv_disp_t * disp, const void  * img_src);
 109:Middlewares/lvgl/examples/layouts/grid/../../../src/core/lv_disp.h **** 
 110:Middlewares/lvgl/examples/layouts/grid/../../../src/core/lv_disp.h **** /**
 111:Middlewares/lvgl/examples/layouts/grid/../../../src/core/lv_disp.h ****  * Opacity of the background
 112:Middlewares/lvgl/examples/layouts/grid/../../../src/core/lv_disp.h ****  * @param disp pointer to a display
 113:Middlewares/lvgl/examples/layouts/grid/../../../src/core/lv_disp.h ****  * @param opa opacity (0..255)
 114:Middlewares/lvgl/examples/layouts/grid/../../../src/core/lv_disp.h ****  */
 115:Middlewares/lvgl/examples/layouts/grid/../../../src/core/lv_disp.h **** void lv_disp_set_bg_opa(lv_disp_t * disp, lv_opa_t opa);
 116:Middlewares/lvgl/examples/layouts/grid/../../../src/core/lv_disp.h **** 
 117:Middlewares/lvgl/examples/layouts/grid/../../../src/core/lv_disp.h **** /**
 118:Middlewares/lvgl/examples/layouts/grid/../../../src/core/lv_disp.h ****  * Switch screen with animation
 119:Middlewares/lvgl/examples/layouts/grid/../../../src/core/lv_disp.h ****  * @param scr pointer to the new screen to load
 120:Middlewares/lvgl/examples/layouts/grid/../../../src/core/lv_disp.h ****  * @param anim_type type of the animation from `lv_scr_load_anim_t`. E.g.  `LV_SCR_LOAD_ANIM_MOVE_L
 121:Middlewares/lvgl/examples/layouts/grid/../../../src/core/lv_disp.h ****  * @param time time of the animation
 122:Middlewares/lvgl/examples/layouts/grid/../../../src/core/lv_disp.h ****  * @param delay delay before the transition
 123:Middlewares/lvgl/examples/layouts/grid/../../../src/core/lv_disp.h ****  * @param auto_del true: automatically delete the old screen
 124:Middlewares/lvgl/examples/layouts/grid/../../../src/core/lv_disp.h ****  */
 125:Middlewares/lvgl/examples/layouts/grid/../../../src/core/lv_disp.h **** void lv_scr_load_anim(lv_obj_t * scr, lv_scr_load_anim_t anim_type, uint32_t time, uint32_t delay, 
 126:Middlewares/lvgl/examples/layouts/grid/../../../src/core/lv_disp.h **** 
 127:Middlewares/lvgl/examples/layouts/grid/../../../src/core/lv_disp.h **** /**
 128:Middlewares/lvgl/examples/layouts/grid/../../../src/core/lv_disp.h ****  * Get elapsed time since last user activity on a display (e.g. click)
 129:Middlewares/lvgl/examples/layouts/grid/../../../src/core/lv_disp.h ****  * @param disp pointer to an display (NULL to get the overall smallest inactivity)
 130:Middlewares/lvgl/examples/layouts/grid/../../../src/core/lv_disp.h ****  * @return elapsed ticks (milliseconds) since the last activity
 131:Middlewares/lvgl/examples/layouts/grid/../../../src/core/lv_disp.h ****  */
 132:Middlewares/lvgl/examples/layouts/grid/../../../src/core/lv_disp.h **** uint32_t lv_disp_get_inactive_time(const lv_disp_t * disp);
 133:Middlewares/lvgl/examples/layouts/grid/../../../src/core/lv_disp.h **** 
 134:Middlewares/lvgl/examples/layouts/grid/../../../src/core/lv_disp.h **** /**
 135:Middlewares/lvgl/examples/layouts/grid/../../../src/core/lv_disp.h ****  * Manually trigger an activity on a display
 136:Middlewares/lvgl/examples/layouts/grid/../../../src/core/lv_disp.h ****  * @param disp pointer to an display (NULL to use the default display)
 137:Middlewares/lvgl/examples/layouts/grid/../../../src/core/lv_disp.h ****  */
 138:Middlewares/lvgl/examples/layouts/grid/../../../src/core/lv_disp.h **** void lv_disp_trig_activity(lv_disp_t * disp);
 139:Middlewares/lvgl/examples/layouts/grid/../../../src/core/lv_disp.h **** 
 140:Middlewares/lvgl/examples/layouts/grid/../../../src/core/lv_disp.h **** /**
 141:Middlewares/lvgl/examples/layouts/grid/../../../src/core/lv_disp.h ****  * Clean any CPU cache that is related to the display.
 142:Middlewares/lvgl/examples/layouts/grid/../../../src/core/lv_disp.h ****  * @param disp pointer to an display (NULL to use the default display)
 143:Middlewares/lvgl/examples/layouts/grid/../../../src/core/lv_disp.h ****  */
 144:Middlewares/lvgl/examples/layouts/grid/../../../src/core/lv_disp.h **** void lv_disp_clean_dcache(lv_disp_t * disp);
 145:Middlewares/lvgl/examples/layouts/grid/../../../src/core/lv_disp.h **** 
 146:Middlewares/lvgl/examples/layouts/grid/../../../src/core/lv_disp.h **** /**
 147:Middlewares/lvgl/examples/layouts/grid/../../../src/core/lv_disp.h ****  * Get a pointer to the screen refresher timer to
 148:Middlewares/lvgl/examples/layouts/grid/../../../src/core/lv_disp.h ****  * modify its parameters with `lv_timer_...` functions.
 149:Middlewares/lvgl/examples/layouts/grid/../../../src/core/lv_disp.h ****  * @param disp pointer to a display
 150:Middlewares/lvgl/examples/layouts/grid/../../../src/core/lv_disp.h ****  * @return pointer to the display refresher timer. (NULL on error)
 151:Middlewares/lvgl/examples/layouts/grid/../../../src/core/lv_disp.h ****  */
 152:Middlewares/lvgl/examples/layouts/grid/../../../src/core/lv_disp.h **** lv_timer_t * _lv_disp_get_refr_timer(lv_disp_t * disp);
 153:Middlewares/lvgl/examples/layouts/grid/../../../src/core/lv_disp.h **** 
 154:Middlewares/lvgl/examples/layouts/grid/../../../src/core/lv_disp.h **** /*------------------------------------------------
 155:Middlewares/lvgl/examples/layouts/grid/../../../src/core/lv_disp.h ****  * To improve backward compatibility
ARM GAS  /tmp/ccjMyaD4.s 			page 5


 156:Middlewares/lvgl/examples/layouts/grid/../../../src/core/lv_disp.h ****  * Recommended only if you have one display
 157:Middlewares/lvgl/examples/layouts/grid/../../../src/core/lv_disp.h ****  *------------------------------------------------*/
 158:Middlewares/lvgl/examples/layouts/grid/../../../src/core/lv_disp.h **** 
 159:Middlewares/lvgl/examples/layouts/grid/../../../src/core/lv_disp.h **** /**
 160:Middlewares/lvgl/examples/layouts/grid/../../../src/core/lv_disp.h ****  * Get the active screen of the default display
 161:Middlewares/lvgl/examples/layouts/grid/../../../src/core/lv_disp.h ****  * @return pointer to the active screen
 162:Middlewares/lvgl/examples/layouts/grid/../../../src/core/lv_disp.h ****  */
 163:Middlewares/lvgl/examples/layouts/grid/../../../src/core/lv_disp.h **** static inline lv_obj_t * lv_scr_act(void)
  54              		.loc 2 163 26 view .LVU4
  55              	.LBB15:
 164:Middlewares/lvgl/examples/layouts/grid/../../../src/core/lv_disp.h **** {
 165:Middlewares/lvgl/examples/layouts/grid/../../../src/core/lv_disp.h ****     return lv_disp_get_scr_act(lv_disp_get_default());
  56              		.loc 2 165 5 view .LVU5
  57              		.loc 2 165 12 is_stmt 0 view .LVU6
  58 0006 FFF7FEFF 		bl	lv_disp_get_default
  59              	.LVL0:
  60 000a FFF7FEFF 		bl	lv_disp_get_scr_act
  61              	.LVL1:
  62              	.LBE15:
  63              	.LBE14:
  64              		.loc 1 20 23 view .LVU7
  65 000e FFF7FEFF 		bl	lv_obj_create
  66              	.LVL2:
  67 0012 0746     		mov	r7, r0
  68              	.LVL3:
  21:Middlewares/lvgl/examples/layouts/grid/lv_example_grid_3.c ****     lv_obj_set_size(cont, 300, 220);
  69              		.loc 1 21 5 is_stmt 1 view .LVU8
  70 0014 DC22     		movs	r2, #220
  71 0016 4FF49671 		mov	r1, #300
  72 001a FFF7FEFF 		bl	lv_obj_set_size
  73              	.LVL4:
  22:Middlewares/lvgl/examples/layouts/grid/lv_example_grid_3.c ****     lv_obj_center(cont);
  74              		.loc 1 22 5 view .LVU9
  75              	.LBB16:
  76              	.LBI16:
  77              		.file 3 "Middlewares/lvgl/examples/layouts/grid/../../../src/core/lv_obj_pos.h"
   1:Middlewares/lvgl/examples/layouts/grid/../../../src/core/lv_obj_pos.h **** /**
   2:Middlewares/lvgl/examples/layouts/grid/../../../src/core/lv_obj_pos.h ****  * @file lv_obj_pos.h
   3:Middlewares/lvgl/examples/layouts/grid/../../../src/core/lv_obj_pos.h ****  *
   4:Middlewares/lvgl/examples/layouts/grid/../../../src/core/lv_obj_pos.h ****  */
   5:Middlewares/lvgl/examples/layouts/grid/../../../src/core/lv_obj_pos.h **** 
   6:Middlewares/lvgl/examples/layouts/grid/../../../src/core/lv_obj_pos.h **** #ifndef LV_OBJ_POS_H
   7:Middlewares/lvgl/examples/layouts/grid/../../../src/core/lv_obj_pos.h **** #define LV_OBJ_POS_H
   8:Middlewares/lvgl/examples/layouts/grid/../../../src/core/lv_obj_pos.h **** 
   9:Middlewares/lvgl/examples/layouts/grid/../../../src/core/lv_obj_pos.h **** #ifdef __cplusplus
  10:Middlewares/lvgl/examples/layouts/grid/../../../src/core/lv_obj_pos.h **** extern "C" {
  11:Middlewares/lvgl/examples/layouts/grid/../../../src/core/lv_obj_pos.h **** #endif
  12:Middlewares/lvgl/examples/layouts/grid/../../../src/core/lv_obj_pos.h **** 
  13:Middlewares/lvgl/examples/layouts/grid/../../../src/core/lv_obj_pos.h **** /*********************
  14:Middlewares/lvgl/examples/layouts/grid/../../../src/core/lv_obj_pos.h ****  *      INCLUDES
  15:Middlewares/lvgl/examples/layouts/grid/../../../src/core/lv_obj_pos.h ****  *********************/
  16:Middlewares/lvgl/examples/layouts/grid/../../../src/core/lv_obj_pos.h **** #include "../misc/lv_area.h"
  17:Middlewares/lvgl/examples/layouts/grid/../../../src/core/lv_obj_pos.h **** 
  18:Middlewares/lvgl/examples/layouts/grid/../../../src/core/lv_obj_pos.h **** /*********************
  19:Middlewares/lvgl/examples/layouts/grid/../../../src/core/lv_obj_pos.h ****  *      DEFINES
  20:Middlewares/lvgl/examples/layouts/grid/../../../src/core/lv_obj_pos.h ****  *********************/
  21:Middlewares/lvgl/examples/layouts/grid/../../../src/core/lv_obj_pos.h **** 
ARM GAS  /tmp/ccjMyaD4.s 			page 6


  22:Middlewares/lvgl/examples/layouts/grid/../../../src/core/lv_obj_pos.h **** /**********************
  23:Middlewares/lvgl/examples/layouts/grid/../../../src/core/lv_obj_pos.h ****  *      TYPEDEFS
  24:Middlewares/lvgl/examples/layouts/grid/../../../src/core/lv_obj_pos.h ****  **********************/
  25:Middlewares/lvgl/examples/layouts/grid/../../../src/core/lv_obj_pos.h **** struct _lv_obj_t;
  26:Middlewares/lvgl/examples/layouts/grid/../../../src/core/lv_obj_pos.h **** 
  27:Middlewares/lvgl/examples/layouts/grid/../../../src/core/lv_obj_pos.h **** typedef void (*lv_layout_update_cb_t)(struct _lv_obj_t *, void * user_data);
  28:Middlewares/lvgl/examples/layouts/grid/../../../src/core/lv_obj_pos.h **** typedef struct {
  29:Middlewares/lvgl/examples/layouts/grid/../../../src/core/lv_obj_pos.h ****     lv_layout_update_cb_t cb;
  30:Middlewares/lvgl/examples/layouts/grid/../../../src/core/lv_obj_pos.h ****     void * user_data;
  31:Middlewares/lvgl/examples/layouts/grid/../../../src/core/lv_obj_pos.h **** }lv_layout_dsc_t;
  32:Middlewares/lvgl/examples/layouts/grid/../../../src/core/lv_obj_pos.h **** 
  33:Middlewares/lvgl/examples/layouts/grid/../../../src/core/lv_obj_pos.h **** /**********************
  34:Middlewares/lvgl/examples/layouts/grid/../../../src/core/lv_obj_pos.h ****  * GLOBAL PROTOTYPES
  35:Middlewares/lvgl/examples/layouts/grid/../../../src/core/lv_obj_pos.h ****  **********************/
  36:Middlewares/lvgl/examples/layouts/grid/../../../src/core/lv_obj_pos.h **** 
  37:Middlewares/lvgl/examples/layouts/grid/../../../src/core/lv_obj_pos.h **** /**
  38:Middlewares/lvgl/examples/layouts/grid/../../../src/core/lv_obj_pos.h ****  * Set the relative the position of an object (relative to the parent's top left corner)
  39:Middlewares/lvgl/examples/layouts/grid/../../../src/core/lv_obj_pos.h ****  * @param obj       pointer to an object
  40:Middlewares/lvgl/examples/layouts/grid/../../../src/core/lv_obj_pos.h ****  * @param x         new distance from the left side of the parent plus the parent's left padding
  41:Middlewares/lvgl/examples/layouts/grid/../../../src/core/lv_obj_pos.h ****  * @param y         new distance from the top side of the parent  plus the parent's right padding
  42:Middlewares/lvgl/examples/layouts/grid/../../../src/core/lv_obj_pos.h ****  */
  43:Middlewares/lvgl/examples/layouts/grid/../../../src/core/lv_obj_pos.h **** void lv_obj_set_pos(struct _lv_obj_t * obj, lv_coord_t x, lv_coord_t y);
  44:Middlewares/lvgl/examples/layouts/grid/../../../src/core/lv_obj_pos.h **** 
  45:Middlewares/lvgl/examples/layouts/grid/../../../src/core/lv_obj_pos.h **** /**
  46:Middlewares/lvgl/examples/layouts/grid/../../../src/core/lv_obj_pos.h ****  * Set the x coordinate of a object
  47:Middlewares/lvgl/examples/layouts/grid/../../../src/core/lv_obj_pos.h ****  * @param obj       pointer to an object
  48:Middlewares/lvgl/examples/layouts/grid/../../../src/core/lv_obj_pos.h ****  * @param x         new distance from the left side from the parent plus the parent's left padding
  49:Middlewares/lvgl/examples/layouts/grid/../../../src/core/lv_obj_pos.h ****  */
  50:Middlewares/lvgl/examples/layouts/grid/../../../src/core/lv_obj_pos.h **** void lv_obj_set_x(struct _lv_obj_t * obj, lv_coord_t x);
  51:Middlewares/lvgl/examples/layouts/grid/../../../src/core/lv_obj_pos.h **** 
  52:Middlewares/lvgl/examples/layouts/grid/../../../src/core/lv_obj_pos.h **** /**
  53:Middlewares/lvgl/examples/layouts/grid/../../../src/core/lv_obj_pos.h ****  * Set the y coordinate of a object
  54:Middlewares/lvgl/examples/layouts/grid/../../../src/core/lv_obj_pos.h ****  * @param obj       pointer to an object
  55:Middlewares/lvgl/examples/layouts/grid/../../../src/core/lv_obj_pos.h ****  * @param y         new distance from the top of the parent  plus the parent's top padding
  56:Middlewares/lvgl/examples/layouts/grid/../../../src/core/lv_obj_pos.h ****  */
  57:Middlewares/lvgl/examples/layouts/grid/../../../src/core/lv_obj_pos.h **** void lv_obj_set_y(struct _lv_obj_t * obj, lv_coord_t y);
  58:Middlewares/lvgl/examples/layouts/grid/../../../src/core/lv_obj_pos.h **** 
  59:Middlewares/lvgl/examples/layouts/grid/../../../src/core/lv_obj_pos.h **** /**
  60:Middlewares/lvgl/examples/layouts/grid/../../../src/core/lv_obj_pos.h ****  * Set the size of an object.
  61:Middlewares/lvgl/examples/layouts/grid/../../../src/core/lv_obj_pos.h ****  * @param obj       pointer to an object
  62:Middlewares/lvgl/examples/layouts/grid/../../../src/core/lv_obj_pos.h ****  * @param w         the new width
  63:Middlewares/lvgl/examples/layouts/grid/../../../src/core/lv_obj_pos.h ****  * @param h         the new height
  64:Middlewares/lvgl/examples/layouts/grid/../../../src/core/lv_obj_pos.h ****  * @note            possible values are:
  65:Middlewares/lvgl/examples/layouts/grid/../../../src/core/lv_obj_pos.h ****  *                  pixel               simple set the size accordingly
  66:Middlewares/lvgl/examples/layouts/grid/../../../src/core/lv_obj_pos.h ****  *                  LV_SIZE_CONTENT     set the size to involve all children in the given direction
  67:Middlewares/lvgl/examples/layouts/grid/../../../src/core/lv_obj_pos.h ****  *                  LV_SIZE_PCT(x)     to set size in percentage of the parent's content area size 
  68:Middlewares/lvgl/examples/layouts/grid/../../../src/core/lv_obj_pos.h ****  *                                      x should be in [0..1000]% range
  69:Middlewares/lvgl/examples/layouts/grid/../../../src/core/lv_obj_pos.h ****  */
  70:Middlewares/lvgl/examples/layouts/grid/../../../src/core/lv_obj_pos.h **** void lv_obj_set_size(struct _lv_obj_t * obj, lv_coord_t w, lv_coord_t h);
  71:Middlewares/lvgl/examples/layouts/grid/../../../src/core/lv_obj_pos.h **** 
  72:Middlewares/lvgl/examples/layouts/grid/../../../src/core/lv_obj_pos.h **** /**
  73:Middlewares/lvgl/examples/layouts/grid/../../../src/core/lv_obj_pos.h ****  * Recalculate the size of the object
  74:Middlewares/lvgl/examples/layouts/grid/../../../src/core/lv_obj_pos.h ****  * @param obj       pointer to an object
  75:Middlewares/lvgl/examples/layouts/grid/../../../src/core/lv_obj_pos.h ****  * @return          true: the size has been changed
  76:Middlewares/lvgl/examples/layouts/grid/../../../src/core/lv_obj_pos.h ****  */
  77:Middlewares/lvgl/examples/layouts/grid/../../../src/core/lv_obj_pos.h **** bool lv_obj_refr_size(struct _lv_obj_t * obj);
  78:Middlewares/lvgl/examples/layouts/grid/../../../src/core/lv_obj_pos.h **** 
ARM GAS  /tmp/ccjMyaD4.s 			page 7


  79:Middlewares/lvgl/examples/layouts/grid/../../../src/core/lv_obj_pos.h **** /**
  80:Middlewares/lvgl/examples/layouts/grid/../../../src/core/lv_obj_pos.h ****  * Set the width of an object
  81:Middlewares/lvgl/examples/layouts/grid/../../../src/core/lv_obj_pos.h ****  * @param obj       pointer to an object
  82:Middlewares/lvgl/examples/layouts/grid/../../../src/core/lv_obj_pos.h ****  * @param w         the new width
  83:Middlewares/lvgl/examples/layouts/grid/../../../src/core/lv_obj_pos.h ****  * @note            possible values are:
  84:Middlewares/lvgl/examples/layouts/grid/../../../src/core/lv_obj_pos.h ****  *                  pixel               simple set the size accordingly
  85:Middlewares/lvgl/examples/layouts/grid/../../../src/core/lv_obj_pos.h ****  *                  LV_SIZE_CONTENT     set the size to involve all children in the given direction
  86:Middlewares/lvgl/examples/layouts/grid/../../../src/core/lv_obj_pos.h ****  *                  lv_pct(x)           to set size in percentage of the parent's content area size
  87:Middlewares/lvgl/examples/layouts/grid/../../../src/core/lv_obj_pos.h ****  *                                      x should be in [0..1000]% range
  88:Middlewares/lvgl/examples/layouts/grid/../../../src/core/lv_obj_pos.h ****  */
  89:Middlewares/lvgl/examples/layouts/grid/../../../src/core/lv_obj_pos.h **** void lv_obj_set_width(struct _lv_obj_t * obj, lv_coord_t w);
  90:Middlewares/lvgl/examples/layouts/grid/../../../src/core/lv_obj_pos.h **** 
  91:Middlewares/lvgl/examples/layouts/grid/../../../src/core/lv_obj_pos.h **** /**
  92:Middlewares/lvgl/examples/layouts/grid/../../../src/core/lv_obj_pos.h ****  * Set the height of an object
  93:Middlewares/lvgl/examples/layouts/grid/../../../src/core/lv_obj_pos.h ****  * @param obj       pointer to an object
  94:Middlewares/lvgl/examples/layouts/grid/../../../src/core/lv_obj_pos.h ****  * @param h         the new height
  95:Middlewares/lvgl/examples/layouts/grid/../../../src/core/lv_obj_pos.h ****  * @note            possible values are:
  96:Middlewares/lvgl/examples/layouts/grid/../../../src/core/lv_obj_pos.h ****  *                  pixel               simple set the size accordingly
  97:Middlewares/lvgl/examples/layouts/grid/../../../src/core/lv_obj_pos.h ****  *                  LV_SIZE_CONTENT     set the size to involve all children in the given direction
  98:Middlewares/lvgl/examples/layouts/grid/../../../src/core/lv_obj_pos.h ****  *                  lv_pct(x)           to set size in percentage of the parent's content area size
  99:Middlewares/lvgl/examples/layouts/grid/../../../src/core/lv_obj_pos.h ****  *                                      x should be in [0..1000]% range
 100:Middlewares/lvgl/examples/layouts/grid/../../../src/core/lv_obj_pos.h ****  */
 101:Middlewares/lvgl/examples/layouts/grid/../../../src/core/lv_obj_pos.h **** void lv_obj_set_height(struct _lv_obj_t * obj, lv_coord_t h);
 102:Middlewares/lvgl/examples/layouts/grid/../../../src/core/lv_obj_pos.h **** 
 103:Middlewares/lvgl/examples/layouts/grid/../../../src/core/lv_obj_pos.h **** /**
 104:Middlewares/lvgl/examples/layouts/grid/../../../src/core/lv_obj_pos.h ****  * Set the width reduced by the left and right padding and the border width.
 105:Middlewares/lvgl/examples/layouts/grid/../../../src/core/lv_obj_pos.h ****  * @param obj       pointer to an object
 106:Middlewares/lvgl/examples/layouts/grid/../../../src/core/lv_obj_pos.h ****  * @param w         the width without paddings in pixels
 107:Middlewares/lvgl/examples/layouts/grid/../../../src/core/lv_obj_pos.h ****  */
 108:Middlewares/lvgl/examples/layouts/grid/../../../src/core/lv_obj_pos.h **** void lv_obj_set_content_width(struct _lv_obj_t * obj, lv_coord_t w);
 109:Middlewares/lvgl/examples/layouts/grid/../../../src/core/lv_obj_pos.h **** 
 110:Middlewares/lvgl/examples/layouts/grid/../../../src/core/lv_obj_pos.h **** /**
 111:Middlewares/lvgl/examples/layouts/grid/../../../src/core/lv_obj_pos.h ****  * Set the height reduced by the top and bottom padding and the border width.
 112:Middlewares/lvgl/examples/layouts/grid/../../../src/core/lv_obj_pos.h ****  * @param obj       pointer to an object
 113:Middlewares/lvgl/examples/layouts/grid/../../../src/core/lv_obj_pos.h ****  * @param h         the height without paddings in pixels
 114:Middlewares/lvgl/examples/layouts/grid/../../../src/core/lv_obj_pos.h ****  */
 115:Middlewares/lvgl/examples/layouts/grid/../../../src/core/lv_obj_pos.h **** void lv_obj_set_content_height(struct _lv_obj_t * obj, lv_coord_t h);
 116:Middlewares/lvgl/examples/layouts/grid/../../../src/core/lv_obj_pos.h **** 
 117:Middlewares/lvgl/examples/layouts/grid/../../../src/core/lv_obj_pos.h **** /**
 118:Middlewares/lvgl/examples/layouts/grid/../../../src/core/lv_obj_pos.h ****  * Set a layout for an object
 119:Middlewares/lvgl/examples/layouts/grid/../../../src/core/lv_obj_pos.h ****  * @param obj       pointer to an object
 120:Middlewares/lvgl/examples/layouts/grid/../../../src/core/lv_obj_pos.h ****  * @param layout    pointer to a layout descriptor to set
 121:Middlewares/lvgl/examples/layouts/grid/../../../src/core/lv_obj_pos.h ****  */
 122:Middlewares/lvgl/examples/layouts/grid/../../../src/core/lv_obj_pos.h **** void lv_obj_set_layout(struct _lv_obj_t * obj, uint32_t layout);
 123:Middlewares/lvgl/examples/layouts/grid/../../../src/core/lv_obj_pos.h **** 
 124:Middlewares/lvgl/examples/layouts/grid/../../../src/core/lv_obj_pos.h **** /**
 125:Middlewares/lvgl/examples/layouts/grid/../../../src/core/lv_obj_pos.h ****  * Test whether the and object is positioned by a layout or not
 126:Middlewares/lvgl/examples/layouts/grid/../../../src/core/lv_obj_pos.h ****  * @param obj       pointer to an object to test
 127:Middlewares/lvgl/examples/layouts/grid/../../../src/core/lv_obj_pos.h ****  * @return true:    positioned by a layout; false: not positioned by a layout
 128:Middlewares/lvgl/examples/layouts/grid/../../../src/core/lv_obj_pos.h ****  */
 129:Middlewares/lvgl/examples/layouts/grid/../../../src/core/lv_obj_pos.h **** bool lv_obj_is_layout_positioned(const struct _lv_obj_t * obj);
 130:Middlewares/lvgl/examples/layouts/grid/../../../src/core/lv_obj_pos.h **** 
 131:Middlewares/lvgl/examples/layouts/grid/../../../src/core/lv_obj_pos.h **** /**
 132:Middlewares/lvgl/examples/layouts/grid/../../../src/core/lv_obj_pos.h ****  * Mark the object for layout update.
 133:Middlewares/lvgl/examples/layouts/grid/../../../src/core/lv_obj_pos.h ****  * @param obj      pointer to an object whose children needs to be updated
 134:Middlewares/lvgl/examples/layouts/grid/../../../src/core/lv_obj_pos.h ****  */
 135:Middlewares/lvgl/examples/layouts/grid/../../../src/core/lv_obj_pos.h **** void lv_obj_mark_layout_as_dirty(struct _lv_obj_t * obj);
ARM GAS  /tmp/ccjMyaD4.s 			page 8


 136:Middlewares/lvgl/examples/layouts/grid/../../../src/core/lv_obj_pos.h **** 
 137:Middlewares/lvgl/examples/layouts/grid/../../../src/core/lv_obj_pos.h **** /**
 138:Middlewares/lvgl/examples/layouts/grid/../../../src/core/lv_obj_pos.h ****  * Update the layout of an object.
 139:Middlewares/lvgl/examples/layouts/grid/../../../src/core/lv_obj_pos.h ****  * @param obj      pointer to an object whose children needs to be updated
 140:Middlewares/lvgl/examples/layouts/grid/../../../src/core/lv_obj_pos.h ****  */
 141:Middlewares/lvgl/examples/layouts/grid/../../../src/core/lv_obj_pos.h **** void lv_obj_update_layout(const struct _lv_obj_t * obj);
 142:Middlewares/lvgl/examples/layouts/grid/../../../src/core/lv_obj_pos.h **** 
 143:Middlewares/lvgl/examples/layouts/grid/../../../src/core/lv_obj_pos.h **** /**
 144:Middlewares/lvgl/examples/layouts/grid/../../../src/core/lv_obj_pos.h ****  * Regsiter a new layout
 145:Middlewares/lvgl/examples/layouts/grid/../../../src/core/lv_obj_pos.h ****  * @param cb        the layout update callback
 146:Middlewares/lvgl/examples/layouts/grid/../../../src/core/lv_obj_pos.h ****  * @param user_data custom data that will be passed to `cb`
 147:Middlewares/lvgl/examples/layouts/grid/../../../src/core/lv_obj_pos.h ****  * @return          the ID of the new layout
 148:Middlewares/lvgl/examples/layouts/grid/../../../src/core/lv_obj_pos.h ****  */
 149:Middlewares/lvgl/examples/layouts/grid/../../../src/core/lv_obj_pos.h **** uint32_t lv_layout_register(lv_layout_update_cb_t cb, void * user_data);
 150:Middlewares/lvgl/examples/layouts/grid/../../../src/core/lv_obj_pos.h **** 
 151:Middlewares/lvgl/examples/layouts/grid/../../../src/core/lv_obj_pos.h **** /**
 152:Middlewares/lvgl/examples/layouts/grid/../../../src/core/lv_obj_pos.h ****  * Change the alignment of an object.
 153:Middlewares/lvgl/examples/layouts/grid/../../../src/core/lv_obj_pos.h ****  * @param obj       pointer to an object to align
 154:Middlewares/lvgl/examples/layouts/grid/../../../src/core/lv_obj_pos.h ****  * @param align     type of alignment (see 'lv_align_t' enum) `LV_ALIGN_OUT_...` can't be used.
 155:Middlewares/lvgl/examples/layouts/grid/../../../src/core/lv_obj_pos.h ****  */
 156:Middlewares/lvgl/examples/layouts/grid/../../../src/core/lv_obj_pos.h **** void lv_obj_set_align(struct _lv_obj_t * obj, lv_align_t align);
 157:Middlewares/lvgl/examples/layouts/grid/../../../src/core/lv_obj_pos.h **** 
 158:Middlewares/lvgl/examples/layouts/grid/../../../src/core/lv_obj_pos.h **** /**
 159:Middlewares/lvgl/examples/layouts/grid/../../../src/core/lv_obj_pos.h ****  * Change the alignment of an object and set new coordinates.
 160:Middlewares/lvgl/examples/layouts/grid/../../../src/core/lv_obj_pos.h ****  * Equivalent to:
 161:Middlewares/lvgl/examples/layouts/grid/../../../src/core/lv_obj_pos.h ****  * lv_obj_set_align(obj, align);
 162:Middlewares/lvgl/examples/layouts/grid/../../../src/core/lv_obj_pos.h ****  * lv_obj_set_pos(obj, x_ofs, y_ofs);
 163:Middlewares/lvgl/examples/layouts/grid/../../../src/core/lv_obj_pos.h ****  * @param obj       pointer to an object to align
 164:Middlewares/lvgl/examples/layouts/grid/../../../src/core/lv_obj_pos.h ****  * @param align     type of alignment (see 'lv_align_t' enum) `LV_ALIGN_OUT_...` can't be used.
 165:Middlewares/lvgl/examples/layouts/grid/../../../src/core/lv_obj_pos.h ****  * @param x_ofs     x coordinate offset after alignment
 166:Middlewares/lvgl/examples/layouts/grid/../../../src/core/lv_obj_pos.h ****  * @param y_ofs     y coordinate offset after alignment
 167:Middlewares/lvgl/examples/layouts/grid/../../../src/core/lv_obj_pos.h ****  */
 168:Middlewares/lvgl/examples/layouts/grid/../../../src/core/lv_obj_pos.h **** void lv_obj_align(struct _lv_obj_t * obj, lv_align_t align, lv_coord_t x_ofs, lv_coord_t y_ofs);
 169:Middlewares/lvgl/examples/layouts/grid/../../../src/core/lv_obj_pos.h **** 
 170:Middlewares/lvgl/examples/layouts/grid/../../../src/core/lv_obj_pos.h **** /**
 171:Middlewares/lvgl/examples/layouts/grid/../../../src/core/lv_obj_pos.h ****  * Align an object to an other object.
 172:Middlewares/lvgl/examples/layouts/grid/../../../src/core/lv_obj_pos.h ****  * @param obj       pointer to an object to align
 173:Middlewares/lvgl/examples/layouts/grid/../../../src/core/lv_obj_pos.h ****  * @param base      pointer to an other object (if NULL `obj`s parent is used). 'obj' will be align
 174:Middlewares/lvgl/examples/layouts/grid/../../../src/core/lv_obj_pos.h ****  * @param align     type of alignment (see 'lv_align_t' enum)
 175:Middlewares/lvgl/examples/layouts/grid/../../../src/core/lv_obj_pos.h ****  * @param x_ofs     x coordinate offset after alignment
 176:Middlewares/lvgl/examples/layouts/grid/../../../src/core/lv_obj_pos.h ****  * @param y_ofs     y coordinate offset after alignment
 177:Middlewares/lvgl/examples/layouts/grid/../../../src/core/lv_obj_pos.h ****  * @note            if the position or size of `base` changes `obj` needs to be aligned manually ag
 178:Middlewares/lvgl/examples/layouts/grid/../../../src/core/lv_obj_pos.h ****  */
 179:Middlewares/lvgl/examples/layouts/grid/../../../src/core/lv_obj_pos.h **** void lv_obj_align_to(struct _lv_obj_t * obj, const struct _lv_obj_t * base, lv_align_t align, lv_co
 180:Middlewares/lvgl/examples/layouts/grid/../../../src/core/lv_obj_pos.h **** 
 181:Middlewares/lvgl/examples/layouts/grid/../../../src/core/lv_obj_pos.h **** /**
 182:Middlewares/lvgl/examples/layouts/grid/../../../src/core/lv_obj_pos.h ****  * Align an object to the center on its parent.
 183:Middlewares/lvgl/examples/layouts/grid/../../../src/core/lv_obj_pos.h ****  * @param obj       pointer to an object to align
 184:Middlewares/lvgl/examples/layouts/grid/../../../src/core/lv_obj_pos.h ****  * @note            if the parent size changes `obj` needs to be aligned manually again
 185:Middlewares/lvgl/examples/layouts/grid/../../../src/core/lv_obj_pos.h ****  */
 186:Middlewares/lvgl/examples/layouts/grid/../../../src/core/lv_obj_pos.h **** static inline void lv_obj_center(struct _lv_obj_t * obj)
  78              		.loc 3 186 20 view .LVU10
  79              	.LBB17:
 187:Middlewares/lvgl/examples/layouts/grid/../../../src/core/lv_obj_pos.h **** {
 188:Middlewares/lvgl/examples/layouts/grid/../../../src/core/lv_obj_pos.h ****     lv_obj_align(obj, LV_ALIGN_CENTER, 0, 0);
  80              		.loc 3 188 5 view .LVU11
  81 001e 0023     		movs	r3, #0
ARM GAS  /tmp/ccjMyaD4.s 			page 9


  82 0020 1A46     		mov	r2, r3
  83 0022 0921     		movs	r1, #9
  84 0024 3846     		mov	r0, r7
  85 0026 FFF7FEFF 		bl	lv_obj_align
  86              	.LVL5:
  87              		.loc 3 188 5 is_stmt 0 view .LVU12
  88              	.LBE17:
  89              	.LBE16:
  23:Middlewares/lvgl/examples/layouts/grid/lv_example_grid_3.c ****     lv_obj_set_grid_dsc_array(cont, col_dsc, row_dsc);
  90              		.loc 1 23 5 is_stmt 1 view .LVU13
  91 002a 194A     		ldr	r2, .L5
  92 002c 1949     		ldr	r1, .L5+4
  93 002e 3846     		mov	r0, r7
  94 0030 FFF7FEFF 		bl	lv_obj_set_grid_dsc_array
  95              	.LVL6:
  24:Middlewares/lvgl/examples/layouts/grid/lv_example_grid_3.c **** 
  25:Middlewares/lvgl/examples/layouts/grid/lv_example_grid_3.c ****     lv_obj_t * label;
  96              		.loc 1 25 5 view .LVU14
  26:Middlewares/lvgl/examples/layouts/grid/lv_example_grid_3.c ****     lv_obj_t * obj;
  97              		.loc 1 26 5 view .LVU15
  27:Middlewares/lvgl/examples/layouts/grid/lv_example_grid_3.c ****     uint32_t i;
  98              		.loc 1 27 5 view .LVU16
  28:Middlewares/lvgl/examples/layouts/grid/lv_example_grid_3.c ****     for(i = 0; i < 9; i++) {
  99              		.loc 1 28 5 view .LVU17
 100              		.loc 1 28 11 is_stmt 0 view .LVU18
 101 0034 0025     		movs	r5, #0
 102              		.loc 1 28 5 view .LVU19
 103 0036 25E0     		b	.L2
 104              	.LVL7:
 105              	.L3:
 106              	.LBB18:
  29:Middlewares/lvgl/examples/layouts/grid/lv_example_grid_3.c ****         uint8_t col = i % 3;
 107              		.loc 1 29 9 is_stmt 1 discriminator 3 view .LVU20
 108              		.loc 1 29 25 is_stmt 0 discriminator 3 view .LVU21
 109 0038 174A     		ldr	r2, .L5+8
 110 003a A2FB0532 		umull	r3, r2, r2, r5
 111 003e 5208     		lsrs	r2, r2, #1
 112 0040 1646     		mov	r6, r2
 113 0042 02EB4202 		add	r2, r2, r2, lsl #1
 114 0046 AA1A     		subs	r2, r5, r2
 115              		.loc 1 29 17 discriminator 3 view .LVU22
 116 0048 D4B2     		uxtb	r4, r2
 117              	.LVL8:
  30:Middlewares/lvgl/examples/layouts/grid/lv_example_grid_3.c ****         uint8_t row = i / 3;
 118              		.loc 1 30 9 is_stmt 1 discriminator 3 view .LVU23
 119              		.loc 1 30 17 is_stmt 0 discriminator 3 view .LVU24
 120 004a F6B2     		uxtb	r6, r6
 121              	.LVL9:
  31:Middlewares/lvgl/examples/layouts/grid/lv_example_grid_3.c **** 
  32:Middlewares/lvgl/examples/layouts/grid/lv_example_grid_3.c ****         obj = lv_obj_create(cont);
 122              		.loc 1 32 9 is_stmt 1 discriminator 3 view .LVU25
 123              		.loc 1 32 15 is_stmt 0 discriminator 3 view .LVU26
 124 004c 3846     		mov	r0, r7
 125 004e FFF7FEFF 		bl	lv_obj_create
 126              	.LVL10:
 127 0052 8046     		mov	r8, r0
 128              	.LVL11:
ARM GAS  /tmp/ccjMyaD4.s 			page 10


  33:Middlewares/lvgl/examples/layouts/grid/lv_example_grid_3.c ****         /*Stretch the cell horizontally and vertically too
  34:Middlewares/lvgl/examples/layouts/grid/lv_example_grid_3.c ****          *Set span to 1 to make the cell 1 column/row sized*/
  35:Middlewares/lvgl/examples/layouts/grid/lv_example_grid_3.c ****         lv_obj_set_grid_cell(obj, LV_GRID_ALIGN_STRETCH, col, 1,
 129              		.loc 1 35 9 is_stmt 1 discriminator 3 view .LVU27
 130 0054 0123     		movs	r3, #1
 131 0056 0293     		str	r3, [sp, #8]
 132 0058 0196     		str	r6, [sp, #4]
 133 005a 0321     		movs	r1, #3
 134 005c 0091     		str	r1, [sp]
 135 005e 2246     		mov	r2, r4
 136 0060 FFF7FEFF 		bl	lv_obj_set_grid_cell
 137              	.LVL12:
  36:Middlewares/lvgl/examples/layouts/grid/lv_example_grid_3.c ****                                  LV_GRID_ALIGN_STRETCH, row, 1);
  37:Middlewares/lvgl/examples/layouts/grid/lv_example_grid_3.c **** 
  38:Middlewares/lvgl/examples/layouts/grid/lv_example_grid_3.c ****         label = lv_label_create(obj);
 138              		.loc 1 38 9 discriminator 3 view .LVU28
 139              		.loc 1 38 17 is_stmt 0 discriminator 3 view .LVU29
 140 0064 4046     		mov	r0, r8
 141 0066 FFF7FEFF 		bl	lv_label_create
 142              	.LVL13:
 143 006a 8046     		mov	r8, r0
 144              	.LVL14:
  39:Middlewares/lvgl/examples/layouts/grid/lv_example_grid_3.c ****         lv_label_set_text_fmt(label, "%d,%d", col, row);
 145              		.loc 1 39 9 is_stmt 1 discriminator 3 view .LVU30
 146 006c 3346     		mov	r3, r6
 147 006e 2246     		mov	r2, r4
 148 0070 0A49     		ldr	r1, .L5+12
 149 0072 FFF7FEFF 		bl	lv_label_set_text_fmt
 150              	.LVL15:
  40:Middlewares/lvgl/examples/layouts/grid/lv_example_grid_3.c ****         lv_obj_center(label);
 151              		.loc 1 40 9 discriminator 3 view .LVU31
 152              	.LBB19:
 153              	.LBI19:
 186:Middlewares/lvgl/examples/layouts/grid/../../../src/core/lv_obj_pos.h **** {
 154              		.loc 3 186 20 discriminator 3 view .LVU32
 155              	.LBB20:
 156              		.loc 3 188 5 discriminator 3 view .LVU33
 157 0076 0023     		movs	r3, #0
 158 0078 1A46     		mov	r2, r3
 159 007a 0921     		movs	r1, #9
 160 007c 4046     		mov	r0, r8
 161 007e FFF7FEFF 		bl	lv_obj_align
 162              	.LVL16:
 163              		.loc 3 188 5 is_stmt 0 discriminator 3 view .LVU34
 164              	.LBE20:
 165              	.LBE19:
 166              	.LBE18:
  28:Middlewares/lvgl/examples/layouts/grid/lv_example_grid_3.c ****         uint8_t col = i % 3;
 167              		.loc 1 28 23 is_stmt 1 discriminator 3 view .LVU35
  28:Middlewares/lvgl/examples/layouts/grid/lv_example_grid_3.c ****         uint8_t col = i % 3;
 168              		.loc 1 28 24 is_stmt 0 discriminator 3 view .LVU36
 169 0082 0135     		adds	r5, r5, #1
 170              	.LVL17:
 171              	.L2:
  28:Middlewares/lvgl/examples/layouts/grid/lv_example_grid_3.c ****         uint8_t col = i % 3;
 172              		.loc 1 28 16 is_stmt 1 discriminator 1 view .LVU37
  28:Middlewares/lvgl/examples/layouts/grid/lv_example_grid_3.c ****         uint8_t col = i % 3;
ARM GAS  /tmp/ccjMyaD4.s 			page 11


 173              		.loc 1 28 5 is_stmt 0 discriminator 1 view .LVU38
 174 0084 082D     		cmp	r5, #8
 175 0086 D7D9     		bls	.L3
  41:Middlewares/lvgl/examples/layouts/grid/lv_example_grid_3.c ****     }
  42:Middlewares/lvgl/examples/layouts/grid/lv_example_grid_3.c **** }
 176              		.loc 1 42 1 view .LVU39
 177 0088 04B0     		add	sp, sp, #16
 178              	.LCFI2:
 179              		.cfi_def_cfa_offset 24
 180              		@ sp needed
 181 008a BDE8F081 		pop	{r4, r5, r6, r7, r8, pc}
 182              	.LVL18:
 183              	.L6:
 184              		.loc 1 42 1 view .LVU40
 185 008e 00BF     		.align	2
 186              	.L5:
 187 0090 00000000 		.word	.LANCHOR0
 188 0094 00000000 		.word	.LANCHOR1
 189 0098 ABAAAAAA 		.word	-1431655765
 190 009c 00000000 		.word	.LC0
 191              		.cfi_endproc
 192              	.LFE184:
 194              		.section	.data.col_dsc.1,"aw"
 195              		.align	2
 196              		.set	.LANCHOR1,. + 0
 199              	col_dsc.1:
 200 0000 3C00     		.short	60
 201 0002 9D5F     		.short	24477
 202 0004 9E5F     		.short	24478
 203 0006 0060     		.short	24576
 204              		.section	.data.row_dsc.0,"aw"
 205              		.align	2
 206              		.set	.LANCHOR0,. + 0
 209              	row_dsc.0:
 210 0000 3200     		.short	50
 211 0002 9D5F     		.short	24477
 212 0004 3200     		.short	50
 213 0006 0060     		.short	24576
 214              		.text
 215              	.Letext0:
 216              		.file 4 "/home/akinya/gcc-arm-none-eabi/arm-none-eabi/include/machine/_default_types.h"
 217              		.file 5 "/home/akinya/gcc-arm-none-eabi/arm-none-eabi/include/sys/_stdint.h"
 218              		.file 6 "Middlewares/lvgl/examples/layouts/grid/../../../src/misc/lv_ll.h"
 219              		.file 7 "Middlewares/lvgl/examples/layouts/grid/../../../src/hal/../misc/lv_color.h"
 220              		.file 8 "Middlewares/lvgl/examples/layouts/grid/../../../src/hal/../misc/lv_area.h"
 221              		.file 9 "Middlewares/lvgl/examples/layouts/grid/../../../src/core/lv_obj.h"
 222              		.file 10 "Middlewares/lvgl/examples/layouts/grid/../../../src/core/lv_group.h"
 223              		.file 11 "Middlewares/lvgl/examples/layouts/grid/../../../src/core/../misc/lv_style.h"
 224              		.file 12 "Middlewares/lvgl/examples/layouts/grid/../../../src/core/lv_obj_scroll.h"
 225              		.file 13 "Middlewares/lvgl/examples/layouts/grid/../../../src/core/lv_obj_style.h"
 226              		.file 14 "Middlewares/lvgl/examples/layouts/grid/../../../src/core/lv_obj_class.h"
 227              		.file 15 "Middlewares/lvgl/examples/layouts/grid/../../../src/core/lv_event.h"
 228              		.file 16 "Middlewares/lvgl/examples/layouts/grid/../../../src/extra/layouts/grid/lv_grid.h"
 229              		.file 17 "Middlewares/lvgl/examples/layouts/grid/../../../src/widgets/lv_label.h"
 230              		.file 18 "Middlewares/lvgl/examples/layouts/grid/../../../src/hal/lv_hal_disp.h"
ARM GAS  /tmp/ccjMyaD4.s 			page 12

