ARM GAS  /tmp/ccZplYMc.s 			page 1


   1              		.cpu cortex-m7
   2              		.arch armv7e-m
   3              		.fpu fpv5-d16
   4              		.eabi_attribute 28, 1
   5              		.eabi_attribute 20, 1
   6              		.eabi_attribute 21, 1
   7              		.eabi_attribute 23, 3
   8              		.eabi_attribute 24, 1
   9              		.eabi_attribute 25, 1
  10              		.eabi_attribute 26, 1
  11              		.eabi_attribute 30, 1
  12              		.eabi_attribute 34, 1
  13              		.eabi_attribute 18, 4
  14              		.file	"lv_example_label_1.c"
  15              		.text
  16              	.Ltext0:
  17              		.cfi_sections	.debug_frame
  18              		.section	.rodata.lv_example_label_1.str1.4,"aMS",%progbits,1
  19              		.align	2
  20              	.LC0:
  21 0000 23303030 		.ascii	"#0000ff Re-color# #ff00ff words# #ff0000 of a# labe"
  21      30666620 
  21      52652D63 
  21      6F6C6F72 
  21      23202366 
  22 0033 6C2C2061 		.ascii	"l, align the lines to the center and wrap long text"
  22      6C69676E 
  22      20746865 
  22      206C696E 
  22      65732074 
  23 0066 20617574 		.ascii	" automatically.\000"
  23      6F6D6174 
  23      6963616C 
  23      6C792E00 
  24 0076 0000     		.align	2
  25              	.LC1:
  26 0078 49742069 		.ascii	"It is a circularly scrolling text.\000"
  26      73206120 
  26      63697263 
  26      756C6172 
  26      6C792073 
  27              		.section	.text.lv_example_label_1,"ax",%progbits
  28              		.align	1
  29              		.global	lv_example_label_1
  30              		.syntax unified
  31              		.thumb
  32              		.thumb_func
  34              	lv_example_label_1:
  35              	.LFB184:
  36              		.file 1 "Middlewares/lvgl/examples/widgets/label/lv_example_label_1.c"
   1:Middlewares/lvgl/examples/widgets/label/lv_example_label_1.c **** #include "../../lv_examples.h"
   2:Middlewares/lvgl/examples/widgets/label/lv_example_label_1.c **** #if LV_USE_LABEL && LV_BUILD_EXAMPLES
   3:Middlewares/lvgl/examples/widgets/label/lv_example_label_1.c **** 
   4:Middlewares/lvgl/examples/widgets/label/lv_example_label_1.c **** /**
   5:Middlewares/lvgl/examples/widgets/label/lv_example_label_1.c ****  * Show line wrap, re-color, line align and text scrolling.
   6:Middlewares/lvgl/examples/widgets/label/lv_example_label_1.c ****  */
   7:Middlewares/lvgl/examples/widgets/label/lv_example_label_1.c **** void lv_example_label_1(void)
ARM GAS  /tmp/ccZplYMc.s 			page 2


   8:Middlewares/lvgl/examples/widgets/label/lv_example_label_1.c **** {
  37              		.loc 1 8 1 view -0
  38              		.cfi_startproc
  39              		@ args = 0, pretend = 0, frame = 0
  40              		@ frame_needed = 0, uses_anonymous_args = 0
  41 0000 10B5     		push	{r4, lr}
  42              	.LCFI0:
  43              		.cfi_def_cfa_offset 8
  44              		.cfi_offset 4, -8
  45              		.cfi_offset 14, -4
   9:Middlewares/lvgl/examples/widgets/label/lv_example_label_1.c ****     lv_obj_t * label1 = lv_label_create(lv_scr_act());
  46              		.loc 1 9 5 view .LVU1
  47              	.LBB6:
  48              	.LBI6:
  49              		.file 2 "Middlewares/lvgl/examples/widgets/label/../../../src/core/lv_disp.h"
   1:Middlewares/lvgl/examples/widgets/label/../../../src/core/lv_disp.h **** /**
   2:Middlewares/lvgl/examples/widgets/label/../../../src/core/lv_disp.h ****  * @file lv_disp.h
   3:Middlewares/lvgl/examples/widgets/label/../../../src/core/lv_disp.h ****  *
   4:Middlewares/lvgl/examples/widgets/label/../../../src/core/lv_disp.h ****  */
   5:Middlewares/lvgl/examples/widgets/label/../../../src/core/lv_disp.h **** 
   6:Middlewares/lvgl/examples/widgets/label/../../../src/core/lv_disp.h **** #ifndef LV_DISP_H
   7:Middlewares/lvgl/examples/widgets/label/../../../src/core/lv_disp.h **** #define LV_DISP_H
   8:Middlewares/lvgl/examples/widgets/label/../../../src/core/lv_disp.h **** 
   9:Middlewares/lvgl/examples/widgets/label/../../../src/core/lv_disp.h **** #ifdef __cplusplus
  10:Middlewares/lvgl/examples/widgets/label/../../../src/core/lv_disp.h **** extern "C" {
  11:Middlewares/lvgl/examples/widgets/label/../../../src/core/lv_disp.h **** #endif
  12:Middlewares/lvgl/examples/widgets/label/../../../src/core/lv_disp.h **** 
  13:Middlewares/lvgl/examples/widgets/label/../../../src/core/lv_disp.h **** /*********************
  14:Middlewares/lvgl/examples/widgets/label/../../../src/core/lv_disp.h ****  *      INCLUDES
  15:Middlewares/lvgl/examples/widgets/label/../../../src/core/lv_disp.h ****  *********************/
  16:Middlewares/lvgl/examples/widgets/label/../../../src/core/lv_disp.h **** #include "../hal/lv_hal.h"
  17:Middlewares/lvgl/examples/widgets/label/../../../src/core/lv_disp.h **** #include "lv_obj.h"
  18:Middlewares/lvgl/examples/widgets/label/../../../src/core/lv_disp.h **** #include "lv_theme.h"
  19:Middlewares/lvgl/examples/widgets/label/../../../src/core/lv_disp.h **** 
  20:Middlewares/lvgl/examples/widgets/label/../../../src/core/lv_disp.h **** /*********************
  21:Middlewares/lvgl/examples/widgets/label/../../../src/core/lv_disp.h ****  *      DEFINES
  22:Middlewares/lvgl/examples/widgets/label/../../../src/core/lv_disp.h ****  *********************/
  23:Middlewares/lvgl/examples/widgets/label/../../../src/core/lv_disp.h **** 
  24:Middlewares/lvgl/examples/widgets/label/../../../src/core/lv_disp.h **** /**********************
  25:Middlewares/lvgl/examples/widgets/label/../../../src/core/lv_disp.h ****  *      TYPEDEFS
  26:Middlewares/lvgl/examples/widgets/label/../../../src/core/lv_disp.h ****  **********************/
  27:Middlewares/lvgl/examples/widgets/label/../../../src/core/lv_disp.h **** 
  28:Middlewares/lvgl/examples/widgets/label/../../../src/core/lv_disp.h **** typedef enum {
  29:Middlewares/lvgl/examples/widgets/label/../../../src/core/lv_disp.h ****     LV_SCR_LOAD_ANIM_NONE,
  30:Middlewares/lvgl/examples/widgets/label/../../../src/core/lv_disp.h ****     LV_SCR_LOAD_ANIM_OVER_LEFT,
  31:Middlewares/lvgl/examples/widgets/label/../../../src/core/lv_disp.h ****     LV_SCR_LOAD_ANIM_OVER_RIGHT,
  32:Middlewares/lvgl/examples/widgets/label/../../../src/core/lv_disp.h ****     LV_SCR_LOAD_ANIM_OVER_TOP,
  33:Middlewares/lvgl/examples/widgets/label/../../../src/core/lv_disp.h ****     LV_SCR_LOAD_ANIM_OVER_BOTTOM,
  34:Middlewares/lvgl/examples/widgets/label/../../../src/core/lv_disp.h ****     LV_SCR_LOAD_ANIM_MOVE_LEFT,
  35:Middlewares/lvgl/examples/widgets/label/../../../src/core/lv_disp.h ****     LV_SCR_LOAD_ANIM_MOVE_RIGHT,
  36:Middlewares/lvgl/examples/widgets/label/../../../src/core/lv_disp.h ****     LV_SCR_LOAD_ANIM_MOVE_TOP,
  37:Middlewares/lvgl/examples/widgets/label/../../../src/core/lv_disp.h ****     LV_SCR_LOAD_ANIM_MOVE_BOTTOM,
  38:Middlewares/lvgl/examples/widgets/label/../../../src/core/lv_disp.h ****     LV_SCR_LOAD_ANIM_FADE_ON,
  39:Middlewares/lvgl/examples/widgets/label/../../../src/core/lv_disp.h **** } lv_scr_load_anim_t;
  40:Middlewares/lvgl/examples/widgets/label/../../../src/core/lv_disp.h **** 
  41:Middlewares/lvgl/examples/widgets/label/../../../src/core/lv_disp.h **** /**********************
  42:Middlewares/lvgl/examples/widgets/label/../../../src/core/lv_disp.h ****  * GLOBAL PROTOTYPES
ARM GAS  /tmp/ccZplYMc.s 			page 3


  43:Middlewares/lvgl/examples/widgets/label/../../../src/core/lv_disp.h ****  **********************/
  44:Middlewares/lvgl/examples/widgets/label/../../../src/core/lv_disp.h **** 
  45:Middlewares/lvgl/examples/widgets/label/../../../src/core/lv_disp.h **** /**
  46:Middlewares/lvgl/examples/widgets/label/../../../src/core/lv_disp.h ****  * Return with a pointer to the active screen
  47:Middlewares/lvgl/examples/widgets/label/../../../src/core/lv_disp.h ****  * @param disp pointer to display which active screen should be get. (NULL to use the default
  48:Middlewares/lvgl/examples/widgets/label/../../../src/core/lv_disp.h ****  * screen)
  49:Middlewares/lvgl/examples/widgets/label/../../../src/core/lv_disp.h ****  * @return pointer to the active screen object (loaded by 'lv_scr_load()')
  50:Middlewares/lvgl/examples/widgets/label/../../../src/core/lv_disp.h ****  */
  51:Middlewares/lvgl/examples/widgets/label/../../../src/core/lv_disp.h **** lv_obj_t * lv_disp_get_scr_act(lv_disp_t * disp);
  52:Middlewares/lvgl/examples/widgets/label/../../../src/core/lv_disp.h **** 
  53:Middlewares/lvgl/examples/widgets/label/../../../src/core/lv_disp.h **** /**
  54:Middlewares/lvgl/examples/widgets/label/../../../src/core/lv_disp.h ****  * Return with a pointer to the previous screen. Only used during screen transitions.
  55:Middlewares/lvgl/examples/widgets/label/../../../src/core/lv_disp.h ****  * @param disp pointer to display which previous screen should be get. (NULL to use the default
  56:Middlewares/lvgl/examples/widgets/label/../../../src/core/lv_disp.h ****  * screen)
  57:Middlewares/lvgl/examples/widgets/label/../../../src/core/lv_disp.h ****  * @return pointer to the previous screen object or NULL if not used now
  58:Middlewares/lvgl/examples/widgets/label/../../../src/core/lv_disp.h ****  */
  59:Middlewares/lvgl/examples/widgets/label/../../../src/core/lv_disp.h **** lv_obj_t * lv_disp_get_scr_prev(lv_disp_t * disp);
  60:Middlewares/lvgl/examples/widgets/label/../../../src/core/lv_disp.h **** 
  61:Middlewares/lvgl/examples/widgets/label/../../../src/core/lv_disp.h **** /**
  62:Middlewares/lvgl/examples/widgets/label/../../../src/core/lv_disp.h ****  * Make a screen active
  63:Middlewares/lvgl/examples/widgets/label/../../../src/core/lv_disp.h ****  * @param scr pointer to a screen
  64:Middlewares/lvgl/examples/widgets/label/../../../src/core/lv_disp.h ****  */
  65:Middlewares/lvgl/examples/widgets/label/../../../src/core/lv_disp.h **** void lv_disp_load_scr(lv_obj_t * scr);
  66:Middlewares/lvgl/examples/widgets/label/../../../src/core/lv_disp.h **** 
  67:Middlewares/lvgl/examples/widgets/label/../../../src/core/lv_disp.h **** /**
  68:Middlewares/lvgl/examples/widgets/label/../../../src/core/lv_disp.h ****  * Return with the top layer. (Same on every screen and it is above the normal screen layer)
  69:Middlewares/lvgl/examples/widgets/label/../../../src/core/lv_disp.h ****  * @param disp pointer to display which top layer should be get. (NULL to use the default screen)
  70:Middlewares/lvgl/examples/widgets/label/../../../src/core/lv_disp.h ****  * @return pointer to the top layer object  (transparent screen sized lv_obj)
  71:Middlewares/lvgl/examples/widgets/label/../../../src/core/lv_disp.h ****  */
  72:Middlewares/lvgl/examples/widgets/label/../../../src/core/lv_disp.h **** lv_obj_t * lv_disp_get_layer_top(lv_disp_t * disp);
  73:Middlewares/lvgl/examples/widgets/label/../../../src/core/lv_disp.h **** 
  74:Middlewares/lvgl/examples/widgets/label/../../../src/core/lv_disp.h **** /**
  75:Middlewares/lvgl/examples/widgets/label/../../../src/core/lv_disp.h ****  * Return with the sys. layer. (Same on every screen and it is above the normal screen and the top
  76:Middlewares/lvgl/examples/widgets/label/../../../src/core/lv_disp.h ****  * layer)
  77:Middlewares/lvgl/examples/widgets/label/../../../src/core/lv_disp.h ****  * @param disp pointer to display which sys. layer  should be get. (NULL to use the default screen)
  78:Middlewares/lvgl/examples/widgets/label/../../../src/core/lv_disp.h ****  * @return pointer to the sys layer object  (transparent screen sized lv_obj)
  79:Middlewares/lvgl/examples/widgets/label/../../../src/core/lv_disp.h ****  */
  80:Middlewares/lvgl/examples/widgets/label/../../../src/core/lv_disp.h **** lv_obj_t * lv_disp_get_layer_sys(lv_disp_t * disp);
  81:Middlewares/lvgl/examples/widgets/label/../../../src/core/lv_disp.h **** 
  82:Middlewares/lvgl/examples/widgets/label/../../../src/core/lv_disp.h **** /**
  83:Middlewares/lvgl/examples/widgets/label/../../../src/core/lv_disp.h ****  * Get the theme of a display
  84:Middlewares/lvgl/examples/widgets/label/../../../src/core/lv_disp.h ****  * @param disp pointer to a display
  85:Middlewares/lvgl/examples/widgets/label/../../../src/core/lv_disp.h ****  * @return the display's theme (can be NULL)
  86:Middlewares/lvgl/examples/widgets/label/../../../src/core/lv_disp.h ****  */
  87:Middlewares/lvgl/examples/widgets/label/../../../src/core/lv_disp.h **** void lv_disp_set_theme(lv_disp_t * disp, lv_theme_t * th);
  88:Middlewares/lvgl/examples/widgets/label/../../../src/core/lv_disp.h **** 
  89:Middlewares/lvgl/examples/widgets/label/../../../src/core/lv_disp.h **** /**
  90:Middlewares/lvgl/examples/widgets/label/../../../src/core/lv_disp.h ****  * Get the theme of a display
  91:Middlewares/lvgl/examples/widgets/label/../../../src/core/lv_disp.h ****  * @param disp pointer to a display
  92:Middlewares/lvgl/examples/widgets/label/../../../src/core/lv_disp.h ****  * @return the display's theme (can be NULL)
  93:Middlewares/lvgl/examples/widgets/label/../../../src/core/lv_disp.h ****  */
  94:Middlewares/lvgl/examples/widgets/label/../../../src/core/lv_disp.h **** lv_theme_t * lv_disp_get_theme(lv_disp_t * disp);
  95:Middlewares/lvgl/examples/widgets/label/../../../src/core/lv_disp.h **** 
  96:Middlewares/lvgl/examples/widgets/label/../../../src/core/lv_disp.h **** /**
  97:Middlewares/lvgl/examples/widgets/label/../../../src/core/lv_disp.h ****  * Set the background color of a display
  98:Middlewares/lvgl/examples/widgets/label/../../../src/core/lv_disp.h ****  * @param disp pointer to a display
  99:Middlewares/lvgl/examples/widgets/label/../../../src/core/lv_disp.h ****  * @param color color of the background
ARM GAS  /tmp/ccZplYMc.s 			page 4


 100:Middlewares/lvgl/examples/widgets/label/../../../src/core/lv_disp.h ****  */
 101:Middlewares/lvgl/examples/widgets/label/../../../src/core/lv_disp.h **** void lv_disp_set_bg_color(lv_disp_t * disp, lv_color_t color);
 102:Middlewares/lvgl/examples/widgets/label/../../../src/core/lv_disp.h **** 
 103:Middlewares/lvgl/examples/widgets/label/../../../src/core/lv_disp.h **** /**
 104:Middlewares/lvgl/examples/widgets/label/../../../src/core/lv_disp.h ****  * Set the background image of a display
 105:Middlewares/lvgl/examples/widgets/label/../../../src/core/lv_disp.h ****  * @param disp pointer to a display
 106:Middlewares/lvgl/examples/widgets/label/../../../src/core/lv_disp.h ****  * @param img_src path to file or pointer to an `lv_img_dsc_t` variable
 107:Middlewares/lvgl/examples/widgets/label/../../../src/core/lv_disp.h ****  */
 108:Middlewares/lvgl/examples/widgets/label/../../../src/core/lv_disp.h **** void lv_disp_set_bg_image(lv_disp_t * disp, const void  * img_src);
 109:Middlewares/lvgl/examples/widgets/label/../../../src/core/lv_disp.h **** 
 110:Middlewares/lvgl/examples/widgets/label/../../../src/core/lv_disp.h **** /**
 111:Middlewares/lvgl/examples/widgets/label/../../../src/core/lv_disp.h ****  * Opacity of the background
 112:Middlewares/lvgl/examples/widgets/label/../../../src/core/lv_disp.h ****  * @param disp pointer to a display
 113:Middlewares/lvgl/examples/widgets/label/../../../src/core/lv_disp.h ****  * @param opa opacity (0..255)
 114:Middlewares/lvgl/examples/widgets/label/../../../src/core/lv_disp.h ****  */
 115:Middlewares/lvgl/examples/widgets/label/../../../src/core/lv_disp.h **** void lv_disp_set_bg_opa(lv_disp_t * disp, lv_opa_t opa);
 116:Middlewares/lvgl/examples/widgets/label/../../../src/core/lv_disp.h **** 
 117:Middlewares/lvgl/examples/widgets/label/../../../src/core/lv_disp.h **** /**
 118:Middlewares/lvgl/examples/widgets/label/../../../src/core/lv_disp.h ****  * Switch screen with animation
 119:Middlewares/lvgl/examples/widgets/label/../../../src/core/lv_disp.h ****  * @param scr pointer to the new screen to load
 120:Middlewares/lvgl/examples/widgets/label/../../../src/core/lv_disp.h ****  * @param anim_type type of the animation from `lv_scr_load_anim_t`. E.g.  `LV_SCR_LOAD_ANIM_MOVE_L
 121:Middlewares/lvgl/examples/widgets/label/../../../src/core/lv_disp.h ****  * @param time time of the animation
 122:Middlewares/lvgl/examples/widgets/label/../../../src/core/lv_disp.h ****  * @param delay delay before the transition
 123:Middlewares/lvgl/examples/widgets/label/../../../src/core/lv_disp.h ****  * @param auto_del true: automatically delete the old screen
 124:Middlewares/lvgl/examples/widgets/label/../../../src/core/lv_disp.h ****  */
 125:Middlewares/lvgl/examples/widgets/label/../../../src/core/lv_disp.h **** void lv_scr_load_anim(lv_obj_t * scr, lv_scr_load_anim_t anim_type, uint32_t time, uint32_t delay, 
 126:Middlewares/lvgl/examples/widgets/label/../../../src/core/lv_disp.h **** 
 127:Middlewares/lvgl/examples/widgets/label/../../../src/core/lv_disp.h **** /**
 128:Middlewares/lvgl/examples/widgets/label/../../../src/core/lv_disp.h ****  * Get elapsed time since last user activity on a display (e.g. click)
 129:Middlewares/lvgl/examples/widgets/label/../../../src/core/lv_disp.h ****  * @param disp pointer to an display (NULL to get the overall smallest inactivity)
 130:Middlewares/lvgl/examples/widgets/label/../../../src/core/lv_disp.h ****  * @return elapsed ticks (milliseconds) since the last activity
 131:Middlewares/lvgl/examples/widgets/label/../../../src/core/lv_disp.h ****  */
 132:Middlewares/lvgl/examples/widgets/label/../../../src/core/lv_disp.h **** uint32_t lv_disp_get_inactive_time(const lv_disp_t * disp);
 133:Middlewares/lvgl/examples/widgets/label/../../../src/core/lv_disp.h **** 
 134:Middlewares/lvgl/examples/widgets/label/../../../src/core/lv_disp.h **** /**
 135:Middlewares/lvgl/examples/widgets/label/../../../src/core/lv_disp.h ****  * Manually trigger an activity on a display
 136:Middlewares/lvgl/examples/widgets/label/../../../src/core/lv_disp.h ****  * @param disp pointer to an display (NULL to use the default display)
 137:Middlewares/lvgl/examples/widgets/label/../../../src/core/lv_disp.h ****  */
 138:Middlewares/lvgl/examples/widgets/label/../../../src/core/lv_disp.h **** void lv_disp_trig_activity(lv_disp_t * disp);
 139:Middlewares/lvgl/examples/widgets/label/../../../src/core/lv_disp.h **** 
 140:Middlewares/lvgl/examples/widgets/label/../../../src/core/lv_disp.h **** /**
 141:Middlewares/lvgl/examples/widgets/label/../../../src/core/lv_disp.h ****  * Clean any CPU cache that is related to the display.
 142:Middlewares/lvgl/examples/widgets/label/../../../src/core/lv_disp.h ****  * @param disp pointer to an display (NULL to use the default display)
 143:Middlewares/lvgl/examples/widgets/label/../../../src/core/lv_disp.h ****  */
 144:Middlewares/lvgl/examples/widgets/label/../../../src/core/lv_disp.h **** void lv_disp_clean_dcache(lv_disp_t * disp);
 145:Middlewares/lvgl/examples/widgets/label/../../../src/core/lv_disp.h **** 
 146:Middlewares/lvgl/examples/widgets/label/../../../src/core/lv_disp.h **** /**
 147:Middlewares/lvgl/examples/widgets/label/../../../src/core/lv_disp.h ****  * Get a pointer to the screen refresher timer to
 148:Middlewares/lvgl/examples/widgets/label/../../../src/core/lv_disp.h ****  * modify its parameters with `lv_timer_...` functions.
 149:Middlewares/lvgl/examples/widgets/label/../../../src/core/lv_disp.h ****  * @param disp pointer to a display
 150:Middlewares/lvgl/examples/widgets/label/../../../src/core/lv_disp.h ****  * @return pointer to the display refresher timer. (NULL on error)
 151:Middlewares/lvgl/examples/widgets/label/../../../src/core/lv_disp.h ****  */
 152:Middlewares/lvgl/examples/widgets/label/../../../src/core/lv_disp.h **** lv_timer_t * _lv_disp_get_refr_timer(lv_disp_t * disp);
 153:Middlewares/lvgl/examples/widgets/label/../../../src/core/lv_disp.h **** 
 154:Middlewares/lvgl/examples/widgets/label/../../../src/core/lv_disp.h **** /*------------------------------------------------
 155:Middlewares/lvgl/examples/widgets/label/../../../src/core/lv_disp.h ****  * To improve backward compatibility
 156:Middlewares/lvgl/examples/widgets/label/../../../src/core/lv_disp.h ****  * Recommended only if you have one display
ARM GAS  /tmp/ccZplYMc.s 			page 5


 157:Middlewares/lvgl/examples/widgets/label/../../../src/core/lv_disp.h ****  *------------------------------------------------*/
 158:Middlewares/lvgl/examples/widgets/label/../../../src/core/lv_disp.h **** 
 159:Middlewares/lvgl/examples/widgets/label/../../../src/core/lv_disp.h **** /**
 160:Middlewares/lvgl/examples/widgets/label/../../../src/core/lv_disp.h ****  * Get the active screen of the default display
 161:Middlewares/lvgl/examples/widgets/label/../../../src/core/lv_disp.h ****  * @return pointer to the active screen
 162:Middlewares/lvgl/examples/widgets/label/../../../src/core/lv_disp.h ****  */
 163:Middlewares/lvgl/examples/widgets/label/../../../src/core/lv_disp.h **** static inline lv_obj_t * lv_scr_act(void)
  50              		.loc 2 163 26 view .LVU2
  51              	.LBB7:
 164:Middlewares/lvgl/examples/widgets/label/../../../src/core/lv_disp.h **** {
 165:Middlewares/lvgl/examples/widgets/label/../../../src/core/lv_disp.h ****     return lv_disp_get_scr_act(lv_disp_get_default());
  52              		.loc 2 165 5 view .LVU3
  53              		.loc 2 165 12 is_stmt 0 view .LVU4
  54 0002 FFF7FEFF 		bl	lv_disp_get_default
  55              	.LVL0:
  56 0006 FFF7FEFF 		bl	lv_disp_get_scr_act
  57              	.LVL1:
  58              	.LBE7:
  59              	.LBE6:
  60              		.loc 1 9 25 view .LVU5
  61 000a FFF7FEFF 		bl	lv_label_create
  62              	.LVL2:
  63 000e 0446     		mov	r4, r0
  64              	.LVL3:
  10:Middlewares/lvgl/examples/widgets/label/lv_example_label_1.c ****     lv_label_set_long_mode(label1, LV_LABEL_LONG_WRAP);     /*Break the long lines*/
  65              		.loc 1 10 5 is_stmt 1 view .LVU6
  66 0010 0021     		movs	r1, #0
  67 0012 FFF7FEFF 		bl	lv_label_set_long_mode
  68              	.LVL4:
  11:Middlewares/lvgl/examples/widgets/label/lv_example_label_1.c ****     lv_label_set_recolor(label1, true);                      /*Enable re-coloring by commands in th
  69              		.loc 1 11 5 view .LVU7
  70 0016 0121     		movs	r1, #1
  71 0018 2046     		mov	r0, r4
  72 001a FFF7FEFF 		bl	lv_label_set_recolor
  73              	.LVL5:
  12:Middlewares/lvgl/examples/widgets/label/lv_example_label_1.c ****     
  13:Middlewares/lvgl/examples/widgets/label/lv_example_label_1.c ****     lv_label_set_text(label1, "#0000ff Re-color# #ff00ff words# #ff0000 of a# label, align the line
  74              		.loc 1 13 5 view .LVU8
  75 001e 1649     		ldr	r1, .L3
  76 0020 2046     		mov	r0, r4
  77 0022 FFF7FEFF 		bl	lv_label_set_text
  78              	.LVL6:
  14:Middlewares/lvgl/examples/widgets/label/lv_example_label_1.c ****                               "and wrap long text automatically.");
  15:Middlewares/lvgl/examples/widgets/label/lv_example_label_1.c ****     lv_obj_set_width(label1, 150);  /*Set smaller width to make the lines wrap*/
  79              		.loc 1 15 5 view .LVU9
  80 0026 9621     		movs	r1, #150
  81 0028 2046     		mov	r0, r4
  82 002a FFF7FEFF 		bl	lv_obj_set_width
  83              	.LVL7:
  16:Middlewares/lvgl/examples/widgets/label/lv_example_label_1.c ****     lv_obj_set_style_text_align(label1, LV_TEXT_ALIGN_CENTER, 0);
  84              		.loc 1 16 5 view .LVU10
  85 002e 0022     		movs	r2, #0
  86 0030 0221     		movs	r1, #2
  87 0032 2046     		mov	r0, r4
  88 0034 FFF7FEFF 		bl	lv_obj_set_style_text_align
  89              	.LVL8:
  17:Middlewares/lvgl/examples/widgets/label/lv_example_label_1.c ****     lv_obj_align(label1, LV_ALIGN_CENTER, 0, -40);
ARM GAS  /tmp/ccZplYMc.s 			page 6


  90              		.loc 1 17 5 view .LVU11
  91 0038 6FF02703 		mvn	r3, #39
  92 003c 0022     		movs	r2, #0
  93 003e 0921     		movs	r1, #9
  94 0040 2046     		mov	r0, r4
  95 0042 FFF7FEFF 		bl	lv_obj_align
  96              	.LVL9:
  18:Middlewares/lvgl/examples/widgets/label/lv_example_label_1.c **** 
  19:Middlewares/lvgl/examples/widgets/label/lv_example_label_1.c **** 
  20:Middlewares/lvgl/examples/widgets/label/lv_example_label_1.c ****     lv_obj_t * label2 = lv_label_create(lv_scr_act());
  97              		.loc 1 20 5 view .LVU12
  98              	.LBB8:
  99              	.LBI8:
 163:Middlewares/lvgl/examples/widgets/label/../../../src/core/lv_disp.h **** {
 100              		.loc 2 163 26 view .LVU13
 101              	.LBB9:
 102              		.loc 2 165 5 view .LVU14
 103              		.loc 2 165 12 is_stmt 0 view .LVU15
 104 0046 FFF7FEFF 		bl	lv_disp_get_default
 105              	.LVL10:
 106 004a FFF7FEFF 		bl	lv_disp_get_scr_act
 107              	.LVL11:
 108              	.LBE9:
 109              	.LBE8:
 110              		.loc 1 20 25 view .LVU16
 111 004e FFF7FEFF 		bl	lv_label_create
 112              	.LVL12:
 113 0052 0446     		mov	r4, r0
 114              	.LVL13:
  21:Middlewares/lvgl/examples/widgets/label/lv_example_label_1.c ****     lv_label_set_long_mode(label2, LV_LABEL_LONG_SCROLL_CIRCULAR);     /*Circular scroll*/
 115              		.loc 1 21 5 is_stmt 1 view .LVU17
 116 0054 0321     		movs	r1, #3
 117 0056 FFF7FEFF 		bl	lv_label_set_long_mode
 118              	.LVL14:
  22:Middlewares/lvgl/examples/widgets/label/lv_example_label_1.c ****     lv_obj_set_width(label2, 150);
 119              		.loc 1 22 5 view .LVU18
 120 005a 9621     		movs	r1, #150
 121 005c 2046     		mov	r0, r4
 122 005e FFF7FEFF 		bl	lv_obj_set_width
 123              	.LVL15:
  23:Middlewares/lvgl/examples/widgets/label/lv_example_label_1.c ****     lv_label_set_text(label2, "It is a circularly scrolling text.");
 124              		.loc 1 23 5 view .LVU19
 125 0062 0649     		ldr	r1, .L3+4
 126 0064 2046     		mov	r0, r4
 127 0066 FFF7FEFF 		bl	lv_label_set_text
 128              	.LVL16:
  24:Middlewares/lvgl/examples/widgets/label/lv_example_label_1.c ****     lv_obj_align(label2, LV_ALIGN_CENTER, 0, 40);
 129              		.loc 1 24 5 view .LVU20
 130 006a 2823     		movs	r3, #40
 131 006c 0022     		movs	r2, #0
 132 006e 0921     		movs	r1, #9
 133 0070 2046     		mov	r0, r4
 134 0072 FFF7FEFF 		bl	lv_obj_align
 135              	.LVL17:
  25:Middlewares/lvgl/examples/widgets/label/lv_example_label_1.c **** }
 136              		.loc 1 25 1 is_stmt 0 view .LVU21
 137 0076 10BD     		pop	{r4, pc}
ARM GAS  /tmp/ccZplYMc.s 			page 7


 138              	.LVL18:
 139              	.L4:
 140              		.loc 1 25 1 view .LVU22
 141              		.align	2
 142              	.L3:
 143 0078 00000000 		.word	.LC0
 144 007c 78000000 		.word	.LC1
 145              		.cfi_endproc
 146              	.LFE184:
 148              		.text
 149              	.Letext0:
 150              		.file 3 "/home/akinya/gcc-arm-none-eabi/arm-none-eabi/include/machine/_default_types.h"
 151              		.file 4 "/home/akinya/gcc-arm-none-eabi/arm-none-eabi/include/sys/_stdint.h"
 152              		.file 5 "Middlewares/lvgl/examples/widgets/label/../../../src/misc/lv_ll.h"
 153              		.file 6 "Middlewares/lvgl/examples/widgets/label/../../../src/hal/../misc/lv_color.h"
 154              		.file 7 "Middlewares/lvgl/examples/widgets/label/../../../src/hal/../misc/lv_area.h"
 155              		.file 8 "Middlewares/lvgl/examples/widgets/label/../../../src/core/lv_obj.h"
 156              		.file 9 "Middlewares/lvgl/examples/widgets/label/../../../src/core/lv_group.h"
 157              		.file 10 "Middlewares/lvgl/examples/widgets/label/../../../src/core/../misc/lv_txt.h"
 158              		.file 11 "Middlewares/lvgl/examples/widgets/label/../../../src/core/../misc/lv_style.h"
 159              		.file 12 "Middlewares/lvgl/examples/widgets/label/../../../src/core/lv_obj_scroll.h"
 160              		.file 13 "Middlewares/lvgl/examples/widgets/label/../../../src/core/lv_obj_style.h"
 161              		.file 14 "Middlewares/lvgl/examples/widgets/label/../../../src/core/lv_obj_class.h"
 162              		.file 15 "Middlewares/lvgl/examples/widgets/label/../../../src/core/lv_event.h"
 163              		.file 16 "Middlewares/lvgl/examples/widgets/label/../../../src/widgets/lv_label.h"
 164              		.file 17 "Middlewares/lvgl/examples/widgets/label/../../../src/hal/lv_hal_disp.h"
 165              		.file 18 "Middlewares/lvgl/examples/widgets/label/../../../src/core/lv_obj_pos.h"
 166              		.file 19 "Middlewares/lvgl/examples/widgets/label/../../../src/core/lv_obj_style_gen.h"
ARM GAS  /tmp/ccZplYMc.s 			page 8


DEFINED SYMBOLS
                            *ABS*:0000000000000000 lv_example_label_1.c
     /tmp/ccZplYMc.s:19     .rodata.lv_example_label_1.str1.4:0000000000000000 $d
     /tmp/ccZplYMc.s:28     .text.lv_example_label_1:0000000000000000 $t
     /tmp/ccZplYMc.s:34     .text.lv_example_label_1:0000000000000000 lv_example_label_1
     /tmp/ccZplYMc.s:143    .text.lv_example_label_1:0000000000000078 $d

UNDEFINED SYMBOLS
lv_disp_get_default
lv_disp_get_scr_act
lv_label_create
lv_label_set_long_mode
lv_label_set_recolor
lv_label_set_text
lv_obj_set_width
lv_obj_set_style_text_align
lv_obj_align
