ARM GAS  /tmp/ccKJIfuz.s 			page 1


   1              		.cpu cortex-m7
   2              		.eabi_attribute 28, 1
   3              		.eabi_attribute 20, 1
   4              		.eabi_attribute 21, 1
   5              		.eabi_attribute 23, 3
   6              		.eabi_attribute 24, 1
   7              		.eabi_attribute 25, 1
   8              		.eabi_attribute 26, 1
   9              		.eabi_attribute 30, 1
  10              		.eabi_attribute 34, 1
  11              		.eabi_attribute 18, 4
  12              		.file	"lv_example_btn_3.c"
  13              		.text
  14              	.Ltext0:
  15              		.cfi_sections	.debug_frame
  16              		.section	.rodata.lv_example_btn_3.str1.4,"aMS",%progbits,1
  17              		.align	2
  18              	.LC0:
  19 0000 47756D00 		.ascii	"Gum\000"
  20              		.section	.text.lv_example_btn_3,"ax",%progbits
  21              		.align	1
  22              		.global	lv_example_btn_3
  23              		.arch armv7e-m
  24              		.syntax unified
  25              		.thumb
  26              		.thumb_func
  27              		.fpu fpv5-d16
  29              	lv_example_btn_3:
  30              	.LFB184:
  31              		.file 1 "Middlewares/lvgl/examples/widgets/btn/lv_example_btn_3.c"
   1:Middlewares/lvgl/examples/widgets/btn/lv_example_btn_3.c **** #include "../../lv_examples.h"
   2:Middlewares/lvgl/examples/widgets/btn/lv_example_btn_3.c **** #if LV_BUILD_EXAMPLES && LV_USE_BTN
   3:Middlewares/lvgl/examples/widgets/btn/lv_example_btn_3.c **** 
   4:Middlewares/lvgl/examples/widgets/btn/lv_example_btn_3.c **** /**
   5:Middlewares/lvgl/examples/widgets/btn/lv_example_btn_3.c ****  * Create a style transition on a button to act like a gum when clicked
   6:Middlewares/lvgl/examples/widgets/btn/lv_example_btn_3.c ****  */
   7:Middlewares/lvgl/examples/widgets/btn/lv_example_btn_3.c **** void lv_example_btn_3(void)
   8:Middlewares/lvgl/examples/widgets/btn/lv_example_btn_3.c **** {
  32              		.loc 1 8 1 view -0
  33              		.cfi_startproc
  34              		@ args = 0, pretend = 0, frame = 0
  35              		@ frame_needed = 0, uses_anonymous_args = 0
  36 0000 F0B5     		push	{r4, r5, r6, r7, lr}
  37              	.LCFI0:
  38              		.cfi_def_cfa_offset 20
  39              		.cfi_offset 4, -20
  40              		.cfi_offset 5, -16
  41              		.cfi_offset 6, -12
  42              		.cfi_offset 7, -8
  43              		.cfi_offset 14, -4
  44 0002 83B0     		sub	sp, sp, #12
  45              	.LCFI1:
  46              		.cfi_def_cfa_offset 32
   9:Middlewares/lvgl/examples/widgets/btn/lv_example_btn_3.c ****     /*Properties to transition*/
  10:Middlewares/lvgl/examples/widgets/btn/lv_example_btn_3.c ****     static lv_style_prop_t props[] = {
  47              		.loc 1 10 5 view .LVU1
  11:Middlewares/lvgl/examples/widgets/btn/lv_example_btn_3.c ****             LV_STYLE_TRANSFORM_WIDTH, LV_STYLE_TRANSFORM_HEIGHT, LV_STYLE_TEXT_LETTER_SPACE, 0
ARM GAS  /tmp/ccKJIfuz.s 			page 2


  12:Middlewares/lvgl/examples/widgets/btn/lv_example_btn_3.c ****     };
  13:Middlewares/lvgl/examples/widgets/btn/lv_example_btn_3.c **** 
  14:Middlewares/lvgl/examples/widgets/btn/lv_example_btn_3.c ****     /*Transition descriptor when going back to the default state.
  15:Middlewares/lvgl/examples/widgets/btn/lv_example_btn_3.c ****      *Add some delay to be sure the press transition is visible even if the press was very short*/
  16:Middlewares/lvgl/examples/widgets/btn/lv_example_btn_3.c ****     static lv_style_transition_dsc_t transition_dsc_def;
  48              		.loc 1 16 5 view .LVU2
  17:Middlewares/lvgl/examples/widgets/btn/lv_example_btn_3.c ****     lv_style_transition_dsc_init(&transition_dsc_def, props, lv_anim_path_overshoot, 250, 100, NULL
  49              		.loc 1 17 5 view .LVU3
  50 0004 284F     		ldr	r7, .L3
  51 0006 294C     		ldr	r4, .L3+4
  52 0008 0026     		movs	r6, #0
  53 000a 0196     		str	r6, [sp, #4]
  54 000c 6423     		movs	r3, #100
  55 000e 0093     		str	r3, [sp]
  56 0010 FA23     		movs	r3, #250
  57 0012 274A     		ldr	r2, .L3+8
  58 0014 3946     		mov	r1, r7
  59 0016 2046     		mov	r0, r4
  60 0018 FFF7FEFF 		bl	lv_style_transition_dsc_init
  61              	.LVL0:
  18:Middlewares/lvgl/examples/widgets/btn/lv_example_btn_3.c **** 
  19:Middlewares/lvgl/examples/widgets/btn/lv_example_btn_3.c ****     /*Transition descriptor when going to pressed state.
  20:Middlewares/lvgl/examples/widgets/btn/lv_example_btn_3.c ****      *No delay, go to presses state immediately*/
  21:Middlewares/lvgl/examples/widgets/btn/lv_example_btn_3.c ****     static lv_style_transition_dsc_t transition_dsc_pr;
  62              		.loc 1 21 5 view .LVU4
  22:Middlewares/lvgl/examples/widgets/btn/lv_example_btn_3.c ****     lv_style_transition_dsc_init(&transition_dsc_pr, props, lv_anim_path_ease_in_out, 250, 0, NULL)
  63              		.loc 1 22 5 view .LVU5
  64 001c 254D     		ldr	r5, .L3+12
  65 001e 0196     		str	r6, [sp, #4]
  66 0020 0096     		str	r6, [sp]
  67 0022 FA23     		movs	r3, #250
  68 0024 244A     		ldr	r2, .L3+16
  69 0026 3946     		mov	r1, r7
  70 0028 2846     		mov	r0, r5
  71 002a FFF7FEFF 		bl	lv_style_transition_dsc_init
  72              	.LVL1:
  23:Middlewares/lvgl/examples/widgets/btn/lv_example_btn_3.c **** 
  24:Middlewares/lvgl/examples/widgets/btn/lv_example_btn_3.c ****     /*Add only the new transition to he default state*/
  25:Middlewares/lvgl/examples/widgets/btn/lv_example_btn_3.c ****     static lv_style_t style_def;
  73              		.loc 1 25 5 view .LVU6
  26:Middlewares/lvgl/examples/widgets/btn/lv_example_btn_3.c ****     lv_style_init(&style_def);
  74              		.loc 1 26 5 view .LVU7
  75 002e 234F     		ldr	r7, .L3+20
  76 0030 3846     		mov	r0, r7
  77 0032 FFF7FEFF 		bl	lv_style_init
  78              	.LVL2:
  27:Middlewares/lvgl/examples/widgets/btn/lv_example_btn_3.c ****     lv_style_set_transition(&style_def, &transition_dsc_def);
  79              		.loc 1 27 5 view .LVU8
  80 0036 2146     		mov	r1, r4
  81 0038 3846     		mov	r0, r7
  82 003a FFF7FEFF 		bl	lv_style_set_transition
  83              	.LVL3:
  28:Middlewares/lvgl/examples/widgets/btn/lv_example_btn_3.c **** 
  29:Middlewares/lvgl/examples/widgets/btn/lv_example_btn_3.c ****     /*Add the transition and some transformation to the presses state.*/
  30:Middlewares/lvgl/examples/widgets/btn/lv_example_btn_3.c ****     static lv_style_t style_pr;
  84              		.loc 1 30 5 view .LVU9
  31:Middlewares/lvgl/examples/widgets/btn/lv_example_btn_3.c ****     lv_style_init(&style_pr);
ARM GAS  /tmp/ccKJIfuz.s 			page 3


  85              		.loc 1 31 5 view .LVU10
  86 003e 204C     		ldr	r4, .L3+24
  87 0040 2046     		mov	r0, r4
  88 0042 FFF7FEFF 		bl	lv_style_init
  89              	.LVL4:
  32:Middlewares/lvgl/examples/widgets/btn/lv_example_btn_3.c ****     lv_style_set_transform_width(&style_pr, 10);
  90              		.loc 1 32 5 view .LVU11
  91 0046 0A21     		movs	r1, #10
  92 0048 2046     		mov	r0, r4
  93 004a FFF7FEFF 		bl	lv_style_set_transform_width
  94              	.LVL5:
  33:Middlewares/lvgl/examples/widgets/btn/lv_example_btn_3.c ****     lv_style_set_transform_height(&style_pr, -10);
  95              		.loc 1 33 5 view .LVU12
  96 004e 6FF00901 		mvn	r1, #9
  97 0052 2046     		mov	r0, r4
  98 0054 FFF7FEFF 		bl	lv_style_set_transform_height
  99              	.LVL6:
  34:Middlewares/lvgl/examples/widgets/btn/lv_example_btn_3.c ****     lv_style_set_text_letter_space(&style_pr, 10);
 100              		.loc 1 34 5 view .LVU13
 101 0058 0A21     		movs	r1, #10
 102 005a 2046     		mov	r0, r4
 103 005c FFF7FEFF 		bl	lv_style_set_text_letter_space
 104              	.LVL7:
  35:Middlewares/lvgl/examples/widgets/btn/lv_example_btn_3.c ****     lv_style_set_transition(&style_pr, &transition_dsc_pr);
 105              		.loc 1 35 5 view .LVU14
 106 0060 2946     		mov	r1, r5
 107 0062 2046     		mov	r0, r4
 108 0064 FFF7FEFF 		bl	lv_style_set_transition
 109              	.LVL8:
  36:Middlewares/lvgl/examples/widgets/btn/lv_example_btn_3.c **** 
  37:Middlewares/lvgl/examples/widgets/btn/lv_example_btn_3.c ****     lv_obj_t * btn1 = lv_btn_create(lv_scr_act());
 110              		.loc 1 37 5 view .LVU15
 111              	.LBB4:
 112              	.LBI4:
 113              		.file 2 "Middlewares/lvgl/examples/widgets/btn/../../../src/core/lv_disp.h"
   1:Middlewares/lvgl/examples/widgets/btn/../../../src/core/lv_disp.h **** /**
   2:Middlewares/lvgl/examples/widgets/btn/../../../src/core/lv_disp.h ****  * @file lv_disp.h
   3:Middlewares/lvgl/examples/widgets/btn/../../../src/core/lv_disp.h ****  *
   4:Middlewares/lvgl/examples/widgets/btn/../../../src/core/lv_disp.h ****  */
   5:Middlewares/lvgl/examples/widgets/btn/../../../src/core/lv_disp.h **** 
   6:Middlewares/lvgl/examples/widgets/btn/../../../src/core/lv_disp.h **** #ifndef LV_DISP_H
   7:Middlewares/lvgl/examples/widgets/btn/../../../src/core/lv_disp.h **** #define LV_DISP_H
   8:Middlewares/lvgl/examples/widgets/btn/../../../src/core/lv_disp.h **** 
   9:Middlewares/lvgl/examples/widgets/btn/../../../src/core/lv_disp.h **** #ifdef __cplusplus
  10:Middlewares/lvgl/examples/widgets/btn/../../../src/core/lv_disp.h **** extern "C" {
  11:Middlewares/lvgl/examples/widgets/btn/../../../src/core/lv_disp.h **** #endif
  12:Middlewares/lvgl/examples/widgets/btn/../../../src/core/lv_disp.h **** 
  13:Middlewares/lvgl/examples/widgets/btn/../../../src/core/lv_disp.h **** /*********************
  14:Middlewares/lvgl/examples/widgets/btn/../../../src/core/lv_disp.h ****  *      INCLUDES
  15:Middlewares/lvgl/examples/widgets/btn/../../../src/core/lv_disp.h ****  *********************/
  16:Middlewares/lvgl/examples/widgets/btn/../../../src/core/lv_disp.h **** #include "../hal/lv_hal.h"
  17:Middlewares/lvgl/examples/widgets/btn/../../../src/core/lv_disp.h **** #include "lv_obj.h"
  18:Middlewares/lvgl/examples/widgets/btn/../../../src/core/lv_disp.h **** #include "lv_theme.h"
  19:Middlewares/lvgl/examples/widgets/btn/../../../src/core/lv_disp.h **** 
  20:Middlewares/lvgl/examples/widgets/btn/../../../src/core/lv_disp.h **** /*********************
  21:Middlewares/lvgl/examples/widgets/btn/../../../src/core/lv_disp.h ****  *      DEFINES
  22:Middlewares/lvgl/examples/widgets/btn/../../../src/core/lv_disp.h ****  *********************/
ARM GAS  /tmp/ccKJIfuz.s 			page 4


  23:Middlewares/lvgl/examples/widgets/btn/../../../src/core/lv_disp.h **** 
  24:Middlewares/lvgl/examples/widgets/btn/../../../src/core/lv_disp.h **** /**********************
  25:Middlewares/lvgl/examples/widgets/btn/../../../src/core/lv_disp.h ****  *      TYPEDEFS
  26:Middlewares/lvgl/examples/widgets/btn/../../../src/core/lv_disp.h ****  **********************/
  27:Middlewares/lvgl/examples/widgets/btn/../../../src/core/lv_disp.h **** 
  28:Middlewares/lvgl/examples/widgets/btn/../../../src/core/lv_disp.h **** typedef enum {
  29:Middlewares/lvgl/examples/widgets/btn/../../../src/core/lv_disp.h ****     LV_SCR_LOAD_ANIM_NONE,
  30:Middlewares/lvgl/examples/widgets/btn/../../../src/core/lv_disp.h ****     LV_SCR_LOAD_ANIM_OVER_LEFT,
  31:Middlewares/lvgl/examples/widgets/btn/../../../src/core/lv_disp.h ****     LV_SCR_LOAD_ANIM_OVER_RIGHT,
  32:Middlewares/lvgl/examples/widgets/btn/../../../src/core/lv_disp.h ****     LV_SCR_LOAD_ANIM_OVER_TOP,
  33:Middlewares/lvgl/examples/widgets/btn/../../../src/core/lv_disp.h ****     LV_SCR_LOAD_ANIM_OVER_BOTTOM,
  34:Middlewares/lvgl/examples/widgets/btn/../../../src/core/lv_disp.h ****     LV_SCR_LOAD_ANIM_MOVE_LEFT,
  35:Middlewares/lvgl/examples/widgets/btn/../../../src/core/lv_disp.h ****     LV_SCR_LOAD_ANIM_MOVE_RIGHT,
  36:Middlewares/lvgl/examples/widgets/btn/../../../src/core/lv_disp.h ****     LV_SCR_LOAD_ANIM_MOVE_TOP,
  37:Middlewares/lvgl/examples/widgets/btn/../../../src/core/lv_disp.h ****     LV_SCR_LOAD_ANIM_MOVE_BOTTOM,
  38:Middlewares/lvgl/examples/widgets/btn/../../../src/core/lv_disp.h ****     LV_SCR_LOAD_ANIM_FADE_ON,
  39:Middlewares/lvgl/examples/widgets/btn/../../../src/core/lv_disp.h **** } lv_scr_load_anim_t;
  40:Middlewares/lvgl/examples/widgets/btn/../../../src/core/lv_disp.h **** 
  41:Middlewares/lvgl/examples/widgets/btn/../../../src/core/lv_disp.h **** /**********************
  42:Middlewares/lvgl/examples/widgets/btn/../../../src/core/lv_disp.h ****  * GLOBAL PROTOTYPES
  43:Middlewares/lvgl/examples/widgets/btn/../../../src/core/lv_disp.h ****  **********************/
  44:Middlewares/lvgl/examples/widgets/btn/../../../src/core/lv_disp.h **** 
  45:Middlewares/lvgl/examples/widgets/btn/../../../src/core/lv_disp.h **** /**
  46:Middlewares/lvgl/examples/widgets/btn/../../../src/core/lv_disp.h ****  * Return with a pointer to the active screen
  47:Middlewares/lvgl/examples/widgets/btn/../../../src/core/lv_disp.h ****  * @param disp pointer to display which active screen should be get. (NULL to use the default
  48:Middlewares/lvgl/examples/widgets/btn/../../../src/core/lv_disp.h ****  * screen)
  49:Middlewares/lvgl/examples/widgets/btn/../../../src/core/lv_disp.h ****  * @return pointer to the active screen object (loaded by 'lv_scr_load()')
  50:Middlewares/lvgl/examples/widgets/btn/../../../src/core/lv_disp.h ****  */
  51:Middlewares/lvgl/examples/widgets/btn/../../../src/core/lv_disp.h **** lv_obj_t * lv_disp_get_scr_act(lv_disp_t * disp);
  52:Middlewares/lvgl/examples/widgets/btn/../../../src/core/lv_disp.h **** 
  53:Middlewares/lvgl/examples/widgets/btn/../../../src/core/lv_disp.h **** /**
  54:Middlewares/lvgl/examples/widgets/btn/../../../src/core/lv_disp.h ****  * Return with a pointer to the previous screen. Only used during screen transitions.
  55:Middlewares/lvgl/examples/widgets/btn/../../../src/core/lv_disp.h ****  * @param disp pointer to display which previous screen should be get. (NULL to use the default
  56:Middlewares/lvgl/examples/widgets/btn/../../../src/core/lv_disp.h ****  * screen)
  57:Middlewares/lvgl/examples/widgets/btn/../../../src/core/lv_disp.h ****  * @return pointer to the previous screen object or NULL if not used now
  58:Middlewares/lvgl/examples/widgets/btn/../../../src/core/lv_disp.h ****  */
  59:Middlewares/lvgl/examples/widgets/btn/../../../src/core/lv_disp.h **** lv_obj_t * lv_disp_get_scr_prev(lv_disp_t * disp);
  60:Middlewares/lvgl/examples/widgets/btn/../../../src/core/lv_disp.h **** 
  61:Middlewares/lvgl/examples/widgets/btn/../../../src/core/lv_disp.h **** /**
  62:Middlewares/lvgl/examples/widgets/btn/../../../src/core/lv_disp.h ****  * Make a screen active
  63:Middlewares/lvgl/examples/widgets/btn/../../../src/core/lv_disp.h ****  * @param scr pointer to a screen
  64:Middlewares/lvgl/examples/widgets/btn/../../../src/core/lv_disp.h ****  */
  65:Middlewares/lvgl/examples/widgets/btn/../../../src/core/lv_disp.h **** void lv_disp_load_scr(lv_obj_t * scr);
  66:Middlewares/lvgl/examples/widgets/btn/../../../src/core/lv_disp.h **** 
  67:Middlewares/lvgl/examples/widgets/btn/../../../src/core/lv_disp.h **** /**
  68:Middlewares/lvgl/examples/widgets/btn/../../../src/core/lv_disp.h ****  * Return with the top layer. (Same on every screen and it is above the normal screen layer)
  69:Middlewares/lvgl/examples/widgets/btn/../../../src/core/lv_disp.h ****  * @param disp pointer to display which top layer should be get. (NULL to use the default screen)
  70:Middlewares/lvgl/examples/widgets/btn/../../../src/core/lv_disp.h ****  * @return pointer to the top layer object  (transparent screen sized lv_obj)
  71:Middlewares/lvgl/examples/widgets/btn/../../../src/core/lv_disp.h ****  */
  72:Middlewares/lvgl/examples/widgets/btn/../../../src/core/lv_disp.h **** lv_obj_t * lv_disp_get_layer_top(lv_disp_t * disp);
  73:Middlewares/lvgl/examples/widgets/btn/../../../src/core/lv_disp.h **** 
  74:Middlewares/lvgl/examples/widgets/btn/../../../src/core/lv_disp.h **** /**
  75:Middlewares/lvgl/examples/widgets/btn/../../../src/core/lv_disp.h ****  * Return with the sys. layer. (Same on every screen and it is above the normal screen and the top
  76:Middlewares/lvgl/examples/widgets/btn/../../../src/core/lv_disp.h ****  * layer)
  77:Middlewares/lvgl/examples/widgets/btn/../../../src/core/lv_disp.h ****  * @param disp pointer to display which sys. layer  should be get. (NULL to use the default screen)
  78:Middlewares/lvgl/examples/widgets/btn/../../../src/core/lv_disp.h ****  * @return pointer to the sys layer object  (transparent screen sized lv_obj)
  79:Middlewares/lvgl/examples/widgets/btn/../../../src/core/lv_disp.h ****  */
ARM GAS  /tmp/ccKJIfuz.s 			page 5


  80:Middlewares/lvgl/examples/widgets/btn/../../../src/core/lv_disp.h **** lv_obj_t * lv_disp_get_layer_sys(lv_disp_t * disp);
  81:Middlewares/lvgl/examples/widgets/btn/../../../src/core/lv_disp.h **** 
  82:Middlewares/lvgl/examples/widgets/btn/../../../src/core/lv_disp.h **** /**
  83:Middlewares/lvgl/examples/widgets/btn/../../../src/core/lv_disp.h ****  * Get the theme of a display
  84:Middlewares/lvgl/examples/widgets/btn/../../../src/core/lv_disp.h ****  * @param disp pointer to a display
  85:Middlewares/lvgl/examples/widgets/btn/../../../src/core/lv_disp.h ****  * @return the display's theme (can be NULL)
  86:Middlewares/lvgl/examples/widgets/btn/../../../src/core/lv_disp.h ****  */
  87:Middlewares/lvgl/examples/widgets/btn/../../../src/core/lv_disp.h **** void lv_disp_set_theme(lv_disp_t * disp, lv_theme_t * th);
  88:Middlewares/lvgl/examples/widgets/btn/../../../src/core/lv_disp.h **** 
  89:Middlewares/lvgl/examples/widgets/btn/../../../src/core/lv_disp.h **** /**
  90:Middlewares/lvgl/examples/widgets/btn/../../../src/core/lv_disp.h ****  * Get the theme of a display
  91:Middlewares/lvgl/examples/widgets/btn/../../../src/core/lv_disp.h ****  * @param disp pointer to a display
  92:Middlewares/lvgl/examples/widgets/btn/../../../src/core/lv_disp.h ****  * @return the display's theme (can be NULL)
  93:Middlewares/lvgl/examples/widgets/btn/../../../src/core/lv_disp.h ****  */
  94:Middlewares/lvgl/examples/widgets/btn/../../../src/core/lv_disp.h **** lv_theme_t * lv_disp_get_theme(lv_disp_t * disp);
  95:Middlewares/lvgl/examples/widgets/btn/../../../src/core/lv_disp.h **** 
  96:Middlewares/lvgl/examples/widgets/btn/../../../src/core/lv_disp.h **** /**
  97:Middlewares/lvgl/examples/widgets/btn/../../../src/core/lv_disp.h ****  * Set the background color of a display
  98:Middlewares/lvgl/examples/widgets/btn/../../../src/core/lv_disp.h ****  * @param disp pointer to a display
  99:Middlewares/lvgl/examples/widgets/btn/../../../src/core/lv_disp.h ****  * @param color color of the background
 100:Middlewares/lvgl/examples/widgets/btn/../../../src/core/lv_disp.h ****  */
 101:Middlewares/lvgl/examples/widgets/btn/../../../src/core/lv_disp.h **** void lv_disp_set_bg_color(lv_disp_t * disp, lv_color_t color);
 102:Middlewares/lvgl/examples/widgets/btn/../../../src/core/lv_disp.h **** 
 103:Middlewares/lvgl/examples/widgets/btn/../../../src/core/lv_disp.h **** /**
 104:Middlewares/lvgl/examples/widgets/btn/../../../src/core/lv_disp.h ****  * Set the background image of a display
 105:Middlewares/lvgl/examples/widgets/btn/../../../src/core/lv_disp.h ****  * @param disp pointer to a display
 106:Middlewares/lvgl/examples/widgets/btn/../../../src/core/lv_disp.h ****  * @param img_src path to file or pointer to an `lv_img_dsc_t` variable
 107:Middlewares/lvgl/examples/widgets/btn/../../../src/core/lv_disp.h ****  */
 108:Middlewares/lvgl/examples/widgets/btn/../../../src/core/lv_disp.h **** void lv_disp_set_bg_image(lv_disp_t * disp, const void  * img_src);
 109:Middlewares/lvgl/examples/widgets/btn/../../../src/core/lv_disp.h **** 
 110:Middlewares/lvgl/examples/widgets/btn/../../../src/core/lv_disp.h **** /**
 111:Middlewares/lvgl/examples/widgets/btn/../../../src/core/lv_disp.h ****  * Opacity of the background
 112:Middlewares/lvgl/examples/widgets/btn/../../../src/core/lv_disp.h ****  * @param disp pointer to a display
 113:Middlewares/lvgl/examples/widgets/btn/../../../src/core/lv_disp.h ****  * @param opa opacity (0..255)
 114:Middlewares/lvgl/examples/widgets/btn/../../../src/core/lv_disp.h ****  */
 115:Middlewares/lvgl/examples/widgets/btn/../../../src/core/lv_disp.h **** void lv_disp_set_bg_opa(lv_disp_t * disp, lv_opa_t opa);
 116:Middlewares/lvgl/examples/widgets/btn/../../../src/core/lv_disp.h **** 
 117:Middlewares/lvgl/examples/widgets/btn/../../../src/core/lv_disp.h **** /**
 118:Middlewares/lvgl/examples/widgets/btn/../../../src/core/lv_disp.h ****  * Switch screen with animation
 119:Middlewares/lvgl/examples/widgets/btn/../../../src/core/lv_disp.h ****  * @param scr pointer to the new screen to load
 120:Middlewares/lvgl/examples/widgets/btn/../../../src/core/lv_disp.h ****  * @param anim_type type of the animation from `lv_scr_load_anim_t`. E.g.  `LV_SCR_LOAD_ANIM_MOVE_L
 121:Middlewares/lvgl/examples/widgets/btn/../../../src/core/lv_disp.h ****  * @param time time of the animation
 122:Middlewares/lvgl/examples/widgets/btn/../../../src/core/lv_disp.h ****  * @param delay delay before the transition
 123:Middlewares/lvgl/examples/widgets/btn/../../../src/core/lv_disp.h ****  * @param auto_del true: automatically delete the old screen
 124:Middlewares/lvgl/examples/widgets/btn/../../../src/core/lv_disp.h ****  */
 125:Middlewares/lvgl/examples/widgets/btn/../../../src/core/lv_disp.h **** void lv_scr_load_anim(lv_obj_t * scr, lv_scr_load_anim_t anim_type, uint32_t time, uint32_t delay, 
 126:Middlewares/lvgl/examples/widgets/btn/../../../src/core/lv_disp.h **** 
 127:Middlewares/lvgl/examples/widgets/btn/../../../src/core/lv_disp.h **** /**
 128:Middlewares/lvgl/examples/widgets/btn/../../../src/core/lv_disp.h ****  * Get elapsed time since last user activity on a display (e.g. click)
 129:Middlewares/lvgl/examples/widgets/btn/../../../src/core/lv_disp.h ****  * @param disp pointer to an display (NULL to get the overall smallest inactivity)
 130:Middlewares/lvgl/examples/widgets/btn/../../../src/core/lv_disp.h ****  * @return elapsed ticks (milliseconds) since the last activity
 131:Middlewares/lvgl/examples/widgets/btn/../../../src/core/lv_disp.h ****  */
 132:Middlewares/lvgl/examples/widgets/btn/../../../src/core/lv_disp.h **** uint32_t lv_disp_get_inactive_time(const lv_disp_t * disp);
 133:Middlewares/lvgl/examples/widgets/btn/../../../src/core/lv_disp.h **** 
 134:Middlewares/lvgl/examples/widgets/btn/../../../src/core/lv_disp.h **** /**
 135:Middlewares/lvgl/examples/widgets/btn/../../../src/core/lv_disp.h ****  * Manually trigger an activity on a display
 136:Middlewares/lvgl/examples/widgets/btn/../../../src/core/lv_disp.h ****  * @param disp pointer to an display (NULL to use the default display)
ARM GAS  /tmp/ccKJIfuz.s 			page 6


 137:Middlewares/lvgl/examples/widgets/btn/../../../src/core/lv_disp.h ****  */
 138:Middlewares/lvgl/examples/widgets/btn/../../../src/core/lv_disp.h **** void lv_disp_trig_activity(lv_disp_t * disp);
 139:Middlewares/lvgl/examples/widgets/btn/../../../src/core/lv_disp.h **** 
 140:Middlewares/lvgl/examples/widgets/btn/../../../src/core/lv_disp.h **** /**
 141:Middlewares/lvgl/examples/widgets/btn/../../../src/core/lv_disp.h ****  * Clean any CPU cache that is related to the display.
 142:Middlewares/lvgl/examples/widgets/btn/../../../src/core/lv_disp.h ****  * @param disp pointer to an display (NULL to use the default display)
 143:Middlewares/lvgl/examples/widgets/btn/../../../src/core/lv_disp.h ****  */
 144:Middlewares/lvgl/examples/widgets/btn/../../../src/core/lv_disp.h **** void lv_disp_clean_dcache(lv_disp_t * disp);
 145:Middlewares/lvgl/examples/widgets/btn/../../../src/core/lv_disp.h **** 
 146:Middlewares/lvgl/examples/widgets/btn/../../../src/core/lv_disp.h **** /**
 147:Middlewares/lvgl/examples/widgets/btn/../../../src/core/lv_disp.h ****  * Get a pointer to the screen refresher timer to
 148:Middlewares/lvgl/examples/widgets/btn/../../../src/core/lv_disp.h ****  * modify its parameters with `lv_timer_...` functions.
 149:Middlewares/lvgl/examples/widgets/btn/../../../src/core/lv_disp.h ****  * @param disp pointer to a display
 150:Middlewares/lvgl/examples/widgets/btn/../../../src/core/lv_disp.h ****  * @return pointer to the display refresher timer. (NULL on error)
 151:Middlewares/lvgl/examples/widgets/btn/../../../src/core/lv_disp.h ****  */
 152:Middlewares/lvgl/examples/widgets/btn/../../../src/core/lv_disp.h **** lv_timer_t * _lv_disp_get_refr_timer(lv_disp_t * disp);
 153:Middlewares/lvgl/examples/widgets/btn/../../../src/core/lv_disp.h **** 
 154:Middlewares/lvgl/examples/widgets/btn/../../../src/core/lv_disp.h **** /*------------------------------------------------
 155:Middlewares/lvgl/examples/widgets/btn/../../../src/core/lv_disp.h ****  * To improve backward compatibility
 156:Middlewares/lvgl/examples/widgets/btn/../../../src/core/lv_disp.h ****  * Recommended only if you have one display
 157:Middlewares/lvgl/examples/widgets/btn/../../../src/core/lv_disp.h ****  *------------------------------------------------*/
 158:Middlewares/lvgl/examples/widgets/btn/../../../src/core/lv_disp.h **** 
 159:Middlewares/lvgl/examples/widgets/btn/../../../src/core/lv_disp.h **** /**
 160:Middlewares/lvgl/examples/widgets/btn/../../../src/core/lv_disp.h ****  * Get the active screen of the default display
 161:Middlewares/lvgl/examples/widgets/btn/../../../src/core/lv_disp.h ****  * @return pointer to the active screen
 162:Middlewares/lvgl/examples/widgets/btn/../../../src/core/lv_disp.h ****  */
 163:Middlewares/lvgl/examples/widgets/btn/../../../src/core/lv_disp.h **** static inline lv_obj_t * lv_scr_act(void)
 114              		.loc 2 163 26 view .LVU16
 115              	.LBB5:
 164:Middlewares/lvgl/examples/widgets/btn/../../../src/core/lv_disp.h **** {
 165:Middlewares/lvgl/examples/widgets/btn/../../../src/core/lv_disp.h ****     return lv_disp_get_scr_act(lv_disp_get_default());
 116              		.loc 2 165 5 view .LVU17
 117              		.loc 2 165 12 is_stmt 0 view .LVU18
 118 0068 FFF7FEFF 		bl	lv_disp_get_default
 119              	.LVL9:
 120 006c FFF7FEFF 		bl	lv_disp_get_scr_act
 121              	.LVL10:
 122              	.LBE5:
 123              	.LBE4:
 124              		.loc 1 37 23 view .LVU19
 125 0070 FFF7FEFF 		bl	lv_btn_create
 126              	.LVL11:
 127 0074 0546     		mov	r5, r0
 128              	.LVL12:
  38:Middlewares/lvgl/examples/widgets/btn/lv_example_btn_3.c ****     lv_obj_align(btn1, LV_ALIGN_CENTER, 0, -80);
 129              		.loc 1 38 5 is_stmt 1 view .LVU20
 130 0076 6FF04F03 		mvn	r3, #79
 131 007a 3246     		mov	r2, r6
 132 007c 0921     		movs	r1, #9
 133 007e FFF7FEFF 		bl	lv_obj_align
 134              	.LVL13:
  39:Middlewares/lvgl/examples/widgets/btn/lv_example_btn_3.c ****     lv_obj_add_style(btn1, &style_pr, LV_STATE_PRESSED);
 135              		.loc 1 39 5 view .LVU21
 136 0082 2022     		movs	r2, #32
 137 0084 2146     		mov	r1, r4
 138 0086 2846     		mov	r0, r5
 139 0088 FFF7FEFF 		bl	lv_obj_add_style
ARM GAS  /tmp/ccKJIfuz.s 			page 7


 140              	.LVL14:
  40:Middlewares/lvgl/examples/widgets/btn/lv_example_btn_3.c ****     lv_obj_add_style(btn1, &style_def, 0);
 141              		.loc 1 40 5 view .LVU22
 142 008c 3246     		mov	r2, r6
 143 008e 3946     		mov	r1, r7
 144 0090 2846     		mov	r0, r5
 145 0092 FFF7FEFF 		bl	lv_obj_add_style
 146              	.LVL15:
  41:Middlewares/lvgl/examples/widgets/btn/lv_example_btn_3.c **** 
  42:Middlewares/lvgl/examples/widgets/btn/lv_example_btn_3.c ****     lv_obj_t * label = lv_label_create(btn1);
 147              		.loc 1 42 5 view .LVU23
 148              		.loc 1 42 24 is_stmt 0 view .LVU24
 149 0096 2846     		mov	r0, r5
 150 0098 FFF7FEFF 		bl	lv_label_create
 151              	.LVL16:
  43:Middlewares/lvgl/examples/widgets/btn/lv_example_btn_3.c ****     lv_label_set_text(label, "Gum");
 152              		.loc 1 43 5 is_stmt 1 view .LVU25
 153 009c 0949     		ldr	r1, .L3+28
 154 009e FFF7FEFF 		bl	lv_label_set_text
 155              	.LVL17:
  44:Middlewares/lvgl/examples/widgets/btn/lv_example_btn_3.c **** }
 156              		.loc 1 44 1 is_stmt 0 view .LVU26
 157 00a2 03B0     		add	sp, sp, #12
 158              	.LCFI2:
 159              		.cfi_def_cfa_offset 20
 160              		@ sp needed
 161 00a4 F0BD     		pop	{r4, r5, r6, r7, pc}
 162              	.LVL18:
 163              	.L4:
 164              		.loc 1 44 1 view .LVU27
 165 00a6 00BF     		.align	2
 166              	.L3:
 167 00a8 00000000 		.word	.LANCHOR0
 168 00ac 00000000 		.word	.LANCHOR1
 169 00b0 00000000 		.word	lv_anim_path_overshoot
 170 00b4 00000000 		.word	.LANCHOR2
 171 00b8 00000000 		.word	lv_anim_path_ease_in_out
 172 00bc 00000000 		.word	.LANCHOR3
 173 00c0 00000000 		.word	.LANCHOR4
 174 00c4 00000000 		.word	.LC0
 175              		.cfi_endproc
 176              	.LFE184:
 178              		.section	.bss.style_def.1,"aw",%nobits
 179              		.align	2
 180              		.set	.LANCHOR3,. + 0
 183              	style_def.1:
 184 0000 00000000 		.space	8
 184      00000000 
 185              		.section	.bss.style_pr.0,"aw",%nobits
 186              		.align	2
 187              		.set	.LANCHOR4,. + 0
 190              	style_pr.0:
 191 0000 00000000 		.space	8
 191      00000000 
 192              		.section	.bss.transition_dsc_def.4,"aw",%nobits
 193              		.align	2
 194              		.set	.LANCHOR1,. + 0
ARM GAS  /tmp/ccKJIfuz.s 			page 8


 197              	transition_dsc_def.4:
 198 0000 00000000 		.space	20
 198      00000000 
 198      00000000 
 198      00000000 
 198      00000000 
 199              		.section	.bss.transition_dsc_pr.2,"aw",%nobits
 200              		.align	2
 201              		.set	.LANCHOR2,. + 0
 204              	transition_dsc_pr.2:
 205 0000 00000000 		.space	20
 205      00000000 
 205      00000000 
 205      00000000 
 205      00000000 
 206              		.section	.data.props.3,"aw"
 207              		.align	2
 208              		.set	.LANCHOR0,. + 0
 211              	props.3:
 212 0000 0A08     		.short	2058
 213 0002 0B08     		.short	2059
 214 0004 5A14     		.short	5210
 215 0006 0000     		.short	0
 216              		.text
 217              	.Letext0:
 218              		.file 3 "/home/akinya/gcc-arm-none-eabi/arm-none-eabi/include/machine/_default_types.h"
 219              		.file 4 "/home/akinya/gcc-arm-none-eabi/arm-none-eabi/include/sys/_stdint.h"
 220              		.file 5 "Middlewares/lvgl/examples/widgets/btn/../../../src/misc/lv_ll.h"
 221              		.file 6 "Middlewares/lvgl/examples/widgets/btn/../../../src/hal/../misc/lv_color.h"
 222              		.file 7 "Middlewares/lvgl/examples/widgets/btn/../../../src/hal/../misc/lv_area.h"
 223              		.file 8 "Middlewares/lvgl/examples/widgets/btn/../../../src/core/lv_obj.h"
 224              		.file 9 "Middlewares/lvgl/examples/widgets/btn/../../../src/core/lv_group.h"
 225              		.file 10 "Middlewares/lvgl/examples/widgets/btn/../../../src/core/../misc/lv_anim.h"
 226              		.file 11 "Middlewares/lvgl/examples/widgets/btn/../../../src/core/../misc/lv_style.h"
 227              		.file 12 "Middlewares/lvgl/examples/widgets/btn/../../../src/core/lv_obj_scroll.h"
 228              		.file 13 "Middlewares/lvgl/examples/widgets/btn/../../../src/core/lv_obj_style.h"
 229              		.file 14 "Middlewares/lvgl/examples/widgets/btn/../../../src/core/lv_obj_class.h"
 230              		.file 15 "Middlewares/lvgl/examples/widgets/btn/../../../src/core/lv_event.h"
 231              		.file 16 "Middlewares/lvgl/examples/widgets/btn/../../../src/hal/lv_hal_disp.h"
 232              		.file 17 "Middlewares/lvgl/examples/widgets/btn/../../../src/core/../misc/lv_style_gen.h"
 233              		.file 18 "Middlewares/lvgl/examples/widgets/btn/../../../src/widgets/lv_btn.h"
 234              		.file 19 "Middlewares/lvgl/examples/widgets/btn/../../../src/core/lv_obj_pos.h"
 235              		.file 20 "Middlewares/lvgl/examples/widgets/btn/../../../src/widgets/lv_label.h"
ARM GAS  /tmp/ccKJIfuz.s 			page 9


DEFINED SYMBOLS
                            *ABS*:0000000000000000 lv_example_btn_3.c
     /tmp/ccKJIfuz.s:17     .rodata.lv_example_btn_3.str1.4:0000000000000000 $d
     /tmp/ccKJIfuz.s:21     .text.lv_example_btn_3:0000000000000000 $t
     /tmp/ccKJIfuz.s:29     .text.lv_example_btn_3:0000000000000000 lv_example_btn_3
     /tmp/ccKJIfuz.s:167    .text.lv_example_btn_3:00000000000000a8 $d
     /tmp/ccKJIfuz.s:179    .bss.style_def.1:0000000000000000 $d
     /tmp/ccKJIfuz.s:183    .bss.style_def.1:0000000000000000 style_def.1
     /tmp/ccKJIfuz.s:186    .bss.style_pr.0:0000000000000000 $d
     /tmp/ccKJIfuz.s:190    .bss.style_pr.0:0000000000000000 style_pr.0
     /tmp/ccKJIfuz.s:193    .bss.transition_dsc_def.4:0000000000000000 $d
     /tmp/ccKJIfuz.s:197    .bss.transition_dsc_def.4:0000000000000000 transition_dsc_def.4
     /tmp/ccKJIfuz.s:200    .bss.transition_dsc_pr.2:0000000000000000 $d
     /tmp/ccKJIfuz.s:204    .bss.transition_dsc_pr.2:0000000000000000 transition_dsc_pr.2
     /tmp/ccKJIfuz.s:207    .data.props.3:0000000000000000 $d
     /tmp/ccKJIfuz.s:211    .data.props.3:0000000000000000 props.3

UNDEFINED SYMBOLS
lv_style_transition_dsc_init
lv_style_init
lv_style_set_transition
lv_style_set_transform_width
lv_style_set_transform_height
lv_style_set_text_letter_space
lv_disp_get_default
lv_disp_get_scr_act
lv_btn_create
lv_obj_align
lv_obj_add_style
lv_label_create
lv_label_set_text
lv_anim_path_overshoot
lv_anim_path_ease_in_out
