ARM GAS  /tmp/ccSoGIM8.s 			page 1


   1              		.cpu cortex-m7
   2              		.eabi_attribute 28, 1
   3              		.eabi_attribute 20, 1
   4              		.eabi_attribute 21, 1
   5              		.eabi_attribute 23, 3
   6              		.eabi_attribute 24, 1
   7              		.eabi_attribute 25, 1
   8              		.eabi_attribute 26, 1
   9              		.eabi_attribute 30, 1
  10              		.eabi_attribute 34, 1
  11              		.eabi_attribute 18, 4
  12              		.file	"lv_example_slider_3.c"
  13              		.text
  14              	.Ltext0:
  15              		.cfi_sections	.debug_frame
  16              		.section	.rodata.slider_event_cb.str1.4,"aMS",%progbits,1
  17              		.align	2
  18              	.LC0:
  19 0000 2564202D 		.ascii	"%d - %d\000"
  19      20256400 
  20              		.section	.text.slider_event_cb,"ax",%progbits
  21              		.align	1
  22              		.arch armv7e-m
  23              		.syntax unified
  24              		.thumb
  25              		.thumb_func
  26              		.fpu fpv5-d16
  28              	slider_event_cb:
  29              	.LVL0:
  30              	.LFB185:
  31              		.file 1 "Middlewares/lvgl/examples/widgets/slider/lv_example_slider_3.c"
   1:Middlewares/lvgl/examples/widgets/slider/lv_example_slider_3.c **** #include "../../lv_examples.h"
   2:Middlewares/lvgl/examples/widgets/slider/lv_example_slider_3.c **** #if LV_USE_SLIDER && LV_BUILD_EXAMPLES
   3:Middlewares/lvgl/examples/widgets/slider/lv_example_slider_3.c **** 
   4:Middlewares/lvgl/examples/widgets/slider/lv_example_slider_3.c **** static void slider_event_cb(lv_event_t * e);
   5:Middlewares/lvgl/examples/widgets/slider/lv_example_slider_3.c **** 
   6:Middlewares/lvgl/examples/widgets/slider/lv_example_slider_3.c **** /**
   7:Middlewares/lvgl/examples/widgets/slider/lv_example_slider_3.c ****  * Show the current value when the slider is pressed by extending the drawer
   8:Middlewares/lvgl/examples/widgets/slider/lv_example_slider_3.c ****  *
   9:Middlewares/lvgl/examples/widgets/slider/lv_example_slider_3.c ****  */
  10:Middlewares/lvgl/examples/widgets/slider/lv_example_slider_3.c **** void lv_example_slider_3(void)
  11:Middlewares/lvgl/examples/widgets/slider/lv_example_slider_3.c **** {
  12:Middlewares/lvgl/examples/widgets/slider/lv_example_slider_3.c ****     /*Create a slider in the center of the display*/
  13:Middlewares/lvgl/examples/widgets/slider/lv_example_slider_3.c ****     lv_obj_t * slider;
  14:Middlewares/lvgl/examples/widgets/slider/lv_example_slider_3.c ****     slider = lv_slider_create(lv_scr_act());
  15:Middlewares/lvgl/examples/widgets/slider/lv_example_slider_3.c ****     lv_obj_center(slider);
  16:Middlewares/lvgl/examples/widgets/slider/lv_example_slider_3.c **** 
  17:Middlewares/lvgl/examples/widgets/slider/lv_example_slider_3.c ****     lv_slider_set_mode(slider, LV_SLIDER_MODE_RANGE);
  18:Middlewares/lvgl/examples/widgets/slider/lv_example_slider_3.c ****     lv_slider_set_value(slider, 70, LV_ANIM_OFF);
  19:Middlewares/lvgl/examples/widgets/slider/lv_example_slider_3.c ****     lv_slider_set_left_value(slider, 20, LV_ANIM_OFF);
  20:Middlewares/lvgl/examples/widgets/slider/lv_example_slider_3.c **** 
  21:Middlewares/lvgl/examples/widgets/slider/lv_example_slider_3.c ****     lv_obj_add_event_cb(slider, slider_event_cb, LV_EVENT_ALL, NULL);
  22:Middlewares/lvgl/examples/widgets/slider/lv_example_slider_3.c ****     lv_obj_refresh_ext_draw_size(slider);
  23:Middlewares/lvgl/examples/widgets/slider/lv_example_slider_3.c **** }
  24:Middlewares/lvgl/examples/widgets/slider/lv_example_slider_3.c **** 
  25:Middlewares/lvgl/examples/widgets/slider/lv_example_slider_3.c **** static void slider_event_cb(lv_event_t * e)
  26:Middlewares/lvgl/examples/widgets/slider/lv_example_slider_3.c **** {
ARM GAS  /tmp/ccSoGIM8.s 			page 2


  32              		.loc 1 26 1 view -0
  33              		.cfi_startproc
  34              		@ args = 0, pretend = 0, frame = 64
  35              		@ frame_needed = 0, uses_anonymous_args = 0
  36              		.loc 1 26 1 is_stmt 0 view .LVU1
  37 0000 70B5     		push	{r4, r5, r6, lr}
  38              	.LCFI0:
  39              		.cfi_def_cfa_offset 16
  40              		.cfi_offset 4, -16
  41              		.cfi_offset 5, -12
  42              		.cfi_offset 6, -8
  43              		.cfi_offset 14, -4
  44 0002 94B0     		sub	sp, sp, #80
  45              	.LCFI1:
  46              		.cfi_def_cfa_offset 96
  47 0004 0546     		mov	r5, r0
  27:Middlewares/lvgl/examples/widgets/slider/lv_example_slider_3.c ****     lv_event_code_t code = lv_event_get_code(e);
  48              		.loc 1 27 5 is_stmt 1 view .LVU2
  49              		.loc 1 27 28 is_stmt 0 view .LVU3
  50 0006 FFF7FEFF 		bl	lv_event_get_code
  51              	.LVL1:
  52              		.loc 1 27 28 view .LVU4
  53 000a 0446     		mov	r4, r0
  54              	.LVL2:
  28:Middlewares/lvgl/examples/widgets/slider/lv_example_slider_3.c ****     lv_obj_t * obj = lv_event_get_target(e);
  55              		.loc 1 28 5 is_stmt 1 view .LVU5
  56              		.loc 1 28 22 is_stmt 0 view .LVU6
  57 000c 2846     		mov	r0, r5
  58 000e FFF7FEFF 		bl	lv_event_get_target
  59              	.LVL3:
  29:Middlewares/lvgl/examples/widgets/slider/lv_example_slider_3.c **** 
  30:Middlewares/lvgl/examples/widgets/slider/lv_example_slider_3.c ****     /*Provide some extra space for the value*/
  31:Middlewares/lvgl/examples/widgets/slider/lv_example_slider_3.c ****     if(code == LV_EVENT_REFR_EXT_DRAW_SIZE) {
  60              		.loc 1 31 5 is_stmt 1 view .LVU7
  61              		.loc 1 31 7 is_stmt 0 view .LVU8
  62 0012 132C     		cmp	r4, #19
  63 0014 04D0     		beq	.L7
  64 0016 0646     		mov	r6, r0
  32:Middlewares/lvgl/examples/widgets/slider/lv_example_slider_3.c ****         lv_coord_t * size = lv_event_get_param(e);
  33:Middlewares/lvgl/examples/widgets/slider/lv_example_slider_3.c ****         *size = LV_MAX(*size, 50);
  34:Middlewares/lvgl/examples/widgets/slider/lv_example_slider_3.c ****     }
  35:Middlewares/lvgl/examples/widgets/slider/lv_example_slider_3.c ****     else if(code == LV_EVENT_DRAW_PART_END) {
  65              		.loc 1 35 10 is_stmt 1 view .LVU9
  66              		.loc 1 35 12 is_stmt 0 view .LVU10
  67 0018 1B2C     		cmp	r4, #27
  68 001a 0BD0     		beq	.L8
  69              	.LVL4:
  70              	.L1:
  36:Middlewares/lvgl/examples/widgets/slider/lv_example_slider_3.c ****         lv_obj_draw_part_dsc_t * dsc = lv_event_get_param(e);
  37:Middlewares/lvgl/examples/widgets/slider/lv_example_slider_3.c ****         if(dsc->part == LV_PART_INDICATOR) {
  38:Middlewares/lvgl/examples/widgets/slider/lv_example_slider_3.c ****             char buf[16];
  39:Middlewares/lvgl/examples/widgets/slider/lv_example_slider_3.c ****             lv_snprintf(buf, sizeof(buf), "%d - %d", lv_slider_get_left_value(obj), lv_slider_get_v
  40:Middlewares/lvgl/examples/widgets/slider/lv_example_slider_3.c **** 
  41:Middlewares/lvgl/examples/widgets/slider/lv_example_slider_3.c ****             lv_point_t label_size;
  42:Middlewares/lvgl/examples/widgets/slider/lv_example_slider_3.c ****             lv_txt_get_size(&label_size, buf, LV_FONT_DEFAULT, 0, 0, LV_COORD_MAX, 0);
  43:Middlewares/lvgl/examples/widgets/slider/lv_example_slider_3.c ****             lv_area_t label_area;
  44:Middlewares/lvgl/examples/widgets/slider/lv_example_slider_3.c ****             label_area.x1 = dsc->draw_area->x1 + lv_area_get_width(dsc->draw_area) / 2 - label_size
ARM GAS  /tmp/ccSoGIM8.s 			page 3


  45:Middlewares/lvgl/examples/widgets/slider/lv_example_slider_3.c ****             label_area.x2 = label_area.x1 + label_size.x;
  46:Middlewares/lvgl/examples/widgets/slider/lv_example_slider_3.c ****             label_area.y2 = dsc->draw_area->y1 - 10;
  47:Middlewares/lvgl/examples/widgets/slider/lv_example_slider_3.c ****             label_area.y1 = label_area.y2 - label_size.y;
  48:Middlewares/lvgl/examples/widgets/slider/lv_example_slider_3.c **** 
  49:Middlewares/lvgl/examples/widgets/slider/lv_example_slider_3.c ****             lv_draw_label_dsc_t label_draw_dsc;
  50:Middlewares/lvgl/examples/widgets/slider/lv_example_slider_3.c ****             lv_draw_label_dsc_init(&label_draw_dsc);
  51:Middlewares/lvgl/examples/widgets/slider/lv_example_slider_3.c **** 
  52:Middlewares/lvgl/examples/widgets/slider/lv_example_slider_3.c ****             lv_draw_label(&label_area, dsc->clip_area, &label_draw_dsc, buf, NULL);
  53:Middlewares/lvgl/examples/widgets/slider/lv_example_slider_3.c ****         }
  54:Middlewares/lvgl/examples/widgets/slider/lv_example_slider_3.c ****     }
  55:Middlewares/lvgl/examples/widgets/slider/lv_example_slider_3.c **** }
  71              		.loc 1 55 1 view .LVU11
  72 001c 14B0     		add	sp, sp, #80
  73              	.LCFI2:
  74              		.cfi_remember_state
  75              		.cfi_def_cfa_offset 16
  76              		@ sp needed
  77 001e 70BD     		pop	{r4, r5, r6, pc}
  78              	.LVL5:
  79              	.L7:
  80              	.LCFI3:
  81              		.cfi_restore_state
  82              	.LBB19:
  32:Middlewares/lvgl/examples/widgets/slider/lv_example_slider_3.c ****         lv_coord_t * size = lv_event_get_param(e);
  83              		.loc 1 32 9 is_stmt 1 view .LVU12
  32:Middlewares/lvgl/examples/widgets/slider/lv_example_slider_3.c ****         lv_coord_t * size = lv_event_get_param(e);
  84              		.loc 1 32 29 is_stmt 0 view .LVU13
  85 0020 2846     		mov	r0, r5
  86              	.LVL6:
  32:Middlewares/lvgl/examples/widgets/slider/lv_example_slider_3.c ****         lv_coord_t * size = lv_event_get_param(e);
  87              		.loc 1 32 29 view .LVU14
  88 0022 FFF7FEFF 		bl	lv_event_get_param
  89              	.LVL7:
  33:Middlewares/lvgl/examples/widgets/slider/lv_example_slider_3.c ****     }
  90              		.loc 1 33 9 is_stmt 1 view .LVU15
  33:Middlewares/lvgl/examples/widgets/slider/lv_example_slider_3.c ****     }
  91              		.loc 1 33 17 is_stmt 0 view .LVU16
  92 0026 B0F90030 		ldrsh	r3, [r0]
  93 002a 322B     		cmp	r3, #50
  94 002c B8BF     		it	lt
  95 002e 3223     		movlt	r3, #50
  33:Middlewares/lvgl/examples/widgets/slider/lv_example_slider_3.c ****     }
  96              		.loc 1 33 15 view .LVU17
  97 0030 0380     		strh	r3, [r0]	@ movhi
  98              	.LBE19:
  99 0032 F3E7     		b	.L1
 100              	.LVL8:
 101              	.L8:
 102              	.LBB20:
  36:Middlewares/lvgl/examples/widgets/slider/lv_example_slider_3.c ****         lv_obj_draw_part_dsc_t * dsc = lv_event_get_param(e);
 103              		.loc 1 36 9 is_stmt 1 view .LVU18
  36:Middlewares/lvgl/examples/widgets/slider/lv_example_slider_3.c ****         lv_obj_draw_part_dsc_t * dsc = lv_event_get_param(e);
 104              		.loc 1 36 40 is_stmt 0 view .LVU19
 105 0034 2846     		mov	r0, r5
 106              	.LVL9:
  36:Middlewares/lvgl/examples/widgets/slider/lv_example_slider_3.c ****         lv_obj_draw_part_dsc_t * dsc = lv_event_get_param(e);
 107              		.loc 1 36 40 view .LVU20
ARM GAS  /tmp/ccSoGIM8.s 			page 4


 108 0036 FFF7FEFF 		bl	lv_event_get_param
 109              	.LVL10:
 110 003a 0446     		mov	r4, r0
 111              	.LVL11:
  37:Middlewares/lvgl/examples/widgets/slider/lv_example_slider_3.c ****             char buf[16];
 112              		.loc 1 37 9 is_stmt 1 view .LVU21
  37:Middlewares/lvgl/examples/widgets/slider/lv_example_slider_3.c ****             char buf[16];
 113              		.loc 1 37 15 is_stmt 0 view .LVU22
 114 003c 436B     		ldr	r3, [r0, #52]
  37:Middlewares/lvgl/examples/widgets/slider/lv_example_slider_3.c ****             char buf[16];
 115              		.loc 1 37 11 view .LVU23
 116 003e B3F5003F 		cmp	r3, #131072
 117 0042 EBD1     		bne	.L1
 118              	.LBB21:
  38:Middlewares/lvgl/examples/widgets/slider/lv_example_slider_3.c ****             lv_snprintf(buf, sizeof(buf), "%d - %d", lv_slider_get_left_value(obj), lv_slider_get_v
 119              		.loc 1 38 13 is_stmt 1 view .LVU24
  39:Middlewares/lvgl/examples/widgets/slider/lv_example_slider_3.c **** 
 120              		.loc 1 39 13 view .LVU25
 121              	.LVL12:
 122              	.LBB22:
 123              	.LBI22:
 124              		.file 2 "Middlewares/lvgl/examples/widgets/slider/../../../src/widgets/lv_slider.h"
   1:Middlewares/lvgl/examples/widgets/slider/../../../src/widgets/lv_slider.h **** /**
   2:Middlewares/lvgl/examples/widgets/slider/../../../src/widgets/lv_slider.h ****  * @file lv_slider.h
   3:Middlewares/lvgl/examples/widgets/slider/../../../src/widgets/lv_slider.h ****  *
   4:Middlewares/lvgl/examples/widgets/slider/../../../src/widgets/lv_slider.h ****  */
   5:Middlewares/lvgl/examples/widgets/slider/../../../src/widgets/lv_slider.h **** 
   6:Middlewares/lvgl/examples/widgets/slider/../../../src/widgets/lv_slider.h **** #ifndef LV_SLIDER_H
   7:Middlewares/lvgl/examples/widgets/slider/../../../src/widgets/lv_slider.h **** #define LV_SLIDER_H
   8:Middlewares/lvgl/examples/widgets/slider/../../../src/widgets/lv_slider.h **** 
   9:Middlewares/lvgl/examples/widgets/slider/../../../src/widgets/lv_slider.h **** #ifdef __cplusplus
  10:Middlewares/lvgl/examples/widgets/slider/../../../src/widgets/lv_slider.h **** extern "C" {
  11:Middlewares/lvgl/examples/widgets/slider/../../../src/widgets/lv_slider.h **** #endif
  12:Middlewares/lvgl/examples/widgets/slider/../../../src/widgets/lv_slider.h **** 
  13:Middlewares/lvgl/examples/widgets/slider/../../../src/widgets/lv_slider.h **** /*********************
  14:Middlewares/lvgl/examples/widgets/slider/../../../src/widgets/lv_slider.h ****  *      INCLUDES
  15:Middlewares/lvgl/examples/widgets/slider/../../../src/widgets/lv_slider.h ****  *********************/
  16:Middlewares/lvgl/examples/widgets/slider/../../../src/widgets/lv_slider.h **** #include "../lv_conf_internal.h"
  17:Middlewares/lvgl/examples/widgets/slider/../../../src/widgets/lv_slider.h **** 
  18:Middlewares/lvgl/examples/widgets/slider/../../../src/widgets/lv_slider.h **** #if LV_USE_SLIDER != 0
  19:Middlewares/lvgl/examples/widgets/slider/../../../src/widgets/lv_slider.h **** 
  20:Middlewares/lvgl/examples/widgets/slider/../../../src/widgets/lv_slider.h **** /*Testing of dependencies*/
  21:Middlewares/lvgl/examples/widgets/slider/../../../src/widgets/lv_slider.h **** #if LV_USE_BAR == 0
  22:Middlewares/lvgl/examples/widgets/slider/../../../src/widgets/lv_slider.h **** #error "lv_slider: lv_bar is required. Enable it in lv_conf.h (LV_USE_BAR 1)"
  23:Middlewares/lvgl/examples/widgets/slider/../../../src/widgets/lv_slider.h **** #endif
  24:Middlewares/lvgl/examples/widgets/slider/../../../src/widgets/lv_slider.h **** 
  25:Middlewares/lvgl/examples/widgets/slider/../../../src/widgets/lv_slider.h **** #include "../core/lv_obj.h"
  26:Middlewares/lvgl/examples/widgets/slider/../../../src/widgets/lv_slider.h **** #include "lv_bar.h"
  27:Middlewares/lvgl/examples/widgets/slider/../../../src/widgets/lv_slider.h **** 
  28:Middlewares/lvgl/examples/widgets/slider/../../../src/widgets/lv_slider.h **** /*********************
  29:Middlewares/lvgl/examples/widgets/slider/../../../src/widgets/lv_slider.h ****  *      DEFINES
  30:Middlewares/lvgl/examples/widgets/slider/../../../src/widgets/lv_slider.h ****  *********************/
  31:Middlewares/lvgl/examples/widgets/slider/../../../src/widgets/lv_slider.h **** 
  32:Middlewares/lvgl/examples/widgets/slider/../../../src/widgets/lv_slider.h **** /**********************
  33:Middlewares/lvgl/examples/widgets/slider/../../../src/widgets/lv_slider.h ****  *      TYPEDEFS
  34:Middlewares/lvgl/examples/widgets/slider/../../../src/widgets/lv_slider.h ****  **********************/
  35:Middlewares/lvgl/examples/widgets/slider/../../../src/widgets/lv_slider.h **** 
ARM GAS  /tmp/ccSoGIM8.s 			page 5


  36:Middlewares/lvgl/examples/widgets/slider/../../../src/widgets/lv_slider.h **** enum {
  37:Middlewares/lvgl/examples/widgets/slider/../../../src/widgets/lv_slider.h ****     LV_SLIDER_MODE_NORMAL = LV_BAR_MODE_NORMAL,
  38:Middlewares/lvgl/examples/widgets/slider/../../../src/widgets/lv_slider.h ****     LV_SLIDER_MODE_SYMMETRICAL = LV_BAR_MODE_SYMMETRICAL,
  39:Middlewares/lvgl/examples/widgets/slider/../../../src/widgets/lv_slider.h ****     LV_SLIDER_MODE_RANGE = LV_BAR_MODE_RANGE
  40:Middlewares/lvgl/examples/widgets/slider/../../../src/widgets/lv_slider.h **** };
  41:Middlewares/lvgl/examples/widgets/slider/../../../src/widgets/lv_slider.h **** typedef uint8_t lv_slider_mode_t;
  42:Middlewares/lvgl/examples/widgets/slider/../../../src/widgets/lv_slider.h **** 
  43:Middlewares/lvgl/examples/widgets/slider/../../../src/widgets/lv_slider.h **** typedef struct {
  44:Middlewares/lvgl/examples/widgets/slider/../../../src/widgets/lv_slider.h ****     lv_bar_t bar;       /*Add the ancestor's type first*/
  45:Middlewares/lvgl/examples/widgets/slider/../../../src/widgets/lv_slider.h ****     lv_area_t left_knob_area;
  46:Middlewares/lvgl/examples/widgets/slider/../../../src/widgets/lv_slider.h ****     lv_area_t right_knob_area;
  47:Middlewares/lvgl/examples/widgets/slider/../../../src/widgets/lv_slider.h ****     int32_t * value_to_set; /*Which bar value to set*/
  48:Middlewares/lvgl/examples/widgets/slider/../../../src/widgets/lv_slider.h ****     uint8_t dragging : 1;       /*1: the slider is being dragged*/
  49:Middlewares/lvgl/examples/widgets/slider/../../../src/widgets/lv_slider.h ****     uint8_t left_knob_focus : 1; /*1: with encoder now the right knob can be adjusted*/
  50:Middlewares/lvgl/examples/widgets/slider/../../../src/widgets/lv_slider.h **** }lv_slider_t;
  51:Middlewares/lvgl/examples/widgets/slider/../../../src/widgets/lv_slider.h **** 
  52:Middlewares/lvgl/examples/widgets/slider/../../../src/widgets/lv_slider.h **** extern const lv_obj_class_t lv_slider_class;
  53:Middlewares/lvgl/examples/widgets/slider/../../../src/widgets/lv_slider.h **** 
  54:Middlewares/lvgl/examples/widgets/slider/../../../src/widgets/lv_slider.h **** /**********************
  55:Middlewares/lvgl/examples/widgets/slider/../../../src/widgets/lv_slider.h ****  * GLOBAL PROTOTYPES
  56:Middlewares/lvgl/examples/widgets/slider/../../../src/widgets/lv_slider.h ****  **********************/
  57:Middlewares/lvgl/examples/widgets/slider/../../../src/widgets/lv_slider.h **** 
  58:Middlewares/lvgl/examples/widgets/slider/../../../src/widgets/lv_slider.h **** /**
  59:Middlewares/lvgl/examples/widgets/slider/../../../src/widgets/lv_slider.h ****  * Create a slider objects
  60:Middlewares/lvgl/examples/widgets/slider/../../../src/widgets/lv_slider.h ****  * @param parent    pointer to an object, it will be the parent of the new slider.
  61:Middlewares/lvgl/examples/widgets/slider/../../../src/widgets/lv_slider.h ****  * @return          pointer to the created slider
  62:Middlewares/lvgl/examples/widgets/slider/../../../src/widgets/lv_slider.h ****  */
  63:Middlewares/lvgl/examples/widgets/slider/../../../src/widgets/lv_slider.h **** lv_obj_t * lv_slider_create(lv_obj_t * parent);
  64:Middlewares/lvgl/examples/widgets/slider/../../../src/widgets/lv_slider.h **** 
  65:Middlewares/lvgl/examples/widgets/slider/../../../src/widgets/lv_slider.h **** /*=====================
  66:Middlewares/lvgl/examples/widgets/slider/../../../src/widgets/lv_slider.h ****  * Setter functions
  67:Middlewares/lvgl/examples/widgets/slider/../../../src/widgets/lv_slider.h ****  *====================*/
  68:Middlewares/lvgl/examples/widgets/slider/../../../src/widgets/lv_slider.h **** 
  69:Middlewares/lvgl/examples/widgets/slider/../../../src/widgets/lv_slider.h **** /**
  70:Middlewares/lvgl/examples/widgets/slider/../../../src/widgets/lv_slider.h ****  * Set a new value on the slider
  71:Middlewares/lvgl/examples/widgets/slider/../../../src/widgets/lv_slider.h ****  * @param obj       pointer to a slider object
  72:Middlewares/lvgl/examples/widgets/slider/../../../src/widgets/lv_slider.h ****  * @param value     the new value
  73:Middlewares/lvgl/examples/widgets/slider/../../../src/widgets/lv_slider.h ****  * @param anim      LV_ANIM_ON: set the value with an animation; LV_ANIM_OFF: change the value imme
  74:Middlewares/lvgl/examples/widgets/slider/../../../src/widgets/lv_slider.h ****  */
  75:Middlewares/lvgl/examples/widgets/slider/../../../src/widgets/lv_slider.h **** static inline void lv_slider_set_value(lv_obj_t * obj, int32_t value, lv_anim_enable_t anim)
  76:Middlewares/lvgl/examples/widgets/slider/../../../src/widgets/lv_slider.h **** {
  77:Middlewares/lvgl/examples/widgets/slider/../../../src/widgets/lv_slider.h ****     lv_bar_set_value(obj, value, anim);
  78:Middlewares/lvgl/examples/widgets/slider/../../../src/widgets/lv_slider.h **** }
  79:Middlewares/lvgl/examples/widgets/slider/../../../src/widgets/lv_slider.h **** 
  80:Middlewares/lvgl/examples/widgets/slider/../../../src/widgets/lv_slider.h **** /**
  81:Middlewares/lvgl/examples/widgets/slider/../../../src/widgets/lv_slider.h ****  * Set a new value for the left knob of a slider
  82:Middlewares/lvgl/examples/widgets/slider/../../../src/widgets/lv_slider.h ****  * @param obj       pointer to a slider object
  83:Middlewares/lvgl/examples/widgets/slider/../../../src/widgets/lv_slider.h ****  * @param value     new value
  84:Middlewares/lvgl/examples/widgets/slider/../../../src/widgets/lv_slider.h ****  * @param anim      LV_ANIM_ON: set the value with an animation; LV_ANIM_OFF: change the value imme
  85:Middlewares/lvgl/examples/widgets/slider/../../../src/widgets/lv_slider.h ****  */
  86:Middlewares/lvgl/examples/widgets/slider/../../../src/widgets/lv_slider.h **** static inline void lv_slider_set_left_value(lv_obj_t * obj, int32_t value, lv_anim_enable_t anim)
  87:Middlewares/lvgl/examples/widgets/slider/../../../src/widgets/lv_slider.h **** {
  88:Middlewares/lvgl/examples/widgets/slider/../../../src/widgets/lv_slider.h ****     lv_bar_set_start_value(obj, value, anim);
  89:Middlewares/lvgl/examples/widgets/slider/../../../src/widgets/lv_slider.h **** }
  90:Middlewares/lvgl/examples/widgets/slider/../../../src/widgets/lv_slider.h **** 
  91:Middlewares/lvgl/examples/widgets/slider/../../../src/widgets/lv_slider.h **** /**
  92:Middlewares/lvgl/examples/widgets/slider/../../../src/widgets/lv_slider.h ****  * Set minimum and the maximum values of a bar
ARM GAS  /tmp/ccSoGIM8.s 			page 6


  93:Middlewares/lvgl/examples/widgets/slider/../../../src/widgets/lv_slider.h ****  * @param obj       pointer to the slider object
  94:Middlewares/lvgl/examples/widgets/slider/../../../src/widgets/lv_slider.h ****  * @param min       minimum value
  95:Middlewares/lvgl/examples/widgets/slider/../../../src/widgets/lv_slider.h ****  * @param max       maximum value
  96:Middlewares/lvgl/examples/widgets/slider/../../../src/widgets/lv_slider.h ****  */
  97:Middlewares/lvgl/examples/widgets/slider/../../../src/widgets/lv_slider.h **** static inline void lv_slider_set_range(lv_obj_t * obj, int32_t min, int32_t max)
  98:Middlewares/lvgl/examples/widgets/slider/../../../src/widgets/lv_slider.h **** {
  99:Middlewares/lvgl/examples/widgets/slider/../../../src/widgets/lv_slider.h ****     lv_bar_set_range(obj, min, max);
 100:Middlewares/lvgl/examples/widgets/slider/../../../src/widgets/lv_slider.h **** }
 101:Middlewares/lvgl/examples/widgets/slider/../../../src/widgets/lv_slider.h **** 
 102:Middlewares/lvgl/examples/widgets/slider/../../../src/widgets/lv_slider.h **** /**
 103:Middlewares/lvgl/examples/widgets/slider/../../../src/widgets/lv_slider.h ****  * Set the mode of slider.
 104:Middlewares/lvgl/examples/widgets/slider/../../../src/widgets/lv_slider.h ****  * @param obj       pointer to a slider object
 105:Middlewares/lvgl/examples/widgets/slider/../../../src/widgets/lv_slider.h ****  * @param mode      the mode of the slider. See ::lv_slider_mode_t
 106:Middlewares/lvgl/examples/widgets/slider/../../../src/widgets/lv_slider.h ****  */
 107:Middlewares/lvgl/examples/widgets/slider/../../../src/widgets/lv_slider.h **** static inline void lv_slider_set_mode(lv_obj_t * obj, lv_slider_mode_t mode)
 108:Middlewares/lvgl/examples/widgets/slider/../../../src/widgets/lv_slider.h **** {
 109:Middlewares/lvgl/examples/widgets/slider/../../../src/widgets/lv_slider.h ****     lv_bar_set_mode(obj, (lv_bar_mode_t)mode);
 110:Middlewares/lvgl/examples/widgets/slider/../../../src/widgets/lv_slider.h **** }
 111:Middlewares/lvgl/examples/widgets/slider/../../../src/widgets/lv_slider.h **** 
 112:Middlewares/lvgl/examples/widgets/slider/../../../src/widgets/lv_slider.h **** /*=====================
 113:Middlewares/lvgl/examples/widgets/slider/../../../src/widgets/lv_slider.h ****  * Getter functions
 114:Middlewares/lvgl/examples/widgets/slider/../../../src/widgets/lv_slider.h ****  *====================*/
 115:Middlewares/lvgl/examples/widgets/slider/../../../src/widgets/lv_slider.h **** 
 116:Middlewares/lvgl/examples/widgets/slider/../../../src/widgets/lv_slider.h **** /**
 117:Middlewares/lvgl/examples/widgets/slider/../../../src/widgets/lv_slider.h ****  * Get the value of the main knob of a slider
 118:Middlewares/lvgl/examples/widgets/slider/../../../src/widgets/lv_slider.h ****  * @param obj       pointer to a slider object
 119:Middlewares/lvgl/examples/widgets/slider/../../../src/widgets/lv_slider.h ****  * @return          the value of the main knob of the slider
 120:Middlewares/lvgl/examples/widgets/slider/../../../src/widgets/lv_slider.h ****  */
 121:Middlewares/lvgl/examples/widgets/slider/../../../src/widgets/lv_slider.h **** static inline int32_t lv_slider_get_value(const lv_obj_t * obj)
 122:Middlewares/lvgl/examples/widgets/slider/../../../src/widgets/lv_slider.h **** {
 123:Middlewares/lvgl/examples/widgets/slider/../../../src/widgets/lv_slider.h ****     return lv_bar_get_value(obj);
 124:Middlewares/lvgl/examples/widgets/slider/../../../src/widgets/lv_slider.h **** }
 125:Middlewares/lvgl/examples/widgets/slider/../../../src/widgets/lv_slider.h **** 
 126:Middlewares/lvgl/examples/widgets/slider/../../../src/widgets/lv_slider.h **** /**
 127:Middlewares/lvgl/examples/widgets/slider/../../../src/widgets/lv_slider.h ****  * Get the value of the left knob of a slider
 128:Middlewares/lvgl/examples/widgets/slider/../../../src/widgets/lv_slider.h ****  * @param obj       pointer to a slider object
 129:Middlewares/lvgl/examples/widgets/slider/../../../src/widgets/lv_slider.h ****  * @return          the value of the left knob of the slider
 130:Middlewares/lvgl/examples/widgets/slider/../../../src/widgets/lv_slider.h ****  */
 131:Middlewares/lvgl/examples/widgets/slider/../../../src/widgets/lv_slider.h **** static inline int32_t lv_slider_get_left_value(const lv_obj_t * obj)
 125              		.loc 2 131 23 view .LVU26
 126              	.LBB23:
 132:Middlewares/lvgl/examples/widgets/slider/../../../src/widgets/lv_slider.h **** {
 133:Middlewares/lvgl/examples/widgets/slider/../../../src/widgets/lv_slider.h ****     return lv_bar_get_start_value(obj);
 127              		.loc 2 133 5 view .LVU27
 128              		.loc 2 133 12 is_stmt 0 view .LVU28
 129 0044 3046     		mov	r0, r6
 130              	.LVL13:
 131              		.loc 2 133 12 view .LVU29
 132 0046 FFF7FEFF 		bl	lv_bar_get_start_value
 133              	.LVL14:
 134 004a 0546     		mov	r5, r0
 135              	.LVL15:
 136              		.loc 2 133 12 view .LVU30
 137              	.LBE23:
 138              	.LBE22:
 139              	.LBB24:
 140              	.LBI24:
ARM GAS  /tmp/ccSoGIM8.s 			page 7


 121:Middlewares/lvgl/examples/widgets/slider/../../../src/widgets/lv_slider.h **** {
 141              		.loc 2 121 23 is_stmt 1 view .LVU31
 142              	.LBB25:
 123:Middlewares/lvgl/examples/widgets/slider/../../../src/widgets/lv_slider.h **** }
 143              		.loc 2 123 5 view .LVU32
 123:Middlewares/lvgl/examples/widgets/slider/../../../src/widgets/lv_slider.h **** }
 144              		.loc 2 123 12 is_stmt 0 view .LVU33
 145 004c 3046     		mov	r0, r6
 146 004e FFF7FEFF 		bl	lv_bar_get_value
 147              	.LVL16:
 123:Middlewares/lvgl/examples/widgets/slider/../../../src/widgets/lv_slider.h **** }
 148              		.loc 2 123 12 view .LVU34
 149              	.LBE25:
 150              	.LBE24:
  39:Middlewares/lvgl/examples/widgets/slider/lv_example_slider_3.c **** 
 151              		.loc 1 39 13 view .LVU35
 152 0052 0090     		str	r0, [sp]
 153 0054 2B46     		mov	r3, r5
 154 0056 224A     		ldr	r2, .L11
 155 0058 1021     		movs	r1, #16
 156 005a 08A8     		add	r0, sp, #32
 157 005c FFF7FEFF 		bl	lv_snprintf
 158              	.LVL17:
  41:Middlewares/lvgl/examples/widgets/slider/lv_example_slider_3.c ****             lv_txt_get_size(&label_size, buf, LV_FONT_DEFAULT, 0, 0, LV_COORD_MAX, 0);
 159              		.loc 1 41 13 is_stmt 1 view .LVU36
  42:Middlewares/lvgl/examples/widgets/slider/lv_example_slider_3.c ****             lv_area_t label_area;
 160              		.loc 1 42 13 view .LVU37
 161 0060 0023     		movs	r3, #0
 162 0062 0293     		str	r3, [sp, #8]
 163 0064 4FF4C042 		mov	r2, #24576
 164 0068 0192     		str	r2, [sp, #4]
 165 006a 0093     		str	r3, [sp]
 166 006c 1D4A     		ldr	r2, .L11+4
 167 006e 08A9     		add	r1, sp, #32
 168 0070 05A8     		add	r0, sp, #20
 169 0072 FFF7FEFF 		bl	lv_txt_get_size
 170              	.LVL18:
  43:Middlewares/lvgl/examples/widgets/slider/lv_example_slider_3.c ****             label_area.x1 = dsc->draw_area->x1 + lv_area_get_width(dsc->draw_area) / 2 - label_size
 171              		.loc 1 43 13 view .LVU38
  44:Middlewares/lvgl/examples/widgets/slider/lv_example_slider_3.c ****             label_area.x2 = label_area.x1 + label_size.x;
 172              		.loc 1 44 13 view .LVU39
  44:Middlewares/lvgl/examples/widgets/slider/lv_example_slider_3.c ****             label_area.x2 = label_area.x1 + label_size.x;
 173              		.loc 1 44 32 is_stmt 0 view .LVU40
 174 0076 6268     		ldr	r2, [r4, #4]
  44:Middlewares/lvgl/examples/widgets/slider/lv_example_slider_3.c ****             label_area.x2 = label_area.x1 + label_size.x;
 175              		.loc 1 44 43 view .LVU41
 176 0078 1388     		ldrh	r3, [r2]
 177              	.LVL19:
 178              	.LBB26:
 179              	.LBI26:
 180              		.file 3 "Middlewares/lvgl/examples/widgets/slider/../../../src/hal/../misc/lv_area.h"
   1:Middlewares/lvgl/examples/widgets/slider/../../../src/hal/../misc/lv_area.h **** /**
   2:Middlewares/lvgl/examples/widgets/slider/../../../src/hal/../misc/lv_area.h ****  * @file lv_area.h
   3:Middlewares/lvgl/examples/widgets/slider/../../../src/hal/../misc/lv_area.h ****  *
   4:Middlewares/lvgl/examples/widgets/slider/../../../src/hal/../misc/lv_area.h ****  */
   5:Middlewares/lvgl/examples/widgets/slider/../../../src/hal/../misc/lv_area.h **** 
   6:Middlewares/lvgl/examples/widgets/slider/../../../src/hal/../misc/lv_area.h **** #ifndef LV_AREA_H
ARM GAS  /tmp/ccSoGIM8.s 			page 8


   7:Middlewares/lvgl/examples/widgets/slider/../../../src/hal/../misc/lv_area.h **** #define LV_AREA_H
   8:Middlewares/lvgl/examples/widgets/slider/../../../src/hal/../misc/lv_area.h **** 
   9:Middlewares/lvgl/examples/widgets/slider/../../../src/hal/../misc/lv_area.h **** #ifdef __cplusplus
  10:Middlewares/lvgl/examples/widgets/slider/../../../src/hal/../misc/lv_area.h **** extern "C" {
  11:Middlewares/lvgl/examples/widgets/slider/../../../src/hal/../misc/lv_area.h **** #endif
  12:Middlewares/lvgl/examples/widgets/slider/../../../src/hal/../misc/lv_area.h **** 
  13:Middlewares/lvgl/examples/widgets/slider/../../../src/hal/../misc/lv_area.h **** /*********************
  14:Middlewares/lvgl/examples/widgets/slider/../../../src/hal/../misc/lv_area.h ****  *      INCLUDES
  15:Middlewares/lvgl/examples/widgets/slider/../../../src/hal/../misc/lv_area.h ****  *********************/
  16:Middlewares/lvgl/examples/widgets/slider/../../../src/hal/../misc/lv_area.h **** #include "../lv_conf_internal.h"
  17:Middlewares/lvgl/examples/widgets/slider/../../../src/hal/../misc/lv_area.h **** #include <string.h>
  18:Middlewares/lvgl/examples/widgets/slider/../../../src/hal/../misc/lv_area.h **** #include <stdbool.h>
  19:Middlewares/lvgl/examples/widgets/slider/../../../src/hal/../misc/lv_area.h **** #include <stdint.h>
  20:Middlewares/lvgl/examples/widgets/slider/../../../src/hal/../misc/lv_area.h **** 
  21:Middlewares/lvgl/examples/widgets/slider/../../../src/hal/../misc/lv_area.h **** /*********************
  22:Middlewares/lvgl/examples/widgets/slider/../../../src/hal/../misc/lv_area.h ****  *      DEFINES
  23:Middlewares/lvgl/examples/widgets/slider/../../../src/hal/../misc/lv_area.h ****  *********************/
  24:Middlewares/lvgl/examples/widgets/slider/../../../src/hal/../misc/lv_area.h **** 
  25:Middlewares/lvgl/examples/widgets/slider/../../../src/hal/../misc/lv_area.h **** #define _LV_COORD_MAX_REDUCE    8192
  26:Middlewares/lvgl/examples/widgets/slider/../../../src/hal/../misc/lv_area.h **** 
  27:Middlewares/lvgl/examples/widgets/slider/../../../src/hal/../misc/lv_area.h **** #if LV_USE_LARGE_COORD
  28:Middlewares/lvgl/examples/widgets/slider/../../../src/hal/../misc/lv_area.h **** typedef int32_t lv_coord_t;
  29:Middlewares/lvgl/examples/widgets/slider/../../../src/hal/../misc/lv_area.h **** #else
  30:Middlewares/lvgl/examples/widgets/slider/../../../src/hal/../misc/lv_area.h **** typedef int16_t lv_coord_t;
  31:Middlewares/lvgl/examples/widgets/slider/../../../src/hal/../misc/lv_area.h **** #endif
  32:Middlewares/lvgl/examples/widgets/slider/../../../src/hal/../misc/lv_area.h **** 
  33:Middlewares/lvgl/examples/widgets/slider/../../../src/hal/../misc/lv_area.h **** /*To allow some special values in the end reduce the max value*/
  34:Middlewares/lvgl/examples/widgets/slider/../../../src/hal/../misc/lv_area.h **** #define LV_COORD_MAX ((lv_coord_t)((uint32_t)((uint32_t)1 << (8 * sizeof(lv_coord_t) - 1)) - _LV_CO
  35:Middlewares/lvgl/examples/widgets/slider/../../../src/hal/../misc/lv_area.h **** #define LV_COORD_MIN (-LV_COORD_MAX)
  36:Middlewares/lvgl/examples/widgets/slider/../../../src/hal/../misc/lv_area.h **** 
  37:Middlewares/lvgl/examples/widgets/slider/../../../src/hal/../misc/lv_area.h **** LV_EXPORT_CONST_INT(LV_COORD_MAX);
  38:Middlewares/lvgl/examples/widgets/slider/../../../src/hal/../misc/lv_area.h **** LV_EXPORT_CONST_INT(LV_COORD_MIN);
  39:Middlewares/lvgl/examples/widgets/slider/../../../src/hal/../misc/lv_area.h **** 
  40:Middlewares/lvgl/examples/widgets/slider/../../../src/hal/../misc/lv_area.h **** /**********************
  41:Middlewares/lvgl/examples/widgets/slider/../../../src/hal/../misc/lv_area.h ****  *      TYPEDEFS
  42:Middlewares/lvgl/examples/widgets/slider/../../../src/hal/../misc/lv_area.h ****  **********************/
  43:Middlewares/lvgl/examples/widgets/slider/../../../src/hal/../misc/lv_area.h **** 
  44:Middlewares/lvgl/examples/widgets/slider/../../../src/hal/../misc/lv_area.h **** /**
  45:Middlewares/lvgl/examples/widgets/slider/../../../src/hal/../misc/lv_area.h ****  * Represents a point on the screen.
  46:Middlewares/lvgl/examples/widgets/slider/../../../src/hal/../misc/lv_area.h ****  */
  47:Middlewares/lvgl/examples/widgets/slider/../../../src/hal/../misc/lv_area.h **** typedef struct {
  48:Middlewares/lvgl/examples/widgets/slider/../../../src/hal/../misc/lv_area.h ****     lv_coord_t x;
  49:Middlewares/lvgl/examples/widgets/slider/../../../src/hal/../misc/lv_area.h ****     lv_coord_t y;
  50:Middlewares/lvgl/examples/widgets/slider/../../../src/hal/../misc/lv_area.h **** } lv_point_t;
  51:Middlewares/lvgl/examples/widgets/slider/../../../src/hal/../misc/lv_area.h **** 
  52:Middlewares/lvgl/examples/widgets/slider/../../../src/hal/../misc/lv_area.h **** /** Represents an area of the screen.*/
  53:Middlewares/lvgl/examples/widgets/slider/../../../src/hal/../misc/lv_area.h **** typedef struct {
  54:Middlewares/lvgl/examples/widgets/slider/../../../src/hal/../misc/lv_area.h ****     lv_coord_t x1;
  55:Middlewares/lvgl/examples/widgets/slider/../../../src/hal/../misc/lv_area.h ****     lv_coord_t y1;
  56:Middlewares/lvgl/examples/widgets/slider/../../../src/hal/../misc/lv_area.h ****     lv_coord_t x2;
  57:Middlewares/lvgl/examples/widgets/slider/../../../src/hal/../misc/lv_area.h ****     lv_coord_t y2;
  58:Middlewares/lvgl/examples/widgets/slider/../../../src/hal/../misc/lv_area.h **** } lv_area_t;
  59:Middlewares/lvgl/examples/widgets/slider/../../../src/hal/../misc/lv_area.h **** 
  60:Middlewares/lvgl/examples/widgets/slider/../../../src/hal/../misc/lv_area.h **** /** Alignments*/
  61:Middlewares/lvgl/examples/widgets/slider/../../../src/hal/../misc/lv_area.h **** enum {
  62:Middlewares/lvgl/examples/widgets/slider/../../../src/hal/../misc/lv_area.h ****     LV_ALIGN_DEFAULT = 0,
  63:Middlewares/lvgl/examples/widgets/slider/../../../src/hal/../misc/lv_area.h ****     LV_ALIGN_TOP_LEFT,
ARM GAS  /tmp/ccSoGIM8.s 			page 9


  64:Middlewares/lvgl/examples/widgets/slider/../../../src/hal/../misc/lv_area.h ****     LV_ALIGN_TOP_MID,
  65:Middlewares/lvgl/examples/widgets/slider/../../../src/hal/../misc/lv_area.h ****     LV_ALIGN_TOP_RIGHT,
  66:Middlewares/lvgl/examples/widgets/slider/../../../src/hal/../misc/lv_area.h ****     LV_ALIGN_BOTTOM_LEFT,
  67:Middlewares/lvgl/examples/widgets/slider/../../../src/hal/../misc/lv_area.h ****     LV_ALIGN_BOTTOM_MID,
  68:Middlewares/lvgl/examples/widgets/slider/../../../src/hal/../misc/lv_area.h ****     LV_ALIGN_BOTTOM_RIGHT,
  69:Middlewares/lvgl/examples/widgets/slider/../../../src/hal/../misc/lv_area.h ****     LV_ALIGN_LEFT_MID,
  70:Middlewares/lvgl/examples/widgets/slider/../../../src/hal/../misc/lv_area.h ****     LV_ALIGN_RIGHT_MID,
  71:Middlewares/lvgl/examples/widgets/slider/../../../src/hal/../misc/lv_area.h ****     LV_ALIGN_CENTER,
  72:Middlewares/lvgl/examples/widgets/slider/../../../src/hal/../misc/lv_area.h **** 
  73:Middlewares/lvgl/examples/widgets/slider/../../../src/hal/../misc/lv_area.h ****     LV_ALIGN_OUT_TOP_LEFT,
  74:Middlewares/lvgl/examples/widgets/slider/../../../src/hal/../misc/lv_area.h ****     LV_ALIGN_OUT_TOP_MID,
  75:Middlewares/lvgl/examples/widgets/slider/../../../src/hal/../misc/lv_area.h ****     LV_ALIGN_OUT_TOP_RIGHT,
  76:Middlewares/lvgl/examples/widgets/slider/../../../src/hal/../misc/lv_area.h ****     LV_ALIGN_OUT_BOTTOM_LEFT,
  77:Middlewares/lvgl/examples/widgets/slider/../../../src/hal/../misc/lv_area.h ****     LV_ALIGN_OUT_BOTTOM_MID,
  78:Middlewares/lvgl/examples/widgets/slider/../../../src/hal/../misc/lv_area.h ****     LV_ALIGN_OUT_BOTTOM_RIGHT,
  79:Middlewares/lvgl/examples/widgets/slider/../../../src/hal/../misc/lv_area.h ****     LV_ALIGN_OUT_LEFT_TOP,
  80:Middlewares/lvgl/examples/widgets/slider/../../../src/hal/../misc/lv_area.h ****     LV_ALIGN_OUT_LEFT_MID,
  81:Middlewares/lvgl/examples/widgets/slider/../../../src/hal/../misc/lv_area.h ****     LV_ALIGN_OUT_LEFT_BOTTOM,
  82:Middlewares/lvgl/examples/widgets/slider/../../../src/hal/../misc/lv_area.h ****     LV_ALIGN_OUT_RIGHT_TOP,
  83:Middlewares/lvgl/examples/widgets/slider/../../../src/hal/../misc/lv_area.h ****     LV_ALIGN_OUT_RIGHT_MID,
  84:Middlewares/lvgl/examples/widgets/slider/../../../src/hal/../misc/lv_area.h ****     LV_ALIGN_OUT_RIGHT_BOTTOM,
  85:Middlewares/lvgl/examples/widgets/slider/../../../src/hal/../misc/lv_area.h **** };
  86:Middlewares/lvgl/examples/widgets/slider/../../../src/hal/../misc/lv_area.h **** typedef uint8_t lv_align_t;
  87:Middlewares/lvgl/examples/widgets/slider/../../../src/hal/../misc/lv_area.h **** 
  88:Middlewares/lvgl/examples/widgets/slider/../../../src/hal/../misc/lv_area.h **** enum {
  89:Middlewares/lvgl/examples/widgets/slider/../../../src/hal/../misc/lv_area.h ****     LV_DIR_NONE     = 0x00,
  90:Middlewares/lvgl/examples/widgets/slider/../../../src/hal/../misc/lv_area.h ****     LV_DIR_LEFT     = (1 << 0),
  91:Middlewares/lvgl/examples/widgets/slider/../../../src/hal/../misc/lv_area.h ****     LV_DIR_RIGHT    = (1 << 1),
  92:Middlewares/lvgl/examples/widgets/slider/../../../src/hal/../misc/lv_area.h ****     LV_DIR_TOP      = (1 << 2),
  93:Middlewares/lvgl/examples/widgets/slider/../../../src/hal/../misc/lv_area.h ****     LV_DIR_BOTTOM   = (1 << 3),
  94:Middlewares/lvgl/examples/widgets/slider/../../../src/hal/../misc/lv_area.h ****     LV_DIR_HOR      = LV_DIR_LEFT | LV_DIR_RIGHT,
  95:Middlewares/lvgl/examples/widgets/slider/../../../src/hal/../misc/lv_area.h ****     LV_DIR_VER      = LV_DIR_TOP | LV_DIR_BOTTOM,
  96:Middlewares/lvgl/examples/widgets/slider/../../../src/hal/../misc/lv_area.h ****     LV_DIR_ALL      = LV_DIR_HOR | LV_DIR_VER,
  97:Middlewares/lvgl/examples/widgets/slider/../../../src/hal/../misc/lv_area.h **** };
  98:Middlewares/lvgl/examples/widgets/slider/../../../src/hal/../misc/lv_area.h **** 
  99:Middlewares/lvgl/examples/widgets/slider/../../../src/hal/../misc/lv_area.h **** typedef uint8_t lv_dir_t;
 100:Middlewares/lvgl/examples/widgets/slider/../../../src/hal/../misc/lv_area.h **** 
 101:Middlewares/lvgl/examples/widgets/slider/../../../src/hal/../misc/lv_area.h **** /**********************
 102:Middlewares/lvgl/examples/widgets/slider/../../../src/hal/../misc/lv_area.h ****  * GLOBAL PROTOTYPES
 103:Middlewares/lvgl/examples/widgets/slider/../../../src/hal/../misc/lv_area.h ****  **********************/
 104:Middlewares/lvgl/examples/widgets/slider/../../../src/hal/../misc/lv_area.h **** 
 105:Middlewares/lvgl/examples/widgets/slider/../../../src/hal/../misc/lv_area.h **** /**
 106:Middlewares/lvgl/examples/widgets/slider/../../../src/hal/../misc/lv_area.h ****  * Initialize an area
 107:Middlewares/lvgl/examples/widgets/slider/../../../src/hal/../misc/lv_area.h ****  * @param area_p pointer to an area
 108:Middlewares/lvgl/examples/widgets/slider/../../../src/hal/../misc/lv_area.h ****  * @param x1 left coordinate of the area
 109:Middlewares/lvgl/examples/widgets/slider/../../../src/hal/../misc/lv_area.h ****  * @param y1 top coordinate of the area
 110:Middlewares/lvgl/examples/widgets/slider/../../../src/hal/../misc/lv_area.h ****  * @param x2 right coordinate of the area
 111:Middlewares/lvgl/examples/widgets/slider/../../../src/hal/../misc/lv_area.h ****  * @param y2 bottom coordinate of the area
 112:Middlewares/lvgl/examples/widgets/slider/../../../src/hal/../misc/lv_area.h ****  */
 113:Middlewares/lvgl/examples/widgets/slider/../../../src/hal/../misc/lv_area.h **** void lv_area_set(lv_area_t * area_p, lv_coord_t x1, lv_coord_t y1, lv_coord_t x2, lv_coord_t y2);
 114:Middlewares/lvgl/examples/widgets/slider/../../../src/hal/../misc/lv_area.h **** 
 115:Middlewares/lvgl/examples/widgets/slider/../../../src/hal/../misc/lv_area.h **** /**
 116:Middlewares/lvgl/examples/widgets/slider/../../../src/hal/../misc/lv_area.h ****  * Copy an area
 117:Middlewares/lvgl/examples/widgets/slider/../../../src/hal/../misc/lv_area.h ****  * @param dest pointer to the destination area
 118:Middlewares/lvgl/examples/widgets/slider/../../../src/hal/../misc/lv_area.h ****  * @param src pointer to the source area
 119:Middlewares/lvgl/examples/widgets/slider/../../../src/hal/../misc/lv_area.h ****  */
 120:Middlewares/lvgl/examples/widgets/slider/../../../src/hal/../misc/lv_area.h **** inline static void lv_area_copy(lv_area_t * dest, const lv_area_t * src)
ARM GAS  /tmp/ccSoGIM8.s 			page 10


 121:Middlewares/lvgl/examples/widgets/slider/../../../src/hal/../misc/lv_area.h **** {
 122:Middlewares/lvgl/examples/widgets/slider/../../../src/hal/../misc/lv_area.h ****     dest->x1 = src->x1;
 123:Middlewares/lvgl/examples/widgets/slider/../../../src/hal/../misc/lv_area.h ****     dest->y1 = src->y1;
 124:Middlewares/lvgl/examples/widgets/slider/../../../src/hal/../misc/lv_area.h ****     dest->x2 = src->x2;
 125:Middlewares/lvgl/examples/widgets/slider/../../../src/hal/../misc/lv_area.h ****     dest->y2 = src->y2;
 126:Middlewares/lvgl/examples/widgets/slider/../../../src/hal/../misc/lv_area.h **** }
 127:Middlewares/lvgl/examples/widgets/slider/../../../src/hal/../misc/lv_area.h **** 
 128:Middlewares/lvgl/examples/widgets/slider/../../../src/hal/../misc/lv_area.h **** /**
 129:Middlewares/lvgl/examples/widgets/slider/../../../src/hal/../misc/lv_area.h ****  * Get the width of an area
 130:Middlewares/lvgl/examples/widgets/slider/../../../src/hal/../misc/lv_area.h ****  * @param area_p pointer to an area
 131:Middlewares/lvgl/examples/widgets/slider/../../../src/hal/../misc/lv_area.h ****  * @return the width of the area (if x1 == x2 -> width = 1)
 132:Middlewares/lvgl/examples/widgets/slider/../../../src/hal/../misc/lv_area.h ****  */
 133:Middlewares/lvgl/examples/widgets/slider/../../../src/hal/../misc/lv_area.h **** static inline lv_coord_t lv_area_get_width(const lv_area_t * area_p)
 181              		.loc 3 133 26 is_stmt 1 view .LVU42
 182              	.LBB27:
 134:Middlewares/lvgl/examples/widgets/slider/../../../src/hal/../misc/lv_area.h **** {
 135:Middlewares/lvgl/examples/widgets/slider/../../../src/hal/../misc/lv_area.h ****     return (lv_coord_t)(area_p->x2 - area_p->x1 + 1);
 183              		.loc 3 135 5 view .LVU43
 184              		.loc 3 135 31 is_stmt 0 view .LVU44
 185 007a 9288     		ldrh	r2, [r2, #4]
 186              	.LVL20:
 187              		.loc 3 135 36 view .LVU45
 188 007c D21A     		subs	r2, r2, r3
 189 007e 92B2     		uxth	r2, r2
 190              		.loc 3 135 49 view .LVU46
 191 0080 0132     		adds	r2, r2, #1
 192              		.loc 3 135 12 view .LVU47
 193 0082 12B2     		sxth	r2, r2
 194              	.LVL21:
 195              		.loc 3 135 12 view .LVU48
 196              	.LBE27:
 197              	.LBE26:
  44:Middlewares/lvgl/examples/widgets/slider/lv_example_slider_3.c ****             label_area.x2 = label_area.x1 + label_size.x;
 198              		.loc 1 44 48 view .LVU49
 199 0084 002A     		cmp	r2, #0
 200 0086 27DB     		blt	.L9
 201              	.L4:
 202 0088 03EB6203 		add	r3, r3, r2, asr #1
 203 008c 9BB2     		uxth	r3, r3
  44:Middlewares/lvgl/examples/widgets/slider/lv_example_slider_3.c ****             label_area.x2 = label_area.x1 + label_size.x;
 204              		.loc 1 44 100 view .LVU50
 205 008e BDF91420 		ldrsh	r2, [sp, #20]
  44:Middlewares/lvgl/examples/widgets/slider/lv_example_slider_3.c ****             label_area.x2 = label_area.x1 + label_size.x;
 206              		.loc 1 44 88 view .LVU51
 207 0092 1146     		mov	r1, r2
 208 0094 002A     		cmp	r2, #0
 209 0096 21DB     		blt	.L10
 210              	.L5:
 211 0098 A3EB6103 		sub	r3, r3, r1, asr #1
  44:Middlewares/lvgl/examples/widgets/slider/lv_example_slider_3.c ****             label_area.x2 = label_area.x1 + label_size.x;
 212              		.loc 1 44 27 view .LVU52
 213 009c ADF81830 		strh	r3, [sp, #24]	@ movhi
  45:Middlewares/lvgl/examples/widgets/slider/lv_example_slider_3.c ****             label_area.y2 = dsc->draw_area->y1 - 10;
 214              		.loc 1 45 13 is_stmt 1 view .LVU53
  45:Middlewares/lvgl/examples/widgets/slider/lv_example_slider_3.c ****             label_area.y2 = dsc->draw_area->y1 - 10;
 215              		.loc 1 45 55 is_stmt 0 view .LVU54
 216 00a0 92B2     		uxth	r2, r2
ARM GAS  /tmp/ccSoGIM8.s 			page 11


  45:Middlewares/lvgl/examples/widgets/slider/lv_example_slider_3.c ****             label_area.y2 = dsc->draw_area->y1 - 10;
 217              		.loc 1 45 43 view .LVU55
 218 00a2 12FA83F3 		uxtah	r3, r2, r3
  45:Middlewares/lvgl/examples/widgets/slider/lv_example_slider_3.c ****             label_area.y2 = dsc->draw_area->y1 - 10;
 219              		.loc 1 45 27 view .LVU56
 220 00a6 ADF81C30 		strh	r3, [sp, #28]	@ movhi
  46:Middlewares/lvgl/examples/widgets/slider/lv_example_slider_3.c ****             label_area.y1 = label_area.y2 - label_size.y;
 221              		.loc 1 46 13 is_stmt 1 view .LVU57
  46:Middlewares/lvgl/examples/widgets/slider/lv_example_slider_3.c ****             label_area.y1 = label_area.y2 - label_size.y;
 222              		.loc 1 46 32 is_stmt 0 view .LVU58
 223 00aa 6368     		ldr	r3, [r4, #4]
  46:Middlewares/lvgl/examples/widgets/slider/lv_example_slider_3.c ****             label_area.y1 = label_area.y2 - label_size.y;
 224              		.loc 1 46 43 view .LVU59
 225 00ac 5B88     		ldrh	r3, [r3, #2]
  46:Middlewares/lvgl/examples/widgets/slider/lv_example_slider_3.c ****             label_area.y1 = label_area.y2 - label_size.y;
 226              		.loc 1 46 48 view .LVU60
 227 00ae 0A3B     		subs	r3, r3, #10
 228 00b0 9AB2     		uxth	r2, r3
  46:Middlewares/lvgl/examples/widgets/slider/lv_example_slider_3.c ****             label_area.y1 = label_area.y2 - label_size.y;
 229              		.loc 1 46 27 view .LVU61
 230 00b2 ADF81E30 		strh	r3, [sp, #30]	@ movhi
  47:Middlewares/lvgl/examples/widgets/slider/lv_example_slider_3.c **** 
 231              		.loc 1 47 13 is_stmt 1 view .LVU62
  47:Middlewares/lvgl/examples/widgets/slider/lv_example_slider_3.c **** 
 232              		.loc 1 47 55 is_stmt 0 view .LVU63
 233 00b6 BDF81630 		ldrh	r3, [sp, #22]
  47:Middlewares/lvgl/examples/widgets/slider/lv_example_slider_3.c **** 
 234              		.loc 1 47 43 view .LVU64
 235 00ba D31A     		subs	r3, r2, r3
  47:Middlewares/lvgl/examples/widgets/slider/lv_example_slider_3.c **** 
 236              		.loc 1 47 27 view .LVU65
 237 00bc ADF81A30 		strh	r3, [sp, #26]	@ movhi
  49:Middlewares/lvgl/examples/widgets/slider/lv_example_slider_3.c ****             lv_draw_label_dsc_init(&label_draw_dsc);
 238              		.loc 1 49 13 is_stmt 1 view .LVU66
  50:Middlewares/lvgl/examples/widgets/slider/lv_example_slider_3.c **** 
 239              		.loc 1 50 13 view .LVU67
 240 00c0 0CA8     		add	r0, sp, #48
 241 00c2 FFF7FEFF 		bl	lv_draw_label_dsc_init
 242              	.LVL22:
  52:Middlewares/lvgl/examples/widgets/slider/lv_example_slider_3.c ****         }
 243              		.loc 1 52 13 view .LVU68
 244 00c6 2168     		ldr	r1, [r4]
 245 00c8 0023     		movs	r3, #0
 246 00ca 0093     		str	r3, [sp]
 247 00cc 08AB     		add	r3, sp, #32
 248 00ce 0CAA     		add	r2, sp, #48
 249 00d0 06A8     		add	r0, sp, #24
 250 00d2 FFF7FEFF 		bl	lv_draw_label
 251              	.LVL23:
 252              	.LBE21:
 253              	.LBE20:
 254              		.loc 1 55 1 is_stmt 0 view .LVU69
 255 00d6 A1E7     		b	.L1
 256              	.L9:
 257              	.LBB29:
 258              	.LBB28:
  44:Middlewares/lvgl/examples/widgets/slider/lv_example_slider_3.c ****             label_area.x2 = label_area.x1 + label_size.x;
ARM GAS  /tmp/ccSoGIM8.s 			page 12


 259              		.loc 1 44 48 view .LVU70
 260 00d8 0132     		adds	r2, r2, #1
 261 00da D5E7     		b	.L4
 262              	.L10:
  44:Middlewares/lvgl/examples/widgets/slider/lv_example_slider_3.c ****             label_area.x2 = label_area.x1 + label_size.x;
 263              		.loc 1 44 88 view .LVU71
 264 00dc 511C     		adds	r1, r2, #1
 265 00de DBE7     		b	.L5
 266              	.L12:
 267              		.align	2
 268              	.L11:
 269 00e0 00000000 		.word	.LC0
 270 00e4 00000000 		.word	lv_font_montserrat_14
 271              	.LBE28:
 272              	.LBE29:
 273              		.cfi_endproc
 274              	.LFE185:
 276              		.section	.text.lv_example_slider_3,"ax",%progbits
 277              		.align	1
 278              		.global	lv_example_slider_3
 279              		.syntax unified
 280              		.thumb
 281              		.thumb_func
 282              		.fpu fpv5-d16
 284              	lv_example_slider_3:
 285              	.LFB184:
  11:Middlewares/lvgl/examples/widgets/slider/lv_example_slider_3.c ****     /*Create a slider in the center of the display*/
 286              		.loc 1 11 1 is_stmt 1 view -0
 287              		.cfi_startproc
 288              		@ args = 0, pretend = 0, frame = 0
 289              		@ frame_needed = 0, uses_anonymous_args = 0
 290 0000 10B5     		push	{r4, lr}
 291              	.LCFI4:
 292              		.cfi_def_cfa_offset 8
 293              		.cfi_offset 4, -8
 294              		.cfi_offset 14, -4
  13:Middlewares/lvgl/examples/widgets/slider/lv_example_slider_3.c ****     slider = lv_slider_create(lv_scr_act());
 295              		.loc 1 13 5 view .LVU73
  14:Middlewares/lvgl/examples/widgets/slider/lv_example_slider_3.c ****     lv_obj_center(slider);
 296              		.loc 1 14 5 view .LVU74
 297              	.LBB40:
 298              	.LBI40:
 299              		.file 4 "Middlewares/lvgl/examples/widgets/slider/../../../src/core/lv_disp.h"
   1:Middlewares/lvgl/examples/widgets/slider/../../../src/core/lv_disp.h **** /**
   2:Middlewares/lvgl/examples/widgets/slider/../../../src/core/lv_disp.h ****  * @file lv_disp.h
   3:Middlewares/lvgl/examples/widgets/slider/../../../src/core/lv_disp.h ****  *
   4:Middlewares/lvgl/examples/widgets/slider/../../../src/core/lv_disp.h ****  */
   5:Middlewares/lvgl/examples/widgets/slider/../../../src/core/lv_disp.h **** 
   6:Middlewares/lvgl/examples/widgets/slider/../../../src/core/lv_disp.h **** #ifndef LV_DISP_H
   7:Middlewares/lvgl/examples/widgets/slider/../../../src/core/lv_disp.h **** #define LV_DISP_H
   8:Middlewares/lvgl/examples/widgets/slider/../../../src/core/lv_disp.h **** 
   9:Middlewares/lvgl/examples/widgets/slider/../../../src/core/lv_disp.h **** #ifdef __cplusplus
  10:Middlewares/lvgl/examples/widgets/slider/../../../src/core/lv_disp.h **** extern "C" {
  11:Middlewares/lvgl/examples/widgets/slider/../../../src/core/lv_disp.h **** #endif
  12:Middlewares/lvgl/examples/widgets/slider/../../../src/core/lv_disp.h **** 
  13:Middlewares/lvgl/examples/widgets/slider/../../../src/core/lv_disp.h **** /*********************
  14:Middlewares/lvgl/examples/widgets/slider/../../../src/core/lv_disp.h ****  *      INCLUDES
ARM GAS  /tmp/ccSoGIM8.s 			page 13


  15:Middlewares/lvgl/examples/widgets/slider/../../../src/core/lv_disp.h ****  *********************/
  16:Middlewares/lvgl/examples/widgets/slider/../../../src/core/lv_disp.h **** #include "../hal/lv_hal.h"
  17:Middlewares/lvgl/examples/widgets/slider/../../../src/core/lv_disp.h **** #include "lv_obj.h"
  18:Middlewares/lvgl/examples/widgets/slider/../../../src/core/lv_disp.h **** #include "lv_theme.h"
  19:Middlewares/lvgl/examples/widgets/slider/../../../src/core/lv_disp.h **** 
  20:Middlewares/lvgl/examples/widgets/slider/../../../src/core/lv_disp.h **** /*********************
  21:Middlewares/lvgl/examples/widgets/slider/../../../src/core/lv_disp.h ****  *      DEFINES
  22:Middlewares/lvgl/examples/widgets/slider/../../../src/core/lv_disp.h ****  *********************/
  23:Middlewares/lvgl/examples/widgets/slider/../../../src/core/lv_disp.h **** 
  24:Middlewares/lvgl/examples/widgets/slider/../../../src/core/lv_disp.h **** /**********************
  25:Middlewares/lvgl/examples/widgets/slider/../../../src/core/lv_disp.h ****  *      TYPEDEFS
  26:Middlewares/lvgl/examples/widgets/slider/../../../src/core/lv_disp.h ****  **********************/
  27:Middlewares/lvgl/examples/widgets/slider/../../../src/core/lv_disp.h **** 
  28:Middlewares/lvgl/examples/widgets/slider/../../../src/core/lv_disp.h **** typedef enum {
  29:Middlewares/lvgl/examples/widgets/slider/../../../src/core/lv_disp.h ****     LV_SCR_LOAD_ANIM_NONE,
  30:Middlewares/lvgl/examples/widgets/slider/../../../src/core/lv_disp.h ****     LV_SCR_LOAD_ANIM_OVER_LEFT,
  31:Middlewares/lvgl/examples/widgets/slider/../../../src/core/lv_disp.h ****     LV_SCR_LOAD_ANIM_OVER_RIGHT,
  32:Middlewares/lvgl/examples/widgets/slider/../../../src/core/lv_disp.h ****     LV_SCR_LOAD_ANIM_OVER_TOP,
  33:Middlewares/lvgl/examples/widgets/slider/../../../src/core/lv_disp.h ****     LV_SCR_LOAD_ANIM_OVER_BOTTOM,
  34:Middlewares/lvgl/examples/widgets/slider/../../../src/core/lv_disp.h ****     LV_SCR_LOAD_ANIM_MOVE_LEFT,
  35:Middlewares/lvgl/examples/widgets/slider/../../../src/core/lv_disp.h ****     LV_SCR_LOAD_ANIM_MOVE_RIGHT,
  36:Middlewares/lvgl/examples/widgets/slider/../../../src/core/lv_disp.h ****     LV_SCR_LOAD_ANIM_MOVE_TOP,
  37:Middlewares/lvgl/examples/widgets/slider/../../../src/core/lv_disp.h ****     LV_SCR_LOAD_ANIM_MOVE_BOTTOM,
  38:Middlewares/lvgl/examples/widgets/slider/../../../src/core/lv_disp.h ****     LV_SCR_LOAD_ANIM_FADE_ON,
  39:Middlewares/lvgl/examples/widgets/slider/../../../src/core/lv_disp.h **** } lv_scr_load_anim_t;
  40:Middlewares/lvgl/examples/widgets/slider/../../../src/core/lv_disp.h **** 
  41:Middlewares/lvgl/examples/widgets/slider/../../../src/core/lv_disp.h **** /**********************
  42:Middlewares/lvgl/examples/widgets/slider/../../../src/core/lv_disp.h ****  * GLOBAL PROTOTYPES
  43:Middlewares/lvgl/examples/widgets/slider/../../../src/core/lv_disp.h ****  **********************/
  44:Middlewares/lvgl/examples/widgets/slider/../../../src/core/lv_disp.h **** 
  45:Middlewares/lvgl/examples/widgets/slider/../../../src/core/lv_disp.h **** /**
  46:Middlewares/lvgl/examples/widgets/slider/../../../src/core/lv_disp.h ****  * Return with a pointer to the active screen
  47:Middlewares/lvgl/examples/widgets/slider/../../../src/core/lv_disp.h ****  * @param disp pointer to display which active screen should be get. (NULL to use the default
  48:Middlewares/lvgl/examples/widgets/slider/../../../src/core/lv_disp.h ****  * screen)
  49:Middlewares/lvgl/examples/widgets/slider/../../../src/core/lv_disp.h ****  * @return pointer to the active screen object (loaded by 'lv_scr_load()')
  50:Middlewares/lvgl/examples/widgets/slider/../../../src/core/lv_disp.h ****  */
  51:Middlewares/lvgl/examples/widgets/slider/../../../src/core/lv_disp.h **** lv_obj_t * lv_disp_get_scr_act(lv_disp_t * disp);
  52:Middlewares/lvgl/examples/widgets/slider/../../../src/core/lv_disp.h **** 
  53:Middlewares/lvgl/examples/widgets/slider/../../../src/core/lv_disp.h **** /**
  54:Middlewares/lvgl/examples/widgets/slider/../../../src/core/lv_disp.h ****  * Return with a pointer to the previous screen. Only used during screen transitions.
  55:Middlewares/lvgl/examples/widgets/slider/../../../src/core/lv_disp.h ****  * @param disp pointer to display which previous screen should be get. (NULL to use the default
  56:Middlewares/lvgl/examples/widgets/slider/../../../src/core/lv_disp.h ****  * screen)
  57:Middlewares/lvgl/examples/widgets/slider/../../../src/core/lv_disp.h ****  * @return pointer to the previous screen object or NULL if not used now
  58:Middlewares/lvgl/examples/widgets/slider/../../../src/core/lv_disp.h ****  */
  59:Middlewares/lvgl/examples/widgets/slider/../../../src/core/lv_disp.h **** lv_obj_t * lv_disp_get_scr_prev(lv_disp_t * disp);
  60:Middlewares/lvgl/examples/widgets/slider/../../../src/core/lv_disp.h **** 
  61:Middlewares/lvgl/examples/widgets/slider/../../../src/core/lv_disp.h **** /**
  62:Middlewares/lvgl/examples/widgets/slider/../../../src/core/lv_disp.h ****  * Make a screen active
  63:Middlewares/lvgl/examples/widgets/slider/../../../src/core/lv_disp.h ****  * @param scr pointer to a screen
  64:Middlewares/lvgl/examples/widgets/slider/../../../src/core/lv_disp.h ****  */
  65:Middlewares/lvgl/examples/widgets/slider/../../../src/core/lv_disp.h **** void lv_disp_load_scr(lv_obj_t * scr);
  66:Middlewares/lvgl/examples/widgets/slider/../../../src/core/lv_disp.h **** 
  67:Middlewares/lvgl/examples/widgets/slider/../../../src/core/lv_disp.h **** /**
  68:Middlewares/lvgl/examples/widgets/slider/../../../src/core/lv_disp.h ****  * Return with the top layer. (Same on every screen and it is above the normal screen layer)
  69:Middlewares/lvgl/examples/widgets/slider/../../../src/core/lv_disp.h ****  * @param disp pointer to display which top layer should be get. (NULL to use the default screen)
  70:Middlewares/lvgl/examples/widgets/slider/../../../src/core/lv_disp.h ****  * @return pointer to the top layer object  (transparent screen sized lv_obj)
  71:Middlewares/lvgl/examples/widgets/slider/../../../src/core/lv_disp.h ****  */
ARM GAS  /tmp/ccSoGIM8.s 			page 14


  72:Middlewares/lvgl/examples/widgets/slider/../../../src/core/lv_disp.h **** lv_obj_t * lv_disp_get_layer_top(lv_disp_t * disp);
  73:Middlewares/lvgl/examples/widgets/slider/../../../src/core/lv_disp.h **** 
  74:Middlewares/lvgl/examples/widgets/slider/../../../src/core/lv_disp.h **** /**
  75:Middlewares/lvgl/examples/widgets/slider/../../../src/core/lv_disp.h ****  * Return with the sys. layer. (Same on every screen and it is above the normal screen and the top
  76:Middlewares/lvgl/examples/widgets/slider/../../../src/core/lv_disp.h ****  * layer)
  77:Middlewares/lvgl/examples/widgets/slider/../../../src/core/lv_disp.h ****  * @param disp pointer to display which sys. layer  should be get. (NULL to use the default screen)
  78:Middlewares/lvgl/examples/widgets/slider/../../../src/core/lv_disp.h ****  * @return pointer to the sys layer object  (transparent screen sized lv_obj)
  79:Middlewares/lvgl/examples/widgets/slider/../../../src/core/lv_disp.h ****  */
  80:Middlewares/lvgl/examples/widgets/slider/../../../src/core/lv_disp.h **** lv_obj_t * lv_disp_get_layer_sys(lv_disp_t * disp);
  81:Middlewares/lvgl/examples/widgets/slider/../../../src/core/lv_disp.h **** 
  82:Middlewares/lvgl/examples/widgets/slider/../../../src/core/lv_disp.h **** /**
  83:Middlewares/lvgl/examples/widgets/slider/../../../src/core/lv_disp.h ****  * Get the theme of a display
  84:Middlewares/lvgl/examples/widgets/slider/../../../src/core/lv_disp.h ****  * @param disp pointer to a display
  85:Middlewares/lvgl/examples/widgets/slider/../../../src/core/lv_disp.h ****  * @return the display's theme (can be NULL)
  86:Middlewares/lvgl/examples/widgets/slider/../../../src/core/lv_disp.h ****  */
  87:Middlewares/lvgl/examples/widgets/slider/../../../src/core/lv_disp.h **** void lv_disp_set_theme(lv_disp_t * disp, lv_theme_t * th);
  88:Middlewares/lvgl/examples/widgets/slider/../../../src/core/lv_disp.h **** 
  89:Middlewares/lvgl/examples/widgets/slider/../../../src/core/lv_disp.h **** /**
  90:Middlewares/lvgl/examples/widgets/slider/../../../src/core/lv_disp.h ****  * Get the theme of a display
  91:Middlewares/lvgl/examples/widgets/slider/../../../src/core/lv_disp.h ****  * @param disp pointer to a display
  92:Middlewares/lvgl/examples/widgets/slider/../../../src/core/lv_disp.h ****  * @return the display's theme (can be NULL)
  93:Middlewares/lvgl/examples/widgets/slider/../../../src/core/lv_disp.h ****  */
  94:Middlewares/lvgl/examples/widgets/slider/../../../src/core/lv_disp.h **** lv_theme_t * lv_disp_get_theme(lv_disp_t * disp);
  95:Middlewares/lvgl/examples/widgets/slider/../../../src/core/lv_disp.h **** 
  96:Middlewares/lvgl/examples/widgets/slider/../../../src/core/lv_disp.h **** /**
  97:Middlewares/lvgl/examples/widgets/slider/../../../src/core/lv_disp.h ****  * Set the background color of a display
  98:Middlewares/lvgl/examples/widgets/slider/../../../src/core/lv_disp.h ****  * @param disp pointer to a display
  99:Middlewares/lvgl/examples/widgets/slider/../../../src/core/lv_disp.h ****  * @param color color of the background
 100:Middlewares/lvgl/examples/widgets/slider/../../../src/core/lv_disp.h ****  */
 101:Middlewares/lvgl/examples/widgets/slider/../../../src/core/lv_disp.h **** void lv_disp_set_bg_color(lv_disp_t * disp, lv_color_t color);
 102:Middlewares/lvgl/examples/widgets/slider/../../../src/core/lv_disp.h **** 
 103:Middlewares/lvgl/examples/widgets/slider/../../../src/core/lv_disp.h **** /**
 104:Middlewares/lvgl/examples/widgets/slider/../../../src/core/lv_disp.h ****  * Set the background image of a display
 105:Middlewares/lvgl/examples/widgets/slider/../../../src/core/lv_disp.h ****  * @param disp pointer to a display
 106:Middlewares/lvgl/examples/widgets/slider/../../../src/core/lv_disp.h ****  * @param img_src path to file or pointer to an `lv_img_dsc_t` variable
 107:Middlewares/lvgl/examples/widgets/slider/../../../src/core/lv_disp.h ****  */
 108:Middlewares/lvgl/examples/widgets/slider/../../../src/core/lv_disp.h **** void lv_disp_set_bg_image(lv_disp_t * disp, const void  * img_src);
 109:Middlewares/lvgl/examples/widgets/slider/../../../src/core/lv_disp.h **** 
 110:Middlewares/lvgl/examples/widgets/slider/../../../src/core/lv_disp.h **** /**
 111:Middlewares/lvgl/examples/widgets/slider/../../../src/core/lv_disp.h ****  * Opacity of the background
 112:Middlewares/lvgl/examples/widgets/slider/../../../src/core/lv_disp.h ****  * @param disp pointer to a display
 113:Middlewares/lvgl/examples/widgets/slider/../../../src/core/lv_disp.h ****  * @param opa opacity (0..255)
 114:Middlewares/lvgl/examples/widgets/slider/../../../src/core/lv_disp.h ****  */
 115:Middlewares/lvgl/examples/widgets/slider/../../../src/core/lv_disp.h **** void lv_disp_set_bg_opa(lv_disp_t * disp, lv_opa_t opa);
 116:Middlewares/lvgl/examples/widgets/slider/../../../src/core/lv_disp.h **** 
 117:Middlewares/lvgl/examples/widgets/slider/../../../src/core/lv_disp.h **** /**
 118:Middlewares/lvgl/examples/widgets/slider/../../../src/core/lv_disp.h ****  * Switch screen with animation
 119:Middlewares/lvgl/examples/widgets/slider/../../../src/core/lv_disp.h ****  * @param scr pointer to the new screen to load
 120:Middlewares/lvgl/examples/widgets/slider/../../../src/core/lv_disp.h ****  * @param anim_type type of the animation from `lv_scr_load_anim_t`. E.g.  `LV_SCR_LOAD_ANIM_MOVE_L
 121:Middlewares/lvgl/examples/widgets/slider/../../../src/core/lv_disp.h ****  * @param time time of the animation
 122:Middlewares/lvgl/examples/widgets/slider/../../../src/core/lv_disp.h ****  * @param delay delay before the transition
 123:Middlewares/lvgl/examples/widgets/slider/../../../src/core/lv_disp.h ****  * @param auto_del true: automatically delete the old screen
 124:Middlewares/lvgl/examples/widgets/slider/../../../src/core/lv_disp.h ****  */
 125:Middlewares/lvgl/examples/widgets/slider/../../../src/core/lv_disp.h **** void lv_scr_load_anim(lv_obj_t * scr, lv_scr_load_anim_t anim_type, uint32_t time, uint32_t delay, 
 126:Middlewares/lvgl/examples/widgets/slider/../../../src/core/lv_disp.h **** 
 127:Middlewares/lvgl/examples/widgets/slider/../../../src/core/lv_disp.h **** /**
 128:Middlewares/lvgl/examples/widgets/slider/../../../src/core/lv_disp.h ****  * Get elapsed time since last user activity on a display (e.g. click)
ARM GAS  /tmp/ccSoGIM8.s 			page 15


 129:Middlewares/lvgl/examples/widgets/slider/../../../src/core/lv_disp.h ****  * @param disp pointer to an display (NULL to get the overall smallest inactivity)
 130:Middlewares/lvgl/examples/widgets/slider/../../../src/core/lv_disp.h ****  * @return elapsed ticks (milliseconds) since the last activity
 131:Middlewares/lvgl/examples/widgets/slider/../../../src/core/lv_disp.h ****  */
 132:Middlewares/lvgl/examples/widgets/slider/../../../src/core/lv_disp.h **** uint32_t lv_disp_get_inactive_time(const lv_disp_t * disp);
 133:Middlewares/lvgl/examples/widgets/slider/../../../src/core/lv_disp.h **** 
 134:Middlewares/lvgl/examples/widgets/slider/../../../src/core/lv_disp.h **** /**
 135:Middlewares/lvgl/examples/widgets/slider/../../../src/core/lv_disp.h ****  * Manually trigger an activity on a display
 136:Middlewares/lvgl/examples/widgets/slider/../../../src/core/lv_disp.h ****  * @param disp pointer to an display (NULL to use the default display)
 137:Middlewares/lvgl/examples/widgets/slider/../../../src/core/lv_disp.h ****  */
 138:Middlewares/lvgl/examples/widgets/slider/../../../src/core/lv_disp.h **** void lv_disp_trig_activity(lv_disp_t * disp);
 139:Middlewares/lvgl/examples/widgets/slider/../../../src/core/lv_disp.h **** 
 140:Middlewares/lvgl/examples/widgets/slider/../../../src/core/lv_disp.h **** /**
 141:Middlewares/lvgl/examples/widgets/slider/../../../src/core/lv_disp.h ****  * Clean any CPU cache that is related to the display.
 142:Middlewares/lvgl/examples/widgets/slider/../../../src/core/lv_disp.h ****  * @param disp pointer to an display (NULL to use the default display)
 143:Middlewares/lvgl/examples/widgets/slider/../../../src/core/lv_disp.h ****  */
 144:Middlewares/lvgl/examples/widgets/slider/../../../src/core/lv_disp.h **** void lv_disp_clean_dcache(lv_disp_t * disp);
 145:Middlewares/lvgl/examples/widgets/slider/../../../src/core/lv_disp.h **** 
 146:Middlewares/lvgl/examples/widgets/slider/../../../src/core/lv_disp.h **** /**
 147:Middlewares/lvgl/examples/widgets/slider/../../../src/core/lv_disp.h ****  * Get a pointer to the screen refresher timer to
 148:Middlewares/lvgl/examples/widgets/slider/../../../src/core/lv_disp.h ****  * modify its parameters with `lv_timer_...` functions.
 149:Middlewares/lvgl/examples/widgets/slider/../../../src/core/lv_disp.h ****  * @param disp pointer to a display
 150:Middlewares/lvgl/examples/widgets/slider/../../../src/core/lv_disp.h ****  * @return pointer to the display refresher timer. (NULL on error)
 151:Middlewares/lvgl/examples/widgets/slider/../../../src/core/lv_disp.h ****  */
 152:Middlewares/lvgl/examples/widgets/slider/../../../src/core/lv_disp.h **** lv_timer_t * _lv_disp_get_refr_timer(lv_disp_t * disp);
 153:Middlewares/lvgl/examples/widgets/slider/../../../src/core/lv_disp.h **** 
 154:Middlewares/lvgl/examples/widgets/slider/../../../src/core/lv_disp.h **** /*------------------------------------------------
 155:Middlewares/lvgl/examples/widgets/slider/../../../src/core/lv_disp.h ****  * To improve backward compatibility
 156:Middlewares/lvgl/examples/widgets/slider/../../../src/core/lv_disp.h ****  * Recommended only if you have one display
 157:Middlewares/lvgl/examples/widgets/slider/../../../src/core/lv_disp.h ****  *------------------------------------------------*/
 158:Middlewares/lvgl/examples/widgets/slider/../../../src/core/lv_disp.h **** 
 159:Middlewares/lvgl/examples/widgets/slider/../../../src/core/lv_disp.h **** /**
 160:Middlewares/lvgl/examples/widgets/slider/../../../src/core/lv_disp.h ****  * Get the active screen of the default display
 161:Middlewares/lvgl/examples/widgets/slider/../../../src/core/lv_disp.h ****  * @return pointer to the active screen
 162:Middlewares/lvgl/examples/widgets/slider/../../../src/core/lv_disp.h ****  */
 163:Middlewares/lvgl/examples/widgets/slider/../../../src/core/lv_disp.h **** static inline lv_obj_t * lv_scr_act(void)
 300              		.loc 4 163 26 view .LVU75
 301              	.LBB41:
 164:Middlewares/lvgl/examples/widgets/slider/../../../src/core/lv_disp.h **** {
 165:Middlewares/lvgl/examples/widgets/slider/../../../src/core/lv_disp.h ****     return lv_disp_get_scr_act(lv_disp_get_default());
 302              		.loc 4 165 5 view .LVU76
 303              		.loc 4 165 12 is_stmt 0 view .LVU77
 304 0002 FFF7FEFF 		bl	lv_disp_get_default
 305              	.LVL24:
 306 0006 FFF7FEFF 		bl	lv_disp_get_scr_act
 307              	.LVL25:
 308              	.LBE41:
 309              	.LBE40:
  14:Middlewares/lvgl/examples/widgets/slider/lv_example_slider_3.c ****     lv_obj_center(slider);
 310              		.loc 1 14 14 view .LVU78
 311 000a FFF7FEFF 		bl	lv_slider_create
 312              	.LVL26:
 313 000e 0446     		mov	r4, r0
 314              	.LVL27:
  15:Middlewares/lvgl/examples/widgets/slider/lv_example_slider_3.c **** 
 315              		.loc 1 15 5 is_stmt 1 view .LVU79
 316              	.LBB42:
 317              	.LBI42:
ARM GAS  /tmp/ccSoGIM8.s 			page 16


 318              		.file 5 "Middlewares/lvgl/examples/widgets/slider/../../../src/core/lv_obj_pos.h"
   1:Middlewares/lvgl/examples/widgets/slider/../../../src/core/lv_obj_pos.h **** /**
   2:Middlewares/lvgl/examples/widgets/slider/../../../src/core/lv_obj_pos.h ****  * @file lv_obj_pos.h
   3:Middlewares/lvgl/examples/widgets/slider/../../../src/core/lv_obj_pos.h ****  *
   4:Middlewares/lvgl/examples/widgets/slider/../../../src/core/lv_obj_pos.h ****  */
   5:Middlewares/lvgl/examples/widgets/slider/../../../src/core/lv_obj_pos.h **** 
   6:Middlewares/lvgl/examples/widgets/slider/../../../src/core/lv_obj_pos.h **** #ifndef LV_OBJ_POS_H
   7:Middlewares/lvgl/examples/widgets/slider/../../../src/core/lv_obj_pos.h **** #define LV_OBJ_POS_H
   8:Middlewares/lvgl/examples/widgets/slider/../../../src/core/lv_obj_pos.h **** 
   9:Middlewares/lvgl/examples/widgets/slider/../../../src/core/lv_obj_pos.h **** #ifdef __cplusplus
  10:Middlewares/lvgl/examples/widgets/slider/../../../src/core/lv_obj_pos.h **** extern "C" {
  11:Middlewares/lvgl/examples/widgets/slider/../../../src/core/lv_obj_pos.h **** #endif
  12:Middlewares/lvgl/examples/widgets/slider/../../../src/core/lv_obj_pos.h **** 
  13:Middlewares/lvgl/examples/widgets/slider/../../../src/core/lv_obj_pos.h **** /*********************
  14:Middlewares/lvgl/examples/widgets/slider/../../../src/core/lv_obj_pos.h ****  *      INCLUDES
  15:Middlewares/lvgl/examples/widgets/slider/../../../src/core/lv_obj_pos.h ****  *********************/
  16:Middlewares/lvgl/examples/widgets/slider/../../../src/core/lv_obj_pos.h **** #include "../misc/lv_area.h"
  17:Middlewares/lvgl/examples/widgets/slider/../../../src/core/lv_obj_pos.h **** 
  18:Middlewares/lvgl/examples/widgets/slider/../../../src/core/lv_obj_pos.h **** /*********************
  19:Middlewares/lvgl/examples/widgets/slider/../../../src/core/lv_obj_pos.h ****  *      DEFINES
  20:Middlewares/lvgl/examples/widgets/slider/../../../src/core/lv_obj_pos.h ****  *********************/
  21:Middlewares/lvgl/examples/widgets/slider/../../../src/core/lv_obj_pos.h **** 
  22:Middlewares/lvgl/examples/widgets/slider/../../../src/core/lv_obj_pos.h **** /**********************
  23:Middlewares/lvgl/examples/widgets/slider/../../../src/core/lv_obj_pos.h ****  *      TYPEDEFS
  24:Middlewares/lvgl/examples/widgets/slider/../../../src/core/lv_obj_pos.h ****  **********************/
  25:Middlewares/lvgl/examples/widgets/slider/../../../src/core/lv_obj_pos.h **** struct _lv_obj_t;
  26:Middlewares/lvgl/examples/widgets/slider/../../../src/core/lv_obj_pos.h **** 
  27:Middlewares/lvgl/examples/widgets/slider/../../../src/core/lv_obj_pos.h **** typedef void (*lv_layout_update_cb_t)(struct _lv_obj_t *, void * user_data);
  28:Middlewares/lvgl/examples/widgets/slider/../../../src/core/lv_obj_pos.h **** typedef struct {
  29:Middlewares/lvgl/examples/widgets/slider/../../../src/core/lv_obj_pos.h ****     lv_layout_update_cb_t cb;
  30:Middlewares/lvgl/examples/widgets/slider/../../../src/core/lv_obj_pos.h ****     void * user_data;
  31:Middlewares/lvgl/examples/widgets/slider/../../../src/core/lv_obj_pos.h **** }lv_layout_dsc_t;
  32:Middlewares/lvgl/examples/widgets/slider/../../../src/core/lv_obj_pos.h **** 
  33:Middlewares/lvgl/examples/widgets/slider/../../../src/core/lv_obj_pos.h **** /**********************
  34:Middlewares/lvgl/examples/widgets/slider/../../../src/core/lv_obj_pos.h ****  * GLOBAL PROTOTYPES
  35:Middlewares/lvgl/examples/widgets/slider/../../../src/core/lv_obj_pos.h ****  **********************/
  36:Middlewares/lvgl/examples/widgets/slider/../../../src/core/lv_obj_pos.h **** 
  37:Middlewares/lvgl/examples/widgets/slider/../../../src/core/lv_obj_pos.h **** /**
  38:Middlewares/lvgl/examples/widgets/slider/../../../src/core/lv_obj_pos.h ****  * Set the relative the position of an object (relative to the parent's top left corner)
  39:Middlewares/lvgl/examples/widgets/slider/../../../src/core/lv_obj_pos.h ****  * @param obj       pointer to an object
  40:Middlewares/lvgl/examples/widgets/slider/../../../src/core/lv_obj_pos.h ****  * @param x         new distance from the left side of the parent plus the parent's left padding
  41:Middlewares/lvgl/examples/widgets/slider/../../../src/core/lv_obj_pos.h ****  * @param y         new distance from the top side of the parent  plus the parent's right padding
  42:Middlewares/lvgl/examples/widgets/slider/../../../src/core/lv_obj_pos.h ****  */
  43:Middlewares/lvgl/examples/widgets/slider/../../../src/core/lv_obj_pos.h **** void lv_obj_set_pos(struct _lv_obj_t * obj, lv_coord_t x, lv_coord_t y);
  44:Middlewares/lvgl/examples/widgets/slider/../../../src/core/lv_obj_pos.h **** 
  45:Middlewares/lvgl/examples/widgets/slider/../../../src/core/lv_obj_pos.h **** /**
  46:Middlewares/lvgl/examples/widgets/slider/../../../src/core/lv_obj_pos.h ****  * Set the x coordinate of a object
  47:Middlewares/lvgl/examples/widgets/slider/../../../src/core/lv_obj_pos.h ****  * @param obj       pointer to an object
  48:Middlewares/lvgl/examples/widgets/slider/../../../src/core/lv_obj_pos.h ****  * @param x         new distance from the left side from the parent plus the parent's left padding
  49:Middlewares/lvgl/examples/widgets/slider/../../../src/core/lv_obj_pos.h ****  */
  50:Middlewares/lvgl/examples/widgets/slider/../../../src/core/lv_obj_pos.h **** void lv_obj_set_x(struct _lv_obj_t * obj, lv_coord_t x);
  51:Middlewares/lvgl/examples/widgets/slider/../../../src/core/lv_obj_pos.h **** 
  52:Middlewares/lvgl/examples/widgets/slider/../../../src/core/lv_obj_pos.h **** /**
  53:Middlewares/lvgl/examples/widgets/slider/../../../src/core/lv_obj_pos.h ****  * Set the y coordinate of a object
  54:Middlewares/lvgl/examples/widgets/slider/../../../src/core/lv_obj_pos.h ****  * @param obj       pointer to an object
  55:Middlewares/lvgl/examples/widgets/slider/../../../src/core/lv_obj_pos.h ****  * @param y         new distance from the top of the parent  plus the parent's top padding
  56:Middlewares/lvgl/examples/widgets/slider/../../../src/core/lv_obj_pos.h ****  */
ARM GAS  /tmp/ccSoGIM8.s 			page 17


  57:Middlewares/lvgl/examples/widgets/slider/../../../src/core/lv_obj_pos.h **** void lv_obj_set_y(struct _lv_obj_t * obj, lv_coord_t y);
  58:Middlewares/lvgl/examples/widgets/slider/../../../src/core/lv_obj_pos.h **** 
  59:Middlewares/lvgl/examples/widgets/slider/../../../src/core/lv_obj_pos.h **** /**
  60:Middlewares/lvgl/examples/widgets/slider/../../../src/core/lv_obj_pos.h ****  * Set the size of an object.
  61:Middlewares/lvgl/examples/widgets/slider/../../../src/core/lv_obj_pos.h ****  * @param obj       pointer to an object
  62:Middlewares/lvgl/examples/widgets/slider/../../../src/core/lv_obj_pos.h ****  * @param w         the new width
  63:Middlewares/lvgl/examples/widgets/slider/../../../src/core/lv_obj_pos.h ****  * @param h         the new height
  64:Middlewares/lvgl/examples/widgets/slider/../../../src/core/lv_obj_pos.h ****  * @note            possible values are:
  65:Middlewares/lvgl/examples/widgets/slider/../../../src/core/lv_obj_pos.h ****  *                  pixel               simple set the size accordingly
  66:Middlewares/lvgl/examples/widgets/slider/../../../src/core/lv_obj_pos.h ****  *                  LV_SIZE_CONTENT     set the size to involve all children in the given direction
  67:Middlewares/lvgl/examples/widgets/slider/../../../src/core/lv_obj_pos.h ****  *                  LV_SIZE_PCT(x)     to set size in percentage of the parent's content area size 
  68:Middlewares/lvgl/examples/widgets/slider/../../../src/core/lv_obj_pos.h ****  *                                      x should be in [0..1000]% range
  69:Middlewares/lvgl/examples/widgets/slider/../../../src/core/lv_obj_pos.h ****  */
  70:Middlewares/lvgl/examples/widgets/slider/../../../src/core/lv_obj_pos.h **** void lv_obj_set_size(struct _lv_obj_t * obj, lv_coord_t w, lv_coord_t h);
  71:Middlewares/lvgl/examples/widgets/slider/../../../src/core/lv_obj_pos.h **** 
  72:Middlewares/lvgl/examples/widgets/slider/../../../src/core/lv_obj_pos.h **** /**
  73:Middlewares/lvgl/examples/widgets/slider/../../../src/core/lv_obj_pos.h ****  * Recalculate the size of the object
  74:Middlewares/lvgl/examples/widgets/slider/../../../src/core/lv_obj_pos.h ****  * @param obj       pointer to an object
  75:Middlewares/lvgl/examples/widgets/slider/../../../src/core/lv_obj_pos.h ****  * @return          true: the size has been changed
  76:Middlewares/lvgl/examples/widgets/slider/../../../src/core/lv_obj_pos.h ****  */
  77:Middlewares/lvgl/examples/widgets/slider/../../../src/core/lv_obj_pos.h **** bool lv_obj_refr_size(struct _lv_obj_t * obj);
  78:Middlewares/lvgl/examples/widgets/slider/../../../src/core/lv_obj_pos.h **** 
  79:Middlewares/lvgl/examples/widgets/slider/../../../src/core/lv_obj_pos.h **** /**
  80:Middlewares/lvgl/examples/widgets/slider/../../../src/core/lv_obj_pos.h ****  * Set the width of an object
  81:Middlewares/lvgl/examples/widgets/slider/../../../src/core/lv_obj_pos.h ****  * @param obj       pointer to an object
  82:Middlewares/lvgl/examples/widgets/slider/../../../src/core/lv_obj_pos.h ****  * @param w         the new width
  83:Middlewares/lvgl/examples/widgets/slider/../../../src/core/lv_obj_pos.h ****  * @note            possible values are:
  84:Middlewares/lvgl/examples/widgets/slider/../../../src/core/lv_obj_pos.h ****  *                  pixel               simple set the size accordingly
  85:Middlewares/lvgl/examples/widgets/slider/../../../src/core/lv_obj_pos.h ****  *                  LV_SIZE_CONTENT     set the size to involve all children in the given direction
  86:Middlewares/lvgl/examples/widgets/slider/../../../src/core/lv_obj_pos.h ****  *                  lv_pct(x)           to set size in percentage of the parent's content area size
  87:Middlewares/lvgl/examples/widgets/slider/../../../src/core/lv_obj_pos.h ****  *                                      x should be in [0..1000]% range
  88:Middlewares/lvgl/examples/widgets/slider/../../../src/core/lv_obj_pos.h ****  */
  89:Middlewares/lvgl/examples/widgets/slider/../../../src/core/lv_obj_pos.h **** void lv_obj_set_width(struct _lv_obj_t * obj, lv_coord_t w);
  90:Middlewares/lvgl/examples/widgets/slider/../../../src/core/lv_obj_pos.h **** 
  91:Middlewares/lvgl/examples/widgets/slider/../../../src/core/lv_obj_pos.h **** /**
  92:Middlewares/lvgl/examples/widgets/slider/../../../src/core/lv_obj_pos.h ****  * Set the height of an object
  93:Middlewares/lvgl/examples/widgets/slider/../../../src/core/lv_obj_pos.h ****  * @param obj       pointer to an object
  94:Middlewares/lvgl/examples/widgets/slider/../../../src/core/lv_obj_pos.h ****  * @param h         the new height
  95:Middlewares/lvgl/examples/widgets/slider/../../../src/core/lv_obj_pos.h ****  * @note            possible values are:
  96:Middlewares/lvgl/examples/widgets/slider/../../../src/core/lv_obj_pos.h ****  *                  pixel               simple set the size accordingly
  97:Middlewares/lvgl/examples/widgets/slider/../../../src/core/lv_obj_pos.h ****  *                  LV_SIZE_CONTENT     set the size to involve all children in the given direction
  98:Middlewares/lvgl/examples/widgets/slider/../../../src/core/lv_obj_pos.h ****  *                  lv_pct(x)           to set size in percentage of the parent's content area size
  99:Middlewares/lvgl/examples/widgets/slider/../../../src/core/lv_obj_pos.h ****  *                                      x should be in [0..1000]% range
 100:Middlewares/lvgl/examples/widgets/slider/../../../src/core/lv_obj_pos.h ****  */
 101:Middlewares/lvgl/examples/widgets/slider/../../../src/core/lv_obj_pos.h **** void lv_obj_set_height(struct _lv_obj_t * obj, lv_coord_t h);
 102:Middlewares/lvgl/examples/widgets/slider/../../../src/core/lv_obj_pos.h **** 
 103:Middlewares/lvgl/examples/widgets/slider/../../../src/core/lv_obj_pos.h **** /**
 104:Middlewares/lvgl/examples/widgets/slider/../../../src/core/lv_obj_pos.h ****  * Set the width reduced by the left and right padding and the border width.
 105:Middlewares/lvgl/examples/widgets/slider/../../../src/core/lv_obj_pos.h ****  * @param obj       pointer to an object
 106:Middlewares/lvgl/examples/widgets/slider/../../../src/core/lv_obj_pos.h ****  * @param w         the width without paddings in pixels
 107:Middlewares/lvgl/examples/widgets/slider/../../../src/core/lv_obj_pos.h ****  */
 108:Middlewares/lvgl/examples/widgets/slider/../../../src/core/lv_obj_pos.h **** void lv_obj_set_content_width(struct _lv_obj_t * obj, lv_coord_t w);
 109:Middlewares/lvgl/examples/widgets/slider/../../../src/core/lv_obj_pos.h **** 
 110:Middlewares/lvgl/examples/widgets/slider/../../../src/core/lv_obj_pos.h **** /**
 111:Middlewares/lvgl/examples/widgets/slider/../../../src/core/lv_obj_pos.h ****  * Set the height reduced by the top and bottom padding and the border width.
 112:Middlewares/lvgl/examples/widgets/slider/../../../src/core/lv_obj_pos.h ****  * @param obj       pointer to an object
 113:Middlewares/lvgl/examples/widgets/slider/../../../src/core/lv_obj_pos.h ****  * @param h         the height without paddings in pixels
ARM GAS  /tmp/ccSoGIM8.s 			page 18


 114:Middlewares/lvgl/examples/widgets/slider/../../../src/core/lv_obj_pos.h ****  */
 115:Middlewares/lvgl/examples/widgets/slider/../../../src/core/lv_obj_pos.h **** void lv_obj_set_content_height(struct _lv_obj_t * obj, lv_coord_t h);
 116:Middlewares/lvgl/examples/widgets/slider/../../../src/core/lv_obj_pos.h **** 
 117:Middlewares/lvgl/examples/widgets/slider/../../../src/core/lv_obj_pos.h **** /**
 118:Middlewares/lvgl/examples/widgets/slider/../../../src/core/lv_obj_pos.h ****  * Set a layout for an object
 119:Middlewares/lvgl/examples/widgets/slider/../../../src/core/lv_obj_pos.h ****  * @param obj       pointer to an object
 120:Middlewares/lvgl/examples/widgets/slider/../../../src/core/lv_obj_pos.h ****  * @param layout    pointer to a layout descriptor to set
 121:Middlewares/lvgl/examples/widgets/slider/../../../src/core/lv_obj_pos.h ****  */
 122:Middlewares/lvgl/examples/widgets/slider/../../../src/core/lv_obj_pos.h **** void lv_obj_set_layout(struct _lv_obj_t * obj, uint32_t layout);
 123:Middlewares/lvgl/examples/widgets/slider/../../../src/core/lv_obj_pos.h **** 
 124:Middlewares/lvgl/examples/widgets/slider/../../../src/core/lv_obj_pos.h **** /**
 125:Middlewares/lvgl/examples/widgets/slider/../../../src/core/lv_obj_pos.h ****  * Test whether the and object is positioned by a layout or not
 126:Middlewares/lvgl/examples/widgets/slider/../../../src/core/lv_obj_pos.h ****  * @param obj       pointer to an object to test
 127:Middlewares/lvgl/examples/widgets/slider/../../../src/core/lv_obj_pos.h ****  * @return true:    positioned by a layout; false: not positioned by a layout
 128:Middlewares/lvgl/examples/widgets/slider/../../../src/core/lv_obj_pos.h ****  */
 129:Middlewares/lvgl/examples/widgets/slider/../../../src/core/lv_obj_pos.h **** bool lv_obj_is_layout_positioned(const struct _lv_obj_t * obj);
 130:Middlewares/lvgl/examples/widgets/slider/../../../src/core/lv_obj_pos.h **** 
 131:Middlewares/lvgl/examples/widgets/slider/../../../src/core/lv_obj_pos.h **** /**
 132:Middlewares/lvgl/examples/widgets/slider/../../../src/core/lv_obj_pos.h ****  * Mark the object for layout update.
 133:Middlewares/lvgl/examples/widgets/slider/../../../src/core/lv_obj_pos.h ****  * @param obj      pointer to an object whose children needs to be updated
 134:Middlewares/lvgl/examples/widgets/slider/../../../src/core/lv_obj_pos.h ****  */
 135:Middlewares/lvgl/examples/widgets/slider/../../../src/core/lv_obj_pos.h **** void lv_obj_mark_layout_as_dirty(struct _lv_obj_t * obj);
 136:Middlewares/lvgl/examples/widgets/slider/../../../src/core/lv_obj_pos.h **** 
 137:Middlewares/lvgl/examples/widgets/slider/../../../src/core/lv_obj_pos.h **** /**
 138:Middlewares/lvgl/examples/widgets/slider/../../../src/core/lv_obj_pos.h ****  * Update the layout of an object.
 139:Middlewares/lvgl/examples/widgets/slider/../../../src/core/lv_obj_pos.h ****  * @param obj      pointer to an object whose children needs to be updated
 140:Middlewares/lvgl/examples/widgets/slider/../../../src/core/lv_obj_pos.h ****  */
 141:Middlewares/lvgl/examples/widgets/slider/../../../src/core/lv_obj_pos.h **** void lv_obj_update_layout(const struct _lv_obj_t * obj);
 142:Middlewares/lvgl/examples/widgets/slider/../../../src/core/lv_obj_pos.h **** 
 143:Middlewares/lvgl/examples/widgets/slider/../../../src/core/lv_obj_pos.h **** /**
 144:Middlewares/lvgl/examples/widgets/slider/../../../src/core/lv_obj_pos.h ****  * Regsiter a new layout
 145:Middlewares/lvgl/examples/widgets/slider/../../../src/core/lv_obj_pos.h ****  * @param cb        the layout update callback
 146:Middlewares/lvgl/examples/widgets/slider/../../../src/core/lv_obj_pos.h ****  * @param user_data custom data that will be passed to `cb`
 147:Middlewares/lvgl/examples/widgets/slider/../../../src/core/lv_obj_pos.h ****  * @return          the ID of the new layout
 148:Middlewares/lvgl/examples/widgets/slider/../../../src/core/lv_obj_pos.h ****  */
 149:Middlewares/lvgl/examples/widgets/slider/../../../src/core/lv_obj_pos.h **** uint32_t lv_layout_register(lv_layout_update_cb_t cb, void * user_data);
 150:Middlewares/lvgl/examples/widgets/slider/../../../src/core/lv_obj_pos.h **** 
 151:Middlewares/lvgl/examples/widgets/slider/../../../src/core/lv_obj_pos.h **** /**
 152:Middlewares/lvgl/examples/widgets/slider/../../../src/core/lv_obj_pos.h ****  * Change the alignment of an object.
 153:Middlewares/lvgl/examples/widgets/slider/../../../src/core/lv_obj_pos.h ****  * @param obj       pointer to an object to align
 154:Middlewares/lvgl/examples/widgets/slider/../../../src/core/lv_obj_pos.h ****  * @param align     type of alignment (see 'lv_align_t' enum) `LV_ALIGN_OUT_...` can't be used.
 155:Middlewares/lvgl/examples/widgets/slider/../../../src/core/lv_obj_pos.h ****  */
 156:Middlewares/lvgl/examples/widgets/slider/../../../src/core/lv_obj_pos.h **** void lv_obj_set_align(struct _lv_obj_t * obj, lv_align_t align);
 157:Middlewares/lvgl/examples/widgets/slider/../../../src/core/lv_obj_pos.h **** 
 158:Middlewares/lvgl/examples/widgets/slider/../../../src/core/lv_obj_pos.h **** /**
 159:Middlewares/lvgl/examples/widgets/slider/../../../src/core/lv_obj_pos.h ****  * Change the alignment of an object and set new coordinates.
 160:Middlewares/lvgl/examples/widgets/slider/../../../src/core/lv_obj_pos.h ****  * Equivalent to:
 161:Middlewares/lvgl/examples/widgets/slider/../../../src/core/lv_obj_pos.h ****  * lv_obj_set_align(obj, align);
 162:Middlewares/lvgl/examples/widgets/slider/../../../src/core/lv_obj_pos.h ****  * lv_obj_set_pos(obj, x_ofs, y_ofs);
 163:Middlewares/lvgl/examples/widgets/slider/../../../src/core/lv_obj_pos.h ****  * @param obj       pointer to an object to align
 164:Middlewares/lvgl/examples/widgets/slider/../../../src/core/lv_obj_pos.h ****  * @param align     type of alignment (see 'lv_align_t' enum) `LV_ALIGN_OUT_...` can't be used.
 165:Middlewares/lvgl/examples/widgets/slider/../../../src/core/lv_obj_pos.h ****  * @param x_ofs     x coordinate offset after alignment
 166:Middlewares/lvgl/examples/widgets/slider/../../../src/core/lv_obj_pos.h ****  * @param y_ofs     y coordinate offset after alignment
 167:Middlewares/lvgl/examples/widgets/slider/../../../src/core/lv_obj_pos.h ****  */
 168:Middlewares/lvgl/examples/widgets/slider/../../../src/core/lv_obj_pos.h **** void lv_obj_align(struct _lv_obj_t * obj, lv_align_t align, lv_coord_t x_ofs, lv_coord_t y_ofs);
 169:Middlewares/lvgl/examples/widgets/slider/../../../src/core/lv_obj_pos.h **** 
 170:Middlewares/lvgl/examples/widgets/slider/../../../src/core/lv_obj_pos.h **** /**
ARM GAS  /tmp/ccSoGIM8.s 			page 19


 171:Middlewares/lvgl/examples/widgets/slider/../../../src/core/lv_obj_pos.h ****  * Align an object to an other object.
 172:Middlewares/lvgl/examples/widgets/slider/../../../src/core/lv_obj_pos.h ****  * @param obj       pointer to an object to align
 173:Middlewares/lvgl/examples/widgets/slider/../../../src/core/lv_obj_pos.h ****  * @param base      pointer to an other object (if NULL `obj`s parent is used). 'obj' will be align
 174:Middlewares/lvgl/examples/widgets/slider/../../../src/core/lv_obj_pos.h ****  * @param align     type of alignment (see 'lv_align_t' enum)
 175:Middlewares/lvgl/examples/widgets/slider/../../../src/core/lv_obj_pos.h ****  * @param x_ofs     x coordinate offset after alignment
 176:Middlewares/lvgl/examples/widgets/slider/../../../src/core/lv_obj_pos.h ****  * @param y_ofs     y coordinate offset after alignment
 177:Middlewares/lvgl/examples/widgets/slider/../../../src/core/lv_obj_pos.h ****  * @note            if the position or size of `base` changes `obj` needs to be aligned manually ag
 178:Middlewares/lvgl/examples/widgets/slider/../../../src/core/lv_obj_pos.h ****  */
 179:Middlewares/lvgl/examples/widgets/slider/../../../src/core/lv_obj_pos.h **** void lv_obj_align_to(struct _lv_obj_t * obj, const struct _lv_obj_t * base, lv_align_t align, lv_co
 180:Middlewares/lvgl/examples/widgets/slider/../../../src/core/lv_obj_pos.h **** 
 181:Middlewares/lvgl/examples/widgets/slider/../../../src/core/lv_obj_pos.h **** /**
 182:Middlewares/lvgl/examples/widgets/slider/../../../src/core/lv_obj_pos.h ****  * Align an object to the center on its parent.
 183:Middlewares/lvgl/examples/widgets/slider/../../../src/core/lv_obj_pos.h ****  * @param obj       pointer to an object to align
 184:Middlewares/lvgl/examples/widgets/slider/../../../src/core/lv_obj_pos.h ****  * @note            if the parent size changes `obj` needs to be aligned manually again
 185:Middlewares/lvgl/examples/widgets/slider/../../../src/core/lv_obj_pos.h ****  */
 186:Middlewares/lvgl/examples/widgets/slider/../../../src/core/lv_obj_pos.h **** static inline void lv_obj_center(struct _lv_obj_t * obj)
 319              		.loc 5 186 20 view .LVU80
 320              	.LBB43:
 187:Middlewares/lvgl/examples/widgets/slider/../../../src/core/lv_obj_pos.h **** {
 188:Middlewares/lvgl/examples/widgets/slider/../../../src/core/lv_obj_pos.h ****     lv_obj_align(obj, LV_ALIGN_CENTER, 0, 0);
 321              		.loc 5 188 5 view .LVU81
 322 0010 0023     		movs	r3, #0
 323 0012 1A46     		mov	r2, r3
 324 0014 0921     		movs	r1, #9
 325 0016 FFF7FEFF 		bl	lv_obj_align
 326              	.LVL28:
 327              		.loc 5 188 5 is_stmt 0 view .LVU82
 328              	.LBE43:
 329              	.LBE42:
  17:Middlewares/lvgl/examples/widgets/slider/lv_example_slider_3.c ****     lv_slider_set_value(slider, 70, LV_ANIM_OFF);
 330              		.loc 1 17 5 is_stmt 1 view .LVU83
 331              	.LBB44:
 332              	.LBI44:
 107:Middlewares/lvgl/examples/widgets/slider/../../../src/widgets/lv_slider.h **** {
 333              		.loc 2 107 20 view .LVU84
 334              	.LBB45:
 109:Middlewares/lvgl/examples/widgets/slider/../../../src/widgets/lv_slider.h **** }
 335              		.loc 2 109 5 view .LVU85
 336 001a 0221     		movs	r1, #2
 337 001c 2046     		mov	r0, r4
 338 001e FFF7FEFF 		bl	lv_bar_set_mode
 339              	.LVL29:
 109:Middlewares/lvgl/examples/widgets/slider/../../../src/widgets/lv_slider.h **** }
 340              		.loc 2 109 5 is_stmt 0 view .LVU86
 341              	.LBE45:
 342              	.LBE44:
  18:Middlewares/lvgl/examples/widgets/slider/lv_example_slider_3.c ****     lv_slider_set_left_value(slider, 20, LV_ANIM_OFF);
 343              		.loc 1 18 5 is_stmt 1 view .LVU87
 344              	.LBB46:
 345              	.LBI46:
  75:Middlewares/lvgl/examples/widgets/slider/../../../src/widgets/lv_slider.h **** {
 346              		.loc 2 75 20 view .LVU88
 347              	.LBB47:
  77:Middlewares/lvgl/examples/widgets/slider/../../../src/widgets/lv_slider.h **** }
 348              		.loc 2 77 5 view .LVU89
 349 0022 0022     		movs	r2, #0
 350 0024 4621     		movs	r1, #70
ARM GAS  /tmp/ccSoGIM8.s 			page 20


 351 0026 2046     		mov	r0, r4
 352 0028 FFF7FEFF 		bl	lv_bar_set_value
 353              	.LVL30:
  77:Middlewares/lvgl/examples/widgets/slider/../../../src/widgets/lv_slider.h **** }
 354              		.loc 2 77 5 is_stmt 0 view .LVU90
 355              	.LBE47:
 356              	.LBE46:
  19:Middlewares/lvgl/examples/widgets/slider/lv_example_slider_3.c **** 
 357              		.loc 1 19 5 is_stmt 1 view .LVU91
 358              	.LBB48:
 359              	.LBI48:
  86:Middlewares/lvgl/examples/widgets/slider/../../../src/widgets/lv_slider.h **** {
 360              		.loc 2 86 20 view .LVU92
 361              	.LBB49:
  88:Middlewares/lvgl/examples/widgets/slider/../../../src/widgets/lv_slider.h **** }
 362              		.loc 2 88 5 view .LVU93
 363 002c 0022     		movs	r2, #0
 364 002e 1421     		movs	r1, #20
 365 0030 2046     		mov	r0, r4
 366 0032 FFF7FEFF 		bl	lv_bar_set_start_value
 367              	.LVL31:
  88:Middlewares/lvgl/examples/widgets/slider/../../../src/widgets/lv_slider.h **** }
 368              		.loc 2 88 5 is_stmt 0 view .LVU94
 369              	.LBE49:
 370              	.LBE48:
  21:Middlewares/lvgl/examples/widgets/slider/lv_example_slider_3.c ****     lv_obj_refresh_ext_draw_size(slider);
 371              		.loc 1 21 5 is_stmt 1 view .LVU95
 372 0036 0023     		movs	r3, #0
 373 0038 1A46     		mov	r2, r3
 374 003a 0449     		ldr	r1, .L15
 375 003c 2046     		mov	r0, r4
 376 003e FFF7FEFF 		bl	lv_obj_add_event_cb
 377              	.LVL32:
  22:Middlewares/lvgl/examples/widgets/slider/lv_example_slider_3.c **** }
 378              		.loc 1 22 5 view .LVU96
 379 0042 2046     		mov	r0, r4
 380 0044 FFF7FEFF 		bl	lv_obj_refresh_ext_draw_size
 381              	.LVL33:
  23:Middlewares/lvgl/examples/widgets/slider/lv_example_slider_3.c **** 
 382              		.loc 1 23 1 is_stmt 0 view .LVU97
 383 0048 10BD     		pop	{r4, pc}
 384              	.LVL34:
 385              	.L16:
  23:Middlewares/lvgl/examples/widgets/slider/lv_example_slider_3.c **** 
 386              		.loc 1 23 1 view .LVU98
 387 004a 00BF     		.align	2
 388              	.L15:
 389 004c 00000000 		.word	slider_event_cb
 390              		.cfi_endproc
 391              	.LFE184:
 393              		.text
 394              	.Letext0:
 395              		.file 6 "/home/akinya/gcc-arm-none-eabi/arm-none-eabi/include/machine/_default_types.h"
 396              		.file 7 "/home/akinya/gcc-arm-none-eabi/arm-none-eabi/include/sys/_stdint.h"
 397              		.file 8 "Middlewares/lvgl/examples/widgets/slider/../../../src/misc/lv_ll.h"
 398              		.file 9 "Middlewares/lvgl/examples/widgets/slider/../../../src/hal/../misc/lv_color.h"
 399              		.file 10 "Middlewares/lvgl/examples/widgets/slider/../../../src/core/lv_obj.h"
ARM GAS  /tmp/ccSoGIM8.s 			page 21


 400              		.file 11 "Middlewares/lvgl/examples/widgets/slider/../../../src/core/lv_group.h"
 401              		.file 12 "Middlewares/lvgl/examples/widgets/slider/../../../src/core/../misc/../font/lv_font.h"
 402              		.file 13 "Middlewares/lvgl/examples/widgets/slider/../../../src/core/../misc/lv_anim.h"
 403              		.file 14 "Middlewares/lvgl/examples/widgets/slider/../../../src/core/../misc/lv_txt.h"
 404              		.file 15 "Middlewares/lvgl/examples/widgets/slider/../../../src/core/../misc/lv_bidi.h"
 405              		.file 16 "Middlewares/lvgl/examples/widgets/slider/../../../src/core/../misc/lv_style.h"
 406              		.file 17 "Middlewares/lvgl/examples/widgets/slider/../../../src/core/lv_obj_scroll.h"
 407              		.file 18 "Middlewares/lvgl/examples/widgets/slider/../../../src/core/lv_obj_style.h"
 408              		.file 19 "Middlewares/lvgl/examples/widgets/slider/../../../src/core/../draw/lv_draw_rect.h"
 409              		.file 20 "Middlewares/lvgl/examples/widgets/slider/../../../src/core/../draw/lv_draw_label.h"
 410              		.file 21 "Middlewares/lvgl/examples/widgets/slider/../../../src/core/../draw/lv_draw_img.h"
 411              		.file 22 "Middlewares/lvgl/examples/widgets/slider/../../../src/core/../draw/lv_draw_line.h"
 412              		.file 23 "Middlewares/lvgl/examples/widgets/slider/../../../src/core/../draw/lv_draw_arc.h"
 413              		.file 24 "Middlewares/lvgl/examples/widgets/slider/../../../src/core/lv_obj_draw.h"
 414              		.file 25 "Middlewares/lvgl/examples/widgets/slider/../../../src/core/lv_obj_class.h"
 415              		.file 26 "Middlewares/lvgl/examples/widgets/slider/../../../src/core/lv_event.h"
 416              		.file 27 "Middlewares/lvgl/examples/widgets/slider/../../../src/widgets/lv_bar.h"
 417              		.file 28 "Middlewares/lvgl/examples/widgets/slider/../../../src/core/../misc/lv_printf.h"
 418              		.file 29 "Middlewares/lvgl/examples/widgets/slider/../../../src/hal/lv_hal_disp.h"
ARM GAS  /tmp/ccSoGIM8.s 			page 22

