ARM GAS  /tmp/cc8ecAmv.s 			page 1


   1              		.cpu cortex-m7
   2              		.eabi_attribute 28, 1
   3              		.eabi_attribute 20, 1
   4              		.eabi_attribute 21, 1
   5              		.eabi_attribute 23, 3
   6              		.eabi_attribute 24, 1
   7              		.eabi_attribute 25, 1
   8              		.eabi_attribute 26, 1
   9              		.eabi_attribute 30, 1
  10              		.eabi_attribute 34, 1
  11              		.eabi_attribute 18, 4
  12              		.file	"lv_font_fmt_txt.c"
  13              		.text
  14              	.Ltext0:
  15              		.cfi_sections	.debug_frame
  16              		.section	.text.kern_pair_8_compare,"ax",%progbits
  17              		.align	1
  18              		.arch armv7e-m
  19              		.syntax unified
  20              		.thumb
  21              		.thumb_func
  22              		.fpu fpv5-d16
  24              	kern_pair_8_compare:
  25              	.LVL0:
  26              	.LFB30:
  27              		.file 1 "Middlewares/lvgl/src/font/lv_font_fmt_txt.c"
   1:Middlewares/lvgl/src/font/lv_font_fmt_txt.c **** /**
   2:Middlewares/lvgl/src/font/lv_font_fmt_txt.c ****  * @file lv_font_fmt_txt.c
   3:Middlewares/lvgl/src/font/lv_font_fmt_txt.c ****  *
   4:Middlewares/lvgl/src/font/lv_font_fmt_txt.c ****  */
   5:Middlewares/lvgl/src/font/lv_font_fmt_txt.c **** 
   6:Middlewares/lvgl/src/font/lv_font_fmt_txt.c **** /*********************
   7:Middlewares/lvgl/src/font/lv_font_fmt_txt.c ****  *      INCLUDES
   8:Middlewares/lvgl/src/font/lv_font_fmt_txt.c ****  *********************/
   9:Middlewares/lvgl/src/font/lv_font_fmt_txt.c **** #include "lv_font.h"
  10:Middlewares/lvgl/src/font/lv_font_fmt_txt.c **** #include "lv_font_fmt_txt.h"
  11:Middlewares/lvgl/src/font/lv_font_fmt_txt.c **** #include "../misc/lv_assert.h"
  12:Middlewares/lvgl/src/font/lv_font_fmt_txt.c **** #include "../misc/lv_types.h"
  13:Middlewares/lvgl/src/font/lv_font_fmt_txt.c **** #include "../misc/lv_gc.h"
  14:Middlewares/lvgl/src/font/lv_font_fmt_txt.c **** #include "../misc/lv_log.h"
  15:Middlewares/lvgl/src/font/lv_font_fmt_txt.c **** #include "../misc/lv_utils.h"
  16:Middlewares/lvgl/src/font/lv_font_fmt_txt.c **** #include "../misc/lv_mem.h"
  17:Middlewares/lvgl/src/font/lv_font_fmt_txt.c **** 
  18:Middlewares/lvgl/src/font/lv_font_fmt_txt.c **** /*********************
  19:Middlewares/lvgl/src/font/lv_font_fmt_txt.c ****  *      DEFINES
  20:Middlewares/lvgl/src/font/lv_font_fmt_txt.c ****  *********************/
  21:Middlewares/lvgl/src/font/lv_font_fmt_txt.c **** 
  22:Middlewares/lvgl/src/font/lv_font_fmt_txt.c **** /**********************
  23:Middlewares/lvgl/src/font/lv_font_fmt_txt.c ****  *      TYPEDEFS
  24:Middlewares/lvgl/src/font/lv_font_fmt_txt.c ****  **********************/
  25:Middlewares/lvgl/src/font/lv_font_fmt_txt.c **** typedef enum {
  26:Middlewares/lvgl/src/font/lv_font_fmt_txt.c ****     RLE_STATE_SINGLE = 0,
  27:Middlewares/lvgl/src/font/lv_font_fmt_txt.c ****     RLE_STATE_REPEATE,
  28:Middlewares/lvgl/src/font/lv_font_fmt_txt.c ****     RLE_STATE_COUNTER,
  29:Middlewares/lvgl/src/font/lv_font_fmt_txt.c **** } rle_state_t;
  30:Middlewares/lvgl/src/font/lv_font_fmt_txt.c **** 
  31:Middlewares/lvgl/src/font/lv_font_fmt_txt.c **** /**********************
ARM GAS  /tmp/cc8ecAmv.s 			page 2


  32:Middlewares/lvgl/src/font/lv_font_fmt_txt.c ****  *  STATIC PROTOTYPES
  33:Middlewares/lvgl/src/font/lv_font_fmt_txt.c ****  **********************/
  34:Middlewares/lvgl/src/font/lv_font_fmt_txt.c **** static uint32_t get_glyph_dsc_id(const lv_font_t * font, uint32_t letter);
  35:Middlewares/lvgl/src/font/lv_font_fmt_txt.c **** static int8_t get_kern_value(const lv_font_t * font, uint32_t gid_left, uint32_t gid_right);
  36:Middlewares/lvgl/src/font/lv_font_fmt_txt.c **** static int32_t unicode_list_compare(const void * ref, const void * element);
  37:Middlewares/lvgl/src/font/lv_font_fmt_txt.c **** static int32_t kern_pair_8_compare(const void * ref, const void * element);
  38:Middlewares/lvgl/src/font/lv_font_fmt_txt.c **** static int32_t kern_pair_16_compare(const void * ref, const void * element);
  39:Middlewares/lvgl/src/font/lv_font_fmt_txt.c **** 
  40:Middlewares/lvgl/src/font/lv_font_fmt_txt.c **** #if LV_USE_FONT_COMPRESSED
  41:Middlewares/lvgl/src/font/lv_font_fmt_txt.c ****     static void decompress(const uint8_t * in, uint8_t * out, lv_coord_t w, lv_coord_t h, uint8_t b
  42:Middlewares/lvgl/src/font/lv_font_fmt_txt.c ****     static inline void decompress_line(uint8_t * out, lv_coord_t w);
  43:Middlewares/lvgl/src/font/lv_font_fmt_txt.c ****     static inline uint8_t get_bits(const uint8_t * in, uint32_t bit_pos, uint8_t len);
  44:Middlewares/lvgl/src/font/lv_font_fmt_txt.c ****     static inline void bits_write(uint8_t * out, uint32_t bit_pos, uint8_t val, uint8_t len);
  45:Middlewares/lvgl/src/font/lv_font_fmt_txt.c ****     static inline void rle_init(const uint8_t * in,  uint8_t bpp);
  46:Middlewares/lvgl/src/font/lv_font_fmt_txt.c ****     static inline uint8_t rle_next(void);
  47:Middlewares/lvgl/src/font/lv_font_fmt_txt.c **** #endif /*LV_USE_FONT_COMPRESSED*/
  48:Middlewares/lvgl/src/font/lv_font_fmt_txt.c **** 
  49:Middlewares/lvgl/src/font/lv_font_fmt_txt.c **** /**********************
  50:Middlewares/lvgl/src/font/lv_font_fmt_txt.c ****  *  STATIC VARIABLES
  51:Middlewares/lvgl/src/font/lv_font_fmt_txt.c ****  **********************/
  52:Middlewares/lvgl/src/font/lv_font_fmt_txt.c **** #if LV_USE_FONT_COMPRESSED
  53:Middlewares/lvgl/src/font/lv_font_fmt_txt.c ****     static uint32_t rle_rdp;
  54:Middlewares/lvgl/src/font/lv_font_fmt_txt.c ****     static const uint8_t * rle_in;
  55:Middlewares/lvgl/src/font/lv_font_fmt_txt.c ****     static uint8_t rle_bpp;
  56:Middlewares/lvgl/src/font/lv_font_fmt_txt.c ****     static uint8_t rle_prev_v;
  57:Middlewares/lvgl/src/font/lv_font_fmt_txt.c ****     static uint8_t rle_cnt;
  58:Middlewares/lvgl/src/font/lv_font_fmt_txt.c ****     static rle_state_t rle_state;
  59:Middlewares/lvgl/src/font/lv_font_fmt_txt.c **** #endif /*LV_USE_FONT_COMPRESSED*/
  60:Middlewares/lvgl/src/font/lv_font_fmt_txt.c **** 
  61:Middlewares/lvgl/src/font/lv_font_fmt_txt.c **** /**********************
  62:Middlewares/lvgl/src/font/lv_font_fmt_txt.c ****  * GLOBAL PROTOTYPES
  63:Middlewares/lvgl/src/font/lv_font_fmt_txt.c ****  **********************/
  64:Middlewares/lvgl/src/font/lv_font_fmt_txt.c **** 
  65:Middlewares/lvgl/src/font/lv_font_fmt_txt.c **** /**********************
  66:Middlewares/lvgl/src/font/lv_font_fmt_txt.c ****  *      MACROS
  67:Middlewares/lvgl/src/font/lv_font_fmt_txt.c ****  **********************/
  68:Middlewares/lvgl/src/font/lv_font_fmt_txt.c **** 
  69:Middlewares/lvgl/src/font/lv_font_fmt_txt.c **** /**********************
  70:Middlewares/lvgl/src/font/lv_font_fmt_txt.c ****  *   GLOBAL FUNCTIONS
  71:Middlewares/lvgl/src/font/lv_font_fmt_txt.c ****  **********************/
  72:Middlewares/lvgl/src/font/lv_font_fmt_txt.c **** 
  73:Middlewares/lvgl/src/font/lv_font_fmt_txt.c **** /**
  74:Middlewares/lvgl/src/font/lv_font_fmt_txt.c ****  * Used as `get_glyph_bitmap` callback in LittelvGL's native font format if the font is uncompresse
  75:Middlewares/lvgl/src/font/lv_font_fmt_txt.c ****  * @param font pointer to font
  76:Middlewares/lvgl/src/font/lv_font_fmt_txt.c ****  * @param unicode_letter an unicode letter which bitmap should be get
  77:Middlewares/lvgl/src/font/lv_font_fmt_txt.c ****  * @return pointer to the bitmap or NULL if not found
  78:Middlewares/lvgl/src/font/lv_font_fmt_txt.c ****  */
  79:Middlewares/lvgl/src/font/lv_font_fmt_txt.c **** const uint8_t * lv_font_get_bitmap_fmt_txt(const lv_font_t * font, uint32_t unicode_letter)
  80:Middlewares/lvgl/src/font/lv_font_fmt_txt.c **** {
  81:Middlewares/lvgl/src/font/lv_font_fmt_txt.c ****     if(unicode_letter == '\t') unicode_letter = ' ';
  82:Middlewares/lvgl/src/font/lv_font_fmt_txt.c **** 
  83:Middlewares/lvgl/src/font/lv_font_fmt_txt.c ****     lv_font_fmt_txt_dsc_t * fdsc = (lv_font_fmt_txt_dsc_t *)font->dsc;
  84:Middlewares/lvgl/src/font/lv_font_fmt_txt.c ****     uint32_t gid = get_glyph_dsc_id(font, unicode_letter);
  85:Middlewares/lvgl/src/font/lv_font_fmt_txt.c ****     if(!gid) return NULL;
  86:Middlewares/lvgl/src/font/lv_font_fmt_txt.c **** 
  87:Middlewares/lvgl/src/font/lv_font_fmt_txt.c ****     const lv_font_fmt_txt_glyph_dsc_t * gdsc = &fdsc->glyph_dsc[gid];
  88:Middlewares/lvgl/src/font/lv_font_fmt_txt.c **** 
ARM GAS  /tmp/cc8ecAmv.s 			page 3


  89:Middlewares/lvgl/src/font/lv_font_fmt_txt.c ****     if(fdsc->bitmap_format == LV_FONT_FMT_TXT_PLAIN) {
  90:Middlewares/lvgl/src/font/lv_font_fmt_txt.c ****         return &fdsc->glyph_bitmap[gdsc->bitmap_index];
  91:Middlewares/lvgl/src/font/lv_font_fmt_txt.c ****     }
  92:Middlewares/lvgl/src/font/lv_font_fmt_txt.c ****     /*Handle compressed bitmap*/
  93:Middlewares/lvgl/src/font/lv_font_fmt_txt.c ****     else {
  94:Middlewares/lvgl/src/font/lv_font_fmt_txt.c **** #if LV_USE_FONT_COMPRESSED
  95:Middlewares/lvgl/src/font/lv_font_fmt_txt.c ****         static size_t last_buf_size = 0;
  96:Middlewares/lvgl/src/font/lv_font_fmt_txt.c ****         if(LV_GC_ROOT(_lv_font_decompr_buf) == NULL) last_buf_size = 0;
  97:Middlewares/lvgl/src/font/lv_font_fmt_txt.c **** 
  98:Middlewares/lvgl/src/font/lv_font_fmt_txt.c ****         uint32_t gsize = gdsc->box_w * gdsc->box_h;
  99:Middlewares/lvgl/src/font/lv_font_fmt_txt.c ****         if(gsize == 0) return NULL;
 100:Middlewares/lvgl/src/font/lv_font_fmt_txt.c **** 
 101:Middlewares/lvgl/src/font/lv_font_fmt_txt.c ****         uint32_t buf_size = gsize;
 102:Middlewares/lvgl/src/font/lv_font_fmt_txt.c ****         /*Compute memory size needed to hold decompressed glyph, rounding up*/
 103:Middlewares/lvgl/src/font/lv_font_fmt_txt.c ****         switch(fdsc->bpp) {
 104:Middlewares/lvgl/src/font/lv_font_fmt_txt.c ****             case 1:
 105:Middlewares/lvgl/src/font/lv_font_fmt_txt.c ****                 buf_size = (gsize + 7) >> 3;
 106:Middlewares/lvgl/src/font/lv_font_fmt_txt.c ****                 break;
 107:Middlewares/lvgl/src/font/lv_font_fmt_txt.c ****             case 2:
 108:Middlewares/lvgl/src/font/lv_font_fmt_txt.c ****                 buf_size = (gsize + 3) >> 2;
 109:Middlewares/lvgl/src/font/lv_font_fmt_txt.c ****                 break;
 110:Middlewares/lvgl/src/font/lv_font_fmt_txt.c ****             case 3:
 111:Middlewares/lvgl/src/font/lv_font_fmt_txt.c ****                 buf_size = (gsize + 1) >> 1;
 112:Middlewares/lvgl/src/font/lv_font_fmt_txt.c ****                 break;
 113:Middlewares/lvgl/src/font/lv_font_fmt_txt.c ****             case 4:
 114:Middlewares/lvgl/src/font/lv_font_fmt_txt.c ****                 buf_size = (gsize + 1) >> 1;
 115:Middlewares/lvgl/src/font/lv_font_fmt_txt.c ****                 break;
 116:Middlewares/lvgl/src/font/lv_font_fmt_txt.c ****         }
 117:Middlewares/lvgl/src/font/lv_font_fmt_txt.c **** 
 118:Middlewares/lvgl/src/font/lv_font_fmt_txt.c ****         if(last_buf_size < buf_size) {
 119:Middlewares/lvgl/src/font/lv_font_fmt_txt.c ****             uint8_t * tmp = lv_mem_realloc(LV_GC_ROOT(_lv_font_decompr_buf), buf_size);
 120:Middlewares/lvgl/src/font/lv_font_fmt_txt.c ****             LV_ASSERT_MALLOC(tmp);
 121:Middlewares/lvgl/src/font/lv_font_fmt_txt.c ****             if(tmp == NULL) return NULL;
 122:Middlewares/lvgl/src/font/lv_font_fmt_txt.c ****             LV_GC_ROOT(_lv_font_decompr_buf) = tmp;
 123:Middlewares/lvgl/src/font/lv_font_fmt_txt.c ****             last_buf_size = buf_size;
 124:Middlewares/lvgl/src/font/lv_font_fmt_txt.c ****         }
 125:Middlewares/lvgl/src/font/lv_font_fmt_txt.c **** 
 126:Middlewares/lvgl/src/font/lv_font_fmt_txt.c ****         bool prefilter = fdsc->bitmap_format == LV_FONT_FMT_TXT_COMPRESSED ? true : false;
 127:Middlewares/lvgl/src/font/lv_font_fmt_txt.c ****         decompress(&fdsc->glyph_bitmap[gdsc->bitmap_index], LV_GC_ROOT(_lv_font_decompr_buf), gdsc-
 128:Middlewares/lvgl/src/font/lv_font_fmt_txt.c ****                    (uint8_t)fdsc->bpp, prefilter);
 129:Middlewares/lvgl/src/font/lv_font_fmt_txt.c ****         return LV_GC_ROOT(_lv_font_decompr_buf);
 130:Middlewares/lvgl/src/font/lv_font_fmt_txt.c **** #else /*!LV_USE_FONT_COMPRESSED*/
 131:Middlewares/lvgl/src/font/lv_font_fmt_txt.c **** //        LV_LOG_WARN("Compressed fonts is used but LV_USE_FONT_COMPRESSED is not enabled in lv_con
 132:Middlewares/lvgl/src/font/lv_font_fmt_txt.c ****         return NULL;
 133:Middlewares/lvgl/src/font/lv_font_fmt_txt.c **** #endif
 134:Middlewares/lvgl/src/font/lv_font_fmt_txt.c ****     }
 135:Middlewares/lvgl/src/font/lv_font_fmt_txt.c **** 
 136:Middlewares/lvgl/src/font/lv_font_fmt_txt.c ****     /*If not returned earlier then the letter is not found in this font*/
 137:Middlewares/lvgl/src/font/lv_font_fmt_txt.c ****     return NULL;
 138:Middlewares/lvgl/src/font/lv_font_fmt_txt.c **** }
 139:Middlewares/lvgl/src/font/lv_font_fmt_txt.c **** 
 140:Middlewares/lvgl/src/font/lv_font_fmt_txt.c **** /**
 141:Middlewares/lvgl/src/font/lv_font_fmt_txt.c ****  * Used as `get_glyph_dsc` callback in LittelvGL's native font format if the font is uncompressed.
 142:Middlewares/lvgl/src/font/lv_font_fmt_txt.c ****  * @param font_p pointer to font
 143:Middlewares/lvgl/src/font/lv_font_fmt_txt.c ****  * @param dsc_out store the result descriptor here
 144:Middlewares/lvgl/src/font/lv_font_fmt_txt.c ****  * @param letter an UNICODE letter code
 145:Middlewares/lvgl/src/font/lv_font_fmt_txt.c ****  * @return true: descriptor is successfully loaded into `dsc_out`.
ARM GAS  /tmp/cc8ecAmv.s 			page 4


 146:Middlewares/lvgl/src/font/lv_font_fmt_txt.c ****  *         false: the letter was not found, no data is loaded to `dsc_out`
 147:Middlewares/lvgl/src/font/lv_font_fmt_txt.c ****  */
 148:Middlewares/lvgl/src/font/lv_font_fmt_txt.c **** bool lv_font_get_glyph_dsc_fmt_txt(const lv_font_t * font, lv_font_glyph_dsc_t * dsc_out, uint32_t 
 149:Middlewares/lvgl/src/font/lv_font_fmt_txt.c ****                                    uint32_t unicode_letter_next)
 150:Middlewares/lvgl/src/font/lv_font_fmt_txt.c **** {
 151:Middlewares/lvgl/src/font/lv_font_fmt_txt.c ****     bool is_tab = false;
 152:Middlewares/lvgl/src/font/lv_font_fmt_txt.c ****     if(unicode_letter == '\t') {
 153:Middlewares/lvgl/src/font/lv_font_fmt_txt.c ****         unicode_letter = ' ';
 154:Middlewares/lvgl/src/font/lv_font_fmt_txt.c ****         is_tab = true;
 155:Middlewares/lvgl/src/font/lv_font_fmt_txt.c ****     }
 156:Middlewares/lvgl/src/font/lv_font_fmt_txt.c ****     lv_font_fmt_txt_dsc_t * fdsc = (lv_font_fmt_txt_dsc_t *)font->dsc;
 157:Middlewares/lvgl/src/font/lv_font_fmt_txt.c ****     uint32_t gid = get_glyph_dsc_id(font, unicode_letter);
 158:Middlewares/lvgl/src/font/lv_font_fmt_txt.c ****     if(!gid) return false;
 159:Middlewares/lvgl/src/font/lv_font_fmt_txt.c **** 
 160:Middlewares/lvgl/src/font/lv_font_fmt_txt.c ****     int8_t kvalue = 0;
 161:Middlewares/lvgl/src/font/lv_font_fmt_txt.c ****     if(fdsc->kern_dsc) {
 162:Middlewares/lvgl/src/font/lv_font_fmt_txt.c ****         uint32_t gid_next = get_glyph_dsc_id(font, unicode_letter_next);
 163:Middlewares/lvgl/src/font/lv_font_fmt_txt.c ****         if(gid_next) {
 164:Middlewares/lvgl/src/font/lv_font_fmt_txt.c ****             kvalue = get_kern_value(font, gid, gid_next);
 165:Middlewares/lvgl/src/font/lv_font_fmt_txt.c ****         }
 166:Middlewares/lvgl/src/font/lv_font_fmt_txt.c ****     }
 167:Middlewares/lvgl/src/font/lv_font_fmt_txt.c **** 
 168:Middlewares/lvgl/src/font/lv_font_fmt_txt.c ****     /*Put together a glyph dsc*/
 169:Middlewares/lvgl/src/font/lv_font_fmt_txt.c ****     const lv_font_fmt_txt_glyph_dsc_t * gdsc = &fdsc->glyph_dsc[gid];
 170:Middlewares/lvgl/src/font/lv_font_fmt_txt.c **** 
 171:Middlewares/lvgl/src/font/lv_font_fmt_txt.c ****     int32_t kv = ((int32_t)((int32_t)kvalue * fdsc->kern_scale) >> 4);
 172:Middlewares/lvgl/src/font/lv_font_fmt_txt.c **** 
 173:Middlewares/lvgl/src/font/lv_font_fmt_txt.c ****     uint32_t adv_w = gdsc->adv_w;
 174:Middlewares/lvgl/src/font/lv_font_fmt_txt.c ****     if(is_tab) adv_w *= 2;
 175:Middlewares/lvgl/src/font/lv_font_fmt_txt.c **** 
 176:Middlewares/lvgl/src/font/lv_font_fmt_txt.c ****     adv_w += kv;
 177:Middlewares/lvgl/src/font/lv_font_fmt_txt.c ****     adv_w  = (adv_w + (1 << 3)) >> 4;
 178:Middlewares/lvgl/src/font/lv_font_fmt_txt.c **** 
 179:Middlewares/lvgl/src/font/lv_font_fmt_txt.c ****     dsc_out->adv_w = adv_w;
 180:Middlewares/lvgl/src/font/lv_font_fmt_txt.c ****     dsc_out->box_h = gdsc->box_h;
 181:Middlewares/lvgl/src/font/lv_font_fmt_txt.c ****     dsc_out->box_w = gdsc->box_w;
 182:Middlewares/lvgl/src/font/lv_font_fmt_txt.c ****     dsc_out->ofs_x = gdsc->ofs_x;
 183:Middlewares/lvgl/src/font/lv_font_fmt_txt.c ****     dsc_out->ofs_y = gdsc->ofs_y;
 184:Middlewares/lvgl/src/font/lv_font_fmt_txt.c ****     dsc_out->bpp   = (uint8_t)fdsc->bpp;
 185:Middlewares/lvgl/src/font/lv_font_fmt_txt.c **** 
 186:Middlewares/lvgl/src/font/lv_font_fmt_txt.c ****     if(is_tab) dsc_out->box_w = dsc_out->box_w * 2;
 187:Middlewares/lvgl/src/font/lv_font_fmt_txt.c **** 
 188:Middlewares/lvgl/src/font/lv_font_fmt_txt.c ****     return true;
 189:Middlewares/lvgl/src/font/lv_font_fmt_txt.c **** }
 190:Middlewares/lvgl/src/font/lv_font_fmt_txt.c **** 
 191:Middlewares/lvgl/src/font/lv_font_fmt_txt.c **** /**
 192:Middlewares/lvgl/src/font/lv_font_fmt_txt.c ****  * Free the allocated memories.
 193:Middlewares/lvgl/src/font/lv_font_fmt_txt.c ****  */
 194:Middlewares/lvgl/src/font/lv_font_fmt_txt.c **** void _lv_font_clean_up_fmt_txt(void)
 195:Middlewares/lvgl/src/font/lv_font_fmt_txt.c **** {
 196:Middlewares/lvgl/src/font/lv_font_fmt_txt.c **** #if LV_USE_FONT_COMPRESSED
 197:Middlewares/lvgl/src/font/lv_font_fmt_txt.c ****     if(LV_GC_ROOT(_lv_font_decompr_buf)) {
 198:Middlewares/lvgl/src/font/lv_font_fmt_txt.c ****         lv_mem_free(LV_GC_ROOT(_lv_font_decompr_buf));
 199:Middlewares/lvgl/src/font/lv_font_fmt_txt.c ****         LV_GC_ROOT(_lv_font_decompr_buf) = NULL;
 200:Middlewares/lvgl/src/font/lv_font_fmt_txt.c ****     }
 201:Middlewares/lvgl/src/font/lv_font_fmt_txt.c **** #endif
 202:Middlewares/lvgl/src/font/lv_font_fmt_txt.c **** }
ARM GAS  /tmp/cc8ecAmv.s 			page 5


 203:Middlewares/lvgl/src/font/lv_font_fmt_txt.c **** 
 204:Middlewares/lvgl/src/font/lv_font_fmt_txt.c **** /**********************
 205:Middlewares/lvgl/src/font/lv_font_fmt_txt.c ****  *   STATIC FUNCTIONS
 206:Middlewares/lvgl/src/font/lv_font_fmt_txt.c ****  **********************/
 207:Middlewares/lvgl/src/font/lv_font_fmt_txt.c **** 
 208:Middlewares/lvgl/src/font/lv_font_fmt_txt.c **** static uint32_t get_glyph_dsc_id(const lv_font_t * font, uint32_t letter)
 209:Middlewares/lvgl/src/font/lv_font_fmt_txt.c **** {
 210:Middlewares/lvgl/src/font/lv_font_fmt_txt.c ****     if(letter == '\0') return 0;
 211:Middlewares/lvgl/src/font/lv_font_fmt_txt.c **** 
 212:Middlewares/lvgl/src/font/lv_font_fmt_txt.c ****     lv_font_fmt_txt_dsc_t * fdsc = (lv_font_fmt_txt_dsc_t *)font->dsc;
 213:Middlewares/lvgl/src/font/lv_font_fmt_txt.c **** 
 214:Middlewares/lvgl/src/font/lv_font_fmt_txt.c ****     /*Check the cache first*/
 215:Middlewares/lvgl/src/font/lv_font_fmt_txt.c ****     if(fdsc->cache && letter == fdsc->cache->last_letter) return fdsc->cache->last_glyph_id;
 216:Middlewares/lvgl/src/font/lv_font_fmt_txt.c **** 
 217:Middlewares/lvgl/src/font/lv_font_fmt_txt.c ****     uint16_t i;
 218:Middlewares/lvgl/src/font/lv_font_fmt_txt.c ****     for(i = 0; i < fdsc->cmap_num; i++) {
 219:Middlewares/lvgl/src/font/lv_font_fmt_txt.c **** 
 220:Middlewares/lvgl/src/font/lv_font_fmt_txt.c ****         /*Relative code point*/
 221:Middlewares/lvgl/src/font/lv_font_fmt_txt.c ****         uint32_t rcp = letter - fdsc->cmaps[i].range_start;
 222:Middlewares/lvgl/src/font/lv_font_fmt_txt.c ****         if(rcp > fdsc->cmaps[i].range_length) continue;
 223:Middlewares/lvgl/src/font/lv_font_fmt_txt.c ****         uint32_t glyph_id = 0;
 224:Middlewares/lvgl/src/font/lv_font_fmt_txt.c ****         if(fdsc->cmaps[i].type == LV_FONT_FMT_TXT_CMAP_FORMAT0_TINY) {
 225:Middlewares/lvgl/src/font/lv_font_fmt_txt.c ****             glyph_id = fdsc->cmaps[i].glyph_id_start + rcp;
 226:Middlewares/lvgl/src/font/lv_font_fmt_txt.c ****         }
 227:Middlewares/lvgl/src/font/lv_font_fmt_txt.c ****         else if(fdsc->cmaps[i].type == LV_FONT_FMT_TXT_CMAP_FORMAT0_FULL) {
 228:Middlewares/lvgl/src/font/lv_font_fmt_txt.c ****             const uint8_t * gid_ofs_8 = fdsc->cmaps[i].glyph_id_ofs_list;
 229:Middlewares/lvgl/src/font/lv_font_fmt_txt.c ****             glyph_id = fdsc->cmaps[i].glyph_id_start + gid_ofs_8[rcp];
 230:Middlewares/lvgl/src/font/lv_font_fmt_txt.c ****         }
 231:Middlewares/lvgl/src/font/lv_font_fmt_txt.c ****         else if(fdsc->cmaps[i].type == LV_FONT_FMT_TXT_CMAP_SPARSE_TINY) {
 232:Middlewares/lvgl/src/font/lv_font_fmt_txt.c ****             uint16_t key = rcp;
 233:Middlewares/lvgl/src/font/lv_font_fmt_txt.c ****             uint16_t * p = _lv_utils_bsearch(&key, fdsc->cmaps[i].unicode_list, fdsc->cmaps[i].list
 234:Middlewares/lvgl/src/font/lv_font_fmt_txt.c ****                                              sizeof(fdsc->cmaps[i].unicode_list[0]), unicode_list_c
 235:Middlewares/lvgl/src/font/lv_font_fmt_txt.c **** 
 236:Middlewares/lvgl/src/font/lv_font_fmt_txt.c ****             if(p) {
 237:Middlewares/lvgl/src/font/lv_font_fmt_txt.c ****                 lv_uintptr_t ofs = p - fdsc->cmaps[i].unicode_list;
 238:Middlewares/lvgl/src/font/lv_font_fmt_txt.c ****                 glyph_id = fdsc->cmaps[i].glyph_id_start + ofs;
 239:Middlewares/lvgl/src/font/lv_font_fmt_txt.c ****             }
 240:Middlewares/lvgl/src/font/lv_font_fmt_txt.c ****         }
 241:Middlewares/lvgl/src/font/lv_font_fmt_txt.c ****         else if(fdsc->cmaps[i].type == LV_FONT_FMT_TXT_CMAP_SPARSE_FULL) {
 242:Middlewares/lvgl/src/font/lv_font_fmt_txt.c ****             uint16_t key = rcp;
 243:Middlewares/lvgl/src/font/lv_font_fmt_txt.c ****             uint16_t * p = _lv_utils_bsearch(&key, fdsc->cmaps[i].unicode_list, fdsc->cmaps[i].list
 244:Middlewares/lvgl/src/font/lv_font_fmt_txt.c ****                                              sizeof(fdsc->cmaps[i].unicode_list[0]), unicode_list_c
 245:Middlewares/lvgl/src/font/lv_font_fmt_txt.c **** 
 246:Middlewares/lvgl/src/font/lv_font_fmt_txt.c ****             if(p) {
 247:Middlewares/lvgl/src/font/lv_font_fmt_txt.c ****                 lv_uintptr_t ofs = p - fdsc->cmaps[i].unicode_list;
 248:Middlewares/lvgl/src/font/lv_font_fmt_txt.c ****                 const uint16_t * gid_ofs_16 = fdsc->cmaps[i].glyph_id_ofs_list;
 249:Middlewares/lvgl/src/font/lv_font_fmt_txt.c ****                 glyph_id = fdsc->cmaps[i].glyph_id_start + gid_ofs_16[ofs];
 250:Middlewares/lvgl/src/font/lv_font_fmt_txt.c ****             }
 251:Middlewares/lvgl/src/font/lv_font_fmt_txt.c ****         }
 252:Middlewares/lvgl/src/font/lv_font_fmt_txt.c **** 
 253:Middlewares/lvgl/src/font/lv_font_fmt_txt.c ****         /*Update the cache*/
 254:Middlewares/lvgl/src/font/lv_font_fmt_txt.c ****         if(fdsc->cache) {
 255:Middlewares/lvgl/src/font/lv_font_fmt_txt.c ****             fdsc->cache->last_letter = letter;
 256:Middlewares/lvgl/src/font/lv_font_fmt_txt.c ****             fdsc->cache->last_glyph_id = glyph_id;
 257:Middlewares/lvgl/src/font/lv_font_fmt_txt.c ****         }
 258:Middlewares/lvgl/src/font/lv_font_fmt_txt.c ****         return glyph_id;
 259:Middlewares/lvgl/src/font/lv_font_fmt_txt.c ****     }
ARM GAS  /tmp/cc8ecAmv.s 			page 6


 260:Middlewares/lvgl/src/font/lv_font_fmt_txt.c **** 
 261:Middlewares/lvgl/src/font/lv_font_fmt_txt.c ****     if(fdsc->cache) {
 262:Middlewares/lvgl/src/font/lv_font_fmt_txt.c ****         fdsc->cache->last_letter = letter;
 263:Middlewares/lvgl/src/font/lv_font_fmt_txt.c ****         fdsc->cache->last_glyph_id = 0;
 264:Middlewares/lvgl/src/font/lv_font_fmt_txt.c ****     }
 265:Middlewares/lvgl/src/font/lv_font_fmt_txt.c ****     return 0;
 266:Middlewares/lvgl/src/font/lv_font_fmt_txt.c **** 
 267:Middlewares/lvgl/src/font/lv_font_fmt_txt.c **** }
 268:Middlewares/lvgl/src/font/lv_font_fmt_txt.c **** 
 269:Middlewares/lvgl/src/font/lv_font_fmt_txt.c **** static int8_t get_kern_value(const lv_font_t * font, uint32_t gid_left, uint32_t gid_right)
 270:Middlewares/lvgl/src/font/lv_font_fmt_txt.c **** {
 271:Middlewares/lvgl/src/font/lv_font_fmt_txt.c ****     lv_font_fmt_txt_dsc_t * fdsc = (lv_font_fmt_txt_dsc_t *)font->dsc;
 272:Middlewares/lvgl/src/font/lv_font_fmt_txt.c **** 
 273:Middlewares/lvgl/src/font/lv_font_fmt_txt.c ****     int8_t value = 0;
 274:Middlewares/lvgl/src/font/lv_font_fmt_txt.c **** 
 275:Middlewares/lvgl/src/font/lv_font_fmt_txt.c ****     if(fdsc->kern_classes == 0) {
 276:Middlewares/lvgl/src/font/lv_font_fmt_txt.c ****         /*Kern pairs*/
 277:Middlewares/lvgl/src/font/lv_font_fmt_txt.c ****         const lv_font_fmt_txt_kern_pair_t * kdsc = fdsc->kern_dsc;
 278:Middlewares/lvgl/src/font/lv_font_fmt_txt.c ****         if(kdsc->glyph_ids_size == 0) {
 279:Middlewares/lvgl/src/font/lv_font_fmt_txt.c ****             /*Use binary search to find the kern value.
 280:Middlewares/lvgl/src/font/lv_font_fmt_txt.c ****              *The pairs are ordered left_id first, then right_id secondly.*/
 281:Middlewares/lvgl/src/font/lv_font_fmt_txt.c ****             const uint16_t * g_ids = kdsc->glyph_ids;
 282:Middlewares/lvgl/src/font/lv_font_fmt_txt.c ****             uint16_t g_id_both = (gid_right << 8) + gid_left; /*Create one number from the ids*/
 283:Middlewares/lvgl/src/font/lv_font_fmt_txt.c ****             uint16_t * kid_p = _lv_utils_bsearch(&g_id_both, g_ids, kdsc->pair_cnt, 2, kern_pair_8_
 284:Middlewares/lvgl/src/font/lv_font_fmt_txt.c **** 
 285:Middlewares/lvgl/src/font/lv_font_fmt_txt.c ****             /*If the `g_id_both` were found get its index from the pointer*/
 286:Middlewares/lvgl/src/font/lv_font_fmt_txt.c ****             if(kid_p) {
 287:Middlewares/lvgl/src/font/lv_font_fmt_txt.c ****                 lv_uintptr_t ofs = kid_p - g_ids;
 288:Middlewares/lvgl/src/font/lv_font_fmt_txt.c ****                 value = kdsc->values[ofs];
 289:Middlewares/lvgl/src/font/lv_font_fmt_txt.c ****             }
 290:Middlewares/lvgl/src/font/lv_font_fmt_txt.c ****         }
 291:Middlewares/lvgl/src/font/lv_font_fmt_txt.c ****         else if(kdsc->glyph_ids_size == 1) {
 292:Middlewares/lvgl/src/font/lv_font_fmt_txt.c ****             /*Use binary search to find the kern value.
 293:Middlewares/lvgl/src/font/lv_font_fmt_txt.c ****              *The pairs are ordered left_id first, then right_id secondly.*/
 294:Middlewares/lvgl/src/font/lv_font_fmt_txt.c ****             const uint32_t * g_ids = kdsc->glyph_ids;
 295:Middlewares/lvgl/src/font/lv_font_fmt_txt.c ****             uint32_t g_id_both = (gid_right << 16) + gid_left; /*Create one number from the ids*/
 296:Middlewares/lvgl/src/font/lv_font_fmt_txt.c ****             uint32_t * kid_p = _lv_utils_bsearch(&g_id_both, g_ids, kdsc->pair_cnt, 4, kern_pair_16
 297:Middlewares/lvgl/src/font/lv_font_fmt_txt.c **** 
 298:Middlewares/lvgl/src/font/lv_font_fmt_txt.c ****             /*If the `g_id_both` were found get its index from the pointer*/
 299:Middlewares/lvgl/src/font/lv_font_fmt_txt.c ****             if(kid_p) {
 300:Middlewares/lvgl/src/font/lv_font_fmt_txt.c ****                 lv_uintptr_t ofs = kid_p - g_ids;
 301:Middlewares/lvgl/src/font/lv_font_fmt_txt.c ****                 value = kdsc->values[ofs];
 302:Middlewares/lvgl/src/font/lv_font_fmt_txt.c ****             }
 303:Middlewares/lvgl/src/font/lv_font_fmt_txt.c **** 
 304:Middlewares/lvgl/src/font/lv_font_fmt_txt.c ****         }
 305:Middlewares/lvgl/src/font/lv_font_fmt_txt.c ****         else {
 306:Middlewares/lvgl/src/font/lv_font_fmt_txt.c ****             /*Invalid value*/
 307:Middlewares/lvgl/src/font/lv_font_fmt_txt.c ****         }
 308:Middlewares/lvgl/src/font/lv_font_fmt_txt.c ****     }
 309:Middlewares/lvgl/src/font/lv_font_fmt_txt.c ****     else {
 310:Middlewares/lvgl/src/font/lv_font_fmt_txt.c ****         /*Kern classes*/
 311:Middlewares/lvgl/src/font/lv_font_fmt_txt.c ****         const lv_font_fmt_txt_kern_classes_t * kdsc = fdsc->kern_dsc;
 312:Middlewares/lvgl/src/font/lv_font_fmt_txt.c ****         uint8_t left_class = kdsc->left_class_mapping[gid_left];
 313:Middlewares/lvgl/src/font/lv_font_fmt_txt.c ****         uint8_t right_class = kdsc->right_class_mapping[gid_right];
 314:Middlewares/lvgl/src/font/lv_font_fmt_txt.c **** 
 315:Middlewares/lvgl/src/font/lv_font_fmt_txt.c ****         /*If class = 0, kerning not exist for that glyph
 316:Middlewares/lvgl/src/font/lv_font_fmt_txt.c ****          *else got the value form `class_pair_values` 2D array*/
ARM GAS  /tmp/cc8ecAmv.s 			page 7


 317:Middlewares/lvgl/src/font/lv_font_fmt_txt.c ****         if(left_class > 0 && right_class > 0) {
 318:Middlewares/lvgl/src/font/lv_font_fmt_txt.c ****             value = kdsc->class_pair_values[(left_class - 1) * kdsc->right_class_cnt + (right_class
 319:Middlewares/lvgl/src/font/lv_font_fmt_txt.c ****         }
 320:Middlewares/lvgl/src/font/lv_font_fmt_txt.c **** 
 321:Middlewares/lvgl/src/font/lv_font_fmt_txt.c ****     }
 322:Middlewares/lvgl/src/font/lv_font_fmt_txt.c ****     return value;
 323:Middlewares/lvgl/src/font/lv_font_fmt_txt.c **** }
 324:Middlewares/lvgl/src/font/lv_font_fmt_txt.c **** 
 325:Middlewares/lvgl/src/font/lv_font_fmt_txt.c **** static int32_t kern_pair_8_compare(const void * ref, const void * element)
 326:Middlewares/lvgl/src/font/lv_font_fmt_txt.c **** {
  28              		.loc 1 326 1 view -0
  29              		.cfi_startproc
  30              		@ args = 0, pretend = 0, frame = 0
  31              		@ frame_needed = 0, uses_anonymous_args = 0
  32              		@ link register save eliminated.
 327:Middlewares/lvgl/src/font/lv_font_fmt_txt.c ****     const uint8_t * ref8_p = ref;
  33              		.loc 1 327 5 view .LVU1
 328:Middlewares/lvgl/src/font/lv_font_fmt_txt.c ****     const uint8_t * element8_p = element;
  34              		.loc 1 328 5 view .LVU2
 329:Middlewares/lvgl/src/font/lv_font_fmt_txt.c **** 
 330:Middlewares/lvgl/src/font/lv_font_fmt_txt.c ****     /*If the MSB is different it will matter. If not return the diff. of the LSB*/
 331:Middlewares/lvgl/src/font/lv_font_fmt_txt.c ****     if(ref8_p[0] != element8_p[0]) return (int32_t)ref8_p[0] - element8_p[0];
  35              		.loc 1 331 5 view .LVU3
  36              		.loc 1 331 14 is_stmt 0 view .LVU4
  37 0000 0378     		ldrb	r3, [r0]	@ zero_extendqisi2
  38              		.loc 1 331 31 view .LVU5
  39 0002 0A78     		ldrb	r2, [r1]	@ zero_extendqisi2
  40              		.loc 1 331 7 view .LVU6
  41 0004 9342     		cmp	r3, r2
  42 0006 01D0     		beq	.L2
  43              		.loc 1 331 36 is_stmt 1 discriminator 1 view .LVU7
  44              		.loc 1 331 62 is_stmt 0 discriminator 1 view .LVU8
  45 0008 981A     		subs	r0, r3, r2
  46              	.LVL1:
  47              		.loc 1 331 62 discriminator 1 view .LVU9
  48 000a 7047     		bx	lr
  49              	.LVL2:
  50              	.L2:
 332:Middlewares/lvgl/src/font/lv_font_fmt_txt.c ****     else return (int32_t) ref8_p[1] - element8_p[1];
  51              		.loc 1 332 10 is_stmt 1 view .LVU10
  52              		.loc 1 332 33 is_stmt 0 view .LVU11
  53 000c 4078     		ldrb	r0, [r0, #1]	@ zero_extendqisi2
  54              	.LVL3:
  55              		.loc 1 332 49 view .LVU12
  56 000e 4B78     		ldrb	r3, [r1, #1]	@ zero_extendqisi2
  57              		.loc 1 332 37 view .LVU13
  58 0010 C01A     		subs	r0, r0, r3
 333:Middlewares/lvgl/src/font/lv_font_fmt_txt.c **** 
 334:Middlewares/lvgl/src/font/lv_font_fmt_txt.c **** }
  59              		.loc 1 334 1 view .LVU14
  60 0012 7047     		bx	lr
  61              		.cfi_endproc
  62              	.LFE30:
  64              		.section	.text.kern_pair_16_compare,"ax",%progbits
  65              		.align	1
  66              		.syntax unified
  67              		.thumb
ARM GAS  /tmp/cc8ecAmv.s 			page 8


  68              		.thumb_func
  69              		.fpu fpv5-d16
  71              	kern_pair_16_compare:
  72              	.LVL4:
  73              	.LFB31:
 335:Middlewares/lvgl/src/font/lv_font_fmt_txt.c **** 
 336:Middlewares/lvgl/src/font/lv_font_fmt_txt.c **** static int32_t kern_pair_16_compare(const void * ref, const void * element)
 337:Middlewares/lvgl/src/font/lv_font_fmt_txt.c **** {
  74              		.loc 1 337 1 is_stmt 1 view -0
  75              		.cfi_startproc
  76              		@ args = 0, pretend = 0, frame = 0
  77              		@ frame_needed = 0, uses_anonymous_args = 0
  78              		@ link register save eliminated.
 338:Middlewares/lvgl/src/font/lv_font_fmt_txt.c ****     const uint16_t * ref16_p = ref;
  79              		.loc 1 338 5 view .LVU16
 339:Middlewares/lvgl/src/font/lv_font_fmt_txt.c ****     const uint16_t * element16_p = element;
  80              		.loc 1 339 5 view .LVU17
 340:Middlewares/lvgl/src/font/lv_font_fmt_txt.c **** 
 341:Middlewares/lvgl/src/font/lv_font_fmt_txt.c ****     /*If the MSB is different it will matter. If not return the diff. of the LSB*/
 342:Middlewares/lvgl/src/font/lv_font_fmt_txt.c ****     if(ref16_p[0] != element16_p[0]) return (int32_t)ref16_p[0] - element16_p[0];
  81              		.loc 1 342 5 view .LVU18
  82              		.loc 1 342 15 is_stmt 0 view .LVU19
  83 0000 0388     		ldrh	r3, [r0]
  84              		.loc 1 342 33 view .LVU20
  85 0002 0A88     		ldrh	r2, [r1]
  86              		.loc 1 342 7 view .LVU21
  87 0004 9342     		cmp	r3, r2
  88 0006 01D0     		beq	.L5
  89              		.loc 1 342 38 is_stmt 1 discriminator 1 view .LVU22
  90              		.loc 1 342 65 is_stmt 0 discriminator 1 view .LVU23
  91 0008 981A     		subs	r0, r3, r2
  92              	.LVL5:
  93              		.loc 1 342 65 discriminator 1 view .LVU24
  94 000a 7047     		bx	lr
  95              	.LVL6:
  96              	.L5:
 343:Middlewares/lvgl/src/font/lv_font_fmt_txt.c ****     else return (int32_t) ref16_p[1] - element16_p[1];
  97              		.loc 1 343 10 is_stmt 1 view .LVU25
  98              		.loc 1 343 34 is_stmt 0 view .LVU26
  99 000c 4088     		ldrh	r0, [r0, #2]
 100              	.LVL7:
 101              		.loc 1 343 51 view .LVU27
 102 000e 4B88     		ldrh	r3, [r1, #2]
 103              		.loc 1 343 38 view .LVU28
 104 0010 C01A     		subs	r0, r0, r3
 344:Middlewares/lvgl/src/font/lv_font_fmt_txt.c **** }
 105              		.loc 1 344 1 view .LVU29
 106 0012 7047     		bx	lr
 107              		.cfi_endproc
 108              	.LFE31:
 110              		.section	.text.unicode_list_compare,"ax",%progbits
 111              		.align	1
 112              		.syntax unified
 113              		.thumb
 114              		.thumb_func
 115              		.fpu fpv5-d16
 117              	unicode_list_compare:
ARM GAS  /tmp/cc8ecAmv.s 			page 9


 118              	.LVL8:
 119              	.LFB32:
 345:Middlewares/lvgl/src/font/lv_font_fmt_txt.c **** 
 346:Middlewares/lvgl/src/font/lv_font_fmt_txt.c **** #if LV_USE_FONT_COMPRESSED
 347:Middlewares/lvgl/src/font/lv_font_fmt_txt.c **** /**
 348:Middlewares/lvgl/src/font/lv_font_fmt_txt.c ****  * The compress a glyph's bitmap
 349:Middlewares/lvgl/src/font/lv_font_fmt_txt.c ****  * @param in the compressed bitmap
 350:Middlewares/lvgl/src/font/lv_font_fmt_txt.c ****  * @param out buffer to store the result
 351:Middlewares/lvgl/src/font/lv_font_fmt_txt.c ****  * @param px_num number of pixels in the glyph (width * height)
 352:Middlewares/lvgl/src/font/lv_font_fmt_txt.c ****  * @param bpp bit per pixel (bpp = 3 will be converted to bpp = 4)
 353:Middlewares/lvgl/src/font/lv_font_fmt_txt.c ****  * @param prefilter true: the lines are XORed
 354:Middlewares/lvgl/src/font/lv_font_fmt_txt.c ****  */
 355:Middlewares/lvgl/src/font/lv_font_fmt_txt.c **** static void decompress(const uint8_t * in, uint8_t * out, lv_coord_t w, lv_coord_t h, uint8_t bpp, 
 356:Middlewares/lvgl/src/font/lv_font_fmt_txt.c **** {
 357:Middlewares/lvgl/src/font/lv_font_fmt_txt.c ****     uint32_t wrp = 0;
 358:Middlewares/lvgl/src/font/lv_font_fmt_txt.c ****     uint8_t wr_size = bpp;
 359:Middlewares/lvgl/src/font/lv_font_fmt_txt.c ****     if(bpp == 3) wr_size = 4;
 360:Middlewares/lvgl/src/font/lv_font_fmt_txt.c **** 
 361:Middlewares/lvgl/src/font/lv_font_fmt_txt.c ****     rle_init(in, bpp);
 362:Middlewares/lvgl/src/font/lv_font_fmt_txt.c **** 
 363:Middlewares/lvgl/src/font/lv_font_fmt_txt.c ****     uint8_t * line_buf1 = lv_mem_buf_get(w);
 364:Middlewares/lvgl/src/font/lv_font_fmt_txt.c **** 
 365:Middlewares/lvgl/src/font/lv_font_fmt_txt.c ****     uint8_t * line_buf2 = NULL;
 366:Middlewares/lvgl/src/font/lv_font_fmt_txt.c **** 
 367:Middlewares/lvgl/src/font/lv_font_fmt_txt.c ****     if(prefilter) {
 368:Middlewares/lvgl/src/font/lv_font_fmt_txt.c ****         line_buf2 = lv_mem_buf_get(w);
 369:Middlewares/lvgl/src/font/lv_font_fmt_txt.c ****     }
 370:Middlewares/lvgl/src/font/lv_font_fmt_txt.c **** 
 371:Middlewares/lvgl/src/font/lv_font_fmt_txt.c ****     decompress_line(line_buf1, w);
 372:Middlewares/lvgl/src/font/lv_font_fmt_txt.c **** 
 373:Middlewares/lvgl/src/font/lv_font_fmt_txt.c ****     lv_coord_t y;
 374:Middlewares/lvgl/src/font/lv_font_fmt_txt.c ****     lv_coord_t x;
 375:Middlewares/lvgl/src/font/lv_font_fmt_txt.c **** 
 376:Middlewares/lvgl/src/font/lv_font_fmt_txt.c ****     for(x = 0; x < w; x++) {
 377:Middlewares/lvgl/src/font/lv_font_fmt_txt.c ****         bits_write(out, wrp, line_buf1[x], bpp);
 378:Middlewares/lvgl/src/font/lv_font_fmt_txt.c ****         wrp += wr_size;
 379:Middlewares/lvgl/src/font/lv_font_fmt_txt.c ****     }
 380:Middlewares/lvgl/src/font/lv_font_fmt_txt.c **** 
 381:Middlewares/lvgl/src/font/lv_font_fmt_txt.c ****     for(y = 1; y < h; y++) {
 382:Middlewares/lvgl/src/font/lv_font_fmt_txt.c ****         if(prefilter) {
 383:Middlewares/lvgl/src/font/lv_font_fmt_txt.c ****             decompress_line(line_buf2, w);
 384:Middlewares/lvgl/src/font/lv_font_fmt_txt.c **** 
 385:Middlewares/lvgl/src/font/lv_font_fmt_txt.c ****             for(x = 0; x < w; x++) {
 386:Middlewares/lvgl/src/font/lv_font_fmt_txt.c ****                 line_buf1[x] = line_buf2[x] ^ line_buf1[x];
 387:Middlewares/lvgl/src/font/lv_font_fmt_txt.c ****                 bits_write(out, wrp, line_buf1[x], bpp);
 388:Middlewares/lvgl/src/font/lv_font_fmt_txt.c ****                 wrp += wr_size;
 389:Middlewares/lvgl/src/font/lv_font_fmt_txt.c ****             }
 390:Middlewares/lvgl/src/font/lv_font_fmt_txt.c ****         }
 391:Middlewares/lvgl/src/font/lv_font_fmt_txt.c ****         else {
 392:Middlewares/lvgl/src/font/lv_font_fmt_txt.c ****             decompress_line(line_buf1, w);
 393:Middlewares/lvgl/src/font/lv_font_fmt_txt.c **** 
 394:Middlewares/lvgl/src/font/lv_font_fmt_txt.c ****             for(x = 0; x < w; x++) {
 395:Middlewares/lvgl/src/font/lv_font_fmt_txt.c ****                 bits_write(out, wrp, line_buf1[x], bpp);
 396:Middlewares/lvgl/src/font/lv_font_fmt_txt.c ****                 wrp += wr_size;
 397:Middlewares/lvgl/src/font/lv_font_fmt_txt.c ****             }
 398:Middlewares/lvgl/src/font/lv_font_fmt_txt.c ****         }
 399:Middlewares/lvgl/src/font/lv_font_fmt_txt.c ****     }
ARM GAS  /tmp/cc8ecAmv.s 			page 10


 400:Middlewares/lvgl/src/font/lv_font_fmt_txt.c **** 
 401:Middlewares/lvgl/src/font/lv_font_fmt_txt.c ****     lv_mem_buf_release(line_buf1);
 402:Middlewares/lvgl/src/font/lv_font_fmt_txt.c ****     lv_mem_buf_release(line_buf2);
 403:Middlewares/lvgl/src/font/lv_font_fmt_txt.c **** }
 404:Middlewares/lvgl/src/font/lv_font_fmt_txt.c **** 
 405:Middlewares/lvgl/src/font/lv_font_fmt_txt.c **** /**
 406:Middlewares/lvgl/src/font/lv_font_fmt_txt.c ****  * Decompress one line. Store one pixel per byte
 407:Middlewares/lvgl/src/font/lv_font_fmt_txt.c ****  * @param out output buffer
 408:Middlewares/lvgl/src/font/lv_font_fmt_txt.c ****  * @param w width of the line in pixel count
 409:Middlewares/lvgl/src/font/lv_font_fmt_txt.c ****  */
 410:Middlewares/lvgl/src/font/lv_font_fmt_txt.c **** static inline void decompress_line(uint8_t * out, lv_coord_t w)
 411:Middlewares/lvgl/src/font/lv_font_fmt_txt.c **** {
 412:Middlewares/lvgl/src/font/lv_font_fmt_txt.c ****     lv_coord_t i;
 413:Middlewares/lvgl/src/font/lv_font_fmt_txt.c ****     for(i = 0; i < w; i++) {
 414:Middlewares/lvgl/src/font/lv_font_fmt_txt.c ****         out[i] = rle_next();
 415:Middlewares/lvgl/src/font/lv_font_fmt_txt.c ****     }
 416:Middlewares/lvgl/src/font/lv_font_fmt_txt.c **** }
 417:Middlewares/lvgl/src/font/lv_font_fmt_txt.c **** 
 418:Middlewares/lvgl/src/font/lv_font_fmt_txt.c **** /**
 419:Middlewares/lvgl/src/font/lv_font_fmt_txt.c ****  * Read bits from an input buffer. The read can cross byte boundary.
 420:Middlewares/lvgl/src/font/lv_font_fmt_txt.c ****  * @param in the input buffer to read from.
 421:Middlewares/lvgl/src/font/lv_font_fmt_txt.c ****  * @param bit_pos index of the first bit to read.
 422:Middlewares/lvgl/src/font/lv_font_fmt_txt.c ****  * @param len number of bits to read (must be <= 8).
 423:Middlewares/lvgl/src/font/lv_font_fmt_txt.c ****  * @return the read bits
 424:Middlewares/lvgl/src/font/lv_font_fmt_txt.c ****  */
 425:Middlewares/lvgl/src/font/lv_font_fmt_txt.c **** static inline uint8_t get_bits(const uint8_t * in, uint32_t bit_pos, uint8_t len)
 426:Middlewares/lvgl/src/font/lv_font_fmt_txt.c **** {
 427:Middlewares/lvgl/src/font/lv_font_fmt_txt.c ****     uint8_t bit_mask;
 428:Middlewares/lvgl/src/font/lv_font_fmt_txt.c ****     switch(len) {
 429:Middlewares/lvgl/src/font/lv_font_fmt_txt.c ****         case 1:
 430:Middlewares/lvgl/src/font/lv_font_fmt_txt.c ****             bit_mask = 0x1;
 431:Middlewares/lvgl/src/font/lv_font_fmt_txt.c ****             break;
 432:Middlewares/lvgl/src/font/lv_font_fmt_txt.c ****         case 2:
 433:Middlewares/lvgl/src/font/lv_font_fmt_txt.c ****             bit_mask = 0x3;
 434:Middlewares/lvgl/src/font/lv_font_fmt_txt.c ****             break;
 435:Middlewares/lvgl/src/font/lv_font_fmt_txt.c ****         case 3:
 436:Middlewares/lvgl/src/font/lv_font_fmt_txt.c ****             bit_mask = 0x7;
 437:Middlewares/lvgl/src/font/lv_font_fmt_txt.c ****             break;
 438:Middlewares/lvgl/src/font/lv_font_fmt_txt.c ****         case 4:
 439:Middlewares/lvgl/src/font/lv_font_fmt_txt.c ****             bit_mask = 0xF;
 440:Middlewares/lvgl/src/font/lv_font_fmt_txt.c ****             break;
 441:Middlewares/lvgl/src/font/lv_font_fmt_txt.c ****         case 8:
 442:Middlewares/lvgl/src/font/lv_font_fmt_txt.c ****             bit_mask = 0xFF;
 443:Middlewares/lvgl/src/font/lv_font_fmt_txt.c ****             break;
 444:Middlewares/lvgl/src/font/lv_font_fmt_txt.c ****         default:
 445:Middlewares/lvgl/src/font/lv_font_fmt_txt.c ****             bit_mask = (uint16_t)((uint16_t) 1 << len) - 1;
 446:Middlewares/lvgl/src/font/lv_font_fmt_txt.c ****     }
 447:Middlewares/lvgl/src/font/lv_font_fmt_txt.c **** 
 448:Middlewares/lvgl/src/font/lv_font_fmt_txt.c ****     uint32_t byte_pos = bit_pos >> 3;
 449:Middlewares/lvgl/src/font/lv_font_fmt_txt.c ****     bit_pos = bit_pos & 0x7;
 450:Middlewares/lvgl/src/font/lv_font_fmt_txt.c **** 
 451:Middlewares/lvgl/src/font/lv_font_fmt_txt.c ****     if(bit_pos + len >= 8) {
 452:Middlewares/lvgl/src/font/lv_font_fmt_txt.c ****         uint16_t in16 = (in[byte_pos] << 8) + in[byte_pos + 1];
 453:Middlewares/lvgl/src/font/lv_font_fmt_txt.c ****         return (in16 >> (16 - bit_pos - len)) & bit_mask;
 454:Middlewares/lvgl/src/font/lv_font_fmt_txt.c ****     }
 455:Middlewares/lvgl/src/font/lv_font_fmt_txt.c ****     else {
 456:Middlewares/lvgl/src/font/lv_font_fmt_txt.c ****         return (in[byte_pos] >> (8 - bit_pos - len)) & bit_mask;
ARM GAS  /tmp/cc8ecAmv.s 			page 11


 457:Middlewares/lvgl/src/font/lv_font_fmt_txt.c ****     }
 458:Middlewares/lvgl/src/font/lv_font_fmt_txt.c **** }
 459:Middlewares/lvgl/src/font/lv_font_fmt_txt.c **** 
 460:Middlewares/lvgl/src/font/lv_font_fmt_txt.c **** /**
 461:Middlewares/lvgl/src/font/lv_font_fmt_txt.c ****  * Write `val` data to `bit_pos` position of `out`. The write can NOT cross byte boundary.
 462:Middlewares/lvgl/src/font/lv_font_fmt_txt.c ****  * @param out buffer where to write
 463:Middlewares/lvgl/src/font/lv_font_fmt_txt.c ****  * @param bit_pos bit index to write
 464:Middlewares/lvgl/src/font/lv_font_fmt_txt.c ****  * @param val value to write
 465:Middlewares/lvgl/src/font/lv_font_fmt_txt.c ****  * @param len length of bits to write from `val`. (Counted from the LSB).
 466:Middlewares/lvgl/src/font/lv_font_fmt_txt.c ****  * @note `len == 3` will be converted to `len = 4` and `val` will be upscaled too
 467:Middlewares/lvgl/src/font/lv_font_fmt_txt.c ****  */
 468:Middlewares/lvgl/src/font/lv_font_fmt_txt.c **** static inline void bits_write(uint8_t * out, uint32_t bit_pos, uint8_t val, uint8_t len)
 469:Middlewares/lvgl/src/font/lv_font_fmt_txt.c **** {
 470:Middlewares/lvgl/src/font/lv_font_fmt_txt.c ****     if(len == 3) {
 471:Middlewares/lvgl/src/font/lv_font_fmt_txt.c ****         len = 4;
 472:Middlewares/lvgl/src/font/lv_font_fmt_txt.c ****         switch(val) {
 473:Middlewares/lvgl/src/font/lv_font_fmt_txt.c ****             case 0:
 474:Middlewares/lvgl/src/font/lv_font_fmt_txt.c ****                 val = 0;
 475:Middlewares/lvgl/src/font/lv_font_fmt_txt.c ****                 break;
 476:Middlewares/lvgl/src/font/lv_font_fmt_txt.c ****             case 1:
 477:Middlewares/lvgl/src/font/lv_font_fmt_txt.c ****                 val = 2;
 478:Middlewares/lvgl/src/font/lv_font_fmt_txt.c ****                 break;
 479:Middlewares/lvgl/src/font/lv_font_fmt_txt.c ****             case 2:
 480:Middlewares/lvgl/src/font/lv_font_fmt_txt.c ****                 val = 4;
 481:Middlewares/lvgl/src/font/lv_font_fmt_txt.c ****                 break;
 482:Middlewares/lvgl/src/font/lv_font_fmt_txt.c ****             case 3:
 483:Middlewares/lvgl/src/font/lv_font_fmt_txt.c ****                 val = 6;
 484:Middlewares/lvgl/src/font/lv_font_fmt_txt.c ****                 break;
 485:Middlewares/lvgl/src/font/lv_font_fmt_txt.c ****             case 4:
 486:Middlewares/lvgl/src/font/lv_font_fmt_txt.c ****                 val = 9;
 487:Middlewares/lvgl/src/font/lv_font_fmt_txt.c ****                 break;
 488:Middlewares/lvgl/src/font/lv_font_fmt_txt.c ****             case 5:
 489:Middlewares/lvgl/src/font/lv_font_fmt_txt.c ****                 val = 11;
 490:Middlewares/lvgl/src/font/lv_font_fmt_txt.c ****                 break;
 491:Middlewares/lvgl/src/font/lv_font_fmt_txt.c ****             case 6:
 492:Middlewares/lvgl/src/font/lv_font_fmt_txt.c ****                 val = 13;
 493:Middlewares/lvgl/src/font/lv_font_fmt_txt.c ****                 break;
 494:Middlewares/lvgl/src/font/lv_font_fmt_txt.c ****             case 7:
 495:Middlewares/lvgl/src/font/lv_font_fmt_txt.c ****                 val = 15;
 496:Middlewares/lvgl/src/font/lv_font_fmt_txt.c ****                 break;
 497:Middlewares/lvgl/src/font/lv_font_fmt_txt.c ****         }
 498:Middlewares/lvgl/src/font/lv_font_fmt_txt.c ****     }
 499:Middlewares/lvgl/src/font/lv_font_fmt_txt.c **** 
 500:Middlewares/lvgl/src/font/lv_font_fmt_txt.c ****     uint16_t byte_pos = bit_pos >> 3;
 501:Middlewares/lvgl/src/font/lv_font_fmt_txt.c ****     bit_pos = bit_pos & 0x7;
 502:Middlewares/lvgl/src/font/lv_font_fmt_txt.c ****     bit_pos = 8 - bit_pos - len;
 503:Middlewares/lvgl/src/font/lv_font_fmt_txt.c **** 
 504:Middlewares/lvgl/src/font/lv_font_fmt_txt.c ****     uint8_t bit_mask = (uint16_t)((uint16_t) 1 << len) - 1;
 505:Middlewares/lvgl/src/font/lv_font_fmt_txt.c ****     out[byte_pos] &= ((~bit_mask) << bit_pos);
 506:Middlewares/lvgl/src/font/lv_font_fmt_txt.c ****     out[byte_pos] |= (val << bit_pos);
 507:Middlewares/lvgl/src/font/lv_font_fmt_txt.c **** }
 508:Middlewares/lvgl/src/font/lv_font_fmt_txt.c **** 
 509:Middlewares/lvgl/src/font/lv_font_fmt_txt.c **** static inline void rle_init(const uint8_t * in,  uint8_t bpp)
 510:Middlewares/lvgl/src/font/lv_font_fmt_txt.c **** {
 511:Middlewares/lvgl/src/font/lv_font_fmt_txt.c ****     rle_in = in;
 512:Middlewares/lvgl/src/font/lv_font_fmt_txt.c ****     rle_bpp = bpp;
 513:Middlewares/lvgl/src/font/lv_font_fmt_txt.c ****     rle_state = RLE_STATE_SINGLE;
ARM GAS  /tmp/cc8ecAmv.s 			page 12


 514:Middlewares/lvgl/src/font/lv_font_fmt_txt.c ****     rle_rdp = 0;
 515:Middlewares/lvgl/src/font/lv_font_fmt_txt.c ****     rle_prev_v = 0;
 516:Middlewares/lvgl/src/font/lv_font_fmt_txt.c ****     rle_cnt = 0;
 517:Middlewares/lvgl/src/font/lv_font_fmt_txt.c **** }
 518:Middlewares/lvgl/src/font/lv_font_fmt_txt.c **** 
 519:Middlewares/lvgl/src/font/lv_font_fmt_txt.c **** static inline uint8_t rle_next(void)
 520:Middlewares/lvgl/src/font/lv_font_fmt_txt.c **** {
 521:Middlewares/lvgl/src/font/lv_font_fmt_txt.c ****     uint8_t v = 0;
 522:Middlewares/lvgl/src/font/lv_font_fmt_txt.c ****     uint8_t ret = 0;
 523:Middlewares/lvgl/src/font/lv_font_fmt_txt.c **** 
 524:Middlewares/lvgl/src/font/lv_font_fmt_txt.c ****     if(rle_state == RLE_STATE_SINGLE) {
 525:Middlewares/lvgl/src/font/lv_font_fmt_txt.c ****         ret = get_bits(rle_in, rle_rdp, rle_bpp);
 526:Middlewares/lvgl/src/font/lv_font_fmt_txt.c ****         if(rle_rdp != 0 && rle_prev_v == ret) {
 527:Middlewares/lvgl/src/font/lv_font_fmt_txt.c ****             rle_cnt = 0;
 528:Middlewares/lvgl/src/font/lv_font_fmt_txt.c ****             rle_state = RLE_STATE_REPEATE;
 529:Middlewares/lvgl/src/font/lv_font_fmt_txt.c ****         }
 530:Middlewares/lvgl/src/font/lv_font_fmt_txt.c **** 
 531:Middlewares/lvgl/src/font/lv_font_fmt_txt.c ****         rle_prev_v = ret;
 532:Middlewares/lvgl/src/font/lv_font_fmt_txt.c ****         rle_rdp += rle_bpp;
 533:Middlewares/lvgl/src/font/lv_font_fmt_txt.c ****     }
 534:Middlewares/lvgl/src/font/lv_font_fmt_txt.c ****     else if(rle_state == RLE_STATE_REPEATE) {
 535:Middlewares/lvgl/src/font/lv_font_fmt_txt.c ****         v = get_bits(rle_in, rle_rdp, 1);
 536:Middlewares/lvgl/src/font/lv_font_fmt_txt.c ****         rle_cnt++;
 537:Middlewares/lvgl/src/font/lv_font_fmt_txt.c ****         rle_rdp += 1;
 538:Middlewares/lvgl/src/font/lv_font_fmt_txt.c ****         if(v == 1) {
 539:Middlewares/lvgl/src/font/lv_font_fmt_txt.c ****             ret = rle_prev_v;
 540:Middlewares/lvgl/src/font/lv_font_fmt_txt.c ****             if(rle_cnt == 11) {
 541:Middlewares/lvgl/src/font/lv_font_fmt_txt.c ****                 rle_cnt = get_bits(rle_in, rle_rdp, 6);
 542:Middlewares/lvgl/src/font/lv_font_fmt_txt.c ****                 rle_rdp += 6;
 543:Middlewares/lvgl/src/font/lv_font_fmt_txt.c ****                 if(rle_cnt != 0) {
 544:Middlewares/lvgl/src/font/lv_font_fmt_txt.c ****                     rle_state = RLE_STATE_COUNTER;
 545:Middlewares/lvgl/src/font/lv_font_fmt_txt.c ****                 }
 546:Middlewares/lvgl/src/font/lv_font_fmt_txt.c ****                 else {
 547:Middlewares/lvgl/src/font/lv_font_fmt_txt.c ****                     ret = get_bits(rle_in, rle_rdp, rle_bpp);
 548:Middlewares/lvgl/src/font/lv_font_fmt_txt.c ****                     rle_prev_v = ret;
 549:Middlewares/lvgl/src/font/lv_font_fmt_txt.c ****                     rle_rdp += rle_bpp;
 550:Middlewares/lvgl/src/font/lv_font_fmt_txt.c ****                     rle_state = RLE_STATE_SINGLE;
 551:Middlewares/lvgl/src/font/lv_font_fmt_txt.c ****                 }
 552:Middlewares/lvgl/src/font/lv_font_fmt_txt.c ****             }
 553:Middlewares/lvgl/src/font/lv_font_fmt_txt.c ****         }
 554:Middlewares/lvgl/src/font/lv_font_fmt_txt.c ****         else {
 555:Middlewares/lvgl/src/font/lv_font_fmt_txt.c ****             ret = get_bits(rle_in, rle_rdp, rle_bpp);
 556:Middlewares/lvgl/src/font/lv_font_fmt_txt.c ****             rle_prev_v = ret;
 557:Middlewares/lvgl/src/font/lv_font_fmt_txt.c ****             rle_rdp += rle_bpp;
 558:Middlewares/lvgl/src/font/lv_font_fmt_txt.c ****             rle_state = RLE_STATE_SINGLE;
 559:Middlewares/lvgl/src/font/lv_font_fmt_txt.c ****         }
 560:Middlewares/lvgl/src/font/lv_font_fmt_txt.c **** 
 561:Middlewares/lvgl/src/font/lv_font_fmt_txt.c ****     }
 562:Middlewares/lvgl/src/font/lv_font_fmt_txt.c ****     else if(rle_state == RLE_STATE_COUNTER) {
 563:Middlewares/lvgl/src/font/lv_font_fmt_txt.c ****         ret = rle_prev_v;
 564:Middlewares/lvgl/src/font/lv_font_fmt_txt.c ****         rle_cnt--;
 565:Middlewares/lvgl/src/font/lv_font_fmt_txt.c ****         if(rle_cnt == 0) {
 566:Middlewares/lvgl/src/font/lv_font_fmt_txt.c ****             ret = get_bits(rle_in, rle_rdp, rle_bpp);
 567:Middlewares/lvgl/src/font/lv_font_fmt_txt.c ****             rle_prev_v = ret;
 568:Middlewares/lvgl/src/font/lv_font_fmt_txt.c ****             rle_rdp += rle_bpp;
 569:Middlewares/lvgl/src/font/lv_font_fmt_txt.c ****             rle_state = RLE_STATE_SINGLE;
 570:Middlewares/lvgl/src/font/lv_font_fmt_txt.c ****         }
ARM GAS  /tmp/cc8ecAmv.s 			page 13


 571:Middlewares/lvgl/src/font/lv_font_fmt_txt.c ****     }
 572:Middlewares/lvgl/src/font/lv_font_fmt_txt.c **** 
 573:Middlewares/lvgl/src/font/lv_font_fmt_txt.c ****     return ret;
 574:Middlewares/lvgl/src/font/lv_font_fmt_txt.c **** }
 575:Middlewares/lvgl/src/font/lv_font_fmt_txt.c **** #endif /*LV_USE_FONT_COMPRESSED*/
 576:Middlewares/lvgl/src/font/lv_font_fmt_txt.c **** 
 577:Middlewares/lvgl/src/font/lv_font_fmt_txt.c **** /** Code Comparator.
 578:Middlewares/lvgl/src/font/lv_font_fmt_txt.c ****  *
 579:Middlewares/lvgl/src/font/lv_font_fmt_txt.c ****  *  Compares the value of both input arguments.
 580:Middlewares/lvgl/src/font/lv_font_fmt_txt.c ****  *
 581:Middlewares/lvgl/src/font/lv_font_fmt_txt.c ****  *  @param[in]  pRef        Pointer to the reference.
 582:Middlewares/lvgl/src/font/lv_font_fmt_txt.c ****  *  @param[in]  pElement    Pointer to the element to compare.
 583:Middlewares/lvgl/src/font/lv_font_fmt_txt.c ****  *
 584:Middlewares/lvgl/src/font/lv_font_fmt_txt.c ****  *  @return Result of comparison.
 585:Middlewares/lvgl/src/font/lv_font_fmt_txt.c ****  *  @retval < 0   Reference is less than element.
 586:Middlewares/lvgl/src/font/lv_font_fmt_txt.c ****  *  @retval = 0   Reference is equal to element.
 587:Middlewares/lvgl/src/font/lv_font_fmt_txt.c ****  *  @retval > 0   Reference is greater than element.
 588:Middlewares/lvgl/src/font/lv_font_fmt_txt.c ****  *
 589:Middlewares/lvgl/src/font/lv_font_fmt_txt.c ****  */
 590:Middlewares/lvgl/src/font/lv_font_fmt_txt.c **** static int32_t unicode_list_compare(const void * ref, const void * element)
 591:Middlewares/lvgl/src/font/lv_font_fmt_txt.c **** {
 120              		.loc 1 591 1 is_stmt 1 view -0
 121              		.cfi_startproc
 122              		@ args = 0, pretend = 0, frame = 0
 123              		@ frame_needed = 0, uses_anonymous_args = 0
 124              		@ link register save eliminated.
 592:Middlewares/lvgl/src/font/lv_font_fmt_txt.c ****     return ((int32_t)(*(uint16_t *)ref)) - ((int32_t)(*(uint16_t *)element));
 125              		.loc 1 592 5 view .LVU31
 126              		.loc 1 592 23 is_stmt 0 view .LVU32
 127 0000 0088     		ldrh	r0, [r0]
 128              	.LVL9:
 129              		.loc 1 592 55 view .LVU33
 130 0002 0B88     		ldrh	r3, [r1]
 593:Middlewares/lvgl/src/font/lv_font_fmt_txt.c **** }
 131              		.loc 1 593 1 view .LVU34
 132 0004 C01A     		subs	r0, r0, r3
 133 0006 7047     		bx	lr
 134              		.cfi_endproc
 135              	.LFE32:
 137              		.section	.text.get_glyph_dsc_id,"ax",%progbits
 138              		.align	1
 139              		.syntax unified
 140              		.thumb
 141              		.thumb_func
 142              		.fpu fpv5-d16
 144              	get_glyph_dsc_id:
 145              	.LVL10:
 146              	.LFB28:
 209:Middlewares/lvgl/src/font/lv_font_fmt_txt.c ****     if(letter == '\0') return 0;
 147              		.loc 1 209 1 is_stmt 1 view -0
 148              		.cfi_startproc
 149              		@ args = 0, pretend = 0, frame = 8
 150              		@ frame_needed = 0, uses_anonymous_args = 0
 209:Middlewares/lvgl/src/font/lv_font_fmt_txt.c ****     if(letter == '\0') return 0;
 151              		.loc 1 209 1 is_stmt 0 view .LVU36
 152 0000 F0B5     		push	{r4, r5, r6, r7, lr}
 153              	.LCFI0:
ARM GAS  /tmp/cc8ecAmv.s 			page 14


 154              		.cfi_def_cfa_offset 20
 155              		.cfi_offset 4, -20
 156              		.cfi_offset 5, -16
 157              		.cfi_offset 6, -12
 158              		.cfi_offset 7, -8
 159              		.cfi_offset 14, -4
 160 0002 85B0     		sub	sp, sp, #20
 161              	.LCFI1:
 162              		.cfi_def_cfa_offset 40
 210:Middlewares/lvgl/src/font/lv_font_fmt_txt.c **** 
 163              		.loc 1 210 5 is_stmt 1 view .LVU37
 210:Middlewares/lvgl/src/font/lv_font_fmt_txt.c **** 
 164              		.loc 1 210 7 is_stmt 0 view .LVU38
 165 0004 0D46     		mov	r5, r1
 166 0006 0029     		cmp	r1, #0
 167 0008 6AD0     		beq	.L20
 212:Middlewares/lvgl/src/font/lv_font_fmt_txt.c **** 
 168              		.loc 1 212 5 is_stmt 1 view .LVU39
 212:Middlewares/lvgl/src/font/lv_font_fmt_txt.c **** 
 169              		.loc 1 212 29 is_stmt 0 view .LVU40
 170 000a 0469     		ldr	r4, [r0, #16]
 171              	.LVL11:
 215:Middlewares/lvgl/src/font/lv_font_fmt_txt.c **** 
 172              		.loc 1 215 5 is_stmt 1 view .LVU41
 215:Middlewares/lvgl/src/font/lv_font_fmt_txt.c **** 
 173              		.loc 1 215 12 is_stmt 0 view .LVU42
 174 000c 6769     		ldr	r7, [r4, #20]
 215:Middlewares/lvgl/src/font/lv_font_fmt_txt.c **** 
 175              		.loc 1 215 7 view .LVU43
 176 000e 002F     		cmp	r7, #0
 177 0010 5ED0     		beq	.L21
 215:Middlewares/lvgl/src/font/lv_font_fmt_txt.c **** 
 178              		.loc 1 215 44 discriminator 1 view .LVU44
 179 0012 3B68     		ldr	r3, [r7]
 215:Middlewares/lvgl/src/font/lv_font_fmt_txt.c **** 
 180              		.loc 1 215 20 discriminator 1 view .LVU45
 181 0014 8B42     		cmp	r3, r1
 182 0016 19D0     		beq	.L28
 183 0018 0022     		movs	r2, #0
 184              	.LVL12:
 185              	.L12:
 218:Middlewares/lvgl/src/font/lv_font_fmt_txt.c **** 
 186              		.loc 1 218 16 is_stmt 1 discriminator 1 view .LVU46
 218:Middlewares/lvgl/src/font/lv_font_fmt_txt.c **** 
 187              		.loc 1 218 24 is_stmt 0 discriminator 1 view .LVU47
 188 001a 638A     		ldrh	r3, [r4, #18]
 189 001c C3F30803 		ubfx	r3, r3, #0, #9
 218:Middlewares/lvgl/src/font/lv_font_fmt_txt.c **** 
 190              		.loc 1 218 5 discriminator 1 view .LVU48
 191 0020 9342     		cmp	r3, r2
 192 0022 57D9     		bls	.L29
 193              	.LBB2:
 221:Middlewares/lvgl/src/font/lv_font_fmt_txt.c ****         if(rcp > fdsc->cmaps[i].range_length) continue;
 194              		.loc 1 221 9 is_stmt 1 view .LVU49
 221:Middlewares/lvgl/src/font/lv_font_fmt_txt.c ****         if(rcp > fdsc->cmaps[i].range_length) continue;
 195              		.loc 1 221 37 is_stmt 0 view .LVU50
 196 0024 A168     		ldr	r1, [r4, #8]
ARM GAS  /tmp/cc8ecAmv.s 			page 15


 221:Middlewares/lvgl/src/font/lv_font_fmt_txt.c ****         if(rcp > fdsc->cmaps[i].range_length) continue;
 197              		.loc 1 221 44 view .LVU51
 198 0026 02EB8203 		add	r3, r2, r2, lsl #2
 199 002a 9E00     		lsls	r6, r3, #2
 200 002c 01EB8303 		add	r3, r1, r3, lsl #2
 221:Middlewares/lvgl/src/font/lv_font_fmt_txt.c ****         if(rcp > fdsc->cmaps[i].range_length) continue;
 201              		.loc 1 221 47 view .LVU52
 202 0030 8859     		ldr	r0, [r1, r6]
 221:Middlewares/lvgl/src/font/lv_font_fmt_txt.c ****         if(rcp > fdsc->cmaps[i].range_length) continue;
 203              		.loc 1 221 18 view .LVU53
 204 0032 281A     		subs	r0, r5, r0
 205              	.LVL13:
 222:Middlewares/lvgl/src/font/lv_font_fmt_txt.c ****         uint32_t glyph_id = 0;
 206              		.loc 1 222 9 is_stmt 1 view .LVU54
 222:Middlewares/lvgl/src/font/lv_font_fmt_txt.c ****         uint32_t glyph_id = 0;
 207              		.loc 1 222 32 is_stmt 0 view .LVU55
 208 0034 9988     		ldrh	r1, [r3, #4]
 222:Middlewares/lvgl/src/font/lv_font_fmt_txt.c ****         uint32_t glyph_id = 0;
 209              		.loc 1 222 11 view .LVU56
 210 0036 8142     		cmp	r1, r0
 211 0038 0AD3     		bcc	.L30
 223:Middlewares/lvgl/src/font/lv_font_fmt_txt.c ****         if(fdsc->cmaps[i].type == LV_FONT_FMT_TXT_CMAP_FORMAT0_TINY) {
 212              		.loc 1 223 9 is_stmt 1 view .LVU57
 213              	.LVL14:
 224:Middlewares/lvgl/src/font/lv_font_fmt_txt.c ****             glyph_id = fdsc->cmaps[i].glyph_id_start + rcp;
 214              		.loc 1 224 9 view .LVU58
 224:Middlewares/lvgl/src/font/lv_font_fmt_txt.c ****             glyph_id = fdsc->cmaps[i].glyph_id_start + rcp;
 215              		.loc 1 224 26 is_stmt 0 view .LVU59
 216 003a 9A7C     		ldrb	r2, [r3, #18]	@ zero_extendqisi2
 217              	.LVL15:
 224:Middlewares/lvgl/src/font/lv_font_fmt_txt.c ****             glyph_id = fdsc->cmaps[i].glyph_id_start + rcp;
 218              		.loc 1 224 11 view .LVU60
 219 003c 022A     		cmp	r2, #2
 220 003e 0AD0     		beq	.L31
 227:Middlewares/lvgl/src/font/lv_font_fmt_txt.c ****             const uint8_t * gid_ofs_8 = fdsc->cmaps[i].glyph_id_ofs_list;
 221              		.loc 1 227 14 is_stmt 1 view .LVU61
 227:Middlewares/lvgl/src/font/lv_font_fmt_txt.c ****             const uint8_t * gid_ofs_8 = fdsc->cmaps[i].glyph_id_ofs_list;
 222              		.loc 1 227 16 is_stmt 0 view .LVU62
 223 0040 92B9     		cbnz	r2, .L15
 224              	.LBB3:
 228:Middlewares/lvgl/src/font/lv_font_fmt_txt.c ****             glyph_id = fdsc->cmaps[i].glyph_id_start + gid_ofs_8[rcp];
 225              		.loc 1 228 13 is_stmt 1 view .LVU63
 228:Middlewares/lvgl/src/font/lv_font_fmt_txt.c ****             glyph_id = fdsc->cmaps[i].glyph_id_start + gid_ofs_8[rcp];
 226              		.loc 1 228 29 is_stmt 0 view .LVU64
 227 0042 DA68     		ldr	r2, [r3, #12]
 228              	.LVL16:
 229:Middlewares/lvgl/src/font/lv_font_fmt_txt.c ****         }
 229              		.loc 1 229 13 is_stmt 1 view .LVU65
 229:Middlewares/lvgl/src/font/lv_font_fmt_txt.c ****         }
 230              		.loc 1 229 38 is_stmt 0 view .LVU66
 231 0044 DB88     		ldrh	r3, [r3, #6]
 229:Middlewares/lvgl/src/font/lv_font_fmt_txt.c ****         }
 232              		.loc 1 229 65 view .LVU67
 233 0046 105C     		ldrb	r0, [r2, r0]	@ zero_extendqisi2
 234              	.LVL17:
 229:Middlewares/lvgl/src/font/lv_font_fmt_txt.c ****         }
 235              		.loc 1 229 54 view .LVU68
ARM GAS  /tmp/cc8ecAmv.s 			page 16


 236 0048 1844     		add	r0, r0, r3
 237              	.LVL18:
 229:Middlewares/lvgl/src/font/lv_font_fmt_txt.c ****         }
 238              		.loc 1 229 54 view .LVU69
 239              	.LBE3:
 240 004a 06E0     		b	.L14
 241              	.LVL19:
 242              	.L28:
 229:Middlewares/lvgl/src/font/lv_font_fmt_txt.c ****         }
 243              		.loc 1 229 54 view .LVU70
 244              	.LBE2:
 215:Middlewares/lvgl/src/font/lv_font_fmt_txt.c **** 
 245              		.loc 1 215 59 is_stmt 1 discriminator 2 view .LVU71
 215:Middlewares/lvgl/src/font/lv_font_fmt_txt.c **** 
 246              		.loc 1 215 77 is_stmt 0 discriminator 2 view .LVU72
 247 004c 7868     		ldr	r0, [r7, #4]
 248              	.LVL20:
 215:Middlewares/lvgl/src/font/lv_font_fmt_txt.c **** 
 249              		.loc 1 215 77 discriminator 2 view .LVU73
 250 004e 09E0     		b	.L8
 251              	.LVL21:
 252              	.L30:
 253              	.LBB8:
 222:Middlewares/lvgl/src/font/lv_font_fmt_txt.c ****         uint32_t glyph_id = 0;
 254              		.loc 1 222 47 is_stmt 1 discriminator 1 view .LVU74
 255              	.LBE8:
 218:Middlewares/lvgl/src/font/lv_font_fmt_txt.c **** 
 256              		.loc 1 218 36 discriminator 1 view .LVU75
 218:Middlewares/lvgl/src/font/lv_font_fmt_txt.c **** 
 257              		.loc 1 218 37 is_stmt 0 discriminator 1 view .LVU76
 258 0050 0132     		adds	r2, r2, #1
 259              	.LVL22:
 218:Middlewares/lvgl/src/font/lv_font_fmt_txt.c **** 
 260              		.loc 1 218 37 discriminator 1 view .LVU77
 261 0052 92B2     		uxth	r2, r2
 262              	.LVL23:
 218:Middlewares/lvgl/src/font/lv_font_fmt_txt.c **** 
 263              		.loc 1 218 37 discriminator 1 view .LVU78
 264 0054 E1E7     		b	.L12
 265              	.LVL24:
 266              	.L31:
 267              	.LBB9:
 225:Middlewares/lvgl/src/font/lv_font_fmt_txt.c ****         }
 268              		.loc 1 225 13 is_stmt 1 view .LVU79
 225:Middlewares/lvgl/src/font/lv_font_fmt_txt.c ****         }
 269              		.loc 1 225 38 is_stmt 0 view .LVU80
 270 0056 DB88     		ldrh	r3, [r3, #6]
 225:Middlewares/lvgl/src/font/lv_font_fmt_txt.c ****         }
 271              		.loc 1 225 22 view .LVU81
 272 0058 1844     		add	r0, r0, r3
 273              	.LVL25:
 274              	.L14:
 254:Middlewares/lvgl/src/font/lv_font_fmt_txt.c ****             fdsc->cache->last_letter = letter;
 275              		.loc 1 254 9 is_stmt 1 view .LVU82
 254:Middlewares/lvgl/src/font/lv_font_fmt_txt.c ****             fdsc->cache->last_letter = letter;
 276              		.loc 1 254 16 is_stmt 0 view .LVU83
 277 005a 6369     		ldr	r3, [r4, #20]
ARM GAS  /tmp/cc8ecAmv.s 			page 17


 254:Middlewares/lvgl/src/font/lv_font_fmt_txt.c ****             fdsc->cache->last_letter = letter;
 278              		.loc 1 254 11 view .LVU84
 279 005c 13B1     		cbz	r3, .L8
 255:Middlewares/lvgl/src/font/lv_font_fmt_txt.c ****             fdsc->cache->last_glyph_id = glyph_id;
 280              		.loc 1 255 13 is_stmt 1 view .LVU85
 255:Middlewares/lvgl/src/font/lv_font_fmt_txt.c ****             fdsc->cache->last_glyph_id = glyph_id;
 281              		.loc 1 255 38 is_stmt 0 view .LVU86
 282 005e 1D60     		str	r5, [r3]
 256:Middlewares/lvgl/src/font/lv_font_fmt_txt.c ****         }
 283              		.loc 1 256 13 is_stmt 1 view .LVU87
 256:Middlewares/lvgl/src/font/lv_font_fmt_txt.c ****         }
 284              		.loc 1 256 17 is_stmt 0 view .LVU88
 285 0060 6369     		ldr	r3, [r4, #20]
 256:Middlewares/lvgl/src/font/lv_font_fmt_txt.c ****         }
 286              		.loc 1 256 40 view .LVU89
 287 0062 5860     		str	r0, [r3, #4]
 288              	.LVL26:
 289              	.L8:
 256:Middlewares/lvgl/src/font/lv_font_fmt_txt.c ****         }
 290              		.loc 1 256 40 view .LVU90
 291              	.LBE9:
 267:Middlewares/lvgl/src/font/lv_font_fmt_txt.c **** 
 292              		.loc 1 267 1 view .LVU91
 293 0064 05B0     		add	sp, sp, #20
 294              	.LCFI2:
 295              		.cfi_remember_state
 296              		.cfi_def_cfa_offset 20
 297              		@ sp needed
 298 0066 F0BD     		pop	{r4, r5, r6, r7, pc}
 299              	.LVL27:
 300              	.L15:
 301              	.LCFI3:
 302              		.cfi_restore_state
 303              	.LBB10:
 231:Middlewares/lvgl/src/font/lv_font_fmt_txt.c ****             uint16_t key = rcp;
 304              		.loc 1 231 14 is_stmt 1 view .LVU92
 231:Middlewares/lvgl/src/font/lv_font_fmt_txt.c ****             uint16_t key = rcp;
 305              		.loc 1 231 16 is_stmt 0 view .LVU93
 306 0068 032A     		cmp	r2, #3
 307 006a 03D0     		beq	.L32
 241:Middlewares/lvgl/src/font/lv_font_fmt_txt.c ****             uint16_t key = rcp;
 308              		.loc 1 241 14 is_stmt 1 view .LVU94
 241:Middlewares/lvgl/src/font/lv_font_fmt_txt.c ****             uint16_t key = rcp;
 309              		.loc 1 241 16 is_stmt 0 view .LVU95
 310 006c 012A     		cmp	r2, #1
 311 006e 18D0     		beq	.L33
 223:Middlewares/lvgl/src/font/lv_font_fmt_txt.c ****         if(fdsc->cmaps[i].type == LV_FONT_FMT_TXT_CMAP_FORMAT0_TINY) {
 312              		.loc 1 223 18 view .LVU96
 313 0070 0020     		movs	r0, #0
 314              	.LVL28:
 223:Middlewares/lvgl/src/font/lv_font_fmt_txt.c ****         if(fdsc->cmaps[i].type == LV_FONT_FMT_TXT_CMAP_FORMAT0_TINY) {
 315              		.loc 1 223 18 view .LVU97
 316 0072 F2E7     		b	.L14
 317              	.LVL29:
 318              	.L32:
 319              	.LBB4:
 232:Middlewares/lvgl/src/font/lv_font_fmt_txt.c ****             uint16_t * p = _lv_utils_bsearch(&key, fdsc->cmaps[i].unicode_list, fdsc->cmaps[i].list
ARM GAS  /tmp/cc8ecAmv.s 			page 18


 320              		.loc 1 232 13 is_stmt 1 view .LVU98
 232:Middlewares/lvgl/src/font/lv_font_fmt_txt.c ****             uint16_t * p = _lv_utils_bsearch(&key, fdsc->cmaps[i].unicode_list, fdsc->cmaps[i].list
 321              		.loc 1 232 22 is_stmt 0 view .LVU99
 322 0074 ADF80E00 		strh	r0, [sp, #14]	@ movhi
 233:Middlewares/lvgl/src/font/lv_font_fmt_txt.c ****                                              sizeof(fdsc->cmaps[i].unicode_list[0]), unicode_list_c
 323              		.loc 1 233 13 is_stmt 1 view .LVU100
 233:Middlewares/lvgl/src/font/lv_font_fmt_txt.c ****                                              sizeof(fdsc->cmaps[i].unicode_list[0]), unicode_list_c
 324              		.loc 1 233 66 is_stmt 0 view .LVU101
 325 0078 9968     		ldr	r1, [r3, #8]
 233:Middlewares/lvgl/src/font/lv_font_fmt_txt.c ****                                              sizeof(fdsc->cmaps[i].unicode_list[0]), unicode_list_c
 326              		.loc 1 233 95 view .LVU102
 327 007a 1A8A     		ldrh	r2, [r3, #16]
 233:Middlewares/lvgl/src/font/lv_font_fmt_txt.c ****                                              sizeof(fdsc->cmaps[i].unicode_list[0]), unicode_list_c
 328              		.loc 1 233 28 view .LVU103
 329 007c 1A4B     		ldr	r3, .L34
 330 007e 0093     		str	r3, [sp]
 331 0080 0223     		movs	r3, #2
 332 0082 0DF10E00 		add	r0, sp, #14
 333              	.LVL30:
 233:Middlewares/lvgl/src/font/lv_font_fmt_txt.c ****                                              sizeof(fdsc->cmaps[i].unicode_list[0]), unicode_list_c
 334              		.loc 1 233 28 view .LVU104
 335 0086 FFF7FEFF 		bl	_lv_utils_bsearch
 336              	.LVL31:
 236:Middlewares/lvgl/src/font/lv_font_fmt_txt.c ****                 lv_uintptr_t ofs = p - fdsc->cmaps[i].unicode_list;
 337              		.loc 1 236 13 is_stmt 1 view .LVU105
 236:Middlewares/lvgl/src/font/lv_font_fmt_txt.c ****                 lv_uintptr_t ofs = p - fdsc->cmaps[i].unicode_list;
 338              		.loc 1 236 15 is_stmt 0 view .LVU106
 339 008a 0246     		mov	r2, r0
 340 008c 38B1     		cbz	r0, .L23
 341              	.LBB5:
 237:Middlewares/lvgl/src/font/lv_font_fmt_txt.c ****                 glyph_id = fdsc->cmaps[i].glyph_id_start + ofs;
 342              		.loc 1 237 17 is_stmt 1 view .LVU107
 237:Middlewares/lvgl/src/font/lv_font_fmt_txt.c ****                 glyph_id = fdsc->cmaps[i].glyph_id_start + ofs;
 343              		.loc 1 237 44 is_stmt 0 view .LVU108
 344 008e A368     		ldr	r3, [r4, #8]
 237:Middlewares/lvgl/src/font/lv_font_fmt_txt.c ****                 glyph_id = fdsc->cmaps[i].glyph_id_start + ofs;
 345              		.loc 1 237 51 view .LVU109
 346 0090 1E44     		add	r6, r6, r3
 237:Middlewares/lvgl/src/font/lv_font_fmt_txt.c ****                 glyph_id = fdsc->cmaps[i].glyph_id_start + ofs;
 347              		.loc 1 237 54 view .LVU110
 348 0092 B068     		ldr	r0, [r6, #8]
 349              	.LVL32:
 237:Middlewares/lvgl/src/font/lv_font_fmt_txt.c ****                 glyph_id = fdsc->cmaps[i].glyph_id_start + ofs;
 350              		.loc 1 237 38 view .LVU111
 351 0094 121A     		subs	r2, r2, r0
 352              	.LVL33:
 238:Middlewares/lvgl/src/font/lv_font_fmt_txt.c ****             }
 353              		.loc 1 238 17 is_stmt 1 view .LVU112
 238:Middlewares/lvgl/src/font/lv_font_fmt_txt.c ****             }
 354              		.loc 1 238 42 is_stmt 0 view .LVU113
 355 0096 F088     		ldrh	r0, [r6, #6]
 238:Middlewares/lvgl/src/font/lv_font_fmt_txt.c ****             }
 356              		.loc 1 238 26 view .LVU114
 357 0098 00EB6200 		add	r0, r0, r2, asr #1
 358              	.LVL34:
 238:Middlewares/lvgl/src/font/lv_font_fmt_txt.c ****             }
 359              		.loc 1 238 26 view .LVU115
ARM GAS  /tmp/cc8ecAmv.s 			page 19


 360 009c DDE7     		b	.L14
 361              	.LVL35:
 362              	.L23:
 238:Middlewares/lvgl/src/font/lv_font_fmt_txt.c ****             }
 363              		.loc 1 238 26 view .LVU116
 364              	.LBE5:
 365              	.LBE4:
 223:Middlewares/lvgl/src/font/lv_font_fmt_txt.c ****         if(fdsc->cmaps[i].type == LV_FONT_FMT_TXT_CMAP_FORMAT0_TINY) {
 366              		.loc 1 223 18 view .LVU117
 367 009e 0020     		movs	r0, #0
 368              	.LVL36:
 223:Middlewares/lvgl/src/font/lv_font_fmt_txt.c ****         if(fdsc->cmaps[i].type == LV_FONT_FMT_TXT_CMAP_FORMAT0_TINY) {
 369              		.loc 1 223 18 view .LVU118
 370 00a0 DBE7     		b	.L14
 371              	.LVL37:
 372              	.L33:
 373              	.LBB6:
 242:Middlewares/lvgl/src/font/lv_font_fmt_txt.c ****             uint16_t * p = _lv_utils_bsearch(&key, fdsc->cmaps[i].unicode_list, fdsc->cmaps[i].list
 374              		.loc 1 242 13 is_stmt 1 view .LVU119
 242:Middlewares/lvgl/src/font/lv_font_fmt_txt.c ****             uint16_t * p = _lv_utils_bsearch(&key, fdsc->cmaps[i].unicode_list, fdsc->cmaps[i].list
 375              		.loc 1 242 22 is_stmt 0 view .LVU120
 376 00a2 ADF80E00 		strh	r0, [sp, #14]	@ movhi
 243:Middlewares/lvgl/src/font/lv_font_fmt_txt.c ****                                              sizeof(fdsc->cmaps[i].unicode_list[0]), unicode_list_c
 377              		.loc 1 243 13 is_stmt 1 view .LVU121
 243:Middlewares/lvgl/src/font/lv_font_fmt_txt.c ****                                              sizeof(fdsc->cmaps[i].unicode_list[0]), unicode_list_c
 378              		.loc 1 243 66 is_stmt 0 view .LVU122
 379 00a6 9968     		ldr	r1, [r3, #8]
 243:Middlewares/lvgl/src/font/lv_font_fmt_txt.c ****                                              sizeof(fdsc->cmaps[i].unicode_list[0]), unicode_list_c
 380              		.loc 1 243 95 view .LVU123
 381 00a8 1A8A     		ldrh	r2, [r3, #16]
 243:Middlewares/lvgl/src/font/lv_font_fmt_txt.c ****                                              sizeof(fdsc->cmaps[i].unicode_list[0]), unicode_list_c
 382              		.loc 1 243 28 view .LVU124
 383 00aa 0F4B     		ldr	r3, .L34
 384 00ac 0093     		str	r3, [sp]
 385 00ae 0223     		movs	r3, #2
 386 00b0 0DF10E00 		add	r0, sp, #14
 387              	.LVL38:
 243:Middlewares/lvgl/src/font/lv_font_fmt_txt.c ****                                              sizeof(fdsc->cmaps[i].unicode_list[0]), unicode_list_c
 388              		.loc 1 243 28 view .LVU125
 389 00b4 FFF7FEFF 		bl	_lv_utils_bsearch
 390              	.LVL39:
 246:Middlewares/lvgl/src/font/lv_font_fmt_txt.c ****                 lv_uintptr_t ofs = p - fdsc->cmaps[i].unicode_list;
 391              		.loc 1 246 13 is_stmt 1 view .LVU126
 246:Middlewares/lvgl/src/font/lv_font_fmt_txt.c ****                 lv_uintptr_t ofs = p - fdsc->cmaps[i].unicode_list;
 392              		.loc 1 246 15 is_stmt 0 view .LVU127
 393 00b8 40B1     		cbz	r0, .L25
 394              	.LBB7:
 247:Middlewares/lvgl/src/font/lv_font_fmt_txt.c ****                 const uint16_t * gid_ofs_16 = fdsc->cmaps[i].glyph_id_ofs_list;
 395              		.loc 1 247 17 is_stmt 1 view .LVU128
 247:Middlewares/lvgl/src/font/lv_font_fmt_txt.c ****                 const uint16_t * gid_ofs_16 = fdsc->cmaps[i].glyph_id_ofs_list;
 396              		.loc 1 247 44 is_stmt 0 view .LVU129
 397 00ba A368     		ldr	r3, [r4, #8]
 247:Middlewares/lvgl/src/font/lv_font_fmt_txt.c ****                 const uint16_t * gid_ofs_16 = fdsc->cmaps[i].glyph_id_ofs_list;
 398              		.loc 1 247 51 view .LVU130
 399 00bc 1E44     		add	r6, r6, r3
 247:Middlewares/lvgl/src/font/lv_font_fmt_txt.c ****                 const uint16_t * gid_ofs_16 = fdsc->cmaps[i].glyph_id_ofs_list;
 400              		.loc 1 247 54 view .LVU131
ARM GAS  /tmp/cc8ecAmv.s 			page 20


 401 00be B368     		ldr	r3, [r6, #8]
 247:Middlewares/lvgl/src/font/lv_font_fmt_txt.c ****                 const uint16_t * gid_ofs_16 = fdsc->cmaps[i].glyph_id_ofs_list;
 402              		.loc 1 247 38 view .LVU132
 403 00c0 C21A     		subs	r2, r0, r3
 404              	.LVL40:
 248:Middlewares/lvgl/src/font/lv_font_fmt_txt.c ****                 glyph_id = fdsc->cmaps[i].glyph_id_start + gid_ofs_16[ofs];
 405              		.loc 1 248 17 is_stmt 1 view .LVU133
 248:Middlewares/lvgl/src/font/lv_font_fmt_txt.c ****                 glyph_id = fdsc->cmaps[i].glyph_id_start + gid_ofs_16[ofs];
 406              		.loc 1 248 34 is_stmt 0 view .LVU134
 407 00c2 F368     		ldr	r3, [r6, #12]
 408              	.LVL41:
 249:Middlewares/lvgl/src/font/lv_font_fmt_txt.c ****             }
 409              		.loc 1 249 17 is_stmt 1 view .LVU135
 249:Middlewares/lvgl/src/font/lv_font_fmt_txt.c ****             }
 410              		.loc 1 249 42 is_stmt 0 view .LVU136
 411 00c4 F088     		ldrh	r0, [r6, #6]
 412              	.LVL42:
 249:Middlewares/lvgl/src/font/lv_font_fmt_txt.c ****             }
 413              		.loc 1 249 70 view .LVU137
 414 00c6 9B5A     		ldrh	r3, [r3, r2]
 415              	.LVL43:
 249:Middlewares/lvgl/src/font/lv_font_fmt_txt.c ****             }
 416              		.loc 1 249 58 view .LVU138
 417 00c8 1844     		add	r0, r0, r3
 418              	.LVL44:
 249:Middlewares/lvgl/src/font/lv_font_fmt_txt.c ****             }
 419              		.loc 1 249 58 view .LVU139
 420 00ca C6E7     		b	.L14
 421              	.LVL45:
 422              	.L25:
 249:Middlewares/lvgl/src/font/lv_font_fmt_txt.c ****             }
 423              		.loc 1 249 58 view .LVU140
 424              	.LBE7:
 425              	.LBE6:
 223:Middlewares/lvgl/src/font/lv_font_fmt_txt.c ****         if(fdsc->cmaps[i].type == LV_FONT_FMT_TXT_CMAP_FORMAT0_TINY) {
 426              		.loc 1 223 18 view .LVU141
 427 00cc 0020     		movs	r0, #0
 428              	.LVL46:
 223:Middlewares/lvgl/src/font/lv_font_fmt_txt.c ****         if(fdsc->cmaps[i].type == LV_FONT_FMT_TXT_CMAP_FORMAT0_TINY) {
 429              		.loc 1 223 18 view .LVU142
 430 00ce C4E7     		b	.L14
 431              	.LVL47:
 432              	.L21:
 223:Middlewares/lvgl/src/font/lv_font_fmt_txt.c ****         if(fdsc->cmaps[i].type == LV_FONT_FMT_TXT_CMAP_FORMAT0_TINY) {
 433              		.loc 1 223 18 view .LVU143
 434              	.LBE10:
 435 00d0 0022     		movs	r2, #0
 436 00d2 A2E7     		b	.L12
 437              	.LVL48:
 438              	.L29:
 261:Middlewares/lvgl/src/font/lv_font_fmt_txt.c ****         fdsc->cache->last_letter = letter;
 439              		.loc 1 261 5 is_stmt 1 view .LVU144
 261:Middlewares/lvgl/src/font/lv_font_fmt_txt.c ****         fdsc->cache->last_letter = letter;
 440              		.loc 1 261 7 is_stmt 0 view .LVU145
 441 00d4 37B1     		cbz	r7, .L26
 262:Middlewares/lvgl/src/font/lv_font_fmt_txt.c ****         fdsc->cache->last_glyph_id = 0;
 442              		.loc 1 262 9 is_stmt 1 view .LVU146
ARM GAS  /tmp/cc8ecAmv.s 			page 21


 262:Middlewares/lvgl/src/font/lv_font_fmt_txt.c ****         fdsc->cache->last_glyph_id = 0;
 443              		.loc 1 262 34 is_stmt 0 view .LVU147
 444 00d6 3D60     		str	r5, [r7]
 263:Middlewares/lvgl/src/font/lv_font_fmt_txt.c ****     }
 445              		.loc 1 263 9 is_stmt 1 view .LVU148
 263:Middlewares/lvgl/src/font/lv_font_fmt_txt.c ****     }
 446              		.loc 1 263 13 is_stmt 0 view .LVU149
 447 00d8 6369     		ldr	r3, [r4, #20]
 263:Middlewares/lvgl/src/font/lv_font_fmt_txt.c ****     }
 448              		.loc 1 263 36 view .LVU150
 449 00da 0020     		movs	r0, #0
 450 00dc 5860     		str	r0, [r3, #4]
 451 00de C1E7     		b	.L8
 452              	.LVL49:
 453              	.L20:
 210:Middlewares/lvgl/src/font/lv_font_fmt_txt.c **** 
 454              		.loc 1 210 31 view .LVU151
 455 00e0 0846     		mov	r0, r1
 456              	.LVL50:
 210:Middlewares/lvgl/src/font/lv_font_fmt_txt.c **** 
 457              		.loc 1 210 31 view .LVU152
 458 00e2 BFE7     		b	.L8
 459              	.LVL51:
 460              	.L26:
 265:Middlewares/lvgl/src/font/lv_font_fmt_txt.c **** 
 461              		.loc 1 265 12 view .LVU153
 462 00e4 0020     		movs	r0, #0
 463 00e6 BDE7     		b	.L8
 464              	.L35:
 465              		.align	2
 466              	.L34:
 467 00e8 00000000 		.word	unicode_list_compare
 468              		.cfi_endproc
 469              	.LFE28:
 471              		.section	.text.get_kern_value,"ax",%progbits
 472              		.align	1
 473              		.syntax unified
 474              		.thumb
 475              		.thumb_func
 476              		.fpu fpv5-d16
 478              	get_kern_value:
 479              	.LVL52:
 480              	.LFB29:
 270:Middlewares/lvgl/src/font/lv_font_fmt_txt.c ****     lv_font_fmt_txt_dsc_t * fdsc = (lv_font_fmt_txt_dsc_t *)font->dsc;
 481              		.loc 1 270 1 is_stmt 1 view -0
 482              		.cfi_startproc
 483              		@ args = 0, pretend = 0, frame = 8
 484              		@ frame_needed = 0, uses_anonymous_args = 0
 271:Middlewares/lvgl/src/font/lv_font_fmt_txt.c **** 
 485              		.loc 1 271 5 view .LVU155
 271:Middlewares/lvgl/src/font/lv_font_fmt_txt.c **** 
 486              		.loc 1 271 29 is_stmt 0 view .LVU156
 487 0000 0369     		ldr	r3, [r0, #16]
 488              	.LVL53:
 273:Middlewares/lvgl/src/font/lv_font_fmt_txt.c **** 
 489              		.loc 1 273 5 is_stmt 1 view .LVU157
 275:Middlewares/lvgl/src/font/lv_font_fmt_txt.c ****         /*Kern pairs*/
ARM GAS  /tmp/cc8ecAmv.s 			page 22


 490              		.loc 1 275 5 view .LVU158
 275:Middlewares/lvgl/src/font/lv_font_fmt_txt.c ****         /*Kern pairs*/
 491              		.loc 1 275 27 is_stmt 0 view .LVU159
 492 0002 D87C     		ldrb	r0, [r3, #19]	@ zero_extendqisi2
 493              	.LVL54:
 275:Middlewares/lvgl/src/font/lv_font_fmt_txt.c ****         /*Kern pairs*/
 494              		.loc 1 275 7 view .LVU160
 495 0004 10F0200F 		tst	r0, #32
 496 0008 39D1     		bne	.L37
 270:Middlewares/lvgl/src/font/lv_font_fmt_txt.c ****     lv_font_fmt_txt_dsc_t * fdsc = (lv_font_fmt_txt_dsc_t *)font->dsc;
 497              		.loc 1 270 1 view .LVU161
 498 000a 30B5     		push	{r4, r5, lr}
 499              	.LCFI4:
 500              		.cfi_def_cfa_offset 12
 501              		.cfi_offset 4, -12
 502              		.cfi_offset 5, -8
 503              		.cfi_offset 14, -4
 504 000c 85B0     		sub	sp, sp, #20
 505              	.LCFI5:
 506              		.cfi_def_cfa_offset 32
 507              	.LBB11:
 277:Middlewares/lvgl/src/font/lv_font_fmt_txt.c ****         if(kdsc->glyph_ids_size == 0) {
 508              		.loc 1 277 9 is_stmt 1 view .LVU162
 277:Middlewares/lvgl/src/font/lv_font_fmt_txt.c ****         if(kdsc->glyph_ids_size == 0) {
 509              		.loc 1 277 45 is_stmt 0 view .LVU163
 510 000e DC68     		ldr	r4, [r3, #12]
 511              	.LVL55:
 278:Middlewares/lvgl/src/font/lv_font_fmt_txt.c ****             /*Use binary search to find the kern value.
 512              		.loc 1 278 9 is_stmt 1 view .LVU164
 278:Middlewares/lvgl/src/font/lv_font_fmt_txt.c ****             /*Use binary search to find the kern value.
 513              		.loc 1 278 33 is_stmt 0 view .LVU165
 514 0010 E37A     		ldrb	r3, [r4, #11]	@ zero_extendqisi2
 515              	.LVL56:
 278:Middlewares/lvgl/src/font/lv_font_fmt_txt.c ****             /*Use binary search to find the kern value.
 516              		.loc 1 278 11 view .LVU166
 517 0012 13F0C003 		ands	r3, r3, #192
 518 0016 04D0     		beq	.L50
 291:Middlewares/lvgl/src/font/lv_font_fmt_txt.c ****             /*Use binary search to find the kern value.
 519              		.loc 1 291 14 is_stmt 1 view .LVU167
 291:Middlewares/lvgl/src/font/lv_font_fmt_txt.c ****             /*Use binary search to find the kern value.
 520              		.loc 1 291 16 is_stmt 0 view .LVU168
 521 0018 402B     		cmp	r3, #64
 522 001a 1AD0     		beq	.L51
 523              	.LBE11:
 273:Middlewares/lvgl/src/font/lv_font_fmt_txt.c **** 
 524              		.loc 1 273 12 view .LVU169
 525 001c 0020     		movs	r0, #0
 526              	.LVL57:
 527              	.L40:
 322:Middlewares/lvgl/src/font/lv_font_fmt_txt.c **** }
 528              		.loc 1 322 5 is_stmt 1 view .LVU170
 323:Middlewares/lvgl/src/font/lv_font_fmt_txt.c **** 
 529              		.loc 1 323 1 is_stmt 0 view .LVU171
 530 001e 05B0     		add	sp, sp, #20
 531              	.LCFI6:
 532              		.cfi_remember_state
 533              		.cfi_def_cfa_offset 12
ARM GAS  /tmp/cc8ecAmv.s 			page 23


 534              		@ sp needed
 535 0020 30BD     		pop	{r4, r5, pc}
 536              	.LVL58:
 537              	.L50:
 538              	.LCFI7:
 539              		.cfi_restore_state
 540              	.LBB16:
 541              	.LBB12:
 281:Middlewares/lvgl/src/font/lv_font_fmt_txt.c ****             uint16_t g_id_both = (gid_right << 8) + gid_left; /*Create one number from the ids*/
 542              		.loc 1 281 13 is_stmt 1 view .LVU172
 281:Middlewares/lvgl/src/font/lv_font_fmt_txt.c ****             uint16_t g_id_both = (gid_right << 8) + gid_left; /*Create one number from the ids*/
 543              		.loc 1 281 30 is_stmt 0 view .LVU173
 544 0022 2568     		ldr	r5, [r4]
 545              	.LVL59:
 282:Middlewares/lvgl/src/font/lv_font_fmt_txt.c ****             uint16_t * kid_p = _lv_utils_bsearch(&g_id_both, g_ids, kdsc->pair_cnt, 2, kern_pair_8_
 546              		.loc 1 282 13 is_stmt 1 view .LVU174
 282:Middlewares/lvgl/src/font/lv_font_fmt_txt.c ****             uint16_t * kid_p = _lv_utils_bsearch(&g_id_both, g_ids, kdsc->pair_cnt, 2, kern_pair_8_
 547              		.loc 1 282 45 is_stmt 0 view .LVU175
 548 0024 1202     		lsls	r2, r2, #8
 549              	.LVL60:
 282:Middlewares/lvgl/src/font/lv_font_fmt_txt.c ****             uint16_t * kid_p = _lv_utils_bsearch(&g_id_both, g_ids, kdsc->pair_cnt, 2, kern_pair_8_
 550              		.loc 1 282 45 view .LVU176
 551 0026 93B2     		uxth	r3, r2
 282:Middlewares/lvgl/src/font/lv_font_fmt_txt.c ****             uint16_t * kid_p = _lv_utils_bsearch(&g_id_both, g_ids, kdsc->pair_cnt, 2, kern_pair_8_
 552              		.loc 1 282 51 view .LVU177
 553 0028 5A18     		adds	r2, r3, r1
 282:Middlewares/lvgl/src/font/lv_font_fmt_txt.c ****             uint16_t * kid_p = _lv_utils_bsearch(&g_id_both, g_ids, kdsc->pair_cnt, 2, kern_pair_8_
 554              		.loc 1 282 22 view .LVU178
 555 002a ADF80C20 		strh	r2, [sp, #12]	@ movhi
 556              	.LVL61:
 283:Middlewares/lvgl/src/font/lv_font_fmt_txt.c **** 
 557              		.loc 1 283 13 is_stmt 1 view .LVU179
 283:Middlewares/lvgl/src/font/lv_font_fmt_txt.c **** 
 558              		.loc 1 283 73 is_stmt 0 view .LVU180
 559 002e A268     		ldr	r2, [r4, #8]
 283:Middlewares/lvgl/src/font/lv_font_fmt_txt.c **** 
 560              		.loc 1 283 32 view .LVU181
 561 0030 1C4B     		ldr	r3, .L52
 562 0032 0093     		str	r3, [sp]
 563 0034 0223     		movs	r3, #2
 564 0036 22F04042 		bic	r2, r2, #-1073741824
 565 003a 2946     		mov	r1, r5
 566              	.LVL62:
 283:Middlewares/lvgl/src/font/lv_font_fmt_txt.c **** 
 567              		.loc 1 283 32 view .LVU182
 568 003c 03A8     		add	r0, sp, #12
 569 003e FFF7FEFF 		bl	_lv_utils_bsearch
 570              	.LVL63:
 286:Middlewares/lvgl/src/font/lv_font_fmt_txt.c ****                 lv_uintptr_t ofs = kid_p - g_ids;
 571              		.loc 1 286 13 is_stmt 1 view .LVU183
 286:Middlewares/lvgl/src/font/lv_font_fmt_txt.c ****                 lv_uintptr_t ofs = kid_p - g_ids;
 572              		.loc 1 286 15 is_stmt 0 view .LVU184
 573 0042 20B1     		cbz	r0, .L42
 574              	.LBB13:
 287:Middlewares/lvgl/src/font/lv_font_fmt_txt.c ****                 value = kdsc->values[ofs];
 575              		.loc 1 287 17 is_stmt 1 view .LVU185
 287:Middlewares/lvgl/src/font/lv_font_fmt_txt.c ****                 value = kdsc->values[ofs];
ARM GAS  /tmp/cc8ecAmv.s 			page 24


 576              		.loc 1 287 42 is_stmt 0 view .LVU186
 577 0044 431B     		subs	r3, r0, r5
 578 0046 5B10     		asrs	r3, r3, #1
 579              	.LVL64:
 288:Middlewares/lvgl/src/font/lv_font_fmt_txt.c ****             }
 580              		.loc 1 288 17 is_stmt 1 view .LVU187
 288:Middlewares/lvgl/src/font/lv_font_fmt_txt.c ****             }
 581              		.loc 1 288 29 is_stmt 0 view .LVU188
 582 0048 6268     		ldr	r2, [r4, #4]
 288:Middlewares/lvgl/src/font/lv_font_fmt_txt.c ****             }
 583              		.loc 1 288 23 view .LVU189
 584 004a D056     		ldrsb	r0, [r2, r3]
 585              	.LVL65:
 288:Middlewares/lvgl/src/font/lv_font_fmt_txt.c ****             }
 586              		.loc 1 288 23 view .LVU190
 587 004c E7E7     		b	.L40
 588              	.LVL66:
 589              	.L42:
 288:Middlewares/lvgl/src/font/lv_font_fmt_txt.c ****             }
 590              		.loc 1 288 23 view .LVU191
 591              	.LBE13:
 592              	.LBE12:
 593              	.LBE16:
 273:Middlewares/lvgl/src/font/lv_font_fmt_txt.c **** 
 594              		.loc 1 273 12 view .LVU192
 595 004e 0020     		movs	r0, #0
 596              	.LVL67:
 273:Middlewares/lvgl/src/font/lv_font_fmt_txt.c **** 
 597              		.loc 1 273 12 view .LVU193
 598 0050 E5E7     		b	.L40
 599              	.LVL68:
 600              	.L51:
 601              	.LBB17:
 602              	.LBB14:
 294:Middlewares/lvgl/src/font/lv_font_fmt_txt.c ****             uint32_t g_id_both = (gid_right << 16) + gid_left; /*Create one number from the ids*/
 603              		.loc 1 294 13 is_stmt 1 view .LVU194
 294:Middlewares/lvgl/src/font/lv_font_fmt_txt.c ****             uint32_t g_id_both = (gid_right << 16) + gid_left; /*Create one number from the ids*/
 604              		.loc 1 294 30 is_stmt 0 view .LVU195
 605 0052 2568     		ldr	r5, [r4]
 606              	.LVL69:
 295:Middlewares/lvgl/src/font/lv_font_fmt_txt.c ****             uint32_t * kid_p = _lv_utils_bsearch(&g_id_both, g_ids, kdsc->pair_cnt, 4, kern_pair_16
 607              		.loc 1 295 13 is_stmt 1 view .LVU196
 295:Middlewares/lvgl/src/font/lv_font_fmt_txt.c ****             uint32_t * kid_p = _lv_utils_bsearch(&g_id_both, g_ids, kdsc->pair_cnt, 4, kern_pair_16
 608              		.loc 1 295 52 is_stmt 0 view .LVU197
 609 0054 01EB0242 		add	r2, r1, r2, lsl #16
 610              	.LVL70:
 295:Middlewares/lvgl/src/font/lv_font_fmt_txt.c ****             uint32_t * kid_p = _lv_utils_bsearch(&g_id_both, g_ids, kdsc->pair_cnt, 4, kern_pair_16
 611              		.loc 1 295 22 view .LVU198
 612 0058 0392     		str	r2, [sp, #12]
 613              	.LVL71:
 296:Middlewares/lvgl/src/font/lv_font_fmt_txt.c **** 
 614              		.loc 1 296 13 is_stmt 1 view .LVU199
 296:Middlewares/lvgl/src/font/lv_font_fmt_txt.c **** 
 615              		.loc 1 296 73 is_stmt 0 view .LVU200
 616 005a A268     		ldr	r2, [r4, #8]
 296:Middlewares/lvgl/src/font/lv_font_fmt_txt.c **** 
 617              		.loc 1 296 32 view .LVU201
ARM GAS  /tmp/cc8ecAmv.s 			page 25


 618 005c 124B     		ldr	r3, .L52+4
 619 005e 0093     		str	r3, [sp]
 620 0060 0423     		movs	r3, #4
 621 0062 22F04042 		bic	r2, r2, #-1073741824
 622 0066 2946     		mov	r1, r5
 623              	.LVL72:
 296:Middlewares/lvgl/src/font/lv_font_fmt_txt.c **** 
 624              		.loc 1 296 32 view .LVU202
 625 0068 03A8     		add	r0, sp, #12
 626 006a FFF7FEFF 		bl	_lv_utils_bsearch
 627              	.LVL73:
 299:Middlewares/lvgl/src/font/lv_font_fmt_txt.c ****                 lv_uintptr_t ofs = kid_p - g_ids;
 628              		.loc 1 299 13 is_stmt 1 view .LVU203
 299:Middlewares/lvgl/src/font/lv_font_fmt_txt.c ****                 lv_uintptr_t ofs = kid_p - g_ids;
 629              		.loc 1 299 15 is_stmt 0 view .LVU204
 630 006e 20B1     		cbz	r0, .L44
 631              	.LBB15:
 300:Middlewares/lvgl/src/font/lv_font_fmt_txt.c ****                 value = kdsc->values[ofs];
 632              		.loc 1 300 17 is_stmt 1 view .LVU205
 300:Middlewares/lvgl/src/font/lv_font_fmt_txt.c ****                 value = kdsc->values[ofs];
 633              		.loc 1 300 42 is_stmt 0 view .LVU206
 634 0070 431B     		subs	r3, r0, r5
 635 0072 9B10     		asrs	r3, r3, #2
 636              	.LVL74:
 301:Middlewares/lvgl/src/font/lv_font_fmt_txt.c ****             }
 637              		.loc 1 301 17 is_stmt 1 view .LVU207
 301:Middlewares/lvgl/src/font/lv_font_fmt_txt.c ****             }
 638              		.loc 1 301 29 is_stmt 0 view .LVU208
 639 0074 6268     		ldr	r2, [r4, #4]
 301:Middlewares/lvgl/src/font/lv_font_fmt_txt.c ****             }
 640              		.loc 1 301 23 view .LVU209
 641 0076 D056     		ldrsb	r0, [r2, r3]
 642              	.LVL75:
 301:Middlewares/lvgl/src/font/lv_font_fmt_txt.c ****             }
 643              		.loc 1 301 23 view .LVU210
 644 0078 D1E7     		b	.L40
 645              	.LVL76:
 646              	.L44:
 301:Middlewares/lvgl/src/font/lv_font_fmt_txt.c ****             }
 647              		.loc 1 301 23 view .LVU211
 648              	.LBE15:
 649              	.LBE14:
 650              	.LBE17:
 273:Middlewares/lvgl/src/font/lv_font_fmt_txt.c **** 
 651              		.loc 1 273 12 view .LVU212
 652 007a 0020     		movs	r0, #0
 653              	.LVL77:
 273:Middlewares/lvgl/src/font/lv_font_fmt_txt.c **** 
 654              		.loc 1 273 12 view .LVU213
 655 007c CFE7     		b	.L40
 656              	.LVL78:
 657              	.L37:
 658              	.LCFI8:
 659              		.cfi_def_cfa_offset 0
 660              		.cfi_restore 4
 661              		.cfi_restore 5
 662              		.cfi_restore 14
ARM GAS  /tmp/cc8ecAmv.s 			page 26


 663              	.LBB18:
 311:Middlewares/lvgl/src/font/lv_font_fmt_txt.c ****         uint8_t left_class = kdsc->left_class_mapping[gid_left];
 664              		.loc 1 311 9 is_stmt 1 view .LVU214
 311:Middlewares/lvgl/src/font/lv_font_fmt_txt.c ****         uint8_t left_class = kdsc->left_class_mapping[gid_left];
 665              		.loc 1 311 48 is_stmt 0 view .LVU215
 666 007e D868     		ldr	r0, [r3, #12]
 667              	.LVL79:
 312:Middlewares/lvgl/src/font/lv_font_fmt_txt.c ****         uint8_t right_class = kdsc->right_class_mapping[gid_right];
 668              		.loc 1 312 9 is_stmt 1 view .LVU216
 312:Middlewares/lvgl/src/font/lv_font_fmt_txt.c ****         uint8_t right_class = kdsc->right_class_mapping[gid_right];
 669              		.loc 1 312 34 is_stmt 0 view .LVU217
 670 0080 4368     		ldr	r3, [r0, #4]
 671              	.LVL80:
 312:Middlewares/lvgl/src/font/lv_font_fmt_txt.c ****         uint8_t right_class = kdsc->right_class_mapping[gid_right];
 672              		.loc 1 312 17 view .LVU218
 673 0082 595C     		ldrb	r1, [r3, r1]	@ zero_extendqisi2
 674              	.LVL81:
 313:Middlewares/lvgl/src/font/lv_font_fmt_txt.c **** 
 675              		.loc 1 313 9 is_stmt 1 view .LVU219
 313:Middlewares/lvgl/src/font/lv_font_fmt_txt.c **** 
 676              		.loc 1 313 35 is_stmt 0 view .LVU220
 677 0084 8368     		ldr	r3, [r0, #8]
 313:Middlewares/lvgl/src/font/lv_font_fmt_txt.c **** 
 678              		.loc 1 313 17 view .LVU221
 679 0086 9B5C     		ldrb	r3, [r3, r2]	@ zero_extendqisi2
 680              	.LVL82:
 317:Middlewares/lvgl/src/font/lv_font_fmt_txt.c ****             value = kdsc->class_pair_values[(left_class - 1) * kdsc->right_class_cnt + (right_class
 681              		.loc 1 317 9 is_stmt 1 view .LVU222
 317:Middlewares/lvgl/src/font/lv_font_fmt_txt.c ****             value = kdsc->class_pair_values[(left_class - 1) * kdsc->right_class_cnt + (right_class
 682              		.loc 1 317 11 is_stmt 0 view .LVU223
 683 0088 0029     		cmp	r1, #0
 684 008a 18BF     		it	ne
 685 008c 002B     		cmpne	r3, #0
 686 008e 07D0     		beq	.L45
 318:Middlewares/lvgl/src/font/lv_font_fmt_txt.c ****         }
 687              		.loc 1 318 13 is_stmt 1 view .LVU224
 318:Middlewares/lvgl/src/font/lv_font_fmt_txt.c ****         }
 688              		.loc 1 318 25 is_stmt 0 view .LVU225
 689 0090 0268     		ldr	r2, [r0]
 690              	.LVL83:
 318:Middlewares/lvgl/src/font/lv_font_fmt_txt.c ****         }
 691              		.loc 1 318 57 view .LVU226
 692 0092 0139     		subs	r1, r1, #1
 693              	.LVL84:
 318:Middlewares/lvgl/src/font/lv_font_fmt_txt.c ****         }
 694              		.loc 1 318 68 view .LVU227
 695 0094 407B     		ldrb	r0, [r0, #13]	@ zero_extendqisi2
 696              	.LVL85:
 318:Middlewares/lvgl/src/font/lv_font_fmt_txt.c ****         }
 697              		.loc 1 318 101 view .LVU228
 698 0096 013B     		subs	r3, r3, #1
 699              	.LVL86:
 318:Middlewares/lvgl/src/font/lv_font_fmt_txt.c ****         }
 700              		.loc 1 318 86 view .LVU229
 701 0098 00FB0133 		mla	r3, r0, r1, r3
 702              	.LVL87:
 318:Middlewares/lvgl/src/font/lv_font_fmt_txt.c ****         }
ARM GAS  /tmp/cc8ecAmv.s 			page 27


 703              		.loc 1 318 19 view .LVU230
 704 009c D056     		ldrsb	r0, [r2, r3]
 705              	.LVL88:
 318:Middlewares/lvgl/src/font/lv_font_fmt_txt.c ****         }
 706              		.loc 1 318 19 view .LVU231
 707 009e 7047     		bx	lr
 708              	.LVL89:
 709              	.L45:
 318:Middlewares/lvgl/src/font/lv_font_fmt_txt.c ****         }
 710              		.loc 1 318 19 view .LVU232
 711              	.LBE18:
 273:Middlewares/lvgl/src/font/lv_font_fmt_txt.c **** 
 712              		.loc 1 273 12 view .LVU233
 713 00a0 0020     		movs	r0, #0
 714              	.LVL90:
 322:Middlewares/lvgl/src/font/lv_font_fmt_txt.c **** }
 715              		.loc 1 322 5 is_stmt 1 view .LVU234
 323:Middlewares/lvgl/src/font/lv_font_fmt_txt.c **** 
 716              		.loc 1 323 1 is_stmt 0 view .LVU235
 717 00a2 7047     		bx	lr
 718              	.L53:
 719              		.align	2
 720              	.L52:
 721 00a4 00000000 		.word	kern_pair_8_compare
 722 00a8 00000000 		.word	kern_pair_16_compare
 723              		.cfi_endproc
 724              	.LFE29:
 726              		.section	.text.lv_font_get_bitmap_fmt_txt,"ax",%progbits
 727              		.align	1
 728              		.global	lv_font_get_bitmap_fmt_txt
 729              		.syntax unified
 730              		.thumb
 731              		.thumb_func
 732              		.fpu fpv5-d16
 734              	lv_font_get_bitmap_fmt_txt:
 735              	.LVL91:
 736              	.LFB25:
  80:Middlewares/lvgl/src/font/lv_font_fmt_txt.c ****     if(unicode_letter == '\t') unicode_letter = ' ';
 737              		.loc 1 80 1 is_stmt 1 view -0
 738              		.cfi_startproc
 739              		@ args = 0, pretend = 0, frame = 0
 740              		@ frame_needed = 0, uses_anonymous_args = 0
  80:Middlewares/lvgl/src/font/lv_font_fmt_txt.c ****     if(unicode_letter == '\t') unicode_letter = ' ';
 741              		.loc 1 80 1 is_stmt 0 view .LVU237
 742 0000 10B5     		push	{r4, lr}
 743              	.LCFI9:
 744              		.cfi_def_cfa_offset 8
 745              		.cfi_offset 4, -8
 746              		.cfi_offset 14, -4
  81:Middlewares/lvgl/src/font/lv_font_fmt_txt.c **** 
 747              		.loc 1 81 5 is_stmt 1 view .LVU238
  81:Middlewares/lvgl/src/font/lv_font_fmt_txt.c **** 
 748              		.loc 1 81 7 is_stmt 0 view .LVU239
 749 0002 0929     		cmp	r1, #9
 750 0004 10D0     		beq	.L61
 751              	.LVL92:
 752              	.L55:
ARM GAS  /tmp/cc8ecAmv.s 			page 28


  83:Middlewares/lvgl/src/font/lv_font_fmt_txt.c ****     uint32_t gid = get_glyph_dsc_id(font, unicode_letter);
 753              		.loc 1 83 5 is_stmt 1 view .LVU240
  83:Middlewares/lvgl/src/font/lv_font_fmt_txt.c ****     uint32_t gid = get_glyph_dsc_id(font, unicode_letter);
 754              		.loc 1 83 29 is_stmt 0 view .LVU241
 755 0006 0469     		ldr	r4, [r0, #16]
 756              	.LVL93:
  84:Middlewares/lvgl/src/font/lv_font_fmt_txt.c ****     if(!gid) return NULL;
 757              		.loc 1 84 5 is_stmt 1 view .LVU242
  84:Middlewares/lvgl/src/font/lv_font_fmt_txt.c ****     if(!gid) return NULL;
 758              		.loc 1 84 20 is_stmt 0 view .LVU243
 759 0008 FFF7FEFF 		bl	get_glyph_dsc_id
 760              	.LVL94:
  85:Middlewares/lvgl/src/font/lv_font_fmt_txt.c **** 
 761              		.loc 1 85 5 is_stmt 1 view .LVU244
  85:Middlewares/lvgl/src/font/lv_font_fmt_txt.c **** 
 762              		.loc 1 85 7 is_stmt 0 view .LVU245
 763 000c 0246     		mov	r2, r0
 764 000e 68B1     		cbz	r0, .L58
  87:Middlewares/lvgl/src/font/lv_font_fmt_txt.c **** 
 765              		.loc 1 87 5 is_stmt 1 view .LVU246
  87:Middlewares/lvgl/src/font/lv_font_fmt_txt.c **** 
 766              		.loc 1 87 53 is_stmt 0 view .LVU247
 767 0010 6168     		ldr	r1, [r4, #4]
 768              	.LVL95:
  89:Middlewares/lvgl/src/font/lv_font_fmt_txt.c ****         return &fdsc->glyph_bitmap[gdsc->bitmap_index];
 769              		.loc 1 89 5 is_stmt 1 view .LVU248
  89:Middlewares/lvgl/src/font/lv_font_fmt_txt.c ****         return &fdsc->glyph_bitmap[gdsc->bitmap_index];
 770              		.loc 1 89 28 is_stmt 0 view .LVU249
 771 0012 E37C     		ldrb	r3, [r4, #19]	@ zero_extendqisi2
  89:Middlewares/lvgl/src/font/lv_font_fmt_txt.c ****         return &fdsc->glyph_bitmap[gdsc->bitmap_index];
 772              		.loc 1 89 7 view .LVU250
 773 0014 13F0C00F 		tst	r3, #192
 774 0018 0AD1     		bne	.L59
  90:Middlewares/lvgl/src/font/lv_font_fmt_txt.c ****     }
 775              		.loc 1 90 9 is_stmt 1 view .LVU251
  90:Middlewares/lvgl/src/font/lv_font_fmt_txt.c ****     }
 776              		.loc 1 90 21 is_stmt 0 view .LVU252
 777 001a 2068     		ldr	r0, [r4]
 778              	.LVL96:
  90:Middlewares/lvgl/src/font/lv_font_fmt_txt.c ****     }
 779              		.loc 1 90 40 view .LVU253
 780 001c 51F83230 		ldr	r3, [r1, r2, lsl #3]
 781 0020 C3F31303 		ubfx	r3, r3, #0, #20
  90:Middlewares/lvgl/src/font/lv_font_fmt_txt.c ****     }
 782              		.loc 1 90 16 view .LVU254
 783 0024 1844     		add	r0, r0, r3
 784              	.LVL97:
 785              	.L54:
 138:Middlewares/lvgl/src/font/lv_font_fmt_txt.c **** 
 786              		.loc 1 138 1 view .LVU255
 787 0026 10BD     		pop	{r4, pc}
 788              	.LVL98:
 789              	.L61:
  81:Middlewares/lvgl/src/font/lv_font_fmt_txt.c **** 
 790              		.loc 1 81 47 view .LVU256
 791 0028 2021     		movs	r1, #32
 792              	.LVL99:
ARM GAS  /tmp/cc8ecAmv.s 			page 29


  81:Middlewares/lvgl/src/font/lv_font_fmt_txt.c **** 
 793              		.loc 1 81 47 view .LVU257
 794 002a ECE7     		b	.L55
 795              	.LVL100:
 796              	.L58:
  85:Middlewares/lvgl/src/font/lv_font_fmt_txt.c **** 
 797              		.loc 1 85 21 view .LVU258
 798 002c 0020     		movs	r0, #0
 799              	.LVL101:
  85:Middlewares/lvgl/src/font/lv_font_fmt_txt.c **** 
 800              		.loc 1 85 21 view .LVU259
 801 002e FAE7     		b	.L54
 802              	.LVL102:
 803              	.L59:
 132:Middlewares/lvgl/src/font/lv_font_fmt_txt.c **** #endif
 804              		.loc 1 132 16 view .LVU260
 805 0030 0020     		movs	r0, #0
 806              	.LVL103:
 132:Middlewares/lvgl/src/font/lv_font_fmt_txt.c **** #endif
 807              		.loc 1 132 16 view .LVU261
 808 0032 F8E7     		b	.L54
 809              		.cfi_endproc
 810              	.LFE25:
 812              		.section	.text.lv_font_get_glyph_dsc_fmt_txt,"ax",%progbits
 813              		.align	1
 814              		.global	lv_font_get_glyph_dsc_fmt_txt
 815              		.syntax unified
 816              		.thumb
 817              		.thumb_func
 818              		.fpu fpv5-d16
 820              	lv_font_get_glyph_dsc_fmt_txt:
 821              	.LVL104:
 822              	.LFB26:
 150:Middlewares/lvgl/src/font/lv_font_fmt_txt.c ****     bool is_tab = false;
 823              		.loc 1 150 1 is_stmt 1 view -0
 824              		.cfi_startproc
 825              		@ args = 0, pretend = 0, frame = 0
 826              		@ frame_needed = 0, uses_anonymous_args = 0
 150:Middlewares/lvgl/src/font/lv_font_fmt_txt.c ****     bool is_tab = false;
 827              		.loc 1 150 1 is_stmt 0 view .LVU263
 828 0000 2DE9F843 		push	{r3, r4, r5, r6, r7, r8, r9, lr}
 829              	.LCFI10:
 830              		.cfi_def_cfa_offset 32
 831              		.cfi_offset 3, -32
 832              		.cfi_offset 4, -28
 833              		.cfi_offset 5, -24
 834              		.cfi_offset 6, -20
 835              		.cfi_offset 7, -16
 836              		.cfi_offset 8, -12
 837              		.cfi_offset 9, -8
 838              		.cfi_offset 14, -4
 839 0004 0746     		mov	r7, r0
 840 0006 0C46     		mov	r4, r1
 841 0008 9946     		mov	r9, r3
 151:Middlewares/lvgl/src/font/lv_font_fmt_txt.c ****     if(unicode_letter == '\t') {
 842              		.loc 1 151 5 is_stmt 1 view .LVU264
 843              	.LVL105:
ARM GAS  /tmp/cc8ecAmv.s 			page 30


 152:Middlewares/lvgl/src/font/lv_font_fmt_txt.c ****         unicode_letter = ' ';
 844              		.loc 1 152 5 view .LVU265
 152:Middlewares/lvgl/src/font/lv_font_fmt_txt.c ****         unicode_letter = ' ';
 845              		.loc 1 152 7 is_stmt 0 view .LVU266
 846 000a 092A     		cmp	r2, #9
 847 000c 12D0     		beq	.L67
 848 000e 1146     		mov	r1, r2
 849              	.LVL106:
 151:Middlewares/lvgl/src/font/lv_font_fmt_txt.c ****     if(unicode_letter == '\t') {
 850              		.loc 1 151 10 view .LVU267
 851 0010 0025     		movs	r5, #0
 852              	.L63:
 853              	.LVL107:
 156:Middlewares/lvgl/src/font/lv_font_fmt_txt.c ****     uint32_t gid = get_glyph_dsc_id(font, unicode_letter);
 854              		.loc 1 156 5 is_stmt 1 view .LVU268
 156:Middlewares/lvgl/src/font/lv_font_fmt_txt.c ****     uint32_t gid = get_glyph_dsc_id(font, unicode_letter);
 855              		.loc 1 156 29 is_stmt 0 view .LVU269
 856 0012 3E69     		ldr	r6, [r7, #16]
 857              	.LVL108:
 157:Middlewares/lvgl/src/font/lv_font_fmt_txt.c ****     if(!gid) return false;
 858              		.loc 1 157 5 is_stmt 1 view .LVU270
 157:Middlewares/lvgl/src/font/lv_font_fmt_txt.c ****     if(!gid) return false;
 859              		.loc 1 157 20 is_stmt 0 view .LVU271
 860 0014 3846     		mov	r0, r7
 861              	.LVL109:
 157:Middlewares/lvgl/src/font/lv_font_fmt_txt.c ****     if(!gid) return false;
 862              		.loc 1 157 20 view .LVU272
 863 0016 FFF7FEFF 		bl	get_glyph_dsc_id
 864              	.LVL110:
 158:Middlewares/lvgl/src/font/lv_font_fmt_txt.c **** 
 865              		.loc 1 158 5 is_stmt 1 view .LVU273
 158:Middlewares/lvgl/src/font/lv_font_fmt_txt.c **** 
 866              		.loc 1 158 7 is_stmt 0 view .LVU274
 867 001a 8046     		mov	r8, r0
 868 001c 0028     		cmp	r0, #0
 869 001e 35D0     		beq	.L68
 160:Middlewares/lvgl/src/font/lv_font_fmt_txt.c ****     if(fdsc->kern_dsc) {
 870              		.loc 1 160 5 is_stmt 1 view .LVU275
 871              	.LVL111:
 161:Middlewares/lvgl/src/font/lv_font_fmt_txt.c ****         uint32_t gid_next = get_glyph_dsc_id(font, unicode_letter_next);
 872              		.loc 1 161 5 view .LVU276
 161:Middlewares/lvgl/src/font/lv_font_fmt_txt.c ****         uint32_t gid_next = get_glyph_dsc_id(font, unicode_letter_next);
 873              		.loc 1 161 12 is_stmt 0 view .LVU277
 874 0020 F368     		ldr	r3, [r6, #12]
 161:Middlewares/lvgl/src/font/lv_font_fmt_txt.c ****         uint32_t gid_next = get_glyph_dsc_id(font, unicode_letter_next);
 875              		.loc 1 161 7 view .LVU278
 876 0022 83B1     		cbz	r3, .L69
 877              	.LBB19:
 162:Middlewares/lvgl/src/font/lv_font_fmt_txt.c ****         if(gid_next) {
 878              		.loc 1 162 9 is_stmt 1 view .LVU279
 162:Middlewares/lvgl/src/font/lv_font_fmt_txt.c ****         if(gid_next) {
 879              		.loc 1 162 29 is_stmt 0 view .LVU280
 880 0024 4946     		mov	r1, r9
 881 0026 3846     		mov	r0, r7
 882              	.LVL112:
 162:Middlewares/lvgl/src/font/lv_font_fmt_txt.c ****         if(gid_next) {
 883              		.loc 1 162 29 view .LVU281
ARM GAS  /tmp/cc8ecAmv.s 			page 31


 884 0028 FFF7FEFF 		bl	get_glyph_dsc_id
 885              	.LVL113:
 163:Middlewares/lvgl/src/font/lv_font_fmt_txt.c ****             kvalue = get_kern_value(font, gid, gid_next);
 886              		.loc 1 163 9 is_stmt 1 view .LVU282
 163:Middlewares/lvgl/src/font/lv_font_fmt_txt.c ****             kvalue = get_kern_value(font, gid, gid_next);
 887              		.loc 1 163 11 is_stmt 0 view .LVU283
 888 002c 0246     		mov	r2, r0
 889 002e 20B9     		cbnz	r0, .L73
 890              	.LBE19:
 160:Middlewares/lvgl/src/font/lv_font_fmt_txt.c ****     if(fdsc->kern_dsc) {
 891              		.loc 1 160 12 view .LVU284
 892 0030 0023     		movs	r3, #0
 893 0032 09E0     		b	.L65
 894              	.LVL114:
 895              	.L67:
 154:Middlewares/lvgl/src/font/lv_font_fmt_txt.c ****     }
 896              		.loc 1 154 16 view .LVU285
 897 0034 0125     		movs	r5, #1
 153:Middlewares/lvgl/src/font/lv_font_fmt_txt.c ****         is_tab = true;
 898              		.loc 1 153 24 view .LVU286
 899 0036 2021     		movs	r1, #32
 900              	.LVL115:
 153:Middlewares/lvgl/src/font/lv_font_fmt_txt.c ****         is_tab = true;
 901              		.loc 1 153 24 view .LVU287
 902 0038 EBE7     		b	.L63
 903              	.LVL116:
 904              	.L73:
 905              	.LBB20:
 164:Middlewares/lvgl/src/font/lv_font_fmt_txt.c ****         }
 906              		.loc 1 164 13 is_stmt 1 view .LVU288
 164:Middlewares/lvgl/src/font/lv_font_fmt_txt.c ****         }
 907              		.loc 1 164 22 is_stmt 0 view .LVU289
 908 003a 4146     		mov	r1, r8
 909 003c 3846     		mov	r0, r7
 910              	.LVL117:
 164:Middlewares/lvgl/src/font/lv_font_fmt_txt.c ****         }
 911              		.loc 1 164 22 view .LVU290
 912 003e FFF7FEFF 		bl	get_kern_value
 913              	.LVL118:
 164:Middlewares/lvgl/src/font/lv_font_fmt_txt.c ****         }
 914              		.loc 1 164 22 view .LVU291
 915 0042 0346     		mov	r3, r0
 916              	.LVL119:
 164:Middlewares/lvgl/src/font/lv_font_fmt_txt.c ****         }
 917              		.loc 1 164 22 view .LVU292
 918 0044 00E0     		b	.L65
 919              	.LVL120:
 920              	.L69:
 164:Middlewares/lvgl/src/font/lv_font_fmt_txt.c ****         }
 921              		.loc 1 164 22 view .LVU293
 922              	.LBE20:
 160:Middlewares/lvgl/src/font/lv_font_fmt_txt.c ****     if(fdsc->kern_dsc) {
 923              		.loc 1 160 12 view .LVU294
 924 0046 0023     		movs	r3, #0
 925              	.LVL121:
 926              	.L65:
 169:Middlewares/lvgl/src/font/lv_font_fmt_txt.c **** 
ARM GAS  /tmp/cc8ecAmv.s 			page 32


 927              		.loc 1 169 5 is_stmt 1 view .LVU295
 169:Middlewares/lvgl/src/font/lv_font_fmt_txt.c **** 
 928              		.loc 1 169 53 is_stmt 0 view .LVU296
 929 0048 7168     		ldr	r1, [r6, #4]
 169:Middlewares/lvgl/src/font/lv_font_fmt_txt.c **** 
 930              		.loc 1 169 41 view .LVU297
 931 004a 01EBC801 		add	r1, r1, r8, lsl #3
 932              	.LVL122:
 171:Middlewares/lvgl/src/font/lv_font_fmt_txt.c **** 
 933              		.loc 1 171 5 is_stmt 1 view .LVU298
 171:Middlewares/lvgl/src/font/lv_font_fmt_txt.c **** 
 934              		.loc 1 171 51 is_stmt 0 view .LVU299
 935 004e 308A     		ldrh	r0, [r6, #16]
 171:Middlewares/lvgl/src/font/lv_font_fmt_txt.c **** 
 936              		.loc 1 171 19 view .LVU300
 937 0050 00FB03F3 		mul	r3, r0, r3
 938              	.LVL123:
 171:Middlewares/lvgl/src/font/lv_font_fmt_txt.c **** 
 939              		.loc 1 171 13 view .LVU301
 940 0054 1B11     		asrs	r3, r3, #4
 941              	.LVL124:
 173:Middlewares/lvgl/src/font/lv_font_fmt_txt.c ****     if(is_tab) adv_w *= 2;
 942              		.loc 1 173 5 is_stmt 1 view .LVU302
 173:Middlewares/lvgl/src/font/lv_font_fmt_txt.c ****     if(is_tab) adv_w *= 2;
 943              		.loc 1 173 26 is_stmt 0 view .LVU303
 944 0056 4A88     		ldrh	r2, [r1, #2]
 945 0058 C2F30B12 		ubfx	r2, r2, #4, #12
 946              	.LVL125:
 174:Middlewares/lvgl/src/font/lv_font_fmt_txt.c **** 
 947              		.loc 1 174 5 is_stmt 1 view .LVU304
 174:Middlewares/lvgl/src/font/lv_font_fmt_txt.c **** 
 948              		.loc 1 174 7 is_stmt 0 view .LVU305
 949 005c 05B1     		cbz	r5, .L66
 174:Middlewares/lvgl/src/font/lv_font_fmt_txt.c **** 
 950              		.loc 1 174 16 is_stmt 1 discriminator 1 view .LVU306
 174:Middlewares/lvgl/src/font/lv_font_fmt_txt.c **** 
 951              		.loc 1 174 22 is_stmt 0 discriminator 1 view .LVU307
 952 005e 5200     		lsls	r2, r2, #1
 953              	.LVL126:
 954              	.L66:
 176:Middlewares/lvgl/src/font/lv_font_fmt_txt.c ****     adv_w  = (adv_w + (1 << 3)) >> 4;
 955              		.loc 1 176 5 is_stmt 1 view .LVU308
 176:Middlewares/lvgl/src/font/lv_font_fmt_txt.c ****     adv_w  = (adv_w + (1 << 3)) >> 4;
 956              		.loc 1 176 11 is_stmt 0 view .LVU309
 957 0060 1344     		add	r3, r3, r2
 958              	.LVL127:
 177:Middlewares/lvgl/src/font/lv_font_fmt_txt.c **** 
 959              		.loc 1 177 5 is_stmt 1 view .LVU310
 177:Middlewares/lvgl/src/font/lv_font_fmt_txt.c **** 
 960              		.loc 1 177 21 is_stmt 0 view .LVU311
 961 0062 0833     		adds	r3, r3, #8
 962              	.LVL128:
 177:Middlewares/lvgl/src/font/lv_font_fmt_txt.c **** 
 963              		.loc 1 177 12 view .LVU312
 964 0064 1B09     		lsrs	r3, r3, #4
 965              	.LVL129:
 179:Middlewares/lvgl/src/font/lv_font_fmt_txt.c ****     dsc_out->box_h = gdsc->box_h;
ARM GAS  /tmp/cc8ecAmv.s 			page 33


 966              		.loc 1 179 5 is_stmt 1 view .LVU313
 179:Middlewares/lvgl/src/font/lv_font_fmt_txt.c ****     dsc_out->box_h = gdsc->box_h;
 967              		.loc 1 179 20 is_stmt 0 view .LVU314
 968 0066 2380     		strh	r3, [r4]	@ movhi
 180:Middlewares/lvgl/src/font/lv_font_fmt_txt.c ****     dsc_out->box_w = gdsc->box_w;
 969              		.loc 1 180 5 is_stmt 1 view .LVU315
 180:Middlewares/lvgl/src/font/lv_font_fmt_txt.c ****     dsc_out->box_w = gdsc->box_w;
 970              		.loc 1 180 26 is_stmt 0 view .LVU316
 971 0068 4B79     		ldrb	r3, [r1, #5]	@ zero_extendqisi2
 972              	.LVL130:
 180:Middlewares/lvgl/src/font/lv_font_fmt_txt.c ****     dsc_out->box_w = gdsc->box_w;
 973              		.loc 1 180 20 view .LVU317
 974 006a A380     		strh	r3, [r4, #4]	@ movhi
 181:Middlewares/lvgl/src/font/lv_font_fmt_txt.c ****     dsc_out->ofs_x = gdsc->ofs_x;
 975              		.loc 1 181 5 is_stmt 1 view .LVU318
 181:Middlewares/lvgl/src/font/lv_font_fmt_txt.c ****     dsc_out->ofs_x = gdsc->ofs_x;
 976              		.loc 1 181 26 is_stmt 0 view .LVU319
 977 006c 0A79     		ldrb	r2, [r1, #4]	@ zero_extendqisi2
 181:Middlewares/lvgl/src/font/lv_font_fmt_txt.c ****     dsc_out->ofs_x = gdsc->ofs_x;
 978              		.loc 1 181 20 view .LVU320
 979 006e 6280     		strh	r2, [r4, #2]	@ movhi
 182:Middlewares/lvgl/src/font/lv_font_fmt_txt.c ****     dsc_out->ofs_y = gdsc->ofs_y;
 980              		.loc 1 182 5 is_stmt 1 view .LVU321
 182:Middlewares/lvgl/src/font/lv_font_fmt_txt.c ****     dsc_out->ofs_y = gdsc->ofs_y;
 981              		.loc 1 182 26 is_stmt 0 view .LVU322
 982 0070 91F90630 		ldrsb	r3, [r1, #6]
 182:Middlewares/lvgl/src/font/lv_font_fmt_txt.c ****     dsc_out->ofs_y = gdsc->ofs_y;
 983              		.loc 1 182 20 view .LVU323
 984 0074 E380     		strh	r3, [r4, #6]	@ movhi
 183:Middlewares/lvgl/src/font/lv_font_fmt_txt.c ****     dsc_out->bpp   = (uint8_t)fdsc->bpp;
 985              		.loc 1 183 5 is_stmt 1 view .LVU324
 183:Middlewares/lvgl/src/font/lv_font_fmt_txt.c ****     dsc_out->bpp   = (uint8_t)fdsc->bpp;
 986              		.loc 1 183 26 is_stmt 0 view .LVU325
 987 0076 91F90730 		ldrsb	r3, [r1, #7]
 183:Middlewares/lvgl/src/font/lv_font_fmt_txt.c ****     dsc_out->bpp   = (uint8_t)fdsc->bpp;
 988              		.loc 1 183 20 view .LVU326
 989 007a 2381     		strh	r3, [r4, #8]	@ movhi
 184:Middlewares/lvgl/src/font/lv_font_fmt_txt.c **** 
 990              		.loc 1 184 5 is_stmt 1 view .LVU327
 184:Middlewares/lvgl/src/font/lv_font_fmt_txt.c **** 
 991              		.loc 1 184 35 is_stmt 0 view .LVU328
 992 007c F37C     		ldrb	r3, [r6, #19]	@ zero_extendqisi2
 993 007e C3F34303 		ubfx	r3, r3, #1, #4
 184:Middlewares/lvgl/src/font/lv_font_fmt_txt.c **** 
 994              		.loc 1 184 20 view .LVU329
 995 0082 A372     		strb	r3, [r4, #10]
 186:Middlewares/lvgl/src/font/lv_font_fmt_txt.c **** 
 996              		.loc 1 186 5 is_stmt 1 view .LVU330
 186:Middlewares/lvgl/src/font/lv_font_fmt_txt.c **** 
 997              		.loc 1 186 7 is_stmt 0 view .LVU331
 998 0084 35B1     		cbz	r5, .L71
 186:Middlewares/lvgl/src/font/lv_font_fmt_txt.c **** 
 999              		.loc 1 186 16 is_stmt 1 discriminator 1 view .LVU332
 186:Middlewares/lvgl/src/font/lv_font_fmt_txt.c **** 
 1000              		.loc 1 186 31 is_stmt 0 discriminator 1 view .LVU333
 1001 0086 5200     		lsls	r2, r2, #1
 1002 0088 6280     		strh	r2, [r4, #2]	@ movhi
ARM GAS  /tmp/cc8ecAmv.s 			page 34


 1003 008a 00E0     		b	.L64
 1004              	.LVL131:
 1005              	.L68:
 158:Middlewares/lvgl/src/font/lv_font_fmt_txt.c **** 
 1006              		.loc 1 158 21 view .LVU334
 1007 008c 0025     		movs	r5, #0
 1008              	.LVL132:
 1009              	.L64:
 189:Middlewares/lvgl/src/font/lv_font_fmt_txt.c **** 
 1010              		.loc 1 189 1 view .LVU335
 1011 008e 2846     		mov	r0, r5
 1012 0090 BDE8F883 		pop	{r3, r4, r5, r6, r7, r8, r9, pc}
 1013              	.LVL133:
 1014              	.L71:
 188:Middlewares/lvgl/src/font/lv_font_fmt_txt.c **** }
 1015              		.loc 1 188 12 view .LVU336
 1016 0094 0125     		movs	r5, #1
 1017              	.LVL134:
 188:Middlewares/lvgl/src/font/lv_font_fmt_txt.c **** }
 1018              		.loc 1 188 12 view .LVU337
 1019 0096 FAE7     		b	.L64
 1020              		.cfi_endproc
 1021              	.LFE26:
 1023              		.section	.text._lv_font_clean_up_fmt_txt,"ax",%progbits
 1024              		.align	1
 1025              		.global	_lv_font_clean_up_fmt_txt
 1026              		.syntax unified
 1027              		.thumb
 1028              		.thumb_func
 1029              		.fpu fpv5-d16
 1031              	_lv_font_clean_up_fmt_txt:
 1032              	.LFB27:
 195:Middlewares/lvgl/src/font/lv_font_fmt_txt.c **** #if LV_USE_FONT_COMPRESSED
 1033              		.loc 1 195 1 is_stmt 1 view -0
 1034              		.cfi_startproc
 1035              		@ args = 0, pretend = 0, frame = 0
 1036              		@ frame_needed = 0, uses_anonymous_args = 0
 1037              		@ link register save eliminated.
 202:Middlewares/lvgl/src/font/lv_font_fmt_txt.c **** 
 1038              		.loc 1 202 1 view .LVU339
 1039 0000 7047     		bx	lr
 1040              		.cfi_endproc
 1041              	.LFE27:
 1043              		.text
 1044              	.Letext0:
 1045              		.file 2 "/home/akinya/gcc-arm-none-eabi/arm-none-eabi/include/machine/_default_types.h"
 1046              		.file 3 "/home/akinya/gcc-arm-none-eabi/arm-none-eabi/include/sys/_stdint.h"
 1047              		.file 4 "Middlewares/lvgl/src/font/../misc/lv_area.h"
 1048              		.file 5 "Middlewares/lvgl/src/font/lv_font.h"
 1049              		.file 6 "Middlewares/lvgl/src/font/lv_font_fmt_txt.h"
 1050              		.file 7 "Middlewares/lvgl/src/font/../misc/lv_types.h"
 1051              		.file 8 "Middlewares/lvgl/src/font/../misc/lv_utils.h"
ARM GAS  /tmp/cc8ecAmv.s 			page 35

