ARM GAS  /tmp/ccjZBdV3.s 			page 1


   1              		.cpu cortex-m7
   2              		.eabi_attribute 28, 1
   3              		.eabi_attribute 20, 1
   4              		.eabi_attribute 21, 1
   5              		.eabi_attribute 23, 3
   6              		.eabi_attribute 24, 1
   7              		.eabi_attribute 25, 1
   8              		.eabi_attribute 26, 1
   9              		.eabi_attribute 30, 1
  10              		.eabi_attribute 34, 1
  11              		.eabi_attribute 18, 4
  12              		.file	"lv_flex.c"
  13              		.text
  14              	.Ltext0:
  15              		.cfi_sections	.debug_frame
  16              		.section	.text.lv_area_get_width,"ax",%progbits
  17              		.align	1
  18              		.arch armv7e-m
  19              		.syntax unified
  20              		.thumb
  21              		.thumb_func
  22              		.fpu fpv5-d16
  24              	lv_area_get_width:
  25              	.LVL0:
  26              	.LFB1:
  27              		.file 1 "Middlewares/lvgl/src/extra/layouts/flex/../flex/../../../core/../misc/../font/../misc/lv_
   1:Middlewares/lvgl/src/extra/layouts/flex/../flex/../../../core/../misc/../font/../misc/lv_area.h **** /**
   2:Middlewares/lvgl/src/extra/layouts/flex/../flex/../../../core/../misc/../font/../misc/lv_area.h ****  * @file lv_area.h
   3:Middlewares/lvgl/src/extra/layouts/flex/../flex/../../../core/../misc/../font/../misc/lv_area.h ****  *
   4:Middlewares/lvgl/src/extra/layouts/flex/../flex/../../../core/../misc/../font/../misc/lv_area.h ****  */
   5:Middlewares/lvgl/src/extra/layouts/flex/../flex/../../../core/../misc/../font/../misc/lv_area.h **** 
   6:Middlewares/lvgl/src/extra/layouts/flex/../flex/../../../core/../misc/../font/../misc/lv_area.h **** #ifndef LV_AREA_H
   7:Middlewares/lvgl/src/extra/layouts/flex/../flex/../../../core/../misc/../font/../misc/lv_area.h **** #define LV_AREA_H
   8:Middlewares/lvgl/src/extra/layouts/flex/../flex/../../../core/../misc/../font/../misc/lv_area.h **** 
   9:Middlewares/lvgl/src/extra/layouts/flex/../flex/../../../core/../misc/../font/../misc/lv_area.h **** #ifdef __cplusplus
  10:Middlewares/lvgl/src/extra/layouts/flex/../flex/../../../core/../misc/../font/../misc/lv_area.h **** extern "C" {
  11:Middlewares/lvgl/src/extra/layouts/flex/../flex/../../../core/../misc/../font/../misc/lv_area.h **** #endif
  12:Middlewares/lvgl/src/extra/layouts/flex/../flex/../../../core/../misc/../font/../misc/lv_area.h **** 
  13:Middlewares/lvgl/src/extra/layouts/flex/../flex/../../../core/../misc/../font/../misc/lv_area.h **** /*********************
  14:Middlewares/lvgl/src/extra/layouts/flex/../flex/../../../core/../misc/../font/../misc/lv_area.h ****  *      INCLUDES
  15:Middlewares/lvgl/src/extra/layouts/flex/../flex/../../../core/../misc/../font/../misc/lv_area.h ****  *********************/
  16:Middlewares/lvgl/src/extra/layouts/flex/../flex/../../../core/../misc/../font/../misc/lv_area.h **** #include "../lv_conf_internal.h"
  17:Middlewares/lvgl/src/extra/layouts/flex/../flex/../../../core/../misc/../font/../misc/lv_area.h **** #include <string.h>
  18:Middlewares/lvgl/src/extra/layouts/flex/../flex/../../../core/../misc/../font/../misc/lv_area.h **** #include <stdbool.h>
  19:Middlewares/lvgl/src/extra/layouts/flex/../flex/../../../core/../misc/../font/../misc/lv_area.h **** #include <stdint.h>
  20:Middlewares/lvgl/src/extra/layouts/flex/../flex/../../../core/../misc/../font/../misc/lv_area.h **** 
  21:Middlewares/lvgl/src/extra/layouts/flex/../flex/../../../core/../misc/../font/../misc/lv_area.h **** /*********************
  22:Middlewares/lvgl/src/extra/layouts/flex/../flex/../../../core/../misc/../font/../misc/lv_area.h ****  *      DEFINES
  23:Middlewares/lvgl/src/extra/layouts/flex/../flex/../../../core/../misc/../font/../misc/lv_area.h ****  *********************/
  24:Middlewares/lvgl/src/extra/layouts/flex/../flex/../../../core/../misc/../font/../misc/lv_area.h **** 
  25:Middlewares/lvgl/src/extra/layouts/flex/../flex/../../../core/../misc/../font/../misc/lv_area.h **** #define _LV_COORD_MAX_REDUCE    8192
  26:Middlewares/lvgl/src/extra/layouts/flex/../flex/../../../core/../misc/../font/../misc/lv_area.h **** 
  27:Middlewares/lvgl/src/extra/layouts/flex/../flex/../../../core/../misc/../font/../misc/lv_area.h **** #if LV_USE_LARGE_COORD
  28:Middlewares/lvgl/src/extra/layouts/flex/../flex/../../../core/../misc/../font/../misc/lv_area.h **** typedef int32_t lv_coord_t;
  29:Middlewares/lvgl/src/extra/layouts/flex/../flex/../../../core/../misc/../font/../misc/lv_area.h **** #else
  30:Middlewares/lvgl/src/extra/layouts/flex/../flex/../../../core/../misc/../font/../misc/lv_area.h **** typedef int16_t lv_coord_t;
  31:Middlewares/lvgl/src/extra/layouts/flex/../flex/../../../core/../misc/../font/../misc/lv_area.h **** #endif
ARM GAS  /tmp/ccjZBdV3.s 			page 2


  32:Middlewares/lvgl/src/extra/layouts/flex/../flex/../../../core/../misc/../font/../misc/lv_area.h **** 
  33:Middlewares/lvgl/src/extra/layouts/flex/../flex/../../../core/../misc/../font/../misc/lv_area.h **** /*To allow some special values in the end reduce the max value*/
  34:Middlewares/lvgl/src/extra/layouts/flex/../flex/../../../core/../misc/../font/../misc/lv_area.h **** #define LV_COORD_MAX ((lv_coord_t)((uint32_t)((uint32_t)1 << (8 * sizeof(lv_coord_t) - 1)) - _LV_CO
  35:Middlewares/lvgl/src/extra/layouts/flex/../flex/../../../core/../misc/../font/../misc/lv_area.h **** #define LV_COORD_MIN (-LV_COORD_MAX)
  36:Middlewares/lvgl/src/extra/layouts/flex/../flex/../../../core/../misc/../font/../misc/lv_area.h **** 
  37:Middlewares/lvgl/src/extra/layouts/flex/../flex/../../../core/../misc/../font/../misc/lv_area.h **** LV_EXPORT_CONST_INT(LV_COORD_MAX);
  38:Middlewares/lvgl/src/extra/layouts/flex/../flex/../../../core/../misc/../font/../misc/lv_area.h **** LV_EXPORT_CONST_INT(LV_COORD_MIN);
  39:Middlewares/lvgl/src/extra/layouts/flex/../flex/../../../core/../misc/../font/../misc/lv_area.h **** 
  40:Middlewares/lvgl/src/extra/layouts/flex/../flex/../../../core/../misc/../font/../misc/lv_area.h **** /**********************
  41:Middlewares/lvgl/src/extra/layouts/flex/../flex/../../../core/../misc/../font/../misc/lv_area.h ****  *      TYPEDEFS
  42:Middlewares/lvgl/src/extra/layouts/flex/../flex/../../../core/../misc/../font/../misc/lv_area.h ****  **********************/
  43:Middlewares/lvgl/src/extra/layouts/flex/../flex/../../../core/../misc/../font/../misc/lv_area.h **** 
  44:Middlewares/lvgl/src/extra/layouts/flex/../flex/../../../core/../misc/../font/../misc/lv_area.h **** /**
  45:Middlewares/lvgl/src/extra/layouts/flex/../flex/../../../core/../misc/../font/../misc/lv_area.h ****  * Represents a point on the screen.
  46:Middlewares/lvgl/src/extra/layouts/flex/../flex/../../../core/../misc/../font/../misc/lv_area.h ****  */
  47:Middlewares/lvgl/src/extra/layouts/flex/../flex/../../../core/../misc/../font/../misc/lv_area.h **** typedef struct {
  48:Middlewares/lvgl/src/extra/layouts/flex/../flex/../../../core/../misc/../font/../misc/lv_area.h ****     lv_coord_t x;
  49:Middlewares/lvgl/src/extra/layouts/flex/../flex/../../../core/../misc/../font/../misc/lv_area.h ****     lv_coord_t y;
  50:Middlewares/lvgl/src/extra/layouts/flex/../flex/../../../core/../misc/../font/../misc/lv_area.h **** } lv_point_t;
  51:Middlewares/lvgl/src/extra/layouts/flex/../flex/../../../core/../misc/../font/../misc/lv_area.h **** 
  52:Middlewares/lvgl/src/extra/layouts/flex/../flex/../../../core/../misc/../font/../misc/lv_area.h **** /** Represents an area of the screen.*/
  53:Middlewares/lvgl/src/extra/layouts/flex/../flex/../../../core/../misc/../font/../misc/lv_area.h **** typedef struct {
  54:Middlewares/lvgl/src/extra/layouts/flex/../flex/../../../core/../misc/../font/../misc/lv_area.h ****     lv_coord_t x1;
  55:Middlewares/lvgl/src/extra/layouts/flex/../flex/../../../core/../misc/../font/../misc/lv_area.h ****     lv_coord_t y1;
  56:Middlewares/lvgl/src/extra/layouts/flex/../flex/../../../core/../misc/../font/../misc/lv_area.h ****     lv_coord_t x2;
  57:Middlewares/lvgl/src/extra/layouts/flex/../flex/../../../core/../misc/../font/../misc/lv_area.h ****     lv_coord_t y2;
  58:Middlewares/lvgl/src/extra/layouts/flex/../flex/../../../core/../misc/../font/../misc/lv_area.h **** } lv_area_t;
  59:Middlewares/lvgl/src/extra/layouts/flex/../flex/../../../core/../misc/../font/../misc/lv_area.h **** 
  60:Middlewares/lvgl/src/extra/layouts/flex/../flex/../../../core/../misc/../font/../misc/lv_area.h **** /** Alignments*/
  61:Middlewares/lvgl/src/extra/layouts/flex/../flex/../../../core/../misc/../font/../misc/lv_area.h **** enum {
  62:Middlewares/lvgl/src/extra/layouts/flex/../flex/../../../core/../misc/../font/../misc/lv_area.h ****     LV_ALIGN_DEFAULT = 0,
  63:Middlewares/lvgl/src/extra/layouts/flex/../flex/../../../core/../misc/../font/../misc/lv_area.h ****     LV_ALIGN_TOP_LEFT,
  64:Middlewares/lvgl/src/extra/layouts/flex/../flex/../../../core/../misc/../font/../misc/lv_area.h ****     LV_ALIGN_TOP_MID,
  65:Middlewares/lvgl/src/extra/layouts/flex/../flex/../../../core/../misc/../font/../misc/lv_area.h ****     LV_ALIGN_TOP_RIGHT,
  66:Middlewares/lvgl/src/extra/layouts/flex/../flex/../../../core/../misc/../font/../misc/lv_area.h ****     LV_ALIGN_BOTTOM_LEFT,
  67:Middlewares/lvgl/src/extra/layouts/flex/../flex/../../../core/../misc/../font/../misc/lv_area.h ****     LV_ALIGN_BOTTOM_MID,
  68:Middlewares/lvgl/src/extra/layouts/flex/../flex/../../../core/../misc/../font/../misc/lv_area.h ****     LV_ALIGN_BOTTOM_RIGHT,
  69:Middlewares/lvgl/src/extra/layouts/flex/../flex/../../../core/../misc/../font/../misc/lv_area.h ****     LV_ALIGN_LEFT_MID,
  70:Middlewares/lvgl/src/extra/layouts/flex/../flex/../../../core/../misc/../font/../misc/lv_area.h ****     LV_ALIGN_RIGHT_MID,
  71:Middlewares/lvgl/src/extra/layouts/flex/../flex/../../../core/../misc/../font/../misc/lv_area.h ****     LV_ALIGN_CENTER,
  72:Middlewares/lvgl/src/extra/layouts/flex/../flex/../../../core/../misc/../font/../misc/lv_area.h **** 
  73:Middlewares/lvgl/src/extra/layouts/flex/../flex/../../../core/../misc/../font/../misc/lv_area.h ****     LV_ALIGN_OUT_TOP_LEFT,
  74:Middlewares/lvgl/src/extra/layouts/flex/../flex/../../../core/../misc/../font/../misc/lv_area.h ****     LV_ALIGN_OUT_TOP_MID,
  75:Middlewares/lvgl/src/extra/layouts/flex/../flex/../../../core/../misc/../font/../misc/lv_area.h ****     LV_ALIGN_OUT_TOP_RIGHT,
  76:Middlewares/lvgl/src/extra/layouts/flex/../flex/../../../core/../misc/../font/../misc/lv_area.h ****     LV_ALIGN_OUT_BOTTOM_LEFT,
  77:Middlewares/lvgl/src/extra/layouts/flex/../flex/../../../core/../misc/../font/../misc/lv_area.h ****     LV_ALIGN_OUT_BOTTOM_MID,
  78:Middlewares/lvgl/src/extra/layouts/flex/../flex/../../../core/../misc/../font/../misc/lv_area.h ****     LV_ALIGN_OUT_BOTTOM_RIGHT,
  79:Middlewares/lvgl/src/extra/layouts/flex/../flex/../../../core/../misc/../font/../misc/lv_area.h ****     LV_ALIGN_OUT_LEFT_TOP,
  80:Middlewares/lvgl/src/extra/layouts/flex/../flex/../../../core/../misc/../font/../misc/lv_area.h ****     LV_ALIGN_OUT_LEFT_MID,
  81:Middlewares/lvgl/src/extra/layouts/flex/../flex/../../../core/../misc/../font/../misc/lv_area.h ****     LV_ALIGN_OUT_LEFT_BOTTOM,
  82:Middlewares/lvgl/src/extra/layouts/flex/../flex/../../../core/../misc/../font/../misc/lv_area.h ****     LV_ALIGN_OUT_RIGHT_TOP,
  83:Middlewares/lvgl/src/extra/layouts/flex/../flex/../../../core/../misc/../font/../misc/lv_area.h ****     LV_ALIGN_OUT_RIGHT_MID,
  84:Middlewares/lvgl/src/extra/layouts/flex/../flex/../../../core/../misc/../font/../misc/lv_area.h ****     LV_ALIGN_OUT_RIGHT_BOTTOM,
  85:Middlewares/lvgl/src/extra/layouts/flex/../flex/../../../core/../misc/../font/../misc/lv_area.h **** };
  86:Middlewares/lvgl/src/extra/layouts/flex/../flex/../../../core/../misc/../font/../misc/lv_area.h **** typedef uint8_t lv_align_t;
  87:Middlewares/lvgl/src/extra/layouts/flex/../flex/../../../core/../misc/../font/../misc/lv_area.h **** 
  88:Middlewares/lvgl/src/extra/layouts/flex/../flex/../../../core/../misc/../font/../misc/lv_area.h **** enum {
ARM GAS  /tmp/ccjZBdV3.s 			page 3


  89:Middlewares/lvgl/src/extra/layouts/flex/../flex/../../../core/../misc/../font/../misc/lv_area.h ****     LV_DIR_NONE     = 0x00,
  90:Middlewares/lvgl/src/extra/layouts/flex/../flex/../../../core/../misc/../font/../misc/lv_area.h ****     LV_DIR_LEFT     = (1 << 0),
  91:Middlewares/lvgl/src/extra/layouts/flex/../flex/../../../core/../misc/../font/../misc/lv_area.h ****     LV_DIR_RIGHT    = (1 << 1),
  92:Middlewares/lvgl/src/extra/layouts/flex/../flex/../../../core/../misc/../font/../misc/lv_area.h ****     LV_DIR_TOP      = (1 << 2),
  93:Middlewares/lvgl/src/extra/layouts/flex/../flex/../../../core/../misc/../font/../misc/lv_area.h ****     LV_DIR_BOTTOM   = (1 << 3),
  94:Middlewares/lvgl/src/extra/layouts/flex/../flex/../../../core/../misc/../font/../misc/lv_area.h ****     LV_DIR_HOR      = LV_DIR_LEFT | LV_DIR_RIGHT,
  95:Middlewares/lvgl/src/extra/layouts/flex/../flex/../../../core/../misc/../font/../misc/lv_area.h ****     LV_DIR_VER      = LV_DIR_TOP | LV_DIR_BOTTOM,
  96:Middlewares/lvgl/src/extra/layouts/flex/../flex/../../../core/../misc/../font/../misc/lv_area.h ****     LV_DIR_ALL      = LV_DIR_HOR | LV_DIR_VER,
  97:Middlewares/lvgl/src/extra/layouts/flex/../flex/../../../core/../misc/../font/../misc/lv_area.h **** };
  98:Middlewares/lvgl/src/extra/layouts/flex/../flex/../../../core/../misc/../font/../misc/lv_area.h **** 
  99:Middlewares/lvgl/src/extra/layouts/flex/../flex/../../../core/../misc/../font/../misc/lv_area.h **** typedef uint8_t lv_dir_t;
 100:Middlewares/lvgl/src/extra/layouts/flex/../flex/../../../core/../misc/../font/../misc/lv_area.h **** 
 101:Middlewares/lvgl/src/extra/layouts/flex/../flex/../../../core/../misc/../font/../misc/lv_area.h **** /**********************
 102:Middlewares/lvgl/src/extra/layouts/flex/../flex/../../../core/../misc/../font/../misc/lv_area.h ****  * GLOBAL PROTOTYPES
 103:Middlewares/lvgl/src/extra/layouts/flex/../flex/../../../core/../misc/../font/../misc/lv_area.h ****  **********************/
 104:Middlewares/lvgl/src/extra/layouts/flex/../flex/../../../core/../misc/../font/../misc/lv_area.h **** 
 105:Middlewares/lvgl/src/extra/layouts/flex/../flex/../../../core/../misc/../font/../misc/lv_area.h **** /**
 106:Middlewares/lvgl/src/extra/layouts/flex/../flex/../../../core/../misc/../font/../misc/lv_area.h ****  * Initialize an area
 107:Middlewares/lvgl/src/extra/layouts/flex/../flex/../../../core/../misc/../font/../misc/lv_area.h ****  * @param area_p pointer to an area
 108:Middlewares/lvgl/src/extra/layouts/flex/../flex/../../../core/../misc/../font/../misc/lv_area.h ****  * @param x1 left coordinate of the area
 109:Middlewares/lvgl/src/extra/layouts/flex/../flex/../../../core/../misc/../font/../misc/lv_area.h ****  * @param y1 top coordinate of the area
 110:Middlewares/lvgl/src/extra/layouts/flex/../flex/../../../core/../misc/../font/../misc/lv_area.h ****  * @param x2 right coordinate of the area
 111:Middlewares/lvgl/src/extra/layouts/flex/../flex/../../../core/../misc/../font/../misc/lv_area.h ****  * @param y2 bottom coordinate of the area
 112:Middlewares/lvgl/src/extra/layouts/flex/../flex/../../../core/../misc/../font/../misc/lv_area.h ****  */
 113:Middlewares/lvgl/src/extra/layouts/flex/../flex/../../../core/../misc/../font/../misc/lv_area.h **** void lv_area_set(lv_area_t * area_p, lv_coord_t x1, lv_coord_t y1, lv_coord_t x2, lv_coord_t y2);
 114:Middlewares/lvgl/src/extra/layouts/flex/../flex/../../../core/../misc/../font/../misc/lv_area.h **** 
 115:Middlewares/lvgl/src/extra/layouts/flex/../flex/../../../core/../misc/../font/../misc/lv_area.h **** /**
 116:Middlewares/lvgl/src/extra/layouts/flex/../flex/../../../core/../misc/../font/../misc/lv_area.h ****  * Copy an area
 117:Middlewares/lvgl/src/extra/layouts/flex/../flex/../../../core/../misc/../font/../misc/lv_area.h ****  * @param dest pointer to the destination area
 118:Middlewares/lvgl/src/extra/layouts/flex/../flex/../../../core/../misc/../font/../misc/lv_area.h ****  * @param src pointer to the source area
 119:Middlewares/lvgl/src/extra/layouts/flex/../flex/../../../core/../misc/../font/../misc/lv_area.h ****  */
 120:Middlewares/lvgl/src/extra/layouts/flex/../flex/../../../core/../misc/../font/../misc/lv_area.h **** inline static void lv_area_copy(lv_area_t * dest, const lv_area_t * src)
 121:Middlewares/lvgl/src/extra/layouts/flex/../flex/../../../core/../misc/../font/../misc/lv_area.h **** {
 122:Middlewares/lvgl/src/extra/layouts/flex/../flex/../../../core/../misc/../font/../misc/lv_area.h ****     dest->x1 = src->x1;
 123:Middlewares/lvgl/src/extra/layouts/flex/../flex/../../../core/../misc/../font/../misc/lv_area.h ****     dest->y1 = src->y1;
 124:Middlewares/lvgl/src/extra/layouts/flex/../flex/../../../core/../misc/../font/../misc/lv_area.h ****     dest->x2 = src->x2;
 125:Middlewares/lvgl/src/extra/layouts/flex/../flex/../../../core/../misc/../font/../misc/lv_area.h ****     dest->y2 = src->y2;
 126:Middlewares/lvgl/src/extra/layouts/flex/../flex/../../../core/../misc/../font/../misc/lv_area.h **** }
 127:Middlewares/lvgl/src/extra/layouts/flex/../flex/../../../core/../misc/../font/../misc/lv_area.h **** 
 128:Middlewares/lvgl/src/extra/layouts/flex/../flex/../../../core/../misc/../font/../misc/lv_area.h **** /**
 129:Middlewares/lvgl/src/extra/layouts/flex/../flex/../../../core/../misc/../font/../misc/lv_area.h ****  * Get the width of an area
 130:Middlewares/lvgl/src/extra/layouts/flex/../flex/../../../core/../misc/../font/../misc/lv_area.h ****  * @param area_p pointer to an area
 131:Middlewares/lvgl/src/extra/layouts/flex/../flex/../../../core/../misc/../font/../misc/lv_area.h ****  * @return the width of the area (if x1 == x2 -> width = 1)
 132:Middlewares/lvgl/src/extra/layouts/flex/../flex/../../../core/../misc/../font/../misc/lv_area.h ****  */
 133:Middlewares/lvgl/src/extra/layouts/flex/../flex/../../../core/../misc/../font/../misc/lv_area.h **** static inline lv_coord_t lv_area_get_width(const lv_area_t * area_p)
 134:Middlewares/lvgl/src/extra/layouts/flex/../flex/../../../core/../misc/../font/../misc/lv_area.h **** {
  28              		.loc 1 134 1 view -0
  29              		.cfi_startproc
  30              		@ args = 0, pretend = 0, frame = 0
  31              		@ frame_needed = 0, uses_anonymous_args = 0
  32              		@ link register save eliminated.
  33              		.loc 1 134 1 is_stmt 0 view .LVU1
  34 0000 0346     		mov	r3, r0
 135:Middlewares/lvgl/src/extra/layouts/flex/../flex/../../../core/../misc/../font/../misc/lv_area.h ****     return (lv_coord_t)(area_p->x2 - area_p->x1 + 1);
  35              		.loc 1 135 5 is_stmt 1 view .LVU2
  36              		.loc 1 135 31 is_stmt 0 view .LVU3
  37 0002 8088     		ldrh	r0, [r0, #4]
ARM GAS  /tmp/ccjZBdV3.s 			page 4


  38              	.LVL1:
  39              		.loc 1 135 44 view .LVU4
  40 0004 1B88     		ldrh	r3, [r3]
  41              	.LVL2:
  42              		.loc 1 135 36 view .LVU5
  43 0006 C01A     		subs	r0, r0, r3
  44 0008 80B2     		uxth	r0, r0
  45              		.loc 1 135 49 view .LVU6
  46 000a 0130     		adds	r0, r0, #1
 136:Middlewares/lvgl/src/extra/layouts/flex/../flex/../../../core/../misc/../font/../misc/lv_area.h **** }
  47              		.loc 1 136 1 view .LVU7
  48 000c 00B2     		sxth	r0, r0
  49 000e 7047     		bx	lr
  50              		.cfi_endproc
  51              	.LFE1:
  53              		.section	.text.lv_area_get_height,"ax",%progbits
  54              		.align	1
  55              		.syntax unified
  56              		.thumb
  57              		.thumb_func
  58              		.fpu fpv5-d16
  60              	lv_area_get_height:
  61              	.LVL3:
  62              	.LFB2:
 137:Middlewares/lvgl/src/extra/layouts/flex/../flex/../../../core/../misc/../font/../misc/lv_area.h **** 
 138:Middlewares/lvgl/src/extra/layouts/flex/../flex/../../../core/../misc/../font/../misc/lv_area.h **** /**
 139:Middlewares/lvgl/src/extra/layouts/flex/../flex/../../../core/../misc/../font/../misc/lv_area.h ****  * Get the height of an area
 140:Middlewares/lvgl/src/extra/layouts/flex/../flex/../../../core/../misc/../font/../misc/lv_area.h ****  * @param area_p pointer to an area
 141:Middlewares/lvgl/src/extra/layouts/flex/../flex/../../../core/../misc/../font/../misc/lv_area.h ****  * @return the height of the area (if y1 == y2 -> height = 1)
 142:Middlewares/lvgl/src/extra/layouts/flex/../flex/../../../core/../misc/../font/../misc/lv_area.h ****  */
 143:Middlewares/lvgl/src/extra/layouts/flex/../flex/../../../core/../misc/../font/../misc/lv_area.h **** static inline lv_coord_t lv_area_get_height(const lv_area_t * area_p)
 144:Middlewares/lvgl/src/extra/layouts/flex/../flex/../../../core/../misc/../font/../misc/lv_area.h **** {
  63              		.loc 1 144 1 is_stmt 1 view -0
  64              		.cfi_startproc
  65              		@ args = 0, pretend = 0, frame = 0
  66              		@ frame_needed = 0, uses_anonymous_args = 0
  67              		@ link register save eliminated.
  68              		.loc 1 144 1 is_stmt 0 view .LVU9
  69 0000 0346     		mov	r3, r0
 145:Middlewares/lvgl/src/extra/layouts/flex/../flex/../../../core/../misc/../font/../misc/lv_area.h ****     return (lv_coord_t)(area_p->y2 - area_p->y1 + 1);
  70              		.loc 1 145 5 is_stmt 1 view .LVU10
  71              		.loc 1 145 31 is_stmt 0 view .LVU11
  72 0002 C088     		ldrh	r0, [r0, #6]
  73              	.LVL4:
  74              		.loc 1 145 44 view .LVU12
  75 0004 5B88     		ldrh	r3, [r3, #2]
  76              	.LVL5:
  77              		.loc 1 145 36 view .LVU13
  78 0006 C01A     		subs	r0, r0, r3
  79 0008 80B2     		uxth	r0, r0
  80              		.loc 1 145 49 view .LVU14
  81 000a 0130     		adds	r0, r0, #1
 146:Middlewares/lvgl/src/extra/layouts/flex/../flex/../../../core/../misc/../font/../misc/lv_area.h **** }
  82              		.loc 1 146 1 view .LVU15
  83 000c 00B2     		sxth	r0, r0
  84 000e 7047     		bx	lr
  85              		.cfi_endproc
ARM GAS  /tmp/ccjZBdV3.s 			page 5


  86              	.LFE2:
  88              		.section	.text.place_content,"ax",%progbits
  89              		.align	1
  90              		.syntax unified
  91              		.thumb
  92              		.thumb_func
  93              		.fpu fpv5-d16
  95              	place_content:
  96              	.LVL6:
  97              	.LFB180:
  98              		.file 2 "Middlewares/lvgl/src/extra/layouts/flex/lv_flex.c"
   1:Middlewares/lvgl/src/extra/layouts/flex/lv_flex.c **** /**
   2:Middlewares/lvgl/src/extra/layouts/flex/lv_flex.c ****  * @file lv_flex.c
   3:Middlewares/lvgl/src/extra/layouts/flex/lv_flex.c ****  *
   4:Middlewares/lvgl/src/extra/layouts/flex/lv_flex.c ****  */
   5:Middlewares/lvgl/src/extra/layouts/flex/lv_flex.c **** 
   6:Middlewares/lvgl/src/extra/layouts/flex/lv_flex.c **** /*********************
   7:Middlewares/lvgl/src/extra/layouts/flex/lv_flex.c ****  *      INCLUDES
   8:Middlewares/lvgl/src/extra/layouts/flex/lv_flex.c ****  *********************/
   9:Middlewares/lvgl/src/extra/layouts/flex/lv_flex.c **** #include "../lv_layouts.h"
  10:Middlewares/lvgl/src/extra/layouts/flex/lv_flex.c **** 
  11:Middlewares/lvgl/src/extra/layouts/flex/lv_flex.c **** #if LV_USE_FLEX
  12:Middlewares/lvgl/src/extra/layouts/flex/lv_flex.c **** 
  13:Middlewares/lvgl/src/extra/layouts/flex/lv_flex.c **** /*********************
  14:Middlewares/lvgl/src/extra/layouts/flex/lv_flex.c ****  *      DEFINES
  15:Middlewares/lvgl/src/extra/layouts/flex/lv_flex.c ****  *********************/
  16:Middlewares/lvgl/src/extra/layouts/flex/lv_flex.c **** 
  17:Middlewares/lvgl/src/extra/layouts/flex/lv_flex.c **** /**********************
  18:Middlewares/lvgl/src/extra/layouts/flex/lv_flex.c ****  *      TYPEDEFS
  19:Middlewares/lvgl/src/extra/layouts/flex/lv_flex.c ****  **********************/
  20:Middlewares/lvgl/src/extra/layouts/flex/lv_flex.c **** typedef struct {
  21:Middlewares/lvgl/src/extra/layouts/flex/lv_flex.c ****     lv_flex_align_t main_place;
  22:Middlewares/lvgl/src/extra/layouts/flex/lv_flex.c ****     lv_flex_align_t cross_place;
  23:Middlewares/lvgl/src/extra/layouts/flex/lv_flex.c ****     lv_flex_align_t track_place;
  24:Middlewares/lvgl/src/extra/layouts/flex/lv_flex.c ****     uint8_t row :1;
  25:Middlewares/lvgl/src/extra/layouts/flex/lv_flex.c ****     uint8_t wrap :1;
  26:Middlewares/lvgl/src/extra/layouts/flex/lv_flex.c ****     uint8_t rev :1;
  27:Middlewares/lvgl/src/extra/layouts/flex/lv_flex.c **** }flex_t;
  28:Middlewares/lvgl/src/extra/layouts/flex/lv_flex.c **** 
  29:Middlewares/lvgl/src/extra/layouts/flex/lv_flex.c **** typedef struct {
  30:Middlewares/lvgl/src/extra/layouts/flex/lv_flex.c ****     lv_obj_t * item;
  31:Middlewares/lvgl/src/extra/layouts/flex/lv_flex.c ****     lv_coord_t min_size;
  32:Middlewares/lvgl/src/extra/layouts/flex/lv_flex.c ****     lv_coord_t max_size;
  33:Middlewares/lvgl/src/extra/layouts/flex/lv_flex.c ****     lv_coord_t final_size;
  34:Middlewares/lvgl/src/extra/layouts/flex/lv_flex.c ****     uint32_t grow_value;
  35:Middlewares/lvgl/src/extra/layouts/flex/lv_flex.c ****     uint32_t clamped :1;
  36:Middlewares/lvgl/src/extra/layouts/flex/lv_flex.c **** }grow_dsc_t;
  37:Middlewares/lvgl/src/extra/layouts/flex/lv_flex.c **** 
  38:Middlewares/lvgl/src/extra/layouts/flex/lv_flex.c **** typedef struct {
  39:Middlewares/lvgl/src/extra/layouts/flex/lv_flex.c ****     lv_coord_t track_cross_size;
  40:Middlewares/lvgl/src/extra/layouts/flex/lv_flex.c ****     lv_coord_t track_main_size;         /*For all items*/
  41:Middlewares/lvgl/src/extra/layouts/flex/lv_flex.c ****     lv_coord_t track_fix_main_size;     /*For non grow items*/
  42:Middlewares/lvgl/src/extra/layouts/flex/lv_flex.c ****     uint32_t item_cnt;
  43:Middlewares/lvgl/src/extra/layouts/flex/lv_flex.c ****     grow_dsc_t * grow_dsc;
  44:Middlewares/lvgl/src/extra/layouts/flex/lv_flex.c ****     uint32_t grow_item_cnt;
  45:Middlewares/lvgl/src/extra/layouts/flex/lv_flex.c ****     uint32_t grow_dsc_calc :1;
  46:Middlewares/lvgl/src/extra/layouts/flex/lv_flex.c **** }track_t;
ARM GAS  /tmp/ccjZBdV3.s 			page 6


  47:Middlewares/lvgl/src/extra/layouts/flex/lv_flex.c **** 
  48:Middlewares/lvgl/src/extra/layouts/flex/lv_flex.c **** 
  49:Middlewares/lvgl/src/extra/layouts/flex/lv_flex.c **** /**********************
  50:Middlewares/lvgl/src/extra/layouts/flex/lv_flex.c ****  *  GLOBAL PROTOTYPES
  51:Middlewares/lvgl/src/extra/layouts/flex/lv_flex.c ****  **********************/
  52:Middlewares/lvgl/src/extra/layouts/flex/lv_flex.c **** 
  53:Middlewares/lvgl/src/extra/layouts/flex/lv_flex.c **** /**********************
  54:Middlewares/lvgl/src/extra/layouts/flex/lv_flex.c ****  *  STATIC PROTOTYPES
  55:Middlewares/lvgl/src/extra/layouts/flex/lv_flex.c ****  **********************/
  56:Middlewares/lvgl/src/extra/layouts/flex/lv_flex.c **** static void flex_update(lv_obj_t * cont, void * user_data);
  57:Middlewares/lvgl/src/extra/layouts/flex/lv_flex.c **** static int32_t find_track_end(lv_obj_t * cont, flex_t * f, int32_t item_start_id, lv_coord_t item_g
  58:Middlewares/lvgl/src/extra/layouts/flex/lv_flex.c **** static void children_repos(lv_obj_t * cont, flex_t * f, int32_t item_first_id, int32_t item_last_id
  59:Middlewares/lvgl/src/extra/layouts/flex/lv_flex.c **** static void place_content(lv_flex_align_t place, lv_coord_t max_size, lv_coord_t content_size, lv_c
  60:Middlewares/lvgl/src/extra/layouts/flex/lv_flex.c **** static lv_obj_t * get_next_item(lv_obj_t * cont, bool rev, int32_t * item_id);
  61:Middlewares/lvgl/src/extra/layouts/flex/lv_flex.c **** 
  62:Middlewares/lvgl/src/extra/layouts/flex/lv_flex.c **** /**********************
  63:Middlewares/lvgl/src/extra/layouts/flex/lv_flex.c ****  *  GLOBAL VARIABLES
  64:Middlewares/lvgl/src/extra/layouts/flex/lv_flex.c ****  **********************/
  65:Middlewares/lvgl/src/extra/layouts/flex/lv_flex.c **** uint32_t LV_LAYOUT_FLEX;
  66:Middlewares/lvgl/src/extra/layouts/flex/lv_flex.c **** lv_style_prop_t LV_STYLE_FLEX_FLOW;
  67:Middlewares/lvgl/src/extra/layouts/flex/lv_flex.c **** lv_style_prop_t LV_STYLE_FLEX_MAIN_PLACE;
  68:Middlewares/lvgl/src/extra/layouts/flex/lv_flex.c **** lv_style_prop_t LV_STYLE_FLEX_CROSS_PLACE;
  69:Middlewares/lvgl/src/extra/layouts/flex/lv_flex.c **** lv_style_prop_t LV_STYLE_FLEX_TRACK_PLACE;
  70:Middlewares/lvgl/src/extra/layouts/flex/lv_flex.c **** lv_style_prop_t LV_STYLE_FLEX_GROW;
  71:Middlewares/lvgl/src/extra/layouts/flex/lv_flex.c **** 
  72:Middlewares/lvgl/src/extra/layouts/flex/lv_flex.c **** 
  73:Middlewares/lvgl/src/extra/layouts/flex/lv_flex.c **** /**********************
  74:Middlewares/lvgl/src/extra/layouts/flex/lv_flex.c ****  *  STATIC VARIABLES
  75:Middlewares/lvgl/src/extra/layouts/flex/lv_flex.c ****  **********************/
  76:Middlewares/lvgl/src/extra/layouts/flex/lv_flex.c **** 
  77:Middlewares/lvgl/src/extra/layouts/flex/lv_flex.c **** /**********************
  78:Middlewares/lvgl/src/extra/layouts/flex/lv_flex.c ****  *      MACROS
  79:Middlewares/lvgl/src/extra/layouts/flex/lv_flex.c ****  **********************/
  80:Middlewares/lvgl/src/extra/layouts/flex/lv_flex.c **** 
  81:Middlewares/lvgl/src/extra/layouts/flex/lv_flex.c **** /**********************
  82:Middlewares/lvgl/src/extra/layouts/flex/lv_flex.c ****  *   GLOBAL FUNCTIONS
  83:Middlewares/lvgl/src/extra/layouts/flex/lv_flex.c ****  **********************/
  84:Middlewares/lvgl/src/extra/layouts/flex/lv_flex.c **** 
  85:Middlewares/lvgl/src/extra/layouts/flex/lv_flex.c **** /*=====================
  86:Middlewares/lvgl/src/extra/layouts/flex/lv_flex.c ****  * Setter functions
  87:Middlewares/lvgl/src/extra/layouts/flex/lv_flex.c ****  *====================*/
  88:Middlewares/lvgl/src/extra/layouts/flex/lv_flex.c **** 
  89:Middlewares/lvgl/src/extra/layouts/flex/lv_flex.c **** void lv_flex_init(void)
  90:Middlewares/lvgl/src/extra/layouts/flex/lv_flex.c **** {
  91:Middlewares/lvgl/src/extra/layouts/flex/lv_flex.c ****     LV_LAYOUT_FLEX = lv_layout_register(flex_update, NULL);
  92:Middlewares/lvgl/src/extra/layouts/flex/lv_flex.c **** 
  93:Middlewares/lvgl/src/extra/layouts/flex/lv_flex.c ****     LV_STYLE_FLEX_FLOW = lv_style_register_prop();
  94:Middlewares/lvgl/src/extra/layouts/flex/lv_flex.c ****     LV_STYLE_FLEX_MAIN_PLACE = lv_style_register_prop() | LV_STYLE_PROP_LAYOUT_REFR;
  95:Middlewares/lvgl/src/extra/layouts/flex/lv_flex.c ****     LV_STYLE_FLEX_CROSS_PLACE = lv_style_register_prop() | LV_STYLE_PROP_LAYOUT_REFR;
  96:Middlewares/lvgl/src/extra/layouts/flex/lv_flex.c ****     LV_STYLE_FLEX_TRACK_PLACE = lv_style_register_prop() | LV_STYLE_PROP_LAYOUT_REFR;
  97:Middlewares/lvgl/src/extra/layouts/flex/lv_flex.c **** }
  98:Middlewares/lvgl/src/extra/layouts/flex/lv_flex.c **** 
  99:Middlewares/lvgl/src/extra/layouts/flex/lv_flex.c **** void lv_obj_set_flex_flow(lv_obj_t * obj, lv_flex_flow_t flow)
 100:Middlewares/lvgl/src/extra/layouts/flex/lv_flex.c **** {
 101:Middlewares/lvgl/src/extra/layouts/flex/lv_flex.c ****     lv_obj_set_style_flex_flow(obj, flow, 0);
 102:Middlewares/lvgl/src/extra/layouts/flex/lv_flex.c ****     lv_obj_set_style_layout(obj, LV_LAYOUT_FLEX, 0);
 103:Middlewares/lvgl/src/extra/layouts/flex/lv_flex.c **** }
ARM GAS  /tmp/ccjZBdV3.s 			page 7


 104:Middlewares/lvgl/src/extra/layouts/flex/lv_flex.c **** 
 105:Middlewares/lvgl/src/extra/layouts/flex/lv_flex.c **** void lv_obj_set_flex_align(lv_obj_t * obj, lv_flex_align_t main_place, lv_flex_align_t cross_place,
 106:Middlewares/lvgl/src/extra/layouts/flex/lv_flex.c **** {
 107:Middlewares/lvgl/src/extra/layouts/flex/lv_flex.c ****     lv_obj_set_style_flex_main_place(obj, main_place, 0);
 108:Middlewares/lvgl/src/extra/layouts/flex/lv_flex.c ****     lv_obj_set_style_flex_cross_place(obj, cross_place, 0);
 109:Middlewares/lvgl/src/extra/layouts/flex/lv_flex.c ****     lv_obj_set_style_flex_track_place(obj, track_place, 0);
 110:Middlewares/lvgl/src/extra/layouts/flex/lv_flex.c ****     lv_obj_set_style_layout(obj, LV_LAYOUT_FLEX, 0);
 111:Middlewares/lvgl/src/extra/layouts/flex/lv_flex.c **** }
 112:Middlewares/lvgl/src/extra/layouts/flex/lv_flex.c **** 
 113:Middlewares/lvgl/src/extra/layouts/flex/lv_flex.c **** void lv_obj_set_flex_grow(lv_obj_t * obj, uint8_t grow)
 114:Middlewares/lvgl/src/extra/layouts/flex/lv_flex.c **** {
 115:Middlewares/lvgl/src/extra/layouts/flex/lv_flex.c ****     lv_obj_set_style_flex_grow(obj, grow, 0);
 116:Middlewares/lvgl/src/extra/layouts/flex/lv_flex.c ****     lv_obj_mark_layout_as_dirty(lv_obj_get_parent(obj));
 117:Middlewares/lvgl/src/extra/layouts/flex/lv_flex.c **** }
 118:Middlewares/lvgl/src/extra/layouts/flex/lv_flex.c **** 
 119:Middlewares/lvgl/src/extra/layouts/flex/lv_flex.c **** 
 120:Middlewares/lvgl/src/extra/layouts/flex/lv_flex.c **** void lv_style_set_flex_flow(lv_style_t * style, lv_flex_flow_t value)
 121:Middlewares/lvgl/src/extra/layouts/flex/lv_flex.c **** {
 122:Middlewares/lvgl/src/extra/layouts/flex/lv_flex.c ****     lv_style_value_t v = {
 123:Middlewares/lvgl/src/extra/layouts/flex/lv_flex.c ****         .num = (int32_t)value
 124:Middlewares/lvgl/src/extra/layouts/flex/lv_flex.c ****     };
 125:Middlewares/lvgl/src/extra/layouts/flex/lv_flex.c ****     lv_style_set_prop(style, LV_STYLE_FLEX_FLOW, v);
 126:Middlewares/lvgl/src/extra/layouts/flex/lv_flex.c **** }
 127:Middlewares/lvgl/src/extra/layouts/flex/lv_flex.c **** 
 128:Middlewares/lvgl/src/extra/layouts/flex/lv_flex.c **** void lv_style_set_flex_main_place(lv_style_t * style, lv_flex_align_t value)
 129:Middlewares/lvgl/src/extra/layouts/flex/lv_flex.c **** {
 130:Middlewares/lvgl/src/extra/layouts/flex/lv_flex.c ****     lv_style_value_t v = {
 131:Middlewares/lvgl/src/extra/layouts/flex/lv_flex.c ****         .num = (int32_t)value
 132:Middlewares/lvgl/src/extra/layouts/flex/lv_flex.c ****     };
 133:Middlewares/lvgl/src/extra/layouts/flex/lv_flex.c ****     lv_style_set_prop(style, LV_STYLE_FLEX_MAIN_PLACE, v);
 134:Middlewares/lvgl/src/extra/layouts/flex/lv_flex.c **** }
 135:Middlewares/lvgl/src/extra/layouts/flex/lv_flex.c **** 
 136:Middlewares/lvgl/src/extra/layouts/flex/lv_flex.c **** void lv_style_set_flex_cross_place(lv_style_t * style, lv_flex_align_t value)
 137:Middlewares/lvgl/src/extra/layouts/flex/lv_flex.c **** {
 138:Middlewares/lvgl/src/extra/layouts/flex/lv_flex.c ****     lv_style_value_t v = {
 139:Middlewares/lvgl/src/extra/layouts/flex/lv_flex.c ****         .num = (int32_t)value
 140:Middlewares/lvgl/src/extra/layouts/flex/lv_flex.c ****     };
 141:Middlewares/lvgl/src/extra/layouts/flex/lv_flex.c ****     lv_style_set_prop(style, LV_STYLE_FLEX_CROSS_PLACE, v);
 142:Middlewares/lvgl/src/extra/layouts/flex/lv_flex.c **** }
 143:Middlewares/lvgl/src/extra/layouts/flex/lv_flex.c **** 
 144:Middlewares/lvgl/src/extra/layouts/flex/lv_flex.c **** void lv_style_set_flex_track_place(lv_style_t * style, lv_flex_align_t value)
 145:Middlewares/lvgl/src/extra/layouts/flex/lv_flex.c **** {
 146:Middlewares/lvgl/src/extra/layouts/flex/lv_flex.c ****     lv_style_value_t v = {
 147:Middlewares/lvgl/src/extra/layouts/flex/lv_flex.c ****         .num = (int32_t)value
 148:Middlewares/lvgl/src/extra/layouts/flex/lv_flex.c ****     };
 149:Middlewares/lvgl/src/extra/layouts/flex/lv_flex.c ****     lv_style_set_prop(style, LV_STYLE_FLEX_TRACK_PLACE, v);
 150:Middlewares/lvgl/src/extra/layouts/flex/lv_flex.c **** }
 151:Middlewares/lvgl/src/extra/layouts/flex/lv_flex.c **** 
 152:Middlewares/lvgl/src/extra/layouts/flex/lv_flex.c **** void lv_style_set_flex_grow(lv_style_t * style, uint8_t value)
 153:Middlewares/lvgl/src/extra/layouts/flex/lv_flex.c **** {
 154:Middlewares/lvgl/src/extra/layouts/flex/lv_flex.c ****     lv_style_value_t v = {
 155:Middlewares/lvgl/src/extra/layouts/flex/lv_flex.c ****             .num = (int32_t)value
 156:Middlewares/lvgl/src/extra/layouts/flex/lv_flex.c ****     };
 157:Middlewares/lvgl/src/extra/layouts/flex/lv_flex.c ****     lv_style_set_prop(style, LV_STYLE_FLEX_GROW, v);
 158:Middlewares/lvgl/src/extra/layouts/flex/lv_flex.c **** }
 159:Middlewares/lvgl/src/extra/layouts/flex/lv_flex.c **** 
 160:Middlewares/lvgl/src/extra/layouts/flex/lv_flex.c **** 
ARM GAS  /tmp/ccjZBdV3.s 			page 8


 161:Middlewares/lvgl/src/extra/layouts/flex/lv_flex.c **** void lv_obj_set_style_flex_flow(lv_obj_t * obj, lv_flex_flow_t value, lv_style_selector_t selector)
 162:Middlewares/lvgl/src/extra/layouts/flex/lv_flex.c **** {
 163:Middlewares/lvgl/src/extra/layouts/flex/lv_flex.c ****     lv_style_value_t v = {
 164:Middlewares/lvgl/src/extra/layouts/flex/lv_flex.c ****         .num = (int32_t) value
 165:Middlewares/lvgl/src/extra/layouts/flex/lv_flex.c ****     };
 166:Middlewares/lvgl/src/extra/layouts/flex/lv_flex.c ****     lv_obj_set_local_style_prop(obj, LV_STYLE_FLEX_FLOW, v, selector);
 167:Middlewares/lvgl/src/extra/layouts/flex/lv_flex.c **** }
 168:Middlewares/lvgl/src/extra/layouts/flex/lv_flex.c **** 
 169:Middlewares/lvgl/src/extra/layouts/flex/lv_flex.c **** void lv_obj_set_style_flex_main_place(lv_obj_t * obj, lv_flex_align_t value, lv_style_selector_t se
 170:Middlewares/lvgl/src/extra/layouts/flex/lv_flex.c **** {
 171:Middlewares/lvgl/src/extra/layouts/flex/lv_flex.c ****     lv_style_value_t v = {
 172:Middlewares/lvgl/src/extra/layouts/flex/lv_flex.c ****         .num = (int32_t) value
 173:Middlewares/lvgl/src/extra/layouts/flex/lv_flex.c ****     };
 174:Middlewares/lvgl/src/extra/layouts/flex/lv_flex.c ****     lv_obj_set_local_style_prop(obj, LV_STYLE_FLEX_MAIN_PLACE, v, selector);
 175:Middlewares/lvgl/src/extra/layouts/flex/lv_flex.c **** }
 176:Middlewares/lvgl/src/extra/layouts/flex/lv_flex.c **** 
 177:Middlewares/lvgl/src/extra/layouts/flex/lv_flex.c **** void lv_obj_set_style_flex_cross_place(lv_obj_t * obj, lv_flex_align_t value, lv_style_selector_t s
 178:Middlewares/lvgl/src/extra/layouts/flex/lv_flex.c **** {
 179:Middlewares/lvgl/src/extra/layouts/flex/lv_flex.c ****     lv_style_value_t v = {
 180:Middlewares/lvgl/src/extra/layouts/flex/lv_flex.c ****         .num = (int32_t) value
 181:Middlewares/lvgl/src/extra/layouts/flex/lv_flex.c ****     };
 182:Middlewares/lvgl/src/extra/layouts/flex/lv_flex.c ****     lv_obj_set_local_style_prop(obj, LV_STYLE_FLEX_CROSS_PLACE, v, selector);
 183:Middlewares/lvgl/src/extra/layouts/flex/lv_flex.c **** }
 184:Middlewares/lvgl/src/extra/layouts/flex/lv_flex.c **** 
 185:Middlewares/lvgl/src/extra/layouts/flex/lv_flex.c **** void lv_obj_set_style_flex_track_place(lv_obj_t * obj, lv_flex_align_t value, lv_style_selector_t s
 186:Middlewares/lvgl/src/extra/layouts/flex/lv_flex.c **** {
 187:Middlewares/lvgl/src/extra/layouts/flex/lv_flex.c ****     lv_style_value_t v = {
 188:Middlewares/lvgl/src/extra/layouts/flex/lv_flex.c ****         .num = (int32_t) value
 189:Middlewares/lvgl/src/extra/layouts/flex/lv_flex.c ****     };
 190:Middlewares/lvgl/src/extra/layouts/flex/lv_flex.c ****     lv_obj_set_local_style_prop(obj, LV_STYLE_FLEX_TRACK_PLACE, v, selector);
 191:Middlewares/lvgl/src/extra/layouts/flex/lv_flex.c **** }
 192:Middlewares/lvgl/src/extra/layouts/flex/lv_flex.c **** 
 193:Middlewares/lvgl/src/extra/layouts/flex/lv_flex.c **** void lv_obj_set_style_flex_grow(lv_obj_t * obj, uint8_t value, lv_style_selector_t selector)
 194:Middlewares/lvgl/src/extra/layouts/flex/lv_flex.c **** {
 195:Middlewares/lvgl/src/extra/layouts/flex/lv_flex.c ****     lv_style_value_t v = {
 196:Middlewares/lvgl/src/extra/layouts/flex/lv_flex.c ****         .num = (int32_t) value
 197:Middlewares/lvgl/src/extra/layouts/flex/lv_flex.c ****     };
 198:Middlewares/lvgl/src/extra/layouts/flex/lv_flex.c ****     lv_obj_set_local_style_prop(obj, LV_STYLE_FLEX_GROW, v, selector);
 199:Middlewares/lvgl/src/extra/layouts/flex/lv_flex.c **** }
 200:Middlewares/lvgl/src/extra/layouts/flex/lv_flex.c **** 
 201:Middlewares/lvgl/src/extra/layouts/flex/lv_flex.c **** /**********************
 202:Middlewares/lvgl/src/extra/layouts/flex/lv_flex.c ****  *   STATIC FUNCTIONS
 203:Middlewares/lvgl/src/extra/layouts/flex/lv_flex.c ****  **********************/
 204:Middlewares/lvgl/src/extra/layouts/flex/lv_flex.c **** 
 205:Middlewares/lvgl/src/extra/layouts/flex/lv_flex.c **** static void flex_update(lv_obj_t * cont, void * user_data)
 206:Middlewares/lvgl/src/extra/layouts/flex/lv_flex.c **** {
 207:Middlewares/lvgl/src/extra/layouts/flex/lv_flex.c ****     LV_LOG_INFO("update %p container", cont);
 208:Middlewares/lvgl/src/extra/layouts/flex/lv_flex.c ****     LV_UNUSED(user_data);
 209:Middlewares/lvgl/src/extra/layouts/flex/lv_flex.c **** 
 210:Middlewares/lvgl/src/extra/layouts/flex/lv_flex.c ****     flex_t f;
 211:Middlewares/lvgl/src/extra/layouts/flex/lv_flex.c ****     lv_flex_flow_t flow = lv_obj_get_style_flex_flow(cont, LV_PART_MAIN);
 212:Middlewares/lvgl/src/extra/layouts/flex/lv_flex.c ****     f.row = flow & _LV_FLEX_COLUMN ? 0 : 1;
 213:Middlewares/lvgl/src/extra/layouts/flex/lv_flex.c ****     f.wrap = flow & _LV_FLEX_WRAP ? 1 : 0;
 214:Middlewares/lvgl/src/extra/layouts/flex/lv_flex.c ****     f.rev = flow & _LV_FLEX_REVERSE ? 1 : 0;
 215:Middlewares/lvgl/src/extra/layouts/flex/lv_flex.c ****     f.main_place = lv_obj_get_style_flex_main_place(cont, LV_PART_MAIN);
 216:Middlewares/lvgl/src/extra/layouts/flex/lv_flex.c ****     f.cross_place = lv_obj_get_style_flex_cross_place(cont, LV_PART_MAIN);
 217:Middlewares/lvgl/src/extra/layouts/flex/lv_flex.c ****     f.track_place = lv_obj_get_style_flex_track_place(cont, LV_PART_MAIN);
ARM GAS  /tmp/ccjZBdV3.s 			page 9


 218:Middlewares/lvgl/src/extra/layouts/flex/lv_flex.c **** 
 219:Middlewares/lvgl/src/extra/layouts/flex/lv_flex.c ****     bool rtl = lv_obj_get_style_base_dir(cont, LV_PART_MAIN) == LV_BASE_DIR_RTL ? true : false;
 220:Middlewares/lvgl/src/extra/layouts/flex/lv_flex.c ****     lv_coord_t track_gap = !f.row ? lv_obj_get_style_pad_column(cont, LV_PART_MAIN) : lv_obj_get_st
 221:Middlewares/lvgl/src/extra/layouts/flex/lv_flex.c ****     lv_coord_t item_gap = f.row ? lv_obj_get_style_pad_column(cont, LV_PART_MAIN) : lv_obj_get_styl
 222:Middlewares/lvgl/src/extra/layouts/flex/lv_flex.c ****     lv_coord_t max_main_size = (f.row ? lv_obj_get_content_width(cont) : lv_obj_get_content_height(
 223:Middlewares/lvgl/src/extra/layouts/flex/lv_flex.c ****     lv_coord_t border_widt = lv_obj_get_style_border_width(cont, LV_PART_MAIN);
 224:Middlewares/lvgl/src/extra/layouts/flex/lv_flex.c ****     lv_coord_t abs_y = cont->coords.y1 + lv_obj_get_style_pad_top(cont, LV_PART_MAIN) + border_widt
 225:Middlewares/lvgl/src/extra/layouts/flex/lv_flex.c ****     lv_coord_t abs_x = cont->coords.x1 + lv_obj_get_style_pad_left(cont, LV_PART_MAIN) + border_wid
 226:Middlewares/lvgl/src/extra/layouts/flex/lv_flex.c **** 
 227:Middlewares/lvgl/src/extra/layouts/flex/lv_flex.c ****     lv_flex_align_t track_cross_place = f.track_place;
 228:Middlewares/lvgl/src/extra/layouts/flex/lv_flex.c ****     lv_coord_t * cross_pos = (f.row ? &abs_y : &abs_x);
 229:Middlewares/lvgl/src/extra/layouts/flex/lv_flex.c **** 
 230:Middlewares/lvgl/src/extra/layouts/flex/lv_flex.c ****     lv_coord_t w_set = lv_obj_get_style_width(cont, LV_PART_MAIN);
 231:Middlewares/lvgl/src/extra/layouts/flex/lv_flex.c ****     lv_coord_t h_set = lv_obj_get_style_height(cont, LV_PART_MAIN);
 232:Middlewares/lvgl/src/extra/layouts/flex/lv_flex.c **** 
 233:Middlewares/lvgl/src/extra/layouts/flex/lv_flex.c ****     /*Content sized objects should squeezed the gap between the children, therefore any alignment w
 234:Middlewares/lvgl/src/extra/layouts/flex/lv_flex.c ****     if((f.row && h_set == LV_SIZE_CONTENT && cont->h_layout == 0) ||
 235:Middlewares/lvgl/src/extra/layouts/flex/lv_flex.c ****     	(!f.row && w_set == LV_SIZE_CONTENT && cont->w_layout == 0))
 236:Middlewares/lvgl/src/extra/layouts/flex/lv_flex.c ****     {
 237:Middlewares/lvgl/src/extra/layouts/flex/lv_flex.c ****         track_cross_place = LV_FLEX_ALIGN_START;
 238:Middlewares/lvgl/src/extra/layouts/flex/lv_flex.c ****     }
 239:Middlewares/lvgl/src/extra/layouts/flex/lv_flex.c **** 
 240:Middlewares/lvgl/src/extra/layouts/flex/lv_flex.c ****     if(rtl && !f.row) {
 241:Middlewares/lvgl/src/extra/layouts/flex/lv_flex.c ****         if(track_cross_place == LV_FLEX_ALIGN_START) track_cross_place = LV_FLEX_ALIGN_END;
 242:Middlewares/lvgl/src/extra/layouts/flex/lv_flex.c ****         else if(track_cross_place == LV_FLEX_ALIGN_END) track_cross_place = LV_FLEX_ALIGN_START;
 243:Middlewares/lvgl/src/extra/layouts/flex/lv_flex.c ****     }
 244:Middlewares/lvgl/src/extra/layouts/flex/lv_flex.c **** 
 245:Middlewares/lvgl/src/extra/layouts/flex/lv_flex.c ****     lv_coord_t total_track_cross_size = 0;
 246:Middlewares/lvgl/src/extra/layouts/flex/lv_flex.c ****     lv_coord_t gap = 0;
 247:Middlewares/lvgl/src/extra/layouts/flex/lv_flex.c ****     uint32_t track_cnt = 0;
 248:Middlewares/lvgl/src/extra/layouts/flex/lv_flex.c ****     int32_t track_first_item;
 249:Middlewares/lvgl/src/extra/layouts/flex/lv_flex.c ****     int32_t next_track_first_item;
 250:Middlewares/lvgl/src/extra/layouts/flex/lv_flex.c **** 
 251:Middlewares/lvgl/src/extra/layouts/flex/lv_flex.c ****     if(track_cross_place != LV_FLEX_ALIGN_START) {
 252:Middlewares/lvgl/src/extra/layouts/flex/lv_flex.c ****         track_first_item = f.rev ? cont->spec_attr->child_cnt - 1 : 0;
 253:Middlewares/lvgl/src/extra/layouts/flex/lv_flex.c ****         track_t t;
 254:Middlewares/lvgl/src/extra/layouts/flex/lv_flex.c ****         while(track_first_item < (int32_t)cont->spec_attr->child_cnt && track_first_item >= 0) {
 255:Middlewares/lvgl/src/extra/layouts/flex/lv_flex.c ****             /*Search the first item of the next row*/
 256:Middlewares/lvgl/src/extra/layouts/flex/lv_flex.c ****             t.grow_dsc_calc = 0;
 257:Middlewares/lvgl/src/extra/layouts/flex/lv_flex.c ****             next_track_first_item = find_track_end(cont, &f, track_first_item, max_main_size, item_
 258:Middlewares/lvgl/src/extra/layouts/flex/lv_flex.c ****             total_track_cross_size += t.track_cross_size + track_gap;
 259:Middlewares/lvgl/src/extra/layouts/flex/lv_flex.c ****             track_cnt++;
 260:Middlewares/lvgl/src/extra/layouts/flex/lv_flex.c ****             track_first_item = next_track_first_item;
 261:Middlewares/lvgl/src/extra/layouts/flex/lv_flex.c ****         }
 262:Middlewares/lvgl/src/extra/layouts/flex/lv_flex.c **** 
 263:Middlewares/lvgl/src/extra/layouts/flex/lv_flex.c ****         if(track_cnt) total_track_cross_size -= track_gap;   /*No gap after the last track*/
 264:Middlewares/lvgl/src/extra/layouts/flex/lv_flex.c **** 
 265:Middlewares/lvgl/src/extra/layouts/flex/lv_flex.c ****         /*Place the tracks to get the start position*/
 266:Middlewares/lvgl/src/extra/layouts/flex/lv_flex.c ****         lv_coord_t max_cross_size = (f.row ? lv_obj_get_content_height(cont) : lv_obj_get_content_w
 267:Middlewares/lvgl/src/extra/layouts/flex/lv_flex.c ****         place_content(track_cross_place, max_cross_size, total_track_cross_size, track_cnt, cross_p
 268:Middlewares/lvgl/src/extra/layouts/flex/lv_flex.c ****     }
 269:Middlewares/lvgl/src/extra/layouts/flex/lv_flex.c **** 
 270:Middlewares/lvgl/src/extra/layouts/flex/lv_flex.c ****     track_first_item =  f.rev ? cont->spec_attr->child_cnt - 1 : 0;
 271:Middlewares/lvgl/src/extra/layouts/flex/lv_flex.c **** 
 272:Middlewares/lvgl/src/extra/layouts/flex/lv_flex.c ****     if(rtl && !f.row) {
 273:Middlewares/lvgl/src/extra/layouts/flex/lv_flex.c ****          *cross_pos += total_track_cross_size;
 274:Middlewares/lvgl/src/extra/layouts/flex/lv_flex.c ****     }
ARM GAS  /tmp/ccjZBdV3.s 			page 10


 275:Middlewares/lvgl/src/extra/layouts/flex/lv_flex.c **** 
 276:Middlewares/lvgl/src/extra/layouts/flex/lv_flex.c ****     while(track_first_item < (int32_t)cont->spec_attr->child_cnt && track_first_item >= 0) {
 277:Middlewares/lvgl/src/extra/layouts/flex/lv_flex.c ****         track_t t;
 278:Middlewares/lvgl/src/extra/layouts/flex/lv_flex.c ****         t.grow_dsc_calc = 1;
 279:Middlewares/lvgl/src/extra/layouts/flex/lv_flex.c ****         /*Search the first item of the next row*/
 280:Middlewares/lvgl/src/extra/layouts/flex/lv_flex.c ****         next_track_first_item = find_track_end(cont, &f, track_first_item, max_main_size, item_gap,
 281:Middlewares/lvgl/src/extra/layouts/flex/lv_flex.c **** 
 282:Middlewares/lvgl/src/extra/layouts/flex/lv_flex.c ****         if(rtl && !f.row) {
 283:Middlewares/lvgl/src/extra/layouts/flex/lv_flex.c ****             *cross_pos -= t.track_cross_size;
 284:Middlewares/lvgl/src/extra/layouts/flex/lv_flex.c ****         }
 285:Middlewares/lvgl/src/extra/layouts/flex/lv_flex.c ****         children_repos(cont, &f, track_first_item, next_track_first_item, abs_x, abs_y, max_main_si
 286:Middlewares/lvgl/src/extra/layouts/flex/lv_flex.c ****         track_first_item = next_track_first_item;
 287:Middlewares/lvgl/src/extra/layouts/flex/lv_flex.c ****         lv_mem_buf_release(t.grow_dsc);
 288:Middlewares/lvgl/src/extra/layouts/flex/lv_flex.c ****         t.grow_dsc = NULL;
 289:Middlewares/lvgl/src/extra/layouts/flex/lv_flex.c ****         if(rtl && !f.row) {
 290:Middlewares/lvgl/src/extra/layouts/flex/lv_flex.c ****             *cross_pos -= gap + track_gap;
 291:Middlewares/lvgl/src/extra/layouts/flex/lv_flex.c ****         } else {
 292:Middlewares/lvgl/src/extra/layouts/flex/lv_flex.c ****             *cross_pos += t.track_cross_size + gap + track_gap;
 293:Middlewares/lvgl/src/extra/layouts/flex/lv_flex.c ****         }
 294:Middlewares/lvgl/src/extra/layouts/flex/lv_flex.c ****     }
 295:Middlewares/lvgl/src/extra/layouts/flex/lv_flex.c ****     LV_ASSERT_MEM_INTEGRITY();
 296:Middlewares/lvgl/src/extra/layouts/flex/lv_flex.c **** 
 297:Middlewares/lvgl/src/extra/layouts/flex/lv_flex.c ****     if(w_set == LV_SIZE_CONTENT || h_set == LV_SIZE_CONTENT) {
 298:Middlewares/lvgl/src/extra/layouts/flex/lv_flex.c ****         lv_obj_refr_size(cont);
 299:Middlewares/lvgl/src/extra/layouts/flex/lv_flex.c ****     }
 300:Middlewares/lvgl/src/extra/layouts/flex/lv_flex.c **** 
 301:Middlewares/lvgl/src/extra/layouts/flex/lv_flex.c ****     lv_event_send(cont, LV_EVENT_LAYOUT_CHANGED, NULL);
 302:Middlewares/lvgl/src/extra/layouts/flex/lv_flex.c **** 
 303:Middlewares/lvgl/src/extra/layouts/flex/lv_flex.c ****     LV_TRACE_LAYOUT("finished");
 304:Middlewares/lvgl/src/extra/layouts/flex/lv_flex.c **** }
 305:Middlewares/lvgl/src/extra/layouts/flex/lv_flex.c **** 
 306:Middlewares/lvgl/src/extra/layouts/flex/lv_flex.c **** /**
 307:Middlewares/lvgl/src/extra/layouts/flex/lv_flex.c ****  * Find the last item of a track
 308:Middlewares/lvgl/src/extra/layouts/flex/lv_flex.c ****  */
 309:Middlewares/lvgl/src/extra/layouts/flex/lv_flex.c **** static int32_t find_track_end(lv_obj_t * cont, flex_t * f, int32_t item_start_id, lv_coord_t max_ma
 310:Middlewares/lvgl/src/extra/layouts/flex/lv_flex.c **** {
 311:Middlewares/lvgl/src/extra/layouts/flex/lv_flex.c ****     lv_coord_t w_set = lv_obj_get_style_width(cont, LV_PART_MAIN);
 312:Middlewares/lvgl/src/extra/layouts/flex/lv_flex.c ****     lv_coord_t h_set = lv_obj_get_style_height(cont, LV_PART_MAIN);
 313:Middlewares/lvgl/src/extra/layouts/flex/lv_flex.c **** 
 314:Middlewares/lvgl/src/extra/layouts/flex/lv_flex.c ****     /*Can't wrap if the size if auto (i.e. the size depends on the children)*/
 315:Middlewares/lvgl/src/extra/layouts/flex/lv_flex.c ****     if(f->wrap && ((f->row && w_set == LV_SIZE_CONTENT) || (!f->row && h_set == LV_SIZE_CONTENT))) 
 316:Middlewares/lvgl/src/extra/layouts/flex/lv_flex.c ****         f->wrap = false;
 317:Middlewares/lvgl/src/extra/layouts/flex/lv_flex.c ****     }
 318:Middlewares/lvgl/src/extra/layouts/flex/lv_flex.c ****     lv_coord_t(*get_main_size)(const lv_obj_t *) = (f->row ? lv_obj_get_width : lv_obj_get_height);
 319:Middlewares/lvgl/src/extra/layouts/flex/lv_flex.c ****     lv_coord_t(*get_cross_size)(const lv_obj_t *) = (!f->row ? lv_obj_get_width : lv_obj_get_height
 320:Middlewares/lvgl/src/extra/layouts/flex/lv_flex.c **** 
 321:Middlewares/lvgl/src/extra/layouts/flex/lv_flex.c ****     lv_coord_t grow_sum = 0;
 322:Middlewares/lvgl/src/extra/layouts/flex/lv_flex.c ****     t->track_main_size = 0;
 323:Middlewares/lvgl/src/extra/layouts/flex/lv_flex.c ****     t->track_fix_main_size = 0;
 324:Middlewares/lvgl/src/extra/layouts/flex/lv_flex.c ****     t->grow_item_cnt = 0;
 325:Middlewares/lvgl/src/extra/layouts/flex/lv_flex.c ****     t->track_cross_size = 0;
 326:Middlewares/lvgl/src/extra/layouts/flex/lv_flex.c ****     t->item_cnt = 0;
 327:Middlewares/lvgl/src/extra/layouts/flex/lv_flex.c ****     t->grow_dsc = NULL;
 328:Middlewares/lvgl/src/extra/layouts/flex/lv_flex.c **** 
 329:Middlewares/lvgl/src/extra/layouts/flex/lv_flex.c ****     int32_t item_id = item_start_id;
 330:Middlewares/lvgl/src/extra/layouts/flex/lv_flex.c **** 
 331:Middlewares/lvgl/src/extra/layouts/flex/lv_flex.c ****     lv_obj_t * item = lv_obj_get_child(cont, item_id);
ARM GAS  /tmp/ccjZBdV3.s 			page 11


 332:Middlewares/lvgl/src/extra/layouts/flex/lv_flex.c ****     while(item) {
 333:Middlewares/lvgl/src/extra/layouts/flex/lv_flex.c ****         if(item_id != item_start_id && lv_obj_has_flag(item, LV_OBJ_FLAG_FLEX_IN_NEW_TRACK)) break;
 334:Middlewares/lvgl/src/extra/layouts/flex/lv_flex.c **** 
 335:Middlewares/lvgl/src/extra/layouts/flex/lv_flex.c ****         if(!lv_obj_has_flag_any(item, LV_OBJ_FLAG_IGNORE_LAYOUT | LV_OBJ_FLAG_HIDDEN | LV_OBJ_FLAG_
 336:Middlewares/lvgl/src/extra/layouts/flex/lv_flex.c ****             uint8_t grow_value = lv_obj_get_style_flex_grow(item, LV_PART_MAIN);
 337:Middlewares/lvgl/src/extra/layouts/flex/lv_flex.c ****             if(grow_value) {
 338:Middlewares/lvgl/src/extra/layouts/flex/lv_flex.c ****                 grow_sum += grow_value;
 339:Middlewares/lvgl/src/extra/layouts/flex/lv_flex.c ****                 t->grow_item_cnt++;
 340:Middlewares/lvgl/src/extra/layouts/flex/lv_flex.c ****                 t->track_fix_main_size += item_gap;
 341:Middlewares/lvgl/src/extra/layouts/flex/lv_flex.c ****                 if(t->grow_dsc_calc) {
 342:Middlewares/lvgl/src/extra/layouts/flex/lv_flex.c ****                     grow_dsc_t * new_dsc = lv_mem_buf_get(sizeof(grow_dsc_t) * (t->grow_item_cnt));
 343:Middlewares/lvgl/src/extra/layouts/flex/lv_flex.c ****                     LV_ASSERT_MALLOC(new_dsc);
 344:Middlewares/lvgl/src/extra/layouts/flex/lv_flex.c ****                     if(new_dsc == NULL) return item_id;
 345:Middlewares/lvgl/src/extra/layouts/flex/lv_flex.c **** 
 346:Middlewares/lvgl/src/extra/layouts/flex/lv_flex.c ****                     if(t->grow_dsc) {
 347:Middlewares/lvgl/src/extra/layouts/flex/lv_flex.c ****                         lv_memcpy(new_dsc, t->grow_dsc, sizeof(grow_dsc_t) * (t->grow_item_cnt - 1)
 348:Middlewares/lvgl/src/extra/layouts/flex/lv_flex.c ****                         lv_mem_buf_release(t->grow_dsc);
 349:Middlewares/lvgl/src/extra/layouts/flex/lv_flex.c ****                     }
 350:Middlewares/lvgl/src/extra/layouts/flex/lv_flex.c ****                     new_dsc[t->grow_item_cnt - 1].item = item;
 351:Middlewares/lvgl/src/extra/layouts/flex/lv_flex.c ****                     new_dsc[t->grow_item_cnt - 1].min_size = f->row ? lv_obj_get_style_min_width(it
 352:Middlewares/lvgl/src/extra/layouts/flex/lv_flex.c ****                     new_dsc[t->grow_item_cnt - 1].max_size = f->row ? lv_obj_get_style_max_width(it
 353:Middlewares/lvgl/src/extra/layouts/flex/lv_flex.c ****                     new_dsc[t->grow_item_cnt - 1].grow_value = grow_value;
 354:Middlewares/lvgl/src/extra/layouts/flex/lv_flex.c ****                     new_dsc[t->grow_item_cnt - 1].clamped = 0;
 355:Middlewares/lvgl/src/extra/layouts/flex/lv_flex.c ****                     t->grow_dsc = new_dsc;
 356:Middlewares/lvgl/src/extra/layouts/flex/lv_flex.c ****                 }
 357:Middlewares/lvgl/src/extra/layouts/flex/lv_flex.c ****             } else {
 358:Middlewares/lvgl/src/extra/layouts/flex/lv_flex.c ****                 lv_coord_t item_size = get_main_size(item);
 359:Middlewares/lvgl/src/extra/layouts/flex/lv_flex.c ****                 if(f->wrap && t->track_fix_main_size + item_size > max_main_size) break;
 360:Middlewares/lvgl/src/extra/layouts/flex/lv_flex.c ****                 t->track_fix_main_size += item_size + item_gap;
 361:Middlewares/lvgl/src/extra/layouts/flex/lv_flex.c ****             }
 362:Middlewares/lvgl/src/extra/layouts/flex/lv_flex.c **** 
 363:Middlewares/lvgl/src/extra/layouts/flex/lv_flex.c **** 
 364:Middlewares/lvgl/src/extra/layouts/flex/lv_flex.c ****             t->track_cross_size = LV_MAX(get_cross_size(item), t->track_cross_size);
 365:Middlewares/lvgl/src/extra/layouts/flex/lv_flex.c ****             t->item_cnt++;
 366:Middlewares/lvgl/src/extra/layouts/flex/lv_flex.c ****         }
 367:Middlewares/lvgl/src/extra/layouts/flex/lv_flex.c **** 
 368:Middlewares/lvgl/src/extra/layouts/flex/lv_flex.c ****         item_id += f->rev ? -1 : +1;
 369:Middlewares/lvgl/src/extra/layouts/flex/lv_flex.c ****         if(item_id < 0) break;
 370:Middlewares/lvgl/src/extra/layouts/flex/lv_flex.c ****         item = lv_obj_get_child(cont, item_id);
 371:Middlewares/lvgl/src/extra/layouts/flex/lv_flex.c ****     }
 372:Middlewares/lvgl/src/extra/layouts/flex/lv_flex.c **** 
 373:Middlewares/lvgl/src/extra/layouts/flex/lv_flex.c ****     if(t->track_fix_main_size > 0) t->track_fix_main_size -= item_gap; /*There is no gap after the 
 374:Middlewares/lvgl/src/extra/layouts/flex/lv_flex.c **** 
 375:Middlewares/lvgl/src/extra/layouts/flex/lv_flex.c ****     /*If there is at least one "grow item" the track takes the full space*/
 376:Middlewares/lvgl/src/extra/layouts/flex/lv_flex.c ****     t->track_main_size = t->grow_item_cnt ? max_main_size : t->track_fix_main_size;
 377:Middlewares/lvgl/src/extra/layouts/flex/lv_flex.c **** 
 378:Middlewares/lvgl/src/extra/layouts/flex/lv_flex.c ****     /*Have at least one item in a row*/
 379:Middlewares/lvgl/src/extra/layouts/flex/lv_flex.c ****     if(item && item_id == item_start_id) {
 380:Middlewares/lvgl/src/extra/layouts/flex/lv_flex.c ****         item = cont->spec_attr->children[item_id];
 381:Middlewares/lvgl/src/extra/layouts/flex/lv_flex.c ****         get_next_item(cont, f->rev, &item_id);
 382:Middlewares/lvgl/src/extra/layouts/flex/lv_flex.c ****         if(item) {
 383:Middlewares/lvgl/src/extra/layouts/flex/lv_flex.c ****             t->track_cross_size = get_cross_size(item);
 384:Middlewares/lvgl/src/extra/layouts/flex/lv_flex.c ****             t->track_main_size = get_main_size(item);
 385:Middlewares/lvgl/src/extra/layouts/flex/lv_flex.c ****             t->item_cnt = 1;
 386:Middlewares/lvgl/src/extra/layouts/flex/lv_flex.c ****         }
 387:Middlewares/lvgl/src/extra/layouts/flex/lv_flex.c ****     }
 388:Middlewares/lvgl/src/extra/layouts/flex/lv_flex.c **** 
ARM GAS  /tmp/ccjZBdV3.s 			page 12


 389:Middlewares/lvgl/src/extra/layouts/flex/lv_flex.c ****     return item_id;
 390:Middlewares/lvgl/src/extra/layouts/flex/lv_flex.c **** }
 391:Middlewares/lvgl/src/extra/layouts/flex/lv_flex.c **** 
 392:Middlewares/lvgl/src/extra/layouts/flex/lv_flex.c **** /**
 393:Middlewares/lvgl/src/extra/layouts/flex/lv_flex.c ****  * Position the children in the same track
 394:Middlewares/lvgl/src/extra/layouts/flex/lv_flex.c ****  */
 395:Middlewares/lvgl/src/extra/layouts/flex/lv_flex.c **** static void children_repos(lv_obj_t * cont, flex_t * f, int32_t item_first_id, int32_t item_last_id
 396:Middlewares/lvgl/src/extra/layouts/flex/lv_flex.c **** {
 397:Middlewares/lvgl/src/extra/layouts/flex/lv_flex.c ****     void (*area_set_main_size)(lv_area_t *, lv_coord_t) = (f->row ? lv_area_set_width : lv_area_set
 398:Middlewares/lvgl/src/extra/layouts/flex/lv_flex.c ****     lv_coord_t (*area_get_main_size)(const lv_area_t *) = (f->row ? lv_area_get_width : lv_area_get
 399:Middlewares/lvgl/src/extra/layouts/flex/lv_flex.c ****     lv_coord_t (*area_get_cross_size)(const lv_area_t *) = (!f->row ? lv_area_get_width : lv_area_g
 400:Middlewares/lvgl/src/extra/layouts/flex/lv_flex.c **** 
 401:Middlewares/lvgl/src/extra/layouts/flex/lv_flex.c ****     /*Calculate the size of grow items first*/
 402:Middlewares/lvgl/src/extra/layouts/flex/lv_flex.c ****     uint32_t i;
 403:Middlewares/lvgl/src/extra/layouts/flex/lv_flex.c ****     bool grow_reiterate  = true;
 404:Middlewares/lvgl/src/extra/layouts/flex/lv_flex.c ****     while(grow_reiterate) {
 405:Middlewares/lvgl/src/extra/layouts/flex/lv_flex.c ****         grow_reiterate = false;
 406:Middlewares/lvgl/src/extra/layouts/flex/lv_flex.c ****         lv_coord_t grow_value_sum = 0;
 407:Middlewares/lvgl/src/extra/layouts/flex/lv_flex.c ****         lv_coord_t grow_max_size = t->track_main_size - t->track_fix_main_size;
 408:Middlewares/lvgl/src/extra/layouts/flex/lv_flex.c ****         for(i = 0; i < t->grow_item_cnt; i++) {
 409:Middlewares/lvgl/src/extra/layouts/flex/lv_flex.c ****             if(t->grow_dsc[i].clamped == 0) {
 410:Middlewares/lvgl/src/extra/layouts/flex/lv_flex.c ****                 grow_value_sum += t->grow_dsc[i].grow_value;
 411:Middlewares/lvgl/src/extra/layouts/flex/lv_flex.c ****             } else {
 412:Middlewares/lvgl/src/extra/layouts/flex/lv_flex.c ****                 grow_max_size -= t->grow_dsc[i].final_size;
 413:Middlewares/lvgl/src/extra/layouts/flex/lv_flex.c ****             }
 414:Middlewares/lvgl/src/extra/layouts/flex/lv_flex.c ****         }
 415:Middlewares/lvgl/src/extra/layouts/flex/lv_flex.c ****         lv_coord_t grow_unit;
 416:Middlewares/lvgl/src/extra/layouts/flex/lv_flex.c **** 
 417:Middlewares/lvgl/src/extra/layouts/flex/lv_flex.c ****         for(i = 0; i < t->grow_item_cnt; i++) {
 418:Middlewares/lvgl/src/extra/layouts/flex/lv_flex.c ****             if(t->grow_dsc[i].clamped == 0) {
 419:Middlewares/lvgl/src/extra/layouts/flex/lv_flex.c ****                 grow_unit = grow_max_size / grow_value_sum;
 420:Middlewares/lvgl/src/extra/layouts/flex/lv_flex.c ****                 lv_coord_t size = grow_unit * t->grow_dsc[i].grow_value;
 421:Middlewares/lvgl/src/extra/layouts/flex/lv_flex.c ****                 lv_coord_t size_clamp = LV_CLAMP(t->grow_dsc[i].min_size, size, t->grow_dsc[i].max_
 422:Middlewares/lvgl/src/extra/layouts/flex/lv_flex.c **** 
 423:Middlewares/lvgl/src/extra/layouts/flex/lv_flex.c ****                 if(size_clamp != size) {
 424:Middlewares/lvgl/src/extra/layouts/flex/lv_flex.c ****                     t->grow_dsc[i].clamped = 1;
 425:Middlewares/lvgl/src/extra/layouts/flex/lv_flex.c ****                     grow_reiterate = true;
 426:Middlewares/lvgl/src/extra/layouts/flex/lv_flex.c ****                 }
 427:Middlewares/lvgl/src/extra/layouts/flex/lv_flex.c ****                 t->grow_dsc[i].final_size = size_clamp;
 428:Middlewares/lvgl/src/extra/layouts/flex/lv_flex.c ****                 grow_value_sum -= t->grow_dsc[i].grow_value;
 429:Middlewares/lvgl/src/extra/layouts/flex/lv_flex.c ****                 grow_max_size  -= t->grow_dsc[i].final_size;
 430:Middlewares/lvgl/src/extra/layouts/flex/lv_flex.c ****             }
 431:Middlewares/lvgl/src/extra/layouts/flex/lv_flex.c ****         }
 432:Middlewares/lvgl/src/extra/layouts/flex/lv_flex.c ****     }
 433:Middlewares/lvgl/src/extra/layouts/flex/lv_flex.c **** 
 434:Middlewares/lvgl/src/extra/layouts/flex/lv_flex.c **** 
 435:Middlewares/lvgl/src/extra/layouts/flex/lv_flex.c ****     bool rtl = lv_obj_get_style_base_dir(cont, LV_PART_MAIN) == LV_BASE_DIR_RTL ? true : false;
 436:Middlewares/lvgl/src/extra/layouts/flex/lv_flex.c **** 
 437:Middlewares/lvgl/src/extra/layouts/flex/lv_flex.c ****     lv_coord_t main_pos = 0;
 438:Middlewares/lvgl/src/extra/layouts/flex/lv_flex.c **** 
 439:Middlewares/lvgl/src/extra/layouts/flex/lv_flex.c ****     lv_coord_t place_gap = 0;
 440:Middlewares/lvgl/src/extra/layouts/flex/lv_flex.c ****     place_content(f->main_place, max_main_size, t->track_main_size, t->item_cnt, &main_pos, &place_
 441:Middlewares/lvgl/src/extra/layouts/flex/lv_flex.c ****     if(f->row && rtl) main_pos += lv_obj_get_content_width(cont);
 442:Middlewares/lvgl/src/extra/layouts/flex/lv_flex.c **** 
 443:Middlewares/lvgl/src/extra/layouts/flex/lv_flex.c ****     lv_obj_t * item = lv_obj_get_child(cont, item_first_id);
 444:Middlewares/lvgl/src/extra/layouts/flex/lv_flex.c ****     /*Reposition the children*/
 445:Middlewares/lvgl/src/extra/layouts/flex/lv_flex.c ****     while(item && item_first_id != item_last_id) {
ARM GAS  /tmp/ccjZBdV3.s 			page 13


 446:Middlewares/lvgl/src/extra/layouts/flex/lv_flex.c ****         if(lv_obj_has_flag_any(item, LV_OBJ_FLAG_IGNORE_LAYOUT | LV_OBJ_FLAG_HIDDEN | LV_OBJ_FLAG_F
 447:Middlewares/lvgl/src/extra/layouts/flex/lv_flex.c ****             item = get_next_item(cont, f->rev, &item_first_id);
 448:Middlewares/lvgl/src/extra/layouts/flex/lv_flex.c ****             continue;
 449:Middlewares/lvgl/src/extra/layouts/flex/lv_flex.c ****         }
 450:Middlewares/lvgl/src/extra/layouts/flex/lv_flex.c ****         lv_coord_t grow_size = lv_obj_get_style_flex_grow(item, LV_PART_MAIN);
 451:Middlewares/lvgl/src/extra/layouts/flex/lv_flex.c ****         if(grow_size) {
 452:Middlewares/lvgl/src/extra/layouts/flex/lv_flex.c ****             lv_coord_t s = 0;
 453:Middlewares/lvgl/src/extra/layouts/flex/lv_flex.c ****             for(i = 0; i < t->grow_item_cnt; i++) {
 454:Middlewares/lvgl/src/extra/layouts/flex/lv_flex.c ****                 if(t->grow_dsc[i].item == item) {
 455:Middlewares/lvgl/src/extra/layouts/flex/lv_flex.c ****                     s = t->grow_dsc[i].final_size;
 456:Middlewares/lvgl/src/extra/layouts/flex/lv_flex.c ****                     break;
 457:Middlewares/lvgl/src/extra/layouts/flex/lv_flex.c ****                 }
 458:Middlewares/lvgl/src/extra/layouts/flex/lv_flex.c ****             }
 459:Middlewares/lvgl/src/extra/layouts/flex/lv_flex.c **** 
 460:Middlewares/lvgl/src/extra/layouts/flex/lv_flex.c ****             if(f->row) item->w_layout = 1;
 461:Middlewares/lvgl/src/extra/layouts/flex/lv_flex.c ****             else item->h_layout = 1;
 462:Middlewares/lvgl/src/extra/layouts/flex/lv_flex.c **** 
 463:Middlewares/lvgl/src/extra/layouts/flex/lv_flex.c ****             if(s != area_get_main_size(&item->coords)) {
 464:Middlewares/lvgl/src/extra/layouts/flex/lv_flex.c ****                 lv_obj_invalidate(item);
 465:Middlewares/lvgl/src/extra/layouts/flex/lv_flex.c **** 
 466:Middlewares/lvgl/src/extra/layouts/flex/lv_flex.c ****                 lv_area_t old_coords;
 467:Middlewares/lvgl/src/extra/layouts/flex/lv_flex.c ****                 lv_area_copy(&old_coords, &item->coords);
 468:Middlewares/lvgl/src/extra/layouts/flex/lv_flex.c ****                 area_set_main_size(&item->coords, s);
 469:Middlewares/lvgl/src/extra/layouts/flex/lv_flex.c ****                 lv_event_send(item, LV_EVENT_SIZE_CHANGED, &old_coords);
 470:Middlewares/lvgl/src/extra/layouts/flex/lv_flex.c ****                 lv_event_send(lv_obj_get_parent(item), LV_EVENT_CHILD_CHANGED, item);
 471:Middlewares/lvgl/src/extra/layouts/flex/lv_flex.c ****                 lv_obj_invalidate(item);
 472:Middlewares/lvgl/src/extra/layouts/flex/lv_flex.c ****             }
 473:Middlewares/lvgl/src/extra/layouts/flex/lv_flex.c ****         } else {
 474:Middlewares/lvgl/src/extra/layouts/flex/lv_flex.c ****             item->w_layout = 0;
 475:Middlewares/lvgl/src/extra/layouts/flex/lv_flex.c ****             item->h_layout = 0;
 476:Middlewares/lvgl/src/extra/layouts/flex/lv_flex.c ****         }
 477:Middlewares/lvgl/src/extra/layouts/flex/lv_flex.c **** 
 478:Middlewares/lvgl/src/extra/layouts/flex/lv_flex.c ****         lv_coord_t cross_pos = 0;
 479:Middlewares/lvgl/src/extra/layouts/flex/lv_flex.c ****         switch(f->cross_place) {
 480:Middlewares/lvgl/src/extra/layouts/flex/lv_flex.c ****         case LV_FLEX_ALIGN_CENTER:
 481:Middlewares/lvgl/src/extra/layouts/flex/lv_flex.c ****             /*Round up the cross size to avoid rounding error when dividing by 2
 482:Middlewares/lvgl/src/extra/layouts/flex/lv_flex.c ****              *The issue comes up e,g, with column direction with center cross direction if an eleme
 483:Middlewares/lvgl/src/extra/layouts/flex/lv_flex.c ****             cross_pos = (((t->track_cross_size + 1) & (~1)) - area_get_cross_size(&item->coords)) /
 484:Middlewares/lvgl/src/extra/layouts/flex/lv_flex.c ****             break;
 485:Middlewares/lvgl/src/extra/layouts/flex/lv_flex.c ****         case LV_FLEX_ALIGN_END:
 486:Middlewares/lvgl/src/extra/layouts/flex/lv_flex.c ****             cross_pos = t->track_cross_size - area_get_cross_size(&item->coords);
 487:Middlewares/lvgl/src/extra/layouts/flex/lv_flex.c ****             break;
 488:Middlewares/lvgl/src/extra/layouts/flex/lv_flex.c ****         default:
 489:Middlewares/lvgl/src/extra/layouts/flex/lv_flex.c ****             break;
 490:Middlewares/lvgl/src/extra/layouts/flex/lv_flex.c ****         }
 491:Middlewares/lvgl/src/extra/layouts/flex/lv_flex.c **** 
 492:Middlewares/lvgl/src/extra/layouts/flex/lv_flex.c ****         if(f->row && rtl) main_pos -= area_get_main_size(&item->coords);
 493:Middlewares/lvgl/src/extra/layouts/flex/lv_flex.c **** 
 494:Middlewares/lvgl/src/extra/layouts/flex/lv_flex.c **** 
 495:Middlewares/lvgl/src/extra/layouts/flex/lv_flex.c ****         /*Handle percentage value of translate*/
 496:Middlewares/lvgl/src/extra/layouts/flex/lv_flex.c ****         lv_coord_t tr_x = lv_obj_get_style_translate_x(item, LV_PART_MAIN);
 497:Middlewares/lvgl/src/extra/layouts/flex/lv_flex.c ****         lv_coord_t tr_y = lv_obj_get_style_translate_y(item, LV_PART_MAIN);
 498:Middlewares/lvgl/src/extra/layouts/flex/lv_flex.c ****         lv_coord_t w = lv_obj_get_width(item);
 499:Middlewares/lvgl/src/extra/layouts/flex/lv_flex.c ****         lv_coord_t h = lv_obj_get_height(item);
 500:Middlewares/lvgl/src/extra/layouts/flex/lv_flex.c ****         if(LV_COORD_IS_PCT(tr_x)) tr_x = (w * LV_COORD_GET_PCT(tr_x)) / 100;
 501:Middlewares/lvgl/src/extra/layouts/flex/lv_flex.c ****         if(LV_COORD_IS_PCT(tr_y)) tr_y = (h * LV_COORD_GET_PCT(tr_y)) / 100;
 502:Middlewares/lvgl/src/extra/layouts/flex/lv_flex.c **** 
ARM GAS  /tmp/ccjZBdV3.s 			page 14


 503:Middlewares/lvgl/src/extra/layouts/flex/lv_flex.c ****         lv_coord_t diff_x = abs_x - item->coords.x1 + tr_x;
 504:Middlewares/lvgl/src/extra/layouts/flex/lv_flex.c ****         lv_coord_t diff_y = abs_y - item->coords.y1 + tr_y;
 505:Middlewares/lvgl/src/extra/layouts/flex/lv_flex.c ****         diff_x += f->row ? main_pos : cross_pos;
 506:Middlewares/lvgl/src/extra/layouts/flex/lv_flex.c ****         diff_y += f->row ? cross_pos : main_pos;
 507:Middlewares/lvgl/src/extra/layouts/flex/lv_flex.c **** 
 508:Middlewares/lvgl/src/extra/layouts/flex/lv_flex.c ****         if(diff_x || diff_y) {
 509:Middlewares/lvgl/src/extra/layouts/flex/lv_flex.c ****             lv_obj_invalidate(item);
 510:Middlewares/lvgl/src/extra/layouts/flex/lv_flex.c ****             item->coords.x1 += diff_x;
 511:Middlewares/lvgl/src/extra/layouts/flex/lv_flex.c ****             item->coords.x2 += diff_x;
 512:Middlewares/lvgl/src/extra/layouts/flex/lv_flex.c ****             item->coords.y1 += diff_y;
 513:Middlewares/lvgl/src/extra/layouts/flex/lv_flex.c ****             item->coords.y2 += diff_y;
 514:Middlewares/lvgl/src/extra/layouts/flex/lv_flex.c ****             lv_obj_invalidate(item);
 515:Middlewares/lvgl/src/extra/layouts/flex/lv_flex.c ****             lv_obj_move_children_by(item, diff_x, diff_y, true);
 516:Middlewares/lvgl/src/extra/layouts/flex/lv_flex.c ****         }
 517:Middlewares/lvgl/src/extra/layouts/flex/lv_flex.c **** 
 518:Middlewares/lvgl/src/extra/layouts/flex/lv_flex.c ****         if(!(f->row && rtl)) main_pos += area_get_main_size(&item->coords) + item_gap + place_gap;
 519:Middlewares/lvgl/src/extra/layouts/flex/lv_flex.c ****         else main_pos -= item_gap + place_gap;
 520:Middlewares/lvgl/src/extra/layouts/flex/lv_flex.c **** 
 521:Middlewares/lvgl/src/extra/layouts/flex/lv_flex.c ****         item = get_next_item(cont, f->rev, &item_first_id);
 522:Middlewares/lvgl/src/extra/layouts/flex/lv_flex.c ****     }
 523:Middlewares/lvgl/src/extra/layouts/flex/lv_flex.c **** }
 524:Middlewares/lvgl/src/extra/layouts/flex/lv_flex.c **** 
 525:Middlewares/lvgl/src/extra/layouts/flex/lv_flex.c **** /**
 526:Middlewares/lvgl/src/extra/layouts/flex/lv_flex.c ****  * Tell a start coordinate and gap for a placement type.
 527:Middlewares/lvgl/src/extra/layouts/flex/lv_flex.c ****  */
 528:Middlewares/lvgl/src/extra/layouts/flex/lv_flex.c **** static void place_content(lv_flex_align_t place, lv_coord_t max_size, lv_coord_t content_size, lv_c
 529:Middlewares/lvgl/src/extra/layouts/flex/lv_flex.c **** {
  99              		.loc 2 529 1 is_stmt 1 view -0
 100              		.cfi_startproc
 101              		@ args = 8, pretend = 0, frame = 0
 102              		@ frame_needed = 0, uses_anonymous_args = 0
 103              		@ link register save eliminated.
 104              		.loc 2 529 1 is_stmt 0 view .LVU17
 105 0000 10B4     		push	{r4}
 106              	.LCFI0:
 107              		.cfi_def_cfa_offset 4
 108              		.cfi_offset 4, -4
 109 0002 019C     		ldr	r4, [sp, #4]
 530:Middlewares/lvgl/src/extra/layouts/flex/lv_flex.c ****     if(item_cnt <= 1) {
 110              		.loc 2 530 5 is_stmt 1 view .LVU18
 111              		.loc 2 530 7 is_stmt 0 view .LVU19
 112 0004 012B     		cmp	r3, #1
 113 0006 07DD     		ble	.L16
 114              	.L4:
 531:Middlewares/lvgl/src/extra/layouts/flex/lv_flex.c ****         switch(place) {
 532:Middlewares/lvgl/src/extra/layouts/flex/lv_flex.c ****             case LV_FLEX_ALIGN_SPACE_BETWEEN:
 533:Middlewares/lvgl/src/extra/layouts/flex/lv_flex.c ****             case LV_FLEX_ALIGN_SPACE_AROUND:
 534:Middlewares/lvgl/src/extra/layouts/flex/lv_flex.c ****             case LV_FLEX_ALIGN_SPACE_EVENLY:
 535:Middlewares/lvgl/src/extra/layouts/flex/lv_flex.c ****                 place = LV_FLEX_ALIGN_CENTER;
 536:Middlewares/lvgl/src/extra/layouts/flex/lv_flex.c ****                 break;
 537:Middlewares/lvgl/src/extra/layouts/flex/lv_flex.c ****             default:
 538:Middlewares/lvgl/src/extra/layouts/flex/lv_flex.c ****                 break;
 539:Middlewares/lvgl/src/extra/layouts/flex/lv_flex.c ****         }
 540:Middlewares/lvgl/src/extra/layouts/flex/lv_flex.c ****     }
 541:Middlewares/lvgl/src/extra/layouts/flex/lv_flex.c **** 
 542:Middlewares/lvgl/src/extra/layouts/flex/lv_flex.c ****     switch(place) {
 115              		.loc 2 542 5 is_stmt 1 view .LVU20
ARM GAS  /tmp/ccjZBdV3.s 			page 15


 116 0008 0138     		subs	r0, r0, #1
 117              	.LVL7:
 118              		.loc 2 542 5 is_stmt 0 view .LVU21
 119 000a 0428     		cmp	r0, #4
 120 000c 4BD8     		bhi	.L6
 121 000e DFE800F0 		tbb	[pc, r0]
 122              	.L8:
 123 0012 16       		.byte	(.L11-.L8)/2
 124 0013 08       		.byte	(.L5-.L8)/2
 125 0014 3C       		.byte	(.L10-.L8)/2
 126 0015 28       		.byte	(.L9-.L8)/2
 127 0016 1F       		.byte	(.L7-.L8)/2
 128              	.LVL8:
 129 0017 00       		.p2align 1
 130              	.L16:
 531:Middlewares/lvgl/src/extra/layouts/flex/lv_flex.c ****         switch(place) {
 131              		.loc 2 531 9 is_stmt 1 view .LVU22
 132 0018 A0F1030C 		sub	ip, r0, #3
 133 001c BCF1020F 		cmp	ip, #2
 134 0020 F2D8     		bhi	.L4
 135              	.LVL9:
 136              	.L5:
 543:Middlewares/lvgl/src/extra/layouts/flex/lv_flex.c ****     case LV_FLEX_ALIGN_CENTER:
 544:Middlewares/lvgl/src/extra/layouts/flex/lv_flex.c ****         *gap = 0;
 137              		.loc 2 544 9 view .LVU23
 138              		.loc 2 544 14 is_stmt 0 view .LVU24
 139 0022 0023     		movs	r3, #0
 140              	.LVL10:
 141              		.loc 2 544 14 view .LVU25
 142 0024 0298     		ldr	r0, [sp, #8]
 143 0026 0380     		strh	r3, [r0]	@ movhi
 545:Middlewares/lvgl/src/extra/layouts/flex/lv_flex.c ****         *start_pos += (max_size - content_size) / 2;
 144              		.loc 2 545 9 is_stmt 1 view .LVU26
 145              		.loc 2 545 49 is_stmt 0 view .LVU27
 146 0028 891A     		subs	r1, r1, r2
 147              	.LVL11:
 148              		.loc 2 545 49 view .LVU28
 149 002a 06D4     		bmi	.L17
 150              	.L12:
 151              		.loc 2 545 20 view .LVU29
 152 002c 2288     		ldrh	r2, [r4]
 153              	.LVL12:
 154              		.loc 2 545 20 view .LVU30
 155 002e 02EB6101 		add	r1, r2, r1, asr #1
 156 0032 2180     		strh	r1, [r4]	@ movhi
 546:Middlewares/lvgl/src/extra/layouts/flex/lv_flex.c ****         break;
 157              		.loc 2 546 9 is_stmt 1 view .LVU31
 158              	.L3:
 547:Middlewares/lvgl/src/extra/layouts/flex/lv_flex.c ****     case LV_FLEX_ALIGN_END:
 548:Middlewares/lvgl/src/extra/layouts/flex/lv_flex.c ****         *gap = 0;
 549:Middlewares/lvgl/src/extra/layouts/flex/lv_flex.c ****         *start_pos += max_size - content_size;
 550:Middlewares/lvgl/src/extra/layouts/flex/lv_flex.c ****         break;
 551:Middlewares/lvgl/src/extra/layouts/flex/lv_flex.c ****     case LV_FLEX_ALIGN_SPACE_BETWEEN:
 552:Middlewares/lvgl/src/extra/layouts/flex/lv_flex.c ****        *gap = (lv_coord_t)(max_size - content_size) / (lv_coord_t)(item_cnt - 1);
 553:Middlewares/lvgl/src/extra/layouts/flex/lv_flex.c ****        break;
 554:Middlewares/lvgl/src/extra/layouts/flex/lv_flex.c ****    case LV_FLEX_ALIGN_SPACE_AROUND:
 555:Middlewares/lvgl/src/extra/layouts/flex/lv_flex.c ****        *gap += (lv_coord_t)(max_size - content_size) / (lv_coord_t)(item_cnt);
ARM GAS  /tmp/ccjZBdV3.s 			page 16


 556:Middlewares/lvgl/src/extra/layouts/flex/lv_flex.c ****        *start_pos += *gap / 2;
 557:Middlewares/lvgl/src/extra/layouts/flex/lv_flex.c ****        break;
 558:Middlewares/lvgl/src/extra/layouts/flex/lv_flex.c ****    case LV_FLEX_ALIGN_SPACE_EVENLY:
 559:Middlewares/lvgl/src/extra/layouts/flex/lv_flex.c ****        *gap = (lv_coord_t)(max_size - content_size) / (lv_coord_t)(item_cnt + 1);
 560:Middlewares/lvgl/src/extra/layouts/flex/lv_flex.c ****        *start_pos += *gap;
 561:Middlewares/lvgl/src/extra/layouts/flex/lv_flex.c ****        break;
 562:Middlewares/lvgl/src/extra/layouts/flex/lv_flex.c ****    default:
 563:Middlewares/lvgl/src/extra/layouts/flex/lv_flex.c ****        *gap = 0;
 564:Middlewares/lvgl/src/extra/layouts/flex/lv_flex.c ****     }
 565:Middlewares/lvgl/src/extra/layouts/flex/lv_flex.c **** }
 159              		.loc 2 565 1 is_stmt 0 view .LVU32
 160 0034 5DF8044B 		ldr	r4, [sp], #4
 161              	.LCFI1:
 162              		.cfi_remember_state
 163              		.cfi_restore 4
 164              		.cfi_def_cfa_offset 0
 165              	.LVL13:
 166              		.loc 2 565 1 view .LVU33
 167 0038 7047     		bx	lr
 168              	.LVL14:
 169              	.L17:
 170              	.LCFI2:
 171              		.cfi_restore_state
 545:Middlewares/lvgl/src/extra/layouts/flex/lv_flex.c ****         break;
 172              		.loc 2 545 49 view .LVU34
 173 003a 0131     		adds	r1, r1, #1
 174 003c F6E7     		b	.L12
 175              	.LVL15:
 176              	.L11:
 548:Middlewares/lvgl/src/extra/layouts/flex/lv_flex.c ****         *start_pos += max_size - content_size;
 177              		.loc 2 548 9 is_stmt 1 view .LVU35
 548:Middlewares/lvgl/src/extra/layouts/flex/lv_flex.c ****         *start_pos += max_size - content_size;
 178              		.loc 2 548 14 is_stmt 0 view .LVU36
 179 003e 0023     		movs	r3, #0
 180              	.LVL16:
 548:Middlewares/lvgl/src/extra/layouts/flex/lv_flex.c ****         *start_pos += max_size - content_size;
 181              		.loc 2 548 14 view .LVU37
 182 0040 0298     		ldr	r0, [sp, #8]
 183 0042 0380     		strh	r3, [r0]	@ movhi
 549:Middlewares/lvgl/src/extra/layouts/flex/lv_flex.c ****         break;
 184              		.loc 2 549 9 is_stmt 1 view .LVU38
 549:Middlewares/lvgl/src/extra/layouts/flex/lv_flex.c ****         break;
 185              		.loc 2 549 32 is_stmt 0 view .LVU39
 186 0044 891A     		subs	r1, r1, r2
 187              	.LVL17:
 549:Middlewares/lvgl/src/extra/layouts/flex/lv_flex.c ****         break;
 188              		.loc 2 549 20 view .LVU40
 189 0046 2388     		ldrh	r3, [r4]
 190 0048 13FA81F1 		uxtah	r1, r3, r1
 191 004c 2180     		strh	r1, [r4]	@ movhi
 550:Middlewares/lvgl/src/extra/layouts/flex/lv_flex.c ****     case LV_FLEX_ALIGN_SPACE_BETWEEN:
 192              		.loc 2 550 9 is_stmt 1 view .LVU41
 193 004e F1E7     		b	.L3
 194              	.LVL18:
 195              	.L7:
 552:Middlewares/lvgl/src/extra/layouts/flex/lv_flex.c ****        break;
 196              		.loc 2 552 8 view .LVU42
ARM GAS  /tmp/ccjZBdV3.s 			page 17


 552:Middlewares/lvgl/src/extra/layouts/flex/lv_flex.c ****        break;
 197              		.loc 2 552 37 is_stmt 0 view .LVU43
 198 0050 891A     		subs	r1, r1, r2
 199              	.LVL19:
 552:Middlewares/lvgl/src/extra/layouts/flex/lv_flex.c ****        break;
 200              		.loc 2 552 15 view .LVU44
 201 0052 09B2     		sxth	r1, r1
 552:Middlewares/lvgl/src/extra/layouts/flex/lv_flex.c ****        break;
 202              		.loc 2 552 77 view .LVU45
 203 0054 013B     		subs	r3, r3, #1
 204              	.LVL20:
 552:Middlewares/lvgl/src/extra/layouts/flex/lv_flex.c ****        break;
 205              		.loc 2 552 55 view .LVU46
 206 0056 1BB2     		sxth	r3, r3
 552:Middlewares/lvgl/src/extra/layouts/flex/lv_flex.c ****        break;
 207              		.loc 2 552 53 view .LVU47
 208 0058 91FBF3F1 		sdiv	r1, r1, r3
 552:Middlewares/lvgl/src/extra/layouts/flex/lv_flex.c ****        break;
 209              		.loc 2 552 13 view .LVU48
 210 005c 029B     		ldr	r3, [sp, #8]
 211 005e 1980     		strh	r1, [r3]	@ movhi
 553:Middlewares/lvgl/src/extra/layouts/flex/lv_flex.c ****    case LV_FLEX_ALIGN_SPACE_AROUND:
 212              		.loc 2 553 8 is_stmt 1 view .LVU49
 213 0060 E8E7     		b	.L3
 214              	.LVL21:
 215              	.L9:
 555:Middlewares/lvgl/src/extra/layouts/flex/lv_flex.c ****        *start_pos += *gap / 2;
 216              		.loc 2 555 8 view .LVU50
 555:Middlewares/lvgl/src/extra/layouts/flex/lv_flex.c ****        *start_pos += *gap / 2;
 217              		.loc 2 555 38 is_stmt 0 view .LVU51
 218 0062 891A     		subs	r1, r1, r2
 219              	.LVL22:
 555:Middlewares/lvgl/src/extra/layouts/flex/lv_flex.c ****        *start_pos += *gap / 2;
 220              		.loc 2 555 16 view .LVU52
 221 0064 09B2     		sxth	r1, r1
 555:Middlewares/lvgl/src/extra/layouts/flex/lv_flex.c ****        *start_pos += *gap / 2;
 222              		.loc 2 555 54 view .LVU53
 223 0066 91FBF3F3 		sdiv	r3, r1, r3
 224              	.LVL23:
 555:Middlewares/lvgl/src/extra/layouts/flex/lv_flex.c ****        *start_pos += *gap / 2;
 225              		.loc 2 555 13 view .LVU54
 226 006a 029A     		ldr	r2, [sp, #8]
 227              	.LVL24:
 555:Middlewares/lvgl/src/extra/layouts/flex/lv_flex.c ****        *start_pos += *gap / 2;
 228              		.loc 2 555 13 view .LVU55
 229 006c 1288     		ldrh	r2, [r2]
 230 006e 1344     		add	r3, r3, r2
 231 0070 1BB2     		sxth	r3, r3
 232 0072 029A     		ldr	r2, [sp, #8]
 233 0074 1380     		strh	r3, [r2]	@ movhi
 556:Middlewares/lvgl/src/extra/layouts/flex/lv_flex.c ****        break;
 234              		.loc 2 556 8 is_stmt 1 view .LVU56
 556:Middlewares/lvgl/src/extra/layouts/flex/lv_flex.c ****        break;
 235              		.loc 2 556 19 is_stmt 0 view .LVU57
 236 0076 1A46     		mov	r2, r3
 237 0078 002B     		cmp	r3, #0
 238 007a 04DB     		blt	.L18
ARM GAS  /tmp/ccjZBdV3.s 			page 18


 239              	.L14:
 556:Middlewares/lvgl/src/extra/layouts/flex/lv_flex.c ****        break;
 240              		.loc 2 556 19 view .LVU58
 241 007c 2388     		ldrh	r3, [r4]
 242 007e 03EB6203 		add	r3, r3, r2, asr #1
 243 0082 2380     		strh	r3, [r4]	@ movhi
 557:Middlewares/lvgl/src/extra/layouts/flex/lv_flex.c ****    case LV_FLEX_ALIGN_SPACE_EVENLY:
 244              		.loc 2 557 8 is_stmt 1 view .LVU59
 245 0084 D6E7     		b	.L3
 246              	.L18:
 556:Middlewares/lvgl/src/extra/layouts/flex/lv_flex.c ****        break;
 247              		.loc 2 556 19 is_stmt 0 view .LVU60
 248 0086 5A1C     		adds	r2, r3, #1
 249 0088 F8E7     		b	.L14
 250              	.LVL25:
 251              	.L10:
 559:Middlewares/lvgl/src/extra/layouts/flex/lv_flex.c ****        *start_pos += *gap;
 252              		.loc 2 559 8 is_stmt 1 view .LVU61
 559:Middlewares/lvgl/src/extra/layouts/flex/lv_flex.c ****        *start_pos += *gap;
 253              		.loc 2 559 37 is_stmt 0 view .LVU62
 254 008a 891A     		subs	r1, r1, r2
 255              	.LVL26:
 559:Middlewares/lvgl/src/extra/layouts/flex/lv_flex.c ****        *start_pos += *gap;
 256              		.loc 2 559 15 view .LVU63
 257 008c 09B2     		sxth	r1, r1
 559:Middlewares/lvgl/src/extra/layouts/flex/lv_flex.c ****        *start_pos += *gap;
 258              		.loc 2 559 77 view .LVU64
 259 008e 0133     		adds	r3, r3, #1
 260              	.LVL27:
 559:Middlewares/lvgl/src/extra/layouts/flex/lv_flex.c ****        *start_pos += *gap;
 261              		.loc 2 559 55 view .LVU65
 262 0090 1BB2     		sxth	r3, r3
 559:Middlewares/lvgl/src/extra/layouts/flex/lv_flex.c ****        *start_pos += *gap;
 263              		.loc 2 559 53 view .LVU66
 264 0092 91FBF3F3 		sdiv	r3, r1, r3
 559:Middlewares/lvgl/src/extra/layouts/flex/lv_flex.c ****        *start_pos += *gap;
 265              		.loc 2 559 13 view .LVU67
 266 0096 1BB2     		sxth	r3, r3
 267 0098 029A     		ldr	r2, [sp, #8]
 268              	.LVL28:
 559:Middlewares/lvgl/src/extra/layouts/flex/lv_flex.c ****        *start_pos += *gap;
 269              		.loc 2 559 13 view .LVU68
 270 009a 1380     		strh	r3, [r2]	@ movhi
 560:Middlewares/lvgl/src/extra/layouts/flex/lv_flex.c ****        break;
 271              		.loc 2 560 8 is_stmt 1 view .LVU69
 560:Middlewares/lvgl/src/extra/layouts/flex/lv_flex.c ****        break;
 272              		.loc 2 560 19 is_stmt 0 view .LVU70
 273 009c 2288     		ldrh	r2, [r4]
 274 009e 12FA83F3 		uxtah	r3, r2, r3
 275 00a2 2380     		strh	r3, [r4]	@ movhi
 561:Middlewares/lvgl/src/extra/layouts/flex/lv_flex.c ****    default:
 276              		.loc 2 561 8 is_stmt 1 view .LVU71
 277 00a4 C6E7     		b	.L3
 278              	.LVL29:
 279              	.L6:
 563:Middlewares/lvgl/src/extra/layouts/flex/lv_flex.c ****     }
 280              		.loc 2 563 8 view .LVU72
ARM GAS  /tmp/ccjZBdV3.s 			page 19


 563:Middlewares/lvgl/src/extra/layouts/flex/lv_flex.c ****     }
 281              		.loc 2 563 13 is_stmt 0 view .LVU73
 282 00a6 0023     		movs	r3, #0
 283              	.LVL30:
 563:Middlewares/lvgl/src/extra/layouts/flex/lv_flex.c ****     }
 284              		.loc 2 563 13 view .LVU74
 285 00a8 029A     		ldr	r2, [sp, #8]
 286              	.LVL31:
 563:Middlewares/lvgl/src/extra/layouts/flex/lv_flex.c ****     }
 287              		.loc 2 563 13 view .LVU75
 288 00aa 1380     		strh	r3, [r2]	@ movhi
 289              		.loc 2 565 1 view .LVU76
 290 00ac C2E7     		b	.L3
 291              		.cfi_endproc
 292              	.LFE180:
 294              		.section	.text.get_next_item,"ax",%progbits
 295              		.align	1
 296              		.syntax unified
 297              		.thumb
 298              		.thumb_func
 299              		.fpu fpv5-d16
 301              	get_next_item:
 302              	.LVL32:
 303              	.LFB181:
 566:Middlewares/lvgl/src/extra/layouts/flex/lv_flex.c **** 
 567:Middlewares/lvgl/src/extra/layouts/flex/lv_flex.c **** static lv_obj_t * get_next_item(lv_obj_t * cont, bool rev, int32_t * item_id)
 568:Middlewares/lvgl/src/extra/layouts/flex/lv_flex.c **** {
 304              		.loc 2 568 1 is_stmt 1 view -0
 305              		.cfi_startproc
 306              		@ args = 0, pretend = 0, frame = 0
 307              		@ frame_needed = 0, uses_anonymous_args = 0
 308              		@ link register save eliminated.
 569:Middlewares/lvgl/src/extra/layouts/flex/lv_flex.c ****     if(rev) {
 309              		.loc 2 569 5 view .LVU78
 310              		.loc 2 569 7 is_stmt 0 view .LVU79
 311 0000 49B1     		cbz	r1, .L20
 570:Middlewares/lvgl/src/extra/layouts/flex/lv_flex.c ****         (*item_id)--;
 312              		.loc 2 570 9 is_stmt 1 view .LVU80
 313              		.loc 2 570 10 is_stmt 0 view .LVU81
 314 0002 1368     		ldr	r3, [r2]
 315              		.loc 2 570 19 view .LVU82
 316 0004 013B     		subs	r3, r3, #1
 317 0006 1360     		str	r3, [r2]
 571:Middlewares/lvgl/src/extra/layouts/flex/lv_flex.c ****         if(*item_id >= 0) return cont->spec_attr->children[*item_id];
 318              		.loc 2 571 9 is_stmt 1 view .LVU83
 319              		.loc 2 571 11 is_stmt 0 view .LVU84
 320 0008 002B     		cmp	r3, #0
 321 000a 0FDB     		blt	.L22
 322              		.loc 2 571 27 is_stmt 1 discriminator 1 view .LVU85
 323              		.loc 2 571 38 is_stmt 0 discriminator 1 view .LVU86
 324 000c 8268     		ldr	r2, [r0, #8]
 325              	.LVL33:
 326              		.loc 2 571 49 discriminator 1 view .LVU87
 327 000e 1268     		ldr	r2, [r2]
 328              		.loc 2 571 59 discriminator 1 view .LVU88
 329 0010 52F82300 		ldr	r0, [r2, r3, lsl #2]
 330              	.LVL34:
ARM GAS  /tmp/ccjZBdV3.s 			page 20


 331              		.loc 2 571 59 discriminator 1 view .LVU89
 332 0014 7047     		bx	lr
 333              	.LVL35:
 334              	.L20:
 572:Middlewares/lvgl/src/extra/layouts/flex/lv_flex.c ****         else return NULL;
 573:Middlewares/lvgl/src/extra/layouts/flex/lv_flex.c ****     } else {
 574:Middlewares/lvgl/src/extra/layouts/flex/lv_flex.c ****         (*item_id)++;
 335              		.loc 2 574 9 is_stmt 1 view .LVU90
 336              		.loc 2 574 10 is_stmt 0 view .LVU91
 337 0016 1368     		ldr	r3, [r2]
 338              		.loc 2 574 19 view .LVU92
 339 0018 0133     		adds	r3, r3, #1
 340 001a 1360     		str	r3, [r2]
 575:Middlewares/lvgl/src/extra/layouts/flex/lv_flex.c ****         if((*item_id) < (int32_t)cont->spec_attr->child_cnt) return cont->spec_attr->children[*item
 341              		.loc 2 575 9 is_stmt 1 view .LVU93
 342              		.loc 2 575 38 is_stmt 0 view .LVU94
 343 001c 8268     		ldr	r2, [r0, #8]
 344              	.LVL36:
 345              		.loc 2 575 49 view .LVU95
 346 001e 5168     		ldr	r1, [r2, #4]
 347              	.LVL37:
 348              		.loc 2 575 11 view .LVU96
 349 0020 8B42     		cmp	r3, r1
 350 0022 05DA     		bge	.L23
 351              		.loc 2 575 62 is_stmt 1 discriminator 1 view .LVU97
 352              		.loc 2 575 84 is_stmt 0 discriminator 1 view .LVU98
 353 0024 1268     		ldr	r2, [r2]
 354              		.loc 2 575 94 discriminator 1 view .LVU99
 355 0026 52F82300 		ldr	r0, [r2, r3, lsl #2]
 356              	.LVL38:
 357              		.loc 2 575 94 discriminator 1 view .LVU100
 358 002a 7047     		bx	lr
 359              	.LVL39:
 360              	.L22:
 572:Middlewares/lvgl/src/extra/layouts/flex/lv_flex.c ****         else return NULL;
 361              		.loc 2 572 21 view .LVU101
 362 002c 0020     		movs	r0, #0
 363              	.LVL40:
 572:Middlewares/lvgl/src/extra/layouts/flex/lv_flex.c ****         else return NULL;
 364              		.loc 2 572 21 view .LVU102
 365 002e 7047     		bx	lr
 366              	.LVL41:
 367              	.L23:
 576:Middlewares/lvgl/src/extra/layouts/flex/lv_flex.c ****         else return NULL;
 368              		.loc 2 576 21 view .LVU103
 369 0030 0020     		movs	r0, #0
 370              	.LVL42:
 577:Middlewares/lvgl/src/extra/layouts/flex/lv_flex.c ****     }
 578:Middlewares/lvgl/src/extra/layouts/flex/lv_flex.c **** }
 371              		.loc 2 578 1 view .LVU104
 372 0032 7047     		bx	lr
 373              		.cfi_endproc
 374              	.LFE181:
 376              		.section	.text.find_track_end,"ax",%progbits
 377              		.align	1
 378              		.syntax unified
 379              		.thumb
ARM GAS  /tmp/ccjZBdV3.s 			page 21


 380              		.thumb_func
 381              		.fpu fpv5-d16
 383              	find_track_end:
 384              	.LVL43:
 385              	.LFB178:
 310:Middlewares/lvgl/src/extra/layouts/flex/lv_flex.c ****     lv_coord_t w_set = lv_obj_get_style_width(cont, LV_PART_MAIN);
 386              		.loc 2 310 1 is_stmt 1 view -0
 387              		.cfi_startproc
 388              		@ args = 8, pretend = 0, frame = 24
 389              		@ frame_needed = 0, uses_anonymous_args = 0
 310:Middlewares/lvgl/src/extra/layouts/flex/lv_flex.c ****     lv_coord_t w_set = lv_obj_get_style_width(cont, LV_PART_MAIN);
 390              		.loc 2 310 1 is_stmt 0 view .LVU106
 391 0000 2DE9F04F 		push	{r4, r5, r6, r7, r8, r9, r10, fp, lr}
 392              	.LCFI3:
 393              		.cfi_def_cfa_offset 36
 394              		.cfi_offset 4, -36
 395              		.cfi_offset 5, -32
 396              		.cfi_offset 6, -28
 397              		.cfi_offset 7, -24
 398              		.cfi_offset 8, -20
 399              		.cfi_offset 9, -16
 400              		.cfi_offset 10, -12
 401              		.cfi_offset 11, -8
 402              		.cfi_offset 14, -4
 403 0004 87B0     		sub	sp, sp, #28
 404              	.LCFI4:
 405              		.cfi_def_cfa_offset 64
 406 0006 8146     		mov	r9, r0
 407 0008 0E46     		mov	r6, r1
 408 000a 9046     		mov	r8, r2
 409 000c 0393     		str	r3, [sp, #12]
 410 000e BDF940B0 		ldrsh	fp, [sp, #64]
 411 0012 119D     		ldr	r5, [sp, #68]
 311:Middlewares/lvgl/src/extra/layouts/flex/lv_flex.c ****     lv_coord_t h_set = lv_obj_get_style_height(cont, LV_PART_MAIN);
 412              		.loc 2 311 5 is_stmt 1 view .LVU107
 413              	.LVL44:
 414              	.LBB64:
 415              	.LBI64:
 416              		.file 3 "Middlewares/lvgl/src/extra/layouts/flex/../flex/../../../core/lv_obj_style_gen.h"
   1:Middlewares/lvgl/src/extra/layouts/flex/../flex/../../../core/lv_obj_style_gen.h **** static inline lv_coord_t lv_obj_get_style_width(const struct _lv_obj_t * obj, uint32_t part)
 417              		.loc 3 1 26 view .LVU108
 418              	.LBB65:
   2:Middlewares/lvgl/src/extra/layouts/flex/../flex/../../../core/lv_obj_style_gen.h **** {
   3:Middlewares/lvgl/src/extra/layouts/flex/../flex/../../../core/lv_obj_style_gen.h ****     lv_style_value_t v = lv_obj_get_style_prop(obj, part, LV_STYLE_WIDTH);
 419              		.loc 3 3 5 view .LVU109
 420              		.loc 3 3 26 is_stmt 0 view .LVU110
 421 0014 41F20102 		movw	r2, #4097
 422              	.LVL45:
 423              		.loc 3 3 26 view .LVU111
 424 0018 0021     		movs	r1, #0
 425              	.LVL46:
 426              		.loc 3 3 26 view .LVU112
 427 001a FFF7FEFF 		bl	lv_obj_get_style_prop
 428              	.LVL47:
   4:Middlewares/lvgl/src/extra/layouts/flex/../flex/../../../core/lv_obj_style_gen.h ****     return (lv_coord_t)v.num;
 429              		.loc 3 4 5 is_stmt 1 view .LVU113
 430              		.loc 3 4 12 is_stmt 0 view .LVU114
ARM GAS  /tmp/ccjZBdV3.s 			page 22


 431 001e 04B2     		sxth	r4, r0
 432              	.LVL48:
 433              		.loc 3 4 12 view .LVU115
 434              	.LBE65:
 435              	.LBE64:
 312:Middlewares/lvgl/src/extra/layouts/flex/lv_flex.c **** 
 436              		.loc 2 312 5 is_stmt 1 view .LVU116
 437              	.LBB66:
 438              	.LBI66:
   5:Middlewares/lvgl/src/extra/layouts/flex/../flex/../../../core/lv_obj_style_gen.h **** }
   6:Middlewares/lvgl/src/extra/layouts/flex/../flex/../../../core/lv_obj_style_gen.h **** 
   7:Middlewares/lvgl/src/extra/layouts/flex/../flex/../../../core/lv_obj_style_gen.h **** static inline lv_coord_t lv_obj_get_style_min_width(const struct _lv_obj_t * obj, uint32_t part)
   8:Middlewares/lvgl/src/extra/layouts/flex/../flex/../../../core/lv_obj_style_gen.h **** {
   9:Middlewares/lvgl/src/extra/layouts/flex/../flex/../../../core/lv_obj_style_gen.h ****     lv_style_value_t v = lv_obj_get_style_prop(obj, part, LV_STYLE_MIN_WIDTH);
  10:Middlewares/lvgl/src/extra/layouts/flex/../flex/../../../core/lv_obj_style_gen.h ****     return (lv_coord_t)v.num;
  11:Middlewares/lvgl/src/extra/layouts/flex/../flex/../../../core/lv_obj_style_gen.h **** }
  12:Middlewares/lvgl/src/extra/layouts/flex/../flex/../../../core/lv_obj_style_gen.h **** 
  13:Middlewares/lvgl/src/extra/layouts/flex/../flex/../../../core/lv_obj_style_gen.h **** static inline lv_coord_t lv_obj_get_style_max_width(const struct _lv_obj_t * obj, uint32_t part)
  14:Middlewares/lvgl/src/extra/layouts/flex/../flex/../../../core/lv_obj_style_gen.h **** {
  15:Middlewares/lvgl/src/extra/layouts/flex/../flex/../../../core/lv_obj_style_gen.h ****     lv_style_value_t v = lv_obj_get_style_prop(obj, part, LV_STYLE_MAX_WIDTH);
  16:Middlewares/lvgl/src/extra/layouts/flex/../flex/../../../core/lv_obj_style_gen.h ****     return (lv_coord_t)v.num;
  17:Middlewares/lvgl/src/extra/layouts/flex/../flex/../../../core/lv_obj_style_gen.h **** }
  18:Middlewares/lvgl/src/extra/layouts/flex/../flex/../../../core/lv_obj_style_gen.h **** 
  19:Middlewares/lvgl/src/extra/layouts/flex/../flex/../../../core/lv_obj_style_gen.h **** static inline lv_coord_t lv_obj_get_style_height(const struct _lv_obj_t * obj, uint32_t part)
 439              		.loc 3 19 26 view .LVU117
 440              	.LBB67:
  20:Middlewares/lvgl/src/extra/layouts/flex/../flex/../../../core/lv_obj_style_gen.h **** {
  21:Middlewares/lvgl/src/extra/layouts/flex/../flex/../../../core/lv_obj_style_gen.h ****     lv_style_value_t v = lv_obj_get_style_prop(obj, part, LV_STYLE_HEIGHT);
 441              		.loc 3 21 5 view .LVU118
 442              		.loc 3 21 26 is_stmt 0 view .LVU119
 443 0020 41F20402 		movw	r2, #4100
 444 0024 0021     		movs	r1, #0
 445 0026 4846     		mov	r0, r9
 446 0028 FFF7FEFF 		bl	lv_obj_get_style_prop
 447              	.LVL49:
  22:Middlewares/lvgl/src/extra/layouts/flex/../flex/../../../core/lv_obj_style_gen.h ****     return (lv_coord_t)v.num;
 448              		.loc 3 22 5 is_stmt 1 view .LVU120
 449              		.loc 3 22 5 is_stmt 0 view .LVU121
 450              	.LBE67:
 451              	.LBE66:
 315:Middlewares/lvgl/src/extra/layouts/flex/lv_flex.c ****         f->wrap = false;
 452              		.loc 2 315 5 is_stmt 1 view .LVU122
 315:Middlewares/lvgl/src/extra/layouts/flex/lv_flex.c ****         f->wrap = false;
 453              		.loc 2 315 8 is_stmt 0 view .LVU123
 454 002c F378     		ldrb	r3, [r6, #3]	@ zero_extendqisi2
 315:Middlewares/lvgl/src/extra/layouts/flex/lv_flex.c ****         f->wrap = false;
 455              		.loc 2 315 7 view .LVU124
 456 002e 13F0020F 		tst	r3, #2
 457 0032 10D0     		beq	.L25
 458 0034 00B2     		sxth	r0, r0
 315:Middlewares/lvgl/src/extra/layouts/flex/lv_flex.c ****         f->wrap = false;
 459              		.loc 2 315 16 discriminator 1 view .LVU125
 460 0036 13F00103 		ands	r3, r3, #1
 461 003a 03D0     		beq	.L26
 315:Middlewares/lvgl/src/extra/layouts/flex/lv_flex.c ****         f->wrap = false;
 462              		.loc 2 315 28 discriminator 2 view .LVU126
 463 003c 42F2D172 		movw	r2, #10193
ARM GAS  /tmp/ccjZBdV3.s 			page 23


 464 0040 9442     		cmp	r4, r2
 465 0042 04D0     		beq	.L27
 466              	.L26:
 315:Middlewares/lvgl/src/extra/layouts/flex/lv_flex.c ****         f->wrap = false;
 467              		.loc 2 315 57 discriminator 4 view .LVU127
 468 0044 3BB9     		cbnz	r3, .L25
 315:Middlewares/lvgl/src/extra/layouts/flex/lv_flex.c ****         f->wrap = false;
 469              		.loc 2 315 69 discriminator 5 view .LVU128
 470 0046 42F2D173 		movw	r3, #10193
 471 004a 9842     		cmp	r0, r3
 472 004c 03D1     		bne	.L25
 473              	.L27:
 316:Middlewares/lvgl/src/extra/layouts/flex/lv_flex.c ****     }
 474              		.loc 2 316 9 is_stmt 1 view .LVU129
 316:Middlewares/lvgl/src/extra/layouts/flex/lv_flex.c ****     }
 475              		.loc 2 316 17 is_stmt 0 view .LVU130
 476 004e F378     		ldrb	r3, [r6, #3]	@ zero_extendqisi2
 477 0050 6FF34103 		bfc	r3, #1, #1
 478 0054 F370     		strb	r3, [r6, #3]
 479              	.LVL50:
 480              	.L25:
 318:Middlewares/lvgl/src/extra/layouts/flex/lv_flex.c ****     lv_coord_t(*get_cross_size)(const lv_obj_t *) = (!f->row ? lv_obj_get_width : lv_obj_get_height
 481              		.loc 2 318 5 is_stmt 1 view .LVU131
 318:Middlewares/lvgl/src/extra/layouts/flex/lv_flex.c ****     lv_coord_t(*get_cross_size)(const lv_obj_t *) = (!f->row ? lv_obj_get_width : lv_obj_get_height
 482              		.loc 2 318 60 is_stmt 0 view .LVU132
 483 0056 F378     		ldrb	r3, [r6, #3]	@ zero_extendqisi2
 318:Middlewares/lvgl/src/extra/layouts/flex/lv_flex.c ****     lv_coord_t(*get_cross_size)(const lv_obj_t *) = (!f->row ? lv_obj_get_width : lv_obj_get_height
 484              		.loc 2 318 17 view .LVU133
 485 0058 13F00103 		ands	r3, r3, #1
 486 005c 13D0     		beq	.L50
 487 005e 844A     		ldr	r2, .L56
 488 0060 0192     		str	r2, [sp, #4]
 489              	.L28:
 490              	.LVL51:
 319:Middlewares/lvgl/src/extra/layouts/flex/lv_flex.c **** 
 491              		.loc 2 319 5 is_stmt 1 discriminator 4 view .LVU134
 319:Middlewares/lvgl/src/extra/layouts/flex/lv_flex.c **** 
 492              		.loc 2 319 17 is_stmt 0 discriminator 4 view .LVU135
 493 0062 9BB9     		cbnz	r3, .L51
 319:Middlewares/lvgl/src/extra/layouts/flex/lv_flex.c **** 
 494              		.loc 2 319 17 view .LVU136
 495 0064 DFF808A2 		ldr	r10, .L56
 496              	.L29:
 497              	.LVL52:
 321:Middlewares/lvgl/src/extra/layouts/flex/lv_flex.c ****     t->track_main_size = 0;
 498              		.loc 2 321 5 is_stmt 1 discriminator 4 view .LVU137
 322:Middlewares/lvgl/src/extra/layouts/flex/lv_flex.c ****     t->track_fix_main_size = 0;
 499              		.loc 2 322 5 discriminator 4 view .LVU138
 322:Middlewares/lvgl/src/extra/layouts/flex/lv_flex.c ****     t->track_fix_main_size = 0;
 500              		.loc 2 322 24 is_stmt 0 discriminator 4 view .LVU139
 501 0068 0023     		movs	r3, #0
 502 006a 6B80     		strh	r3, [r5, #2]	@ movhi
 323:Middlewares/lvgl/src/extra/layouts/flex/lv_flex.c ****     t->grow_item_cnt = 0;
 503              		.loc 2 323 5 is_stmt 1 discriminator 4 view .LVU140
 323:Middlewares/lvgl/src/extra/layouts/flex/lv_flex.c ****     t->grow_item_cnt = 0;
 504              		.loc 2 323 28 is_stmt 0 discriminator 4 view .LVU141
 505 006c AB80     		strh	r3, [r5, #4]	@ movhi
ARM GAS  /tmp/ccjZBdV3.s 			page 24


 324:Middlewares/lvgl/src/extra/layouts/flex/lv_flex.c ****     t->track_cross_size = 0;
 506              		.loc 2 324 5 is_stmt 1 discriminator 4 view .LVU142
 324:Middlewares/lvgl/src/extra/layouts/flex/lv_flex.c ****     t->track_cross_size = 0;
 507              		.loc 2 324 22 is_stmt 0 discriminator 4 view .LVU143
 508 006e 2B61     		str	r3, [r5, #16]
 325:Middlewares/lvgl/src/extra/layouts/flex/lv_flex.c ****     t->item_cnt = 0;
 509              		.loc 2 325 5 is_stmt 1 discriminator 4 view .LVU144
 325:Middlewares/lvgl/src/extra/layouts/flex/lv_flex.c ****     t->item_cnt = 0;
 510              		.loc 2 325 25 is_stmt 0 discriminator 4 view .LVU145
 511 0070 2B80     		strh	r3, [r5]	@ movhi
 326:Middlewares/lvgl/src/extra/layouts/flex/lv_flex.c ****     t->grow_dsc = NULL;
 512              		.loc 2 326 5 is_stmt 1 discriminator 4 view .LVU146
 326:Middlewares/lvgl/src/extra/layouts/flex/lv_flex.c ****     t->grow_dsc = NULL;
 513              		.loc 2 326 17 is_stmt 0 discriminator 4 view .LVU147
 514 0072 AB60     		str	r3, [r5, #8]
 327:Middlewares/lvgl/src/extra/layouts/flex/lv_flex.c **** 
 515              		.loc 2 327 5 is_stmt 1 discriminator 4 view .LVU148
 327:Middlewares/lvgl/src/extra/layouts/flex/lv_flex.c **** 
 516              		.loc 2 327 17 is_stmt 0 discriminator 4 view .LVU149
 517 0074 EB60     		str	r3, [r5, #12]
 329:Middlewares/lvgl/src/extra/layouts/flex/lv_flex.c **** 
 518              		.loc 2 329 5 is_stmt 1 discriminator 4 view .LVU150
 329:Middlewares/lvgl/src/extra/layouts/flex/lv_flex.c **** 
 519              		.loc 2 329 13 is_stmt 0 discriminator 4 view .LVU151
 520 0076 CDF81480 		str	r8, [sp, #20]
 331:Middlewares/lvgl/src/extra/layouts/flex/lv_flex.c ****     while(item) {
 521              		.loc 2 331 5 is_stmt 1 discriminator 4 view .LVU152
 331:Middlewares/lvgl/src/extra/layouts/flex/lv_flex.c ****     while(item) {
 522              		.loc 2 331 23 is_stmt 0 discriminator 4 view .LVU153
 523 007a 4146     		mov	r1, r8
 524 007c 4846     		mov	r0, r9
 525 007e FFF7FEFF 		bl	lv_obj_get_child
 526              	.LVL53:
 527 0082 0446     		mov	r4, r0
 528              	.LVL54:
 332:Middlewares/lvgl/src/extra/layouts/flex/lv_flex.c ****         if(item_id != item_start_id && lv_obj_has_flag(item, LV_OBJ_FLAG_FLEX_IN_NEW_TRACK)) break;
 529              		.loc 2 332 5 is_stmt 1 discriminator 4 view .LVU154
 332:Middlewares/lvgl/src/extra/layouts/flex/lv_flex.c ****         if(item_id != item_start_id && lv_obj_has_flag(item, LV_OBJ_FLAG_FLEX_IN_NEW_TRACK)) break;
 530              		.loc 2 332 10 is_stmt 0 discriminator 4 view .LVU155
 531 0084 AAE0     		b	.L30
 532              	.LVL55:
 533              	.L50:
 318:Middlewares/lvgl/src/extra/layouts/flex/lv_flex.c ****     lv_coord_t(*get_cross_size)(const lv_obj_t *) = (!f->row ? lv_obj_get_width : lv_obj_get_height
 534              		.loc 2 318 17 view .LVU156
 535 0086 7B4A     		ldr	r2, .L56+4
 536 0088 0192     		str	r2, [sp, #4]
 537 008a EAE7     		b	.L28
 538              	.LVL56:
 539              	.L51:
 319:Middlewares/lvgl/src/extra/layouts/flex/lv_flex.c **** 
 540              		.loc 2 319 17 view .LVU157
 541 008c DFF8E4A1 		ldr	r10, .L56+4
 542 0090 EAE7     		b	.L29
 543              	.LVL57:
 544              	.L54:
 545              	.LBB68:
 336:Middlewares/lvgl/src/extra/layouts/flex/lv_flex.c ****             if(grow_value) {
ARM GAS  /tmp/ccjZBdV3.s 			page 25


 546              		.loc 2 336 13 is_stmt 1 view .LVU158
 547              	.LBB69:
 548              	.LBI69:
 549              		.file 4 "Middlewares/lvgl/src/extra/layouts/flex/../flex/lv_flex.h"
   1:Middlewares/lvgl/src/extra/layouts/flex/../flex/lv_flex.h **** /**
   2:Middlewares/lvgl/src/extra/layouts/flex/../flex/lv_flex.h ****  * @file lv_flex.h
   3:Middlewares/lvgl/src/extra/layouts/flex/../flex/lv_flex.h ****  *
   4:Middlewares/lvgl/src/extra/layouts/flex/../flex/lv_flex.h ****  */
   5:Middlewares/lvgl/src/extra/layouts/flex/../flex/lv_flex.h **** 
   6:Middlewares/lvgl/src/extra/layouts/flex/../flex/lv_flex.h **** #ifndef LV_FLEX_H
   7:Middlewares/lvgl/src/extra/layouts/flex/../flex/lv_flex.h **** #define LV_FLEX_H
   8:Middlewares/lvgl/src/extra/layouts/flex/../flex/lv_flex.h **** 
   9:Middlewares/lvgl/src/extra/layouts/flex/../flex/lv_flex.h **** #ifdef __cplusplus
  10:Middlewares/lvgl/src/extra/layouts/flex/../flex/lv_flex.h **** extern "C" {
  11:Middlewares/lvgl/src/extra/layouts/flex/../flex/lv_flex.h **** #endif
  12:Middlewares/lvgl/src/extra/layouts/flex/../flex/lv_flex.h **** 
  13:Middlewares/lvgl/src/extra/layouts/flex/../flex/lv_flex.h **** /*********************
  14:Middlewares/lvgl/src/extra/layouts/flex/../flex/lv_flex.h ****  *      INCLUDES
  15:Middlewares/lvgl/src/extra/layouts/flex/../flex/lv_flex.h ****  *********************/
  16:Middlewares/lvgl/src/extra/layouts/flex/../flex/lv_flex.h **** #include "../../../core/lv_obj.h"
  17:Middlewares/lvgl/src/extra/layouts/flex/../flex/lv_flex.h **** #if LV_USE_FLEX
  18:Middlewares/lvgl/src/extra/layouts/flex/../flex/lv_flex.h **** 
  19:Middlewares/lvgl/src/extra/layouts/flex/../flex/lv_flex.h **** /*********************
  20:Middlewares/lvgl/src/extra/layouts/flex/../flex/lv_flex.h ****  *      DEFINES
  21:Middlewares/lvgl/src/extra/layouts/flex/../flex/lv_flex.h ****  *********************/
  22:Middlewares/lvgl/src/extra/layouts/flex/../flex/lv_flex.h **** 
  23:Middlewares/lvgl/src/extra/layouts/flex/../flex/lv_flex.h **** #define LV_OBJ_FLAG_FLEX_IN_NEW_TRACK   LV_OBJ_FLAG_LAYOUT_1
  24:Middlewares/lvgl/src/extra/layouts/flex/../flex/lv_flex.h **** LV_EXPORT_CONST_INT(LV_OBJ_FLAG_FLEX_IN_NEW_TRACK);
  25:Middlewares/lvgl/src/extra/layouts/flex/../flex/lv_flex.h **** 
  26:Middlewares/lvgl/src/extra/layouts/flex/../flex/lv_flex.h **** #define _LV_FLEX_COLUMN        (1 << 0)
  27:Middlewares/lvgl/src/extra/layouts/flex/../flex/lv_flex.h **** #define _LV_FLEX_WRAP       (1 << 2)
  28:Middlewares/lvgl/src/extra/layouts/flex/../flex/lv_flex.h **** #define _LV_FLEX_REVERSE    (1 << 3)
  29:Middlewares/lvgl/src/extra/layouts/flex/../flex/lv_flex.h **** 
  30:Middlewares/lvgl/src/extra/layouts/flex/../flex/lv_flex.h **** /**********************
  31:Middlewares/lvgl/src/extra/layouts/flex/../flex/lv_flex.h ****  *      TYPEDEFS
  32:Middlewares/lvgl/src/extra/layouts/flex/../flex/lv_flex.h ****  **********************/
  33:Middlewares/lvgl/src/extra/layouts/flex/../flex/lv_flex.h **** 
  34:Middlewares/lvgl/src/extra/layouts/flex/../flex/lv_flex.h **** /*Can't include lv_obj.h because it includes this header file*/
  35:Middlewares/lvgl/src/extra/layouts/flex/../flex/lv_flex.h **** struct _lv_obj_t;
  36:Middlewares/lvgl/src/extra/layouts/flex/../flex/lv_flex.h **** 
  37:Middlewares/lvgl/src/extra/layouts/flex/../flex/lv_flex.h **** typedef enum {
  38:Middlewares/lvgl/src/extra/layouts/flex/../flex/lv_flex.h ****     LV_FLEX_ALIGN_START,
  39:Middlewares/lvgl/src/extra/layouts/flex/../flex/lv_flex.h ****     LV_FLEX_ALIGN_END,
  40:Middlewares/lvgl/src/extra/layouts/flex/../flex/lv_flex.h ****     LV_FLEX_ALIGN_CENTER,
  41:Middlewares/lvgl/src/extra/layouts/flex/../flex/lv_flex.h ****     LV_FLEX_ALIGN_SPACE_EVENLY,
  42:Middlewares/lvgl/src/extra/layouts/flex/../flex/lv_flex.h ****     LV_FLEX_ALIGN_SPACE_AROUND,
  43:Middlewares/lvgl/src/extra/layouts/flex/../flex/lv_flex.h ****     LV_FLEX_ALIGN_SPACE_BETWEEN,
  44:Middlewares/lvgl/src/extra/layouts/flex/../flex/lv_flex.h **** }lv_flex_align_t;
  45:Middlewares/lvgl/src/extra/layouts/flex/../flex/lv_flex.h **** 
  46:Middlewares/lvgl/src/extra/layouts/flex/../flex/lv_flex.h **** typedef enum {
  47:Middlewares/lvgl/src/extra/layouts/flex/../flex/lv_flex.h ****     LV_FLEX_FLOW_ROW                 = 0x00,
  48:Middlewares/lvgl/src/extra/layouts/flex/../flex/lv_flex.h ****     LV_FLEX_FLOW_COLUMN              = _LV_FLEX_COLUMN,
  49:Middlewares/lvgl/src/extra/layouts/flex/../flex/lv_flex.h ****     LV_FLEX_FLOW_ROW_WRAP            = LV_FLEX_FLOW_ROW | _LV_FLEX_WRAP,
  50:Middlewares/lvgl/src/extra/layouts/flex/../flex/lv_flex.h ****     LV_FLEX_FLOW_ROW_REVERSE         = LV_FLEX_FLOW_ROW | _LV_FLEX_REVERSE,
  51:Middlewares/lvgl/src/extra/layouts/flex/../flex/lv_flex.h ****     LV_FLEX_FLOW_ROW_WRAP_REVERSE    = LV_FLEX_FLOW_ROW | _LV_FLEX_WRAP | _LV_FLEX_REVERSE,
  52:Middlewares/lvgl/src/extra/layouts/flex/../flex/lv_flex.h ****     LV_FLEX_FLOW_COLUMN_WRAP         = LV_FLEX_FLOW_COLUMN | _LV_FLEX_WRAP,
  53:Middlewares/lvgl/src/extra/layouts/flex/../flex/lv_flex.h ****     LV_FLEX_FLOW_COLUMN_REVERSE      = LV_FLEX_FLOW_COLUMN | _LV_FLEX_REVERSE,
ARM GAS  /tmp/ccjZBdV3.s 			page 26


  54:Middlewares/lvgl/src/extra/layouts/flex/../flex/lv_flex.h ****     LV_FLEX_FLOW_COLUMN_WRAP_REVERSE = LV_FLEX_FLOW_COLUMN | _LV_FLEX_WRAP | _LV_FLEX_REVERSE,
  55:Middlewares/lvgl/src/extra/layouts/flex/../flex/lv_flex.h **** }lv_flex_flow_t;
  56:Middlewares/lvgl/src/extra/layouts/flex/../flex/lv_flex.h **** 
  57:Middlewares/lvgl/src/extra/layouts/flex/../flex/lv_flex.h **** /**********************
  58:Middlewares/lvgl/src/extra/layouts/flex/../flex/lv_flex.h ****  * GLOBAL VARIABLES
  59:Middlewares/lvgl/src/extra/layouts/flex/../flex/lv_flex.h ****  **********************/
  60:Middlewares/lvgl/src/extra/layouts/flex/../flex/lv_flex.h **** extern uint32_t LV_LAYOUT_FLEX;
  61:Middlewares/lvgl/src/extra/layouts/flex/../flex/lv_flex.h **** extern lv_style_prop_t LV_STYLE_FLEX_FLOW;
  62:Middlewares/lvgl/src/extra/layouts/flex/../flex/lv_flex.h **** extern lv_style_prop_t LV_STYLE_FLEX_MAIN_PLACE;
  63:Middlewares/lvgl/src/extra/layouts/flex/../flex/lv_flex.h **** extern lv_style_prop_t LV_STYLE_FLEX_CROSS_PLACE;
  64:Middlewares/lvgl/src/extra/layouts/flex/../flex/lv_flex.h **** extern lv_style_prop_t LV_STYLE_FLEX_TRACK_PLACE;
  65:Middlewares/lvgl/src/extra/layouts/flex/../flex/lv_flex.h **** extern lv_style_prop_t LV_STYLE_FLEX_GROW;
  66:Middlewares/lvgl/src/extra/layouts/flex/../flex/lv_flex.h **** 
  67:Middlewares/lvgl/src/extra/layouts/flex/../flex/lv_flex.h **** /**********************
  68:Middlewares/lvgl/src/extra/layouts/flex/../flex/lv_flex.h ****  * GLOBAL PROTOTYPES
  69:Middlewares/lvgl/src/extra/layouts/flex/../flex/lv_flex.h ****  **********************/
  70:Middlewares/lvgl/src/extra/layouts/flex/../flex/lv_flex.h **** 
  71:Middlewares/lvgl/src/extra/layouts/flex/../flex/lv_flex.h **** /**
  72:Middlewares/lvgl/src/extra/layouts/flex/../flex/lv_flex.h ****  * Initialize a felx layout the default values
  73:Middlewares/lvgl/src/extra/layouts/flex/../flex/lv_flex.h ****  * @param flex pointer to a flex layout descriptor
  74:Middlewares/lvgl/src/extra/layouts/flex/../flex/lv_flex.h ****  */
  75:Middlewares/lvgl/src/extra/layouts/flex/../flex/lv_flex.h **** void lv_flex_init(void);
  76:Middlewares/lvgl/src/extra/layouts/flex/../flex/lv_flex.h **** 
  77:Middlewares/lvgl/src/extra/layouts/flex/../flex/lv_flex.h **** /**
  78:Middlewares/lvgl/src/extra/layouts/flex/../flex/lv_flex.h ****  * Set hot the item should flow
  79:Middlewares/lvgl/src/extra/layouts/flex/../flex/lv_flex.h ****  * @param flex pointer to a flex layout descriptor
  80:Middlewares/lvgl/src/extra/layouts/flex/../flex/lv_flex.h ****  * @param flow an element of `lv_flex_flow_t`.
  81:Middlewares/lvgl/src/extra/layouts/flex/../flex/lv_flex.h ****  */
  82:Middlewares/lvgl/src/extra/layouts/flex/../flex/lv_flex.h **** void lv_obj_set_flex_flow(lv_obj_t * obj, lv_flex_flow_t flow);
  83:Middlewares/lvgl/src/extra/layouts/flex/../flex/lv_flex.h **** 
  84:Middlewares/lvgl/src/extra/layouts/flex/../flex/lv_flex.h **** /**
  85:Middlewares/lvgl/src/extra/layouts/flex/../flex/lv_flex.h ****  * Set how to place (where to align) the items an tracks
  86:Middlewares/lvgl/src/extra/layouts/flex/../flex/lv_flex.h ****  * @param flex pointer: to a flex layout descriptor
  87:Middlewares/lvgl/src/extra/layouts/flex/../flex/lv_flex.h ****  * @param main_place where to place the items on main axis (in their track). Any value of `lv_flex_
  88:Middlewares/lvgl/src/extra/layouts/flex/../flex/lv_flex.h ****  * @param cross_place where to place the item in their track on the cross axis. `LV_FLEX_ALIGN_STAR
  89:Middlewares/lvgl/src/extra/layouts/flex/../flex/lv_flex.h ****  * @param track_place where to place the tracks in the cross direction. Any value of `lv_flex_align
  90:Middlewares/lvgl/src/extra/layouts/flex/../flex/lv_flex.h ****  */
  91:Middlewares/lvgl/src/extra/layouts/flex/../flex/lv_flex.h **** void lv_obj_set_flex_align(lv_obj_t * obj, lv_flex_align_t main_place, lv_flex_align_t cross_place,
  92:Middlewares/lvgl/src/extra/layouts/flex/../flex/lv_flex.h **** 
  93:Middlewares/lvgl/src/extra/layouts/flex/../flex/lv_flex.h **** /**
  94:Middlewares/lvgl/src/extra/layouts/flex/../flex/lv_flex.h ****  * Sets the width or height (on main axis) to grow the object in order fill the free space
  95:Middlewares/lvgl/src/extra/layouts/flex/../flex/lv_flex.h ****  * @param obj pointer to an object. The parent must have flex layout else nothing will happen.
  96:Middlewares/lvgl/src/extra/layouts/flex/../flex/lv_flex.h ****  * @param grow a value to set how much free space to take proportionally to other growing items.
  97:Middlewares/lvgl/src/extra/layouts/flex/../flex/lv_flex.h ****  */
  98:Middlewares/lvgl/src/extra/layouts/flex/../flex/lv_flex.h **** void lv_obj_set_flex_grow(lv_obj_t * obj, uint8_t grow);
  99:Middlewares/lvgl/src/extra/layouts/flex/../flex/lv_flex.h **** 
 100:Middlewares/lvgl/src/extra/layouts/flex/../flex/lv_flex.h **** void lv_style_set_flex_flow(lv_style_t * style, lv_flex_flow_t value);
 101:Middlewares/lvgl/src/extra/layouts/flex/../flex/lv_flex.h **** void lv_style_set_flex_main_place(lv_style_t * style, lv_flex_align_t value);
 102:Middlewares/lvgl/src/extra/layouts/flex/../flex/lv_flex.h **** void lv_style_set_flex_cross_place(lv_style_t * style, lv_flex_align_t value);
 103:Middlewares/lvgl/src/extra/layouts/flex/../flex/lv_flex.h **** void lv_style_set_flex_track_place(lv_style_t * style, lv_flex_align_t value);
 104:Middlewares/lvgl/src/extra/layouts/flex/../flex/lv_flex.h **** void lv_style_set_flex_grow(lv_style_t * style, uint8_t value);
 105:Middlewares/lvgl/src/extra/layouts/flex/../flex/lv_flex.h **** void lv_obj_set_style_flex_flow(lv_obj_t * obj, lv_flex_flow_t value, lv_style_selector_t selector)
 106:Middlewares/lvgl/src/extra/layouts/flex/../flex/lv_flex.h **** void lv_obj_set_style_flex_main_place(lv_obj_t * obj, lv_flex_align_t value, lv_style_selector_t se
 107:Middlewares/lvgl/src/extra/layouts/flex/../flex/lv_flex.h **** void lv_obj_set_style_flex_cross_place(lv_obj_t * obj, lv_flex_align_t value, lv_style_selector_t s
 108:Middlewares/lvgl/src/extra/layouts/flex/../flex/lv_flex.h **** void lv_obj_set_style_flex_track_place(lv_obj_t * obj, lv_flex_align_t value, lv_style_selector_t s
 109:Middlewares/lvgl/src/extra/layouts/flex/../flex/lv_flex.h **** void lv_obj_set_style_flex_grow(lv_obj_t * obj, uint8_t value, lv_style_selector_t selector);
 110:Middlewares/lvgl/src/extra/layouts/flex/../flex/lv_flex.h **** 
ARM GAS  /tmp/ccjZBdV3.s 			page 27


 111:Middlewares/lvgl/src/extra/layouts/flex/../flex/lv_flex.h **** static inline lv_flex_flow_t lv_obj_get_style_flex_flow(const lv_obj_t * obj, uint32_t part)
 112:Middlewares/lvgl/src/extra/layouts/flex/../flex/lv_flex.h **** {
 113:Middlewares/lvgl/src/extra/layouts/flex/../flex/lv_flex.h ****     lv_style_value_t v = lv_obj_get_style_prop(obj, part, LV_STYLE_FLEX_FLOW);
 114:Middlewares/lvgl/src/extra/layouts/flex/../flex/lv_flex.h ****     return (lv_flex_flow_t)v.num;
 115:Middlewares/lvgl/src/extra/layouts/flex/../flex/lv_flex.h **** }
 116:Middlewares/lvgl/src/extra/layouts/flex/../flex/lv_flex.h **** 
 117:Middlewares/lvgl/src/extra/layouts/flex/../flex/lv_flex.h **** static inline lv_flex_align_t lv_obj_get_style_flex_main_place(const lv_obj_t * obj, uint32_t part)
 118:Middlewares/lvgl/src/extra/layouts/flex/../flex/lv_flex.h **** {
 119:Middlewares/lvgl/src/extra/layouts/flex/../flex/lv_flex.h ****     lv_style_value_t v = lv_obj_get_style_prop(obj, part, LV_STYLE_FLEX_MAIN_PLACE);
 120:Middlewares/lvgl/src/extra/layouts/flex/../flex/lv_flex.h ****     return (lv_flex_align_t)v.num;
 121:Middlewares/lvgl/src/extra/layouts/flex/../flex/lv_flex.h **** }
 122:Middlewares/lvgl/src/extra/layouts/flex/../flex/lv_flex.h **** 
 123:Middlewares/lvgl/src/extra/layouts/flex/../flex/lv_flex.h **** static inline lv_flex_align_t lv_obj_get_style_flex_cross_place(const lv_obj_t * obj, uint32_t part
 124:Middlewares/lvgl/src/extra/layouts/flex/../flex/lv_flex.h **** {
 125:Middlewares/lvgl/src/extra/layouts/flex/../flex/lv_flex.h ****     lv_style_value_t v = lv_obj_get_style_prop(obj, part, LV_STYLE_FLEX_CROSS_PLACE);
 126:Middlewares/lvgl/src/extra/layouts/flex/../flex/lv_flex.h ****     return (lv_flex_align_t)v.num;
 127:Middlewares/lvgl/src/extra/layouts/flex/../flex/lv_flex.h **** }
 128:Middlewares/lvgl/src/extra/layouts/flex/../flex/lv_flex.h **** 
 129:Middlewares/lvgl/src/extra/layouts/flex/../flex/lv_flex.h **** static inline lv_flex_align_t lv_obj_get_style_flex_track_place(const lv_obj_t * obj, uint32_t part
 130:Middlewares/lvgl/src/extra/layouts/flex/../flex/lv_flex.h **** {
 131:Middlewares/lvgl/src/extra/layouts/flex/../flex/lv_flex.h ****     lv_style_value_t v = lv_obj_get_style_prop(obj, part, LV_STYLE_FLEX_TRACK_PLACE);
 132:Middlewares/lvgl/src/extra/layouts/flex/../flex/lv_flex.h ****     return (lv_flex_align_t)v.num;
 133:Middlewares/lvgl/src/extra/layouts/flex/../flex/lv_flex.h **** }
 134:Middlewares/lvgl/src/extra/layouts/flex/../flex/lv_flex.h **** 
 135:Middlewares/lvgl/src/extra/layouts/flex/../flex/lv_flex.h **** static inline uint8_t lv_obj_get_style_flex_grow(const lv_obj_t * obj, uint32_t part)
 550              		.loc 4 135 23 view .LVU159
 551              	.LBB70:
 136:Middlewares/lvgl/src/extra/layouts/flex/../flex/lv_flex.h **** {
 137:Middlewares/lvgl/src/extra/layouts/flex/../flex/lv_flex.h ****     lv_style_value_t v = lv_obj_get_style_prop(obj, part, LV_STYLE_FLEX_GROW);
 552              		.loc 4 137 5 view .LVU160
 553              		.loc 4 137 26 is_stmt 0 view .LVU161
 554 0092 794B     		ldr	r3, .L56+8
 555 0094 1A88     		ldrh	r2, [r3]
 556 0096 0021     		movs	r1, #0
 557 0098 2046     		mov	r0, r4
 558 009a FFF7FEFF 		bl	lv_obj_get_style_prop
 559              	.LVL58:
 560 009e 0746     		mov	r7, r0
 138:Middlewares/lvgl/src/extra/layouts/flex/../flex/lv_flex.h ****     return (uint8_t)v.num;
 561              		.loc 4 138 5 is_stmt 1 view .LVU162
 562              	.LVL59:
 563              		.loc 4 138 5 is_stmt 0 view .LVU163
 564              	.LBE70:
 565              	.LBE69:
 337:Middlewares/lvgl/src/extra/layouts/flex/lv_flex.c ****                 grow_sum += grow_value;
 566              		.loc 2 337 13 is_stmt 1 view .LVU164
 337:Middlewares/lvgl/src/extra/layouts/flex/lv_flex.c ****                 grow_sum += grow_value;
 567              		.loc 2 337 15 is_stmt 0 view .LVU165
 568 00a0 10F0FF0F 		tst	r0, #255
 569 00a4 70D0     		beq	.L34
 338:Middlewares/lvgl/src/extra/layouts/flex/lv_flex.c ****                 t->grow_item_cnt++;
 570              		.loc 2 338 17 is_stmt 1 view .LVU166
 339:Middlewares/lvgl/src/extra/layouts/flex/lv_flex.c ****                 t->track_fix_main_size += item_gap;
 571              		.loc 2 339 17 view .LVU167
 339:Middlewares/lvgl/src/extra/layouts/flex/lv_flex.c ****                 t->track_fix_main_size += item_gap;
 572              		.loc 2 339 18 is_stmt 0 view .LVU168
 573 00a6 2869     		ldr	r0, [r5, #16]
ARM GAS  /tmp/ccjZBdV3.s 			page 28


 574              	.LVL60:
 339:Middlewares/lvgl/src/extra/layouts/flex/lv_flex.c ****                 t->track_fix_main_size += item_gap;
 575              		.loc 2 339 33 view .LVU169
 576 00a8 0130     		adds	r0, r0, #1
 577 00aa 2861     		str	r0, [r5, #16]
 340:Middlewares/lvgl/src/extra/layouts/flex/lv_flex.c ****                 if(t->grow_dsc_calc) {
 578              		.loc 2 340 17 is_stmt 1 view .LVU170
 340:Middlewares/lvgl/src/extra/layouts/flex/lv_flex.c ****                 if(t->grow_dsc_calc) {
 579              		.loc 2 340 40 is_stmt 0 view .LVU171
 580 00ac AB88     		ldrh	r3, [r5, #4]
 581 00ae 5B44     		add	r3, r3, fp
 582 00b0 AB80     		strh	r3, [r5, #4]	@ movhi
 341:Middlewares/lvgl/src/extra/layouts/flex/lv_flex.c ****                     grow_dsc_t * new_dsc = lv_mem_buf_get(sizeof(grow_dsc_t) * (t->grow_item_cnt));
 583              		.loc 2 341 17 is_stmt 1 view .LVU172
 341:Middlewares/lvgl/src/extra/layouts/flex/lv_flex.c ****                     grow_dsc_t * new_dsc = lv_mem_buf_get(sizeof(grow_dsc_t) * (t->grow_item_cnt));
 584              		.loc 2 341 20 is_stmt 0 view .LVU173
 585 00b2 2B7D     		ldrb	r3, [r5, #20]	@ zero_extendqisi2
 341:Middlewares/lvgl/src/extra/layouts/flex/lv_flex.c ****                     grow_dsc_t * new_dsc = lv_mem_buf_get(sizeof(grow_dsc_t) * (t->grow_item_cnt));
 586              		.loc 2 341 19 view .LVU174
 587 00b4 13F0010F 		tst	r3, #1
 588 00b8 78D0     		beq	.L35
 589              	.LBB71:
 342:Middlewares/lvgl/src/extra/layouts/flex/lv_flex.c ****                     LV_ASSERT_MALLOC(new_dsc);
 590              		.loc 2 342 21 is_stmt 1 view .LVU175
 342:Middlewares/lvgl/src/extra/layouts/flex/lv_flex.c ****                     LV_ASSERT_MALLOC(new_dsc);
 591              		.loc 2 342 44 is_stmt 0 view .LVU176
 592 00ba 00EB8000 		add	r0, r0, r0, lsl #2
 593 00be 8000     		lsls	r0, r0, #2
 594 00c0 FFF7FEFF 		bl	lv_mem_buf_get
 595              	.LVL61:
 343:Middlewares/lvgl/src/extra/layouts/flex/lv_flex.c ****                     if(new_dsc == NULL) return item_id;
 596              		.loc 2 343 21 is_stmt 1 view .LVU177
 343:Middlewares/lvgl/src/extra/layouts/flex/lv_flex.c ****                     if(new_dsc == NULL) return item_id;
 597              		.loc 2 343 21 view .LVU178
 598 00c4 0290     		str	r0, [sp, #8]
 599 00c6 0028     		cmp	r0, #0
 600 00c8 4DD0     		beq	.L37
 343:Middlewares/lvgl/src/extra/layouts/flex/lv_flex.c ****                     if(new_dsc == NULL) return item_id;
 601              		.loc 2 343 21 view .LVU179
 343:Middlewares/lvgl/src/extra/layouts/flex/lv_flex.c ****                     if(new_dsc == NULL) return item_id;
 602              		.loc 2 343 46 view .LVU180
 344:Middlewares/lvgl/src/extra/layouts/flex/lv_flex.c **** 
 603              		.loc 2 344 21 view .LVU181
 346:Middlewares/lvgl/src/extra/layouts/flex/lv_flex.c ****                         lv_memcpy(new_dsc, t->grow_dsc, sizeof(grow_dsc_t) * (t->grow_item_cnt - 1)
 604              		.loc 2 346 21 view .LVU182
 346:Middlewares/lvgl/src/extra/layouts/flex/lv_flex.c ****                         lv_memcpy(new_dsc, t->grow_dsc, sizeof(grow_dsc_t) * (t->grow_item_cnt - 1)
 605              		.loc 2 346 25 is_stmt 0 view .LVU183
 606 00ca E968     		ldr	r1, [r5, #12]
 346:Middlewares/lvgl/src/extra/layouts/flex/lv_flex.c ****                         lv_memcpy(new_dsc, t->grow_dsc, sizeof(grow_dsc_t) * (t->grow_item_cnt - 1)
 607              		.loc 2 346 23 view .LVU184
 608 00cc 51B1     		cbz	r1, .L38
 347:Middlewares/lvgl/src/extra/layouts/flex/lv_flex.c ****                         lv_mem_buf_release(t->grow_dsc);
 609              		.loc 2 347 25 is_stmt 1 view .LVU185
 347:Middlewares/lvgl/src/extra/layouts/flex/lv_flex.c ****                         lv_mem_buf_release(t->grow_dsc);
 610              		.loc 2 347 80 is_stmt 0 view .LVU186
 611 00ce 2B69     		ldr	r3, [r5, #16]
 347:Middlewares/lvgl/src/extra/layouts/flex/lv_flex.c ****                         lv_mem_buf_release(t->grow_dsc);
ARM GAS  /tmp/ccjZBdV3.s 			page 29


 612              		.loc 2 347 25 view .LVU187
 613 00d0 03EB8303 		add	r3, r3, r3, lsl #2
 614 00d4 9A00     		lsls	r2, r3, #2
 615 00d6 143A     		subs	r2, r2, #20
 616 00d8 0298     		ldr	r0, [sp, #8]
 347:Middlewares/lvgl/src/extra/layouts/flex/lv_flex.c ****                         lv_mem_buf_release(t->grow_dsc);
 617              		.loc 2 347 25 view .LVU188
 618 00da FFF7FEFF 		bl	lv_memcpy
 619              	.LVL62:
 348:Middlewares/lvgl/src/extra/layouts/flex/lv_flex.c ****                     }
 620              		.loc 2 348 25 is_stmt 1 view .LVU189
 621 00de E868     		ldr	r0, [r5, #12]
 622 00e0 FFF7FEFF 		bl	lv_mem_buf_release
 623              	.LVL63:
 624              	.L38:
 350:Middlewares/lvgl/src/extra/layouts/flex/lv_flex.c ****                     new_dsc[t->grow_item_cnt - 1].min_size = f->row ? lv_obj_get_style_min_width(it
 625              		.loc 2 350 21 view .LVU190
 350:Middlewares/lvgl/src/extra/layouts/flex/lv_flex.c ****                     new_dsc[t->grow_item_cnt - 1].min_size = f->row ? lv_obj_get_style_min_width(it
 626              		.loc 2 350 30 is_stmt 0 view .LVU191
 627 00e4 2B69     		ldr	r3, [r5, #16]
 350:Middlewares/lvgl/src/extra/layouts/flex/lv_flex.c ****                     new_dsc[t->grow_item_cnt - 1].min_size = f->row ? lv_obj_get_style_min_width(it
 628              		.loc 2 350 28 view .LVU192
 629 00e6 03EB8303 		add	r3, r3, r3, lsl #2
 630 00ea 9B00     		lsls	r3, r3, #2
 631 00ec 143B     		subs	r3, r3, #20
 350:Middlewares/lvgl/src/extra/layouts/flex/lv_flex.c ****                     new_dsc[t->grow_item_cnt - 1].min_size = f->row ? lv_obj_get_style_min_width(it
 632              		.loc 2 350 56 view .LVU193
 633 00ee 029A     		ldr	r2, [sp, #8]
 634 00f0 D450     		str	r4, [r2, r3]
 351:Middlewares/lvgl/src/extra/layouts/flex/lv_flex.c ****                     new_dsc[t->grow_item_cnt - 1].max_size = f->row ? lv_obj_get_style_max_width(it
 635              		.loc 2 351 21 is_stmt 1 view .LVU194
 351:Middlewares/lvgl/src/extra/layouts/flex/lv_flex.c ****                     new_dsc[t->grow_item_cnt - 1].max_size = f->row ? lv_obj_get_style_max_width(it
 636              		.loc 2 351 69 is_stmt 0 view .LVU195
 637 00f2 F378     		ldrb	r3, [r6, #3]	@ zero_extendqisi2
 351:Middlewares/lvgl/src/extra/layouts/flex/lv_flex.c ****                     new_dsc[t->grow_item_cnt - 1].max_size = f->row ? lv_obj_get_style_max_width(it
 638              		.loc 2 351 60 view .LVU196
 639 00f4 13F0010F 		tst	r3, #1
 640 00f8 36D0     		beq	.L39
 641              	.LVL64:
 642              	.LBB72:
 643              	.LBI72:
   7:Middlewares/lvgl/src/extra/layouts/flex/../flex/../../../core/lv_obj_style_gen.h **** {
 644              		.loc 3 7 26 is_stmt 1 view .LVU197
 645              	.LBB73:
   9:Middlewares/lvgl/src/extra/layouts/flex/../flex/../../../core/lv_obj_style_gen.h ****     return (lv_coord_t)v.num;
 646              		.loc 3 9 5 view .LVU198
   9:Middlewares/lvgl/src/extra/layouts/flex/../flex/../../../core/lv_obj_style_gen.h ****     return (lv_coord_t)v.num;
 647              		.loc 3 9 26 is_stmt 0 view .LVU199
 648 00fa 41F20202 		movw	r2, #4098
 649 00fe 0021     		movs	r1, #0
 650 0100 2046     		mov	r0, r4
 651 0102 FFF7FEFF 		bl	lv_obj_get_style_prop
 652              	.LVL65:
  10:Middlewares/lvgl/src/extra/layouts/flex/../flex/../../../core/lv_obj_style_gen.h **** }
 653              		.loc 3 10 5 is_stmt 1 view .LVU200
  10:Middlewares/lvgl/src/extra/layouts/flex/../flex/../../../core/lv_obj_style_gen.h **** }
 654              		.loc 3 10 12 is_stmt 0 view .LVU201
ARM GAS  /tmp/ccjZBdV3.s 			page 30


 655 0106 00B2     		sxth	r0, r0
 656              	.LVL66:
 657              	.L40:
  10:Middlewares/lvgl/src/extra/layouts/flex/../flex/../../../core/lv_obj_style_gen.h **** }
 658              		.loc 3 10 12 view .LVU202
 659              	.LBE73:
 660              	.LBE72:
 351:Middlewares/lvgl/src/extra/layouts/flex/lv_flex.c ****                     new_dsc[t->grow_item_cnt - 1].max_size = f->row ? lv_obj_get_style_max_width(it
 661              		.loc 2 351 30 discriminator 4 view .LVU203
 662 0108 2B69     		ldr	r3, [r5, #16]
 351:Middlewares/lvgl/src/extra/layouts/flex/lv_flex.c ****                     new_dsc[t->grow_item_cnt - 1].max_size = f->row ? lv_obj_get_style_max_width(it
 663              		.loc 2 351 28 discriminator 4 view .LVU204
 664 010a 03EB8303 		add	r3, r3, r3, lsl #2
 665 010e 9B00     		lsls	r3, r3, #2
 666 0110 143B     		subs	r3, r3, #20
 667 0112 029A     		ldr	r2, [sp, #8]
 668 0114 1344     		add	r3, r3, r2
 351:Middlewares/lvgl/src/extra/layouts/flex/lv_flex.c ****                     new_dsc[t->grow_item_cnt - 1].max_size = f->row ? lv_obj_get_style_max_width(it
 669              		.loc 2 351 60 discriminator 4 view .LVU205
 670 0116 9880     		strh	r0, [r3, #4]	@ movhi
 352:Middlewares/lvgl/src/extra/layouts/flex/lv_flex.c ****                     new_dsc[t->grow_item_cnt - 1].grow_value = grow_value;
 671              		.loc 2 352 21 is_stmt 1 discriminator 4 view .LVU206
 352:Middlewares/lvgl/src/extra/layouts/flex/lv_flex.c ****                     new_dsc[t->grow_item_cnt - 1].grow_value = grow_value;
 672              		.loc 2 352 69 is_stmt 0 discriminator 4 view .LVU207
 673 0118 F378     		ldrb	r3, [r6, #3]	@ zero_extendqisi2
 352:Middlewares/lvgl/src/extra/layouts/flex/lv_flex.c ****                     new_dsc[t->grow_item_cnt - 1].grow_value = grow_value;
 674              		.loc 2 352 60 discriminator 4 view .LVU208
 675 011a 13F0010F 		tst	r3, #1
 676 011e 2BD0     		beq	.L41
 677              	.LVL67:
 678              	.LBB74:
 679              	.LBI74:
  13:Middlewares/lvgl/src/extra/layouts/flex/../flex/../../../core/lv_obj_style_gen.h **** {
 680              		.loc 3 13 26 is_stmt 1 view .LVU209
 681              	.LBB75:
  15:Middlewares/lvgl/src/extra/layouts/flex/../flex/../../../core/lv_obj_style_gen.h ****     return (lv_coord_t)v.num;
 682              		.loc 3 15 5 view .LVU210
  15:Middlewares/lvgl/src/extra/layouts/flex/../flex/../../../core/lv_obj_style_gen.h ****     return (lv_coord_t)v.num;
 683              		.loc 3 15 26 is_stmt 0 view .LVU211
 684 0120 41F20302 		movw	r2, #4099
 685 0124 0021     		movs	r1, #0
 686 0126 2046     		mov	r0, r4
 687 0128 FFF7FEFF 		bl	lv_obj_get_style_prop
 688              	.LVL68:
  16:Middlewares/lvgl/src/extra/layouts/flex/../flex/../../../core/lv_obj_style_gen.h **** }
 689              		.loc 3 16 5 is_stmt 1 view .LVU212
  16:Middlewares/lvgl/src/extra/layouts/flex/../flex/../../../core/lv_obj_style_gen.h **** }
 690              		.loc 3 16 12 is_stmt 0 view .LVU213
 691 012c 00B2     		sxth	r0, r0
 692              	.LVL69:
 693              	.L42:
  16:Middlewares/lvgl/src/extra/layouts/flex/../flex/../../../core/lv_obj_style_gen.h **** }
 694              		.loc 3 16 12 view .LVU214
 695              	.LBE75:
 696              	.LBE74:
 352:Middlewares/lvgl/src/extra/layouts/flex/lv_flex.c ****                     new_dsc[t->grow_item_cnt - 1].grow_value = grow_value;
 697              		.loc 2 352 30 discriminator 4 view .LVU215
ARM GAS  /tmp/ccjZBdV3.s 			page 31


 698 012e 2B69     		ldr	r3, [r5, #16]
 352:Middlewares/lvgl/src/extra/layouts/flex/lv_flex.c ****                     new_dsc[t->grow_item_cnt - 1].grow_value = grow_value;
 699              		.loc 2 352 28 discriminator 4 view .LVU216
 700 0130 03EB8303 		add	r3, r3, r3, lsl #2
 701 0134 9B00     		lsls	r3, r3, #2
 702 0136 143B     		subs	r3, r3, #20
 703 0138 0299     		ldr	r1, [sp, #8]
 704 013a 0B44     		add	r3, r3, r1
 352:Middlewares/lvgl/src/extra/layouts/flex/lv_flex.c ****                     new_dsc[t->grow_item_cnt - 1].grow_value = grow_value;
 705              		.loc 2 352 60 discriminator 4 view .LVU217
 706 013c D880     		strh	r0, [r3, #6]	@ movhi
 353:Middlewares/lvgl/src/extra/layouts/flex/lv_flex.c ****                     new_dsc[t->grow_item_cnt - 1].clamped = 0;
 707              		.loc 2 353 21 is_stmt 1 discriminator 4 view .LVU218
 353:Middlewares/lvgl/src/extra/layouts/flex/lv_flex.c ****                     new_dsc[t->grow_item_cnt - 1].clamped = 0;
 708              		.loc 2 353 30 is_stmt 0 discriminator 4 view .LVU219
 709 013e 2B69     		ldr	r3, [r5, #16]
 353:Middlewares/lvgl/src/extra/layouts/flex/lv_flex.c ****                     new_dsc[t->grow_item_cnt - 1].clamped = 0;
 710              		.loc 2 353 28 discriminator 4 view .LVU220
 711 0140 03EB8303 		add	r3, r3, r3, lsl #2
 712 0144 9B00     		lsls	r3, r3, #2
 713 0146 143B     		subs	r3, r3, #20
 714 0148 0B44     		add	r3, r3, r1
 353:Middlewares/lvgl/src/extra/layouts/flex/lv_flex.c ****                     new_dsc[t->grow_item_cnt - 1].clamped = 0;
 715              		.loc 2 353 62 discriminator 4 view .LVU221
 716 014a FFB2     		uxtb	r7, r7
 717 014c DF60     		str	r7, [r3, #12]
 354:Middlewares/lvgl/src/extra/layouts/flex/lv_flex.c ****                     t->grow_dsc = new_dsc;
 718              		.loc 2 354 21 is_stmt 1 discriminator 4 view .LVU222
 354:Middlewares/lvgl/src/extra/layouts/flex/lv_flex.c ****                     t->grow_dsc = new_dsc;
 719              		.loc 2 354 30 is_stmt 0 discriminator 4 view .LVU223
 720 014e 2B69     		ldr	r3, [r5, #16]
 354:Middlewares/lvgl/src/extra/layouts/flex/lv_flex.c ****                     t->grow_dsc = new_dsc;
 721              		.loc 2 354 28 discriminator 4 view .LVU224
 722 0150 03EB8303 		add	r3, r3, r3, lsl #2
 723 0154 9B00     		lsls	r3, r3, #2
 724 0156 143B     		subs	r3, r3, #20
 725 0158 0B44     		add	r3, r3, r1
 354:Middlewares/lvgl/src/extra/layouts/flex/lv_flex.c ****                     t->grow_dsc = new_dsc;
 726              		.loc 2 354 59 discriminator 4 view .LVU225
 727 015a 1A7C     		ldrb	r2, [r3, #16]	@ zero_extendqisi2
 728 015c 6FF30002 		bfc	r2, #0, #1
 729 0160 1A74     		strb	r2, [r3, #16]
 355:Middlewares/lvgl/src/extra/layouts/flex/lv_flex.c ****                 }
 730              		.loc 2 355 21 is_stmt 1 discriminator 4 view .LVU226
 355:Middlewares/lvgl/src/extra/layouts/flex/lv_flex.c ****                 }
 731              		.loc 2 355 33 is_stmt 0 discriminator 4 view .LVU227
 732 0162 E960     		str	r1, [r5, #12]
 733 0164 22E0     		b	.L35
 734              	.LVL70:
 735              	.L37:
 343:Middlewares/lvgl/src/extra/layouts/flex/lv_flex.c ****                     if(new_dsc == NULL) return item_id;
 736              		.loc 2 343 21 is_stmt 1 discriminator 1 view .LVU228
 343:Middlewares/lvgl/src/extra/layouts/flex/lv_flex.c ****                     if(new_dsc == NULL) return item_id;
 737              		.loc 2 343 21 discriminator 1 view .LVU229
 343:Middlewares/lvgl/src/extra/layouts/flex/lv_flex.c ****                     if(new_dsc == NULL) return item_id;
 738              		.loc 2 343 21 discriminator 1 view .LVU230
 343:Middlewares/lvgl/src/extra/layouts/flex/lv_flex.c ****                     if(new_dsc == NULL) return item_id;
ARM GAS  /tmp/ccjZBdV3.s 			page 32


 739              		.loc 2 343 21 discriminator 1 view .LVU231
 740 0166 FEE7     		b	.L37
 741              	.LVL71:
 742              	.L39:
 743              	.LBB76:
 744              	.LBI76:
  23:Middlewares/lvgl/src/extra/layouts/flex/../flex/../../../core/lv_obj_style_gen.h **** }
  24:Middlewares/lvgl/src/extra/layouts/flex/../flex/../../../core/lv_obj_style_gen.h **** 
  25:Middlewares/lvgl/src/extra/layouts/flex/../flex/../../../core/lv_obj_style_gen.h **** static inline lv_coord_t lv_obj_get_style_min_height(const struct _lv_obj_t * obj, uint32_t part)
 745              		.loc 3 25 26 view .LVU232
 746              	.LBB77:
  26:Middlewares/lvgl/src/extra/layouts/flex/../flex/../../../core/lv_obj_style_gen.h **** {
  27:Middlewares/lvgl/src/extra/layouts/flex/../flex/../../../core/lv_obj_style_gen.h ****     lv_style_value_t v = lv_obj_get_style_prop(obj, part, LV_STYLE_MIN_HEIGHT);
 747              		.loc 3 27 5 view .LVU233
 748              		.loc 3 27 26 is_stmt 0 view .LVU234
 749 0168 41F20502 		movw	r2, #4101
 750 016c 0021     		movs	r1, #0
 751 016e 2046     		mov	r0, r4
 752 0170 FFF7FEFF 		bl	lv_obj_get_style_prop
 753              	.LVL72:
  28:Middlewares/lvgl/src/extra/layouts/flex/../flex/../../../core/lv_obj_style_gen.h ****     return (lv_coord_t)v.num;
 754              		.loc 3 28 5 is_stmt 1 view .LVU235
 755              		.loc 3 28 12 is_stmt 0 view .LVU236
 756 0174 00B2     		sxth	r0, r0
 757              	.LVL73:
 758              		.loc 3 28 12 view .LVU237
 759 0176 C7E7     		b	.L40
 760              	.L41:
 761              	.LVL74:
 762              		.loc 3 28 12 view .LVU238
 763              	.LBE77:
 764              	.LBE76:
 765              	.LBB78:
 766              	.LBI78:
  29:Middlewares/lvgl/src/extra/layouts/flex/../flex/../../../core/lv_obj_style_gen.h **** }
  30:Middlewares/lvgl/src/extra/layouts/flex/../flex/../../../core/lv_obj_style_gen.h **** 
  31:Middlewares/lvgl/src/extra/layouts/flex/../flex/../../../core/lv_obj_style_gen.h **** static inline lv_coord_t lv_obj_get_style_max_height(const struct _lv_obj_t * obj, uint32_t part)
 767              		.loc 3 31 26 is_stmt 1 view .LVU239
 768              	.LBB79:
  32:Middlewares/lvgl/src/extra/layouts/flex/../flex/../../../core/lv_obj_style_gen.h **** {
  33:Middlewares/lvgl/src/extra/layouts/flex/../flex/../../../core/lv_obj_style_gen.h ****     lv_style_value_t v = lv_obj_get_style_prop(obj, part, LV_STYLE_MAX_HEIGHT);
 769              		.loc 3 33 5 view .LVU240
 770              		.loc 3 33 26 is_stmt 0 view .LVU241
 771 0178 41F20602 		movw	r2, #4102
 772 017c 0021     		movs	r1, #0
 773 017e 2046     		mov	r0, r4
 774 0180 FFF7FEFF 		bl	lv_obj_get_style_prop
 775              	.LVL75:
  34:Middlewares/lvgl/src/extra/layouts/flex/../flex/../../../core/lv_obj_style_gen.h ****     return (lv_coord_t)v.num;
 776              		.loc 3 34 5 is_stmt 1 view .LVU242
 777              		.loc 3 34 12 is_stmt 0 view .LVU243
 778 0184 00B2     		sxth	r0, r0
 779              	.LVL76:
 780              		.loc 3 34 12 view .LVU244
 781 0186 D2E7     		b	.L42
 782              	.LVL77:
 783              	.L34:
ARM GAS  /tmp/ccjZBdV3.s 			page 33


 784              		.loc 3 34 12 view .LVU245
 785              	.LBE79:
 786              	.LBE78:
 787              	.LBE71:
 788              	.LBB80:
 358:Middlewares/lvgl/src/extra/layouts/flex/lv_flex.c ****                 if(f->wrap && t->track_fix_main_size + item_size > max_main_size) break;
 789              		.loc 2 358 17 is_stmt 1 view .LVU246
 358:Middlewares/lvgl/src/extra/layouts/flex/lv_flex.c ****                 if(f->wrap && t->track_fix_main_size + item_size > max_main_size) break;
 790              		.loc 2 358 40 is_stmt 0 view .LVU247
 791 0188 2046     		mov	r0, r4
 792              	.LVL78:
 358:Middlewares/lvgl/src/extra/layouts/flex/lv_flex.c ****                 if(f->wrap && t->track_fix_main_size + item_size > max_main_size) break;
 793              		.loc 2 358 40 view .LVU248
 794 018a 019B     		ldr	r3, [sp, #4]
 795 018c 9847     		blx	r3
 796              	.LVL79:
 359:Middlewares/lvgl/src/extra/layouts/flex/lv_flex.c ****                 t->track_fix_main_size += item_size + item_gap;
 797              		.loc 2 359 17 is_stmt 1 view .LVU249
 359:Middlewares/lvgl/src/extra/layouts/flex/lv_flex.c ****                 t->track_fix_main_size += item_size + item_gap;
 798              		.loc 2 359 20 is_stmt 0 view .LVU250
 799 018e F378     		ldrb	r3, [r6, #3]	@ zero_extendqisi2
 359:Middlewares/lvgl/src/extra/layouts/flex/lv_flex.c ****                 t->track_fix_main_size += item_size + item_gap;
 800              		.loc 2 359 19 view .LVU251
 801 0190 13F0020F 		tst	r3, #2
 802 0194 05D0     		beq	.L43
 359:Middlewares/lvgl/src/extra/layouts/flex/lv_flex.c ****                 t->track_fix_main_size += item_size + item_gap;
 803              		.loc 2 359 32 discriminator 1 view .LVU252
 804 0196 B5F90430 		ldrsh	r3, [r5, #4]
 359:Middlewares/lvgl/src/extra/layouts/flex/lv_flex.c ****                 t->track_fix_main_size += item_size + item_gap;
 805              		.loc 2 359 54 discriminator 1 view .LVU253
 806 019a 0344     		add	r3, r3, r0
 359:Middlewares/lvgl/src/extra/layouts/flex/lv_flex.c ****                 t->track_fix_main_size += item_size + item_gap;
 807              		.loc 2 359 28 discriminator 1 view .LVU254
 808 019c 039A     		ldr	r2, [sp, #12]
 809 019e 9342     		cmp	r3, r2
 810 01a0 34DC     		bgt	.L32
 811              	.L43:
 360:Middlewares/lvgl/src/extra/layouts/flex/lv_flex.c ****             }
 812              		.loc 2 360 17 is_stmt 1 view .LVU255
 360:Middlewares/lvgl/src/extra/layouts/flex/lv_flex.c ****             }
 813              		.loc 2 360 53 is_stmt 0 view .LVU256
 814 01a2 5844     		add	r0, r0, fp
 815              	.LVL80:
 360:Middlewares/lvgl/src/extra/layouts/flex/lv_flex.c ****             }
 816              		.loc 2 360 40 view .LVU257
 817 01a4 AB88     		ldrh	r3, [r5, #4]
 818 01a6 13FA80F0 		uxtah	r0, r3, r0
 819 01aa A880     		strh	r0, [r5, #4]	@ movhi
 820              	.L35:
 360:Middlewares/lvgl/src/extra/layouts/flex/lv_flex.c ****             }
 821              		.loc 2 360 40 view .LVU258
 822              	.LBE80:
 364:Middlewares/lvgl/src/extra/layouts/flex/lv_flex.c ****             t->item_cnt++;
 823              		.loc 2 364 13 is_stmt 1 view .LVU259
 364:Middlewares/lvgl/src/extra/layouts/flex/lv_flex.c ****             t->item_cnt++;
 824              		.loc 2 364 35 is_stmt 0 view .LVU260
 825 01ac 2046     		mov	r0, r4
ARM GAS  /tmp/ccjZBdV3.s 			page 34


 826 01ae D047     		blx	r10
 827              	.LVL81:
 828 01b0 B5F90030 		ldrsh	r3, [r5]
 364:Middlewares/lvgl/src/extra/layouts/flex/lv_flex.c ****             t->item_cnt++;
 829              		.loc 2 364 33 view .LVU261
 830 01b4 9842     		cmp	r0, r3
 831 01b6 02DD     		ble	.L44
 364:Middlewares/lvgl/src/extra/layouts/flex/lv_flex.c ****             t->item_cnt++;
 832              		.loc 2 364 35 discriminator 1 view .LVU262
 833 01b8 2046     		mov	r0, r4
 834 01ba D047     		blx	r10
 835              	.LVL82:
 836 01bc 0346     		mov	r3, r0
 837              	.L44:
 364:Middlewares/lvgl/src/extra/layouts/flex/lv_flex.c ****             t->item_cnt++;
 838              		.loc 2 364 33 discriminator 4 view .LVU263
 839 01be 2B80     		strh	r3, [r5]	@ movhi
 365:Middlewares/lvgl/src/extra/layouts/flex/lv_flex.c ****         }
 840              		.loc 2 365 13 is_stmt 1 discriminator 4 view .LVU264
 365:Middlewares/lvgl/src/extra/layouts/flex/lv_flex.c ****         }
 841              		.loc 2 365 14 is_stmt 0 discriminator 4 view .LVU265
 842 01c0 AB68     		ldr	r3, [r5, #8]
 365:Middlewares/lvgl/src/extra/layouts/flex/lv_flex.c ****         }
 843              		.loc 2 365 24 discriminator 4 view .LVU266
 844 01c2 0133     		adds	r3, r3, #1
 845 01c4 AB60     		str	r3, [r5, #8]
 846 01c6 1AE0     		b	.L33
 847              	.L52:
 365:Middlewares/lvgl/src/extra/layouts/flex/lv_flex.c ****         }
 848              		.loc 2 365 24 discriminator 4 view .LVU267
 849              	.LBE68:
 368:Middlewares/lvgl/src/extra/layouts/flex/lv_flex.c ****         if(item_id < 0) break;
 850              		.loc 2 368 32 view .LVU268
 851 01c8 0121     		movs	r1, #1
 852              	.L45:
 368:Middlewares/lvgl/src/extra/layouts/flex/lv_flex.c ****         if(item_id < 0) break;
 853              		.loc 2 368 17 discriminator 4 view .LVU269
 854 01ca 059B     		ldr	r3, [sp, #20]
 855 01cc 1944     		add	r1, r1, r3
 856 01ce 0591     		str	r1, [sp, #20]
 369:Middlewares/lvgl/src/extra/layouts/flex/lv_flex.c ****         item = lv_obj_get_child(cont, item_id);
 857              		.loc 2 369 9 is_stmt 1 discriminator 4 view .LVU270
 369:Middlewares/lvgl/src/extra/layouts/flex/lv_flex.c ****         item = lv_obj_get_child(cont, item_id);
 858              		.loc 2 369 11 is_stmt 0 discriminator 4 view .LVU271
 859 01d0 0029     		cmp	r1, #0
 860 01d2 1BDB     		blt	.L32
 370:Middlewares/lvgl/src/extra/layouts/flex/lv_flex.c ****     }
 861              		.loc 2 370 9 is_stmt 1 view .LVU272
 370:Middlewares/lvgl/src/extra/layouts/flex/lv_flex.c ****     }
 862              		.loc 2 370 16 is_stmt 0 view .LVU273
 863 01d4 4846     		mov	r0, r9
 864 01d6 FFF7FEFF 		bl	lv_obj_get_child
 865              	.LVL83:
 866 01da 0446     		mov	r4, r0
 867              	.LVL84:
 868              	.L30:
 332:Middlewares/lvgl/src/extra/layouts/flex/lv_flex.c ****         if(item_id != item_start_id && lv_obj_has_flag(item, LV_OBJ_FLAG_FLEX_IN_NEW_TRACK)) break;
ARM GAS  /tmp/ccjZBdV3.s 			page 35


 869              		.loc 2 332 10 is_stmt 1 view .LVU274
 870 01dc B4B1     		cbz	r4, .L32
 333:Middlewares/lvgl/src/extra/layouts/flex/lv_flex.c **** 
 871              		.loc 2 333 9 view .LVU275
 333:Middlewares/lvgl/src/extra/layouts/flex/lv_flex.c **** 
 872              		.loc 2 333 20 is_stmt 0 view .LVU276
 873 01de 059B     		ldr	r3, [sp, #20]
 333:Middlewares/lvgl/src/extra/layouts/flex/lv_flex.c **** 
 874              		.loc 2 333 11 view .LVU277
 875 01e0 4345     		cmp	r3, r8
 876 01e2 05D0     		beq	.L31
 333:Middlewares/lvgl/src/extra/layouts/flex/lv_flex.c **** 
 877              		.loc 2 333 40 discriminator 1 view .LVU278
 878 01e4 4FF40001 		mov	r1, #8388608
 879 01e8 2046     		mov	r0, r4
 333:Middlewares/lvgl/src/extra/layouts/flex/lv_flex.c **** 
 880              		.loc 2 333 40 discriminator 1 view .LVU279
 881 01ea FFF7FEFF 		bl	lv_obj_has_flag
 882              	.LVL85:
 333:Middlewares/lvgl/src/extra/layouts/flex/lv_flex.c **** 
 883              		.loc 2 333 37 discriminator 1 view .LVU280
 884 01ee 68B9     		cbnz	r0, .L32
 885              	.L31:
 335:Middlewares/lvgl/src/extra/layouts/flex/lv_flex.c ****             uint8_t grow_value = lv_obj_get_style_flex_grow(item, LV_PART_MAIN);
 886              		.loc 2 335 9 is_stmt 1 view .LVU281
 335:Middlewares/lvgl/src/extra/layouts/flex/lv_flex.c ****             uint8_t grow_value = lv_obj_get_style_flex_grow(item, LV_PART_MAIN);
 887              		.loc 2 335 13 is_stmt 0 view .LVU282
 888 01f0 2249     		ldr	r1, .L56+12
 889 01f2 2046     		mov	r0, r4
 890 01f4 FFF7FEFF 		bl	lv_obj_has_flag_any
 891              	.LVL86:
 335:Middlewares/lvgl/src/extra/layouts/flex/lv_flex.c ****             uint8_t grow_value = lv_obj_get_style_flex_grow(item, LV_PART_MAIN);
 892              		.loc 2 335 11 view .LVU283
 893 01f8 0028     		cmp	r0, #0
 894 01fa 3FF44AAF 		beq	.L54
 895              	.L33:
 368:Middlewares/lvgl/src/extra/layouts/flex/lv_flex.c ****         if(item_id < 0) break;
 896              		.loc 2 368 9 is_stmt 1 view .LVU284
 368:Middlewares/lvgl/src/extra/layouts/flex/lv_flex.c ****         if(item_id < 0) break;
 897              		.loc 2 368 27 is_stmt 0 view .LVU285
 898 01fe F378     		ldrb	r3, [r6, #3]	@ zero_extendqisi2
 368:Middlewares/lvgl/src/extra/layouts/flex/lv_flex.c ****         if(item_id < 0) break;
 899              		.loc 2 368 32 view .LVU286
 900 0200 13F0040F 		tst	r3, #4
 901 0204 E0D0     		beq	.L52
 902 0206 4FF0FF31 		mov	r1, #-1
 903 020a DEE7     		b	.L45
 904              	.L32:
 373:Middlewares/lvgl/src/extra/layouts/flex/lv_flex.c **** 
 905              		.loc 2 373 5 is_stmt 1 view .LVU287
 373:Middlewares/lvgl/src/extra/layouts/flex/lv_flex.c **** 
 906              		.loc 2 373 9 is_stmt 0 view .LVU288
 907 020c B5F90430 		ldrsh	r3, [r5, #4]
 373:Middlewares/lvgl/src/extra/layouts/flex/lv_flex.c **** 
 908              		.loc 2 373 7 view .LVU289
 909 0210 002B     		cmp	r3, #0
 910 0212 02DD     		ble	.L47
ARM GAS  /tmp/ccjZBdV3.s 			page 36


 373:Middlewares/lvgl/src/extra/layouts/flex/lv_flex.c **** 
 911              		.loc 2 373 36 is_stmt 1 discriminator 1 view .LVU290
 373:Middlewares/lvgl/src/extra/layouts/flex/lv_flex.c **** 
 912              		.loc 2 373 59 is_stmt 0 discriminator 1 view .LVU291
 913 0214 A3EB0B03 		sub	r3, r3, fp
 914 0218 AB80     		strh	r3, [r5, #4]	@ movhi
 915              	.L47:
 376:Middlewares/lvgl/src/extra/layouts/flex/lv_flex.c **** 
 916              		.loc 2 376 5 is_stmt 1 view .LVU292
 376:Middlewares/lvgl/src/extra/layouts/flex/lv_flex.c **** 
 917              		.loc 2 376 27 is_stmt 0 view .LVU293
 918 021a 2B69     		ldr	r3, [r5, #16]
 376:Middlewares/lvgl/src/extra/layouts/flex/lv_flex.c **** 
 919              		.loc 2 376 24 view .LVU294
 920 021c 13B9     		cbnz	r3, .L48
 376:Middlewares/lvgl/src/extra/layouts/flex/lv_flex.c **** 
 921              		.loc 2 376 24 discriminator 1 view .LVU295
 922 021e B5F90430 		ldrsh	r3, [r5, #4]
 923 0222 0393     		str	r3, [sp, #12]
 924              	.L48:
 376:Middlewares/lvgl/src/extra/layouts/flex/lv_flex.c **** 
 925              		.loc 2 376 24 discriminator 4 view .LVU296
 926 0224 039B     		ldr	r3, [sp, #12]
 927 0226 6B80     		strh	r3, [r5, #2]	@ movhi
 379:Middlewares/lvgl/src/extra/layouts/flex/lv_flex.c ****         item = cont->spec_attr->children[item_id];
 928              		.loc 2 379 5 is_stmt 1 discriminator 4 view .LVU297
 379:Middlewares/lvgl/src/extra/layouts/flex/lv_flex.c ****         item = cont->spec_attr->children[item_id];
 929              		.loc 2 379 24 is_stmt 0 discriminator 4 view .LVU298
 930 0228 059B     		ldr	r3, [sp, #20]
 379:Middlewares/lvgl/src/extra/layouts/flex/lv_flex.c ****         item = cont->spec_attr->children[item_id];
 931              		.loc 2 379 13 discriminator 4 view .LVU299
 932 022a 003C     		subs	r4, r4, #0
 379:Middlewares/lvgl/src/extra/layouts/flex/lv_flex.c ****         item = cont->spec_attr->children[item_id];
 933              		.loc 2 379 13 discriminator 4 view .LVU300
 934 022c 18BF     		it	ne
 935 022e 0124     		movne	r4, #1
 936              	.LVL87:
 379:Middlewares/lvgl/src/extra/layouts/flex/lv_flex.c ****         item = cont->spec_attr->children[item_id];
 937              		.loc 2 379 13 discriminator 4 view .LVU301
 938 0230 4345     		cmp	r3, r8
 939 0232 18BF     		it	ne
 940 0234 0024     		movne	r4, #0
 379:Middlewares/lvgl/src/extra/layouts/flex/lv_flex.c ****         item = cont->spec_attr->children[item_id];
 941              		.loc 2 379 7 discriminator 4 view .LVU302
 942 0236 1CB9     		cbnz	r4, .L55
 943              	.L49:
 389:Middlewares/lvgl/src/extra/layouts/flex/lv_flex.c **** }
 944              		.loc 2 389 5 is_stmt 1 view .LVU303
 390:Middlewares/lvgl/src/extra/layouts/flex/lv_flex.c **** 
 945              		.loc 2 390 1 is_stmt 0 view .LVU304
 946 0238 0598     		ldr	r0, [sp, #20]
 947 023a 07B0     		add	sp, sp, #28
 948              	.LCFI5:
 949              		.cfi_remember_state
 950              		.cfi_def_cfa_offset 36
 951              		@ sp needed
 952 023c BDE8F08F 		pop	{r4, r5, r6, r7, r8, r9, r10, fp, pc}
ARM GAS  /tmp/ccjZBdV3.s 			page 37


 953              	.LVL88:
 954              	.L55:
 955              	.LCFI6:
 956              		.cfi_restore_state
 380:Middlewares/lvgl/src/extra/layouts/flex/lv_flex.c ****         get_next_item(cont, f->rev, &item_id);
 957              		.loc 2 380 9 is_stmt 1 view .LVU305
 380:Middlewares/lvgl/src/extra/layouts/flex/lv_flex.c ****         get_next_item(cont, f->rev, &item_id);
 958              		.loc 2 380 20 is_stmt 0 view .LVU306
 959 0240 D9F80820 		ldr	r2, [r9, #8]
 380:Middlewares/lvgl/src/extra/layouts/flex/lv_flex.c ****         get_next_item(cont, f->rev, &item_id);
 960              		.loc 2 380 31 view .LVU307
 961 0244 1268     		ldr	r2, [r2]
 380:Middlewares/lvgl/src/extra/layouts/flex/lv_flex.c ****         get_next_item(cont, f->rev, &item_id);
 962              		.loc 2 380 14 view .LVU308
 963 0246 52F82340 		ldr	r4, [r2, r3, lsl #2]
 964              	.LVL89:
 381:Middlewares/lvgl/src/extra/layouts/flex/lv_flex.c ****         if(item) {
 965              		.loc 2 381 9 is_stmt 1 view .LVU309
 381:Middlewares/lvgl/src/extra/layouts/flex/lv_flex.c ****         if(item) {
 966              		.loc 2 381 30 is_stmt 0 view .LVU310
 967 024a F178     		ldrb	r1, [r6, #3]	@ zero_extendqisi2
 381:Middlewares/lvgl/src/extra/layouts/flex/lv_flex.c ****         if(item) {
 968              		.loc 2 381 9 view .LVU311
 969 024c 05AA     		add	r2, sp, #20
 970 024e C1F38001 		ubfx	r1, r1, #2, #1
 971 0252 4846     		mov	r0, r9
 972 0254 FFF7FEFF 		bl	get_next_item
 973              	.LVL90:
 382:Middlewares/lvgl/src/extra/layouts/flex/lv_flex.c ****             t->track_cross_size = get_cross_size(item);
 974              		.loc 2 382 9 is_stmt 1 view .LVU312
 382:Middlewares/lvgl/src/extra/layouts/flex/lv_flex.c ****             t->track_cross_size = get_cross_size(item);
 975              		.loc 2 382 11 is_stmt 0 view .LVU313
 976 0258 002C     		cmp	r4, #0
 977 025a EDD0     		beq	.L49
 383:Middlewares/lvgl/src/extra/layouts/flex/lv_flex.c ****             t->track_main_size = get_main_size(item);
 978              		.loc 2 383 13 is_stmt 1 view .LVU314
 383:Middlewares/lvgl/src/extra/layouts/flex/lv_flex.c ****             t->track_main_size = get_main_size(item);
 979              		.loc 2 383 35 is_stmt 0 view .LVU315
 980 025c 2046     		mov	r0, r4
 981 025e D047     		blx	r10
 982              	.LVL91:
 383:Middlewares/lvgl/src/extra/layouts/flex/lv_flex.c ****             t->track_main_size = get_main_size(item);
 983              		.loc 2 383 33 view .LVU316
 984 0260 2880     		strh	r0, [r5]	@ movhi
 384:Middlewares/lvgl/src/extra/layouts/flex/lv_flex.c ****             t->item_cnt = 1;
 985              		.loc 2 384 13 is_stmt 1 view .LVU317
 384:Middlewares/lvgl/src/extra/layouts/flex/lv_flex.c ****             t->item_cnt = 1;
 986              		.loc 2 384 34 is_stmt 0 view .LVU318
 987 0262 2046     		mov	r0, r4
 988 0264 019B     		ldr	r3, [sp, #4]
 989 0266 9847     		blx	r3
 990              	.LVL92:
 384:Middlewares/lvgl/src/extra/layouts/flex/lv_flex.c ****             t->item_cnt = 1;
 991              		.loc 2 384 32 view .LVU319
 992 0268 6880     		strh	r0, [r5, #2]	@ movhi
 385:Middlewares/lvgl/src/extra/layouts/flex/lv_flex.c ****         }
 993              		.loc 2 385 13 is_stmt 1 view .LVU320
ARM GAS  /tmp/ccjZBdV3.s 			page 38


 385:Middlewares/lvgl/src/extra/layouts/flex/lv_flex.c ****         }
 994              		.loc 2 385 25 is_stmt 0 view .LVU321
 995 026a 0123     		movs	r3, #1
 996 026c AB60     		str	r3, [r5, #8]
 997 026e E3E7     		b	.L49
 998              	.L57:
 999              		.align	2
 1000              	.L56:
 1001 0270 00000000 		.word	lv_obj_get_width
 1002 0274 00000000 		.word	lv_obj_get_height
 1003 0278 00000000 		.word	.LANCHOR0
 1004 027c 01800100 		.word	98305
 1005              		.cfi_endproc
 1006              	.LFE178:
 1008              		.section	.text.children_repos,"ax",%progbits
 1009              		.align	1
 1010              		.syntax unified
 1011              		.thumb
 1012              		.thumb_func
 1013              		.fpu fpv5-d16
 1015              	children_repos:
 1016              	.LVL93:
 1017              	.LFB179:
 396:Middlewares/lvgl/src/extra/layouts/flex/lv_flex.c ****     void (*area_set_main_size)(lv_area_t *, lv_coord_t) = (f->row ? lv_area_set_width : lv_area_set
 1018              		.loc 2 396 1 is_stmt 1 view -0
 1019              		.cfi_startproc
 1020              		@ args = 20, pretend = 0, frame = 64
 1021              		@ frame_needed = 0, uses_anonymous_args = 0
 396:Middlewares/lvgl/src/extra/layouts/flex/lv_flex.c ****     void (*area_set_main_size)(lv_area_t *, lv_coord_t) = (f->row ? lv_area_set_width : lv_area_set
 1022              		.loc 2 396 1 is_stmt 0 view .LVU323
 1023 0000 2DE9F04F 		push	{r4, r5, r6, r7, r8, r9, r10, fp, lr}
 1024              	.LCFI7:
 1025              		.cfi_def_cfa_offset 36
 1026              		.cfi_offset 4, -36
 1027              		.cfi_offset 5, -32
 1028              		.cfi_offset 6, -28
 1029              		.cfi_offset 7, -24
 1030              		.cfi_offset 8, -20
 1031              		.cfi_offset 9, -16
 1032              		.cfi_offset 10, -12
 1033              		.cfi_offset 11, -8
 1034              		.cfi_offset 14, -4
 1035 0004 93B0     		sub	sp, sp, #76
 1036              	.LCFI8:
 1037              		.cfi_def_cfa_offset 112
 1038 0006 0490     		str	r0, [sp, #16]
 1039 0008 8946     		mov	r9, r1
 1040 000a 0D92     		str	r2, [sp, #52]
 1041 000c 0593     		str	r3, [sp, #20]
 1042 000e BDF97030 		ldrsh	r3, [sp, #112]
 1043              	.LVL94:
 396:Middlewares/lvgl/src/extra/layouts/flex/lv_flex.c ****     void (*area_set_main_size)(lv_area_t *, lv_coord_t) = (f->row ? lv_area_set_width : lv_area_set
 1044              		.loc 2 396 1 view .LVU324
 1045 0012 0793     		str	r3, [sp, #28]
 1046 0014 BDF97430 		ldrsh	r3, [sp, #116]
 1047 0018 0893     		str	r3, [sp, #32]
 1048 001a BDF97C30 		ldrsh	r3, [sp, #124]
ARM GAS  /tmp/ccjZBdV3.s 			page 39


 1049 001e 0993     		str	r3, [sp, #36]
 1050 0020 209C     		ldr	r4, [sp, #128]
 397:Middlewares/lvgl/src/extra/layouts/flex/lv_flex.c ****     lv_coord_t (*area_get_main_size)(const lv_area_t *) = (f->row ? lv_area_get_width : lv_area_get
 1051              		.loc 2 397 5 is_stmt 1 view .LVU325
 397:Middlewares/lvgl/src/extra/layouts/flex/lv_flex.c ****     lv_coord_t (*area_get_main_size)(const lv_area_t *) = (f->row ? lv_area_get_width : lv_area_get
 1052              		.loc 2 397 67 is_stmt 0 view .LVU326
 1053 0022 CB78     		ldrb	r3, [r1, #3]	@ zero_extendqisi2
 397:Middlewares/lvgl/src/extra/layouts/flex/lv_flex.c ****     lv_coord_t (*area_get_main_size)(const lv_area_t *) = (f->row ? lv_area_get_width : lv_area_get
 1054              		.loc 2 397 87 view .LVU327
 1055 0024 13F00103 		ands	r3, r3, #1
 1056 0028 0AD0     		beq	.L103
 1057 002a 824A     		ldr	r2, .L125
 1058              	.LVL95:
 397:Middlewares/lvgl/src/extra/layouts/flex/lv_flex.c ****     lv_coord_t (*area_get_main_size)(const lv_area_t *) = (f->row ? lv_area_get_width : lv_area_get
 1059              		.loc 2 397 87 view .LVU328
 1060 002c 0C92     		str	r2, [sp, #48]
 1061              	.L59:
 1062              	.LVL96:
 398:Middlewares/lvgl/src/extra/layouts/flex/lv_flex.c ****     lv_coord_t (*area_get_cross_size)(const lv_area_t *) = (!f->row ? lv_area_get_width : lv_area_g
 1063              		.loc 2 398 5 is_stmt 1 discriminator 4 view .LVU329
 398:Middlewares/lvgl/src/extra/layouts/flex/lv_flex.c ****     lv_coord_t (*area_get_cross_size)(const lv_area_t *) = (!f->row ? lv_area_get_width : lv_area_g
 1064              		.loc 2 398 87 is_stmt 0 discriminator 4 view .LVU330
 1065 002e 53B1     		cbz	r3, .L104
 398:Middlewares/lvgl/src/extra/layouts/flex/lv_flex.c ****     lv_coord_t (*area_get_cross_size)(const lv_area_t *) = (!f->row ? lv_area_get_width : lv_area_g
 1066              		.loc 2 398 87 view .LVU331
 1067 0030 814A     		ldr	r2, .L125+4
 1068 0032 0692     		str	r2, [sp, #24]
 1069              	.L60:
 1070              	.LVL97:
 399:Middlewares/lvgl/src/extra/layouts/flex/lv_flex.c **** 
 1071              		.loc 2 399 5 is_stmt 1 discriminator 4 view .LVU332
 399:Middlewares/lvgl/src/extra/layouts/flex/lv_flex.c **** 
 1072              		.loc 2 399 89 is_stmt 0 discriminator 4 view .LVU333
 1073 0034 53B9     		cbnz	r3, .L105
 399:Middlewares/lvgl/src/extra/layouts/flex/lv_flex.c **** 
 1074              		.loc 2 399 89 view .LVU334
 1075 0036 804B     		ldr	r3, .L125+4
 1076 0038 0B93     		str	r3, [sp, #44]
 1077              	.L61:
 1078              	.LVL98:
 402:Middlewares/lvgl/src/extra/layouts/flex/lv_flex.c ****     bool grow_reiterate  = true;
 1079              		.loc 2 402 5 is_stmt 1 discriminator 4 view .LVU335
 403:Middlewares/lvgl/src/extra/layouts/flex/lv_flex.c ****     while(grow_reiterate) {
 1080              		.loc 2 403 5 discriminator 4 view .LVU336
 404:Middlewares/lvgl/src/extra/layouts/flex/lv_flex.c ****         grow_reiterate = false;
 1081              		.loc 2 404 5 discriminator 4 view .LVU337
 403:Middlewares/lvgl/src/extra/layouts/flex/lv_flex.c ****     while(grow_reiterate) {
 1082              		.loc 2 403 10 is_stmt 0 discriminator 4 view .LVU338
 1083 003a 4FF0010C 		mov	ip, #1
 404:Middlewares/lvgl/src/extra/layouts/flex/lv_flex.c ****         grow_reiterate = false;
 1084              		.loc 2 404 10 discriminator 4 view .LVU339
 1085 003e 52E0     		b	.L62
 1086              	.LVL99:
 1087              	.L103:
 397:Middlewares/lvgl/src/extra/layouts/flex/lv_flex.c ****     lv_coord_t (*area_get_main_size)(const lv_area_t *) = (f->row ? lv_area_get_width : lv_area_get
 1088              		.loc 2 397 87 view .LVU340
 1089 0040 7E4A     		ldr	r2, .L125+8
ARM GAS  /tmp/ccjZBdV3.s 			page 40


 1090              	.LVL100:
 397:Middlewares/lvgl/src/extra/layouts/flex/lv_flex.c ****     lv_coord_t (*area_get_main_size)(const lv_area_t *) = (f->row ? lv_area_get_width : lv_area_get
 1091              		.loc 2 397 87 view .LVU341
 1092 0042 0C92     		str	r2, [sp, #48]
 1093 0044 F3E7     		b	.L59
 1094              	.LVL101:
 1095              	.L104:
 398:Middlewares/lvgl/src/extra/layouts/flex/lv_flex.c ****     lv_coord_t (*area_get_cross_size)(const lv_area_t *) = (!f->row ? lv_area_get_width : lv_area_g
 1096              		.loc 2 398 87 view .LVU342
 1097 0046 7E4A     		ldr	r2, .L125+12
 1098 0048 0692     		str	r2, [sp, #24]
 1099 004a F3E7     		b	.L60
 1100              	.LVL102:
 1101              	.L105:
 399:Middlewares/lvgl/src/extra/layouts/flex/lv_flex.c **** 
 1102              		.loc 2 399 89 view .LVU343
 1103 004c 7C4B     		ldr	r3, .L125+12
 1104 004e 0B93     		str	r3, [sp, #44]
 1105 0050 F3E7     		b	.L61
 1106              	.LVL103:
 1107              	.L64:
 1108              	.LBB81:
 412:Middlewares/lvgl/src/extra/layouts/flex/lv_flex.c ****             }
 1109              		.loc 2 412 17 is_stmt 1 view .LVU344
 412:Middlewares/lvgl/src/extra/layouts/flex/lv_flex.c ****             }
 1110              		.loc 2 412 48 is_stmt 0 view .LVU345
 1111 0052 0089     		ldrh	r0, [r0, #8]
 412:Middlewares/lvgl/src/extra/layouts/flex/lv_flex.c ****             }
 1112              		.loc 2 412 31 view .LVU346
 1113 0054 121A     		subs	r2, r2, r0
 1114              	.LVL104:
 412:Middlewares/lvgl/src/extra/layouts/flex/lv_flex.c ****             }
 1115              		.loc 2 412 31 view .LVU347
 1116 0056 12B2     		sxth	r2, r2
 1117              	.LVL105:
 1118              	.L65:
 408:Middlewares/lvgl/src/extra/layouts/flex/lv_flex.c ****             if(t->grow_dsc[i].clamped == 0) {
 1119              		.loc 2 408 42 is_stmt 1 discriminator 2 view .LVU348
 408:Middlewares/lvgl/src/extra/layouts/flex/lv_flex.c ****             if(t->grow_dsc[i].clamped == 0) {
 1120              		.loc 2 408 43 is_stmt 0 discriminator 2 view .LVU349
 1121 0058 0133     		adds	r3, r3, #1
 1122              	.LVL106:
 1123              	.L63:
 408:Middlewares/lvgl/src/extra/layouts/flex/lv_flex.c ****             if(t->grow_dsc[i].clamped == 0) {
 1124              		.loc 2 408 20 is_stmt 1 discriminator 1 view .LVU350
 408:Middlewares/lvgl/src/extra/layouts/flex/lv_flex.c ****             if(t->grow_dsc[i].clamped == 0) {
 1125              		.loc 2 408 25 is_stmt 0 discriminator 1 view .LVU351
 1126 005a 2069     		ldr	r0, [r4, #16]
 408:Middlewares/lvgl/src/extra/layouts/flex/lv_flex.c ****             if(t->grow_dsc[i].clamped == 0) {
 1127              		.loc 2 408 9 discriminator 1 view .LVU352
 1128 005c 9842     		cmp	r0, r3
 1129 005e 0CD9     		bls	.L110
 409:Middlewares/lvgl/src/extra/layouts/flex/lv_flex.c ****                 grow_value_sum += t->grow_dsc[i].grow_value;
 1130              		.loc 2 409 13 is_stmt 1 view .LVU353
 409:Middlewares/lvgl/src/extra/layouts/flex/lv_flex.c ****                 grow_value_sum += t->grow_dsc[i].grow_value;
 1131              		.loc 2 409 17 is_stmt 0 view .LVU354
 1132 0060 E068     		ldr	r0, [r4, #12]
ARM GAS  /tmp/ccjZBdV3.s 			page 41


 409:Middlewares/lvgl/src/extra/layouts/flex/lv_flex.c ****                 grow_value_sum += t->grow_dsc[i].grow_value;
 1133              		.loc 2 409 27 view .LVU355
 1134 0062 03EB8305 		add	r5, r3, r3, lsl #2
 1135 0066 00EB8500 		add	r0, r0, r5, lsl #2
 409:Middlewares/lvgl/src/extra/layouts/flex/lv_flex.c ****                 grow_value_sum += t->grow_dsc[i].grow_value;
 1136              		.loc 2 409 39 view .LVU356
 1137 006a 057C     		ldrb	r5, [r0, #16]	@ zero_extendqisi2
 409:Middlewares/lvgl/src/extra/layouts/flex/lv_flex.c ****                 grow_value_sum += t->grow_dsc[i].grow_value;
 1138              		.loc 2 409 15 view .LVU357
 1139 006c 15F0010F 		tst	r5, #1
 1140 0070 EFD1     		bne	.L64
 410:Middlewares/lvgl/src/extra/layouts/flex/lv_flex.c ****             } else {
 1141              		.loc 2 410 17 is_stmt 1 view .LVU358
 410:Middlewares/lvgl/src/extra/layouts/flex/lv_flex.c ****             } else {
 1142              		.loc 2 410 49 is_stmt 0 view .LVU359
 1143 0072 C068     		ldr	r0, [r0, #12]
 410:Middlewares/lvgl/src/extra/layouts/flex/lv_flex.c ****             } else {
 1144              		.loc 2 410 32 view .LVU360
 1145 0074 0144     		add	r1, r1, r0
 1146              	.LVL107:
 410:Middlewares/lvgl/src/extra/layouts/flex/lv_flex.c ****             } else {
 1147              		.loc 2 410 32 view .LVU361
 1148 0076 09B2     		sxth	r1, r1
 1149              	.LVL108:
 410:Middlewares/lvgl/src/extra/layouts/flex/lv_flex.c ****             } else {
 1150              		.loc 2 410 32 view .LVU362
 1151 0078 EEE7     		b	.L65
 1152              	.L110:
 405:Middlewares/lvgl/src/extra/layouts/flex/lv_flex.c ****         lv_coord_t grow_value_sum = 0;
 1153              		.loc 2 405 24 view .LVU363
 1154 007a 4FF0000E 		mov	lr, #0
 417:Middlewares/lvgl/src/extra/layouts/flex/lv_flex.c ****             if(t->grow_dsc[i].clamped == 0) {
 1155              		.loc 2 417 15 view .LVU364
 1156 007e 7046     		mov	r0, lr
 1157 0080 10E0     		b	.L67
 1158              	.LVL109:
 1159              	.L112:
 1160              	.LBB82:
 424:Middlewares/lvgl/src/extra/layouts/flex/lv_flex.c ****                     grow_reiterate = true;
 1161              		.loc 2 424 21 is_stmt 1 view .LVU365
 424:Middlewares/lvgl/src/extra/layouts/flex/lv_flex.c ****                     grow_reiterate = true;
 1162              		.loc 2 424 44 is_stmt 0 view .LVU366
 1163 0082 1D7C     		ldrb	r5, [r3, #16]	@ zero_extendqisi2
 1164              	.LVL110:
 424:Middlewares/lvgl/src/extra/layouts/flex/lv_flex.c ****                     grow_reiterate = true;
 1165              		.loc 2 424 44 view .LVU367
 1166 0084 45F00105 		orr	r5, r5, #1
 1167 0088 1D74     		strb	r5, [r3, #16]
 1168              	.LVL111:
 425:Middlewares/lvgl/src/extra/layouts/flex/lv_flex.c ****                 }
 1169              		.loc 2 425 21 is_stmt 1 view .LVU368
 425:Middlewares/lvgl/src/extra/layouts/flex/lv_flex.c ****                 }
 1170              		.loc 2 425 36 is_stmt 0 view .LVU369
 1171 008a E646     		mov	lr, ip
 1172              	.LVL112:
 1173              	.L69:
 427:Middlewares/lvgl/src/extra/layouts/flex/lv_flex.c ****                 grow_value_sum -= t->grow_dsc[i].grow_value;
ARM GAS  /tmp/ccjZBdV3.s 			page 42


 1174              		.loc 2 427 17 is_stmt 1 view .LVU370
 427:Middlewares/lvgl/src/extra/layouts/flex/lv_flex.c ****                 grow_value_sum -= t->grow_dsc[i].grow_value;
 1175              		.loc 2 427 18 is_stmt 0 view .LVU371
 1176 008c E368     		ldr	r3, [r4, #12]
 427:Middlewares/lvgl/src/extra/layouts/flex/lv_flex.c ****                 grow_value_sum -= t->grow_dsc[i].grow_value;
 1177              		.loc 2 427 28 view .LVU372
 1178 008e 3344     		add	r3, r3, r6
 427:Middlewares/lvgl/src/extra/layouts/flex/lv_flex.c ****                 grow_value_sum -= t->grow_dsc[i].grow_value;
 1179              		.loc 2 427 43 view .LVU373
 1180 0090 1F81     		strh	r7, [r3, #8]	@ movhi
 428:Middlewares/lvgl/src/extra/layouts/flex/lv_flex.c ****                 grow_max_size  -= t->grow_dsc[i].final_size;
 1181              		.loc 2 428 17 is_stmt 1 view .LVU374
 428:Middlewares/lvgl/src/extra/layouts/flex/lv_flex.c ****                 grow_max_size  -= t->grow_dsc[i].final_size;
 1182              		.loc 2 428 36 is_stmt 0 view .LVU375
 1183 0092 E368     		ldr	r3, [r4, #12]
 428:Middlewares/lvgl/src/extra/layouts/flex/lv_flex.c ****                 grow_max_size  -= t->grow_dsc[i].final_size;
 1184              		.loc 2 428 46 view .LVU376
 1185 0094 3344     		add	r3, r3, r6
 428:Middlewares/lvgl/src/extra/layouts/flex/lv_flex.c ****                 grow_max_size  -= t->grow_dsc[i].final_size;
 1186              		.loc 2 428 49 view .LVU377
 1187 0096 DD68     		ldr	r5, [r3, #12]
 428:Middlewares/lvgl/src/extra/layouts/flex/lv_flex.c ****                 grow_max_size  -= t->grow_dsc[i].final_size;
 1188              		.loc 2 428 32 view .LVU378
 1189 0098 491B     		subs	r1, r1, r5
 1190              	.LVL113:
 428:Middlewares/lvgl/src/extra/layouts/flex/lv_flex.c ****                 grow_max_size  -= t->grow_dsc[i].final_size;
 1191              		.loc 2 428 32 view .LVU379
 1192 009a 09B2     		sxth	r1, r1
 1193              	.LVL114:
 429:Middlewares/lvgl/src/extra/layouts/flex/lv_flex.c ****             }
 1194              		.loc 2 429 17 is_stmt 1 view .LVU380
 429:Middlewares/lvgl/src/extra/layouts/flex/lv_flex.c ****             }
 1195              		.loc 2 429 49 is_stmt 0 view .LVU381
 1196 009c 1B89     		ldrh	r3, [r3, #8]
 429:Middlewares/lvgl/src/extra/layouts/flex/lv_flex.c ****             }
 1197              		.loc 2 429 32 view .LVU382
 1198 009e D21A     		subs	r2, r2, r3
 1199              	.LVL115:
 429:Middlewares/lvgl/src/extra/layouts/flex/lv_flex.c ****             }
 1200              		.loc 2 429 32 view .LVU383
 1201 00a0 12B2     		sxth	r2, r2
 1202              	.LVL116:
 1203              	.L68:
 429:Middlewares/lvgl/src/extra/layouts/flex/lv_flex.c ****             }
 1204              		.loc 2 429 32 view .LVU384
 1205              	.LBE82:
 417:Middlewares/lvgl/src/extra/layouts/flex/lv_flex.c ****             if(t->grow_dsc[i].clamped == 0) {
 1206              		.loc 2 417 42 is_stmt 1 discriminator 2 view .LVU385
 417:Middlewares/lvgl/src/extra/layouts/flex/lv_flex.c ****             if(t->grow_dsc[i].clamped == 0) {
 1207              		.loc 2 417 43 is_stmt 0 discriminator 2 view .LVU386
 1208 00a2 0130     		adds	r0, r0, #1
 1209              	.LVL117:
 1210              	.L67:
 417:Middlewares/lvgl/src/extra/layouts/flex/lv_flex.c ****             if(t->grow_dsc[i].clamped == 0) {
 1211              		.loc 2 417 20 is_stmt 1 discriminator 1 view .LVU387
 417:Middlewares/lvgl/src/extra/layouts/flex/lv_flex.c ****             if(t->grow_dsc[i].clamped == 0) {
 1212              		.loc 2 417 25 is_stmt 0 discriminator 1 view .LVU388
ARM GAS  /tmp/ccjZBdV3.s 			page 43


 1213 00a4 2369     		ldr	r3, [r4, #16]
 417:Middlewares/lvgl/src/extra/layouts/flex/lv_flex.c ****             if(t->grow_dsc[i].clamped == 0) {
 1214              		.loc 2 417 9 discriminator 1 view .LVU389
 1215 00a6 8342     		cmp	r3, r0
 1216 00a8 1CD9     		bls	.L111
 418:Middlewares/lvgl/src/extra/layouts/flex/lv_flex.c ****                 grow_unit = grow_max_size / grow_value_sum;
 1217              		.loc 2 418 13 is_stmt 1 view .LVU390
 418:Middlewares/lvgl/src/extra/layouts/flex/lv_flex.c ****                 grow_unit = grow_max_size / grow_value_sum;
 1218              		.loc 2 418 17 is_stmt 0 view .LVU391
 1219 00aa E368     		ldr	r3, [r4, #12]
 418:Middlewares/lvgl/src/extra/layouts/flex/lv_flex.c ****                 grow_unit = grow_max_size / grow_value_sum;
 1220              		.loc 2 418 27 view .LVU392
 1221 00ac 00EB8005 		add	r5, r0, r0, lsl #2
 1222 00b0 AE00     		lsls	r6, r5, #2
 1223 00b2 03EB8503 		add	r3, r3, r5, lsl #2
 418:Middlewares/lvgl/src/extra/layouts/flex/lv_flex.c ****                 grow_unit = grow_max_size / grow_value_sum;
 1224              		.loc 2 418 39 view .LVU393
 1225 00b6 1D7C     		ldrb	r5, [r3, #16]	@ zero_extendqisi2
 418:Middlewares/lvgl/src/extra/layouts/flex/lv_flex.c ****                 grow_unit = grow_max_size / grow_value_sum;
 1226              		.loc 2 418 15 view .LVU394
 1227 00b8 15F0010F 		tst	r5, #1
 1228 00bc F1D1     		bne	.L68
 1229              	.LBB83:
 419:Middlewares/lvgl/src/extra/layouts/flex/lv_flex.c ****                 lv_coord_t size = grow_unit * t->grow_dsc[i].grow_value;
 1230              		.loc 2 419 17 is_stmt 1 view .LVU395
 419:Middlewares/lvgl/src/extra/layouts/flex/lv_flex.c ****                 lv_coord_t size = grow_unit * t->grow_dsc[i].grow_value;
 1231              		.loc 2 419 43 is_stmt 0 view .LVU396
 1232 00be 92FBF1F5 		sdiv	r5, r2, r1
 420:Middlewares/lvgl/src/extra/layouts/flex/lv_flex.c ****                 lv_coord_t size_clamp = LV_CLAMP(t->grow_dsc[i].min_size, size, t->grow_dsc[i].max_
 1233              		.loc 2 420 17 is_stmt 1 view .LVU397
 420:Middlewares/lvgl/src/extra/layouts/flex/lv_flex.c ****                 lv_coord_t size_clamp = LV_CLAMP(t->grow_dsc[i].min_size, size, t->grow_dsc[i].max_
 1234              		.loc 2 420 61 is_stmt 0 view .LVU398
 1235 00c2 DF68     		ldr	r7, [r3, #12]
 420:Middlewares/lvgl/src/extra/layouts/flex/lv_flex.c ****                 lv_coord_t size_clamp = LV_CLAMP(t->grow_dsc[i].min_size, size, t->grow_dsc[i].max_
 1236              		.loc 2 420 28 view .LVU399
 1237 00c4 15FB07F5 		smulbb	r5, r5, r7
 1238 00c8 2DB2     		sxth	r5, r5
 1239              	.LVL118:
 421:Middlewares/lvgl/src/extra/layouts/flex/lv_flex.c **** 
 1240              		.loc 2 421 17 is_stmt 1 view .LVU400
 421:Middlewares/lvgl/src/extra/layouts/flex/lv_flex.c **** 
 1241              		.loc 2 421 41 is_stmt 0 view .LVU401
 1242 00ca B3F90670 		ldrsh	r7, [r3, #6]
 1243 00ce AF42     		cmp	r7, r5
 1244 00d0 A8BF     		it	ge
 1245 00d2 2F46     		movge	r7, r5
 1246 00d4 B3F90480 		ldrsh	r8, [r3, #4]
 421:Middlewares/lvgl/src/extra/layouts/flex/lv_flex.c **** 
 1247              		.loc 2 421 28 view .LVU402
 1248 00d8 4745     		cmp	r7, r8
 1249 00da B8BF     		it	lt
 1250 00dc 4746     		movlt	r7, r8
 1251              	.LVL119:
 423:Middlewares/lvgl/src/extra/layouts/flex/lv_flex.c ****                     t->grow_dsc[i].clamped = 1;
 1252              		.loc 2 423 17 is_stmt 1 view .LVU403
 423:Middlewares/lvgl/src/extra/layouts/flex/lv_flex.c ****                     t->grow_dsc[i].clamped = 1;
 1253              		.loc 2 423 19 is_stmt 0 view .LVU404
ARM GAS  /tmp/ccjZBdV3.s 			page 44


 1254 00de BD42     		cmp	r5, r7
 1255 00e0 CFD1     		bne	.L112
 1256 00e2 D3E7     		b	.L69
 1257              	.LVL120:
 1258              	.L111:
 423:Middlewares/lvgl/src/extra/layouts/flex/lv_flex.c ****                     t->grow_dsc[i].clamped = 1;
 1259              		.loc 2 423 19 view .LVU405
 1260              	.LBE83:
 1261 00e4 F446     		mov	ip, lr
 1262              	.LVL121:
 1263              	.L62:
 423:Middlewares/lvgl/src/extra/layouts/flex/lv_flex.c ****                     t->grow_dsc[i].clamped = 1;
 1264              		.loc 2 423 19 view .LVU406
 1265              	.LBE81:
 404:Middlewares/lvgl/src/extra/layouts/flex/lv_flex.c ****         grow_reiterate = false;
 1266              		.loc 2 404 10 is_stmt 1 view .LVU407
 1267 00e6 BCF1000F 		cmp	ip, #0
 1268 00ea 06D0     		beq	.L113
 1269              	.LBB84:
 405:Middlewares/lvgl/src/extra/layouts/flex/lv_flex.c ****         lv_coord_t grow_value_sum = 0;
 1270              		.loc 2 405 9 view .LVU408
 1271              	.LVL122:
 406:Middlewares/lvgl/src/extra/layouts/flex/lv_flex.c ****         lv_coord_t grow_max_size = t->track_main_size - t->track_fix_main_size;
 1272              		.loc 2 406 9 view .LVU409
 407:Middlewares/lvgl/src/extra/layouts/flex/lv_flex.c ****         for(i = 0; i < t->grow_item_cnt; i++) {
 1273              		.loc 2 407 9 view .LVU410
 407:Middlewares/lvgl/src/extra/layouts/flex/lv_flex.c ****         for(i = 0; i < t->grow_item_cnt; i++) {
 1274              		.loc 2 407 37 is_stmt 0 view .LVU411
 1275 00ec 6288     		ldrh	r2, [r4, #2]
 407:Middlewares/lvgl/src/extra/layouts/flex/lv_flex.c ****         for(i = 0; i < t->grow_item_cnt; i++) {
 1276              		.loc 2 407 58 view .LVU412
 1277 00ee A388     		ldrh	r3, [r4, #4]
 407:Middlewares/lvgl/src/extra/layouts/flex/lv_flex.c ****         for(i = 0; i < t->grow_item_cnt; i++) {
 1278              		.loc 2 407 55 view .LVU413
 1279 00f0 D21A     		subs	r2, r2, r3
 407:Middlewares/lvgl/src/extra/layouts/flex/lv_flex.c ****         for(i = 0; i < t->grow_item_cnt; i++) {
 1280              		.loc 2 407 20 view .LVU414
 1281 00f2 12B2     		sxth	r2, r2
 1282              	.LVL123:
 408:Middlewares/lvgl/src/extra/layouts/flex/lv_flex.c ****             if(t->grow_dsc[i].clamped == 0) {
 1283              		.loc 2 408 9 is_stmt 1 view .LVU415
 406:Middlewares/lvgl/src/extra/layouts/flex/lv_flex.c ****         lv_coord_t grow_max_size = t->track_main_size - t->track_fix_main_size;
 1284              		.loc 2 406 20 is_stmt 0 view .LVU416
 1285 00f4 0021     		movs	r1, #0
 408:Middlewares/lvgl/src/extra/layouts/flex/lv_flex.c ****             if(t->grow_dsc[i].clamped == 0) {
 1286              		.loc 2 408 15 view .LVU417
 1287 00f6 0B46     		mov	r3, r1
 408:Middlewares/lvgl/src/extra/layouts/flex/lv_flex.c ****             if(t->grow_dsc[i].clamped == 0) {
 1288              		.loc 2 408 9 view .LVU418
 1289 00f8 AFE7     		b	.L63
 1290              	.LVL124:
 1291              	.L113:
 408:Middlewares/lvgl/src/extra/layouts/flex/lv_flex.c ****             if(t->grow_dsc[i].clamped == 0) {
 1292              		.loc 2 408 9 view .LVU419
 1293              	.LBE84:
 435:Middlewares/lvgl/src/extra/layouts/flex/lv_flex.c **** 
 1294              		.loc 2 435 5 is_stmt 1 view .LVU420
ARM GAS  /tmp/ccjZBdV3.s 			page 45


 1295              	.LBB85:
 1296              	.LBI85:
  35:Middlewares/lvgl/src/extra/layouts/flex/../flex/../../../core/lv_obj_style_gen.h **** }
  36:Middlewares/lvgl/src/extra/layouts/flex/../flex/../../../core/lv_obj_style_gen.h **** 
  37:Middlewares/lvgl/src/extra/layouts/flex/../flex/../../../core/lv_obj_style_gen.h **** static inline lv_coord_t lv_obj_get_style_x(const struct _lv_obj_t * obj, uint32_t part)
  38:Middlewares/lvgl/src/extra/layouts/flex/../flex/../../../core/lv_obj_style_gen.h **** {
  39:Middlewares/lvgl/src/extra/layouts/flex/../flex/../../../core/lv_obj_style_gen.h ****     lv_style_value_t v = lv_obj_get_style_prop(obj, part, LV_STYLE_X);
  40:Middlewares/lvgl/src/extra/layouts/flex/../flex/../../../core/lv_obj_style_gen.h ****     return (lv_coord_t)v.num;
  41:Middlewares/lvgl/src/extra/layouts/flex/../flex/../../../core/lv_obj_style_gen.h **** }
  42:Middlewares/lvgl/src/extra/layouts/flex/../flex/../../../core/lv_obj_style_gen.h **** 
  43:Middlewares/lvgl/src/extra/layouts/flex/../flex/../../../core/lv_obj_style_gen.h **** static inline lv_coord_t lv_obj_get_style_y(const struct _lv_obj_t * obj, uint32_t part)
  44:Middlewares/lvgl/src/extra/layouts/flex/../flex/../../../core/lv_obj_style_gen.h **** {
  45:Middlewares/lvgl/src/extra/layouts/flex/../flex/../../../core/lv_obj_style_gen.h ****     lv_style_value_t v = lv_obj_get_style_prop(obj, part, LV_STYLE_Y);
  46:Middlewares/lvgl/src/extra/layouts/flex/../flex/../../../core/lv_obj_style_gen.h ****     return (lv_coord_t)v.num;
  47:Middlewares/lvgl/src/extra/layouts/flex/../flex/../../../core/lv_obj_style_gen.h **** }
  48:Middlewares/lvgl/src/extra/layouts/flex/../flex/../../../core/lv_obj_style_gen.h **** 
  49:Middlewares/lvgl/src/extra/layouts/flex/../flex/../../../core/lv_obj_style_gen.h **** static inline lv_align_t lv_obj_get_style_align(const struct _lv_obj_t * obj, uint32_t part)
  50:Middlewares/lvgl/src/extra/layouts/flex/../flex/../../../core/lv_obj_style_gen.h **** {
  51:Middlewares/lvgl/src/extra/layouts/flex/../flex/../../../core/lv_obj_style_gen.h ****     lv_style_value_t v = lv_obj_get_style_prop(obj, part, LV_STYLE_ALIGN);
  52:Middlewares/lvgl/src/extra/layouts/flex/../flex/../../../core/lv_obj_style_gen.h ****     return (lv_align_t)v.num;
  53:Middlewares/lvgl/src/extra/layouts/flex/../flex/../../../core/lv_obj_style_gen.h **** }
  54:Middlewares/lvgl/src/extra/layouts/flex/../flex/../../../core/lv_obj_style_gen.h **** 
  55:Middlewares/lvgl/src/extra/layouts/flex/../flex/../../../core/lv_obj_style_gen.h **** static inline lv_coord_t lv_obj_get_style_transform_width(const struct _lv_obj_t * obj, uint32_t pa
  56:Middlewares/lvgl/src/extra/layouts/flex/../flex/../../../core/lv_obj_style_gen.h **** {
  57:Middlewares/lvgl/src/extra/layouts/flex/../flex/../../../core/lv_obj_style_gen.h ****     lv_style_value_t v = lv_obj_get_style_prop(obj, part, LV_STYLE_TRANSFORM_WIDTH);
  58:Middlewares/lvgl/src/extra/layouts/flex/../flex/../../../core/lv_obj_style_gen.h ****     return (lv_coord_t)v.num;
  59:Middlewares/lvgl/src/extra/layouts/flex/../flex/../../../core/lv_obj_style_gen.h **** }
  60:Middlewares/lvgl/src/extra/layouts/flex/../flex/../../../core/lv_obj_style_gen.h **** 
  61:Middlewares/lvgl/src/extra/layouts/flex/../flex/../../../core/lv_obj_style_gen.h **** static inline lv_coord_t lv_obj_get_style_transform_height(const struct _lv_obj_t * obj, uint32_t p
  62:Middlewares/lvgl/src/extra/layouts/flex/../flex/../../../core/lv_obj_style_gen.h **** {
  63:Middlewares/lvgl/src/extra/layouts/flex/../flex/../../../core/lv_obj_style_gen.h ****     lv_style_value_t v = lv_obj_get_style_prop(obj, part, LV_STYLE_TRANSFORM_HEIGHT);
  64:Middlewares/lvgl/src/extra/layouts/flex/../flex/../../../core/lv_obj_style_gen.h ****     return (lv_coord_t)v.num;
  65:Middlewares/lvgl/src/extra/layouts/flex/../flex/../../../core/lv_obj_style_gen.h **** }
  66:Middlewares/lvgl/src/extra/layouts/flex/../flex/../../../core/lv_obj_style_gen.h **** 
  67:Middlewares/lvgl/src/extra/layouts/flex/../flex/../../../core/lv_obj_style_gen.h **** static inline lv_coord_t lv_obj_get_style_translate_x(const struct _lv_obj_t * obj, uint32_t part)
  68:Middlewares/lvgl/src/extra/layouts/flex/../flex/../../../core/lv_obj_style_gen.h **** {
  69:Middlewares/lvgl/src/extra/layouts/flex/../flex/../../../core/lv_obj_style_gen.h ****     lv_style_value_t v = lv_obj_get_style_prop(obj, part, LV_STYLE_TRANSLATE_X);
  70:Middlewares/lvgl/src/extra/layouts/flex/../flex/../../../core/lv_obj_style_gen.h ****     return (lv_coord_t)v.num;
  71:Middlewares/lvgl/src/extra/layouts/flex/../flex/../../../core/lv_obj_style_gen.h **** }
  72:Middlewares/lvgl/src/extra/layouts/flex/../flex/../../../core/lv_obj_style_gen.h **** 
  73:Middlewares/lvgl/src/extra/layouts/flex/../flex/../../../core/lv_obj_style_gen.h **** static inline lv_coord_t lv_obj_get_style_translate_y(const struct _lv_obj_t * obj, uint32_t part)
  74:Middlewares/lvgl/src/extra/layouts/flex/../flex/../../../core/lv_obj_style_gen.h **** {
  75:Middlewares/lvgl/src/extra/layouts/flex/../flex/../../../core/lv_obj_style_gen.h ****     lv_style_value_t v = lv_obj_get_style_prop(obj, part, LV_STYLE_TRANSLATE_Y);
  76:Middlewares/lvgl/src/extra/layouts/flex/../flex/../../../core/lv_obj_style_gen.h ****     return (lv_coord_t)v.num;
  77:Middlewares/lvgl/src/extra/layouts/flex/../flex/../../../core/lv_obj_style_gen.h **** }
  78:Middlewares/lvgl/src/extra/layouts/flex/../flex/../../../core/lv_obj_style_gen.h **** 
  79:Middlewares/lvgl/src/extra/layouts/flex/../flex/../../../core/lv_obj_style_gen.h **** static inline lv_coord_t lv_obj_get_style_transform_zoom(const struct _lv_obj_t * obj, uint32_t par
  80:Middlewares/lvgl/src/extra/layouts/flex/../flex/../../../core/lv_obj_style_gen.h **** {
  81:Middlewares/lvgl/src/extra/layouts/flex/../flex/../../../core/lv_obj_style_gen.h ****     lv_style_value_t v = lv_obj_get_style_prop(obj, part, LV_STYLE_TRANSFORM_ZOOM);
  82:Middlewares/lvgl/src/extra/layouts/flex/../flex/../../../core/lv_obj_style_gen.h ****     return (lv_coord_t)v.num;
  83:Middlewares/lvgl/src/extra/layouts/flex/../flex/../../../core/lv_obj_style_gen.h **** }
  84:Middlewares/lvgl/src/extra/layouts/flex/../flex/../../../core/lv_obj_style_gen.h **** 
  85:Middlewares/lvgl/src/extra/layouts/flex/../flex/../../../core/lv_obj_style_gen.h **** static inline lv_coord_t lv_obj_get_style_transform_angle(const struct _lv_obj_t * obj, uint32_t pa
  86:Middlewares/lvgl/src/extra/layouts/flex/../flex/../../../core/lv_obj_style_gen.h **** {
  87:Middlewares/lvgl/src/extra/layouts/flex/../flex/../../../core/lv_obj_style_gen.h ****     lv_style_value_t v = lv_obj_get_style_prop(obj, part, LV_STYLE_TRANSFORM_ANGLE);
  88:Middlewares/lvgl/src/extra/layouts/flex/../flex/../../../core/lv_obj_style_gen.h ****     return (lv_coord_t)v.num;
  89:Middlewares/lvgl/src/extra/layouts/flex/../flex/../../../core/lv_obj_style_gen.h **** }
ARM GAS  /tmp/ccjZBdV3.s 			page 46


  90:Middlewares/lvgl/src/extra/layouts/flex/../flex/../../../core/lv_obj_style_gen.h **** 
  91:Middlewares/lvgl/src/extra/layouts/flex/../flex/../../../core/lv_obj_style_gen.h **** static inline lv_coord_t lv_obj_get_style_pad_top(const struct _lv_obj_t * obj, uint32_t part)
  92:Middlewares/lvgl/src/extra/layouts/flex/../flex/../../../core/lv_obj_style_gen.h **** {
  93:Middlewares/lvgl/src/extra/layouts/flex/../flex/../../../core/lv_obj_style_gen.h ****     lv_style_value_t v = lv_obj_get_style_prop(obj, part, LV_STYLE_PAD_TOP);
  94:Middlewares/lvgl/src/extra/layouts/flex/../flex/../../../core/lv_obj_style_gen.h ****     return (lv_coord_t)v.num;
  95:Middlewares/lvgl/src/extra/layouts/flex/../flex/../../../core/lv_obj_style_gen.h **** }
  96:Middlewares/lvgl/src/extra/layouts/flex/../flex/../../../core/lv_obj_style_gen.h **** 
  97:Middlewares/lvgl/src/extra/layouts/flex/../flex/../../../core/lv_obj_style_gen.h **** static inline lv_coord_t lv_obj_get_style_pad_bottom(const struct _lv_obj_t * obj, uint32_t part)
  98:Middlewares/lvgl/src/extra/layouts/flex/../flex/../../../core/lv_obj_style_gen.h **** {
  99:Middlewares/lvgl/src/extra/layouts/flex/../flex/../../../core/lv_obj_style_gen.h ****     lv_style_value_t v = lv_obj_get_style_prop(obj, part, LV_STYLE_PAD_BOTTOM);
 100:Middlewares/lvgl/src/extra/layouts/flex/../flex/../../../core/lv_obj_style_gen.h ****     return (lv_coord_t)v.num;
 101:Middlewares/lvgl/src/extra/layouts/flex/../flex/../../../core/lv_obj_style_gen.h **** }
 102:Middlewares/lvgl/src/extra/layouts/flex/../flex/../../../core/lv_obj_style_gen.h **** 
 103:Middlewares/lvgl/src/extra/layouts/flex/../flex/../../../core/lv_obj_style_gen.h **** static inline lv_coord_t lv_obj_get_style_pad_left(const struct _lv_obj_t * obj, uint32_t part)
 104:Middlewares/lvgl/src/extra/layouts/flex/../flex/../../../core/lv_obj_style_gen.h **** {
 105:Middlewares/lvgl/src/extra/layouts/flex/../flex/../../../core/lv_obj_style_gen.h ****     lv_style_value_t v = lv_obj_get_style_prop(obj, part, LV_STYLE_PAD_LEFT);
 106:Middlewares/lvgl/src/extra/layouts/flex/../flex/../../../core/lv_obj_style_gen.h ****     return (lv_coord_t)v.num;
 107:Middlewares/lvgl/src/extra/layouts/flex/../flex/../../../core/lv_obj_style_gen.h **** }
 108:Middlewares/lvgl/src/extra/layouts/flex/../flex/../../../core/lv_obj_style_gen.h **** 
 109:Middlewares/lvgl/src/extra/layouts/flex/../flex/../../../core/lv_obj_style_gen.h **** static inline lv_coord_t lv_obj_get_style_pad_right(const struct _lv_obj_t * obj, uint32_t part)
 110:Middlewares/lvgl/src/extra/layouts/flex/../flex/../../../core/lv_obj_style_gen.h **** {
 111:Middlewares/lvgl/src/extra/layouts/flex/../flex/../../../core/lv_obj_style_gen.h ****     lv_style_value_t v = lv_obj_get_style_prop(obj, part, LV_STYLE_PAD_RIGHT);
 112:Middlewares/lvgl/src/extra/layouts/flex/../flex/../../../core/lv_obj_style_gen.h ****     return (lv_coord_t)v.num;
 113:Middlewares/lvgl/src/extra/layouts/flex/../flex/../../../core/lv_obj_style_gen.h **** }
 114:Middlewares/lvgl/src/extra/layouts/flex/../flex/../../../core/lv_obj_style_gen.h **** 
 115:Middlewares/lvgl/src/extra/layouts/flex/../flex/../../../core/lv_obj_style_gen.h **** static inline lv_coord_t lv_obj_get_style_pad_row(const struct _lv_obj_t * obj, uint32_t part)
 116:Middlewares/lvgl/src/extra/layouts/flex/../flex/../../../core/lv_obj_style_gen.h **** {
 117:Middlewares/lvgl/src/extra/layouts/flex/../flex/../../../core/lv_obj_style_gen.h ****     lv_style_value_t v = lv_obj_get_style_prop(obj, part, LV_STYLE_PAD_ROW);
 118:Middlewares/lvgl/src/extra/layouts/flex/../flex/../../../core/lv_obj_style_gen.h ****     return (lv_coord_t)v.num;
 119:Middlewares/lvgl/src/extra/layouts/flex/../flex/../../../core/lv_obj_style_gen.h **** }
 120:Middlewares/lvgl/src/extra/layouts/flex/../flex/../../../core/lv_obj_style_gen.h **** 
 121:Middlewares/lvgl/src/extra/layouts/flex/../flex/../../../core/lv_obj_style_gen.h **** static inline lv_coord_t lv_obj_get_style_pad_column(const struct _lv_obj_t * obj, uint32_t part)
 122:Middlewares/lvgl/src/extra/layouts/flex/../flex/../../../core/lv_obj_style_gen.h **** {
 123:Middlewares/lvgl/src/extra/layouts/flex/../flex/../../../core/lv_obj_style_gen.h ****     lv_style_value_t v = lv_obj_get_style_prop(obj, part, LV_STYLE_PAD_COLUMN);
 124:Middlewares/lvgl/src/extra/layouts/flex/../flex/../../../core/lv_obj_style_gen.h ****     return (lv_coord_t)v.num;
 125:Middlewares/lvgl/src/extra/layouts/flex/../flex/../../../core/lv_obj_style_gen.h **** }
 126:Middlewares/lvgl/src/extra/layouts/flex/../flex/../../../core/lv_obj_style_gen.h **** 
 127:Middlewares/lvgl/src/extra/layouts/flex/../flex/../../../core/lv_obj_style_gen.h **** static inline lv_coord_t lv_obj_get_style_radius(const struct _lv_obj_t * obj, uint32_t part)
 128:Middlewares/lvgl/src/extra/layouts/flex/../flex/../../../core/lv_obj_style_gen.h **** {
 129:Middlewares/lvgl/src/extra/layouts/flex/../flex/../../../core/lv_obj_style_gen.h ****     lv_style_value_t v = lv_obj_get_style_prop(obj, part, LV_STYLE_RADIUS);
 130:Middlewares/lvgl/src/extra/layouts/flex/../flex/../../../core/lv_obj_style_gen.h ****     return (lv_coord_t)v.num;
 131:Middlewares/lvgl/src/extra/layouts/flex/../flex/../../../core/lv_obj_style_gen.h **** }
 132:Middlewares/lvgl/src/extra/layouts/flex/../flex/../../../core/lv_obj_style_gen.h **** 
 133:Middlewares/lvgl/src/extra/layouts/flex/../flex/../../../core/lv_obj_style_gen.h **** static inline bool lv_obj_get_style_clip_corner(const struct _lv_obj_t * obj, uint32_t part)
 134:Middlewares/lvgl/src/extra/layouts/flex/../flex/../../../core/lv_obj_style_gen.h **** {
 135:Middlewares/lvgl/src/extra/layouts/flex/../flex/../../../core/lv_obj_style_gen.h ****     lv_style_value_t v = lv_obj_get_style_prop(obj, part, LV_STYLE_CLIP_CORNER);
 136:Middlewares/lvgl/src/extra/layouts/flex/../flex/../../../core/lv_obj_style_gen.h ****     return (bool)v.num;
 137:Middlewares/lvgl/src/extra/layouts/flex/../flex/../../../core/lv_obj_style_gen.h **** }
 138:Middlewares/lvgl/src/extra/layouts/flex/../flex/../../../core/lv_obj_style_gen.h **** 
 139:Middlewares/lvgl/src/extra/layouts/flex/../flex/../../../core/lv_obj_style_gen.h **** static inline lv_opa_t lv_obj_get_style_opa(const struct _lv_obj_t * obj, uint32_t part)
 140:Middlewares/lvgl/src/extra/layouts/flex/../flex/../../../core/lv_obj_style_gen.h **** {
 141:Middlewares/lvgl/src/extra/layouts/flex/../flex/../../../core/lv_obj_style_gen.h ****     lv_style_value_t v = lv_obj_get_style_prop(obj, part, LV_STYLE_OPA);
 142:Middlewares/lvgl/src/extra/layouts/flex/../flex/../../../core/lv_obj_style_gen.h ****     return (lv_opa_t)v.num;
 143:Middlewares/lvgl/src/extra/layouts/flex/../flex/../../../core/lv_obj_style_gen.h **** }
 144:Middlewares/lvgl/src/extra/layouts/flex/../flex/../../../core/lv_obj_style_gen.h **** 
 145:Middlewares/lvgl/src/extra/layouts/flex/../flex/../../../core/lv_obj_style_gen.h **** static inline const lv_color_filter_dsc_t * lv_obj_get_style_color_filter_dsc(const struct _lv_obj_
 146:Middlewares/lvgl/src/extra/layouts/flex/../flex/../../../core/lv_obj_style_gen.h **** {
ARM GAS  /tmp/ccjZBdV3.s 			page 47


 147:Middlewares/lvgl/src/extra/layouts/flex/../flex/../../../core/lv_obj_style_gen.h ****     lv_style_value_t v = lv_obj_get_style_prop(obj, part, LV_STYLE_COLOR_FILTER_DSC);
 148:Middlewares/lvgl/src/extra/layouts/flex/../flex/../../../core/lv_obj_style_gen.h ****     return (const lv_color_filter_dsc_t *)v.ptr;
 149:Middlewares/lvgl/src/extra/layouts/flex/../flex/../../../core/lv_obj_style_gen.h **** }
 150:Middlewares/lvgl/src/extra/layouts/flex/../flex/../../../core/lv_obj_style_gen.h **** 
 151:Middlewares/lvgl/src/extra/layouts/flex/../flex/../../../core/lv_obj_style_gen.h **** static inline lv_opa_t lv_obj_get_style_color_filter_opa(const struct _lv_obj_t * obj, uint32_t par
 152:Middlewares/lvgl/src/extra/layouts/flex/../flex/../../../core/lv_obj_style_gen.h **** {
 153:Middlewares/lvgl/src/extra/layouts/flex/../flex/../../../core/lv_obj_style_gen.h ****     lv_style_value_t v = lv_obj_get_style_prop(obj, part, LV_STYLE_COLOR_FILTER_OPA);
 154:Middlewares/lvgl/src/extra/layouts/flex/../flex/../../../core/lv_obj_style_gen.h ****     return (lv_opa_t)v.num;
 155:Middlewares/lvgl/src/extra/layouts/flex/../flex/../../../core/lv_obj_style_gen.h **** }
 156:Middlewares/lvgl/src/extra/layouts/flex/../flex/../../../core/lv_obj_style_gen.h **** 
 157:Middlewares/lvgl/src/extra/layouts/flex/../flex/../../../core/lv_obj_style_gen.h **** static inline uint32_t lv_obj_get_style_anim_time(const struct _lv_obj_t * obj, uint32_t part)
 158:Middlewares/lvgl/src/extra/layouts/flex/../flex/../../../core/lv_obj_style_gen.h **** {
 159:Middlewares/lvgl/src/extra/layouts/flex/../flex/../../../core/lv_obj_style_gen.h ****     lv_style_value_t v = lv_obj_get_style_prop(obj, part, LV_STYLE_ANIM_TIME);
 160:Middlewares/lvgl/src/extra/layouts/flex/../flex/../../../core/lv_obj_style_gen.h ****     return (uint32_t)v.num;
 161:Middlewares/lvgl/src/extra/layouts/flex/../flex/../../../core/lv_obj_style_gen.h **** }
 162:Middlewares/lvgl/src/extra/layouts/flex/../flex/../../../core/lv_obj_style_gen.h **** 
 163:Middlewares/lvgl/src/extra/layouts/flex/../flex/../../../core/lv_obj_style_gen.h **** static inline uint32_t lv_obj_get_style_anim_speed(const struct _lv_obj_t * obj, uint32_t part)
 164:Middlewares/lvgl/src/extra/layouts/flex/../flex/../../../core/lv_obj_style_gen.h **** {
 165:Middlewares/lvgl/src/extra/layouts/flex/../flex/../../../core/lv_obj_style_gen.h ****     lv_style_value_t v = lv_obj_get_style_prop(obj, part, LV_STYLE_ANIM_SPEED);
 166:Middlewares/lvgl/src/extra/layouts/flex/../flex/../../../core/lv_obj_style_gen.h ****     return (uint32_t)v.num;
 167:Middlewares/lvgl/src/extra/layouts/flex/../flex/../../../core/lv_obj_style_gen.h **** }
 168:Middlewares/lvgl/src/extra/layouts/flex/../flex/../../../core/lv_obj_style_gen.h **** 
 169:Middlewares/lvgl/src/extra/layouts/flex/../flex/../../../core/lv_obj_style_gen.h **** static inline const lv_style_transition_dsc_t * lv_obj_get_style_transition(const struct _lv_obj_t 
 170:Middlewares/lvgl/src/extra/layouts/flex/../flex/../../../core/lv_obj_style_gen.h **** {
 171:Middlewares/lvgl/src/extra/layouts/flex/../flex/../../../core/lv_obj_style_gen.h ****     lv_style_value_t v = lv_obj_get_style_prop(obj, part, LV_STYLE_TRANSITION);
 172:Middlewares/lvgl/src/extra/layouts/flex/../flex/../../../core/lv_obj_style_gen.h ****     return (const lv_style_transition_dsc_t *)v.ptr;
 173:Middlewares/lvgl/src/extra/layouts/flex/../flex/../../../core/lv_obj_style_gen.h **** }
 174:Middlewares/lvgl/src/extra/layouts/flex/../flex/../../../core/lv_obj_style_gen.h **** 
 175:Middlewares/lvgl/src/extra/layouts/flex/../flex/../../../core/lv_obj_style_gen.h **** static inline lv_blend_mode_t lv_obj_get_style_blend_mode(const struct _lv_obj_t * obj, uint32_t pa
 176:Middlewares/lvgl/src/extra/layouts/flex/../flex/../../../core/lv_obj_style_gen.h **** {
 177:Middlewares/lvgl/src/extra/layouts/flex/../flex/../../../core/lv_obj_style_gen.h ****     lv_style_value_t v = lv_obj_get_style_prop(obj, part, LV_STYLE_BLEND_MODE);
 178:Middlewares/lvgl/src/extra/layouts/flex/../flex/../../../core/lv_obj_style_gen.h ****     return (lv_blend_mode_t)v.num;
 179:Middlewares/lvgl/src/extra/layouts/flex/../flex/../../../core/lv_obj_style_gen.h **** }
 180:Middlewares/lvgl/src/extra/layouts/flex/../flex/../../../core/lv_obj_style_gen.h **** 
 181:Middlewares/lvgl/src/extra/layouts/flex/../flex/../../../core/lv_obj_style_gen.h **** static inline uint16_t lv_obj_get_style_layout(const struct _lv_obj_t * obj, uint32_t part)
 182:Middlewares/lvgl/src/extra/layouts/flex/../flex/../../../core/lv_obj_style_gen.h **** {
 183:Middlewares/lvgl/src/extra/layouts/flex/../flex/../../../core/lv_obj_style_gen.h ****     lv_style_value_t v = lv_obj_get_style_prop(obj, part, LV_STYLE_LAYOUT);
 184:Middlewares/lvgl/src/extra/layouts/flex/../flex/../../../core/lv_obj_style_gen.h ****     return (uint16_t)v.num;
 185:Middlewares/lvgl/src/extra/layouts/flex/../flex/../../../core/lv_obj_style_gen.h **** }
 186:Middlewares/lvgl/src/extra/layouts/flex/../flex/../../../core/lv_obj_style_gen.h **** 
 187:Middlewares/lvgl/src/extra/layouts/flex/../flex/../../../core/lv_obj_style_gen.h **** static inline lv_base_dir_t lv_obj_get_style_base_dir(const struct _lv_obj_t * obj, uint32_t part)
 1297              		.loc 3 187 29 view .LVU421
 1298              	.LBB86:
 188:Middlewares/lvgl/src/extra/layouts/flex/../flex/../../../core/lv_obj_style_gen.h **** {
 189:Middlewares/lvgl/src/extra/layouts/flex/../flex/../../../core/lv_obj_style_gen.h ****     lv_style_value_t v = lv_obj_get_style_prop(obj, part, LV_STYLE_BASE_DIR);
 1299              		.loc 3 189 5 view .LVU422
 1300              		.loc 3 189 26 is_stmt 0 view .LVU423
 1301 00fa 41F26A42 		movw	r2, #5226
 1302 00fe 0021     		movs	r1, #0
 1303 0100 0498     		ldr	r0, [sp, #16]
 1304 0102 FFF7FEFF 		bl	lv_obj_get_style_prop
 1305              	.LVL125:
 190:Middlewares/lvgl/src/extra/layouts/flex/../flex/../../../core/lv_obj_style_gen.h ****     return (lv_base_dir_t)v.num;
 1306              		.loc 3 190 5 is_stmt 1 view .LVU424
 1307              		.loc 3 190 12 is_stmt 0 view .LVU425
 1308 0106 C5B2     		uxtb	r5, r0
 1309 0108 0A95     		str	r5, [sp, #40]
ARM GAS  /tmp/ccjZBdV3.s 			page 48


 1310              	.LVL126:
 1311              		.loc 3 190 12 view .LVU426
 1312              	.LBE86:
 1313              	.LBE85:
 437:Middlewares/lvgl/src/extra/layouts/flex/lv_flex.c **** 
 1314              		.loc 2 437 5 is_stmt 1 view .LVU427
 437:Middlewares/lvgl/src/extra/layouts/flex/lv_flex.c **** 
 1315              		.loc 2 437 16 is_stmt 0 view .LVU428
 1316 010a 0023     		movs	r3, #0
 1317 010c ADF84630 		strh	r3, [sp, #70]	@ movhi
 439:Middlewares/lvgl/src/extra/layouts/flex/lv_flex.c ****     place_content(f->main_place, max_main_size, t->track_main_size, t->item_cnt, &main_pos, &place_
 1318              		.loc 2 439 5 is_stmt 1 view .LVU429
 439:Middlewares/lvgl/src/extra/layouts/flex/lv_flex.c ****     place_content(f->main_place, max_main_size, t->track_main_size, t->item_cnt, &main_pos, &place_
 1319              		.loc 2 439 16 is_stmt 0 view .LVU430
 1320 0110 ADF84430 		strh	r3, [sp, #68]	@ movhi
 440:Middlewares/lvgl/src/extra/layouts/flex/lv_flex.c ****     if(f->row && rtl) main_pos += lv_obj_get_content_width(cont);
 1321              		.loc 2 440 5 is_stmt 1 view .LVU431
 1322 0114 11AB     		add	r3, sp, #68
 1323 0116 0193     		str	r3, [sp, #4]
 1324 0118 0DF14603 		add	r3, sp, #70
 1325 011c 0093     		str	r3, [sp]
 1326 011e B4F90830 		ldrsh	r3, [r4, #8]
 1327 0122 B4F90220 		ldrsh	r2, [r4, #2]
 1328 0126 BDF97810 		ldrsh	r1, [sp, #120]
 1329 012a 99F80000 		ldrb	r0, [r9]	@ zero_extendqisi2
 1330 012e FFF7FEFF 		bl	place_content
 1331              	.LVL127:
 441:Middlewares/lvgl/src/extra/layouts/flex/lv_flex.c **** 
 1332              		.loc 2 441 5 view .LVU432
 441:Middlewares/lvgl/src/extra/layouts/flex/lv_flex.c **** 
 1333              		.loc 2 441 8 is_stmt 0 view .LVU433
 1334 0132 99F80330 		ldrb	r3, [r9, #3]	@ zero_extendqisi2
 441:Middlewares/lvgl/src/extra/layouts/flex/lv_flex.c **** 
 1335              		.loc 2 441 7 view .LVU434
 1336 0136 13F0010F 		tst	r3, #1
 1337 013a 01D0     		beq	.L72
 441:Middlewares/lvgl/src/extra/layouts/flex/lv_flex.c **** 
 1338              		.loc 2 441 15 discriminator 1 view .LVU435
 1339 013c 012D     		cmp	r5, #1
 1340 013e 05D0     		beq	.L114
 1341              	.L72:
 443:Middlewares/lvgl/src/extra/layouts/flex/lv_flex.c ****     /*Reposition the children*/
 1342              		.loc 2 443 5 is_stmt 1 view .LVU436
 443:Middlewares/lvgl/src/extra/layouts/flex/lv_flex.c ****     /*Reposition the children*/
 1343              		.loc 2 443 23 is_stmt 0 view .LVU437
 1344 0140 0D99     		ldr	r1, [sp, #52]
 1345 0142 0498     		ldr	r0, [sp, #16]
 1346 0144 FFF7FEFF 		bl	lv_obj_get_child
 1347              	.LVL128:
 1348 0148 0546     		mov	r5, r0
 1349              	.LVL129:
 445:Middlewares/lvgl/src/extra/layouts/flex/lv_flex.c ****         if(lv_obj_has_flag_any(item, LV_OBJ_FLAG_IGNORE_LAYOUT | LV_OBJ_FLAG_HIDDEN | LV_OBJ_FLAG_F
 1350              		.loc 2 445 5 is_stmt 1 view .LVU438
 445:Middlewares/lvgl/src/extra/layouts/flex/lv_flex.c ****         if(lv_obj_has_flag_any(item, LV_OBJ_FLAG_IGNORE_LAYOUT | LV_OBJ_FLAG_HIDDEN | LV_OBJ_FLAG_F
 1351              		.loc 2 445 10 is_stmt 0 view .LVU439
 1352 014a F0E0     		b	.L73
 1353              	.LVL130:
ARM GAS  /tmp/ccjZBdV3.s 			page 49


 1354              	.L114:
 441:Middlewares/lvgl/src/extra/layouts/flex/lv_flex.c **** 
 1355              		.loc 2 441 23 is_stmt 1 discriminator 2 view .LVU440
 441:Middlewares/lvgl/src/extra/layouts/flex/lv_flex.c **** 
 1356              		.loc 2 441 35 is_stmt 0 discriminator 2 view .LVU441
 1357 014c 0498     		ldr	r0, [sp, #16]
 1358 014e FFF7FEFF 		bl	lv_obj_get_content_width
 1359              	.LVL131:
 441:Middlewares/lvgl/src/extra/layouts/flex/lv_flex.c **** 
 1360              		.loc 2 441 32 discriminator 2 view .LVU442
 1361 0152 BDF84630 		ldrh	r3, [sp, #70]
 1362 0156 13FA80F3 		uxtah	r3, r3, r0
 1363 015a ADF84630 		strh	r3, [sp, #70]	@ movhi
 1364 015e EFE7     		b	.L72
 1365              	.LVL132:
 1366              	.L122:
 1367              	.LBB87:
 447:Middlewares/lvgl/src/extra/layouts/flex/lv_flex.c ****             continue;
 1368              		.loc 2 447 13 is_stmt 1 view .LVU443
 447:Middlewares/lvgl/src/extra/layouts/flex/lv_flex.c ****             continue;
 1369              		.loc 2 447 41 is_stmt 0 view .LVU444
 1370 0160 99F80310 		ldrb	r1, [r9, #3]	@ zero_extendqisi2
 447:Middlewares/lvgl/src/extra/layouts/flex/lv_flex.c ****             continue;
 1371              		.loc 2 447 20 view .LVU445
 1372 0164 0DAA     		add	r2, sp, #52
 1373 0166 C1F38001 		ubfx	r1, r1, #2, #1
 1374 016a 0498     		ldr	r0, [sp, #16]
 1375 016c FFF7FEFF 		bl	get_next_item
 1376              	.LVL133:
 1377 0170 0546     		mov	r5, r0
 1378              	.LVL134:
 448:Middlewares/lvgl/src/extra/layouts/flex/lv_flex.c ****         }
 1379              		.loc 2 448 13 is_stmt 1 view .LVU446
 1380 0172 DCE0     		b	.L73
 1381              	.LVL135:
 1382              	.L116:
 1383              	.LBB88:
 455:Middlewares/lvgl/src/extra/layouts/flex/lv_flex.c ****                     break;
 1384              		.loc 2 455 21 view .LVU447
 455:Middlewares/lvgl/src/extra/layouts/flex/lv_flex.c ****                     break;
 1385              		.loc 2 455 23 is_stmt 0 view .LVU448
 1386 0174 B0F90870 		ldrsh	r7, [r0, #8]
 1387              	.LVL136:
 456:Middlewares/lvgl/src/extra/layouts/flex/lv_flex.c ****                 }
 1388              		.loc 2 456 21 is_stmt 1 view .LVU449
 1389 0178 0FE0     		b	.L79
 1390              	.LVL137:
 1391              	.L123:
 453:Middlewares/lvgl/src/extra/layouts/flex/lv_flex.c ****                 if(t->grow_dsc[i].item == item) {
 1392              		.loc 2 453 19 is_stmt 0 view .LVU450
 1393 017a 0023     		movs	r3, #0
 1394              	.LVL138:
 1395              	.L76:
 453:Middlewares/lvgl/src/extra/layouts/flex/lv_flex.c ****                 if(t->grow_dsc[i].item == item) {
 1396              		.loc 2 453 24 is_stmt 1 discriminator 1 view .LVU451
 453:Middlewares/lvgl/src/extra/layouts/flex/lv_flex.c ****                 if(t->grow_dsc[i].item == item) {
 1397              		.loc 2 453 29 is_stmt 0 discriminator 1 view .LVU452
ARM GAS  /tmp/ccjZBdV3.s 			page 50


 1398 017c 2269     		ldr	r2, [r4, #16]
 453:Middlewares/lvgl/src/extra/layouts/flex/lv_flex.c ****                 if(t->grow_dsc[i].item == item) {
 1399              		.loc 2 453 13 discriminator 1 view .LVU453
 1400 017e 9A42     		cmp	r2, r3
 1401 0180 0AD9     		bls	.L115
 454:Middlewares/lvgl/src/extra/layouts/flex/lv_flex.c ****                     s = t->grow_dsc[i].final_size;
 1402              		.loc 2 454 17 is_stmt 1 view .LVU454
 454:Middlewares/lvgl/src/extra/layouts/flex/lv_flex.c ****                     s = t->grow_dsc[i].final_size;
 1403              		.loc 2 454 21 is_stmt 0 view .LVU455
 1404 0182 E268     		ldr	r2, [r4, #12]
 454:Middlewares/lvgl/src/extra/layouts/flex/lv_flex.c ****                     s = t->grow_dsc[i].final_size;
 1405              		.loc 2 454 31 view .LVU456
 1406 0184 03EB8301 		add	r1, r3, r3, lsl #2
 1407 0188 02EB8100 		add	r0, r2, r1, lsl #2
 454:Middlewares/lvgl/src/extra/layouts/flex/lv_flex.c ****                     s = t->grow_dsc[i].final_size;
 1408              		.loc 2 454 34 view .LVU457
 1409 018c 52F82120 		ldr	r2, [r2, r1, lsl #2]
 454:Middlewares/lvgl/src/extra/layouts/flex/lv_flex.c ****                     s = t->grow_dsc[i].final_size;
 1410              		.loc 2 454 19 view .LVU458
 1411 0190 AA42     		cmp	r2, r5
 1412 0192 EFD0     		beq	.L116
 453:Middlewares/lvgl/src/extra/layouts/flex/lv_flex.c ****                 if(t->grow_dsc[i].item == item) {
 1413              		.loc 2 453 46 is_stmt 1 discriminator 2 view .LVU459
 453:Middlewares/lvgl/src/extra/layouts/flex/lv_flex.c ****                 if(t->grow_dsc[i].item == item) {
 1414              		.loc 2 453 47 is_stmt 0 discriminator 2 view .LVU460
 1415 0194 0133     		adds	r3, r3, #1
 1416              	.LVL139:
 453:Middlewares/lvgl/src/extra/layouts/flex/lv_flex.c ****                 if(t->grow_dsc[i].item == item) {
 1417              		.loc 2 453 47 discriminator 2 view .LVU461
 1418 0196 F1E7     		b	.L76
 1419              	.L115:
 452:Middlewares/lvgl/src/extra/layouts/flex/lv_flex.c ****             for(i = 0; i < t->grow_item_cnt; i++) {
 1420              		.loc 2 452 24 view .LVU462
 1421 0198 0027     		movs	r7, #0
 1422              	.L79:
 1423              	.LVL140:
 460:Middlewares/lvgl/src/extra/layouts/flex/lv_flex.c ****             else item->h_layout = 1;
 1424              		.loc 2 460 13 is_stmt 1 view .LVU463
 460:Middlewares/lvgl/src/extra/layouts/flex/lv_flex.c ****             else item->h_layout = 1;
 1425              		.loc 2 460 16 is_stmt 0 view .LVU464
 1426 019a 99F80330 		ldrb	r3, [r9, #3]	@ zero_extendqisi2
 1427              	.LVL141:
 460:Middlewares/lvgl/src/extra/layouts/flex/lv_flex.c ****             else item->h_layout = 1;
 1428              		.loc 2 460 15 view .LVU465
 1429 019e 13F0010F 		tst	r3, #1
 1430 01a2 34D0     		beq	.L81
 460:Middlewares/lvgl/src/extra/layouts/flex/lv_flex.c ****             else item->h_layout = 1;
 1431              		.loc 2 460 24 is_stmt 1 discriminator 1 view .LVU466
 460:Middlewares/lvgl/src/extra/layouts/flex/lv_flex.c ****             else item->h_layout = 1;
 1432              		.loc 2 460 39 is_stmt 0 discriminator 1 view .LVU467
 1433 01a4 95F82330 		ldrb	r3, [r5, #35]	@ zero_extendqisi2
 1434 01a8 43F00403 		orr	r3, r3, #4
 1435 01ac 85F82330 		strb	r3, [r5, #35]
 1436              	.L82:
 463:Middlewares/lvgl/src/extra/layouts/flex/lv_flex.c ****                 lv_obj_invalidate(item);
 1437              		.loc 2 463 13 is_stmt 1 view .LVU468
 463:Middlewares/lvgl/src/extra/layouts/flex/lv_flex.c ****                 lv_obj_invalidate(item);
ARM GAS  /tmp/ccjZBdV3.s 			page 51


 1438              		.loc 2 463 40 is_stmt 0 view .LVU469
 1439 01b0 05F11406 		add	r6, r5, #20
 463:Middlewares/lvgl/src/extra/layouts/flex/lv_flex.c ****                 lv_obj_invalidate(item);
 1440              		.loc 2 463 21 view .LVU470
 1441 01b4 3046     		mov	r0, r6
 1442 01b6 069B     		ldr	r3, [sp, #24]
 1443 01b8 9847     		blx	r3
 1444              	.LVL142:
 463:Middlewares/lvgl/src/extra/layouts/flex/lv_flex.c ****                 lv_obj_invalidate(item);
 1445              		.loc 2 463 15 view .LVU471
 1446 01ba B842     		cmp	r0, r7
 1447 01bc 00F0DA80 		beq	.L83
 1448              	.LBB89:
 464:Middlewares/lvgl/src/extra/layouts/flex/lv_flex.c **** 
 1449              		.loc 2 464 17 is_stmt 1 view .LVU472
 1450 01c0 2846     		mov	r0, r5
 1451 01c2 FFF7FEFF 		bl	lv_obj_invalidate
 1452              	.LVL143:
 466:Middlewares/lvgl/src/extra/layouts/flex/lv_flex.c ****                 lv_area_copy(&old_coords, &item->coords);
 1453              		.loc 2 466 17 view .LVU473
 467:Middlewares/lvgl/src/extra/layouts/flex/lv_flex.c ****                 area_set_main_size(&item->coords, s);
 1454              		.loc 2 467 17 view .LVU474
 1455              	.LBB90:
 1456              	.LBI90:
 120:Middlewares/lvgl/src/extra/layouts/flex/../flex/../../../core/../misc/../font/../misc/lv_area.h **** {
 1457              		.loc 1 120 20 view .LVU475
 1458              	.LBB91:
 122:Middlewares/lvgl/src/extra/layouts/flex/../flex/../../../core/../misc/../font/../misc/lv_area.h ****     dest->y1 = src->y1;
 1459              		.loc 1 122 5 view .LVU476
 122:Middlewares/lvgl/src/extra/layouts/flex/../flex/../../../core/../misc/../font/../misc/lv_area.h ****     dest->y1 = src->y1;
 1460              		.loc 1 122 19 is_stmt 0 view .LVU477
 1461 01c6 B5F91430 		ldrsh	r3, [r5, #20]
 122:Middlewares/lvgl/src/extra/layouts/flex/../flex/../../../core/../misc/../font/../misc/lv_area.h ****     dest->y1 = src->y1;
 1462              		.loc 1 122 14 view .LVU478
 1463 01ca ADF83C30 		strh	r3, [sp, #60]	@ movhi
 123:Middlewares/lvgl/src/extra/layouts/flex/../flex/../../../core/../misc/../font/../misc/lv_area.h ****     dest->x2 = src->x2;
 1464              		.loc 1 123 5 is_stmt 1 view .LVU479
 123:Middlewares/lvgl/src/extra/layouts/flex/../flex/../../../core/../misc/../font/../misc/lv_area.h ****     dest->x2 = src->x2;
 1465              		.loc 1 123 19 is_stmt 0 view .LVU480
 1466 01ce B5F91630 		ldrsh	r3, [r5, #22]
 123:Middlewares/lvgl/src/extra/layouts/flex/../flex/../../../core/../misc/../font/../misc/lv_area.h ****     dest->x2 = src->x2;
 1467              		.loc 1 123 14 view .LVU481
 1468 01d2 ADF83E30 		strh	r3, [sp, #62]	@ movhi
 124:Middlewares/lvgl/src/extra/layouts/flex/../flex/../../../core/../misc/../font/../misc/lv_area.h ****     dest->y2 = src->y2;
 1469              		.loc 1 124 5 is_stmt 1 view .LVU482
 124:Middlewares/lvgl/src/extra/layouts/flex/../flex/../../../core/../misc/../font/../misc/lv_area.h ****     dest->y2 = src->y2;
 1470              		.loc 1 124 19 is_stmt 0 view .LVU483
 1471 01d6 B5F91830 		ldrsh	r3, [r5, #24]
 124:Middlewares/lvgl/src/extra/layouts/flex/../flex/../../../core/../misc/../font/../misc/lv_area.h ****     dest->y2 = src->y2;
 1472              		.loc 1 124 14 view .LVU484
 1473 01da ADF84030 		strh	r3, [sp, #64]	@ movhi
 125:Middlewares/lvgl/src/extra/layouts/flex/../flex/../../../core/../misc/../font/../misc/lv_area.h **** }
 1474              		.loc 1 125 5 is_stmt 1 view .LVU485
 125:Middlewares/lvgl/src/extra/layouts/flex/../flex/../../../core/../misc/../font/../misc/lv_area.h **** }
 1475              		.loc 1 125 19 is_stmt 0 view .LVU486
 1476 01de B5F91A30 		ldrsh	r3, [r5, #26]
 125:Middlewares/lvgl/src/extra/layouts/flex/../flex/../../../core/../misc/../font/../misc/lv_area.h **** }
ARM GAS  /tmp/ccjZBdV3.s 			page 52


 1477              		.loc 1 125 14 view .LVU487
 1478 01e2 ADF84230 		strh	r3, [sp, #66]	@ movhi
 1479              	.LVL144:
 125:Middlewares/lvgl/src/extra/layouts/flex/../flex/../../../core/../misc/../font/../misc/lv_area.h **** }
 1480              		.loc 1 125 14 view .LVU488
 1481              	.LBE91:
 1482              	.LBE90:
 468:Middlewares/lvgl/src/extra/layouts/flex/lv_flex.c ****                 lv_event_send(item, LV_EVENT_SIZE_CHANGED, &old_coords);
 1483              		.loc 2 468 17 is_stmt 1 view .LVU489
 1484 01e6 3946     		mov	r1, r7
 1485 01e8 3046     		mov	r0, r6
 1486 01ea 0C9B     		ldr	r3, [sp, #48]
 1487 01ec 9847     		blx	r3
 1488              	.LVL145:
 469:Middlewares/lvgl/src/extra/layouts/flex/lv_flex.c ****                 lv_event_send(lv_obj_get_parent(item), LV_EVENT_CHILD_CHANGED, item);
 1489              		.loc 2 469 17 view .LVU490
 1490 01ee 0FAA     		add	r2, sp, #60
 1491 01f0 2321     		movs	r1, #35
 1492 01f2 2846     		mov	r0, r5
 1493 01f4 FFF7FEFF 		bl	lv_event_send
 1494              	.LVL146:
 470:Middlewares/lvgl/src/extra/layouts/flex/lv_flex.c ****                 lv_obj_invalidate(item);
 1495              		.loc 2 470 17 view .LVU491
 1496 01f8 2846     		mov	r0, r5
 1497 01fa FFF7FEFF 		bl	lv_obj_get_parent
 1498              	.LVL147:
 1499 01fe 2A46     		mov	r2, r5
 1500 0200 2221     		movs	r1, #34
 1501 0202 FFF7FEFF 		bl	lv_event_send
 1502              	.LVL148:
 471:Middlewares/lvgl/src/extra/layouts/flex/lv_flex.c ****             }
 1503              		.loc 2 471 17 view .LVU492
 1504 0206 2846     		mov	r0, r5
 1505 0208 FFF7FEFF 		bl	lv_obj_invalidate
 1506              	.LVL149:
 1507 020c B2E0     		b	.L83
 1508              	.L81:
 471:Middlewares/lvgl/src/extra/layouts/flex/lv_flex.c ****             }
 1509              		.loc 2 471 17 is_stmt 0 view .LVU493
 1510              	.LBE89:
 461:Middlewares/lvgl/src/extra/layouts/flex/lv_flex.c **** 
 1511              		.loc 2 461 18 is_stmt 1 view .LVU494
 461:Middlewares/lvgl/src/extra/layouts/flex/lv_flex.c **** 
 1512              		.loc 2 461 33 is_stmt 0 view .LVU495
 1513 020e 95F82330 		ldrb	r3, [r5, #35]	@ zero_extendqisi2
 1514 0212 43F00203 		orr	r3, r3, #2
 1515 0216 85F82330 		strb	r3, [r5, #35]
 1516 021a C9E7     		b	.L82
 1517              	.LVL150:
 1518              	.L124:
 461:Middlewares/lvgl/src/extra/layouts/flex/lv_flex.c **** 
 1519              		.loc 2 461 33 view .LVU496
 1520              	.LBE88:
 483:Middlewares/lvgl/src/extra/layouts/flex/lv_flex.c ****             break;
 1521              		.loc 2 483 99 view .LVU497
 1522 021c 0136     		adds	r6, r6, #1
 1523 021e BDE0     		b	.L86
ARM GAS  /tmp/ccjZBdV3.s 			page 53


 1524              	.L84:
 486:Middlewares/lvgl/src/extra/layouts/flex/lv_flex.c ****             break;
 1525              		.loc 2 486 13 is_stmt 1 view .LVU498
 486:Middlewares/lvgl/src/extra/layouts/flex/lv_flex.c ****             break;
 1526              		.loc 2 486 26 is_stmt 0 view .LVU499
 1527 0220 2688     		ldrh	r6, [r4]
 486:Middlewares/lvgl/src/extra/layouts/flex/lv_flex.c ****             break;
 1528              		.loc 2 486 47 view .LVU500
 1529 0222 05F11400 		add	r0, r5, #20
 1530 0226 0B9B     		ldr	r3, [sp, #44]
 1531 0228 9847     		blx	r3
 1532              	.LVL151:
 1533 022a 80B2     		uxth	r0, r0
 486:Middlewares/lvgl/src/extra/layouts/flex/lv_flex.c ****             break;
 1534              		.loc 2 486 45 view .LVU501
 1535 022c 361A     		subs	r6, r6, r0
 486:Middlewares/lvgl/src/extra/layouts/flex/lv_flex.c ****             break;
 1536              		.loc 2 486 23 view .LVU502
 1537 022e 33B2     		sxth	r3, r6
 1538 0230 0393     		str	r3, [sp, #12]
 1539              	.LVL152:
 487:Middlewares/lvgl/src/extra/layouts/flex/lv_flex.c ****         default:
 1540              		.loc 2 487 13 is_stmt 1 view .LVU503
 1541 0232 09E0     		b	.L85
 1542              	.L126:
 1543              		.align	2
 1544              	.L125:
 1545 0234 00000000 		.word	lv_area_set_width
 1546 0238 00000000 		.word	lv_area_get_width
 1547 023c 00000000 		.word	lv_area_set_height
 1548 0240 00000000 		.word	lv_area_get_height
 1549              	.LVL153:
 1550              	.L107:
 479:Middlewares/lvgl/src/extra/layouts/flex/lv_flex.c ****         case LV_FLEX_ALIGN_CENTER:
 1551              		.loc 2 479 9 is_stmt 0 view .LVU504
 1552 0244 0023     		movs	r3, #0
 1553 0246 0393     		str	r3, [sp, #12]
 1554              	.LVL154:
 1555              	.L85:
 492:Middlewares/lvgl/src/extra/layouts/flex/lv_flex.c **** 
 1556              		.loc 2 492 9 is_stmt 1 view .LVU505
 492:Middlewares/lvgl/src/extra/layouts/flex/lv_flex.c **** 
 1557              		.loc 2 492 12 is_stmt 0 view .LVU506
 1558 0248 99F80330 		ldrb	r3, [r9, #3]	@ zero_extendqisi2
 492:Middlewares/lvgl/src/extra/layouts/flex/lv_flex.c **** 
 1559              		.loc 2 492 11 view .LVU507
 1560 024c 13F0010F 		tst	r3, #1
 1561 0250 03D0     		beq	.L87
 492:Middlewares/lvgl/src/extra/layouts/flex/lv_flex.c **** 
 1562              		.loc 2 492 19 discriminator 1 view .LVU508
 1563 0252 0A9B     		ldr	r3, [sp, #40]
 1564 0254 012B     		cmp	r3, #1
 1565 0256 00F0A580 		beq	.L117
 1566              	.L87:
 496:Middlewares/lvgl/src/extra/layouts/flex/lv_flex.c ****         lv_coord_t tr_y = lv_obj_get_style_translate_y(item, LV_PART_MAIN);
 1567              		.loc 2 496 9 is_stmt 1 view .LVU509
 1568              	.LVL155:
ARM GAS  /tmp/ccjZBdV3.s 			page 54


 1569              	.LBB92:
 1570              	.LBI92:
  67:Middlewares/lvgl/src/extra/layouts/flex/../flex/../../../core/lv_obj_style_gen.h **** {
 1571              		.loc 3 67 26 view .LVU510
 1572              	.LBB93:
  69:Middlewares/lvgl/src/extra/layouts/flex/../flex/../../../core/lv_obj_style_gen.h ****     return (lv_coord_t)v.num;
 1573              		.loc 3 69 5 view .LVU511
  69:Middlewares/lvgl/src/extra/layouts/flex/../flex/../../../core/lv_obj_style_gen.h ****     return (lv_coord_t)v.num;
 1574              		.loc 3 69 26 is_stmt 0 view .LVU512
 1575 025a 43F20C02 		movw	r2, #12300
 1576 025e 0021     		movs	r1, #0
 1577 0260 2846     		mov	r0, r5
 1578 0262 FFF7FEFF 		bl	lv_obj_get_style_prop
 1579              	.LVL156:
 1580 0266 0746     		mov	r7, r0
 1581              	.LVL157:
  70:Middlewares/lvgl/src/extra/layouts/flex/../flex/../../../core/lv_obj_style_gen.h **** }
 1582              		.loc 3 70 5 is_stmt 1 view .LVU513
  70:Middlewares/lvgl/src/extra/layouts/flex/../flex/../../../core/lv_obj_style_gen.h **** }
 1583              		.loc 3 70 12 is_stmt 0 view .LVU514
 1584 0268 0FFA80FB 		sxth	fp, r0
 1585              	.LVL158:
  70:Middlewares/lvgl/src/extra/layouts/flex/../flex/../../../core/lv_obj_style_gen.h **** }
 1586              		.loc 3 70 12 view .LVU515
 1587              	.LBE93:
 1588              	.LBE92:
 497:Middlewares/lvgl/src/extra/layouts/flex/lv_flex.c ****         lv_coord_t w = lv_obj_get_width(item);
 1589              		.loc 2 497 9 is_stmt 1 view .LVU516
 1590              	.LBB94:
 1591              	.LBI94:
  73:Middlewares/lvgl/src/extra/layouts/flex/../flex/../../../core/lv_obj_style_gen.h **** {
 1592              		.loc 3 73 26 view .LVU517
 1593              	.LBB95:
  75:Middlewares/lvgl/src/extra/layouts/flex/../flex/../../../core/lv_obj_style_gen.h ****     return (lv_coord_t)v.num;
 1594              		.loc 3 75 5 view .LVU518
  75:Middlewares/lvgl/src/extra/layouts/flex/../flex/../../../core/lv_obj_style_gen.h ****     return (lv_coord_t)v.num;
 1595              		.loc 3 75 26 is_stmt 0 view .LVU519
 1596 026c 43F20D02 		movw	r2, #12301
 1597 0270 0021     		movs	r1, #0
 1598 0272 2846     		mov	r0, r5
  75:Middlewares/lvgl/src/extra/layouts/flex/../flex/../../../core/lv_obj_style_gen.h ****     return (lv_coord_t)v.num;
 1599              		.loc 3 75 26 view .LVU520
 1600 0274 FFF7FEFF 		bl	lv_obj_get_style_prop
 1601              	.LVL159:
 1602 0278 0646     		mov	r6, r0
  76:Middlewares/lvgl/src/extra/layouts/flex/../flex/../../../core/lv_obj_style_gen.h **** }
 1603              		.loc 3 76 5 is_stmt 1 view .LVU521
  76:Middlewares/lvgl/src/extra/layouts/flex/../flex/../../../core/lv_obj_style_gen.h **** }
 1604              		.loc 3 76 12 is_stmt 0 view .LVU522
 1605 027a 0FFA80FA 		sxth	r10, r0
 1606              	.LVL160:
  76:Middlewares/lvgl/src/extra/layouts/flex/../flex/../../../core/lv_obj_style_gen.h **** }
 1607              		.loc 3 76 12 view .LVU523
 1608              	.LBE95:
 1609              	.LBE94:
 498:Middlewares/lvgl/src/extra/layouts/flex/lv_flex.c ****         lv_coord_t h = lv_obj_get_height(item);
 1610              		.loc 2 498 9 is_stmt 1 view .LVU524
ARM GAS  /tmp/ccjZBdV3.s 			page 55


 498:Middlewares/lvgl/src/extra/layouts/flex/lv_flex.c ****         lv_coord_t h = lv_obj_get_height(item);
 1611              		.loc 2 498 24 is_stmt 0 view .LVU525
 1612 027e 2846     		mov	r0, r5
 1613 0280 FFF7FEFF 		bl	lv_obj_get_width
 1614              	.LVL161:
 1615 0284 8046     		mov	r8, r0
 1616              	.LVL162:
 499:Middlewares/lvgl/src/extra/layouts/flex/lv_flex.c ****         if(LV_COORD_IS_PCT(tr_x)) tr_x = (w * LV_COORD_GET_PCT(tr_x)) / 100;
 1617              		.loc 2 499 9 is_stmt 1 view .LVU526
 499:Middlewares/lvgl/src/extra/layouts/flex/lv_flex.c ****         if(LV_COORD_IS_PCT(tr_x)) tr_x = (w * LV_COORD_GET_PCT(tr_x)) / 100;
 1618              		.loc 2 499 24 is_stmt 0 view .LVU527
 1619 0286 2846     		mov	r0, r5
 1620 0288 FFF7FEFF 		bl	lv_obj_get_height
 1621              	.LVL163:
 500:Middlewares/lvgl/src/extra/layouts/flex/lv_flex.c ****         if(LV_COORD_IS_PCT(tr_y)) tr_y = (h * LV_COORD_GET_PCT(tr_y)) / 100;
 1622              		.loc 2 500 9 is_stmt 1 view .LVU528
 500:Middlewares/lvgl/src/extra/layouts/flex/lv_flex.c ****         if(LV_COORD_IS_PCT(tr_y)) tr_y = (h * LV_COORD_GET_PCT(tr_y)) / 100;
 1623              		.loc 2 500 12 is_stmt 0 view .LVU529
 1624 028c 07F4C047 		and	r7, r7, #24576
 1625              	.LVL164:
 500:Middlewares/lvgl/src/extra/layouts/flex/lv_flex.c ****         if(LV_COORD_IS_PCT(tr_y)) tr_y = (h * LV_COORD_GET_PCT(tr_y)) / 100;
 1626              		.loc 2 500 11 view .LVU530
 1627 0290 B7F5005F 		cmp	r7, #8192
 1628 0294 00F09180 		beq	.L118
 1629              	.LVL165:
 1630              	.L88:
 501:Middlewares/lvgl/src/extra/layouts/flex/lv_flex.c **** 
 1631              		.loc 2 501 9 is_stmt 1 view .LVU531
 501:Middlewares/lvgl/src/extra/layouts/flex/lv_flex.c **** 
 1632              		.loc 2 501 12 is_stmt 0 view .LVU532
 1633 0298 06F4C046 		and	r6, r6, #24576
 501:Middlewares/lvgl/src/extra/layouts/flex/lv_flex.c **** 
 1634              		.loc 2 501 11 view .LVU533
 1635 029c B6F5005F 		cmp	r6, #8192
 1636 02a0 00F0A280 		beq	.L119
 1637              	.L91:
 503:Middlewares/lvgl/src/extra/layouts/flex/lv_flex.c ****         lv_coord_t diff_y = abs_y - item->coords.y1 + tr_y;
 1638              		.loc 2 503 9 is_stmt 1 view .LVU534
 503:Middlewares/lvgl/src/extra/layouts/flex/lv_flex.c ****         lv_coord_t diff_y = abs_y - item->coords.y1 + tr_y;
 1639              		.loc 2 503 49 is_stmt 0 view .LVU535
 1640 02a4 AE8A     		ldrh	r6, [r5, #20]
 503:Middlewares/lvgl/src/extra/layouts/flex/lv_flex.c ****         lv_coord_t diff_y = abs_y - item->coords.y1 + tr_y;
 1641              		.loc 2 503 35 view .LVU536
 1642 02a6 079B     		ldr	r3, [sp, #28]
 1643 02a8 9E1B     		subs	r6, r3, r6
 503:Middlewares/lvgl/src/extra/layouts/flex/lv_flex.c ****         lv_coord_t diff_y = abs_y - item->coords.y1 + tr_y;
 1644              		.loc 2 503 53 view .LVU537
 1645 02aa 1BFA86F6 		uxtah	r6, fp, r6
 1646 02ae B6B2     		uxth	r6, r6
 1647              	.LVL166:
 504:Middlewares/lvgl/src/extra/layouts/flex/lv_flex.c ****         diff_x += f->row ? main_pos : cross_pos;
 1648              		.loc 2 504 9 is_stmt 1 view .LVU538
 504:Middlewares/lvgl/src/extra/layouts/flex/lv_flex.c ****         diff_x += f->row ? main_pos : cross_pos;
 1649              		.loc 2 504 49 is_stmt 0 view .LVU539
 1650 02b0 EA8A     		ldrh	r2, [r5, #22]
 504:Middlewares/lvgl/src/extra/layouts/flex/lv_flex.c ****         diff_x += f->row ? main_pos : cross_pos;
 1651              		.loc 2 504 35 view .LVU540
ARM GAS  /tmp/ccjZBdV3.s 			page 56


 1652 02b2 089B     		ldr	r3, [sp, #32]
 1653 02b4 9A1A     		subs	r2, r3, r2
 504:Middlewares/lvgl/src/extra/layouts/flex/lv_flex.c ****         diff_x += f->row ? main_pos : cross_pos;
 1654              		.loc 2 504 53 view .LVU541
 1655 02b6 1AFA82F2 		uxtah	r2, r10, r2
 1656 02ba 92B2     		uxth	r2, r2
 1657              	.LVL167:
 505:Middlewares/lvgl/src/extra/layouts/flex/lv_flex.c ****         diff_y += f->row ? cross_pos : main_pos;
 1658              		.loc 2 505 9 is_stmt 1 view .LVU542
 505:Middlewares/lvgl/src/extra/layouts/flex/lv_flex.c ****         diff_y += f->row ? cross_pos : main_pos;
 1659              		.loc 2 505 26 is_stmt 0 view .LVU543
 1660 02bc 99F80330 		ldrb	r3, [r9, #3]	@ zero_extendqisi2
 505:Middlewares/lvgl/src/extra/layouts/flex/lv_flex.c ****         diff_y += f->row ? cross_pos : main_pos;
 1661              		.loc 2 505 16 view .LVU544
 1662 02c0 13F00103 		ands	r3, r3, #1
 1663 02c4 00F0A780 		beq	.L94
 505:Middlewares/lvgl/src/extra/layouts/flex/lv_flex.c ****         diff_y += f->row ? cross_pos : main_pos;
 1664              		.loc 2 505 16 discriminator 1 view .LVU545
 1665 02c8 BDF846B0 		ldrh	fp, [sp, #70]
 1666              	.LVL168:
 1667              	.L95:
 505:Middlewares/lvgl/src/extra/layouts/flex/lv_flex.c ****         diff_y += f->row ? cross_pos : main_pos;
 1668              		.loc 2 505 16 discriminator 4 view .LVU546
 1669 02cc 5E44     		add	r6, r6, fp
 1670              	.LVL169:
 505:Middlewares/lvgl/src/extra/layouts/flex/lv_flex.c ****         diff_y += f->row ? cross_pos : main_pos;
 1671              		.loc 2 505 16 discriminator 4 view .LVU547
 1672 02ce B7B2     		uxth	r7, r6
 1673 02d0 36B2     		sxth	r6, r6
 1674              	.LVL170:
 506:Middlewares/lvgl/src/extra/layouts/flex/lv_flex.c **** 
 1675              		.loc 2 506 9 is_stmt 1 discriminator 4 view .LVU548
 506:Middlewares/lvgl/src/extra/layouts/flex/lv_flex.c **** 
 1676              		.loc 2 506 16 is_stmt 0 discriminator 4 view .LVU549
 1677 02d2 002B     		cmp	r3, #0
 1678 02d4 00F0A280 		beq	.L96
 506:Middlewares/lvgl/src/extra/layouts/flex/lv_flex.c **** 
 1679              		.loc 2 506 16 discriminator 1 view .LVU550
 1680 02d8 BDF80CA0 		ldrh	r10, [sp, #12]
 1681              	.LVL171:
 1682              	.L97:
 506:Middlewares/lvgl/src/extra/layouts/flex/lv_flex.c **** 
 1683              		.loc 2 506 16 discriminator 4 view .LVU551
 1684 02dc 5244     		add	r2, r2, r10
 1685              	.LVL172:
 506:Middlewares/lvgl/src/extra/layouts/flex/lv_flex.c **** 
 1686              		.loc 2 506 16 discriminator 4 view .LVU552
 1687 02de 1FFA82F8 		uxth	r8, r2
 1688 02e2 0FFA82FA 		sxth	r10, r2
 1689              	.LVL173:
 508:Middlewares/lvgl/src/extra/layouts/flex/lv_flex.c ****             lv_obj_invalidate(item);
 1690              		.loc 2 508 9 is_stmt 1 discriminator 4 view .LVU553
 508:Middlewares/lvgl/src/extra/layouts/flex/lv_flex.c ****             lv_obj_invalidate(item);
 1691              		.loc 2 508 11 is_stmt 0 discriminator 4 view .LVU554
 1692 02e6 56EA0A03 		orrs	r3, r6, r10
 1693 02ea 40F09A80 		bne	.L120
 1694              	.LVL174:
ARM GAS  /tmp/ccjZBdV3.s 			page 57


 1695              	.L98:
 518:Middlewares/lvgl/src/extra/layouts/flex/lv_flex.c ****         else main_pos -= item_gap + place_gap;
 1696              		.loc 2 518 9 is_stmt 1 view .LVU555
 518:Middlewares/lvgl/src/extra/layouts/flex/lv_flex.c ****         else main_pos -= item_gap + place_gap;
 1697              		.loc 2 518 14 is_stmt 0 view .LVU556
 1698 02ee 99F80330 		ldrb	r3, [r9, #3]	@ zero_extendqisi2
 518:Middlewares/lvgl/src/extra/layouts/flex/lv_flex.c ****         else main_pos -= item_gap + place_gap;
 1699              		.loc 2 518 11 view .LVU557
 1700 02f2 13F0010F 		tst	r3, #1
 1701 02f6 03D0     		beq	.L99
 518:Middlewares/lvgl/src/extra/layouts/flex/lv_flex.c ****         else main_pos -= item_gap + place_gap;
 1702              		.loc 2 518 12 discriminator 2 view .LVU558
 1703 02f8 0A9B     		ldr	r3, [sp, #40]
 1704 02fa 012B     		cmp	r3, #1
 1705 02fc 00F0AB80 		beq	.L100
 1706              	.L99:
 518:Middlewares/lvgl/src/extra/layouts/flex/lv_flex.c ****         else main_pos -= item_gap + place_gap;
 1707              		.loc 2 518 30 is_stmt 1 discriminator 3 view .LVU559
 518:Middlewares/lvgl/src/extra/layouts/flex/lv_flex.c ****         else main_pos -= item_gap + place_gap;
 1708              		.loc 2 518 42 is_stmt 0 discriminator 3 view .LVU560
 1709 0300 05F11400 		add	r0, r5, #20
 1710 0304 069B     		ldr	r3, [sp, #24]
 1711 0306 9847     		blx	r3
 1712              	.LVL175:
 518:Middlewares/lvgl/src/extra/layouts/flex/lv_flex.c ****         else main_pos -= item_gap + place_gap;
 1713              		.loc 2 518 76 discriminator 3 view .LVU561
 1714 0308 099B     		ldr	r3, [sp, #36]
 1715 030a 1844     		add	r0, r0, r3
 518:Middlewares/lvgl/src/extra/layouts/flex/lv_flex.c ****         else main_pos -= item_gap + place_gap;
 1716              		.loc 2 518 87 discriminator 3 view .LVU562
 1717 030c BDF94430 		ldrsh	r3, [sp, #68]
 1718 0310 0344     		add	r3, r3, r0
 518:Middlewares/lvgl/src/extra/layouts/flex/lv_flex.c ****         else main_pos -= item_gap + place_gap;
 1719              		.loc 2 518 39 discriminator 3 view .LVU563
 1720 0312 BDF84620 		ldrh	r2, [sp, #70]
 1721 0316 1344     		add	r3, r3, r2
 1722 0318 ADF84630 		strh	r3, [sp, #70]	@ movhi
 1723              	.L101:
 521:Middlewares/lvgl/src/extra/layouts/flex/lv_flex.c ****     }
 1724              		.loc 2 521 9 is_stmt 1 view .LVU564
 521:Middlewares/lvgl/src/extra/layouts/flex/lv_flex.c ****     }
 1725              		.loc 2 521 37 is_stmt 0 view .LVU565
 1726 031c 99F80310 		ldrb	r1, [r9, #3]	@ zero_extendqisi2
 521:Middlewares/lvgl/src/extra/layouts/flex/lv_flex.c ****     }
 1727              		.loc 2 521 16 view .LVU566
 1728 0320 0DAA     		add	r2, sp, #52
 1729 0322 C1F38001 		ubfx	r1, r1, #2, #1
 1730 0326 0498     		ldr	r0, [sp, #16]
 1731 0328 FFF7FEFF 		bl	get_next_item
 1732              	.LVL176:
 1733 032c 0546     		mov	r5, r0
 1734              	.LVL177:
 1735              	.L73:
 521:Middlewares/lvgl/src/extra/layouts/flex/lv_flex.c ****     }
 1736              		.loc 2 521 16 view .LVU567
 1737              	.LBE87:
 445:Middlewares/lvgl/src/extra/layouts/flex/lv_flex.c ****         if(lv_obj_has_flag_any(item, LV_OBJ_FLAG_IGNORE_LAYOUT | LV_OBJ_FLAG_HIDDEN | LV_OBJ_FLAG_F
ARM GAS  /tmp/ccjZBdV3.s 			page 58


 1738              		.loc 2 445 10 is_stmt 1 view .LVU568
 1739 032e 0D9B     		ldr	r3, [sp, #52]
 1740 0330 059A     		ldr	r2, [sp, #20]
 1741 0332 002D     		cmp	r5, #0
 1742 0334 18BF     		it	ne
 1743 0336 9342     		cmpne	r3, r2
 1744 0338 00F09880 		beq	.L121
 1745              	.LBB98:
 446:Middlewares/lvgl/src/extra/layouts/flex/lv_flex.c ****             item = get_next_item(cont, f->rev, &item_first_id);
 1746              		.loc 2 446 9 view .LVU569
 446:Middlewares/lvgl/src/extra/layouts/flex/lv_flex.c ****             item = get_next_item(cont, f->rev, &item_first_id);
 1747              		.loc 2 446 12 is_stmt 0 view .LVU570
 1748 033c 4D49     		ldr	r1, .L127
 1749 033e 2846     		mov	r0, r5
 446:Middlewares/lvgl/src/extra/layouts/flex/lv_flex.c ****             item = get_next_item(cont, f->rev, &item_first_id);
 1750              		.loc 2 446 12 view .LVU571
 1751 0340 FFF7FEFF 		bl	lv_obj_has_flag_any
 1752              	.LVL178:
 446:Middlewares/lvgl/src/extra/layouts/flex/lv_flex.c ****             item = get_next_item(cont, f->rev, &item_first_id);
 1753              		.loc 2 446 11 view .LVU572
 1754 0344 0028     		cmp	r0, #0
 1755 0346 7FF40BAF 		bne	.L122
 450:Middlewares/lvgl/src/extra/layouts/flex/lv_flex.c ****         if(grow_size) {
 1756              		.loc 2 450 9 is_stmt 1 view .LVU573
 1757              	.LVL179:
 1758              	.LBB96:
 1759              	.LBI96:
 135:Middlewares/lvgl/src/extra/layouts/flex/../flex/lv_flex.h **** {
 1760              		.loc 4 135 23 view .LVU574
 1761              	.LBB97:
 137:Middlewares/lvgl/src/extra/layouts/flex/../flex/lv_flex.h ****     return (uint8_t)v.num;
 1762              		.loc 4 137 5 view .LVU575
 137:Middlewares/lvgl/src/extra/layouts/flex/../flex/lv_flex.h ****     return (uint8_t)v.num;
 1763              		.loc 4 137 26 is_stmt 0 view .LVU576
 1764 034a 4B4B     		ldr	r3, .L127+4
 1765 034c 1A88     		ldrh	r2, [r3]
 1766 034e 0021     		movs	r1, #0
 1767 0350 2846     		mov	r0, r5
 1768 0352 FFF7FEFF 		bl	lv_obj_get_style_prop
 1769              	.LVL180:
 1770              		.loc 4 138 5 is_stmt 1 view .LVU577
 1771              		.loc 4 138 5 is_stmt 0 view .LVU578
 1772              	.LBE97:
 1773              	.LBE96:
 451:Middlewares/lvgl/src/extra/layouts/flex/lv_flex.c ****             lv_coord_t s = 0;
 1774              		.loc 2 451 9 is_stmt 1 view .LVU579
 451:Middlewares/lvgl/src/extra/layouts/flex/lv_flex.c ****             lv_coord_t s = 0;
 1775              		.loc 2 451 11 is_stmt 0 view .LVU580
 1776 0356 10F0FF0F 		tst	r0, #255
 1777 035a 7FF40EAF 		bne	.L123
 474:Middlewares/lvgl/src/extra/layouts/flex/lv_flex.c ****             item->h_layout = 0;
 1778              		.loc 2 474 13 is_stmt 1 view .LVU581
 474:Middlewares/lvgl/src/extra/layouts/flex/lv_flex.c ****             item->h_layout = 0;
 1779              		.loc 2 474 28 is_stmt 0 view .LVU582
 1780 035e 95F82330 		ldrb	r3, [r5, #35]	@ zero_extendqisi2
 1781 0362 6FF38203 		bfc	r3, #2, #1
 1782 0366 85F82330 		strb	r3, [r5, #35]
ARM GAS  /tmp/ccjZBdV3.s 			page 59


 475:Middlewares/lvgl/src/extra/layouts/flex/lv_flex.c ****         }
 1783              		.loc 2 475 13 is_stmt 1 view .LVU583
 475:Middlewares/lvgl/src/extra/layouts/flex/lv_flex.c ****         }
 1784              		.loc 2 475 28 is_stmt 0 view .LVU584
 1785 036a DBB2     		uxtb	r3, r3
 1786 036c 6FF34103 		bfc	r3, #1, #1
 1787 0370 85F82330 		strb	r3, [r5, #35]
 1788              	.LVL181:
 1789              	.L83:
 478:Middlewares/lvgl/src/extra/layouts/flex/lv_flex.c ****         switch(f->cross_place) {
 1790              		.loc 2 478 9 is_stmt 1 view .LVU585
 479:Middlewares/lvgl/src/extra/layouts/flex/lv_flex.c ****         case LV_FLEX_ALIGN_CENTER:
 1791              		.loc 2 479 9 view .LVU586
 479:Middlewares/lvgl/src/extra/layouts/flex/lv_flex.c ****         case LV_FLEX_ALIGN_CENTER:
 1792              		.loc 2 479 17 is_stmt 0 view .LVU587
 1793 0374 99F80130 		ldrb	r3, [r9, #1]	@ zero_extendqisi2
 479:Middlewares/lvgl/src/extra/layouts/flex/lv_flex.c ****         case LV_FLEX_ALIGN_CENTER:
 1794              		.loc 2 479 9 view .LVU588
 1795 0378 012B     		cmp	r3, #1
 1796 037a 3FF451AF 		beq	.L84
 1797 037e 022B     		cmp	r3, #2
 1798 0380 7FF460AF 		bne	.L107
 483:Middlewares/lvgl/src/extra/layouts/flex/lv_flex.c ****             break;
 1799              		.loc 2 483 13 is_stmt 1 view .LVU589
 483:Middlewares/lvgl/src/extra/layouts/flex/lv_flex.c ****             break;
 1800              		.loc 2 483 29 is_stmt 0 view .LVU590
 1801 0384 B4F90060 		ldrsh	r6, [r4]
 483:Middlewares/lvgl/src/extra/layouts/flex/lv_flex.c ****             break;
 1802              		.loc 2 483 48 view .LVU591
 1803 0388 0136     		adds	r6, r6, #1
 483:Middlewares/lvgl/src/extra/layouts/flex/lv_flex.c ****             break;
 1804              		.loc 2 483 53 view .LVU592
 1805 038a 26F00106 		bic	r6, r6, #1
 483:Middlewares/lvgl/src/extra/layouts/flex/lv_flex.c ****             break;
 1806              		.loc 2 483 63 view .LVU593
 1807 038e 05F11400 		add	r0, r5, #20
 1808 0392 0B9B     		ldr	r3, [sp, #44]
 1809 0394 9847     		blx	r3
 1810              	.LVL182:
 483:Middlewares/lvgl/src/extra/layouts/flex/lv_flex.c ****             break;
 1811              		.loc 2 483 99 view .LVU594
 1812 0396 361A     		subs	r6, r6, r0
 1813 0398 3FF540AF 		bmi	.L124
 1814              	.L86:
 483:Middlewares/lvgl/src/extra/layouts/flex/lv_flex.c ****             break;
 1815              		.loc 2 483 23 view .LVU595
 1816 039c 46F34F03 		sbfx	r3, r6, #1, #16
 1817 03a0 0393     		str	r3, [sp, #12]
 1818              	.LVL183:
 484:Middlewares/lvgl/src/extra/layouts/flex/lv_flex.c ****         case LV_FLEX_ALIGN_END:
 1819              		.loc 2 484 13 is_stmt 1 view .LVU596
 1820 03a2 51E7     		b	.L85
 1821              	.L117:
 492:Middlewares/lvgl/src/extra/layouts/flex/lv_flex.c **** 
 1822              		.loc 2 492 27 discriminator 2 view .LVU597
 492:Middlewares/lvgl/src/extra/layouts/flex/lv_flex.c **** 
 1823              		.loc 2 492 39 is_stmt 0 discriminator 2 view .LVU598
ARM GAS  /tmp/ccjZBdV3.s 			page 60


 1824 03a4 05F11400 		add	r0, r5, #20
 1825 03a8 069B     		ldr	r3, [sp, #24]
 1826 03aa 9847     		blx	r3
 1827              	.LVL184:
 1828 03ac 82B2     		uxth	r2, r0
 492:Middlewares/lvgl/src/extra/layouts/flex/lv_flex.c **** 
 1829              		.loc 2 492 36 discriminator 2 view .LVU599
 1830 03ae BDF84630 		ldrh	r3, [sp, #70]
 1831 03b2 9B1A     		subs	r3, r3, r2
 1832 03b4 ADF84630 		strh	r3, [sp, #70]	@ movhi
 1833 03b8 4FE7     		b	.L87
 1834              	.LVL185:
 1835              	.L118:
 500:Middlewares/lvgl/src/extra/layouts/flex/lv_flex.c ****         if(LV_COORD_IS_PCT(tr_y)) tr_y = (h * LV_COORD_GET_PCT(tr_y)) / 100;
 1836              		.loc 2 500 12 discriminator 1 view .LVU600
 1837 03ba 2BF4C043 		bic	r3, fp, #24576
 1838 03be B3F5FA6F 		cmp	r3, #2000
 1839 03c2 3FF769AF 		bgt	.L88
 500:Middlewares/lvgl/src/extra/layouts/flex/lv_flex.c ****         if(LV_COORD_IS_PCT(tr_y)) tr_y = (h * LV_COORD_GET_PCT(tr_y)) / 100;
 1840              		.loc 2 500 35 is_stmt 1 discriminator 2 view .LVU601
 500:Middlewares/lvgl/src/extra/layouts/flex/lv_flex.c ****         if(LV_COORD_IS_PCT(tr_y)) tr_y = (h * LV_COORD_GET_PCT(tr_y)) / 100;
 1841              		.loc 2 500 47 is_stmt 0 discriminator 2 view .LVU602
 1842 03c6 B3F57A7F 		cmp	r3, #1000
 1843 03ca 01DD     		ble	.L90
 500:Middlewares/lvgl/src/extra/layouts/flex/lv_flex.c ****         if(LV_COORD_IS_PCT(tr_y)) tr_y = (h * LV_COORD_GET_PCT(tr_y)) / 100;
 1844              		.loc 2 500 47 discriminator 3 view .LVU603
 1845 03cc C3F57A73 		rsb	r3, r3, #1000
 1846              	.L90:
 500:Middlewares/lvgl/src/extra/layouts/flex/lv_flex.c ****         if(LV_COORD_IS_PCT(tr_y)) tr_y = (h * LV_COORD_GET_PCT(tr_y)) / 100;
 1847              		.loc 2 500 45 discriminator 6 view .LVU604
 1848 03d0 03FB08F8 		mul	r8, r3, r8
 1849              	.LVL186:
 500:Middlewares/lvgl/src/extra/layouts/flex/lv_flex.c ****         if(LV_COORD_IS_PCT(tr_y)) tr_y = (h * LV_COORD_GET_PCT(tr_y)) / 100;
 1850              		.loc 2 500 71 discriminator 6 view .LVU605
 1851 03d4 294B     		ldr	r3, .L127+8
 1852 03d6 83FB083B 		smull	r3, fp, r3, r8
 1853              	.LVL187:
 500:Middlewares/lvgl/src/extra/layouts/flex/lv_flex.c ****         if(LV_COORD_IS_PCT(tr_y)) tr_y = (h * LV_COORD_GET_PCT(tr_y)) / 100;
 1854              		.loc 2 500 71 discriminator 6 view .LVU606
 1855 03da 4FEAE878 		asr	r8, r8, #31
 1856 03de C8EB6B1B 		rsb	fp, r8, fp, asr #5
 500:Middlewares/lvgl/src/extra/layouts/flex/lv_flex.c ****         if(LV_COORD_IS_PCT(tr_y)) tr_y = (h * LV_COORD_GET_PCT(tr_y)) / 100;
 1857              		.loc 2 500 40 discriminator 6 view .LVU607
 1858 03e2 0FFA8BFB 		sxth	fp, fp
 1859              	.LVL188:
 500:Middlewares/lvgl/src/extra/layouts/flex/lv_flex.c ****         if(LV_COORD_IS_PCT(tr_y)) tr_y = (h * LV_COORD_GET_PCT(tr_y)) / 100;
 1860              		.loc 2 500 40 discriminator 6 view .LVU608
 1861 03e6 57E7     		b	.L88
 1862              	.L119:
 501:Middlewares/lvgl/src/extra/layouts/flex/lv_flex.c **** 
 1863              		.loc 2 501 12 discriminator 1 view .LVU609
 1864 03e8 2AF4C043 		bic	r3, r10, #24576
 1865 03ec B3F5FA6F 		cmp	r3, #2000
 1866 03f0 3FF758AF 		bgt	.L91
 501:Middlewares/lvgl/src/extra/layouts/flex/lv_flex.c **** 
 1867              		.loc 2 501 35 is_stmt 1 discriminator 2 view .LVU610
 501:Middlewares/lvgl/src/extra/layouts/flex/lv_flex.c **** 
ARM GAS  /tmp/ccjZBdV3.s 			page 61


 1868              		.loc 2 501 47 is_stmt 0 discriminator 2 view .LVU611
 1869 03f4 B3F57A7F 		cmp	r3, #1000
 1870 03f8 01DD     		ble	.L93
 501:Middlewares/lvgl/src/extra/layouts/flex/lv_flex.c **** 
 1871              		.loc 2 501 47 discriminator 3 view .LVU612
 1872 03fa C3F57A73 		rsb	r3, r3, #1000
 1873              	.L93:
 501:Middlewares/lvgl/src/extra/layouts/flex/lv_flex.c **** 
 1874              		.loc 2 501 45 discriminator 6 view .LVU613
 1875 03fe 00FB03F3 		mul	r3, r0, r3
 501:Middlewares/lvgl/src/extra/layouts/flex/lv_flex.c **** 
 1876              		.loc 2 501 71 discriminator 6 view .LVU614
 1877 0402 1E4A     		ldr	r2, .L127+8
 1878 0404 82FB0312 		smull	r1, r2, r2, r3
 1879 0408 4FEAE37A 		asr	r10, r3, #31
 1880              	.LVL189:
 501:Middlewares/lvgl/src/extra/layouts/flex/lv_flex.c **** 
 1881              		.loc 2 501 71 discriminator 6 view .LVU615
 1882 040c CAEB621A 		rsb	r10, r10, r2, asr #5
 501:Middlewares/lvgl/src/extra/layouts/flex/lv_flex.c **** 
 1883              		.loc 2 501 40 discriminator 6 view .LVU616
 1884 0410 0FFA8AFA 		sxth	r10, r10
 1885              	.LVL190:
 501:Middlewares/lvgl/src/extra/layouts/flex/lv_flex.c **** 
 1886              		.loc 2 501 40 discriminator 6 view .LVU617
 1887 0414 46E7     		b	.L91
 1888              	.LVL191:
 1889              	.L94:
 505:Middlewares/lvgl/src/extra/layouts/flex/lv_flex.c ****         diff_y += f->row ? cross_pos : main_pos;
 1890              		.loc 2 505 16 discriminator 2 view .LVU618
 1891 0416 BDF80CB0 		ldrh	fp, [sp, #12]
 1892              	.LVL192:
 505:Middlewares/lvgl/src/extra/layouts/flex/lv_flex.c ****         diff_y += f->row ? cross_pos : main_pos;
 1893              		.loc 2 505 16 discriminator 2 view .LVU619
 1894 041a 57E7     		b	.L95
 1895              	.L96:
 506:Middlewares/lvgl/src/extra/layouts/flex/lv_flex.c **** 
 1896              		.loc 2 506 16 discriminator 2 view .LVU620
 1897 041c BDF846A0 		ldrh	r10, [sp, #70]
 1898              	.LVL193:
 506:Middlewares/lvgl/src/extra/layouts/flex/lv_flex.c **** 
 1899              		.loc 2 506 16 discriminator 2 view .LVU621
 1900 0420 5CE7     		b	.L97
 1901              	.LVL194:
 1902              	.L120:
 509:Middlewares/lvgl/src/extra/layouts/flex/lv_flex.c ****             item->coords.x1 += diff_x;
 1903              		.loc 2 509 13 is_stmt 1 view .LVU622
 1904 0422 2846     		mov	r0, r5
 1905              	.LVL195:
 509:Middlewares/lvgl/src/extra/layouts/flex/lv_flex.c ****             item->coords.x1 += diff_x;
 1906              		.loc 2 509 13 is_stmt 0 view .LVU623
 1907 0424 FFF7FEFF 		bl	lv_obj_invalidate
 1908              	.LVL196:
 510:Middlewares/lvgl/src/extra/layouts/flex/lv_flex.c ****             item->coords.x2 += diff_x;
 1909              		.loc 2 510 13 is_stmt 1 view .LVU624
 510:Middlewares/lvgl/src/extra/layouts/flex/lv_flex.c ****             item->coords.x2 += diff_x;
 1910              		.loc 2 510 29 is_stmt 0 view .LVU625
ARM GAS  /tmp/ccjZBdV3.s 			page 62


 1911 0428 AB8A     		ldrh	r3, [r5, #20]
 1912 042a 3B44     		add	r3, r3, r7
 1913 042c AB82     		strh	r3, [r5, #20]	@ movhi
 511:Middlewares/lvgl/src/extra/layouts/flex/lv_flex.c ****             item->coords.y1 += diff_y;
 1914              		.loc 2 511 13 is_stmt 1 view .LVU626
 511:Middlewares/lvgl/src/extra/layouts/flex/lv_flex.c ****             item->coords.y1 += diff_y;
 1915              		.loc 2 511 29 is_stmt 0 view .LVU627
 1916 042e 2B8B     		ldrh	r3, [r5, #24]
 1917 0430 1F44     		add	r7, r7, r3
 1918 0432 2F83     		strh	r7, [r5, #24]	@ movhi
 512:Middlewares/lvgl/src/extra/layouts/flex/lv_flex.c ****             item->coords.y2 += diff_y;
 1919              		.loc 2 512 13 is_stmt 1 view .LVU628
 512:Middlewares/lvgl/src/extra/layouts/flex/lv_flex.c ****             item->coords.y2 += diff_y;
 1920              		.loc 2 512 29 is_stmt 0 view .LVU629
 1921 0434 EB8A     		ldrh	r3, [r5, #22]
 1922 0436 4344     		add	r3, r3, r8
 1923 0438 EB82     		strh	r3, [r5, #22]	@ movhi
 513:Middlewares/lvgl/src/extra/layouts/flex/lv_flex.c ****             lv_obj_invalidate(item);
 1924              		.loc 2 513 13 is_stmt 1 view .LVU630
 513:Middlewares/lvgl/src/extra/layouts/flex/lv_flex.c ****             lv_obj_invalidate(item);
 1925              		.loc 2 513 29 is_stmt 0 view .LVU631
 1926 043a 6B8B     		ldrh	r3, [r5, #26]
 1927 043c 9844     		add	r8, r8, r3
 1928 043e A5F81A80 		strh	r8, [r5, #26]	@ movhi
 514:Middlewares/lvgl/src/extra/layouts/flex/lv_flex.c ****             lv_obj_move_children_by(item, diff_x, diff_y, true);
 1929              		.loc 2 514 13 is_stmt 1 view .LVU632
 1930 0442 2846     		mov	r0, r5
 1931 0444 FFF7FEFF 		bl	lv_obj_invalidate
 1932              	.LVL197:
 515:Middlewares/lvgl/src/extra/layouts/flex/lv_flex.c ****         }
 1933              		.loc 2 515 13 view .LVU633
 1934 0448 0123     		movs	r3, #1
 1935 044a 5246     		mov	r2, r10
 1936 044c 3146     		mov	r1, r6
 1937 044e 2846     		mov	r0, r5
 1938 0450 FFF7FEFF 		bl	lv_obj_move_children_by
 1939              	.LVL198:
 1940 0454 4BE7     		b	.L98
 1941              	.L100:
 519:Middlewares/lvgl/src/extra/layouts/flex/lv_flex.c **** 
 1942              		.loc 2 519 14 view .LVU634
 519:Middlewares/lvgl/src/extra/layouts/flex/lv_flex.c **** 
 1943              		.loc 2 519 35 is_stmt 0 view .LVU635
 1944 0456 BDF84430 		ldrh	r3, [sp, #68]
 1945 045a 099A     		ldr	r2, [sp, #36]
 1946 045c 1344     		add	r3, r3, r2
 1947 045e 9BB2     		uxth	r3, r3
 519:Middlewares/lvgl/src/extra/layouts/flex/lv_flex.c **** 
 1948              		.loc 2 519 23 view .LVU636
 1949 0460 BDF84620 		ldrh	r2, [sp, #70]
 1950 0464 D31A     		subs	r3, r2, r3
 1951 0466 ADF84630 		strh	r3, [sp, #70]	@ movhi
 1952 046a 57E7     		b	.L101
 1953              	.LVL199:
 1954              	.L121:
 519:Middlewares/lvgl/src/extra/layouts/flex/lv_flex.c **** 
 1955              		.loc 2 519 23 view .LVU637
ARM GAS  /tmp/ccjZBdV3.s 			page 63


 1956              	.LBE98:
 523:Middlewares/lvgl/src/extra/layouts/flex/lv_flex.c **** 
 1957              		.loc 2 523 1 view .LVU638
 1958 046c 13B0     		add	sp, sp, #76
 1959              	.LCFI9:
 1960              		.cfi_def_cfa_offset 36
 1961              		@ sp needed
 1962 046e BDE8F08F 		pop	{r4, r5, r6, r7, r8, r9, r10, fp, pc}
 1963              	.LVL200:
 1964              	.L128:
 523:Middlewares/lvgl/src/extra/layouts/flex/lv_flex.c **** 
 1965              		.loc 2 523 1 view .LVU639
 1966 0472 00BF     		.align	2
 1967              	.L127:
 1968 0474 01800100 		.word	98305
 1969 0478 00000000 		.word	.LANCHOR0
 1970 047c 1F85EB51 		.word	1374389535
 1971              		.cfi_endproc
 1972              	.LFE179:
 1974              		.section	.text.flex_update,"ax",%progbits
 1975              		.align	1
 1976              		.syntax unified
 1977              		.thumb
 1978              		.thumb_func
 1979              		.fpu fpv5-d16
 1981              	flex_update:
 1982              	.LVL201:
 1983              	.LFB177:
 206:Middlewares/lvgl/src/extra/layouts/flex/lv_flex.c ****     LV_LOG_INFO("update %p container", cont);
 1984              		.loc 2 206 1 is_stmt 1 view -0
 1985              		.cfi_startproc
 1986              		@ args = 0, pretend = 0, frame = 56
 1987              		@ frame_needed = 0, uses_anonymous_args = 0
 206:Middlewares/lvgl/src/extra/layouts/flex/lv_flex.c ****     LV_LOG_INFO("update %p container", cont);
 1988              		.loc 2 206 1 is_stmt 0 view .LVU641
 1989 0000 2DE9F04F 		push	{r4, r5, r6, r7, r8, r9, r10, fp, lr}
 1990              	.LCFI10:
 1991              		.cfi_def_cfa_offset 36
 1992              		.cfi_offset 4, -36
 1993              		.cfi_offset 5, -32
 1994              		.cfi_offset 6, -28
 1995              		.cfi_offset 7, -24
 1996              		.cfi_offset 8, -20
 1997              		.cfi_offset 9, -16
 1998              		.cfi_offset 10, -12
 1999              		.cfi_offset 11, -8
 2000              		.cfi_offset 14, -4
 2001 0004 95B0     		sub	sp, sp, #84
 2002              	.LCFI11:
 2003              		.cfi_def_cfa_offset 120
 2004 0006 0446     		mov	r4, r0
 207:Middlewares/lvgl/src/extra/layouts/flex/lv_flex.c ****     LV_UNUSED(user_data);
 2005              		.loc 2 207 45 is_stmt 1 view .LVU642
 208:Middlewares/lvgl/src/extra/layouts/flex/lv_flex.c **** 
 2006              		.loc 2 208 5 view .LVU643
 210:Middlewares/lvgl/src/extra/layouts/flex/lv_flex.c ****     lv_flex_flow_t flow = lv_obj_get_style_flex_flow(cont, LV_PART_MAIN);
 2007              		.loc 2 210 5 view .LVU644
ARM GAS  /tmp/ccjZBdV3.s 			page 64


 211:Middlewares/lvgl/src/extra/layouts/flex/lv_flex.c ****     f.row = flow & _LV_FLEX_COLUMN ? 0 : 1;
 2008              		.loc 2 211 5 view .LVU645
 2009              	.LVL202:
 2010              	.LBB99:
 2011              	.LBI99:
 111:Middlewares/lvgl/src/extra/layouts/flex/../flex/lv_flex.h **** {
 2012              		.loc 4 111 30 view .LVU646
 2013              	.LBB100:
 113:Middlewares/lvgl/src/extra/layouts/flex/../flex/lv_flex.h ****     return (lv_flex_flow_t)v.num;
 2014              		.loc 4 113 5 view .LVU647
 113:Middlewares/lvgl/src/extra/layouts/flex/../flex/lv_flex.h ****     return (lv_flex_flow_t)v.num;
 2015              		.loc 4 113 26 is_stmt 0 view .LVU648
 2016 0008 B74B     		ldr	r3, .L173
 2017 000a 1A88     		ldrh	r2, [r3]
 2018 000c 0021     		movs	r1, #0
 2019              	.LVL203:
 113:Middlewares/lvgl/src/extra/layouts/flex/../flex/lv_flex.h ****     return (lv_flex_flow_t)v.num;
 2020              		.loc 4 113 26 view .LVU649
 2021 000e FFF7FEFF 		bl	lv_obj_get_style_prop
 2022              	.LVL204:
 114:Middlewares/lvgl/src/extra/layouts/flex/../flex/lv_flex.h **** }
 2023              		.loc 4 114 5 is_stmt 1 view .LVU650
 114:Middlewares/lvgl/src/extra/layouts/flex/../flex/lv_flex.h **** }
 2024              		.loc 4 114 5 is_stmt 0 view .LVU651
 2025              	.LBE100:
 2026              	.LBE99:
 212:Middlewares/lvgl/src/extra/layouts/flex/lv_flex.c ****     f.wrap = flow & _LV_FLEX_WRAP ? 1 : 0;
 2027              		.loc 2 212 5 is_stmt 1 view .LVU652
 212:Middlewares/lvgl/src/extra/layouts/flex/lv_flex.c ****     f.wrap = flow & _LV_FLEX_WRAP ? 1 : 0;
 2028              		.loc 2 212 40 is_stmt 0 view .LVU653
 2029 0012 10F0010F 		tst	r0, #1
 2030 0016 0CBF     		ite	eq
 2031 0018 0122     		moveq	r2, #1
 2032 001a 0022     		movne	r2, #0
 212:Middlewares/lvgl/src/extra/layouts/flex/lv_flex.c ****     f.wrap = flow & _LV_FLEX_WRAP ? 1 : 0;
 2033              		.loc 2 212 11 view .LVU654
 2034 001c 9DF84F30 		ldrb	r3, [sp, #79]	@ zero_extendqisi2
 2035 0020 62F30003 		bfi	r3, r2, #0, #1
 2036 0024 8DF84F30 		strb	r3, [sp, #79]
 213:Middlewares/lvgl/src/extra/layouts/flex/lv_flex.c ****     f.rev = flow & _LV_FLEX_REVERSE ? 1 : 0;
 2037              		.loc 2 213 5 is_stmt 1 view .LVU655
 213:Middlewares/lvgl/src/extra/layouts/flex/lv_flex.c ****     f.rev = flow & _LV_FLEX_REVERSE ? 1 : 0;
 2038              		.loc 2 213 39 is_stmt 0 view .LVU656
 2039 0028 C0F38002 		ubfx	r2, r0, #2, #1
 213:Middlewares/lvgl/src/extra/layouts/flex/lv_flex.c ****     f.rev = flow & _LV_FLEX_REVERSE ? 1 : 0;
 2040              		.loc 2 213 12 view .LVU657
 2041 002c DBB2     		uxtb	r3, r3
 2042 002e 62F34103 		bfi	r3, r2, #1, #1
 2043 0032 8DF84F30 		strb	r3, [sp, #79]
 214:Middlewares/lvgl/src/extra/layouts/flex/lv_flex.c ****     f.main_place = lv_obj_get_style_flex_main_place(cont, LV_PART_MAIN);
 2044              		.loc 2 214 5 is_stmt 1 view .LVU658
 214:Middlewares/lvgl/src/extra/layouts/flex/lv_flex.c ****     f.main_place = lv_obj_get_style_flex_main_place(cont, LV_PART_MAIN);
 2045              		.loc 2 214 41 is_stmt 0 view .LVU659
 2046 0036 C0F3C000 		ubfx	r0, r0, #3, #1
 2047              	.LVL205:
 214:Middlewares/lvgl/src/extra/layouts/flex/lv_flex.c ****     f.main_place = lv_obj_get_style_flex_main_place(cont, LV_PART_MAIN);
 2048              		.loc 2 214 11 view .LVU660
ARM GAS  /tmp/ccjZBdV3.s 			page 65


 2049 003a DBB2     		uxtb	r3, r3
 2050 003c 60F38203 		bfi	r3, r0, #2, #1
 2051 0040 8DF84F30 		strb	r3, [sp, #79]
 215:Middlewares/lvgl/src/extra/layouts/flex/lv_flex.c ****     f.cross_place = lv_obj_get_style_flex_cross_place(cont, LV_PART_MAIN);
 2052              		.loc 2 215 5 is_stmt 1 view .LVU661
 2053              	.LVL206:
 2054              	.LBB101:
 2055              	.LBI101:
 117:Middlewares/lvgl/src/extra/layouts/flex/../flex/lv_flex.h **** {
 2056              		.loc 4 117 31 view .LVU662
 2057              	.LBB102:
 119:Middlewares/lvgl/src/extra/layouts/flex/../flex/lv_flex.h ****     return (lv_flex_align_t)v.num;
 2058              		.loc 4 119 5 view .LVU663
 119:Middlewares/lvgl/src/extra/layouts/flex/../flex/lv_flex.h ****     return (lv_flex_align_t)v.num;
 2059              		.loc 4 119 26 is_stmt 0 view .LVU664
 2060 0044 A94B     		ldr	r3, .L173+4
 2061 0046 1A88     		ldrh	r2, [r3]
 2062 0048 0021     		movs	r1, #0
 2063 004a 2046     		mov	r0, r4
 2064 004c FFF7FEFF 		bl	lv_obj_get_style_prop
 2065              	.LVL207:
 120:Middlewares/lvgl/src/extra/layouts/flex/../flex/lv_flex.h **** }
 2066              		.loc 4 120 5 is_stmt 1 view .LVU665
 120:Middlewares/lvgl/src/extra/layouts/flex/../flex/lv_flex.h **** }
 2067              		.loc 4 120 5 is_stmt 0 view .LVU666
 2068              	.LBE102:
 2069              	.LBE101:
 215:Middlewares/lvgl/src/extra/layouts/flex/lv_flex.c ****     f.cross_place = lv_obj_get_style_flex_cross_place(cont, LV_PART_MAIN);
 2070              		.loc 2 215 18 view .LVU667
 2071 0050 8DF84C00 		strb	r0, [sp, #76]
 216:Middlewares/lvgl/src/extra/layouts/flex/lv_flex.c ****     f.track_place = lv_obj_get_style_flex_track_place(cont, LV_PART_MAIN);
 2072              		.loc 2 216 5 is_stmt 1 view .LVU668
 2073              	.LVL208:
 2074              	.LBB103:
 2075              	.LBI103:
 123:Middlewares/lvgl/src/extra/layouts/flex/../flex/lv_flex.h **** {
 2076              		.loc 4 123 31 view .LVU669
 2077              	.LBB104:
 125:Middlewares/lvgl/src/extra/layouts/flex/../flex/lv_flex.h ****     return (lv_flex_align_t)v.num;
 2078              		.loc 4 125 5 view .LVU670
 125:Middlewares/lvgl/src/extra/layouts/flex/../flex/lv_flex.h ****     return (lv_flex_align_t)v.num;
 2079              		.loc 4 125 26 is_stmt 0 view .LVU671
 2080 0054 A64B     		ldr	r3, .L173+8
 2081 0056 1A88     		ldrh	r2, [r3]
 2082 0058 0021     		movs	r1, #0
 2083 005a 2046     		mov	r0, r4
 2084 005c FFF7FEFF 		bl	lv_obj_get_style_prop
 2085              	.LVL209:
 126:Middlewares/lvgl/src/extra/layouts/flex/../flex/lv_flex.h **** }
 2086              		.loc 4 126 5 is_stmt 1 view .LVU672
 126:Middlewares/lvgl/src/extra/layouts/flex/../flex/lv_flex.h **** }
 2087              		.loc 4 126 5 is_stmt 0 view .LVU673
 2088              	.LBE104:
 2089              	.LBE103:
 216:Middlewares/lvgl/src/extra/layouts/flex/lv_flex.c ****     f.track_place = lv_obj_get_style_flex_track_place(cont, LV_PART_MAIN);
 2090              		.loc 2 216 19 view .LVU674
 2091 0060 8DF84D00 		strb	r0, [sp, #77]
ARM GAS  /tmp/ccjZBdV3.s 			page 66


 217:Middlewares/lvgl/src/extra/layouts/flex/lv_flex.c **** 
 2092              		.loc 2 217 5 is_stmt 1 view .LVU675
 2093              	.LVL210:
 2094              	.LBB105:
 2095              	.LBI105:
 129:Middlewares/lvgl/src/extra/layouts/flex/../flex/lv_flex.h **** {
 2096              		.loc 4 129 31 view .LVU676
 2097              	.LBB106:
 131:Middlewares/lvgl/src/extra/layouts/flex/../flex/lv_flex.h ****     return (lv_flex_align_t)v.num;
 2098              		.loc 4 131 5 view .LVU677
 131:Middlewares/lvgl/src/extra/layouts/flex/../flex/lv_flex.h ****     return (lv_flex_align_t)v.num;
 2099              		.loc 4 131 26 is_stmt 0 view .LVU678
 2100 0064 A34B     		ldr	r3, .L173+12
 2101 0066 1A88     		ldrh	r2, [r3]
 2102 0068 0021     		movs	r1, #0
 2103 006a 2046     		mov	r0, r4
 2104 006c FFF7FEFF 		bl	lv_obj_get_style_prop
 2105              	.LVL211:
 132:Middlewares/lvgl/src/extra/layouts/flex/../flex/lv_flex.h **** }
 2106              		.loc 4 132 5 is_stmt 1 view .LVU679
 132:Middlewares/lvgl/src/extra/layouts/flex/../flex/lv_flex.h **** }
 2107              		.loc 4 132 5 is_stmt 0 view .LVU680
 2108              	.LBE106:
 2109              	.LBE105:
 217:Middlewares/lvgl/src/extra/layouts/flex/lv_flex.c **** 
 2110              		.loc 2 217 19 view .LVU681
 2111 0070 8DF84E00 		strb	r0, [sp, #78]
 219:Middlewares/lvgl/src/extra/layouts/flex/lv_flex.c ****     lv_coord_t track_gap = !f.row ? lv_obj_get_style_pad_column(cont, LV_PART_MAIN) : lv_obj_get_st
 2112              		.loc 2 219 5 is_stmt 1 view .LVU682
 2113              	.LVL212:
 2114              	.LBB107:
 2115              	.LBI107:
 187:Middlewares/lvgl/src/extra/layouts/flex/../flex/../../../core/lv_obj_style_gen.h **** {
 2116              		.loc 3 187 29 view .LVU683
 2117              	.LBB108:
 189:Middlewares/lvgl/src/extra/layouts/flex/../flex/../../../core/lv_obj_style_gen.h ****     return (lv_base_dir_t)v.num;
 2118              		.loc 3 189 5 view .LVU684
 189:Middlewares/lvgl/src/extra/layouts/flex/../flex/../../../core/lv_obj_style_gen.h ****     return (lv_base_dir_t)v.num;
 2119              		.loc 3 189 26 is_stmt 0 view .LVU685
 2120 0074 41F26A42 		movw	r2, #5226
 2121 0078 0021     		movs	r1, #0
 2122 007a 2046     		mov	r0, r4
 2123 007c FFF7FEFF 		bl	lv_obj_get_style_prop
 2124              	.LVL213:
 2125              		.loc 3 190 5 is_stmt 1 view .LVU686
 2126              		.loc 3 190 12 is_stmt 0 view .LVU687
 2127 0080 5FFA80F8 		uxtb	r8, r0
 2128              	.LVL214:
 2129              		.loc 3 190 12 view .LVU688
 2130              	.LBE108:
 2131              	.LBE107:
 220:Middlewares/lvgl/src/extra/layouts/flex/lv_flex.c ****     lv_coord_t item_gap = f.row ? lv_obj_get_style_pad_column(cont, LV_PART_MAIN) : lv_obj_get_styl
 2132              		.loc 2 220 5 is_stmt 1 view .LVU689
 220:Middlewares/lvgl/src/extra/layouts/flex/lv_flex.c ****     lv_coord_t item_gap = f.row ? lv_obj_get_style_pad_column(cont, LV_PART_MAIN) : lv_obj_get_styl
 2133              		.loc 2 220 28 is_stmt 0 view .LVU690
 2134 0084 9DF84F30 		ldrb	r3, [sp, #79]	@ zero_extendqisi2
 220:Middlewares/lvgl/src/extra/layouts/flex/lv_flex.c ****     lv_coord_t item_gap = f.row ? lv_obj_get_style_pad_column(cont, LV_PART_MAIN) : lv_obj_get_styl
ARM GAS  /tmp/ccjZBdV3.s 			page 67


 2135              		.loc 2 220 16 view .LVU691
 2136 0088 13F0010F 		tst	r3, #1
 2137 008c 40F08D80 		bne	.L130
 2138              	.LVL215:
 2139              	.LBB109:
 2140              	.LBI109:
 121:Middlewares/lvgl/src/extra/layouts/flex/../flex/../../../core/lv_obj_style_gen.h **** {
 2141              		.loc 3 121 26 is_stmt 1 view .LVU692
 2142              	.LBB110:
 123:Middlewares/lvgl/src/extra/layouts/flex/../flex/../../../core/lv_obj_style_gen.h ****     return (lv_coord_t)v.num;
 2143              		.loc 3 123 5 view .LVU693
 123:Middlewares/lvgl/src/extra/layouts/flex/../flex/../../../core/lv_obj_style_gen.h ****     return (lv_coord_t)v.num;
 2144              		.loc 3 123 26 is_stmt 0 view .LVU694
 2145 0090 41F21502 		movw	r2, #4117
 2146 0094 0021     		movs	r1, #0
 2147 0096 2046     		mov	r0, r4
 2148 0098 FFF7FEFF 		bl	lv_obj_get_style_prop
 2149              	.LVL216:
 124:Middlewares/lvgl/src/extra/layouts/flex/../flex/../../../core/lv_obj_style_gen.h **** }
 2150              		.loc 3 124 5 is_stmt 1 view .LVU695
 124:Middlewares/lvgl/src/extra/layouts/flex/../flex/../../../core/lv_obj_style_gen.h **** }
 2151              		.loc 3 124 12 is_stmt 0 view .LVU696
 2152 009c 0FFA80FA 		sxth	r10, r0
 2153              	.LVL217:
 2154              	.L131:
 124:Middlewares/lvgl/src/extra/layouts/flex/../flex/../../../core/lv_obj_style_gen.h **** }
 2155              		.loc 3 124 12 view .LVU697
 2156              	.LBE110:
 2157              	.LBE109:
 221:Middlewares/lvgl/src/extra/layouts/flex/lv_flex.c ****     lv_coord_t max_main_size = (f.row ? lv_obj_get_content_width(cont) : lv_obj_get_content_height(
 2158              		.loc 2 221 5 is_stmt 1 discriminator 4 view .LVU698
 221:Middlewares/lvgl/src/extra/layouts/flex/lv_flex.c ****     lv_coord_t max_main_size = (f.row ? lv_obj_get_content_width(cont) : lv_obj_get_content_height(
 2159              		.loc 2 221 33 is_stmt 0 discriminator 4 view .LVU699
 2160 00a0 9DF84F30 		ldrb	r3, [sp, #79]	@ zero_extendqisi2
 221:Middlewares/lvgl/src/extra/layouts/flex/lv_flex.c ****     lv_coord_t max_main_size = (f.row ? lv_obj_get_content_width(cont) : lv_obj_get_content_height(
 2161              		.loc 2 221 16 discriminator 4 view .LVU700
 2162 00a4 13F0010F 		tst	r3, #1
 2163 00a8 00F08880 		beq	.L132
 2164              	.LVL218:
 2165              	.LBB111:
 2166              	.LBI111:
 121:Middlewares/lvgl/src/extra/layouts/flex/../flex/../../../core/lv_obj_style_gen.h **** {
 2167              		.loc 3 121 26 is_stmt 1 view .LVU701
 2168              	.LBB112:
 123:Middlewares/lvgl/src/extra/layouts/flex/../flex/../../../core/lv_obj_style_gen.h ****     return (lv_coord_t)v.num;
 2169              		.loc 3 123 5 view .LVU702
 123:Middlewares/lvgl/src/extra/layouts/flex/../flex/../../../core/lv_obj_style_gen.h ****     return (lv_coord_t)v.num;
 2170              		.loc 3 123 26 is_stmt 0 view .LVU703
 2171 00ac 41F21502 		movw	r2, #4117
 2172 00b0 0021     		movs	r1, #0
 2173 00b2 2046     		mov	r0, r4
 2174 00b4 FFF7FEFF 		bl	lv_obj_get_style_prop
 2175              	.LVL219:
 124:Middlewares/lvgl/src/extra/layouts/flex/../flex/../../../core/lv_obj_style_gen.h **** }
 2176              		.loc 3 124 5 is_stmt 1 view .LVU704
 124:Middlewares/lvgl/src/extra/layouts/flex/../flex/../../../core/lv_obj_style_gen.h **** }
 2177              		.loc 3 124 12 is_stmt 0 view .LVU705
ARM GAS  /tmp/ccjZBdV3.s 			page 68


 2178 00b8 06B2     		sxth	r6, r0
 2179              	.LVL220:
 2180              	.L133:
 124:Middlewares/lvgl/src/extra/layouts/flex/../flex/../../../core/lv_obj_style_gen.h **** }
 2181              		.loc 3 124 12 view .LVU706
 2182              	.LBE112:
 2183              	.LBE111:
 222:Middlewares/lvgl/src/extra/layouts/flex/lv_flex.c ****     lv_coord_t border_widt = lv_obj_get_style_border_width(cont, LV_PART_MAIN);
 2184              		.loc 2 222 5 is_stmt 1 discriminator 4 view .LVU707
 222:Middlewares/lvgl/src/extra/layouts/flex/lv_flex.c ****     lv_coord_t border_widt = lv_obj_get_style_border_width(cont, LV_PART_MAIN);
 2185              		.loc 2 222 39 is_stmt 0 discriminator 4 view .LVU708
 2186 00ba 9DF84F30 		ldrb	r3, [sp, #79]	@ zero_extendqisi2
 222:Middlewares/lvgl/src/extra/layouts/flex/lv_flex.c ****     lv_coord_t border_widt = lv_obj_get_style_border_width(cont, LV_PART_MAIN);
 2187              		.loc 2 222 16 discriminator 4 view .LVU709
 2188 00be 13F0010F 		tst	r3, #1
 2189 00c2 00F08380 		beq	.L134
 222:Middlewares/lvgl/src/extra/layouts/flex/lv_flex.c ****     lv_coord_t border_widt = lv_obj_get_style_border_width(cont, LV_PART_MAIN);
 2190              		.loc 2 222 41 discriminator 1 view .LVU710
 2191 00c6 2046     		mov	r0, r4
 2192 00c8 FFF7FEFF 		bl	lv_obj_get_content_width
 2193              	.LVL221:
 2194 00cc 0746     		mov	r7, r0
 2195              	.L135:
 2196              	.LVL222:
 223:Middlewares/lvgl/src/extra/layouts/flex/lv_flex.c ****     lv_coord_t abs_y = cont->coords.y1 + lv_obj_get_style_pad_top(cont, LV_PART_MAIN) + border_widt
 2197              		.loc 2 223 5 is_stmt 1 discriminator 4 view .LVU711
 2198              	.LBB113:
 2199              	.LBI113:
 191:Middlewares/lvgl/src/extra/layouts/flex/../flex/../../../core/lv_obj_style_gen.h **** }
 192:Middlewares/lvgl/src/extra/layouts/flex/../flex/../../../core/lv_obj_style_gen.h **** 
 193:Middlewares/lvgl/src/extra/layouts/flex/../flex/../../../core/lv_obj_style_gen.h **** static inline lv_color_t lv_obj_get_style_bg_color(const struct _lv_obj_t * obj, uint32_t part)
 194:Middlewares/lvgl/src/extra/layouts/flex/../flex/../../../core/lv_obj_style_gen.h **** {
 195:Middlewares/lvgl/src/extra/layouts/flex/../flex/../../../core/lv_obj_style_gen.h ****     lv_style_value_t v = lv_obj_get_style_prop(obj, part, LV_STYLE_BG_COLOR);
 196:Middlewares/lvgl/src/extra/layouts/flex/../flex/../../../core/lv_obj_style_gen.h ****     return v.color;
 197:Middlewares/lvgl/src/extra/layouts/flex/../flex/../../../core/lv_obj_style_gen.h **** }
 198:Middlewares/lvgl/src/extra/layouts/flex/../flex/../../../core/lv_obj_style_gen.h **** 
 199:Middlewares/lvgl/src/extra/layouts/flex/../flex/../../../core/lv_obj_style_gen.h **** static inline lv_color_t lv_obj_get_style_bg_color_filtered(const struct _lv_obj_t * obj, uint32_t 
 200:Middlewares/lvgl/src/extra/layouts/flex/../flex/../../../core/lv_obj_style_gen.h **** {
 201:Middlewares/lvgl/src/extra/layouts/flex/../flex/../../../core/lv_obj_style_gen.h ****     lv_style_value_t v = lv_obj_get_style_prop(obj, part, LV_STYLE_BG_COLOR_FILTERED);
 202:Middlewares/lvgl/src/extra/layouts/flex/../flex/../../../core/lv_obj_style_gen.h ****     return v.color;
 203:Middlewares/lvgl/src/extra/layouts/flex/../flex/../../../core/lv_obj_style_gen.h **** }
 204:Middlewares/lvgl/src/extra/layouts/flex/../flex/../../../core/lv_obj_style_gen.h **** 
 205:Middlewares/lvgl/src/extra/layouts/flex/../flex/../../../core/lv_obj_style_gen.h **** static inline lv_opa_t lv_obj_get_style_bg_opa(const struct _lv_obj_t * obj, uint32_t part)
 206:Middlewares/lvgl/src/extra/layouts/flex/../flex/../../../core/lv_obj_style_gen.h **** {
 207:Middlewares/lvgl/src/extra/layouts/flex/../flex/../../../core/lv_obj_style_gen.h ****     lv_style_value_t v = lv_obj_get_style_prop(obj, part, LV_STYLE_BG_OPA);
 208:Middlewares/lvgl/src/extra/layouts/flex/../flex/../../../core/lv_obj_style_gen.h ****     return (lv_opa_t)v.num;
 209:Middlewares/lvgl/src/extra/layouts/flex/../flex/../../../core/lv_obj_style_gen.h **** }
 210:Middlewares/lvgl/src/extra/layouts/flex/../flex/../../../core/lv_obj_style_gen.h **** 
 211:Middlewares/lvgl/src/extra/layouts/flex/../flex/../../../core/lv_obj_style_gen.h **** static inline lv_color_t lv_obj_get_style_bg_grad_color(const struct _lv_obj_t * obj, uint32_t part
 212:Middlewares/lvgl/src/extra/layouts/flex/../flex/../../../core/lv_obj_style_gen.h **** {
 213:Middlewares/lvgl/src/extra/layouts/flex/../flex/../../../core/lv_obj_style_gen.h ****     lv_style_value_t v = lv_obj_get_style_prop(obj, part, LV_STYLE_BG_GRAD_COLOR);
 214:Middlewares/lvgl/src/extra/layouts/flex/../flex/../../../core/lv_obj_style_gen.h ****     return v.color;
 215:Middlewares/lvgl/src/extra/layouts/flex/../flex/../../../core/lv_obj_style_gen.h **** }
 216:Middlewares/lvgl/src/extra/layouts/flex/../flex/../../../core/lv_obj_style_gen.h **** 
 217:Middlewares/lvgl/src/extra/layouts/flex/../flex/../../../core/lv_obj_style_gen.h **** static inline lv_color_t lv_obj_get_style_bg_grad_color_filtered(const struct _lv_obj_t * obj, uint
 218:Middlewares/lvgl/src/extra/layouts/flex/../flex/../../../core/lv_obj_style_gen.h **** {
 219:Middlewares/lvgl/src/extra/layouts/flex/../flex/../../../core/lv_obj_style_gen.h ****     lv_style_value_t v = lv_obj_get_style_prop(obj, part, LV_STYLE_BG_GRAD_COLOR_FILTERED);
ARM GAS  /tmp/ccjZBdV3.s 			page 69


 220:Middlewares/lvgl/src/extra/layouts/flex/../flex/../../../core/lv_obj_style_gen.h ****     return v.color;
 221:Middlewares/lvgl/src/extra/layouts/flex/../flex/../../../core/lv_obj_style_gen.h **** }
 222:Middlewares/lvgl/src/extra/layouts/flex/../flex/../../../core/lv_obj_style_gen.h **** 
 223:Middlewares/lvgl/src/extra/layouts/flex/../flex/../../../core/lv_obj_style_gen.h **** static inline lv_grad_dir_t lv_obj_get_style_bg_grad_dir(const struct _lv_obj_t * obj, uint32_t par
 224:Middlewares/lvgl/src/extra/layouts/flex/../flex/../../../core/lv_obj_style_gen.h **** {
 225:Middlewares/lvgl/src/extra/layouts/flex/../flex/../../../core/lv_obj_style_gen.h ****     lv_style_value_t v = lv_obj_get_style_prop(obj, part, LV_STYLE_BG_GRAD_DIR);
 226:Middlewares/lvgl/src/extra/layouts/flex/../flex/../../../core/lv_obj_style_gen.h ****     return (lv_grad_dir_t)v.num;
 227:Middlewares/lvgl/src/extra/layouts/flex/../flex/../../../core/lv_obj_style_gen.h **** }
 228:Middlewares/lvgl/src/extra/layouts/flex/../flex/../../../core/lv_obj_style_gen.h **** 
 229:Middlewares/lvgl/src/extra/layouts/flex/../flex/../../../core/lv_obj_style_gen.h **** static inline lv_coord_t lv_obj_get_style_bg_main_stop(const struct _lv_obj_t * obj, uint32_t part)
 230:Middlewares/lvgl/src/extra/layouts/flex/../flex/../../../core/lv_obj_style_gen.h **** {
 231:Middlewares/lvgl/src/extra/layouts/flex/../flex/../../../core/lv_obj_style_gen.h ****     lv_style_value_t v = lv_obj_get_style_prop(obj, part, LV_STYLE_BG_MAIN_STOP);
 232:Middlewares/lvgl/src/extra/layouts/flex/../flex/../../../core/lv_obj_style_gen.h ****     return (lv_coord_t)v.num;
 233:Middlewares/lvgl/src/extra/layouts/flex/../flex/../../../core/lv_obj_style_gen.h **** }
 234:Middlewares/lvgl/src/extra/layouts/flex/../flex/../../../core/lv_obj_style_gen.h **** 
 235:Middlewares/lvgl/src/extra/layouts/flex/../flex/../../../core/lv_obj_style_gen.h **** static inline lv_coord_t lv_obj_get_style_bg_grad_stop(const struct _lv_obj_t * obj, uint32_t part)
 236:Middlewares/lvgl/src/extra/layouts/flex/../flex/../../../core/lv_obj_style_gen.h **** {
 237:Middlewares/lvgl/src/extra/layouts/flex/../flex/../../../core/lv_obj_style_gen.h ****     lv_style_value_t v = lv_obj_get_style_prop(obj, part, LV_STYLE_BG_GRAD_STOP);
 238:Middlewares/lvgl/src/extra/layouts/flex/../flex/../../../core/lv_obj_style_gen.h ****     return (lv_coord_t)v.num;
 239:Middlewares/lvgl/src/extra/layouts/flex/../flex/../../../core/lv_obj_style_gen.h **** }
 240:Middlewares/lvgl/src/extra/layouts/flex/../flex/../../../core/lv_obj_style_gen.h **** 
 241:Middlewares/lvgl/src/extra/layouts/flex/../flex/../../../core/lv_obj_style_gen.h **** static inline const void * lv_obj_get_style_bg_img_src(const struct _lv_obj_t * obj, uint32_t part)
 242:Middlewares/lvgl/src/extra/layouts/flex/../flex/../../../core/lv_obj_style_gen.h **** {
 243:Middlewares/lvgl/src/extra/layouts/flex/../flex/../../../core/lv_obj_style_gen.h ****     lv_style_value_t v = lv_obj_get_style_prop(obj, part, LV_STYLE_BG_IMG_SRC);
 244:Middlewares/lvgl/src/extra/layouts/flex/../flex/../../../core/lv_obj_style_gen.h ****     return (const void *)v.ptr;
 245:Middlewares/lvgl/src/extra/layouts/flex/../flex/../../../core/lv_obj_style_gen.h **** }
 246:Middlewares/lvgl/src/extra/layouts/flex/../flex/../../../core/lv_obj_style_gen.h **** 
 247:Middlewares/lvgl/src/extra/layouts/flex/../flex/../../../core/lv_obj_style_gen.h **** static inline lv_opa_t lv_obj_get_style_bg_img_opa(const struct _lv_obj_t * obj, uint32_t part)
 248:Middlewares/lvgl/src/extra/layouts/flex/../flex/../../../core/lv_obj_style_gen.h **** {
 249:Middlewares/lvgl/src/extra/layouts/flex/../flex/../../../core/lv_obj_style_gen.h ****     lv_style_value_t v = lv_obj_get_style_prop(obj, part, LV_STYLE_BG_IMG_OPA);
 250:Middlewares/lvgl/src/extra/layouts/flex/../flex/../../../core/lv_obj_style_gen.h ****     return (lv_opa_t)v.num;
 251:Middlewares/lvgl/src/extra/layouts/flex/../flex/../../../core/lv_obj_style_gen.h **** }
 252:Middlewares/lvgl/src/extra/layouts/flex/../flex/../../../core/lv_obj_style_gen.h **** 
 253:Middlewares/lvgl/src/extra/layouts/flex/../flex/../../../core/lv_obj_style_gen.h **** static inline lv_color_t lv_obj_get_style_bg_img_recolor(const struct _lv_obj_t * obj, uint32_t par
 254:Middlewares/lvgl/src/extra/layouts/flex/../flex/../../../core/lv_obj_style_gen.h **** {
 255:Middlewares/lvgl/src/extra/layouts/flex/../flex/../../../core/lv_obj_style_gen.h ****     lv_style_value_t v = lv_obj_get_style_prop(obj, part, LV_STYLE_BG_IMG_RECOLOR);
 256:Middlewares/lvgl/src/extra/layouts/flex/../flex/../../../core/lv_obj_style_gen.h ****     return v.color;
 257:Middlewares/lvgl/src/extra/layouts/flex/../flex/../../../core/lv_obj_style_gen.h **** }
 258:Middlewares/lvgl/src/extra/layouts/flex/../flex/../../../core/lv_obj_style_gen.h **** 
 259:Middlewares/lvgl/src/extra/layouts/flex/../flex/../../../core/lv_obj_style_gen.h **** static inline lv_color_t lv_obj_get_style_bg_img_recolor_filtered(const struct _lv_obj_t * obj, uin
 260:Middlewares/lvgl/src/extra/layouts/flex/../flex/../../../core/lv_obj_style_gen.h **** {
 261:Middlewares/lvgl/src/extra/layouts/flex/../flex/../../../core/lv_obj_style_gen.h ****     lv_style_value_t v = lv_obj_get_style_prop(obj, part, LV_STYLE_BG_IMG_RECOLOR_FILTERED);
 262:Middlewares/lvgl/src/extra/layouts/flex/../flex/../../../core/lv_obj_style_gen.h ****     return v.color;
 263:Middlewares/lvgl/src/extra/layouts/flex/../flex/../../../core/lv_obj_style_gen.h **** }
 264:Middlewares/lvgl/src/extra/layouts/flex/../flex/../../../core/lv_obj_style_gen.h **** 
 265:Middlewares/lvgl/src/extra/layouts/flex/../flex/../../../core/lv_obj_style_gen.h **** static inline lv_opa_t lv_obj_get_style_bg_img_recolor_opa(const struct _lv_obj_t * obj, uint32_t p
 266:Middlewares/lvgl/src/extra/layouts/flex/../flex/../../../core/lv_obj_style_gen.h **** {
 267:Middlewares/lvgl/src/extra/layouts/flex/../flex/../../../core/lv_obj_style_gen.h ****     lv_style_value_t v = lv_obj_get_style_prop(obj, part, LV_STYLE_BG_IMG_RECOLOR_OPA);
 268:Middlewares/lvgl/src/extra/layouts/flex/../flex/../../../core/lv_obj_style_gen.h ****     return (lv_opa_t)v.num;
 269:Middlewares/lvgl/src/extra/layouts/flex/../flex/../../../core/lv_obj_style_gen.h **** }
 270:Middlewares/lvgl/src/extra/layouts/flex/../flex/../../../core/lv_obj_style_gen.h **** 
 271:Middlewares/lvgl/src/extra/layouts/flex/../flex/../../../core/lv_obj_style_gen.h **** static inline bool lv_obj_get_style_bg_img_tiled(const struct _lv_obj_t * obj, uint32_t part)
 272:Middlewares/lvgl/src/extra/layouts/flex/../flex/../../../core/lv_obj_style_gen.h **** {
 273:Middlewares/lvgl/src/extra/layouts/flex/../flex/../../../core/lv_obj_style_gen.h ****     lv_style_value_t v = lv_obj_get_style_prop(obj, part, LV_STYLE_BG_IMG_TILED);
 274:Middlewares/lvgl/src/extra/layouts/flex/../flex/../../../core/lv_obj_style_gen.h ****     return (bool)v.num;
 275:Middlewares/lvgl/src/extra/layouts/flex/../flex/../../../core/lv_obj_style_gen.h **** }
 276:Middlewares/lvgl/src/extra/layouts/flex/../flex/../../../core/lv_obj_style_gen.h **** 
ARM GAS  /tmp/ccjZBdV3.s 			page 70


 277:Middlewares/lvgl/src/extra/layouts/flex/../flex/../../../core/lv_obj_style_gen.h **** static inline lv_color_t lv_obj_get_style_border_color(const struct _lv_obj_t * obj, uint32_t part)
 278:Middlewares/lvgl/src/extra/layouts/flex/../flex/../../../core/lv_obj_style_gen.h **** {
 279:Middlewares/lvgl/src/extra/layouts/flex/../flex/../../../core/lv_obj_style_gen.h ****     lv_style_value_t v = lv_obj_get_style_prop(obj, part, LV_STYLE_BORDER_COLOR);
 280:Middlewares/lvgl/src/extra/layouts/flex/../flex/../../../core/lv_obj_style_gen.h ****     return v.color;
 281:Middlewares/lvgl/src/extra/layouts/flex/../flex/../../../core/lv_obj_style_gen.h **** }
 282:Middlewares/lvgl/src/extra/layouts/flex/../flex/../../../core/lv_obj_style_gen.h **** 
 283:Middlewares/lvgl/src/extra/layouts/flex/../flex/../../../core/lv_obj_style_gen.h **** static inline lv_color_t lv_obj_get_style_border_color_filtered(const struct _lv_obj_t * obj, uint3
 284:Middlewares/lvgl/src/extra/layouts/flex/../flex/../../../core/lv_obj_style_gen.h **** {
 285:Middlewares/lvgl/src/extra/layouts/flex/../flex/../../../core/lv_obj_style_gen.h ****     lv_style_value_t v = lv_obj_get_style_prop(obj, part, LV_STYLE_BORDER_COLOR_FILTERED);
 286:Middlewares/lvgl/src/extra/layouts/flex/../flex/../../../core/lv_obj_style_gen.h ****     return v.color;
 287:Middlewares/lvgl/src/extra/layouts/flex/../flex/../../../core/lv_obj_style_gen.h **** }
 288:Middlewares/lvgl/src/extra/layouts/flex/../flex/../../../core/lv_obj_style_gen.h **** 
 289:Middlewares/lvgl/src/extra/layouts/flex/../flex/../../../core/lv_obj_style_gen.h **** static inline lv_opa_t lv_obj_get_style_border_opa(const struct _lv_obj_t * obj, uint32_t part)
 290:Middlewares/lvgl/src/extra/layouts/flex/../flex/../../../core/lv_obj_style_gen.h **** {
 291:Middlewares/lvgl/src/extra/layouts/flex/../flex/../../../core/lv_obj_style_gen.h ****     lv_style_value_t v = lv_obj_get_style_prop(obj, part, LV_STYLE_BORDER_OPA);
 292:Middlewares/lvgl/src/extra/layouts/flex/../flex/../../../core/lv_obj_style_gen.h ****     return (lv_opa_t)v.num;
 293:Middlewares/lvgl/src/extra/layouts/flex/../flex/../../../core/lv_obj_style_gen.h **** }
 294:Middlewares/lvgl/src/extra/layouts/flex/../flex/../../../core/lv_obj_style_gen.h **** 
 295:Middlewares/lvgl/src/extra/layouts/flex/../flex/../../../core/lv_obj_style_gen.h **** static inline lv_coord_t lv_obj_get_style_border_width(const struct _lv_obj_t * obj, uint32_t part)
 2200              		.loc 3 295 26 discriminator 4 view .LVU712
 2201              	.LBB114:
 296:Middlewares/lvgl/src/extra/layouts/flex/../flex/../../../core/lv_obj_style_gen.h **** {
 297:Middlewares/lvgl/src/extra/layouts/flex/../flex/../../../core/lv_obj_style_gen.h ****     lv_style_value_t v = lv_obj_get_style_prop(obj, part, LV_STYLE_BORDER_WIDTH);
 2202              		.loc 3 297 5 discriminator 4 view .LVU713
 2203              		.loc 3 297 26 is_stmt 0 discriminator 4 view .LVU714
 2204 00ce 41F23202 		movw	r2, #4146
 2205 00d2 0021     		movs	r1, #0
 2206 00d4 2046     		mov	r0, r4
 2207 00d6 FFF7FEFF 		bl	lv_obj_get_style_prop
 2208              	.LVL223:
 2209 00da 8146     		mov	r9, r0
 2210              	.LVL224:
 298:Middlewares/lvgl/src/extra/layouts/flex/../flex/../../../core/lv_obj_style_gen.h ****     return (lv_coord_t)v.num;
 2211              		.loc 3 298 5 is_stmt 1 discriminator 4 view .LVU715
 2212              		.loc 3 298 5 is_stmt 0 discriminator 4 view .LVU716
 2213              	.LBE114:
 2214              	.LBE113:
 224:Middlewares/lvgl/src/extra/layouts/flex/lv_flex.c ****     lv_coord_t abs_x = cont->coords.x1 + lv_obj_get_style_pad_left(cont, LV_PART_MAIN) + border_wid
 2215              		.loc 2 224 5 is_stmt 1 discriminator 4 view .LVU717
 224:Middlewares/lvgl/src/extra/layouts/flex/lv_flex.c ****     lv_coord_t abs_x = cont->coords.x1 + lv_obj_get_style_pad_left(cont, LV_PART_MAIN) + border_wid
 2216              		.loc 2 224 36 is_stmt 0 discriminator 4 view .LVU718
 2217 00dc E58A     		ldrh	r5, [r4, #22]
 2218              	.LVL225:
 2219              	.LBB115:
 2220              	.LBI115:
  91:Middlewares/lvgl/src/extra/layouts/flex/../flex/../../../core/lv_obj_style_gen.h **** {
 2221              		.loc 3 91 26 is_stmt 1 discriminator 4 view .LVU719
 2222              	.LBB116:
  93:Middlewares/lvgl/src/extra/layouts/flex/../flex/../../../core/lv_obj_style_gen.h ****     return (lv_coord_t)v.num;
 2223              		.loc 3 93 5 discriminator 4 view .LVU720
  93:Middlewares/lvgl/src/extra/layouts/flex/../flex/../../../core/lv_obj_style_gen.h ****     return (lv_coord_t)v.num;
 2224              		.loc 3 93 26 is_stmt 0 discriminator 4 view .LVU721
 2225 00de 41F21002 		movw	r2, #4112
 2226 00e2 0021     		movs	r1, #0
 2227 00e4 2046     		mov	r0, r4
 2228 00e6 FFF7FEFF 		bl	lv_obj_get_style_prop
 2229              	.LVL226:
ARM GAS  /tmp/ccjZBdV3.s 			page 71


  94:Middlewares/lvgl/src/extra/layouts/flex/../flex/../../../core/lv_obj_style_gen.h **** }
 2230              		.loc 3 94 5 is_stmt 1 discriminator 4 view .LVU722
  94:Middlewares/lvgl/src/extra/layouts/flex/../flex/../../../core/lv_obj_style_gen.h **** }
 2231              		.loc 3 94 5 is_stmt 0 discriminator 4 view .LVU723
 2232              	.LBE116:
 2233              	.LBE115:
 224:Middlewares/lvgl/src/extra/layouts/flex/lv_flex.c ****     lv_coord_t abs_x = cont->coords.x1 + lv_obj_get_style_pad_left(cont, LV_PART_MAIN) + border_wid
 2234              		.loc 2 224 40 discriminator 4 view .LVU724
 2235 00ea 15FA80F5 		uxtah	r5, r5, r0
 224:Middlewares/lvgl/src/extra/layouts/flex/lv_flex.c ****     lv_coord_t abs_x = cont->coords.x1 + lv_obj_get_style_pad_left(cont, LV_PART_MAIN) + border_wid
 2236              		.loc 2 224 87 discriminator 4 view .LVU725
 2237 00ee 1FFA89F9 		uxth	r9, r9
 224:Middlewares/lvgl/src/extra/layouts/flex/lv_flex.c ****     lv_coord_t abs_x = cont->coords.x1 + lv_obj_get_style_pad_left(cont, LV_PART_MAIN) + border_wid
 2238              		.loc 2 224 87 discriminator 4 view .LVU726
 2239 00f2 19FA85F5 		uxtah	r5, r9, r5
 2240 00f6 ADB2     		uxth	r5, r5
 224:Middlewares/lvgl/src/extra/layouts/flex/lv_flex.c ****     lv_coord_t abs_x = cont->coords.x1 + lv_obj_get_style_pad_left(cont, LV_PART_MAIN) + border_wid
 2241              		.loc 2 224 103 discriminator 4 view .LVU727
 2242 00f8 2046     		mov	r0, r4
 2243 00fa FFF7FEFF 		bl	lv_obj_get_scroll_y
 2244              	.LVL227:
 2245 00fe 80B2     		uxth	r0, r0
 224:Middlewares/lvgl/src/extra/layouts/flex/lv_flex.c ****     lv_coord_t abs_x = cont->coords.x1 + lv_obj_get_style_pad_left(cont, LV_PART_MAIN) + border_wid
 2246              		.loc 2 224 101 discriminator 4 view .LVU728
 2247 0100 2D1A     		subs	r5, r5, r0
 224:Middlewares/lvgl/src/extra/layouts/flex/lv_flex.c ****     lv_coord_t abs_x = cont->coords.x1 + lv_obj_get_style_pad_left(cont, LV_PART_MAIN) + border_wid
 2248              		.loc 2 224 16 discriminator 4 view .LVU729
 2249 0102 ADF84A50 		strh	r5, [sp, #74]	@ movhi
 225:Middlewares/lvgl/src/extra/layouts/flex/lv_flex.c **** 
 2250              		.loc 2 225 5 is_stmt 1 discriminator 4 view .LVU730
 225:Middlewares/lvgl/src/extra/layouts/flex/lv_flex.c **** 
 2251              		.loc 2 225 36 is_stmt 0 discriminator 4 view .LVU731
 2252 0106 A58A     		ldrh	r5, [r4, #20]
 2253              	.LVL228:
 2254              	.LBB117:
 2255              	.LBI117:
 103:Middlewares/lvgl/src/extra/layouts/flex/../flex/../../../core/lv_obj_style_gen.h **** {
 2256              		.loc 3 103 26 is_stmt 1 discriminator 4 view .LVU732
 2257              	.LBB118:
 105:Middlewares/lvgl/src/extra/layouts/flex/../flex/../../../core/lv_obj_style_gen.h ****     return (lv_coord_t)v.num;
 2258              		.loc 3 105 5 discriminator 4 view .LVU733
 105:Middlewares/lvgl/src/extra/layouts/flex/../flex/../../../core/lv_obj_style_gen.h ****     return (lv_coord_t)v.num;
 2259              		.loc 3 105 26 is_stmt 0 discriminator 4 view .LVU734
 2260 0108 41F21202 		movw	r2, #4114
 2261 010c 0021     		movs	r1, #0
 2262 010e 2046     		mov	r0, r4
 2263 0110 FFF7FEFF 		bl	lv_obj_get_style_prop
 2264              	.LVL229:
 106:Middlewares/lvgl/src/extra/layouts/flex/../flex/../../../core/lv_obj_style_gen.h **** }
 2265              		.loc 3 106 5 is_stmt 1 discriminator 4 view .LVU735
 106:Middlewares/lvgl/src/extra/layouts/flex/../flex/../../../core/lv_obj_style_gen.h **** }
 2266              		.loc 3 106 5 is_stmt 0 discriminator 4 view .LVU736
 2267              	.LBE118:
 2268              	.LBE117:
 225:Middlewares/lvgl/src/extra/layouts/flex/lv_flex.c **** 
 2269              		.loc 2 225 40 discriminator 4 view .LVU737
 2270 0114 15FA80F5 		uxtah	r5, r5, r0
ARM GAS  /tmp/ccjZBdV3.s 			page 72


 225:Middlewares/lvgl/src/extra/layouts/flex/lv_flex.c **** 
 2271              		.loc 2 225 88 discriminator 4 view .LVU738
 2272 0118 19FA85F5 		uxtah	r5, r9, r5
 2273 011c ADB2     		uxth	r5, r5
 225:Middlewares/lvgl/src/extra/layouts/flex/lv_flex.c **** 
 2274              		.loc 2 225 104 discriminator 4 view .LVU739
 2275 011e 2046     		mov	r0, r4
 2276 0120 FFF7FEFF 		bl	lv_obj_get_scroll_x
 2277              	.LVL230:
 2278 0124 80B2     		uxth	r0, r0
 225:Middlewares/lvgl/src/extra/layouts/flex/lv_flex.c **** 
 2279              		.loc 2 225 102 discriminator 4 view .LVU740
 2280 0126 2D1A     		subs	r5, r5, r0
 225:Middlewares/lvgl/src/extra/layouts/flex/lv_flex.c **** 
 2281              		.loc 2 225 16 discriminator 4 view .LVU741
 2282 0128 ADF84850 		strh	r5, [sp, #72]	@ movhi
 227:Middlewares/lvgl/src/extra/layouts/flex/lv_flex.c ****     lv_coord_t * cross_pos = (f.row ? &abs_y : &abs_x);
 2283              		.loc 2 227 5 is_stmt 1 discriminator 4 view .LVU742
 227:Middlewares/lvgl/src/extra/layouts/flex/lv_flex.c ****     lv_coord_t * cross_pos = (f.row ? &abs_y : &abs_x);
 2284              		.loc 2 227 21 is_stmt 0 discriminator 4 view .LVU743
 2285 012c 9DF84E30 		ldrb	r3, [sp, #78]	@ zero_extendqisi2
 2286 0130 0793     		str	r3, [sp, #28]
 2287              	.LVL231:
 228:Middlewares/lvgl/src/extra/layouts/flex/lv_flex.c **** 
 2288              		.loc 2 228 5 is_stmt 1 discriminator 4 view .LVU744
 228:Middlewares/lvgl/src/extra/layouts/flex/lv_flex.c **** 
 2289              		.loc 2 228 37 is_stmt 0 discriminator 4 view .LVU745
 2290 0132 9DF84F30 		ldrb	r3, [sp, #79]	@ zero_extendqisi2
 228:Middlewares/lvgl/src/extra/layouts/flex/lv_flex.c **** 
 2291              		.loc 2 228 46 discriminator 4 view .LVU746
 2292 0136 13F0010F 		tst	r3, #1
 2293 013a 4CD0     		beq	.L159
 228:Middlewares/lvgl/src/extra/layouts/flex/lv_flex.c **** 
 2294              		.loc 2 228 46 view .LVU747
 2295 013c 0DF14A09 		add	r9, sp, #74
 2296              	.LVL232:
 2297              	.L136:
 230:Middlewares/lvgl/src/extra/layouts/flex/lv_flex.c ****     lv_coord_t h_set = lv_obj_get_style_height(cont, LV_PART_MAIN);
 2298              		.loc 2 230 5 is_stmt 1 discriminator 4 view .LVU748
 2299              	.LBB119:
 2300              	.LBI119:
   1:Middlewares/lvgl/src/extra/layouts/flex/../flex/../../../core/lv_obj_style_gen.h **** {
 2301              		.loc 3 1 26 discriminator 4 view .LVU749
 2302              	.LBB120:
   3:Middlewares/lvgl/src/extra/layouts/flex/../flex/../../../core/lv_obj_style_gen.h ****     return (lv_coord_t)v.num;
 2303              		.loc 3 3 5 discriminator 4 view .LVU750
   3:Middlewares/lvgl/src/extra/layouts/flex/../flex/../../../core/lv_obj_style_gen.h ****     return (lv_coord_t)v.num;
 2304              		.loc 3 3 26 is_stmt 0 discriminator 4 view .LVU751
 2305 0140 41F20102 		movw	r2, #4097
 2306 0144 0021     		movs	r1, #0
 2307 0146 2046     		mov	r0, r4
 2308 0148 FFF7FEFF 		bl	lv_obj_get_style_prop
 2309              	.LVL233:
   4:Middlewares/lvgl/src/extra/layouts/flex/../flex/../../../core/lv_obj_style_gen.h **** }
 2310              		.loc 3 4 5 is_stmt 1 discriminator 4 view .LVU752
   4:Middlewares/lvgl/src/extra/layouts/flex/../flex/../../../core/lv_obj_style_gen.h **** }
 2311              		.loc 3 4 12 is_stmt 0 discriminator 4 view .LVU753
ARM GAS  /tmp/ccjZBdV3.s 			page 73


 2312 014c 03B2     		sxth	r3, r0
 2313 014e 0893     		str	r3, [sp, #32]
 2314              	.LVL234:
   4:Middlewares/lvgl/src/extra/layouts/flex/../flex/../../../core/lv_obj_style_gen.h **** }
 2315              		.loc 3 4 12 discriminator 4 view .LVU754
 2316              	.LBE120:
 2317              	.LBE119:
 231:Middlewares/lvgl/src/extra/layouts/flex/lv_flex.c **** 
 2318              		.loc 2 231 5 is_stmt 1 discriminator 4 view .LVU755
 2319              	.LBB121:
 2320              	.LBI121:
  19:Middlewares/lvgl/src/extra/layouts/flex/../flex/../../../core/lv_obj_style_gen.h **** {
 2321              		.loc 3 19 26 discriminator 4 view .LVU756
 2322              	.LBB122:
  21:Middlewares/lvgl/src/extra/layouts/flex/../flex/../../../core/lv_obj_style_gen.h ****     return (lv_coord_t)v.num;
 2323              		.loc 3 21 5 discriminator 4 view .LVU757
  21:Middlewares/lvgl/src/extra/layouts/flex/../flex/../../../core/lv_obj_style_gen.h ****     return (lv_coord_t)v.num;
 2324              		.loc 3 21 26 is_stmt 0 discriminator 4 view .LVU758
 2325 0150 41F20402 		movw	r2, #4100
 2326 0154 0021     		movs	r1, #0
 2327 0156 2046     		mov	r0, r4
 2328 0158 FFF7FEFF 		bl	lv_obj_get_style_prop
 2329              	.LVL235:
  22:Middlewares/lvgl/src/extra/layouts/flex/../flex/../../../core/lv_obj_style_gen.h **** }
 2330              		.loc 3 22 5 is_stmt 1 discriminator 4 view .LVU759
  22:Middlewares/lvgl/src/extra/layouts/flex/../flex/../../../core/lv_obj_style_gen.h **** }
 2331              		.loc 3 22 12 is_stmt 0 discriminator 4 view .LVU760
 2332 015c 03B2     		sxth	r3, r0
 2333 015e 1846     		mov	r0, r3
 2334 0160 0993     		str	r3, [sp, #36]
 2335              	.LVL236:
  22:Middlewares/lvgl/src/extra/layouts/flex/../flex/../../../core/lv_obj_style_gen.h **** }
 2336              		.loc 3 22 12 discriminator 4 view .LVU761
 2337              	.LBE122:
 2338              	.LBE121:
 234:Middlewares/lvgl/src/extra/layouts/flex/lv_flex.c ****     	(!f.row && w_set == LV_SIZE_CONTENT && cont->w_layout == 0))
 2339              		.loc 2 234 5 is_stmt 1 discriminator 4 view .LVU762
 234:Middlewares/lvgl/src/extra/layouts/flex/lv_flex.c ****     	(!f.row && w_set == LV_SIZE_CONTENT && cont->w_layout == 0))
 2340              		.loc 2 234 9 is_stmt 0 discriminator 4 view .LVU763
 2341 0162 9DF84F30 		ldrb	r3, [sp, #79]	@ zero_extendqisi2
 234:Middlewares/lvgl/src/extra/layouts/flex/lv_flex.c ****     	(!f.row && w_set == LV_SIZE_CONTENT && cont->w_layout == 0))
 2342              		.loc 2 234 7 discriminator 4 view .LVU764
 2343 0166 13F00102 		ands	r2, r3, #1
 2344 016a 03D0     		beq	.L137
 234:Middlewares/lvgl/src/extra/layouts/flex/lv_flex.c ****     	(!f.row && w_set == LV_SIZE_CONTENT && cont->w_layout == 0))
 2345              		.loc 2 234 15 discriminator 1 view .LVU765
 2346 016c 42F2D171 		movw	r1, #10193
 2347 0170 8842     		cmp	r0, r1
 2348 0172 33D0     		beq	.L168
 2349              	.L137:
 234:Middlewares/lvgl/src/extra/layouts/flex/lv_flex.c ****     	(!f.row && w_set == LV_SIZE_CONTENT && cont->w_layout == 0))
 2350              		.loc 2 234 67 discriminator 5 view .LVU766
 2351 0174 22B9     		cbnz	r2, .L138
 235:Middlewares/lvgl/src/extra/layouts/flex/lv_flex.c ****     {
 2352              		.loc 2 235 14 view .LVU767
 2353 0176 42F2D171 		movw	r1, #10193
 2354 017a 0898     		ldr	r0, [sp, #32]
ARM GAS  /tmp/ccjZBdV3.s 			page 74


 2355              	.LVL237:
 235:Middlewares/lvgl/src/extra/layouts/flex/lv_flex.c ****     {
 2356              		.loc 2 235 14 view .LVU768
 2357 017c 8842     		cmp	r0, r1
 2358 017e 35D0     		beq	.L169
 2359              	.LVL238:
 2360              	.L138:
 240:Middlewares/lvgl/src/extra/layouts/flex/lv_flex.c ****         if(track_cross_place == LV_FLEX_ALIGN_START) track_cross_place = LV_FLEX_ALIGN_END;
 2361              		.loc 2 240 5 is_stmt 1 view .LVU769
 240:Middlewares/lvgl/src/extra/layouts/flex/lv_flex.c ****         if(track_cross_place == LV_FLEX_ALIGN_START) track_cross_place = LV_FLEX_ALIGN_END;
 2362              		.loc 2 240 7 is_stmt 0 view .LVU770
 2363 0180 B8F1010F 		cmp	r8, #1
 2364 0184 3AD0     		beq	.L170
 2365              	.L139:
 245:Middlewares/lvgl/src/extra/layouts/flex/lv_flex.c ****     lv_coord_t gap = 0;
 2366              		.loc 2 245 5 is_stmt 1 view .LVU771
 2367              	.LVL239:
 246:Middlewares/lvgl/src/extra/layouts/flex/lv_flex.c ****     uint32_t track_cnt = 0;
 2368              		.loc 2 246 5 view .LVU772
 246:Middlewares/lvgl/src/extra/layouts/flex/lv_flex.c ****     uint32_t track_cnt = 0;
 2369              		.loc 2 246 16 is_stmt 0 view .LVU773
 2370 0186 0022     		movs	r2, #0
 2371 0188 ADF84620 		strh	r2, [sp, #70]	@ movhi
 247:Middlewares/lvgl/src/extra/layouts/flex/lv_flex.c ****     int32_t track_first_item;
 2372              		.loc 2 247 5 is_stmt 1 view .LVU774
 2373              	.LVL240:
 248:Middlewares/lvgl/src/extra/layouts/flex/lv_flex.c ****     int32_t next_track_first_item;
 2374              		.loc 2 248 5 view .LVU775
 249:Middlewares/lvgl/src/extra/layouts/flex/lv_flex.c **** 
 2375              		.loc 2 249 5 view .LVU776
 251:Middlewares/lvgl/src/extra/layouts/flex/lv_flex.c ****         track_first_item = f.rev ? cont->spec_attr->child_cnt - 1 : 0;
 2376              		.loc 2 251 5 view .LVU777
 251:Middlewares/lvgl/src/extra/layouts/flex/lv_flex.c ****         track_first_item = f.rev ? cont->spec_attr->child_cnt - 1 : 0;
 2377              		.loc 2 251 7 is_stmt 0 view .LVU778
 2378 018c 079A     		ldr	r2, [sp, #28]
 2379 018e 002A     		cmp	r2, #0
 2380 0190 00F09780 		beq	.L162
 2381              	.LVL241:
 2382              	.L141:
 2383              	.LBB123:
 252:Middlewares/lvgl/src/extra/layouts/flex/lv_flex.c ****         track_t t;
 2384              		.loc 2 252 9 is_stmt 1 view .LVU779
 252:Middlewares/lvgl/src/extra/layouts/flex/lv_flex.c ****         track_t t;
 2385              		.loc 2 252 67 is_stmt 0 view .LVU780
 2386 0194 13F0040F 		tst	r3, #4
 2387 0198 00F08C80 		beq	.L163
 252:Middlewares/lvgl/src/extra/layouts/flex/lv_flex.c ****         track_t t;
 2388              		.loc 2 252 40 discriminator 1 view .LVU781
 2389 019c A368     		ldr	r3, [r4, #8]
 252:Middlewares/lvgl/src/extra/layouts/flex/lv_flex.c ****         track_t t;
 2390              		.loc 2 252 51 discriminator 1 view .LVU782
 2391 019e 5A68     		ldr	r2, [r3, #4]
 252:Middlewares/lvgl/src/extra/layouts/flex/lv_flex.c ****         track_t t;
 2392              		.loc 2 252 63 discriminator 1 view .LVU783
 2393 01a0 013A     		subs	r2, r2, #1
 2394              	.L143:
 252:Middlewares/lvgl/src/extra/layouts/flex/lv_flex.c ****         track_t t;
ARM GAS  /tmp/ccjZBdV3.s 			page 75


 2395              		.loc 2 252 67 view .LVU784
 2396 01a2 4FF0000B 		mov	fp, #0
 2397 01a6 5D46     		mov	r5, fp
 2398 01a8 4FE0     		b	.L144
 2399              	.LVL242:
 2400              	.L130:
 252:Middlewares/lvgl/src/extra/layouts/flex/lv_flex.c ****         track_t t;
 2401              		.loc 2 252 67 view .LVU785
 2402              	.LBE123:
 2403              	.LBB124:
 2404              	.LBI124:
 115:Middlewares/lvgl/src/extra/layouts/flex/../flex/../../../core/lv_obj_style_gen.h **** {
 2405              		.loc 3 115 26 is_stmt 1 view .LVU786
 2406              	.LBB125:
 117:Middlewares/lvgl/src/extra/layouts/flex/../flex/../../../core/lv_obj_style_gen.h ****     return (lv_coord_t)v.num;
 2407              		.loc 3 117 5 view .LVU787
 117:Middlewares/lvgl/src/extra/layouts/flex/../flex/../../../core/lv_obj_style_gen.h ****     return (lv_coord_t)v.num;
 2408              		.loc 3 117 26 is_stmt 0 view .LVU788
 2409 01aa 41F21402 		movw	r2, #4116
 2410 01ae 0021     		movs	r1, #0
 2411 01b0 2046     		mov	r0, r4
 2412 01b2 FFF7FEFF 		bl	lv_obj_get_style_prop
 2413              	.LVL243:
 118:Middlewares/lvgl/src/extra/layouts/flex/../flex/../../../core/lv_obj_style_gen.h **** }
 2414              		.loc 3 118 5 is_stmt 1 view .LVU789
 118:Middlewares/lvgl/src/extra/layouts/flex/../flex/../../../core/lv_obj_style_gen.h **** }
 2415              		.loc 3 118 12 is_stmt 0 view .LVU790
 2416 01b6 0FFA80FA 		sxth	r10, r0
 2417              	.LVL244:
 118:Middlewares/lvgl/src/extra/layouts/flex/../flex/../../../core/lv_obj_style_gen.h **** }
 2418              		.loc 3 118 12 view .LVU791
 2419 01ba 71E7     		b	.L131
 2420              	.LVL245:
 2421              	.L132:
 118:Middlewares/lvgl/src/extra/layouts/flex/../flex/../../../core/lv_obj_style_gen.h **** }
 2422              		.loc 3 118 12 view .LVU792
 2423              	.LBE125:
 2424              	.LBE124:
 2425              	.LBB126:
 2426              	.LBI126:
 115:Middlewares/lvgl/src/extra/layouts/flex/../flex/../../../core/lv_obj_style_gen.h **** {
 2427              		.loc 3 115 26 is_stmt 1 view .LVU793
 2428              	.LBB127:
 117:Middlewares/lvgl/src/extra/layouts/flex/../flex/../../../core/lv_obj_style_gen.h ****     return (lv_coord_t)v.num;
 2429              		.loc 3 117 5 view .LVU794
 117:Middlewares/lvgl/src/extra/layouts/flex/../flex/../../../core/lv_obj_style_gen.h ****     return (lv_coord_t)v.num;
 2430              		.loc 3 117 26 is_stmt 0 view .LVU795
 2431 01bc 41F21402 		movw	r2, #4116
 2432 01c0 0021     		movs	r1, #0
 2433 01c2 2046     		mov	r0, r4
 2434 01c4 FFF7FEFF 		bl	lv_obj_get_style_prop
 2435              	.LVL246:
 118:Middlewares/lvgl/src/extra/layouts/flex/../flex/../../../core/lv_obj_style_gen.h **** }
 2436              		.loc 3 118 5 is_stmt 1 view .LVU796
 118:Middlewares/lvgl/src/extra/layouts/flex/../flex/../../../core/lv_obj_style_gen.h **** }
 2437              		.loc 3 118 12 is_stmt 0 view .LVU797
 2438 01c8 06B2     		sxth	r6, r0
ARM GAS  /tmp/ccjZBdV3.s 			page 76


 2439              	.LVL247:
 118:Middlewares/lvgl/src/extra/layouts/flex/../flex/../../../core/lv_obj_style_gen.h **** }
 2440              		.loc 3 118 12 view .LVU798
 2441 01ca 76E7     		b	.L133
 2442              	.LVL248:
 2443              	.L134:
 118:Middlewares/lvgl/src/extra/layouts/flex/../flex/../../../core/lv_obj_style_gen.h **** }
 2444              		.loc 3 118 12 view .LVU799
 2445              	.LBE127:
 2446              	.LBE126:
 222:Middlewares/lvgl/src/extra/layouts/flex/lv_flex.c ****     lv_coord_t border_widt = lv_obj_get_style_border_width(cont, LV_PART_MAIN);
 2447              		.loc 2 222 74 discriminator 2 view .LVU800
 2448 01cc 2046     		mov	r0, r4
 2449 01ce FFF7FEFF 		bl	lv_obj_get_content_height
 2450              	.LVL249:
 2451 01d2 0746     		mov	r7, r0
 2452 01d4 7BE7     		b	.L135
 2453              	.LVL250:
 2454              	.L159:
 228:Middlewares/lvgl/src/extra/layouts/flex/lv_flex.c **** 
 2455              		.loc 2 228 46 view .LVU801
 2456 01d6 0DF14809 		add	r9, sp, #72
 2457              	.LVL251:
 228:Middlewares/lvgl/src/extra/layouts/flex/lv_flex.c **** 
 2458              		.loc 2 228 46 view .LVU802
 2459 01da B1E7     		b	.L136
 2460              	.LVL252:
 2461              	.L168:
 234:Middlewares/lvgl/src/extra/layouts/flex/lv_flex.c ****     	(!f.row && w_set == LV_SIZE_CONTENT && cont->w_layout == 0))
 2462              		.loc 2 234 61 discriminator 3 view .LVU803
 2463 01dc 94F82310 		ldrb	r1, [r4, #35]	@ zero_extendqisi2
 234:Middlewares/lvgl/src/extra/layouts/flex/lv_flex.c ****     	(!f.row && w_set == LV_SIZE_CONTENT && cont->w_layout == 0))
 2464              		.loc 2 234 43 discriminator 3 view .LVU804
 2465 01e0 11F0020F 		tst	r1, #2
 2466 01e4 C6D1     		bne	.L137
 237:Middlewares/lvgl/src/extra/layouts/flex/lv_flex.c ****     }
 2467              		.loc 2 237 27 view .LVU805
 2468 01e6 0021     		movs	r1, #0
 2469 01e8 0791     		str	r1, [sp, #28]
 2470              	.LVL253:
 237:Middlewares/lvgl/src/extra/layouts/flex/lv_flex.c ****     }
 2471              		.loc 2 237 27 view .LVU806
 2472 01ea C9E7     		b	.L138
 2473              	.LVL254:
 2474              	.L169:
 235:Middlewares/lvgl/src/extra/layouts/flex/lv_flex.c ****     {
 2475              		.loc 2 235 60 discriminator 1 view .LVU807
 2476 01ec 94F82310 		ldrb	r1, [r4, #35]	@ zero_extendqisi2
 235:Middlewares/lvgl/src/extra/layouts/flex/lv_flex.c ****     {
 2477              		.loc 2 235 42 discriminator 1 view .LVU808
 2478 01f0 11F0040F 		tst	r1, #4
 2479 01f4 C4D1     		bne	.L138
 237:Middlewares/lvgl/src/extra/layouts/flex/lv_flex.c ****     }
 2480              		.loc 2 237 27 view .LVU809
 2481 01f6 0021     		movs	r1, #0
 2482 01f8 0791     		str	r1, [sp, #28]
 2483              	.LVL255:
ARM GAS  /tmp/ccjZBdV3.s 			page 77


 237:Middlewares/lvgl/src/extra/layouts/flex/lv_flex.c ****     }
 2484              		.loc 2 237 27 view .LVU810
 2485 01fa C1E7     		b	.L138
 2486              	.LVL256:
 2487              	.L170:
 240:Middlewares/lvgl/src/extra/layouts/flex/lv_flex.c ****         if(track_cross_place == LV_FLEX_ALIGN_START) track_cross_place = LV_FLEX_ALIGN_END;
 2488              		.loc 2 240 12 discriminator 1 view .LVU811
 2489 01fc 002A     		cmp	r2, #0
 2490 01fe C2D1     		bne	.L139
 241:Middlewares/lvgl/src/extra/layouts/flex/lv_flex.c ****         else if(track_cross_place == LV_FLEX_ALIGN_END) track_cross_place = LV_FLEX_ALIGN_START;
 2491              		.loc 2 241 9 is_stmt 1 view .LVU812
 241:Middlewares/lvgl/src/extra/layouts/flex/lv_flex.c ****         else if(track_cross_place == LV_FLEX_ALIGN_END) track_cross_place = LV_FLEX_ALIGN_START;
 2492              		.loc 2 241 11 is_stmt 0 view .LVU813
 2493 0200 079A     		ldr	r2, [sp, #28]
 2494 0202 22B9     		cbnz	r2, .L140
 2495              	.LVL257:
 245:Middlewares/lvgl/src/extra/layouts/flex/lv_flex.c ****     lv_coord_t gap = 0;
 2496              		.loc 2 245 5 is_stmt 1 view .LVU814
 246:Middlewares/lvgl/src/extra/layouts/flex/lv_flex.c ****     uint32_t track_cnt = 0;
 2497              		.loc 2 246 5 view .LVU815
 246:Middlewares/lvgl/src/extra/layouts/flex/lv_flex.c ****     uint32_t track_cnt = 0;
 2498              		.loc 2 246 16 is_stmt 0 view .LVU816
 2499 0204 ADF84620 		strh	r2, [sp, #70]	@ movhi
 247:Middlewares/lvgl/src/extra/layouts/flex/lv_flex.c ****     int32_t track_first_item;
 2500              		.loc 2 247 5 is_stmt 1 view .LVU817
 2501              	.LVL258:
 248:Middlewares/lvgl/src/extra/layouts/flex/lv_flex.c ****     int32_t next_track_first_item;
 2502              		.loc 2 248 5 view .LVU818
 249:Middlewares/lvgl/src/extra/layouts/flex/lv_flex.c **** 
 2503              		.loc 2 249 5 view .LVU819
 251:Middlewares/lvgl/src/extra/layouts/flex/lv_flex.c ****         track_first_item = f.rev ? cont->spec_attr->child_cnt - 1 : 0;
 2504              		.loc 2 251 5 view .LVU820
 241:Middlewares/lvgl/src/extra/layouts/flex/lv_flex.c ****         else if(track_cross_place == LV_FLEX_ALIGN_END) track_cross_place = LV_FLEX_ALIGN_START;
 2505              		.loc 2 241 72 is_stmt 0 view .LVU821
 2506 0208 CDF81C80 		str	r8, [sp, #28]
 2507 020c C2E7     		b	.L141
 2508              	.LVL259:
 2509              	.L140:
 242:Middlewares/lvgl/src/extra/layouts/flex/lv_flex.c ****     }
 2510              		.loc 2 242 14 is_stmt 1 view .LVU822
 242:Middlewares/lvgl/src/extra/layouts/flex/lv_flex.c ****     }
 2511              		.loc 2 242 16 is_stmt 0 view .LVU823
 2512 020e 079A     		ldr	r2, [sp, #28]
 2513 0210 012A     		cmp	r2, #1
 2514 0212 B8D1     		bne	.L139
 242:Middlewares/lvgl/src/extra/layouts/flex/lv_flex.c ****     }
 2515              		.loc 2 242 57 is_stmt 1 view .LVU824
 2516              	.LVL260:
 245:Middlewares/lvgl/src/extra/layouts/flex/lv_flex.c ****     lv_coord_t gap = 0;
 2517              		.loc 2 245 5 view .LVU825
 246:Middlewares/lvgl/src/extra/layouts/flex/lv_flex.c ****     uint32_t track_cnt = 0;
 2518              		.loc 2 246 5 view .LVU826
 246:Middlewares/lvgl/src/extra/layouts/flex/lv_flex.c ****     uint32_t track_cnt = 0;
 2519              		.loc 2 246 16 is_stmt 0 view .LVU827
 2520 0214 0025     		movs	r5, #0
 2521 0216 ADF84650 		strh	r5, [sp, #70]	@ movhi
 247:Middlewares/lvgl/src/extra/layouts/flex/lv_flex.c ****     int32_t track_first_item;
ARM GAS  /tmp/ccjZBdV3.s 			page 78


 2522              		.loc 2 247 5 is_stmt 1 view .LVU828
 2523              	.LVL261:
 248:Middlewares/lvgl/src/extra/layouts/flex/lv_flex.c ****     int32_t next_track_first_item;
 2524              		.loc 2 248 5 view .LVU829
 249:Middlewares/lvgl/src/extra/layouts/flex/lv_flex.c **** 
 2525              		.loc 2 249 5 view .LVU830
 251:Middlewares/lvgl/src/extra/layouts/flex/lv_flex.c ****         track_first_item = f.rev ? cont->spec_attr->child_cnt - 1 : 0;
 2526              		.loc 2 251 5 view .LVU831
 2527 021a 36E0     		b	.L142
 2528              	.LVL262:
 2529              	.L146:
 2530              	.LBB128:
 256:Middlewares/lvgl/src/extra/layouts/flex/lv_flex.c ****             next_track_first_item = find_track_end(cont, &f, track_first_item, max_main_size, item_
 2531              		.loc 2 256 13 view .LVU832
 256:Middlewares/lvgl/src/extra/layouts/flex/lv_flex.c ****             next_track_first_item = find_track_end(cont, &f, track_first_item, max_main_size, item_
 2532              		.loc 2 256 29 is_stmt 0 view .LVU833
 2533 021c 9DF84030 		ldrb	r3, [sp, #64]	@ zero_extendqisi2
 2534 0220 6FF30003 		bfc	r3, #0, #1
 2535 0224 8DF84030 		strb	r3, [sp, #64]
 257:Middlewares/lvgl/src/extra/layouts/flex/lv_flex.c ****             total_track_cross_size += t.track_cross_size + track_gap;
 2536              		.loc 2 257 13 is_stmt 1 view .LVU834
 257:Middlewares/lvgl/src/extra/layouts/flex/lv_flex.c ****             total_track_cross_size += t.track_cross_size + track_gap;
 2537              		.loc 2 257 37 is_stmt 0 view .LVU835
 2538 0228 0BAB     		add	r3, sp, #44
 2539 022a 0193     		str	r3, [sp, #4]
 2540 022c 0096     		str	r6, [sp]
 2541 022e 3B46     		mov	r3, r7
 2542 0230 13A9     		add	r1, sp, #76
 2543 0232 2046     		mov	r0, r4
 2544 0234 FFF7FEFF 		bl	find_track_end
 2545              	.LVL263:
 257:Middlewares/lvgl/src/extra/layouts/flex/lv_flex.c ****             total_track_cross_size += t.track_cross_size + track_gap;
 2546              		.loc 2 257 37 view .LVU836
 2547 0238 0246     		mov	r2, r0
 2548              	.LVL264:
 258:Middlewares/lvgl/src/extra/layouts/flex/lv_flex.c ****             track_cnt++;
 2549              		.loc 2 258 13 is_stmt 1 view .LVU837
 258:Middlewares/lvgl/src/extra/layouts/flex/lv_flex.c ****             track_cnt++;
 2550              		.loc 2 258 40 is_stmt 0 view .LVU838
 2551 023a BDF82C30 		ldrh	r3, [sp, #44]
 258:Middlewares/lvgl/src/extra/layouts/flex/lv_flex.c ****             track_cnt++;
 2552              		.loc 2 258 58 view .LVU839
 2553 023e 5344     		add	r3, r3, r10
 258:Middlewares/lvgl/src/extra/layouts/flex/lv_flex.c ****             track_cnt++;
 2554              		.loc 2 258 36 view .LVU840
 2555 0240 15FA83F5 		uxtah	r5, r5, r3
 2556              	.LVL265:
 258:Middlewares/lvgl/src/extra/layouts/flex/lv_flex.c ****             track_cnt++;
 2557              		.loc 2 258 36 view .LVU841
 2558 0244 2DB2     		sxth	r5, r5
 2559              	.LVL266:
 259:Middlewares/lvgl/src/extra/layouts/flex/lv_flex.c ****             track_first_item = next_track_first_item;
 2560              		.loc 2 259 13 is_stmt 1 view .LVU842
 259:Middlewares/lvgl/src/extra/layouts/flex/lv_flex.c ****             track_first_item = next_track_first_item;
 2561              		.loc 2 259 22 is_stmt 0 view .LVU843
 2562 0246 0BF1010B 		add	fp, fp, #1
 2563              	.LVL267:
ARM GAS  /tmp/ccjZBdV3.s 			page 79


 260:Middlewares/lvgl/src/extra/layouts/flex/lv_flex.c ****         }
 2564              		.loc 2 260 13 is_stmt 1 view .LVU844
 2565              	.L144:
 254:Middlewares/lvgl/src/extra/layouts/flex/lv_flex.c ****             /*Search the first item of the next row*/
 2566              		.loc 2 254 14 view .LVU845
 254:Middlewares/lvgl/src/extra/layouts/flex/lv_flex.c ****             /*Search the first item of the next row*/
 2567              		.loc 2 254 47 is_stmt 0 view .LVU846
 2568 024a A368     		ldr	r3, [r4, #8]
 254:Middlewares/lvgl/src/extra/layouts/flex/lv_flex.c ****             /*Search the first item of the next row*/
 2569              		.loc 2 254 58 view .LVU847
 2570 024c 5B68     		ldr	r3, [r3, #4]
 254:Middlewares/lvgl/src/extra/layouts/flex/lv_flex.c ****             /*Search the first item of the next row*/
 2571              		.loc 2 254 14 view .LVU848
 2572 024e 9342     		cmp	r3, r2
 2573 0250 01DD     		ble	.L145
 254:Middlewares/lvgl/src/extra/layouts/flex/lv_flex.c ****             /*Search the first item of the next row*/
 2574              		.loc 2 254 70 discriminator 1 view .LVU849
 2575 0252 002A     		cmp	r2, #0
 2576 0254 E2DA     		bge	.L146
 2577              	.L145:
 263:Middlewares/lvgl/src/extra/layouts/flex/lv_flex.c **** 
 2578              		.loc 2 263 9 is_stmt 1 view .LVU850
 263:Middlewares/lvgl/src/extra/layouts/flex/lv_flex.c **** 
 2579              		.loc 2 263 11 is_stmt 0 view .LVU851
 2580 0256 BBF1000F 		cmp	fp, #0
 2581 025a 02D0     		beq	.L147
 263:Middlewares/lvgl/src/extra/layouts/flex/lv_flex.c **** 
 2582              		.loc 2 263 23 is_stmt 1 discriminator 1 view .LVU852
 263:Middlewares/lvgl/src/extra/layouts/flex/lv_flex.c **** 
 2583              		.loc 2 263 46 is_stmt 0 discriminator 1 view .LVU853
 2584 025c A5EB0A05 		sub	r5, r5, r10
 2585              	.LVL268:
 263:Middlewares/lvgl/src/extra/layouts/flex/lv_flex.c **** 
 2586              		.loc 2 263 46 discriminator 1 view .LVU854
 2587 0260 2DB2     		sxth	r5, r5
 2588              	.LVL269:
 2589              	.L147:
 266:Middlewares/lvgl/src/extra/layouts/flex/lv_flex.c ****         place_content(track_cross_place, max_cross_size, total_track_cross_size, track_cnt, cross_p
 2590              		.loc 2 266 9 is_stmt 1 view .LVU855
 266:Middlewares/lvgl/src/extra/layouts/flex/lv_flex.c ****         place_content(track_cross_place, max_cross_size, total_track_cross_size, track_cnt, cross_p
 2591              		.loc 2 266 44 is_stmt 0 view .LVU856
 2592 0262 9DF84F30 		ldrb	r3, [sp, #79]	@ zero_extendqisi2
 266:Middlewares/lvgl/src/extra/layouts/flex/lv_flex.c ****         place_content(track_cross_place, max_cross_size, total_track_cross_size, track_cnt, cross_p
 2593              		.loc 2 266 20 view .LVU857
 2594 0266 13F0010F 		tst	r3, #1
 2595 026a 25D0     		beq	.L148
 266:Middlewares/lvgl/src/extra/layouts/flex/lv_flex.c ****         place_content(track_cross_place, max_cross_size, total_track_cross_size, track_cnt, cross_p
 2596              		.loc 2 266 46 discriminator 1 view .LVU858
 2597 026c 2046     		mov	r0, r4
 2598 026e FFF7FEFF 		bl	lv_obj_get_content_height
 2599              	.LVL270:
 266:Middlewares/lvgl/src/extra/layouts/flex/lv_flex.c ****         place_content(track_cross_place, max_cross_size, total_track_cross_size, track_cnt, cross_p
 2600              		.loc 2 266 46 discriminator 1 view .LVU859
 2601 0272 0146     		mov	r1, r0
 2602              	.L149:
 2603              	.LVL271:
 267:Middlewares/lvgl/src/extra/layouts/flex/lv_flex.c ****     }
ARM GAS  /tmp/ccjZBdV3.s 			page 80


 2604              		.loc 2 267 9 is_stmt 1 discriminator 4 view .LVU860
 2605 0274 0DF14603 		add	r3, sp, #70
 2606 0278 0193     		str	r3, [sp, #4]
 2607 027a CDF80090 		str	r9, [sp]
 2608 027e 0FFA8BF3 		sxth	r3, fp
 2609 0282 2A46     		mov	r2, r5
 2610 0284 0798     		ldr	r0, [sp, #28]
 2611 0286 FFF7FEFF 		bl	place_content
 2612              	.LVL272:
 2613              	.L142:
 267:Middlewares/lvgl/src/extra/layouts/flex/lv_flex.c ****     }
 2614              		.loc 2 267 9 is_stmt 0 discriminator 4 view .LVU861
 2615              	.LBE128:
 270:Middlewares/lvgl/src/extra/layouts/flex/lv_flex.c **** 
 2616              		.loc 2 270 5 is_stmt 1 view .LVU862
 270:Middlewares/lvgl/src/extra/layouts/flex/lv_flex.c **** 
 2617              		.loc 2 270 31 is_stmt 0 view .LVU863
 2618 028a 9DF84F30 		ldrb	r3, [sp, #79]	@ zero_extendqisi2
 270:Middlewares/lvgl/src/extra/layouts/flex/lv_flex.c **** 
 2619              		.loc 2 270 64 view .LVU864
 2620 028e 13F0040F 		tst	r3, #4
 2621 0292 18D0     		beq	.L164
 270:Middlewares/lvgl/src/extra/layouts/flex/lv_flex.c **** 
 2622              		.loc 2 270 37 discriminator 1 view .LVU865
 2623 0294 A268     		ldr	r2, [r4, #8]
 270:Middlewares/lvgl/src/extra/layouts/flex/lv_flex.c **** 
 2624              		.loc 2 270 48 discriminator 1 view .LVU866
 2625 0296 5268     		ldr	r2, [r2, #4]
 270:Middlewares/lvgl/src/extra/layouts/flex/lv_flex.c **** 
 2626              		.loc 2 270 60 discriminator 1 view .LVU867
 2627 0298 02F1FF3B 		add	fp, r2, #-1
 2628              	.L150:
 2629              	.LVL273:
 272:Middlewares/lvgl/src/extra/layouts/flex/lv_flex.c ****          *cross_pos += total_track_cross_size;
 2630              		.loc 2 272 5 is_stmt 1 discriminator 4 view .LVU868
 272:Middlewares/lvgl/src/extra/layouts/flex/lv_flex.c ****          *cross_pos += total_track_cross_size;
 2631              		.loc 2 272 7 is_stmt 0 discriminator 4 view .LVU869
 2632 029c B8F1010F 		cmp	r8, #1
 2633 02a0 38D1     		bne	.L155
 272:Middlewares/lvgl/src/extra/layouts/flex/lv_flex.c ****          *cross_pos += total_track_cross_size;
 2634              		.loc 2 272 12 discriminator 1 view .LVU870
 2635 02a2 13F0010F 		tst	r3, #1
 2636 02a6 35D1     		bne	.L155
 273:Middlewares/lvgl/src/extra/layouts/flex/lv_flex.c ****     }
 2637              		.loc 2 273 10 is_stmt 1 view .LVU871
 273:Middlewares/lvgl/src/extra/layouts/flex/lv_flex.c ****     }
 2638              		.loc 2 273 21 is_stmt 0 view .LVU872
 2639 02a8 B9F80030 		ldrh	r3, [r9]
 2640 02ac 1D44     		add	r5, r5, r3
 2641              	.LVL274:
 273:Middlewares/lvgl/src/extra/layouts/flex/lv_flex.c ****     }
 2642              		.loc 2 273 21 view .LVU873
 2643 02ae A9F80050 		strh	r5, [r9]	@ movhi
 2644 02b2 2FE0     		b	.L155
 2645              	.LVL275:
 2646              	.L163:
 2647              	.LBB129:
ARM GAS  /tmp/ccjZBdV3.s 			page 81


 252:Middlewares/lvgl/src/extra/layouts/flex/lv_flex.c ****         track_t t;
 2648              		.loc 2 252 67 view .LVU874
 2649 02b4 0022     		movs	r2, #0
 2650 02b6 74E7     		b	.L143
 2651              	.LVL276:
 2652              	.L148:
 266:Middlewares/lvgl/src/extra/layouts/flex/lv_flex.c ****         place_content(track_cross_place, max_cross_size, total_track_cross_size, track_cnt, cross_p
 2653              		.loc 2 266 80 discriminator 2 view .LVU875
 2654 02b8 2046     		mov	r0, r4
 2655 02ba FFF7FEFF 		bl	lv_obj_get_content_width
 2656              	.LVL277:
 266:Middlewares/lvgl/src/extra/layouts/flex/lv_flex.c ****         place_content(track_cross_place, max_cross_size, total_track_cross_size, track_cnt, cross_p
 2657              		.loc 2 266 80 discriminator 2 view .LVU876
 2658 02be 0146     		mov	r1, r0
 2659 02c0 D8E7     		b	.L149
 2660              	.LVL278:
 2661              	.L162:
 266:Middlewares/lvgl/src/extra/layouts/flex/lv_flex.c ****         place_content(track_cross_place, max_cross_size, total_track_cross_size, track_cnt, cross_p
 2662              		.loc 2 266 80 discriminator 2 view .LVU877
 2663              	.LBE129:
 245:Middlewares/lvgl/src/extra/layouts/flex/lv_flex.c ****     lv_coord_t gap = 0;
 2664              		.loc 2 245 16 view .LVU878
 2665 02c2 0025     		movs	r5, #0
 2666 02c4 E1E7     		b	.L142
 2667              	.LVL279:
 2668              	.L164:
 270:Middlewares/lvgl/src/extra/layouts/flex/lv_flex.c **** 
 2669              		.loc 2 270 64 view .LVU879
 2670 02c6 4FF0000B 		mov	fp, #0
 2671 02ca E7E7     		b	.L150
 2672              	.LVL280:
 2673              	.L171:
 2674              	.LBB130:
 282:Middlewares/lvgl/src/extra/layouts/flex/lv_flex.c ****             *cross_pos -= t.track_cross_size;
 2675              		.loc 2 282 19 discriminator 1 view .LVU880
 2676 02cc 9DF84F30 		ldrb	r3, [sp, #79]	@ zero_extendqisi2
 282:Middlewares/lvgl/src/extra/layouts/flex/lv_flex.c ****             *cross_pos -= t.track_cross_size;
 2677              		.loc 2 282 16 discriminator 1 view .LVU881
 2678 02d0 13F0010F 		tst	r3, #1
 2679 02d4 38D1     		bne	.L152
 283:Middlewares/lvgl/src/extra/layouts/flex/lv_flex.c ****         }
 2680              		.loc 2 283 13 is_stmt 1 view .LVU882
 283:Middlewares/lvgl/src/extra/layouts/flex/lv_flex.c ****         }
 2681              		.loc 2 283 28 is_stmt 0 view .LVU883
 2682 02d6 BDF82C20 		ldrh	r2, [sp, #44]
 283:Middlewares/lvgl/src/extra/layouts/flex/lv_flex.c ****         }
 2683              		.loc 2 283 24 view .LVU884
 2684 02da B9F80030 		ldrh	r3, [r9]
 2685 02de 9B1A     		subs	r3, r3, r2
 2686 02e0 A9F80030 		strh	r3, [r9]	@ movhi
 2687 02e4 30E0     		b	.L152
 2688              	.L174:
 2689 02e6 00BF     		.align	2
 2690              	.L173:
 2691 02e8 00000000 		.word	.LANCHOR1
 2692 02ec 00000000 		.word	.LANCHOR2
 2693 02f0 00000000 		.word	.LANCHOR3
ARM GAS  /tmp/ccjZBdV3.s 			page 82


 2694 02f4 00000000 		.word	.LANCHOR4
 2695              	.LVL281:
 2696              	.L153:
 292:Middlewares/lvgl/src/extra/layouts/flex/lv_flex.c ****         }
 2697              		.loc 2 292 13 is_stmt 1 view .LVU885
 292:Middlewares/lvgl/src/extra/layouts/flex/lv_flex.c ****         }
 2698              		.loc 2 292 28 is_stmt 0 view .LVU886
 2699 02f8 BDF82C20 		ldrh	r2, [sp, #44]
 292:Middlewares/lvgl/src/extra/layouts/flex/lv_flex.c ****         }
 2700              		.loc 2 292 46 view .LVU887
 2701 02fc BDF84630 		ldrh	r3, [sp, #70]
 2702 0300 1A44     		add	r2, r2, r3
 292:Middlewares/lvgl/src/extra/layouts/flex/lv_flex.c ****         }
 2703              		.loc 2 292 52 view .LVU888
 2704 0302 1AFA82F2 		uxtah	r2, r10, r2
 292:Middlewares/lvgl/src/extra/layouts/flex/lv_flex.c ****         }
 2705              		.loc 2 292 24 view .LVU889
 2706 0306 B9F80030 		ldrh	r3, [r9]
 2707 030a 13FA82F2 		uxtah	r2, r3, r2
 2708 030e A9F80020 		strh	r2, [r9]	@ movhi
 2709              	.L154:
 286:Middlewares/lvgl/src/extra/layouts/flex/lv_flex.c ****         lv_mem_buf_release(t.grow_dsc);
 2710              		.loc 2 286 26 view .LVU890
 2711 0312 AB46     		mov	fp, r5
 2712              	.LVL282:
 2713              	.L155:
 286:Middlewares/lvgl/src/extra/layouts/flex/lv_flex.c ****         lv_mem_buf_release(t.grow_dsc);
 2714              		.loc 2 286 26 view .LVU891
 2715              	.LBE130:
 276:Middlewares/lvgl/src/extra/layouts/flex/lv_flex.c ****         track_t t;
 2716              		.loc 2 276 10 is_stmt 1 view .LVU892
 276:Middlewares/lvgl/src/extra/layouts/flex/lv_flex.c ****         track_t t;
 2717              		.loc 2 276 43 is_stmt 0 view .LVU893
 2718 0314 A368     		ldr	r3, [r4, #8]
 276:Middlewares/lvgl/src/extra/layouts/flex/lv_flex.c ****         track_t t;
 2719              		.loc 2 276 54 view .LVU894
 2720 0316 5B68     		ldr	r3, [r3, #4]
 276:Middlewares/lvgl/src/extra/layouts/flex/lv_flex.c ****         track_t t;
 2721              		.loc 2 276 10 view .LVU895
 2722 0318 5B45     		cmp	r3, fp
 2723 031a 3CDD     		ble	.L156
 276:Middlewares/lvgl/src/extra/layouts/flex/lv_flex.c ****         track_t t;
 2724              		.loc 2 276 66 discriminator 1 view .LVU896
 2725 031c BBF1000F 		cmp	fp, #0
 2726 0320 39DB     		blt	.L156
 2727              	.LBB131:
 277:Middlewares/lvgl/src/extra/layouts/flex/lv_flex.c ****         t.grow_dsc_calc = 1;
 2728              		.loc 2 277 9 is_stmt 1 view .LVU897
 278:Middlewares/lvgl/src/extra/layouts/flex/lv_flex.c ****         /*Search the first item of the next row*/
 2729              		.loc 2 278 9 view .LVU898
 278:Middlewares/lvgl/src/extra/layouts/flex/lv_flex.c ****         /*Search the first item of the next row*/
 2730              		.loc 2 278 25 is_stmt 0 view .LVU899
 2731 0322 9DF84030 		ldrb	r3, [sp, #64]	@ zero_extendqisi2
 2732 0326 43F00103 		orr	r3, r3, #1
 2733 032a 8DF84030 		strb	r3, [sp, #64]
 280:Middlewares/lvgl/src/extra/layouts/flex/lv_flex.c **** 
 2734              		.loc 2 280 9 is_stmt 1 view .LVU900
ARM GAS  /tmp/ccjZBdV3.s 			page 83


 280:Middlewares/lvgl/src/extra/layouts/flex/lv_flex.c **** 
 2735              		.loc 2 280 33 is_stmt 0 view .LVU901
 2736 032e 0BAB     		add	r3, sp, #44
 2737 0330 0193     		str	r3, [sp, #4]
 2738 0332 0096     		str	r6, [sp]
 2739 0334 3B46     		mov	r3, r7
 2740 0336 5A46     		mov	r2, fp
 2741 0338 13A9     		add	r1, sp, #76
 2742 033a 2046     		mov	r0, r4
 2743 033c FFF7FEFF 		bl	find_track_end
 2744              	.LVL283:
 2745 0340 0546     		mov	r5, r0
 2746              	.LVL284:
 282:Middlewares/lvgl/src/extra/layouts/flex/lv_flex.c ****             *cross_pos -= t.track_cross_size;
 2747              		.loc 2 282 9 is_stmt 1 view .LVU902
 282:Middlewares/lvgl/src/extra/layouts/flex/lv_flex.c ****             *cross_pos -= t.track_cross_size;
 2748              		.loc 2 282 11 is_stmt 0 view .LVU903
 2749 0342 B8F1010F 		cmp	r8, #1
 2750 0346 C1D0     		beq	.L171
 2751              	.L152:
 285:Middlewares/lvgl/src/extra/layouts/flex/lv_flex.c ****         track_first_item = next_track_first_item;
 2752              		.loc 2 285 9 is_stmt 1 view .LVU904
 2753 0348 0BAB     		add	r3, sp, #44
 2754 034a 0493     		str	r3, [sp, #16]
 2755 034c 0396     		str	r6, [sp, #12]
 2756 034e 0297     		str	r7, [sp, #8]
 2757 0350 BDF94A30 		ldrsh	r3, [sp, #74]
 2758 0354 0193     		str	r3, [sp, #4]
 2759 0356 BDF94830 		ldrsh	r3, [sp, #72]
 2760 035a 0093     		str	r3, [sp]
 2761 035c 2B46     		mov	r3, r5
 2762 035e 5A46     		mov	r2, fp
 2763 0360 13A9     		add	r1, sp, #76
 2764 0362 2046     		mov	r0, r4
 2765              	.LVL285:
 285:Middlewares/lvgl/src/extra/layouts/flex/lv_flex.c ****         track_first_item = next_track_first_item;
 2766              		.loc 2 285 9 is_stmt 0 view .LVU905
 2767 0364 FFF7FEFF 		bl	children_repos
 2768              	.LVL286:
 286:Middlewares/lvgl/src/extra/layouts/flex/lv_flex.c ****         lv_mem_buf_release(t.grow_dsc);
 2769              		.loc 2 286 9 is_stmt 1 view .LVU906
 287:Middlewares/lvgl/src/extra/layouts/flex/lv_flex.c ****         t.grow_dsc = NULL;
 2770              		.loc 2 287 9 view .LVU907
 2771 0368 0E98     		ldr	r0, [sp, #56]
 2772 036a FFF7FEFF 		bl	lv_mem_buf_release
 2773              	.LVL287:
 288:Middlewares/lvgl/src/extra/layouts/flex/lv_flex.c ****         if(rtl && !f.row) {
 2774              		.loc 2 288 9 view .LVU908
 288:Middlewares/lvgl/src/extra/layouts/flex/lv_flex.c ****         if(rtl && !f.row) {
 2775              		.loc 2 288 20 is_stmt 0 view .LVU909
 2776 036e 0023     		movs	r3, #0
 2777 0370 0E93     		str	r3, [sp, #56]
 289:Middlewares/lvgl/src/extra/layouts/flex/lv_flex.c ****             *cross_pos -= gap + track_gap;
 2778              		.loc 2 289 9 is_stmt 1 view .LVU910
 289:Middlewares/lvgl/src/extra/layouts/flex/lv_flex.c ****             *cross_pos -= gap + track_gap;
 2779              		.loc 2 289 11 is_stmt 0 view .LVU911
 2780 0372 B8F1010F 		cmp	r8, #1
ARM GAS  /tmp/ccjZBdV3.s 			page 84


 2781 0376 BFD1     		bne	.L153
 289:Middlewares/lvgl/src/extra/layouts/flex/lv_flex.c ****             *cross_pos -= gap + track_gap;
 2782              		.loc 2 289 19 discriminator 1 view .LVU912
 2783 0378 9DF84F30 		ldrb	r3, [sp, #79]	@ zero_extendqisi2
 289:Middlewares/lvgl/src/extra/layouts/flex/lv_flex.c ****             *cross_pos -= gap + track_gap;
 2784              		.loc 2 289 16 discriminator 1 view .LVU913
 2785 037c 13F0010F 		tst	r3, #1
 2786 0380 BAD1     		bne	.L153
 290:Middlewares/lvgl/src/extra/layouts/flex/lv_flex.c ****         } else {
 2787              		.loc 2 290 13 is_stmt 1 view .LVU914
 290:Middlewares/lvgl/src/extra/layouts/flex/lv_flex.c ****         } else {
 2788              		.loc 2 290 31 is_stmt 0 view .LVU915
 2789 0382 BDF84630 		ldrh	r3, [sp, #70]
 2790 0386 5344     		add	r3, r3, r10
 2791 0388 9BB2     		uxth	r3, r3
 290:Middlewares/lvgl/src/extra/layouts/flex/lv_flex.c ****         } else {
 2792              		.loc 2 290 24 view .LVU916
 2793 038a B9F80020 		ldrh	r2, [r9]
 2794 038e D31A     		subs	r3, r2, r3
 2795 0390 A9F80030 		strh	r3, [r9]	@ movhi
 2796 0394 BDE7     		b	.L154
 2797              	.LVL288:
 2798              	.L156:
 290:Middlewares/lvgl/src/extra/layouts/flex/lv_flex.c ****         } else {
 2799              		.loc 2 290 24 view .LVU917
 2800              	.LBE131:
 295:Middlewares/lvgl/src/extra/layouts/flex/lv_flex.c **** 
 2801              		.loc 2 295 30 is_stmt 1 view .LVU918
 297:Middlewares/lvgl/src/extra/layouts/flex/lv_flex.c ****         lv_obj_refr_size(cont);
 2802              		.loc 2 297 5 view .LVU919
 297:Middlewares/lvgl/src/extra/layouts/flex/lv_flex.c ****         lv_obj_refr_size(cont);
 2803              		.loc 2 297 14 is_stmt 0 view .LVU920
 2804 0396 42F2D173 		movw	r3, #10193
 297:Middlewares/lvgl/src/extra/layouts/flex/lv_flex.c ****         lv_obj_refr_size(cont);
 2805              		.loc 2 297 7 view .LVU921
 2806 039a 089A     		ldr	r2, [sp, #32]
 2807 039c 0999     		ldr	r1, [sp, #36]
 2808 039e 9942     		cmp	r1, r3
 2809 03a0 18BF     		it	ne
 2810 03a2 9A42     		cmpne	r2, r3
 2811 03a4 07D0     		beq	.L172
 2812              	.L158:
 301:Middlewares/lvgl/src/extra/layouts/flex/lv_flex.c **** 
 2813              		.loc 2 301 5 is_stmt 1 view .LVU922
 2814 03a6 0022     		movs	r2, #0
 2815 03a8 2521     		movs	r1, #37
 2816 03aa 2046     		mov	r0, r4
 2817 03ac FFF7FEFF 		bl	lv_event_send
 2818              	.LVL289:
 303:Middlewares/lvgl/src/extra/layouts/flex/lv_flex.c **** }
 2819              		.loc 2 303 32 view .LVU923
 304:Middlewares/lvgl/src/extra/layouts/flex/lv_flex.c **** 
 2820              		.loc 2 304 1 is_stmt 0 view .LVU924
 2821 03b0 15B0     		add	sp, sp, #84
 2822              	.LCFI12:
 2823              		.cfi_remember_state
 2824              		.cfi_def_cfa_offset 36
ARM GAS  /tmp/ccjZBdV3.s 			page 85


 2825              		@ sp needed
 2826 03b2 BDE8F08F 		pop	{r4, r5, r6, r7, r8, r9, r10, fp, pc}
 2827              	.LVL290:
 2828              	.L172:
 2829              	.LCFI13:
 2830              		.cfi_restore_state
 298:Middlewares/lvgl/src/extra/layouts/flex/lv_flex.c ****     }
 2831              		.loc 2 298 9 is_stmt 1 view .LVU925
 2832 03b6 2046     		mov	r0, r4
 2833 03b8 FFF7FEFF 		bl	lv_obj_refr_size
 2834              	.LVL291:
 2835 03bc F3E7     		b	.L158
 2836              		.cfi_endproc
 2837              	.LFE177:
 2839 03be 00BF     		.section	.text.lv_flex_init,"ax",%progbits
 2840              		.align	1
 2841              		.global	lv_flex_init
 2842              		.syntax unified
 2843              		.thumb
 2844              		.thumb_func
 2845              		.fpu fpv5-d16
 2847              	lv_flex_init:
 2848              	.LFB163:
  90:Middlewares/lvgl/src/extra/layouts/flex/lv_flex.c ****     LV_LAYOUT_FLEX = lv_layout_register(flex_update, NULL);
 2849              		.loc 2 90 1 view -0
 2850              		.cfi_startproc
 2851              		@ args = 0, pretend = 0, frame = 0
 2852              		@ frame_needed = 0, uses_anonymous_args = 0
 2853 0000 08B5     		push	{r3, lr}
 2854              	.LCFI14:
 2855              		.cfi_def_cfa_offset 8
 2856              		.cfi_offset 3, -8
 2857              		.cfi_offset 14, -4
  91:Middlewares/lvgl/src/extra/layouts/flex/lv_flex.c **** 
 2858              		.loc 2 91 5 view .LVU927
  91:Middlewares/lvgl/src/extra/layouts/flex/lv_flex.c **** 
 2859              		.loc 2 91 22 is_stmt 0 view .LVU928
 2860 0002 0021     		movs	r1, #0
 2861 0004 0D48     		ldr	r0, .L177
 2862 0006 FFF7FEFF 		bl	lv_layout_register
 2863              	.LVL292:
  91:Middlewares/lvgl/src/extra/layouts/flex/lv_flex.c **** 
 2864              		.loc 2 91 20 view .LVU929
 2865 000a 0D4B     		ldr	r3, .L177+4
 2866 000c 1860     		str	r0, [r3]
  93:Middlewares/lvgl/src/extra/layouts/flex/lv_flex.c ****     LV_STYLE_FLEX_MAIN_PLACE = lv_style_register_prop() | LV_STYLE_PROP_LAYOUT_REFR;
 2867              		.loc 2 93 5 is_stmt 1 view .LVU930
  93:Middlewares/lvgl/src/extra/layouts/flex/lv_flex.c ****     LV_STYLE_FLEX_MAIN_PLACE = lv_style_register_prop() | LV_STYLE_PROP_LAYOUT_REFR;
 2868              		.loc 2 93 26 is_stmt 0 view .LVU931
 2869 000e FFF7FEFF 		bl	lv_style_register_prop
 2870              	.LVL293:
  93:Middlewares/lvgl/src/extra/layouts/flex/lv_flex.c ****     LV_STYLE_FLEX_MAIN_PLACE = lv_style_register_prop() | LV_STYLE_PROP_LAYOUT_REFR;
 2871              		.loc 2 93 24 view .LVU932
 2872 0012 0C4B     		ldr	r3, .L177+8
 2873 0014 1880     		strh	r0, [r3]	@ movhi
  94:Middlewares/lvgl/src/extra/layouts/flex/lv_flex.c ****     LV_STYLE_FLEX_CROSS_PLACE = lv_style_register_prop() | LV_STYLE_PROP_LAYOUT_REFR;
 2874              		.loc 2 94 5 is_stmt 1 view .LVU933
ARM GAS  /tmp/ccjZBdV3.s 			page 86


  94:Middlewares/lvgl/src/extra/layouts/flex/lv_flex.c ****     LV_STYLE_FLEX_CROSS_PLACE = lv_style_register_prop() | LV_STYLE_PROP_LAYOUT_REFR;
 2875              		.loc 2 94 32 is_stmt 0 view .LVU934
 2876 0016 FFF7FEFF 		bl	lv_style_register_prop
 2877              	.LVL294:
  94:Middlewares/lvgl/src/extra/layouts/flex/lv_flex.c ****     LV_STYLE_FLEX_CROSS_PLACE = lv_style_register_prop() | LV_STYLE_PROP_LAYOUT_REFR;
 2878              		.loc 2 94 30 view .LVU935
 2879 001a 40F48050 		orr	r0, r0, #4096
 2880 001e 0A4B     		ldr	r3, .L177+12
 2881 0020 1880     		strh	r0, [r3]	@ movhi
  95:Middlewares/lvgl/src/extra/layouts/flex/lv_flex.c ****     LV_STYLE_FLEX_TRACK_PLACE = lv_style_register_prop() | LV_STYLE_PROP_LAYOUT_REFR;
 2882              		.loc 2 95 5 is_stmt 1 view .LVU936
  95:Middlewares/lvgl/src/extra/layouts/flex/lv_flex.c ****     LV_STYLE_FLEX_TRACK_PLACE = lv_style_register_prop() | LV_STYLE_PROP_LAYOUT_REFR;
 2883              		.loc 2 95 33 is_stmt 0 view .LVU937
 2884 0022 FFF7FEFF 		bl	lv_style_register_prop
 2885              	.LVL295:
  95:Middlewares/lvgl/src/extra/layouts/flex/lv_flex.c ****     LV_STYLE_FLEX_TRACK_PLACE = lv_style_register_prop() | LV_STYLE_PROP_LAYOUT_REFR;
 2886              		.loc 2 95 31 view .LVU938
 2887 0026 40F48050 		orr	r0, r0, #4096
 2888 002a 084B     		ldr	r3, .L177+16
 2889 002c 1880     		strh	r0, [r3]	@ movhi
  96:Middlewares/lvgl/src/extra/layouts/flex/lv_flex.c **** }
 2890              		.loc 2 96 5 is_stmt 1 view .LVU939
  96:Middlewares/lvgl/src/extra/layouts/flex/lv_flex.c **** }
 2891              		.loc 2 96 33 is_stmt 0 view .LVU940
 2892 002e FFF7FEFF 		bl	lv_style_register_prop
 2893              	.LVL296:
  96:Middlewares/lvgl/src/extra/layouts/flex/lv_flex.c **** }
 2894              		.loc 2 96 31 view .LVU941
 2895 0032 40F48050 		orr	r0, r0, #4096
 2896 0036 064B     		ldr	r3, .L177+20
 2897 0038 1880     		strh	r0, [r3]	@ movhi
  97:Middlewares/lvgl/src/extra/layouts/flex/lv_flex.c **** 
 2898              		.loc 2 97 1 view .LVU942
 2899 003a 08BD     		pop	{r3, pc}
 2900              	.L178:
 2901              		.align	2
 2902              	.L177:
 2903 003c 00000000 		.word	flex_update
 2904 0040 00000000 		.word	.LANCHOR5
 2905 0044 00000000 		.word	.LANCHOR1
 2906 0048 00000000 		.word	.LANCHOR2
 2907 004c 00000000 		.word	.LANCHOR3
 2908 0050 00000000 		.word	.LANCHOR4
 2909              		.cfi_endproc
 2910              	.LFE163:
 2912              		.section	.text.lv_style_set_flex_flow,"ax",%progbits
 2913              		.align	1
 2914              		.global	lv_style_set_flex_flow
 2915              		.syntax unified
 2916              		.thumb
 2917              		.thumb_func
 2918              		.fpu fpv5-d16
 2920              	lv_style_set_flex_flow:
 2921              	.LVL297:
 2922              	.LFB167:
 121:Middlewares/lvgl/src/extra/layouts/flex/lv_flex.c ****     lv_style_value_t v = {
 2923              		.loc 2 121 1 is_stmt 1 view -0
ARM GAS  /tmp/ccjZBdV3.s 			page 87


 2924              		.cfi_startproc
 2925              		@ args = 0, pretend = 0, frame = 0
 2926              		@ frame_needed = 0, uses_anonymous_args = 0
 121:Middlewares/lvgl/src/extra/layouts/flex/lv_flex.c ****     lv_style_value_t v = {
 2927              		.loc 2 121 1 is_stmt 0 view .LVU944
 2928 0000 08B5     		push	{r3, lr}
 2929              	.LCFI15:
 2930              		.cfi_def_cfa_offset 8
 2931              		.cfi_offset 3, -8
 2932              		.cfi_offset 14, -4
 2933 0002 0A46     		mov	r2, r1
 122:Middlewares/lvgl/src/extra/layouts/flex/lv_flex.c ****         .num = (int32_t)value
 2934              		.loc 2 122 5 is_stmt 1 view .LVU945
 125:Middlewares/lvgl/src/extra/layouts/flex/lv_flex.c **** }
 2935              		.loc 2 125 5 view .LVU946
 2936 0004 024B     		ldr	r3, .L181
 2937 0006 1988     		ldrh	r1, [r3]
 2938              	.LVL298:
 125:Middlewares/lvgl/src/extra/layouts/flex/lv_flex.c **** }
 2939              		.loc 2 125 5 is_stmt 0 view .LVU947
 2940 0008 FFF7FEFF 		bl	lv_style_set_prop
 2941              	.LVL299:
 126:Middlewares/lvgl/src/extra/layouts/flex/lv_flex.c **** 
 2942              		.loc 2 126 1 view .LVU948
 2943 000c 08BD     		pop	{r3, pc}
 2944              	.L182:
 2945 000e 00BF     		.align	2
 2946              	.L181:
 2947 0010 00000000 		.word	.LANCHOR1
 2948              		.cfi_endproc
 2949              	.LFE167:
 2951              		.section	.text.lv_style_set_flex_main_place,"ax",%progbits
 2952              		.align	1
 2953              		.global	lv_style_set_flex_main_place
 2954              		.syntax unified
 2955              		.thumb
 2956              		.thumb_func
 2957              		.fpu fpv5-d16
 2959              	lv_style_set_flex_main_place:
 2960              	.LVL300:
 2961              	.LFB168:
 129:Middlewares/lvgl/src/extra/layouts/flex/lv_flex.c ****     lv_style_value_t v = {
 2962              		.loc 2 129 1 is_stmt 1 view -0
 2963              		.cfi_startproc
 2964              		@ args = 0, pretend = 0, frame = 0
 2965              		@ frame_needed = 0, uses_anonymous_args = 0
 129:Middlewares/lvgl/src/extra/layouts/flex/lv_flex.c ****     lv_style_value_t v = {
 2966              		.loc 2 129 1 is_stmt 0 view .LVU950
 2967 0000 08B5     		push	{r3, lr}
 2968              	.LCFI16:
 2969              		.cfi_def_cfa_offset 8
 2970              		.cfi_offset 3, -8
 2971              		.cfi_offset 14, -4
 2972 0002 0A46     		mov	r2, r1
 130:Middlewares/lvgl/src/extra/layouts/flex/lv_flex.c ****         .num = (int32_t)value
 2973              		.loc 2 130 5 is_stmt 1 view .LVU951
 133:Middlewares/lvgl/src/extra/layouts/flex/lv_flex.c **** }
ARM GAS  /tmp/ccjZBdV3.s 			page 88


 2974              		.loc 2 133 5 view .LVU952
 2975 0004 024B     		ldr	r3, .L185
 2976 0006 1988     		ldrh	r1, [r3]
 2977              	.LVL301:
 133:Middlewares/lvgl/src/extra/layouts/flex/lv_flex.c **** }
 2978              		.loc 2 133 5 is_stmt 0 view .LVU953
 2979 0008 FFF7FEFF 		bl	lv_style_set_prop
 2980              	.LVL302:
 134:Middlewares/lvgl/src/extra/layouts/flex/lv_flex.c **** 
 2981              		.loc 2 134 1 view .LVU954
 2982 000c 08BD     		pop	{r3, pc}
 2983              	.L186:
 2984 000e 00BF     		.align	2
 2985              	.L185:
 2986 0010 00000000 		.word	.LANCHOR2
 2987              		.cfi_endproc
 2988              	.LFE168:
 2990              		.section	.text.lv_style_set_flex_cross_place,"ax",%progbits
 2991              		.align	1
 2992              		.global	lv_style_set_flex_cross_place
 2993              		.syntax unified
 2994              		.thumb
 2995              		.thumb_func
 2996              		.fpu fpv5-d16
 2998              	lv_style_set_flex_cross_place:
 2999              	.LVL303:
 3000              	.LFB169:
 137:Middlewares/lvgl/src/extra/layouts/flex/lv_flex.c ****     lv_style_value_t v = {
 3001              		.loc 2 137 1 is_stmt 1 view -0
 3002              		.cfi_startproc
 3003              		@ args = 0, pretend = 0, frame = 0
 3004              		@ frame_needed = 0, uses_anonymous_args = 0
 137:Middlewares/lvgl/src/extra/layouts/flex/lv_flex.c ****     lv_style_value_t v = {
 3005              		.loc 2 137 1 is_stmt 0 view .LVU956
 3006 0000 08B5     		push	{r3, lr}
 3007              	.LCFI17:
 3008              		.cfi_def_cfa_offset 8
 3009              		.cfi_offset 3, -8
 3010              		.cfi_offset 14, -4
 3011 0002 0A46     		mov	r2, r1
 138:Middlewares/lvgl/src/extra/layouts/flex/lv_flex.c ****         .num = (int32_t)value
 3012              		.loc 2 138 5 is_stmt 1 view .LVU957
 141:Middlewares/lvgl/src/extra/layouts/flex/lv_flex.c **** }
 3013              		.loc 2 141 5 view .LVU958
 3014 0004 024B     		ldr	r3, .L189
 3015 0006 1988     		ldrh	r1, [r3]
 3016              	.LVL304:
 141:Middlewares/lvgl/src/extra/layouts/flex/lv_flex.c **** }
 3017              		.loc 2 141 5 is_stmt 0 view .LVU959
 3018 0008 FFF7FEFF 		bl	lv_style_set_prop
 3019              	.LVL305:
 142:Middlewares/lvgl/src/extra/layouts/flex/lv_flex.c **** 
 3020              		.loc 2 142 1 view .LVU960
 3021 000c 08BD     		pop	{r3, pc}
 3022              	.L190:
 3023 000e 00BF     		.align	2
 3024              	.L189:
ARM GAS  /tmp/ccjZBdV3.s 			page 89


 3025 0010 00000000 		.word	.LANCHOR3
 3026              		.cfi_endproc
 3027              	.LFE169:
 3029              		.section	.text.lv_style_set_flex_track_place,"ax",%progbits
 3030              		.align	1
 3031              		.global	lv_style_set_flex_track_place
 3032              		.syntax unified
 3033              		.thumb
 3034              		.thumb_func
 3035              		.fpu fpv5-d16
 3037              	lv_style_set_flex_track_place:
 3038              	.LVL306:
 3039              	.LFB170:
 145:Middlewares/lvgl/src/extra/layouts/flex/lv_flex.c ****     lv_style_value_t v = {
 3040              		.loc 2 145 1 is_stmt 1 view -0
 3041              		.cfi_startproc
 3042              		@ args = 0, pretend = 0, frame = 0
 3043              		@ frame_needed = 0, uses_anonymous_args = 0
 145:Middlewares/lvgl/src/extra/layouts/flex/lv_flex.c ****     lv_style_value_t v = {
 3044              		.loc 2 145 1 is_stmt 0 view .LVU962
 3045 0000 08B5     		push	{r3, lr}
 3046              	.LCFI18:
 3047              		.cfi_def_cfa_offset 8
 3048              		.cfi_offset 3, -8
 3049              		.cfi_offset 14, -4
 3050 0002 0A46     		mov	r2, r1
 146:Middlewares/lvgl/src/extra/layouts/flex/lv_flex.c ****         .num = (int32_t)value
 3051              		.loc 2 146 5 is_stmt 1 view .LVU963
 149:Middlewares/lvgl/src/extra/layouts/flex/lv_flex.c **** }
 3052              		.loc 2 149 5 view .LVU964
 3053 0004 024B     		ldr	r3, .L193
 3054 0006 1988     		ldrh	r1, [r3]
 3055              	.LVL307:
 149:Middlewares/lvgl/src/extra/layouts/flex/lv_flex.c **** }
 3056              		.loc 2 149 5 is_stmt 0 view .LVU965
 3057 0008 FFF7FEFF 		bl	lv_style_set_prop
 3058              	.LVL308:
 150:Middlewares/lvgl/src/extra/layouts/flex/lv_flex.c **** 
 3059              		.loc 2 150 1 view .LVU966
 3060 000c 08BD     		pop	{r3, pc}
 3061              	.L194:
 3062 000e 00BF     		.align	2
 3063              	.L193:
 3064 0010 00000000 		.word	.LANCHOR4
 3065              		.cfi_endproc
 3066              	.LFE170:
 3068              		.section	.text.lv_style_set_flex_grow,"ax",%progbits
 3069              		.align	1
 3070              		.global	lv_style_set_flex_grow
 3071              		.syntax unified
 3072              		.thumb
 3073              		.thumb_func
 3074              		.fpu fpv5-d16
 3076              	lv_style_set_flex_grow:
 3077              	.LVL309:
 3078              	.LFB171:
 153:Middlewares/lvgl/src/extra/layouts/flex/lv_flex.c ****     lv_style_value_t v = {
ARM GAS  /tmp/ccjZBdV3.s 			page 90


 3079              		.loc 2 153 1 is_stmt 1 view -0
 3080              		.cfi_startproc
 3081              		@ args = 0, pretend = 0, frame = 0
 3082              		@ frame_needed = 0, uses_anonymous_args = 0
 153:Middlewares/lvgl/src/extra/layouts/flex/lv_flex.c ****     lv_style_value_t v = {
 3083              		.loc 2 153 1 is_stmt 0 view .LVU968
 3084 0000 08B5     		push	{r3, lr}
 3085              	.LCFI19:
 3086              		.cfi_def_cfa_offset 8
 3087              		.cfi_offset 3, -8
 3088              		.cfi_offset 14, -4
 3089 0002 0A46     		mov	r2, r1
 154:Middlewares/lvgl/src/extra/layouts/flex/lv_flex.c ****             .num = (int32_t)value
 3090              		.loc 2 154 5 is_stmt 1 view .LVU969
 157:Middlewares/lvgl/src/extra/layouts/flex/lv_flex.c **** }
 3091              		.loc 2 157 5 view .LVU970
 3092 0004 024B     		ldr	r3, .L197
 3093 0006 1988     		ldrh	r1, [r3]
 3094              	.LVL310:
 157:Middlewares/lvgl/src/extra/layouts/flex/lv_flex.c **** }
 3095              		.loc 2 157 5 is_stmt 0 view .LVU971
 3096 0008 FFF7FEFF 		bl	lv_style_set_prop
 3097              	.LVL311:
 158:Middlewares/lvgl/src/extra/layouts/flex/lv_flex.c **** 
 3098              		.loc 2 158 1 view .LVU972
 3099 000c 08BD     		pop	{r3, pc}
 3100              	.L198:
 3101 000e 00BF     		.align	2
 3102              	.L197:
 3103 0010 00000000 		.word	.LANCHOR0
 3104              		.cfi_endproc
 3105              	.LFE171:
 3107              		.section	.text.lv_obj_set_style_flex_flow,"ax",%progbits
 3108              		.align	1
 3109              		.global	lv_obj_set_style_flex_flow
 3110              		.syntax unified
 3111              		.thumb
 3112              		.thumb_func
 3113              		.fpu fpv5-d16
 3115              	lv_obj_set_style_flex_flow:
 3116              	.LVL312:
 3117              	.LFB172:
 162:Middlewares/lvgl/src/extra/layouts/flex/lv_flex.c ****     lv_style_value_t v = {
 3118              		.loc 2 162 1 is_stmt 1 view -0
 3119              		.cfi_startproc
 3120              		@ args = 0, pretend = 0, frame = 0
 3121              		@ frame_needed = 0, uses_anonymous_args = 0
 162:Middlewares/lvgl/src/extra/layouts/flex/lv_flex.c ****     lv_style_value_t v = {
 3122              		.loc 2 162 1 is_stmt 0 view .LVU974
 3123 0000 08B5     		push	{r3, lr}
 3124              	.LCFI20:
 3125              		.cfi_def_cfa_offset 8
 3126              		.cfi_offset 3, -8
 3127              		.cfi_offset 14, -4
 3128 0002 1346     		mov	r3, r2
 163:Middlewares/lvgl/src/extra/layouts/flex/lv_flex.c ****         .num = (int32_t) value
 3129              		.loc 2 163 5 is_stmt 1 view .LVU975
ARM GAS  /tmp/ccjZBdV3.s 			page 91


 166:Middlewares/lvgl/src/extra/layouts/flex/lv_flex.c **** }
 3130              		.loc 2 166 5 view .LVU976
 3131 0004 0A46     		mov	r2, r1
 3132              	.LVL313:
 166:Middlewares/lvgl/src/extra/layouts/flex/lv_flex.c **** }
 3133              		.loc 2 166 5 is_stmt 0 view .LVU977
 3134 0006 0249     		ldr	r1, .L201
 3135              	.LVL314:
 166:Middlewares/lvgl/src/extra/layouts/flex/lv_flex.c **** }
 3136              		.loc 2 166 5 view .LVU978
 3137 0008 0988     		ldrh	r1, [r1]
 3138 000a FFF7FEFF 		bl	lv_obj_set_local_style_prop
 3139              	.LVL315:
 167:Middlewares/lvgl/src/extra/layouts/flex/lv_flex.c **** 
 3140              		.loc 2 167 1 view .LVU979
 3141 000e 08BD     		pop	{r3, pc}
 3142              	.L202:
 3143              		.align	2
 3144              	.L201:
 3145 0010 00000000 		.word	.LANCHOR1
 3146              		.cfi_endproc
 3147              	.LFE172:
 3149              		.section	.text.lv_obj_set_flex_flow,"ax",%progbits
 3150              		.align	1
 3151              		.global	lv_obj_set_flex_flow
 3152              		.syntax unified
 3153              		.thumb
 3154              		.thumb_func
 3155              		.fpu fpv5-d16
 3157              	lv_obj_set_flex_flow:
 3158              	.LVL316:
 3159              	.LFB164:
 100:Middlewares/lvgl/src/extra/layouts/flex/lv_flex.c ****     lv_obj_set_style_flex_flow(obj, flow, 0);
 3160              		.loc 2 100 1 is_stmt 1 view -0
 3161              		.cfi_startproc
 3162              		@ args = 0, pretend = 0, frame = 0
 3163              		@ frame_needed = 0, uses_anonymous_args = 0
 100:Middlewares/lvgl/src/extra/layouts/flex/lv_flex.c ****     lv_obj_set_style_flex_flow(obj, flow, 0);
 3164              		.loc 2 100 1 is_stmt 0 view .LVU981
 3165 0000 10B5     		push	{r4, lr}
 3166              	.LCFI21:
 3167              		.cfi_def_cfa_offset 8
 3168              		.cfi_offset 4, -8
 3169              		.cfi_offset 14, -4
 3170 0002 0446     		mov	r4, r0
 101:Middlewares/lvgl/src/extra/layouts/flex/lv_flex.c ****     lv_obj_set_style_layout(obj, LV_LAYOUT_FLEX, 0);
 3171              		.loc 2 101 5 is_stmt 1 view .LVU982
 3172 0004 0022     		movs	r2, #0
 3173 0006 FFF7FEFF 		bl	lv_obj_set_style_flex_flow
 3174              	.LVL317:
 102:Middlewares/lvgl/src/extra/layouts/flex/lv_flex.c **** }
 3175              		.loc 2 102 5 view .LVU983
 3176 000a 0022     		movs	r2, #0
 3177 000c 024B     		ldr	r3, .L205
 3178 000e 1988     		ldrh	r1, [r3]
 3179 0010 2046     		mov	r0, r4
 3180 0012 FFF7FEFF 		bl	lv_obj_set_style_layout
ARM GAS  /tmp/ccjZBdV3.s 			page 92


 3181              	.LVL318:
 103:Middlewares/lvgl/src/extra/layouts/flex/lv_flex.c **** 
 3182              		.loc 2 103 1 is_stmt 0 view .LVU984
 3183 0016 10BD     		pop	{r4, pc}
 3184              	.LVL319:
 3185              	.L206:
 103:Middlewares/lvgl/src/extra/layouts/flex/lv_flex.c **** 
 3186              		.loc 2 103 1 view .LVU985
 3187              		.align	2
 3188              	.L205:
 3189 0018 00000000 		.word	.LANCHOR5
 3190              		.cfi_endproc
 3191              	.LFE164:
 3193              		.section	.text.lv_obj_set_style_flex_main_place,"ax",%progbits
 3194              		.align	1
 3195              		.global	lv_obj_set_style_flex_main_place
 3196              		.syntax unified
 3197              		.thumb
 3198              		.thumb_func
 3199              		.fpu fpv5-d16
 3201              	lv_obj_set_style_flex_main_place:
 3202              	.LVL320:
 3203              	.LFB173:
 170:Middlewares/lvgl/src/extra/layouts/flex/lv_flex.c ****     lv_style_value_t v = {
 3204              		.loc 2 170 1 is_stmt 1 view -0
 3205              		.cfi_startproc
 3206              		@ args = 0, pretend = 0, frame = 0
 3207              		@ frame_needed = 0, uses_anonymous_args = 0
 170:Middlewares/lvgl/src/extra/layouts/flex/lv_flex.c ****     lv_style_value_t v = {
 3208              		.loc 2 170 1 is_stmt 0 view .LVU987
 3209 0000 08B5     		push	{r3, lr}
 3210              	.LCFI22:
 3211              		.cfi_def_cfa_offset 8
 3212              		.cfi_offset 3, -8
 3213              		.cfi_offset 14, -4
 3214 0002 1346     		mov	r3, r2
 171:Middlewares/lvgl/src/extra/layouts/flex/lv_flex.c ****         .num = (int32_t) value
 3215              		.loc 2 171 5 is_stmt 1 view .LVU988
 174:Middlewares/lvgl/src/extra/layouts/flex/lv_flex.c **** }
 3216              		.loc 2 174 5 view .LVU989
 3217 0004 0A46     		mov	r2, r1
 3218              	.LVL321:
 174:Middlewares/lvgl/src/extra/layouts/flex/lv_flex.c **** }
 3219              		.loc 2 174 5 is_stmt 0 view .LVU990
 3220 0006 0249     		ldr	r1, .L209
 3221              	.LVL322:
 174:Middlewares/lvgl/src/extra/layouts/flex/lv_flex.c **** }
 3222              		.loc 2 174 5 view .LVU991
 3223 0008 0988     		ldrh	r1, [r1]
 3224 000a FFF7FEFF 		bl	lv_obj_set_local_style_prop
 3225              	.LVL323:
 175:Middlewares/lvgl/src/extra/layouts/flex/lv_flex.c **** 
 3226              		.loc 2 175 1 view .LVU992
 3227 000e 08BD     		pop	{r3, pc}
 3228              	.L210:
 3229              		.align	2
 3230              	.L209:
ARM GAS  /tmp/ccjZBdV3.s 			page 93


 3231 0010 00000000 		.word	.LANCHOR2
 3232              		.cfi_endproc
 3233              	.LFE173:
 3235              		.section	.text.lv_obj_set_style_flex_cross_place,"ax",%progbits
 3236              		.align	1
 3237              		.global	lv_obj_set_style_flex_cross_place
 3238              		.syntax unified
 3239              		.thumb
 3240              		.thumb_func
 3241              		.fpu fpv5-d16
 3243              	lv_obj_set_style_flex_cross_place:
 3244              	.LVL324:
 3245              	.LFB174:
 178:Middlewares/lvgl/src/extra/layouts/flex/lv_flex.c ****     lv_style_value_t v = {
 3246              		.loc 2 178 1 is_stmt 1 view -0
 3247              		.cfi_startproc
 3248              		@ args = 0, pretend = 0, frame = 0
 3249              		@ frame_needed = 0, uses_anonymous_args = 0
 178:Middlewares/lvgl/src/extra/layouts/flex/lv_flex.c ****     lv_style_value_t v = {
 3250              		.loc 2 178 1 is_stmt 0 view .LVU994
 3251 0000 08B5     		push	{r3, lr}
 3252              	.LCFI23:
 3253              		.cfi_def_cfa_offset 8
 3254              		.cfi_offset 3, -8
 3255              		.cfi_offset 14, -4
 3256 0002 1346     		mov	r3, r2
 179:Middlewares/lvgl/src/extra/layouts/flex/lv_flex.c ****         .num = (int32_t) value
 3257              		.loc 2 179 5 is_stmt 1 view .LVU995
 182:Middlewares/lvgl/src/extra/layouts/flex/lv_flex.c **** }
 3258              		.loc 2 182 5 view .LVU996
 3259 0004 0A46     		mov	r2, r1
 3260              	.LVL325:
 182:Middlewares/lvgl/src/extra/layouts/flex/lv_flex.c **** }
 3261              		.loc 2 182 5 is_stmt 0 view .LVU997
 3262 0006 0249     		ldr	r1, .L213
 3263              	.LVL326:
 182:Middlewares/lvgl/src/extra/layouts/flex/lv_flex.c **** }
 3264              		.loc 2 182 5 view .LVU998
 3265 0008 0988     		ldrh	r1, [r1]
 3266 000a FFF7FEFF 		bl	lv_obj_set_local_style_prop
 3267              	.LVL327:
 183:Middlewares/lvgl/src/extra/layouts/flex/lv_flex.c **** 
 3268              		.loc 2 183 1 view .LVU999
 3269 000e 08BD     		pop	{r3, pc}
 3270              	.L214:
 3271              		.align	2
 3272              	.L213:
 3273 0010 00000000 		.word	.LANCHOR3
 3274              		.cfi_endproc
 3275              	.LFE174:
 3277              		.section	.text.lv_obj_set_style_flex_track_place,"ax",%progbits
 3278              		.align	1
 3279              		.global	lv_obj_set_style_flex_track_place
 3280              		.syntax unified
 3281              		.thumb
 3282              		.thumb_func
 3283              		.fpu fpv5-d16
ARM GAS  /tmp/ccjZBdV3.s 			page 94


 3285              	lv_obj_set_style_flex_track_place:
 3286              	.LVL328:
 3287              	.LFB175:
 186:Middlewares/lvgl/src/extra/layouts/flex/lv_flex.c ****     lv_style_value_t v = {
 3288              		.loc 2 186 1 is_stmt 1 view -0
 3289              		.cfi_startproc
 3290              		@ args = 0, pretend = 0, frame = 0
 3291              		@ frame_needed = 0, uses_anonymous_args = 0
 186:Middlewares/lvgl/src/extra/layouts/flex/lv_flex.c ****     lv_style_value_t v = {
 3292              		.loc 2 186 1 is_stmt 0 view .LVU1001
 3293 0000 08B5     		push	{r3, lr}
 3294              	.LCFI24:
 3295              		.cfi_def_cfa_offset 8
 3296              		.cfi_offset 3, -8
 3297              		.cfi_offset 14, -4
 3298 0002 1346     		mov	r3, r2
 187:Middlewares/lvgl/src/extra/layouts/flex/lv_flex.c ****         .num = (int32_t) value
 3299              		.loc 2 187 5 is_stmt 1 view .LVU1002
 190:Middlewares/lvgl/src/extra/layouts/flex/lv_flex.c **** }
 3300              		.loc 2 190 5 view .LVU1003
 3301 0004 0A46     		mov	r2, r1
 3302              	.LVL329:
 190:Middlewares/lvgl/src/extra/layouts/flex/lv_flex.c **** }
 3303              		.loc 2 190 5 is_stmt 0 view .LVU1004
 3304 0006 0249     		ldr	r1, .L217
 3305              	.LVL330:
 190:Middlewares/lvgl/src/extra/layouts/flex/lv_flex.c **** }
 3306              		.loc 2 190 5 view .LVU1005
 3307 0008 0988     		ldrh	r1, [r1]
 3308 000a FFF7FEFF 		bl	lv_obj_set_local_style_prop
 3309              	.LVL331:
 191:Middlewares/lvgl/src/extra/layouts/flex/lv_flex.c **** 
 3310              		.loc 2 191 1 view .LVU1006
 3311 000e 08BD     		pop	{r3, pc}
 3312              	.L218:
 3313              		.align	2
 3314              	.L217:
 3315 0010 00000000 		.word	.LANCHOR4
 3316              		.cfi_endproc
 3317              	.LFE175:
 3319              		.section	.text.lv_obj_set_flex_align,"ax",%progbits
 3320              		.align	1
 3321              		.global	lv_obj_set_flex_align
 3322              		.syntax unified
 3323              		.thumb
 3324              		.thumb_func
 3325              		.fpu fpv5-d16
 3327              	lv_obj_set_flex_align:
 3328              	.LVL332:
 3329              	.LFB165:
 106:Middlewares/lvgl/src/extra/layouts/flex/lv_flex.c ****     lv_obj_set_style_flex_main_place(obj, main_place, 0);
 3330              		.loc 2 106 1 is_stmt 1 view -0
 3331              		.cfi_startproc
 3332              		@ args = 0, pretend = 0, frame = 0
 3333              		@ frame_needed = 0, uses_anonymous_args = 0
 106:Middlewares/lvgl/src/extra/layouts/flex/lv_flex.c ****     lv_obj_set_style_flex_main_place(obj, main_place, 0);
 3334              		.loc 2 106 1 is_stmt 0 view .LVU1008
ARM GAS  /tmp/ccjZBdV3.s 			page 95


 3335 0000 70B5     		push	{r4, r5, r6, lr}
 3336              	.LCFI25:
 3337              		.cfi_def_cfa_offset 16
 3338              		.cfi_offset 4, -16
 3339              		.cfi_offset 5, -12
 3340              		.cfi_offset 6, -8
 3341              		.cfi_offset 14, -4
 3342 0002 0446     		mov	r4, r0
 3343 0004 1646     		mov	r6, r2
 3344 0006 1D46     		mov	r5, r3
 107:Middlewares/lvgl/src/extra/layouts/flex/lv_flex.c ****     lv_obj_set_style_flex_cross_place(obj, cross_place, 0);
 3345              		.loc 2 107 5 is_stmt 1 view .LVU1009
 3346 0008 0022     		movs	r2, #0
 3347              	.LVL333:
 107:Middlewares/lvgl/src/extra/layouts/flex/lv_flex.c ****     lv_obj_set_style_flex_cross_place(obj, cross_place, 0);
 3348              		.loc 2 107 5 is_stmt 0 view .LVU1010
 3349 000a FFF7FEFF 		bl	lv_obj_set_style_flex_main_place
 3350              	.LVL334:
 108:Middlewares/lvgl/src/extra/layouts/flex/lv_flex.c ****     lv_obj_set_style_flex_track_place(obj, track_place, 0);
 3351              		.loc 2 108 5 is_stmt 1 view .LVU1011
 3352 000e 0022     		movs	r2, #0
 3353 0010 3146     		mov	r1, r6
 3354 0012 2046     		mov	r0, r4
 3355 0014 FFF7FEFF 		bl	lv_obj_set_style_flex_cross_place
 3356              	.LVL335:
 109:Middlewares/lvgl/src/extra/layouts/flex/lv_flex.c ****     lv_obj_set_style_layout(obj, LV_LAYOUT_FLEX, 0);
 3357              		.loc 2 109 5 view .LVU1012
 3358 0018 0022     		movs	r2, #0
 3359 001a 2946     		mov	r1, r5
 3360 001c 2046     		mov	r0, r4
 3361 001e FFF7FEFF 		bl	lv_obj_set_style_flex_track_place
 3362              	.LVL336:
 110:Middlewares/lvgl/src/extra/layouts/flex/lv_flex.c **** }
 3363              		.loc 2 110 5 view .LVU1013
 3364 0022 0022     		movs	r2, #0
 3365 0024 024B     		ldr	r3, .L221
 3366 0026 1988     		ldrh	r1, [r3]
 3367 0028 2046     		mov	r0, r4
 3368 002a FFF7FEFF 		bl	lv_obj_set_style_layout
 3369              	.LVL337:
 111:Middlewares/lvgl/src/extra/layouts/flex/lv_flex.c **** 
 3370              		.loc 2 111 1 is_stmt 0 view .LVU1014
 3371 002e 70BD     		pop	{r4, r5, r6, pc}
 3372              	.LVL338:
 3373              	.L222:
 111:Middlewares/lvgl/src/extra/layouts/flex/lv_flex.c **** 
 3374              		.loc 2 111 1 view .LVU1015
 3375              		.align	2
 3376              	.L221:
 3377 0030 00000000 		.word	.LANCHOR5
 3378              		.cfi_endproc
 3379              	.LFE165:
 3381              		.section	.text.lv_obj_set_style_flex_grow,"ax",%progbits
 3382              		.align	1
 3383              		.global	lv_obj_set_style_flex_grow
 3384              		.syntax unified
 3385              		.thumb
ARM GAS  /tmp/ccjZBdV3.s 			page 96


 3386              		.thumb_func
 3387              		.fpu fpv5-d16
 3389              	lv_obj_set_style_flex_grow:
 3390              	.LVL339:
 3391              	.LFB176:
 194:Middlewares/lvgl/src/extra/layouts/flex/lv_flex.c ****     lv_style_value_t v = {
 3392              		.loc 2 194 1 is_stmt 1 view -0
 3393              		.cfi_startproc
 3394              		@ args = 0, pretend = 0, frame = 0
 3395              		@ frame_needed = 0, uses_anonymous_args = 0
 194:Middlewares/lvgl/src/extra/layouts/flex/lv_flex.c ****     lv_style_value_t v = {
 3396              		.loc 2 194 1 is_stmt 0 view .LVU1017
 3397 0000 08B5     		push	{r3, lr}
 3398              	.LCFI26:
 3399              		.cfi_def_cfa_offset 8
 3400              		.cfi_offset 3, -8
 3401              		.cfi_offset 14, -4
 3402 0002 1346     		mov	r3, r2
 195:Middlewares/lvgl/src/extra/layouts/flex/lv_flex.c ****         .num = (int32_t) value
 3403              		.loc 2 195 5 is_stmt 1 view .LVU1018
 198:Middlewares/lvgl/src/extra/layouts/flex/lv_flex.c **** }
 3404              		.loc 2 198 5 view .LVU1019
 3405 0004 0A46     		mov	r2, r1
 3406              	.LVL340:
 198:Middlewares/lvgl/src/extra/layouts/flex/lv_flex.c **** }
 3407              		.loc 2 198 5 is_stmt 0 view .LVU1020
 3408 0006 0249     		ldr	r1, .L225
 3409              	.LVL341:
 198:Middlewares/lvgl/src/extra/layouts/flex/lv_flex.c **** }
 3410              		.loc 2 198 5 view .LVU1021
 3411 0008 0988     		ldrh	r1, [r1]
 3412 000a FFF7FEFF 		bl	lv_obj_set_local_style_prop
 3413              	.LVL342:
 199:Middlewares/lvgl/src/extra/layouts/flex/lv_flex.c **** 
 3414              		.loc 2 199 1 view .LVU1022
 3415 000e 08BD     		pop	{r3, pc}
 3416              	.L226:
 3417              		.align	2
 3418              	.L225:
 3419 0010 00000000 		.word	.LANCHOR0
 3420              		.cfi_endproc
 3421              	.LFE176:
 3423              		.section	.text.lv_obj_set_flex_grow,"ax",%progbits
 3424              		.align	1
 3425              		.global	lv_obj_set_flex_grow
 3426              		.syntax unified
 3427              		.thumb
 3428              		.thumb_func
 3429              		.fpu fpv5-d16
 3431              	lv_obj_set_flex_grow:
 3432              	.LVL343:
 3433              	.LFB166:
 114:Middlewares/lvgl/src/extra/layouts/flex/lv_flex.c ****     lv_obj_set_style_flex_grow(obj, grow, 0);
 3434              		.loc 2 114 1 is_stmt 1 view -0
 3435              		.cfi_startproc
 3436              		@ args = 0, pretend = 0, frame = 0
 3437              		@ frame_needed = 0, uses_anonymous_args = 0
ARM GAS  /tmp/ccjZBdV3.s 			page 97


 114:Middlewares/lvgl/src/extra/layouts/flex/lv_flex.c ****     lv_obj_set_style_flex_grow(obj, grow, 0);
 3438              		.loc 2 114 1 is_stmt 0 view .LVU1024
 3439 0000 10B5     		push	{r4, lr}
 3440              	.LCFI27:
 3441              		.cfi_def_cfa_offset 8
 3442              		.cfi_offset 4, -8
 3443              		.cfi_offset 14, -4
 3444 0002 0446     		mov	r4, r0
 115:Middlewares/lvgl/src/extra/layouts/flex/lv_flex.c ****     lv_obj_mark_layout_as_dirty(lv_obj_get_parent(obj));
 3445              		.loc 2 115 5 is_stmt 1 view .LVU1025
 3446 0004 0022     		movs	r2, #0
 3447 0006 FFF7FEFF 		bl	lv_obj_set_style_flex_grow
 3448              	.LVL344:
 116:Middlewares/lvgl/src/extra/layouts/flex/lv_flex.c **** }
 3449              		.loc 2 116 5 view .LVU1026
 3450 000a 2046     		mov	r0, r4
 3451 000c FFF7FEFF 		bl	lv_obj_get_parent
 3452              	.LVL345:
 3453 0010 FFF7FEFF 		bl	lv_obj_mark_layout_as_dirty
 3454              	.LVL346:
 117:Middlewares/lvgl/src/extra/layouts/flex/lv_flex.c **** 
 3455              		.loc 2 117 1 is_stmt 0 view .LVU1027
 3456 0014 10BD     		pop	{r4, pc}
 117:Middlewares/lvgl/src/extra/layouts/flex/lv_flex.c **** 
 3457              		.loc 2 117 1 view .LVU1028
 3458              		.cfi_endproc
 3459              	.LFE166:
 3461              		.global	LV_STYLE_FLEX_GROW
 3462              		.global	LV_STYLE_FLEX_TRACK_PLACE
 3463              		.global	LV_STYLE_FLEX_CROSS_PLACE
 3464              		.global	LV_STYLE_FLEX_MAIN_PLACE
 3465              		.global	LV_STYLE_FLEX_FLOW
 3466              		.global	LV_LAYOUT_FLEX
 3467              		.section	.bss.LV_LAYOUT_FLEX,"aw",%nobits
 3468              		.align	2
 3469              		.set	.LANCHOR5,. + 0
 3472              	LV_LAYOUT_FLEX:
 3473 0000 00000000 		.space	4
 3474              		.section	.bss.LV_STYLE_FLEX_CROSS_PLACE,"aw",%nobits
 3475              		.align	1
 3476              		.set	.LANCHOR3,. + 0
 3479              	LV_STYLE_FLEX_CROSS_PLACE:
 3480 0000 0000     		.space	2
 3481              		.section	.bss.LV_STYLE_FLEX_FLOW,"aw",%nobits
 3482              		.align	1
 3483              		.set	.LANCHOR1,. + 0
 3486              	LV_STYLE_FLEX_FLOW:
 3487 0000 0000     		.space	2
 3488              		.section	.bss.LV_STYLE_FLEX_GROW,"aw",%nobits
 3489              		.align	1
 3490              		.set	.LANCHOR0,. + 0
 3493              	LV_STYLE_FLEX_GROW:
 3494 0000 0000     		.space	2
 3495              		.section	.bss.LV_STYLE_FLEX_MAIN_PLACE,"aw",%nobits
 3496              		.align	1
 3497              		.set	.LANCHOR2,. + 0
 3500              	LV_STYLE_FLEX_MAIN_PLACE:
ARM GAS  /tmp/ccjZBdV3.s 			page 98


 3501 0000 0000     		.space	2
 3502              		.section	.bss.LV_STYLE_FLEX_TRACK_PLACE,"aw",%nobits
 3503              		.align	1
 3504              		.set	.LANCHOR4,. + 0
 3507              	LV_STYLE_FLEX_TRACK_PLACE:
 3508 0000 0000     		.space	2
 3509              		.text
 3510              	.Letext0:
 3511              		.file 5 "/home/akinya/gcc-arm-none-eabi/arm-none-eabi/include/machine/_default_types.h"
 3512              		.file 6 "/home/akinya/gcc-arm-none-eabi/arm-none-eabi/include/sys/_stdint.h"
 3513              		.file 7 "Middlewares/lvgl/src/extra/layouts/flex/../flex/../../../core/../misc/lv_color.h"
 3514              		.file 8 "Middlewares/lvgl/src/extra/layouts/flex/../flex/../../../core/../misc/lv_bidi.h"
 3515              		.file 9 "Middlewares/lvgl/src/extra/layouts/flex/../flex/../../../core/../misc/lv_style.h"
 3516              		.file 10 "Middlewares/lvgl/src/extra/layouts/flex/../flex/../../../core/../hal/../misc/lv_ll.h"
 3517              		.file 11 "Middlewares/lvgl/src/extra/layouts/flex/../flex/../../../core/lv_obj.h"
 3518              		.file 12 "Middlewares/lvgl/src/extra/layouts/flex/../flex/../../../core/lv_group.h"
 3519              		.file 13 "Middlewares/lvgl/src/extra/layouts/flex/../flex/../../../core/lv_obj_scroll.h"
 3520              		.file 14 "Middlewares/lvgl/src/extra/layouts/flex/../flex/../../../core/lv_obj_style.h"
 3521              		.file 15 "Middlewares/lvgl/src/extra/layouts/flex/../flex/../../../core/lv_obj_class.h"
 3522              		.file 16 "Middlewares/lvgl/src/extra/layouts/flex/../flex/../../../core/lv_event.h"
 3523              		.file 17 "Middlewares/lvgl/src/extra/layouts/flex/../flex/../../../core/lv_obj_pos.h"
 3524              		.file 18 "Middlewares/lvgl/src/extra/layouts/flex/../flex/../../../core/lv_obj_tree.h"
 3525              		.file 19 "Middlewares/lvgl/src/extra/layouts/flex/../flex/../../../core/../hal/../misc/lv_mem.h"
ARM GAS  /tmp/ccjZBdV3.s 			page 99


DEFINED SYMBOLS
                            *ABS*:0000000000000000 lv_flex.c
     /tmp/ccjZBdV3.s:17     .text.lv_area_get_width:0000000000000000 $t
     /tmp/ccjZBdV3.s:24     .text.lv_area_get_width:0000000000000000 lv_area_get_width
     /tmp/ccjZBdV3.s:54     .text.lv_area_get_height:0000000000000000 $t
     /tmp/ccjZBdV3.s:60     .text.lv_area_get_height:0000000000000000 lv_area_get_height
     /tmp/ccjZBdV3.s:89     .text.place_content:0000000000000000 $t
     /tmp/ccjZBdV3.s:95     .text.place_content:0000000000000000 place_content
     /tmp/ccjZBdV3.s:123    .text.place_content:0000000000000012 $d
     /tmp/ccjZBdV3.s:295    .text.get_next_item:0000000000000000 $t
     /tmp/ccjZBdV3.s:301    .text.get_next_item:0000000000000000 get_next_item
     /tmp/ccjZBdV3.s:377    .text.find_track_end:0000000000000000 $t
     /tmp/ccjZBdV3.s:383    .text.find_track_end:0000000000000000 find_track_end
     /tmp/ccjZBdV3.s:1001   .text.find_track_end:0000000000000270 $d
     /tmp/ccjZBdV3.s:1009   .text.children_repos:0000000000000000 $t
     /tmp/ccjZBdV3.s:1015   .text.children_repos:0000000000000000 children_repos
     /tmp/ccjZBdV3.s:1545   .text.children_repos:0000000000000234 $d
     /tmp/ccjZBdV3.s:1552   .text.children_repos:0000000000000244 $t
     /tmp/ccjZBdV3.s:1968   .text.children_repos:0000000000000474 $d
     /tmp/ccjZBdV3.s:1975   .text.flex_update:0000000000000000 $t
     /tmp/ccjZBdV3.s:1981   .text.flex_update:0000000000000000 flex_update
     /tmp/ccjZBdV3.s:2691   .text.flex_update:00000000000002e8 $d
     /tmp/ccjZBdV3.s:2699   .text.flex_update:00000000000002f8 $t
     /tmp/ccjZBdV3.s:2840   .text.lv_flex_init:0000000000000000 $t
     /tmp/ccjZBdV3.s:2847   .text.lv_flex_init:0000000000000000 lv_flex_init
     /tmp/ccjZBdV3.s:2903   .text.lv_flex_init:000000000000003c $d
     /tmp/ccjZBdV3.s:2913   .text.lv_style_set_flex_flow:0000000000000000 $t
     /tmp/ccjZBdV3.s:2920   .text.lv_style_set_flex_flow:0000000000000000 lv_style_set_flex_flow
     /tmp/ccjZBdV3.s:2947   .text.lv_style_set_flex_flow:0000000000000010 $d
     /tmp/ccjZBdV3.s:2952   .text.lv_style_set_flex_main_place:0000000000000000 $t
     /tmp/ccjZBdV3.s:2959   .text.lv_style_set_flex_main_place:0000000000000000 lv_style_set_flex_main_place
     /tmp/ccjZBdV3.s:2986   .text.lv_style_set_flex_main_place:0000000000000010 $d
     /tmp/ccjZBdV3.s:2991   .text.lv_style_set_flex_cross_place:0000000000000000 $t
     /tmp/ccjZBdV3.s:2998   .text.lv_style_set_flex_cross_place:0000000000000000 lv_style_set_flex_cross_place
     /tmp/ccjZBdV3.s:3025   .text.lv_style_set_flex_cross_place:0000000000000010 $d
     /tmp/ccjZBdV3.s:3030   .text.lv_style_set_flex_track_place:0000000000000000 $t
     /tmp/ccjZBdV3.s:3037   .text.lv_style_set_flex_track_place:0000000000000000 lv_style_set_flex_track_place
     /tmp/ccjZBdV3.s:3064   .text.lv_style_set_flex_track_place:0000000000000010 $d
     /tmp/ccjZBdV3.s:3069   .text.lv_style_set_flex_grow:0000000000000000 $t
     /tmp/ccjZBdV3.s:3076   .text.lv_style_set_flex_grow:0000000000000000 lv_style_set_flex_grow
     /tmp/ccjZBdV3.s:3103   .text.lv_style_set_flex_grow:0000000000000010 $d
     /tmp/ccjZBdV3.s:3108   .text.lv_obj_set_style_flex_flow:0000000000000000 $t
     /tmp/ccjZBdV3.s:3115   .text.lv_obj_set_style_flex_flow:0000000000000000 lv_obj_set_style_flex_flow
     /tmp/ccjZBdV3.s:3145   .text.lv_obj_set_style_flex_flow:0000000000000010 $d
     /tmp/ccjZBdV3.s:3150   .text.lv_obj_set_flex_flow:0000000000000000 $t
     /tmp/ccjZBdV3.s:3157   .text.lv_obj_set_flex_flow:0000000000000000 lv_obj_set_flex_flow
     /tmp/ccjZBdV3.s:3189   .text.lv_obj_set_flex_flow:0000000000000018 $d
     /tmp/ccjZBdV3.s:3194   .text.lv_obj_set_style_flex_main_place:0000000000000000 $t
     /tmp/ccjZBdV3.s:3201   .text.lv_obj_set_style_flex_main_place:0000000000000000 lv_obj_set_style_flex_main_place
     /tmp/ccjZBdV3.s:3231   .text.lv_obj_set_style_flex_main_place:0000000000000010 $d
     /tmp/ccjZBdV3.s:3236   .text.lv_obj_set_style_flex_cross_place:0000000000000000 $t
     /tmp/ccjZBdV3.s:3243   .text.lv_obj_set_style_flex_cross_place:0000000000000000 lv_obj_set_style_flex_cross_place
     /tmp/ccjZBdV3.s:3273   .text.lv_obj_set_style_flex_cross_place:0000000000000010 $d
     /tmp/ccjZBdV3.s:3278   .text.lv_obj_set_style_flex_track_place:0000000000000000 $t
     /tmp/ccjZBdV3.s:3285   .text.lv_obj_set_style_flex_track_place:0000000000000000 lv_obj_set_style_flex_track_place
     /tmp/ccjZBdV3.s:3315   .text.lv_obj_set_style_flex_track_place:0000000000000010 $d
     /tmp/ccjZBdV3.s:3320   .text.lv_obj_set_flex_align:0000000000000000 $t
ARM GAS  /tmp/ccjZBdV3.s 			page 100


     /tmp/ccjZBdV3.s:3327   .text.lv_obj_set_flex_align:0000000000000000 lv_obj_set_flex_align
     /tmp/ccjZBdV3.s:3377   .text.lv_obj_set_flex_align:0000000000000030 $d
     /tmp/ccjZBdV3.s:3382   .text.lv_obj_set_style_flex_grow:0000000000000000 $t
     /tmp/ccjZBdV3.s:3389   .text.lv_obj_set_style_flex_grow:0000000000000000 lv_obj_set_style_flex_grow
     /tmp/ccjZBdV3.s:3419   .text.lv_obj_set_style_flex_grow:0000000000000010 $d
     /tmp/ccjZBdV3.s:3424   .text.lv_obj_set_flex_grow:0000000000000000 $t
     /tmp/ccjZBdV3.s:3431   .text.lv_obj_set_flex_grow:0000000000000000 lv_obj_set_flex_grow
     /tmp/ccjZBdV3.s:3493   .bss.LV_STYLE_FLEX_GROW:0000000000000000 LV_STYLE_FLEX_GROW
     /tmp/ccjZBdV3.s:3507   .bss.LV_STYLE_FLEX_TRACK_PLACE:0000000000000000 LV_STYLE_FLEX_TRACK_PLACE
     /tmp/ccjZBdV3.s:3479   .bss.LV_STYLE_FLEX_CROSS_PLACE:0000000000000000 LV_STYLE_FLEX_CROSS_PLACE
     /tmp/ccjZBdV3.s:3500   .bss.LV_STYLE_FLEX_MAIN_PLACE:0000000000000000 LV_STYLE_FLEX_MAIN_PLACE
     /tmp/ccjZBdV3.s:3486   .bss.LV_STYLE_FLEX_FLOW:0000000000000000 LV_STYLE_FLEX_FLOW
     /tmp/ccjZBdV3.s:3472   .bss.LV_LAYOUT_FLEX:0000000000000000 LV_LAYOUT_FLEX
     /tmp/ccjZBdV3.s:3468   .bss.LV_LAYOUT_FLEX:0000000000000000 $d
     /tmp/ccjZBdV3.s:3475   .bss.LV_STYLE_FLEX_CROSS_PLACE:0000000000000000 $d
     /tmp/ccjZBdV3.s:3482   .bss.LV_STYLE_FLEX_FLOW:0000000000000000 $d
     /tmp/ccjZBdV3.s:3489   .bss.LV_STYLE_FLEX_GROW:0000000000000000 $d
     /tmp/ccjZBdV3.s:3496   .bss.LV_STYLE_FLEX_MAIN_PLACE:0000000000000000 $d
     /tmp/ccjZBdV3.s:3503   .bss.LV_STYLE_FLEX_TRACK_PLACE:0000000000000000 $d
     /tmp/ccjZBdV3.s:129    .text.place_content:0000000000000017 $d
     /tmp/ccjZBdV3.s:129    .text.place_content:0000000000000018 $t

UNDEFINED SYMBOLS
lv_obj_get_style_prop
lv_obj_get_child
lv_mem_buf_get
lv_memcpy
lv_mem_buf_release
lv_obj_has_flag
lv_obj_has_flag_any
lv_obj_get_width
lv_obj_get_height
lv_obj_get_content_width
lv_obj_invalidate
lv_event_send
lv_obj_get_parent
lv_area_set_width
lv_area_set_height
lv_obj_move_children_by
lv_obj_get_scroll_y
lv_obj_get_scroll_x
lv_obj_get_content_height
lv_obj_refr_size
lv_layout_register
lv_style_register_prop
lv_style_set_prop
lv_obj_set_local_style_prop
lv_obj_set_style_layout
lv_obj_mark_layout_as_dirty
