ARM GAS  /tmp/ccSBYUf5.s 			page 1


   1              		.cpu cortex-m7
   2              		.arch armv7e-m
   3              		.fpu fpv5-d16
   4              		.eabi_attribute 28, 1
   5              		.eabi_attribute 20, 1
   6              		.eabi_attribute 21, 1
   7              		.eabi_attribute 23, 3
   8              		.eabi_attribute 24, 1
   9              		.eabi_attribute 25, 1
  10              		.eabi_attribute 26, 1
  11              		.eabi_attribute 30, 1
  12              		.eabi_attribute 34, 1
  13              		.eabi_attribute 18, 4
  14              		.file	"lv_flex.c"
  15              		.text
  16              	.Ltext0:
  17              		.cfi_sections	.debug_frame
  18              		.section	.text.lv_area_get_width,"ax",%progbits
  19              		.align	1
  20              		.syntax unified
  21              		.thumb
  22              		.thumb_func
  24              	lv_area_get_width:
  25              	.LVL0:
  26              	.LFB1:
  27              		.file 1 "Middlewares/lvgl/src/extra/layouts/flex/../flex/../../../core/../misc/../font/../misc/lv_
   1:Middlewares/lvgl/src/extra/layouts/flex/../flex/../../../core/../misc/../font/../misc/lv_area.h **** /**
   2:Middlewares/lvgl/src/extra/layouts/flex/../flex/../../../core/../misc/../font/../misc/lv_area.h ****  * @file lv_area.h
   3:Middlewares/lvgl/src/extra/layouts/flex/../flex/../../../core/../misc/../font/../misc/lv_area.h ****  *
   4:Middlewares/lvgl/src/extra/layouts/flex/../flex/../../../core/../misc/../font/../misc/lv_area.h ****  */
   5:Middlewares/lvgl/src/extra/layouts/flex/../flex/../../../core/../misc/../font/../misc/lv_area.h **** 
   6:Middlewares/lvgl/src/extra/layouts/flex/../flex/../../../core/../misc/../font/../misc/lv_area.h **** #ifndef LV_AREA_H
   7:Middlewares/lvgl/src/extra/layouts/flex/../flex/../../../core/../misc/../font/../misc/lv_area.h **** #define LV_AREA_H
   8:Middlewares/lvgl/src/extra/layouts/flex/../flex/../../../core/../misc/../font/../misc/lv_area.h **** 
   9:Middlewares/lvgl/src/extra/layouts/flex/../flex/../../../core/../misc/../font/../misc/lv_area.h **** #ifdef __cplusplus
  10:Middlewares/lvgl/src/extra/layouts/flex/../flex/../../../core/../misc/../font/../misc/lv_area.h **** extern "C" {
  11:Middlewares/lvgl/src/extra/layouts/flex/../flex/../../../core/../misc/../font/../misc/lv_area.h **** #endif
  12:Middlewares/lvgl/src/extra/layouts/flex/../flex/../../../core/../misc/../font/../misc/lv_area.h **** 
  13:Middlewares/lvgl/src/extra/layouts/flex/../flex/../../../core/../misc/../font/../misc/lv_area.h **** /*********************
  14:Middlewares/lvgl/src/extra/layouts/flex/../flex/../../../core/../misc/../font/../misc/lv_area.h ****  *      INCLUDES
  15:Middlewares/lvgl/src/extra/layouts/flex/../flex/../../../core/../misc/../font/../misc/lv_area.h ****  *********************/
  16:Middlewares/lvgl/src/extra/layouts/flex/../flex/../../../core/../misc/../font/../misc/lv_area.h **** #include "../lv_conf_internal.h"
  17:Middlewares/lvgl/src/extra/layouts/flex/../flex/../../../core/../misc/../font/../misc/lv_area.h **** #include <string.h>
  18:Middlewares/lvgl/src/extra/layouts/flex/../flex/../../../core/../misc/../font/../misc/lv_area.h **** #include <stdbool.h>
  19:Middlewares/lvgl/src/extra/layouts/flex/../flex/../../../core/../misc/../font/../misc/lv_area.h **** #include <stdint.h>
  20:Middlewares/lvgl/src/extra/layouts/flex/../flex/../../../core/../misc/../font/../misc/lv_area.h **** 
  21:Middlewares/lvgl/src/extra/layouts/flex/../flex/../../../core/../misc/../font/../misc/lv_area.h **** /*********************
  22:Middlewares/lvgl/src/extra/layouts/flex/../flex/../../../core/../misc/../font/../misc/lv_area.h ****  *      DEFINES
  23:Middlewares/lvgl/src/extra/layouts/flex/../flex/../../../core/../misc/../font/../misc/lv_area.h ****  *********************/
  24:Middlewares/lvgl/src/extra/layouts/flex/../flex/../../../core/../misc/../font/../misc/lv_area.h **** 
  25:Middlewares/lvgl/src/extra/layouts/flex/../flex/../../../core/../misc/../font/../misc/lv_area.h **** #define _LV_COORD_MAX_REDUCE    8192
  26:Middlewares/lvgl/src/extra/layouts/flex/../flex/../../../core/../misc/../font/../misc/lv_area.h **** 
  27:Middlewares/lvgl/src/extra/layouts/flex/../flex/../../../core/../misc/../font/../misc/lv_area.h **** #if LV_USE_LARGE_COORD
  28:Middlewares/lvgl/src/extra/layouts/flex/../flex/../../../core/../misc/../font/../misc/lv_area.h **** typedef int32_t lv_coord_t;
  29:Middlewares/lvgl/src/extra/layouts/flex/../flex/../../../core/../misc/../font/../misc/lv_area.h **** #else
  30:Middlewares/lvgl/src/extra/layouts/flex/../flex/../../../core/../misc/../font/../misc/lv_area.h **** typedef int16_t lv_coord_t;
  31:Middlewares/lvgl/src/extra/layouts/flex/../flex/../../../core/../misc/../font/../misc/lv_area.h **** #endif
ARM GAS  /tmp/ccSBYUf5.s 			page 2


  32:Middlewares/lvgl/src/extra/layouts/flex/../flex/../../../core/../misc/../font/../misc/lv_area.h **** 
  33:Middlewares/lvgl/src/extra/layouts/flex/../flex/../../../core/../misc/../font/../misc/lv_area.h **** /*To allow some special values in the end reduce the max value*/
  34:Middlewares/lvgl/src/extra/layouts/flex/../flex/../../../core/../misc/../font/../misc/lv_area.h **** #define LV_COORD_MAX ((lv_coord_t)((uint32_t)((uint32_t)1 << (8 * sizeof(lv_coord_t) - 1)) - _LV_CO
  35:Middlewares/lvgl/src/extra/layouts/flex/../flex/../../../core/../misc/../font/../misc/lv_area.h **** #define LV_COORD_MIN (-LV_COORD_MAX)
  36:Middlewares/lvgl/src/extra/layouts/flex/../flex/../../../core/../misc/../font/../misc/lv_area.h **** 
  37:Middlewares/lvgl/src/extra/layouts/flex/../flex/../../../core/../misc/../font/../misc/lv_area.h **** LV_EXPORT_CONST_INT(LV_COORD_MAX);
  38:Middlewares/lvgl/src/extra/layouts/flex/../flex/../../../core/../misc/../font/../misc/lv_area.h **** LV_EXPORT_CONST_INT(LV_COORD_MIN);
  39:Middlewares/lvgl/src/extra/layouts/flex/../flex/../../../core/../misc/../font/../misc/lv_area.h **** 
  40:Middlewares/lvgl/src/extra/layouts/flex/../flex/../../../core/../misc/../font/../misc/lv_area.h **** /**********************
  41:Middlewares/lvgl/src/extra/layouts/flex/../flex/../../../core/../misc/../font/../misc/lv_area.h ****  *      TYPEDEFS
  42:Middlewares/lvgl/src/extra/layouts/flex/../flex/../../../core/../misc/../font/../misc/lv_area.h ****  **********************/
  43:Middlewares/lvgl/src/extra/layouts/flex/../flex/../../../core/../misc/../font/../misc/lv_area.h **** 
  44:Middlewares/lvgl/src/extra/layouts/flex/../flex/../../../core/../misc/../font/../misc/lv_area.h **** /**
  45:Middlewares/lvgl/src/extra/layouts/flex/../flex/../../../core/../misc/../font/../misc/lv_area.h ****  * Represents a point on the screen.
  46:Middlewares/lvgl/src/extra/layouts/flex/../flex/../../../core/../misc/../font/../misc/lv_area.h ****  */
  47:Middlewares/lvgl/src/extra/layouts/flex/../flex/../../../core/../misc/../font/../misc/lv_area.h **** typedef struct {
  48:Middlewares/lvgl/src/extra/layouts/flex/../flex/../../../core/../misc/../font/../misc/lv_area.h ****     lv_coord_t x;
  49:Middlewares/lvgl/src/extra/layouts/flex/../flex/../../../core/../misc/../font/../misc/lv_area.h ****     lv_coord_t y;
  50:Middlewares/lvgl/src/extra/layouts/flex/../flex/../../../core/../misc/../font/../misc/lv_area.h **** } lv_point_t;
  51:Middlewares/lvgl/src/extra/layouts/flex/../flex/../../../core/../misc/../font/../misc/lv_area.h **** 
  52:Middlewares/lvgl/src/extra/layouts/flex/../flex/../../../core/../misc/../font/../misc/lv_area.h **** /** Represents an area of the screen.*/
  53:Middlewares/lvgl/src/extra/layouts/flex/../flex/../../../core/../misc/../font/../misc/lv_area.h **** typedef struct {
  54:Middlewares/lvgl/src/extra/layouts/flex/../flex/../../../core/../misc/../font/../misc/lv_area.h ****     lv_coord_t x1;
  55:Middlewares/lvgl/src/extra/layouts/flex/../flex/../../../core/../misc/../font/../misc/lv_area.h ****     lv_coord_t y1;
  56:Middlewares/lvgl/src/extra/layouts/flex/../flex/../../../core/../misc/../font/../misc/lv_area.h ****     lv_coord_t x2;
  57:Middlewares/lvgl/src/extra/layouts/flex/../flex/../../../core/../misc/../font/../misc/lv_area.h ****     lv_coord_t y2;
  58:Middlewares/lvgl/src/extra/layouts/flex/../flex/../../../core/../misc/../font/../misc/lv_area.h **** } lv_area_t;
  59:Middlewares/lvgl/src/extra/layouts/flex/../flex/../../../core/../misc/../font/../misc/lv_area.h **** 
  60:Middlewares/lvgl/src/extra/layouts/flex/../flex/../../../core/../misc/../font/../misc/lv_area.h **** /** Alignments*/
  61:Middlewares/lvgl/src/extra/layouts/flex/../flex/../../../core/../misc/../font/../misc/lv_area.h **** enum {
  62:Middlewares/lvgl/src/extra/layouts/flex/../flex/../../../core/../misc/../font/../misc/lv_area.h ****     LV_ALIGN_DEFAULT = 0,
  63:Middlewares/lvgl/src/extra/layouts/flex/../flex/../../../core/../misc/../font/../misc/lv_area.h ****     LV_ALIGN_TOP_LEFT,
  64:Middlewares/lvgl/src/extra/layouts/flex/../flex/../../../core/../misc/../font/../misc/lv_area.h ****     LV_ALIGN_TOP_MID,
  65:Middlewares/lvgl/src/extra/layouts/flex/../flex/../../../core/../misc/../font/../misc/lv_area.h ****     LV_ALIGN_TOP_RIGHT,
  66:Middlewares/lvgl/src/extra/layouts/flex/../flex/../../../core/../misc/../font/../misc/lv_area.h ****     LV_ALIGN_BOTTOM_LEFT,
  67:Middlewares/lvgl/src/extra/layouts/flex/../flex/../../../core/../misc/../font/../misc/lv_area.h ****     LV_ALIGN_BOTTOM_MID,
  68:Middlewares/lvgl/src/extra/layouts/flex/../flex/../../../core/../misc/../font/../misc/lv_area.h ****     LV_ALIGN_BOTTOM_RIGHT,
  69:Middlewares/lvgl/src/extra/layouts/flex/../flex/../../../core/../misc/../font/../misc/lv_area.h ****     LV_ALIGN_LEFT_MID,
  70:Middlewares/lvgl/src/extra/layouts/flex/../flex/../../../core/../misc/../font/../misc/lv_area.h ****     LV_ALIGN_RIGHT_MID,
  71:Middlewares/lvgl/src/extra/layouts/flex/../flex/../../../core/../misc/../font/../misc/lv_area.h ****     LV_ALIGN_CENTER,
  72:Middlewares/lvgl/src/extra/layouts/flex/../flex/../../../core/../misc/../font/../misc/lv_area.h **** 
  73:Middlewares/lvgl/src/extra/layouts/flex/../flex/../../../core/../misc/../font/../misc/lv_area.h ****     LV_ALIGN_OUT_TOP_LEFT,
  74:Middlewares/lvgl/src/extra/layouts/flex/../flex/../../../core/../misc/../font/../misc/lv_area.h ****     LV_ALIGN_OUT_TOP_MID,
  75:Middlewares/lvgl/src/extra/layouts/flex/../flex/../../../core/../misc/../font/../misc/lv_area.h ****     LV_ALIGN_OUT_TOP_RIGHT,
  76:Middlewares/lvgl/src/extra/layouts/flex/../flex/../../../core/../misc/../font/../misc/lv_area.h ****     LV_ALIGN_OUT_BOTTOM_LEFT,
  77:Middlewares/lvgl/src/extra/layouts/flex/../flex/../../../core/../misc/../font/../misc/lv_area.h ****     LV_ALIGN_OUT_BOTTOM_MID,
  78:Middlewares/lvgl/src/extra/layouts/flex/../flex/../../../core/../misc/../font/../misc/lv_area.h ****     LV_ALIGN_OUT_BOTTOM_RIGHT,
  79:Middlewares/lvgl/src/extra/layouts/flex/../flex/../../../core/../misc/../font/../misc/lv_area.h ****     LV_ALIGN_OUT_LEFT_TOP,
  80:Middlewares/lvgl/src/extra/layouts/flex/../flex/../../../core/../misc/../font/../misc/lv_area.h ****     LV_ALIGN_OUT_LEFT_MID,
  81:Middlewares/lvgl/src/extra/layouts/flex/../flex/../../../core/../misc/../font/../misc/lv_area.h ****     LV_ALIGN_OUT_LEFT_BOTTOM,
  82:Middlewares/lvgl/src/extra/layouts/flex/../flex/../../../core/../misc/../font/../misc/lv_area.h ****     LV_ALIGN_OUT_RIGHT_TOP,
  83:Middlewares/lvgl/src/extra/layouts/flex/../flex/../../../core/../misc/../font/../misc/lv_area.h ****     LV_ALIGN_OUT_RIGHT_MID,
  84:Middlewares/lvgl/src/extra/layouts/flex/../flex/../../../core/../misc/../font/../misc/lv_area.h ****     LV_ALIGN_OUT_RIGHT_BOTTOM,
  85:Middlewares/lvgl/src/extra/layouts/flex/../flex/../../../core/../misc/../font/../misc/lv_area.h **** };
  86:Middlewares/lvgl/src/extra/layouts/flex/../flex/../../../core/../misc/../font/../misc/lv_area.h **** typedef uint8_t lv_align_t;
  87:Middlewares/lvgl/src/extra/layouts/flex/../flex/../../../core/../misc/../font/../misc/lv_area.h **** 
  88:Middlewares/lvgl/src/extra/layouts/flex/../flex/../../../core/../misc/../font/../misc/lv_area.h **** enum {
ARM GAS  /tmp/ccSBYUf5.s 			page 3


  89:Middlewares/lvgl/src/extra/layouts/flex/../flex/../../../core/../misc/../font/../misc/lv_area.h ****     LV_DIR_NONE     = 0x00,
  90:Middlewares/lvgl/src/extra/layouts/flex/../flex/../../../core/../misc/../font/../misc/lv_area.h ****     LV_DIR_LEFT     = (1 << 0),
  91:Middlewares/lvgl/src/extra/layouts/flex/../flex/../../../core/../misc/../font/../misc/lv_area.h ****     LV_DIR_RIGHT    = (1 << 1),
  92:Middlewares/lvgl/src/extra/layouts/flex/../flex/../../../core/../misc/../font/../misc/lv_area.h ****     LV_DIR_TOP      = (1 << 2),
  93:Middlewares/lvgl/src/extra/layouts/flex/../flex/../../../core/../misc/../font/../misc/lv_area.h ****     LV_DIR_BOTTOM   = (1 << 3),
  94:Middlewares/lvgl/src/extra/layouts/flex/../flex/../../../core/../misc/../font/../misc/lv_area.h ****     LV_DIR_HOR      = LV_DIR_LEFT | LV_DIR_RIGHT,
  95:Middlewares/lvgl/src/extra/layouts/flex/../flex/../../../core/../misc/../font/../misc/lv_area.h ****     LV_DIR_VER      = LV_DIR_TOP | LV_DIR_BOTTOM,
  96:Middlewares/lvgl/src/extra/layouts/flex/../flex/../../../core/../misc/../font/../misc/lv_area.h ****     LV_DIR_ALL      = LV_DIR_HOR | LV_DIR_VER,
  97:Middlewares/lvgl/src/extra/layouts/flex/../flex/../../../core/../misc/../font/../misc/lv_area.h **** };
  98:Middlewares/lvgl/src/extra/layouts/flex/../flex/../../../core/../misc/../font/../misc/lv_area.h **** 
  99:Middlewares/lvgl/src/extra/layouts/flex/../flex/../../../core/../misc/../font/../misc/lv_area.h **** typedef uint8_t lv_dir_t;
 100:Middlewares/lvgl/src/extra/layouts/flex/../flex/../../../core/../misc/../font/../misc/lv_area.h **** 
 101:Middlewares/lvgl/src/extra/layouts/flex/../flex/../../../core/../misc/../font/../misc/lv_area.h **** /**********************
 102:Middlewares/lvgl/src/extra/layouts/flex/../flex/../../../core/../misc/../font/../misc/lv_area.h ****  * GLOBAL PROTOTYPES
 103:Middlewares/lvgl/src/extra/layouts/flex/../flex/../../../core/../misc/../font/../misc/lv_area.h ****  **********************/
 104:Middlewares/lvgl/src/extra/layouts/flex/../flex/../../../core/../misc/../font/../misc/lv_area.h **** 
 105:Middlewares/lvgl/src/extra/layouts/flex/../flex/../../../core/../misc/../font/../misc/lv_area.h **** /**
 106:Middlewares/lvgl/src/extra/layouts/flex/../flex/../../../core/../misc/../font/../misc/lv_area.h ****  * Initialize an area
 107:Middlewares/lvgl/src/extra/layouts/flex/../flex/../../../core/../misc/../font/../misc/lv_area.h ****  * @param area_p pointer to an area
 108:Middlewares/lvgl/src/extra/layouts/flex/../flex/../../../core/../misc/../font/../misc/lv_area.h ****  * @param x1 left coordinate of the area
 109:Middlewares/lvgl/src/extra/layouts/flex/../flex/../../../core/../misc/../font/../misc/lv_area.h ****  * @param y1 top coordinate of the area
 110:Middlewares/lvgl/src/extra/layouts/flex/../flex/../../../core/../misc/../font/../misc/lv_area.h ****  * @param x2 right coordinate of the area
 111:Middlewares/lvgl/src/extra/layouts/flex/../flex/../../../core/../misc/../font/../misc/lv_area.h ****  * @param y2 bottom coordinate of the area
 112:Middlewares/lvgl/src/extra/layouts/flex/../flex/../../../core/../misc/../font/../misc/lv_area.h ****  */
 113:Middlewares/lvgl/src/extra/layouts/flex/../flex/../../../core/../misc/../font/../misc/lv_area.h **** void lv_area_set(lv_area_t * area_p, lv_coord_t x1, lv_coord_t y1, lv_coord_t x2, lv_coord_t y2);
 114:Middlewares/lvgl/src/extra/layouts/flex/../flex/../../../core/../misc/../font/../misc/lv_area.h **** 
 115:Middlewares/lvgl/src/extra/layouts/flex/../flex/../../../core/../misc/../font/../misc/lv_area.h **** /**
 116:Middlewares/lvgl/src/extra/layouts/flex/../flex/../../../core/../misc/../font/../misc/lv_area.h ****  * Copy an area
 117:Middlewares/lvgl/src/extra/layouts/flex/../flex/../../../core/../misc/../font/../misc/lv_area.h ****  * @param dest pointer to the destination area
 118:Middlewares/lvgl/src/extra/layouts/flex/../flex/../../../core/../misc/../font/../misc/lv_area.h ****  * @param src pointer to the source area
 119:Middlewares/lvgl/src/extra/layouts/flex/../flex/../../../core/../misc/../font/../misc/lv_area.h ****  */
 120:Middlewares/lvgl/src/extra/layouts/flex/../flex/../../../core/../misc/../font/../misc/lv_area.h **** inline static void lv_area_copy(lv_area_t * dest, const lv_area_t * src)
 121:Middlewares/lvgl/src/extra/layouts/flex/../flex/../../../core/../misc/../font/../misc/lv_area.h **** {
 122:Middlewares/lvgl/src/extra/layouts/flex/../flex/../../../core/../misc/../font/../misc/lv_area.h ****     dest->x1 = src->x1;
 123:Middlewares/lvgl/src/extra/layouts/flex/../flex/../../../core/../misc/../font/../misc/lv_area.h ****     dest->y1 = src->y1;
 124:Middlewares/lvgl/src/extra/layouts/flex/../flex/../../../core/../misc/../font/../misc/lv_area.h ****     dest->x2 = src->x2;
 125:Middlewares/lvgl/src/extra/layouts/flex/../flex/../../../core/../misc/../font/../misc/lv_area.h ****     dest->y2 = src->y2;
 126:Middlewares/lvgl/src/extra/layouts/flex/../flex/../../../core/../misc/../font/../misc/lv_area.h **** }
 127:Middlewares/lvgl/src/extra/layouts/flex/../flex/../../../core/../misc/../font/../misc/lv_area.h **** 
 128:Middlewares/lvgl/src/extra/layouts/flex/../flex/../../../core/../misc/../font/../misc/lv_area.h **** /**
 129:Middlewares/lvgl/src/extra/layouts/flex/../flex/../../../core/../misc/../font/../misc/lv_area.h ****  * Get the width of an area
 130:Middlewares/lvgl/src/extra/layouts/flex/../flex/../../../core/../misc/../font/../misc/lv_area.h ****  * @param area_p pointer to an area
 131:Middlewares/lvgl/src/extra/layouts/flex/../flex/../../../core/../misc/../font/../misc/lv_area.h ****  * @return the width of the area (if x1 == x2 -> width = 1)
 132:Middlewares/lvgl/src/extra/layouts/flex/../flex/../../../core/../misc/../font/../misc/lv_area.h ****  */
 133:Middlewares/lvgl/src/extra/layouts/flex/../flex/../../../core/../misc/../font/../misc/lv_area.h **** static inline lv_coord_t lv_area_get_width(const lv_area_t * area_p)
 134:Middlewares/lvgl/src/extra/layouts/flex/../flex/../../../core/../misc/../font/../misc/lv_area.h **** {
  28              		.loc 1 134 1 view -0
  29              		.cfi_startproc
  30              		@ args = 0, pretend = 0, frame = 0
  31              		@ frame_needed = 0, uses_anonymous_args = 0
  32              		@ link register save eliminated.
  33              		.loc 1 134 1 is_stmt 0 view .LVU1
  34 0000 0346     		mov	r3, r0
 135:Middlewares/lvgl/src/extra/layouts/flex/../flex/../../../core/../misc/../font/../misc/lv_area.h ****     return (lv_coord_t)(area_p->x2 - area_p->x1 + 1);
  35              		.loc 1 135 5 is_stmt 1 view .LVU2
  36              		.loc 1 135 31 is_stmt 0 view .LVU3
  37 0002 8088     		ldrh	r0, [r0, #4]
ARM GAS  /tmp/ccSBYUf5.s 			page 4


  38              	.LVL1:
  39              		.loc 1 135 44 view .LVU4
  40 0004 1B88     		ldrh	r3, [r3]
  41              	.LVL2:
  42              		.loc 1 135 36 view .LVU5
  43 0006 C01A     		subs	r0, r0, r3
  44 0008 80B2     		uxth	r0, r0
  45              		.loc 1 135 49 view .LVU6
  46 000a 0130     		adds	r0, r0, #1
 136:Middlewares/lvgl/src/extra/layouts/flex/../flex/../../../core/../misc/../font/../misc/lv_area.h **** }
  47              		.loc 1 136 1 view .LVU7
  48 000c 00B2     		sxth	r0, r0
  49 000e 7047     		bx	lr
  50              		.cfi_endproc
  51              	.LFE1:
  53              		.section	.text.lv_area_get_height,"ax",%progbits
  54              		.align	1
  55              		.syntax unified
  56              		.thumb
  57              		.thumb_func
  59              	lv_area_get_height:
  60              	.LVL3:
  61              	.LFB2:
 137:Middlewares/lvgl/src/extra/layouts/flex/../flex/../../../core/../misc/../font/../misc/lv_area.h **** 
 138:Middlewares/lvgl/src/extra/layouts/flex/../flex/../../../core/../misc/../font/../misc/lv_area.h **** /**
 139:Middlewares/lvgl/src/extra/layouts/flex/../flex/../../../core/../misc/../font/../misc/lv_area.h ****  * Get the height of an area
 140:Middlewares/lvgl/src/extra/layouts/flex/../flex/../../../core/../misc/../font/../misc/lv_area.h ****  * @param area_p pointer to an area
 141:Middlewares/lvgl/src/extra/layouts/flex/../flex/../../../core/../misc/../font/../misc/lv_area.h ****  * @return the height of the area (if y1 == y2 -> height = 1)
 142:Middlewares/lvgl/src/extra/layouts/flex/../flex/../../../core/../misc/../font/../misc/lv_area.h ****  */
 143:Middlewares/lvgl/src/extra/layouts/flex/../flex/../../../core/../misc/../font/../misc/lv_area.h **** static inline lv_coord_t lv_area_get_height(const lv_area_t * area_p)
 144:Middlewares/lvgl/src/extra/layouts/flex/../flex/../../../core/../misc/../font/../misc/lv_area.h **** {
  62              		.loc 1 144 1 is_stmt 1 view -0
  63              		.cfi_startproc
  64              		@ args = 0, pretend = 0, frame = 0
  65              		@ frame_needed = 0, uses_anonymous_args = 0
  66              		@ link register save eliminated.
  67              		.loc 1 144 1 is_stmt 0 view .LVU9
  68 0000 0346     		mov	r3, r0
 145:Middlewares/lvgl/src/extra/layouts/flex/../flex/../../../core/../misc/../font/../misc/lv_area.h ****     return (lv_coord_t)(area_p->y2 - area_p->y1 + 1);
  69              		.loc 1 145 5 is_stmt 1 view .LVU10
  70              		.loc 1 145 31 is_stmt 0 view .LVU11
  71 0002 C088     		ldrh	r0, [r0, #6]
  72              	.LVL4:
  73              		.loc 1 145 44 view .LVU12
  74 0004 5B88     		ldrh	r3, [r3, #2]
  75              	.LVL5:
  76              		.loc 1 145 36 view .LVU13
  77 0006 C01A     		subs	r0, r0, r3
  78 0008 80B2     		uxth	r0, r0
  79              		.loc 1 145 49 view .LVU14
  80 000a 0130     		adds	r0, r0, #1
 146:Middlewares/lvgl/src/extra/layouts/flex/../flex/../../../core/../misc/../font/../misc/lv_area.h **** }
  81              		.loc 1 146 1 view .LVU15
  82 000c 00B2     		sxth	r0, r0
  83 000e 7047     		bx	lr
  84              		.cfi_endproc
  85              	.LFE2:
ARM GAS  /tmp/ccSBYUf5.s 			page 5


  87              		.section	.text.place_content,"ax",%progbits
  88              		.align	1
  89              		.syntax unified
  90              		.thumb
  91              		.thumb_func
  93              	place_content:
  94              	.LVL6:
  95              	.LFB180:
  96              		.file 2 "Middlewares/lvgl/src/extra/layouts/flex/lv_flex.c"
   1:Middlewares/lvgl/src/extra/layouts/flex/lv_flex.c **** /**
   2:Middlewares/lvgl/src/extra/layouts/flex/lv_flex.c ****  * @file lv_flex.c
   3:Middlewares/lvgl/src/extra/layouts/flex/lv_flex.c ****  *
   4:Middlewares/lvgl/src/extra/layouts/flex/lv_flex.c ****  */
   5:Middlewares/lvgl/src/extra/layouts/flex/lv_flex.c **** 
   6:Middlewares/lvgl/src/extra/layouts/flex/lv_flex.c **** /*********************
   7:Middlewares/lvgl/src/extra/layouts/flex/lv_flex.c ****  *      INCLUDES
   8:Middlewares/lvgl/src/extra/layouts/flex/lv_flex.c ****  *********************/
   9:Middlewares/lvgl/src/extra/layouts/flex/lv_flex.c **** #include "../lv_layouts.h"
  10:Middlewares/lvgl/src/extra/layouts/flex/lv_flex.c **** 
  11:Middlewares/lvgl/src/extra/layouts/flex/lv_flex.c **** #if LV_USE_FLEX
  12:Middlewares/lvgl/src/extra/layouts/flex/lv_flex.c **** 
  13:Middlewares/lvgl/src/extra/layouts/flex/lv_flex.c **** /*********************
  14:Middlewares/lvgl/src/extra/layouts/flex/lv_flex.c ****  *      DEFINES
  15:Middlewares/lvgl/src/extra/layouts/flex/lv_flex.c ****  *********************/
  16:Middlewares/lvgl/src/extra/layouts/flex/lv_flex.c **** 
  17:Middlewares/lvgl/src/extra/layouts/flex/lv_flex.c **** /**********************
  18:Middlewares/lvgl/src/extra/layouts/flex/lv_flex.c ****  *      TYPEDEFS
  19:Middlewares/lvgl/src/extra/layouts/flex/lv_flex.c ****  **********************/
  20:Middlewares/lvgl/src/extra/layouts/flex/lv_flex.c **** typedef struct {
  21:Middlewares/lvgl/src/extra/layouts/flex/lv_flex.c ****     lv_flex_align_t main_place;
  22:Middlewares/lvgl/src/extra/layouts/flex/lv_flex.c ****     lv_flex_align_t cross_place;
  23:Middlewares/lvgl/src/extra/layouts/flex/lv_flex.c ****     lv_flex_align_t track_place;
  24:Middlewares/lvgl/src/extra/layouts/flex/lv_flex.c ****     uint8_t row :1;
  25:Middlewares/lvgl/src/extra/layouts/flex/lv_flex.c ****     uint8_t wrap :1;
  26:Middlewares/lvgl/src/extra/layouts/flex/lv_flex.c ****     uint8_t rev :1;
  27:Middlewares/lvgl/src/extra/layouts/flex/lv_flex.c **** }flex_t;
  28:Middlewares/lvgl/src/extra/layouts/flex/lv_flex.c **** 
  29:Middlewares/lvgl/src/extra/layouts/flex/lv_flex.c **** typedef struct {
  30:Middlewares/lvgl/src/extra/layouts/flex/lv_flex.c ****     lv_obj_t * item;
  31:Middlewares/lvgl/src/extra/layouts/flex/lv_flex.c ****     lv_coord_t min_size;
  32:Middlewares/lvgl/src/extra/layouts/flex/lv_flex.c ****     lv_coord_t max_size;
  33:Middlewares/lvgl/src/extra/layouts/flex/lv_flex.c ****     lv_coord_t final_size;
  34:Middlewares/lvgl/src/extra/layouts/flex/lv_flex.c ****     uint32_t grow_value;
  35:Middlewares/lvgl/src/extra/layouts/flex/lv_flex.c ****     uint32_t clamped :1;
  36:Middlewares/lvgl/src/extra/layouts/flex/lv_flex.c **** }grow_dsc_t;
  37:Middlewares/lvgl/src/extra/layouts/flex/lv_flex.c **** 
  38:Middlewares/lvgl/src/extra/layouts/flex/lv_flex.c **** typedef struct {
  39:Middlewares/lvgl/src/extra/layouts/flex/lv_flex.c ****     lv_coord_t track_cross_size;
  40:Middlewares/lvgl/src/extra/layouts/flex/lv_flex.c ****     lv_coord_t track_main_size;         /*For all items*/
  41:Middlewares/lvgl/src/extra/layouts/flex/lv_flex.c ****     lv_coord_t track_fix_main_size;     /*For non grow items*/
  42:Middlewares/lvgl/src/extra/layouts/flex/lv_flex.c ****     uint32_t item_cnt;
  43:Middlewares/lvgl/src/extra/layouts/flex/lv_flex.c ****     grow_dsc_t * grow_dsc;
  44:Middlewares/lvgl/src/extra/layouts/flex/lv_flex.c ****     uint32_t grow_item_cnt;
  45:Middlewares/lvgl/src/extra/layouts/flex/lv_flex.c ****     uint32_t grow_dsc_calc :1;
  46:Middlewares/lvgl/src/extra/layouts/flex/lv_flex.c **** }track_t;
  47:Middlewares/lvgl/src/extra/layouts/flex/lv_flex.c **** 
  48:Middlewares/lvgl/src/extra/layouts/flex/lv_flex.c **** 
ARM GAS  /tmp/ccSBYUf5.s 			page 6


  49:Middlewares/lvgl/src/extra/layouts/flex/lv_flex.c **** /**********************
  50:Middlewares/lvgl/src/extra/layouts/flex/lv_flex.c ****  *  GLOBAL PROTOTYPES
  51:Middlewares/lvgl/src/extra/layouts/flex/lv_flex.c ****  **********************/
  52:Middlewares/lvgl/src/extra/layouts/flex/lv_flex.c **** 
  53:Middlewares/lvgl/src/extra/layouts/flex/lv_flex.c **** /**********************
  54:Middlewares/lvgl/src/extra/layouts/flex/lv_flex.c ****  *  STATIC PROTOTYPES
  55:Middlewares/lvgl/src/extra/layouts/flex/lv_flex.c ****  **********************/
  56:Middlewares/lvgl/src/extra/layouts/flex/lv_flex.c **** static void flex_update(lv_obj_t * cont, void * user_data);
  57:Middlewares/lvgl/src/extra/layouts/flex/lv_flex.c **** static int32_t find_track_end(lv_obj_t * cont, flex_t * f, int32_t item_start_id, lv_coord_t item_g
  58:Middlewares/lvgl/src/extra/layouts/flex/lv_flex.c **** static void children_repos(lv_obj_t * cont, flex_t * f, int32_t item_first_id, int32_t item_last_id
  59:Middlewares/lvgl/src/extra/layouts/flex/lv_flex.c **** static void place_content(lv_flex_align_t place, lv_coord_t max_size, lv_coord_t content_size, lv_c
  60:Middlewares/lvgl/src/extra/layouts/flex/lv_flex.c **** static lv_obj_t * get_next_item(lv_obj_t * cont, bool rev, int32_t * item_id);
  61:Middlewares/lvgl/src/extra/layouts/flex/lv_flex.c **** 
  62:Middlewares/lvgl/src/extra/layouts/flex/lv_flex.c **** /**********************
  63:Middlewares/lvgl/src/extra/layouts/flex/lv_flex.c ****  *  GLOBAL VARIABLES
  64:Middlewares/lvgl/src/extra/layouts/flex/lv_flex.c ****  **********************/
  65:Middlewares/lvgl/src/extra/layouts/flex/lv_flex.c **** uint32_t LV_LAYOUT_FLEX;
  66:Middlewares/lvgl/src/extra/layouts/flex/lv_flex.c **** lv_style_prop_t LV_STYLE_FLEX_FLOW;
  67:Middlewares/lvgl/src/extra/layouts/flex/lv_flex.c **** lv_style_prop_t LV_STYLE_FLEX_MAIN_PLACE;
  68:Middlewares/lvgl/src/extra/layouts/flex/lv_flex.c **** lv_style_prop_t LV_STYLE_FLEX_CROSS_PLACE;
  69:Middlewares/lvgl/src/extra/layouts/flex/lv_flex.c **** lv_style_prop_t LV_STYLE_FLEX_TRACK_PLACE;
  70:Middlewares/lvgl/src/extra/layouts/flex/lv_flex.c **** lv_style_prop_t LV_STYLE_FLEX_GROW;
  71:Middlewares/lvgl/src/extra/layouts/flex/lv_flex.c **** 
  72:Middlewares/lvgl/src/extra/layouts/flex/lv_flex.c **** 
  73:Middlewares/lvgl/src/extra/layouts/flex/lv_flex.c **** /**********************
  74:Middlewares/lvgl/src/extra/layouts/flex/lv_flex.c ****  *  STATIC VARIABLES
  75:Middlewares/lvgl/src/extra/layouts/flex/lv_flex.c ****  **********************/
  76:Middlewares/lvgl/src/extra/layouts/flex/lv_flex.c **** 
  77:Middlewares/lvgl/src/extra/layouts/flex/lv_flex.c **** /**********************
  78:Middlewares/lvgl/src/extra/layouts/flex/lv_flex.c ****  *      MACROS
  79:Middlewares/lvgl/src/extra/layouts/flex/lv_flex.c ****  **********************/
  80:Middlewares/lvgl/src/extra/layouts/flex/lv_flex.c **** 
  81:Middlewares/lvgl/src/extra/layouts/flex/lv_flex.c **** /**********************
  82:Middlewares/lvgl/src/extra/layouts/flex/lv_flex.c ****  *   GLOBAL FUNCTIONS
  83:Middlewares/lvgl/src/extra/layouts/flex/lv_flex.c ****  **********************/
  84:Middlewares/lvgl/src/extra/layouts/flex/lv_flex.c **** 
  85:Middlewares/lvgl/src/extra/layouts/flex/lv_flex.c **** /*=====================
  86:Middlewares/lvgl/src/extra/layouts/flex/lv_flex.c ****  * Setter functions
  87:Middlewares/lvgl/src/extra/layouts/flex/lv_flex.c ****  *====================*/
  88:Middlewares/lvgl/src/extra/layouts/flex/lv_flex.c **** 
  89:Middlewares/lvgl/src/extra/layouts/flex/lv_flex.c **** void lv_flex_init(void)
  90:Middlewares/lvgl/src/extra/layouts/flex/lv_flex.c **** {
  91:Middlewares/lvgl/src/extra/layouts/flex/lv_flex.c ****     LV_LAYOUT_FLEX = lv_layout_register(flex_update, NULL);
  92:Middlewares/lvgl/src/extra/layouts/flex/lv_flex.c **** 
  93:Middlewares/lvgl/src/extra/layouts/flex/lv_flex.c ****     LV_STYLE_FLEX_FLOW = lv_style_register_prop();
  94:Middlewares/lvgl/src/extra/layouts/flex/lv_flex.c ****     LV_STYLE_FLEX_MAIN_PLACE = lv_style_register_prop() | LV_STYLE_PROP_LAYOUT_REFR;
  95:Middlewares/lvgl/src/extra/layouts/flex/lv_flex.c ****     LV_STYLE_FLEX_CROSS_PLACE = lv_style_register_prop() | LV_STYLE_PROP_LAYOUT_REFR;
  96:Middlewares/lvgl/src/extra/layouts/flex/lv_flex.c ****     LV_STYLE_FLEX_TRACK_PLACE = lv_style_register_prop() | LV_STYLE_PROP_LAYOUT_REFR;
  97:Middlewares/lvgl/src/extra/layouts/flex/lv_flex.c **** }
  98:Middlewares/lvgl/src/extra/layouts/flex/lv_flex.c **** 
  99:Middlewares/lvgl/src/extra/layouts/flex/lv_flex.c **** void lv_obj_set_flex_flow(lv_obj_t * obj, lv_flex_flow_t flow)
 100:Middlewares/lvgl/src/extra/layouts/flex/lv_flex.c **** {
 101:Middlewares/lvgl/src/extra/layouts/flex/lv_flex.c ****     lv_obj_set_style_flex_flow(obj, flow, 0);
 102:Middlewares/lvgl/src/extra/layouts/flex/lv_flex.c ****     lv_obj_set_style_layout(obj, LV_LAYOUT_FLEX, 0);
 103:Middlewares/lvgl/src/extra/layouts/flex/lv_flex.c **** }
 104:Middlewares/lvgl/src/extra/layouts/flex/lv_flex.c **** 
 105:Middlewares/lvgl/src/extra/layouts/flex/lv_flex.c **** void lv_obj_set_flex_align(lv_obj_t * obj, lv_flex_align_t main_place, lv_flex_align_t cross_place,
ARM GAS  /tmp/ccSBYUf5.s 			page 7


 106:Middlewares/lvgl/src/extra/layouts/flex/lv_flex.c **** {
 107:Middlewares/lvgl/src/extra/layouts/flex/lv_flex.c ****     lv_obj_set_style_flex_main_place(obj, main_place, 0);
 108:Middlewares/lvgl/src/extra/layouts/flex/lv_flex.c ****     lv_obj_set_style_flex_cross_place(obj, cross_place, 0);
 109:Middlewares/lvgl/src/extra/layouts/flex/lv_flex.c ****     lv_obj_set_style_flex_track_place(obj, track_place, 0);
 110:Middlewares/lvgl/src/extra/layouts/flex/lv_flex.c ****     lv_obj_set_style_layout(obj, LV_LAYOUT_FLEX, 0);
 111:Middlewares/lvgl/src/extra/layouts/flex/lv_flex.c **** }
 112:Middlewares/lvgl/src/extra/layouts/flex/lv_flex.c **** 
 113:Middlewares/lvgl/src/extra/layouts/flex/lv_flex.c **** void lv_obj_set_flex_grow(lv_obj_t * obj, uint8_t grow)
 114:Middlewares/lvgl/src/extra/layouts/flex/lv_flex.c **** {
 115:Middlewares/lvgl/src/extra/layouts/flex/lv_flex.c ****     lv_obj_set_style_flex_grow(obj, grow, 0);
 116:Middlewares/lvgl/src/extra/layouts/flex/lv_flex.c ****     lv_obj_mark_layout_as_dirty(lv_obj_get_parent(obj));
 117:Middlewares/lvgl/src/extra/layouts/flex/lv_flex.c **** }
 118:Middlewares/lvgl/src/extra/layouts/flex/lv_flex.c **** 
 119:Middlewares/lvgl/src/extra/layouts/flex/lv_flex.c **** 
 120:Middlewares/lvgl/src/extra/layouts/flex/lv_flex.c **** void lv_style_set_flex_flow(lv_style_t * style, lv_flex_flow_t value)
 121:Middlewares/lvgl/src/extra/layouts/flex/lv_flex.c **** {
 122:Middlewares/lvgl/src/extra/layouts/flex/lv_flex.c ****     lv_style_value_t v = {
 123:Middlewares/lvgl/src/extra/layouts/flex/lv_flex.c ****         .num = (int32_t)value
 124:Middlewares/lvgl/src/extra/layouts/flex/lv_flex.c ****     };
 125:Middlewares/lvgl/src/extra/layouts/flex/lv_flex.c ****     lv_style_set_prop(style, LV_STYLE_FLEX_FLOW, v);
 126:Middlewares/lvgl/src/extra/layouts/flex/lv_flex.c **** }
 127:Middlewares/lvgl/src/extra/layouts/flex/lv_flex.c **** 
 128:Middlewares/lvgl/src/extra/layouts/flex/lv_flex.c **** void lv_style_set_flex_main_place(lv_style_t * style, lv_flex_align_t value)
 129:Middlewares/lvgl/src/extra/layouts/flex/lv_flex.c **** {
 130:Middlewares/lvgl/src/extra/layouts/flex/lv_flex.c ****     lv_style_value_t v = {
 131:Middlewares/lvgl/src/extra/layouts/flex/lv_flex.c ****         .num = (int32_t)value
 132:Middlewares/lvgl/src/extra/layouts/flex/lv_flex.c ****     };
 133:Middlewares/lvgl/src/extra/layouts/flex/lv_flex.c ****     lv_style_set_prop(style, LV_STYLE_FLEX_MAIN_PLACE, v);
 134:Middlewares/lvgl/src/extra/layouts/flex/lv_flex.c **** }
 135:Middlewares/lvgl/src/extra/layouts/flex/lv_flex.c **** 
 136:Middlewares/lvgl/src/extra/layouts/flex/lv_flex.c **** void lv_style_set_flex_cross_place(lv_style_t * style, lv_flex_align_t value)
 137:Middlewares/lvgl/src/extra/layouts/flex/lv_flex.c **** {
 138:Middlewares/lvgl/src/extra/layouts/flex/lv_flex.c ****     lv_style_value_t v = {
 139:Middlewares/lvgl/src/extra/layouts/flex/lv_flex.c ****         .num = (int32_t)value
 140:Middlewares/lvgl/src/extra/layouts/flex/lv_flex.c ****     };
 141:Middlewares/lvgl/src/extra/layouts/flex/lv_flex.c ****     lv_style_set_prop(style, LV_STYLE_FLEX_CROSS_PLACE, v);
 142:Middlewares/lvgl/src/extra/layouts/flex/lv_flex.c **** }
 143:Middlewares/lvgl/src/extra/layouts/flex/lv_flex.c **** 
 144:Middlewares/lvgl/src/extra/layouts/flex/lv_flex.c **** void lv_style_set_flex_track_place(lv_style_t * style, lv_flex_align_t value)
 145:Middlewares/lvgl/src/extra/layouts/flex/lv_flex.c **** {
 146:Middlewares/lvgl/src/extra/layouts/flex/lv_flex.c ****     lv_style_value_t v = {
 147:Middlewares/lvgl/src/extra/layouts/flex/lv_flex.c ****         .num = (int32_t)value
 148:Middlewares/lvgl/src/extra/layouts/flex/lv_flex.c ****     };
 149:Middlewares/lvgl/src/extra/layouts/flex/lv_flex.c ****     lv_style_set_prop(style, LV_STYLE_FLEX_TRACK_PLACE, v);
 150:Middlewares/lvgl/src/extra/layouts/flex/lv_flex.c **** }
 151:Middlewares/lvgl/src/extra/layouts/flex/lv_flex.c **** 
 152:Middlewares/lvgl/src/extra/layouts/flex/lv_flex.c **** void lv_style_set_flex_grow(lv_style_t * style, uint8_t value)
 153:Middlewares/lvgl/src/extra/layouts/flex/lv_flex.c **** {
 154:Middlewares/lvgl/src/extra/layouts/flex/lv_flex.c ****     lv_style_value_t v = {
 155:Middlewares/lvgl/src/extra/layouts/flex/lv_flex.c ****             .num = (int32_t)value
 156:Middlewares/lvgl/src/extra/layouts/flex/lv_flex.c ****     };
 157:Middlewares/lvgl/src/extra/layouts/flex/lv_flex.c ****     lv_style_set_prop(style, LV_STYLE_FLEX_GROW, v);
 158:Middlewares/lvgl/src/extra/layouts/flex/lv_flex.c **** }
 159:Middlewares/lvgl/src/extra/layouts/flex/lv_flex.c **** 
 160:Middlewares/lvgl/src/extra/layouts/flex/lv_flex.c **** 
 161:Middlewares/lvgl/src/extra/layouts/flex/lv_flex.c **** void lv_obj_set_style_flex_flow(lv_obj_t * obj, lv_flex_flow_t value, lv_style_selector_t selector)
 162:Middlewares/lvgl/src/extra/layouts/flex/lv_flex.c **** {
ARM GAS  /tmp/ccSBYUf5.s 			page 8


 163:Middlewares/lvgl/src/extra/layouts/flex/lv_flex.c ****     lv_style_value_t v = {
 164:Middlewares/lvgl/src/extra/layouts/flex/lv_flex.c ****         .num = (int32_t) value
 165:Middlewares/lvgl/src/extra/layouts/flex/lv_flex.c ****     };
 166:Middlewares/lvgl/src/extra/layouts/flex/lv_flex.c ****     lv_obj_set_local_style_prop(obj, LV_STYLE_FLEX_FLOW, v, selector);
 167:Middlewares/lvgl/src/extra/layouts/flex/lv_flex.c **** }
 168:Middlewares/lvgl/src/extra/layouts/flex/lv_flex.c **** 
 169:Middlewares/lvgl/src/extra/layouts/flex/lv_flex.c **** void lv_obj_set_style_flex_main_place(lv_obj_t * obj, lv_flex_align_t value, lv_style_selector_t se
 170:Middlewares/lvgl/src/extra/layouts/flex/lv_flex.c **** {
 171:Middlewares/lvgl/src/extra/layouts/flex/lv_flex.c ****     lv_style_value_t v = {
 172:Middlewares/lvgl/src/extra/layouts/flex/lv_flex.c ****         .num = (int32_t) value
 173:Middlewares/lvgl/src/extra/layouts/flex/lv_flex.c ****     };
 174:Middlewares/lvgl/src/extra/layouts/flex/lv_flex.c ****     lv_obj_set_local_style_prop(obj, LV_STYLE_FLEX_MAIN_PLACE, v, selector);
 175:Middlewares/lvgl/src/extra/layouts/flex/lv_flex.c **** }
 176:Middlewares/lvgl/src/extra/layouts/flex/lv_flex.c **** 
 177:Middlewares/lvgl/src/extra/layouts/flex/lv_flex.c **** void lv_obj_set_style_flex_cross_place(lv_obj_t * obj, lv_flex_align_t value, lv_style_selector_t s
 178:Middlewares/lvgl/src/extra/layouts/flex/lv_flex.c **** {
 179:Middlewares/lvgl/src/extra/layouts/flex/lv_flex.c ****     lv_style_value_t v = {
 180:Middlewares/lvgl/src/extra/layouts/flex/lv_flex.c ****         .num = (int32_t) value
 181:Middlewares/lvgl/src/extra/layouts/flex/lv_flex.c ****     };
 182:Middlewares/lvgl/src/extra/layouts/flex/lv_flex.c ****     lv_obj_set_local_style_prop(obj, LV_STYLE_FLEX_CROSS_PLACE, v, selector);
 183:Middlewares/lvgl/src/extra/layouts/flex/lv_flex.c **** }
 184:Middlewares/lvgl/src/extra/layouts/flex/lv_flex.c **** 
 185:Middlewares/lvgl/src/extra/layouts/flex/lv_flex.c **** void lv_obj_set_style_flex_track_place(lv_obj_t * obj, lv_flex_align_t value, lv_style_selector_t s
 186:Middlewares/lvgl/src/extra/layouts/flex/lv_flex.c **** {
 187:Middlewares/lvgl/src/extra/layouts/flex/lv_flex.c ****     lv_style_value_t v = {
 188:Middlewares/lvgl/src/extra/layouts/flex/lv_flex.c ****         .num = (int32_t) value
 189:Middlewares/lvgl/src/extra/layouts/flex/lv_flex.c ****     };
 190:Middlewares/lvgl/src/extra/layouts/flex/lv_flex.c ****     lv_obj_set_local_style_prop(obj, LV_STYLE_FLEX_TRACK_PLACE, v, selector);
 191:Middlewares/lvgl/src/extra/layouts/flex/lv_flex.c **** }
 192:Middlewares/lvgl/src/extra/layouts/flex/lv_flex.c **** 
 193:Middlewares/lvgl/src/extra/layouts/flex/lv_flex.c **** void lv_obj_set_style_flex_grow(lv_obj_t * obj, uint8_t value, lv_style_selector_t selector)
 194:Middlewares/lvgl/src/extra/layouts/flex/lv_flex.c **** {
 195:Middlewares/lvgl/src/extra/layouts/flex/lv_flex.c ****     lv_style_value_t v = {
 196:Middlewares/lvgl/src/extra/layouts/flex/lv_flex.c ****         .num = (int32_t) value
 197:Middlewares/lvgl/src/extra/layouts/flex/lv_flex.c ****     };
 198:Middlewares/lvgl/src/extra/layouts/flex/lv_flex.c ****     lv_obj_set_local_style_prop(obj, LV_STYLE_FLEX_GROW, v, selector);
 199:Middlewares/lvgl/src/extra/layouts/flex/lv_flex.c **** }
 200:Middlewares/lvgl/src/extra/layouts/flex/lv_flex.c **** 
 201:Middlewares/lvgl/src/extra/layouts/flex/lv_flex.c **** /**********************
 202:Middlewares/lvgl/src/extra/layouts/flex/lv_flex.c ****  *   STATIC FUNCTIONS
 203:Middlewares/lvgl/src/extra/layouts/flex/lv_flex.c ****  **********************/
 204:Middlewares/lvgl/src/extra/layouts/flex/lv_flex.c **** 
 205:Middlewares/lvgl/src/extra/layouts/flex/lv_flex.c **** static void flex_update(lv_obj_t * cont, void * user_data)
 206:Middlewares/lvgl/src/extra/layouts/flex/lv_flex.c **** {
 207:Middlewares/lvgl/src/extra/layouts/flex/lv_flex.c ****     LV_LOG_INFO("update %p container", cont);
 208:Middlewares/lvgl/src/extra/layouts/flex/lv_flex.c ****     LV_UNUSED(user_data);
 209:Middlewares/lvgl/src/extra/layouts/flex/lv_flex.c **** 
 210:Middlewares/lvgl/src/extra/layouts/flex/lv_flex.c ****     flex_t f;
 211:Middlewares/lvgl/src/extra/layouts/flex/lv_flex.c ****     lv_flex_flow_t flow = lv_obj_get_style_flex_flow(cont, LV_PART_MAIN);
 212:Middlewares/lvgl/src/extra/layouts/flex/lv_flex.c ****     f.row = flow & _LV_FLEX_COLUMN ? 0 : 1;
 213:Middlewares/lvgl/src/extra/layouts/flex/lv_flex.c ****     f.wrap = flow & _LV_FLEX_WRAP ? 1 : 0;
 214:Middlewares/lvgl/src/extra/layouts/flex/lv_flex.c ****     f.rev = flow & _LV_FLEX_REVERSE ? 1 : 0;
 215:Middlewares/lvgl/src/extra/layouts/flex/lv_flex.c ****     f.main_place = lv_obj_get_style_flex_main_place(cont, LV_PART_MAIN);
 216:Middlewares/lvgl/src/extra/layouts/flex/lv_flex.c ****     f.cross_place = lv_obj_get_style_flex_cross_place(cont, LV_PART_MAIN);
 217:Middlewares/lvgl/src/extra/layouts/flex/lv_flex.c ****     f.track_place = lv_obj_get_style_flex_track_place(cont, LV_PART_MAIN);
 218:Middlewares/lvgl/src/extra/layouts/flex/lv_flex.c **** 
 219:Middlewares/lvgl/src/extra/layouts/flex/lv_flex.c ****     bool rtl = lv_obj_get_style_base_dir(cont, LV_PART_MAIN) == LV_BASE_DIR_RTL ? true : false;
ARM GAS  /tmp/ccSBYUf5.s 			page 9


 220:Middlewares/lvgl/src/extra/layouts/flex/lv_flex.c ****     lv_coord_t track_gap = !f.row ? lv_obj_get_style_pad_column(cont, LV_PART_MAIN) : lv_obj_get_st
 221:Middlewares/lvgl/src/extra/layouts/flex/lv_flex.c ****     lv_coord_t item_gap = f.row ? lv_obj_get_style_pad_column(cont, LV_PART_MAIN) : lv_obj_get_styl
 222:Middlewares/lvgl/src/extra/layouts/flex/lv_flex.c ****     lv_coord_t max_main_size = (f.row ? lv_obj_get_content_width(cont) : lv_obj_get_content_height(
 223:Middlewares/lvgl/src/extra/layouts/flex/lv_flex.c ****     lv_coord_t border_widt = lv_obj_get_style_border_width(cont, LV_PART_MAIN);
 224:Middlewares/lvgl/src/extra/layouts/flex/lv_flex.c ****     lv_coord_t abs_y = cont->coords.y1 + lv_obj_get_style_pad_top(cont, LV_PART_MAIN) + border_widt
 225:Middlewares/lvgl/src/extra/layouts/flex/lv_flex.c ****     lv_coord_t abs_x = cont->coords.x1 + lv_obj_get_style_pad_left(cont, LV_PART_MAIN) + border_wid
 226:Middlewares/lvgl/src/extra/layouts/flex/lv_flex.c **** 
 227:Middlewares/lvgl/src/extra/layouts/flex/lv_flex.c ****     lv_flex_align_t track_cross_place = f.track_place;
 228:Middlewares/lvgl/src/extra/layouts/flex/lv_flex.c ****     lv_coord_t * cross_pos = (f.row ? &abs_y : &abs_x);
 229:Middlewares/lvgl/src/extra/layouts/flex/lv_flex.c **** 
 230:Middlewares/lvgl/src/extra/layouts/flex/lv_flex.c ****     lv_coord_t w_set = lv_obj_get_style_width(cont, LV_PART_MAIN);
 231:Middlewares/lvgl/src/extra/layouts/flex/lv_flex.c ****     lv_coord_t h_set = lv_obj_get_style_height(cont, LV_PART_MAIN);
 232:Middlewares/lvgl/src/extra/layouts/flex/lv_flex.c **** 
 233:Middlewares/lvgl/src/extra/layouts/flex/lv_flex.c ****     /*Content sized objects should squeezed the gap between the children, therefore any alignment w
 234:Middlewares/lvgl/src/extra/layouts/flex/lv_flex.c ****     if((f.row && h_set == LV_SIZE_CONTENT && cont->h_layout == 0) ||
 235:Middlewares/lvgl/src/extra/layouts/flex/lv_flex.c ****     	(!f.row && w_set == LV_SIZE_CONTENT && cont->w_layout == 0))
 236:Middlewares/lvgl/src/extra/layouts/flex/lv_flex.c ****     {
 237:Middlewares/lvgl/src/extra/layouts/flex/lv_flex.c ****         track_cross_place = LV_FLEX_ALIGN_START;
 238:Middlewares/lvgl/src/extra/layouts/flex/lv_flex.c ****     }
 239:Middlewares/lvgl/src/extra/layouts/flex/lv_flex.c **** 
 240:Middlewares/lvgl/src/extra/layouts/flex/lv_flex.c ****     if(rtl && !f.row) {
 241:Middlewares/lvgl/src/extra/layouts/flex/lv_flex.c ****         if(track_cross_place == LV_FLEX_ALIGN_START) track_cross_place = LV_FLEX_ALIGN_END;
 242:Middlewares/lvgl/src/extra/layouts/flex/lv_flex.c ****         else if(track_cross_place == LV_FLEX_ALIGN_END) track_cross_place = LV_FLEX_ALIGN_START;
 243:Middlewares/lvgl/src/extra/layouts/flex/lv_flex.c ****     }
 244:Middlewares/lvgl/src/extra/layouts/flex/lv_flex.c **** 
 245:Middlewares/lvgl/src/extra/layouts/flex/lv_flex.c ****     lv_coord_t total_track_cross_size = 0;
 246:Middlewares/lvgl/src/extra/layouts/flex/lv_flex.c ****     lv_coord_t gap = 0;
 247:Middlewares/lvgl/src/extra/layouts/flex/lv_flex.c ****     uint32_t track_cnt = 0;
 248:Middlewares/lvgl/src/extra/layouts/flex/lv_flex.c ****     int32_t track_first_item;
 249:Middlewares/lvgl/src/extra/layouts/flex/lv_flex.c ****     int32_t next_track_first_item;
 250:Middlewares/lvgl/src/extra/layouts/flex/lv_flex.c **** 
 251:Middlewares/lvgl/src/extra/layouts/flex/lv_flex.c ****     if(track_cross_place != LV_FLEX_ALIGN_START) {
 252:Middlewares/lvgl/src/extra/layouts/flex/lv_flex.c ****         track_first_item = f.rev ? cont->spec_attr->child_cnt - 1 : 0;
 253:Middlewares/lvgl/src/extra/layouts/flex/lv_flex.c ****         track_t t;
 254:Middlewares/lvgl/src/extra/layouts/flex/lv_flex.c ****         while(track_first_item < (int32_t)cont->spec_attr->child_cnt && track_first_item >= 0) {
 255:Middlewares/lvgl/src/extra/layouts/flex/lv_flex.c ****             /*Search the first item of the next row*/
 256:Middlewares/lvgl/src/extra/layouts/flex/lv_flex.c ****             t.grow_dsc_calc = 0;
 257:Middlewares/lvgl/src/extra/layouts/flex/lv_flex.c ****             next_track_first_item = find_track_end(cont, &f, track_first_item, max_main_size, item_
 258:Middlewares/lvgl/src/extra/layouts/flex/lv_flex.c ****             total_track_cross_size += t.track_cross_size + track_gap;
 259:Middlewares/lvgl/src/extra/layouts/flex/lv_flex.c ****             track_cnt++;
 260:Middlewares/lvgl/src/extra/layouts/flex/lv_flex.c ****             track_first_item = next_track_first_item;
 261:Middlewares/lvgl/src/extra/layouts/flex/lv_flex.c ****         }
 262:Middlewares/lvgl/src/extra/layouts/flex/lv_flex.c **** 
 263:Middlewares/lvgl/src/extra/layouts/flex/lv_flex.c ****         if(track_cnt) total_track_cross_size -= track_gap;   /*No gap after the last track*/
 264:Middlewares/lvgl/src/extra/layouts/flex/lv_flex.c **** 
 265:Middlewares/lvgl/src/extra/layouts/flex/lv_flex.c ****         /*Place the tracks to get the start position*/
 266:Middlewares/lvgl/src/extra/layouts/flex/lv_flex.c ****         lv_coord_t max_cross_size = (f.row ? lv_obj_get_content_height(cont) : lv_obj_get_content_w
 267:Middlewares/lvgl/src/extra/layouts/flex/lv_flex.c ****         place_content(track_cross_place, max_cross_size, total_track_cross_size, track_cnt, cross_p
 268:Middlewares/lvgl/src/extra/layouts/flex/lv_flex.c ****     }
 269:Middlewares/lvgl/src/extra/layouts/flex/lv_flex.c **** 
 270:Middlewares/lvgl/src/extra/layouts/flex/lv_flex.c ****     track_first_item =  f.rev ? cont->spec_attr->child_cnt - 1 : 0;
 271:Middlewares/lvgl/src/extra/layouts/flex/lv_flex.c **** 
 272:Middlewares/lvgl/src/extra/layouts/flex/lv_flex.c ****     if(rtl && !f.row) {
 273:Middlewares/lvgl/src/extra/layouts/flex/lv_flex.c ****          *cross_pos += total_track_cross_size;
 274:Middlewares/lvgl/src/extra/layouts/flex/lv_flex.c ****     }
 275:Middlewares/lvgl/src/extra/layouts/flex/lv_flex.c **** 
 276:Middlewares/lvgl/src/extra/layouts/flex/lv_flex.c ****     while(track_first_item < (int32_t)cont->spec_attr->child_cnt && track_first_item >= 0) {
ARM GAS  /tmp/ccSBYUf5.s 			page 10


 277:Middlewares/lvgl/src/extra/layouts/flex/lv_flex.c ****         track_t t;
 278:Middlewares/lvgl/src/extra/layouts/flex/lv_flex.c ****         t.grow_dsc_calc = 1;
 279:Middlewares/lvgl/src/extra/layouts/flex/lv_flex.c ****         /*Search the first item of the next row*/
 280:Middlewares/lvgl/src/extra/layouts/flex/lv_flex.c ****         next_track_first_item = find_track_end(cont, &f, track_first_item, max_main_size, item_gap,
 281:Middlewares/lvgl/src/extra/layouts/flex/lv_flex.c **** 
 282:Middlewares/lvgl/src/extra/layouts/flex/lv_flex.c ****         if(rtl && !f.row) {
 283:Middlewares/lvgl/src/extra/layouts/flex/lv_flex.c ****             *cross_pos -= t.track_cross_size;
 284:Middlewares/lvgl/src/extra/layouts/flex/lv_flex.c ****         }
 285:Middlewares/lvgl/src/extra/layouts/flex/lv_flex.c ****         children_repos(cont, &f, track_first_item, next_track_first_item, abs_x, abs_y, max_main_si
 286:Middlewares/lvgl/src/extra/layouts/flex/lv_flex.c ****         track_first_item = next_track_first_item;
 287:Middlewares/lvgl/src/extra/layouts/flex/lv_flex.c ****         lv_mem_buf_release(t.grow_dsc);
 288:Middlewares/lvgl/src/extra/layouts/flex/lv_flex.c ****         t.grow_dsc = NULL;
 289:Middlewares/lvgl/src/extra/layouts/flex/lv_flex.c ****         if(rtl && !f.row) {
 290:Middlewares/lvgl/src/extra/layouts/flex/lv_flex.c ****             *cross_pos -= gap + track_gap;
 291:Middlewares/lvgl/src/extra/layouts/flex/lv_flex.c ****         } else {
 292:Middlewares/lvgl/src/extra/layouts/flex/lv_flex.c ****             *cross_pos += t.track_cross_size + gap + track_gap;
 293:Middlewares/lvgl/src/extra/layouts/flex/lv_flex.c ****         }
 294:Middlewares/lvgl/src/extra/layouts/flex/lv_flex.c ****     }
 295:Middlewares/lvgl/src/extra/layouts/flex/lv_flex.c ****     LV_ASSERT_MEM_INTEGRITY();
 296:Middlewares/lvgl/src/extra/layouts/flex/lv_flex.c **** 
 297:Middlewares/lvgl/src/extra/layouts/flex/lv_flex.c ****     if(w_set == LV_SIZE_CONTENT || h_set == LV_SIZE_CONTENT) {
 298:Middlewares/lvgl/src/extra/layouts/flex/lv_flex.c ****         lv_obj_refr_size(cont);
 299:Middlewares/lvgl/src/extra/layouts/flex/lv_flex.c ****     }
 300:Middlewares/lvgl/src/extra/layouts/flex/lv_flex.c **** 
 301:Middlewares/lvgl/src/extra/layouts/flex/lv_flex.c ****     lv_event_send(cont, LV_EVENT_LAYOUT_CHANGED, NULL);
 302:Middlewares/lvgl/src/extra/layouts/flex/lv_flex.c **** 
 303:Middlewares/lvgl/src/extra/layouts/flex/lv_flex.c ****     LV_TRACE_LAYOUT("finished");
 304:Middlewares/lvgl/src/extra/layouts/flex/lv_flex.c **** }
 305:Middlewares/lvgl/src/extra/layouts/flex/lv_flex.c **** 
 306:Middlewares/lvgl/src/extra/layouts/flex/lv_flex.c **** /**
 307:Middlewares/lvgl/src/extra/layouts/flex/lv_flex.c ****  * Find the last item of a track
 308:Middlewares/lvgl/src/extra/layouts/flex/lv_flex.c ****  */
 309:Middlewares/lvgl/src/extra/layouts/flex/lv_flex.c **** static int32_t find_track_end(lv_obj_t * cont, flex_t * f, int32_t item_start_id, lv_coord_t max_ma
 310:Middlewares/lvgl/src/extra/layouts/flex/lv_flex.c **** {
 311:Middlewares/lvgl/src/extra/layouts/flex/lv_flex.c ****     lv_coord_t w_set = lv_obj_get_style_width(cont, LV_PART_MAIN);
 312:Middlewares/lvgl/src/extra/layouts/flex/lv_flex.c ****     lv_coord_t h_set = lv_obj_get_style_height(cont, LV_PART_MAIN);
 313:Middlewares/lvgl/src/extra/layouts/flex/lv_flex.c **** 
 314:Middlewares/lvgl/src/extra/layouts/flex/lv_flex.c ****     /*Can't wrap if the size if auto (i.e. the size depends on the children)*/
 315:Middlewares/lvgl/src/extra/layouts/flex/lv_flex.c ****     if(f->wrap && ((f->row && w_set == LV_SIZE_CONTENT) || (!f->row && h_set == LV_SIZE_CONTENT))) 
 316:Middlewares/lvgl/src/extra/layouts/flex/lv_flex.c ****         f->wrap = false;
 317:Middlewares/lvgl/src/extra/layouts/flex/lv_flex.c ****     }
 318:Middlewares/lvgl/src/extra/layouts/flex/lv_flex.c ****     lv_coord_t(*get_main_size)(const lv_obj_t *) = (f->row ? lv_obj_get_width : lv_obj_get_height);
 319:Middlewares/lvgl/src/extra/layouts/flex/lv_flex.c ****     lv_coord_t(*get_cross_size)(const lv_obj_t *) = (!f->row ? lv_obj_get_width : lv_obj_get_height
 320:Middlewares/lvgl/src/extra/layouts/flex/lv_flex.c **** 
 321:Middlewares/lvgl/src/extra/layouts/flex/lv_flex.c ****     lv_coord_t grow_sum = 0;
 322:Middlewares/lvgl/src/extra/layouts/flex/lv_flex.c ****     t->track_main_size = 0;
 323:Middlewares/lvgl/src/extra/layouts/flex/lv_flex.c ****     t->track_fix_main_size = 0;
 324:Middlewares/lvgl/src/extra/layouts/flex/lv_flex.c ****     t->grow_item_cnt = 0;
 325:Middlewares/lvgl/src/extra/layouts/flex/lv_flex.c ****     t->track_cross_size = 0;
 326:Middlewares/lvgl/src/extra/layouts/flex/lv_flex.c ****     t->item_cnt = 0;
 327:Middlewares/lvgl/src/extra/layouts/flex/lv_flex.c ****     t->grow_dsc = NULL;
 328:Middlewares/lvgl/src/extra/layouts/flex/lv_flex.c **** 
 329:Middlewares/lvgl/src/extra/layouts/flex/lv_flex.c ****     int32_t item_id = item_start_id;
 330:Middlewares/lvgl/src/extra/layouts/flex/lv_flex.c **** 
 331:Middlewares/lvgl/src/extra/layouts/flex/lv_flex.c ****     lv_obj_t * item = lv_obj_get_child(cont, item_id);
 332:Middlewares/lvgl/src/extra/layouts/flex/lv_flex.c ****     while(item) {
 333:Middlewares/lvgl/src/extra/layouts/flex/lv_flex.c ****         if(item_id != item_start_id && lv_obj_has_flag(item, LV_OBJ_FLAG_FLEX_IN_NEW_TRACK)) break;
ARM GAS  /tmp/ccSBYUf5.s 			page 11


 334:Middlewares/lvgl/src/extra/layouts/flex/lv_flex.c **** 
 335:Middlewares/lvgl/src/extra/layouts/flex/lv_flex.c ****         if(!lv_obj_has_flag_any(item, LV_OBJ_FLAG_IGNORE_LAYOUT | LV_OBJ_FLAG_HIDDEN | LV_OBJ_FLAG_
 336:Middlewares/lvgl/src/extra/layouts/flex/lv_flex.c ****             uint8_t grow_value = lv_obj_get_style_flex_grow(item, LV_PART_MAIN);
 337:Middlewares/lvgl/src/extra/layouts/flex/lv_flex.c ****             if(grow_value) {
 338:Middlewares/lvgl/src/extra/layouts/flex/lv_flex.c ****                 grow_sum += grow_value;
 339:Middlewares/lvgl/src/extra/layouts/flex/lv_flex.c ****                 t->grow_item_cnt++;
 340:Middlewares/lvgl/src/extra/layouts/flex/lv_flex.c ****                 t->track_fix_main_size += item_gap;
 341:Middlewares/lvgl/src/extra/layouts/flex/lv_flex.c ****                 if(t->grow_dsc_calc) {
 342:Middlewares/lvgl/src/extra/layouts/flex/lv_flex.c ****                     grow_dsc_t * new_dsc = lv_mem_buf_get(sizeof(grow_dsc_t) * (t->grow_item_cnt));
 343:Middlewares/lvgl/src/extra/layouts/flex/lv_flex.c ****                     LV_ASSERT_MALLOC(new_dsc);
 344:Middlewares/lvgl/src/extra/layouts/flex/lv_flex.c ****                     if(new_dsc == NULL) return item_id;
 345:Middlewares/lvgl/src/extra/layouts/flex/lv_flex.c **** 
 346:Middlewares/lvgl/src/extra/layouts/flex/lv_flex.c ****                     if(t->grow_dsc) {
 347:Middlewares/lvgl/src/extra/layouts/flex/lv_flex.c ****                         lv_memcpy(new_dsc, t->grow_dsc, sizeof(grow_dsc_t) * (t->grow_item_cnt - 1)
 348:Middlewares/lvgl/src/extra/layouts/flex/lv_flex.c ****                         lv_mem_buf_release(t->grow_dsc);
 349:Middlewares/lvgl/src/extra/layouts/flex/lv_flex.c ****                     }
 350:Middlewares/lvgl/src/extra/layouts/flex/lv_flex.c ****                     new_dsc[t->grow_item_cnt - 1].item = item;
 351:Middlewares/lvgl/src/extra/layouts/flex/lv_flex.c ****                     new_dsc[t->grow_item_cnt - 1].min_size = f->row ? lv_obj_get_style_min_width(it
 352:Middlewares/lvgl/src/extra/layouts/flex/lv_flex.c ****                     new_dsc[t->grow_item_cnt - 1].max_size = f->row ? lv_obj_get_style_max_width(it
 353:Middlewares/lvgl/src/extra/layouts/flex/lv_flex.c ****                     new_dsc[t->grow_item_cnt - 1].grow_value = grow_value;
 354:Middlewares/lvgl/src/extra/layouts/flex/lv_flex.c ****                     new_dsc[t->grow_item_cnt - 1].clamped = 0;
 355:Middlewares/lvgl/src/extra/layouts/flex/lv_flex.c ****                     t->grow_dsc = new_dsc;
 356:Middlewares/lvgl/src/extra/layouts/flex/lv_flex.c ****                 }
 357:Middlewares/lvgl/src/extra/layouts/flex/lv_flex.c ****             } else {
 358:Middlewares/lvgl/src/extra/layouts/flex/lv_flex.c ****                 lv_coord_t item_size = get_main_size(item);
 359:Middlewares/lvgl/src/extra/layouts/flex/lv_flex.c ****                 if(f->wrap && t->track_fix_main_size + item_size > max_main_size) break;
 360:Middlewares/lvgl/src/extra/layouts/flex/lv_flex.c ****                 t->track_fix_main_size += item_size + item_gap;
 361:Middlewares/lvgl/src/extra/layouts/flex/lv_flex.c ****             }
 362:Middlewares/lvgl/src/extra/layouts/flex/lv_flex.c **** 
 363:Middlewares/lvgl/src/extra/layouts/flex/lv_flex.c **** 
 364:Middlewares/lvgl/src/extra/layouts/flex/lv_flex.c ****             t->track_cross_size = LV_MAX(get_cross_size(item), t->track_cross_size);
 365:Middlewares/lvgl/src/extra/layouts/flex/lv_flex.c ****             t->item_cnt++;
 366:Middlewares/lvgl/src/extra/layouts/flex/lv_flex.c ****         }
 367:Middlewares/lvgl/src/extra/layouts/flex/lv_flex.c **** 
 368:Middlewares/lvgl/src/extra/layouts/flex/lv_flex.c ****         item_id += f->rev ? -1 : +1;
 369:Middlewares/lvgl/src/extra/layouts/flex/lv_flex.c ****         if(item_id < 0) break;
 370:Middlewares/lvgl/src/extra/layouts/flex/lv_flex.c ****         item = lv_obj_get_child(cont, item_id);
 371:Middlewares/lvgl/src/extra/layouts/flex/lv_flex.c ****     }
 372:Middlewares/lvgl/src/extra/layouts/flex/lv_flex.c **** 
 373:Middlewares/lvgl/src/extra/layouts/flex/lv_flex.c ****     if(t->track_fix_main_size > 0) t->track_fix_main_size -= item_gap; /*There is no gap after the 
 374:Middlewares/lvgl/src/extra/layouts/flex/lv_flex.c **** 
 375:Middlewares/lvgl/src/extra/layouts/flex/lv_flex.c ****     /*If there is at least one "grow item" the track takes the full space*/
 376:Middlewares/lvgl/src/extra/layouts/flex/lv_flex.c ****     t->track_main_size = t->grow_item_cnt ? max_main_size : t->track_fix_main_size;
 377:Middlewares/lvgl/src/extra/layouts/flex/lv_flex.c **** 
 378:Middlewares/lvgl/src/extra/layouts/flex/lv_flex.c ****     /*Have at least one item in a row*/
 379:Middlewares/lvgl/src/extra/layouts/flex/lv_flex.c ****     if(item && item_id == item_start_id) {
 380:Middlewares/lvgl/src/extra/layouts/flex/lv_flex.c ****         item = cont->spec_attr->children[item_id];
 381:Middlewares/lvgl/src/extra/layouts/flex/lv_flex.c ****         get_next_item(cont, f->rev, &item_id);
 382:Middlewares/lvgl/src/extra/layouts/flex/lv_flex.c ****         if(item) {
 383:Middlewares/lvgl/src/extra/layouts/flex/lv_flex.c ****             t->track_cross_size = get_cross_size(item);
 384:Middlewares/lvgl/src/extra/layouts/flex/lv_flex.c ****             t->track_main_size = get_main_size(item);
 385:Middlewares/lvgl/src/extra/layouts/flex/lv_flex.c ****             t->item_cnt = 1;
 386:Middlewares/lvgl/src/extra/layouts/flex/lv_flex.c ****         }
 387:Middlewares/lvgl/src/extra/layouts/flex/lv_flex.c ****     }
 388:Middlewares/lvgl/src/extra/layouts/flex/lv_flex.c **** 
 389:Middlewares/lvgl/src/extra/layouts/flex/lv_flex.c ****     return item_id;
 390:Middlewares/lvgl/src/extra/layouts/flex/lv_flex.c **** }
ARM GAS  /tmp/ccSBYUf5.s 			page 12


 391:Middlewares/lvgl/src/extra/layouts/flex/lv_flex.c **** 
 392:Middlewares/lvgl/src/extra/layouts/flex/lv_flex.c **** /**
 393:Middlewares/lvgl/src/extra/layouts/flex/lv_flex.c ****  * Position the children in the same track
 394:Middlewares/lvgl/src/extra/layouts/flex/lv_flex.c ****  */
 395:Middlewares/lvgl/src/extra/layouts/flex/lv_flex.c **** static void children_repos(lv_obj_t * cont, flex_t * f, int32_t item_first_id, int32_t item_last_id
 396:Middlewares/lvgl/src/extra/layouts/flex/lv_flex.c **** {
 397:Middlewares/lvgl/src/extra/layouts/flex/lv_flex.c ****     void (*area_set_main_size)(lv_area_t *, lv_coord_t) = (f->row ? lv_area_set_width : lv_area_set
 398:Middlewares/lvgl/src/extra/layouts/flex/lv_flex.c ****     lv_coord_t (*area_get_main_size)(const lv_area_t *) = (f->row ? lv_area_get_width : lv_area_get
 399:Middlewares/lvgl/src/extra/layouts/flex/lv_flex.c ****     lv_coord_t (*area_get_cross_size)(const lv_area_t *) = (!f->row ? lv_area_get_width : lv_area_g
 400:Middlewares/lvgl/src/extra/layouts/flex/lv_flex.c **** 
 401:Middlewares/lvgl/src/extra/layouts/flex/lv_flex.c ****     /*Calculate the size of grow items first*/
 402:Middlewares/lvgl/src/extra/layouts/flex/lv_flex.c ****     uint32_t i;
 403:Middlewares/lvgl/src/extra/layouts/flex/lv_flex.c ****     bool grow_reiterate  = true;
 404:Middlewares/lvgl/src/extra/layouts/flex/lv_flex.c ****     while(grow_reiterate) {
 405:Middlewares/lvgl/src/extra/layouts/flex/lv_flex.c ****         grow_reiterate = false;
 406:Middlewares/lvgl/src/extra/layouts/flex/lv_flex.c ****         lv_coord_t grow_value_sum = 0;
 407:Middlewares/lvgl/src/extra/layouts/flex/lv_flex.c ****         lv_coord_t grow_max_size = t->track_main_size - t->track_fix_main_size;
 408:Middlewares/lvgl/src/extra/layouts/flex/lv_flex.c ****         for(i = 0; i < t->grow_item_cnt; i++) {
 409:Middlewares/lvgl/src/extra/layouts/flex/lv_flex.c ****             if(t->grow_dsc[i].clamped == 0) {
 410:Middlewares/lvgl/src/extra/layouts/flex/lv_flex.c ****                 grow_value_sum += t->grow_dsc[i].grow_value;
 411:Middlewares/lvgl/src/extra/layouts/flex/lv_flex.c ****             } else {
 412:Middlewares/lvgl/src/extra/layouts/flex/lv_flex.c ****                 grow_max_size -= t->grow_dsc[i].final_size;
 413:Middlewares/lvgl/src/extra/layouts/flex/lv_flex.c ****             }
 414:Middlewares/lvgl/src/extra/layouts/flex/lv_flex.c ****         }
 415:Middlewares/lvgl/src/extra/layouts/flex/lv_flex.c ****         lv_coord_t grow_unit;
 416:Middlewares/lvgl/src/extra/layouts/flex/lv_flex.c **** 
 417:Middlewares/lvgl/src/extra/layouts/flex/lv_flex.c ****         for(i = 0; i < t->grow_item_cnt; i++) {
 418:Middlewares/lvgl/src/extra/layouts/flex/lv_flex.c ****             if(t->grow_dsc[i].clamped == 0) {
 419:Middlewares/lvgl/src/extra/layouts/flex/lv_flex.c ****                 grow_unit = grow_max_size / grow_value_sum;
 420:Middlewares/lvgl/src/extra/layouts/flex/lv_flex.c ****                 lv_coord_t size = grow_unit * t->grow_dsc[i].grow_value;
 421:Middlewares/lvgl/src/extra/layouts/flex/lv_flex.c ****                 lv_coord_t size_clamp = LV_CLAMP(t->grow_dsc[i].min_size, size, t->grow_dsc[i].max_
 422:Middlewares/lvgl/src/extra/layouts/flex/lv_flex.c **** 
 423:Middlewares/lvgl/src/extra/layouts/flex/lv_flex.c ****                 if(size_clamp != size) {
 424:Middlewares/lvgl/src/extra/layouts/flex/lv_flex.c ****                     t->grow_dsc[i].clamped = 1;
 425:Middlewares/lvgl/src/extra/layouts/flex/lv_flex.c ****                     grow_reiterate = true;
 426:Middlewares/lvgl/src/extra/layouts/flex/lv_flex.c ****                 }
 427:Middlewares/lvgl/src/extra/layouts/flex/lv_flex.c ****                 t->grow_dsc[i].final_size = size_clamp;
 428:Middlewares/lvgl/src/extra/layouts/flex/lv_flex.c ****                 grow_value_sum -= t->grow_dsc[i].grow_value;
 429:Middlewares/lvgl/src/extra/layouts/flex/lv_flex.c ****                 grow_max_size  -= t->grow_dsc[i].final_size;
 430:Middlewares/lvgl/src/extra/layouts/flex/lv_flex.c ****             }
 431:Middlewares/lvgl/src/extra/layouts/flex/lv_flex.c ****         }
 432:Middlewares/lvgl/src/extra/layouts/flex/lv_flex.c ****     }
 433:Middlewares/lvgl/src/extra/layouts/flex/lv_flex.c **** 
 434:Middlewares/lvgl/src/extra/layouts/flex/lv_flex.c **** 
 435:Middlewares/lvgl/src/extra/layouts/flex/lv_flex.c ****     bool rtl = lv_obj_get_style_base_dir(cont, LV_PART_MAIN) == LV_BASE_DIR_RTL ? true : false;
 436:Middlewares/lvgl/src/extra/layouts/flex/lv_flex.c **** 
 437:Middlewares/lvgl/src/extra/layouts/flex/lv_flex.c ****     lv_coord_t main_pos = 0;
 438:Middlewares/lvgl/src/extra/layouts/flex/lv_flex.c **** 
 439:Middlewares/lvgl/src/extra/layouts/flex/lv_flex.c ****     lv_coord_t place_gap = 0;
 440:Middlewares/lvgl/src/extra/layouts/flex/lv_flex.c ****     place_content(f->main_place, max_main_size, t->track_main_size, t->item_cnt, &main_pos, &place_
 441:Middlewares/lvgl/src/extra/layouts/flex/lv_flex.c ****     if(f->row && rtl) main_pos += lv_obj_get_content_width(cont);
 442:Middlewares/lvgl/src/extra/layouts/flex/lv_flex.c **** 
 443:Middlewares/lvgl/src/extra/layouts/flex/lv_flex.c ****     lv_obj_t * item = lv_obj_get_child(cont, item_first_id);
 444:Middlewares/lvgl/src/extra/layouts/flex/lv_flex.c ****     /*Reposition the children*/
 445:Middlewares/lvgl/src/extra/layouts/flex/lv_flex.c ****     while(item && item_first_id != item_last_id) {
 446:Middlewares/lvgl/src/extra/layouts/flex/lv_flex.c ****         if(lv_obj_has_flag_any(item, LV_OBJ_FLAG_IGNORE_LAYOUT | LV_OBJ_FLAG_HIDDEN | LV_OBJ_FLAG_F
 447:Middlewares/lvgl/src/extra/layouts/flex/lv_flex.c ****             item = get_next_item(cont, f->rev, &item_first_id);
ARM GAS  /tmp/ccSBYUf5.s 			page 13


 448:Middlewares/lvgl/src/extra/layouts/flex/lv_flex.c ****             continue;
 449:Middlewares/lvgl/src/extra/layouts/flex/lv_flex.c ****         }
 450:Middlewares/lvgl/src/extra/layouts/flex/lv_flex.c ****         lv_coord_t grow_size = lv_obj_get_style_flex_grow(item, LV_PART_MAIN);
 451:Middlewares/lvgl/src/extra/layouts/flex/lv_flex.c ****         if(grow_size) {
 452:Middlewares/lvgl/src/extra/layouts/flex/lv_flex.c ****             lv_coord_t s = 0;
 453:Middlewares/lvgl/src/extra/layouts/flex/lv_flex.c ****             for(i = 0; i < t->grow_item_cnt; i++) {
 454:Middlewares/lvgl/src/extra/layouts/flex/lv_flex.c ****                 if(t->grow_dsc[i].item == item) {
 455:Middlewares/lvgl/src/extra/layouts/flex/lv_flex.c ****                     s = t->grow_dsc[i].final_size;
 456:Middlewares/lvgl/src/extra/layouts/flex/lv_flex.c ****                     break;
 457:Middlewares/lvgl/src/extra/layouts/flex/lv_flex.c ****                 }
 458:Middlewares/lvgl/src/extra/layouts/flex/lv_flex.c ****             }
 459:Middlewares/lvgl/src/extra/layouts/flex/lv_flex.c **** 
 460:Middlewares/lvgl/src/extra/layouts/flex/lv_flex.c ****             if(f->row) item->w_layout = 1;
 461:Middlewares/lvgl/src/extra/layouts/flex/lv_flex.c ****             else item->h_layout = 1;
 462:Middlewares/lvgl/src/extra/layouts/flex/lv_flex.c **** 
 463:Middlewares/lvgl/src/extra/layouts/flex/lv_flex.c ****             if(s != area_get_main_size(&item->coords)) {
 464:Middlewares/lvgl/src/extra/layouts/flex/lv_flex.c ****                 lv_obj_invalidate(item);
 465:Middlewares/lvgl/src/extra/layouts/flex/lv_flex.c **** 
 466:Middlewares/lvgl/src/extra/layouts/flex/lv_flex.c ****                 lv_area_t old_coords;
 467:Middlewares/lvgl/src/extra/layouts/flex/lv_flex.c ****                 lv_area_copy(&old_coords, &item->coords);
 468:Middlewares/lvgl/src/extra/layouts/flex/lv_flex.c ****                 area_set_main_size(&item->coords, s);
 469:Middlewares/lvgl/src/extra/layouts/flex/lv_flex.c ****                 lv_event_send(item, LV_EVENT_SIZE_CHANGED, &old_coords);
 470:Middlewares/lvgl/src/extra/layouts/flex/lv_flex.c ****                 lv_event_send(lv_obj_get_parent(item), LV_EVENT_CHILD_CHANGED, item);
 471:Middlewares/lvgl/src/extra/layouts/flex/lv_flex.c ****                 lv_obj_invalidate(item);
 472:Middlewares/lvgl/src/extra/layouts/flex/lv_flex.c ****             }
 473:Middlewares/lvgl/src/extra/layouts/flex/lv_flex.c ****         } else {
 474:Middlewares/lvgl/src/extra/layouts/flex/lv_flex.c ****             item->w_layout = 0;
 475:Middlewares/lvgl/src/extra/layouts/flex/lv_flex.c ****             item->h_layout = 0;
 476:Middlewares/lvgl/src/extra/layouts/flex/lv_flex.c ****         }
 477:Middlewares/lvgl/src/extra/layouts/flex/lv_flex.c **** 
 478:Middlewares/lvgl/src/extra/layouts/flex/lv_flex.c ****         lv_coord_t cross_pos = 0;
 479:Middlewares/lvgl/src/extra/layouts/flex/lv_flex.c ****         switch(f->cross_place) {
 480:Middlewares/lvgl/src/extra/layouts/flex/lv_flex.c ****         case LV_FLEX_ALIGN_CENTER:
 481:Middlewares/lvgl/src/extra/layouts/flex/lv_flex.c ****             /*Round up the cross size to avoid rounding error when dividing by 2
 482:Middlewares/lvgl/src/extra/layouts/flex/lv_flex.c ****              *The issue comes up e,g, with column direction with center cross direction if an eleme
 483:Middlewares/lvgl/src/extra/layouts/flex/lv_flex.c ****             cross_pos = (((t->track_cross_size + 1) & (~1)) - area_get_cross_size(&item->coords)) /
 484:Middlewares/lvgl/src/extra/layouts/flex/lv_flex.c ****             break;
 485:Middlewares/lvgl/src/extra/layouts/flex/lv_flex.c ****         case LV_FLEX_ALIGN_END:
 486:Middlewares/lvgl/src/extra/layouts/flex/lv_flex.c ****             cross_pos = t->track_cross_size - area_get_cross_size(&item->coords);
 487:Middlewares/lvgl/src/extra/layouts/flex/lv_flex.c ****             break;
 488:Middlewares/lvgl/src/extra/layouts/flex/lv_flex.c ****         default:
 489:Middlewares/lvgl/src/extra/layouts/flex/lv_flex.c ****             break;
 490:Middlewares/lvgl/src/extra/layouts/flex/lv_flex.c ****         }
 491:Middlewares/lvgl/src/extra/layouts/flex/lv_flex.c **** 
 492:Middlewares/lvgl/src/extra/layouts/flex/lv_flex.c ****         if(f->row && rtl) main_pos -= area_get_main_size(&item->coords);
 493:Middlewares/lvgl/src/extra/layouts/flex/lv_flex.c **** 
 494:Middlewares/lvgl/src/extra/layouts/flex/lv_flex.c **** 
 495:Middlewares/lvgl/src/extra/layouts/flex/lv_flex.c ****         /*Handle percentage value of translate*/
 496:Middlewares/lvgl/src/extra/layouts/flex/lv_flex.c ****         lv_coord_t tr_x = lv_obj_get_style_translate_x(item, LV_PART_MAIN);
 497:Middlewares/lvgl/src/extra/layouts/flex/lv_flex.c ****         lv_coord_t tr_y = lv_obj_get_style_translate_y(item, LV_PART_MAIN);
 498:Middlewares/lvgl/src/extra/layouts/flex/lv_flex.c ****         lv_coord_t w = lv_obj_get_width(item);
 499:Middlewares/lvgl/src/extra/layouts/flex/lv_flex.c ****         lv_coord_t h = lv_obj_get_height(item);
 500:Middlewares/lvgl/src/extra/layouts/flex/lv_flex.c ****         if(LV_COORD_IS_PCT(tr_x)) tr_x = (w * LV_COORD_GET_PCT(tr_x)) / 100;
 501:Middlewares/lvgl/src/extra/layouts/flex/lv_flex.c ****         if(LV_COORD_IS_PCT(tr_y)) tr_y = (h * LV_COORD_GET_PCT(tr_y)) / 100;
 502:Middlewares/lvgl/src/extra/layouts/flex/lv_flex.c **** 
 503:Middlewares/lvgl/src/extra/layouts/flex/lv_flex.c ****         lv_coord_t diff_x = abs_x - item->coords.x1 + tr_x;
 504:Middlewares/lvgl/src/extra/layouts/flex/lv_flex.c ****         lv_coord_t diff_y = abs_y - item->coords.y1 + tr_y;
ARM GAS  /tmp/ccSBYUf5.s 			page 14


 505:Middlewares/lvgl/src/extra/layouts/flex/lv_flex.c ****         diff_x += f->row ? main_pos : cross_pos;
 506:Middlewares/lvgl/src/extra/layouts/flex/lv_flex.c ****         diff_y += f->row ? cross_pos : main_pos;
 507:Middlewares/lvgl/src/extra/layouts/flex/lv_flex.c **** 
 508:Middlewares/lvgl/src/extra/layouts/flex/lv_flex.c ****         if(diff_x || diff_y) {
 509:Middlewares/lvgl/src/extra/layouts/flex/lv_flex.c ****             lv_obj_invalidate(item);
 510:Middlewares/lvgl/src/extra/layouts/flex/lv_flex.c ****             item->coords.x1 += diff_x;
 511:Middlewares/lvgl/src/extra/layouts/flex/lv_flex.c ****             item->coords.x2 += diff_x;
 512:Middlewares/lvgl/src/extra/layouts/flex/lv_flex.c ****             item->coords.y1 += diff_y;
 513:Middlewares/lvgl/src/extra/layouts/flex/lv_flex.c ****             item->coords.y2 += diff_y;
 514:Middlewares/lvgl/src/extra/layouts/flex/lv_flex.c ****             lv_obj_invalidate(item);
 515:Middlewares/lvgl/src/extra/layouts/flex/lv_flex.c ****             lv_obj_move_children_by(item, diff_x, diff_y, true);
 516:Middlewares/lvgl/src/extra/layouts/flex/lv_flex.c ****         }
 517:Middlewares/lvgl/src/extra/layouts/flex/lv_flex.c **** 
 518:Middlewares/lvgl/src/extra/layouts/flex/lv_flex.c ****         if(!(f->row && rtl)) main_pos += area_get_main_size(&item->coords) + item_gap + place_gap;
 519:Middlewares/lvgl/src/extra/layouts/flex/lv_flex.c ****         else main_pos -= item_gap + place_gap;
 520:Middlewares/lvgl/src/extra/layouts/flex/lv_flex.c **** 
 521:Middlewares/lvgl/src/extra/layouts/flex/lv_flex.c ****         item = get_next_item(cont, f->rev, &item_first_id);
 522:Middlewares/lvgl/src/extra/layouts/flex/lv_flex.c ****     }
 523:Middlewares/lvgl/src/extra/layouts/flex/lv_flex.c **** }
 524:Middlewares/lvgl/src/extra/layouts/flex/lv_flex.c **** 
 525:Middlewares/lvgl/src/extra/layouts/flex/lv_flex.c **** /**
 526:Middlewares/lvgl/src/extra/layouts/flex/lv_flex.c ****  * Tell a start coordinate and gap for a placement type.
 527:Middlewares/lvgl/src/extra/layouts/flex/lv_flex.c ****  */
 528:Middlewares/lvgl/src/extra/layouts/flex/lv_flex.c **** static void place_content(lv_flex_align_t place, lv_coord_t max_size, lv_coord_t content_size, lv_c
 529:Middlewares/lvgl/src/extra/layouts/flex/lv_flex.c **** {
  97              		.loc 2 529 1 is_stmt 1 view -0
  98              		.cfi_startproc
  99              		@ args = 8, pretend = 0, frame = 0
 100              		@ frame_needed = 0, uses_anonymous_args = 0
 101              		@ link register save eliminated.
 102              		.loc 2 529 1 is_stmt 0 view .LVU17
 103 0000 10B4     		push	{r4}
 104              	.LCFI0:
 105              		.cfi_def_cfa_offset 4
 106              		.cfi_offset 4, -4
 107 0002 019C     		ldr	r4, [sp, #4]
 530:Middlewares/lvgl/src/extra/layouts/flex/lv_flex.c ****     if(item_cnt <= 1) {
 108              		.loc 2 530 5 is_stmt 1 view .LVU18
 109              		.loc 2 530 7 is_stmt 0 view .LVU19
 110 0004 012B     		cmp	r3, #1
 111 0006 07DD     		ble	.L16
 112              	.L4:
 531:Middlewares/lvgl/src/extra/layouts/flex/lv_flex.c ****         switch(place) {
 532:Middlewares/lvgl/src/extra/layouts/flex/lv_flex.c ****             case LV_FLEX_ALIGN_SPACE_BETWEEN:
 533:Middlewares/lvgl/src/extra/layouts/flex/lv_flex.c ****             case LV_FLEX_ALIGN_SPACE_AROUND:
 534:Middlewares/lvgl/src/extra/layouts/flex/lv_flex.c ****             case LV_FLEX_ALIGN_SPACE_EVENLY:
 535:Middlewares/lvgl/src/extra/layouts/flex/lv_flex.c ****                 place = LV_FLEX_ALIGN_CENTER;
 536:Middlewares/lvgl/src/extra/layouts/flex/lv_flex.c ****                 break;
 537:Middlewares/lvgl/src/extra/layouts/flex/lv_flex.c ****             default:
 538:Middlewares/lvgl/src/extra/layouts/flex/lv_flex.c ****                 break;
 539:Middlewares/lvgl/src/extra/layouts/flex/lv_flex.c ****         }
 540:Middlewares/lvgl/src/extra/layouts/flex/lv_flex.c ****     }
 541:Middlewares/lvgl/src/extra/layouts/flex/lv_flex.c **** 
 542:Middlewares/lvgl/src/extra/layouts/flex/lv_flex.c ****     switch(place) {
 113              		.loc 2 542 5 is_stmt 1 view .LVU20
 114 0008 0138     		subs	r0, r0, #1
 115              	.LVL7:
ARM GAS  /tmp/ccSBYUf5.s 			page 15


 116              		.loc 2 542 5 is_stmt 0 view .LVU21
 117 000a 0428     		cmp	r0, #4
 118 000c 4BD8     		bhi	.L6
 119 000e DFE800F0 		tbb	[pc, r0]
 120              	.L8:
 121 0012 16       		.byte	(.L11-.L8)/2
 122 0013 08       		.byte	(.L5-.L8)/2
 123 0014 3C       		.byte	(.L10-.L8)/2
 124 0015 28       		.byte	(.L9-.L8)/2
 125 0016 1F       		.byte	(.L7-.L8)/2
 126              	.LVL8:
 127 0017 00       		.p2align 1
 128              	.L16:
 531:Middlewares/lvgl/src/extra/layouts/flex/lv_flex.c ****         switch(place) {
 129              		.loc 2 531 9 is_stmt 1 view .LVU22
 130 0018 A0F1030C 		sub	ip, r0, #3
 131 001c BCF1020F 		cmp	ip, #2
 132 0020 F2D8     		bhi	.L4
 133              	.LVL9:
 134              	.L5:
 543:Middlewares/lvgl/src/extra/layouts/flex/lv_flex.c ****     case LV_FLEX_ALIGN_CENTER:
 544:Middlewares/lvgl/src/extra/layouts/flex/lv_flex.c ****         *gap = 0;
 135              		.loc 2 544 9 view .LVU23
 136              		.loc 2 544 14 is_stmt 0 view .LVU24
 137 0022 0023     		movs	r3, #0
 138              	.LVL10:
 139              		.loc 2 544 14 view .LVU25
 140 0024 0298     		ldr	r0, [sp, #8]
 141 0026 0380     		strh	r3, [r0]	@ movhi
 545:Middlewares/lvgl/src/extra/layouts/flex/lv_flex.c ****         *start_pos += (max_size - content_size) / 2;
 142              		.loc 2 545 9 is_stmt 1 view .LVU26
 143              		.loc 2 545 49 is_stmt 0 view .LVU27
 144 0028 891A     		subs	r1, r1, r2
 145              	.LVL11:
 146              		.loc 2 545 49 view .LVU28
 147 002a 06D4     		bmi	.L17
 148              	.L12:
 149              		.loc 2 545 20 view .LVU29
 150 002c 2288     		ldrh	r2, [r4]
 151              	.LVL12:
 152              		.loc 2 545 20 view .LVU30
 153 002e 02EB6101 		add	r1, r2, r1, asr #1
 154 0032 2180     		strh	r1, [r4]	@ movhi
 546:Middlewares/lvgl/src/extra/layouts/flex/lv_flex.c ****         break;
 155              		.loc 2 546 9 is_stmt 1 view .LVU31
 156              	.L3:
 547:Middlewares/lvgl/src/extra/layouts/flex/lv_flex.c ****     case LV_FLEX_ALIGN_END:
 548:Middlewares/lvgl/src/extra/layouts/flex/lv_flex.c ****         *gap = 0;
 549:Middlewares/lvgl/src/extra/layouts/flex/lv_flex.c ****         *start_pos += max_size - content_size;
 550:Middlewares/lvgl/src/extra/layouts/flex/lv_flex.c ****         break;
 551:Middlewares/lvgl/src/extra/layouts/flex/lv_flex.c ****     case LV_FLEX_ALIGN_SPACE_BETWEEN:
 552:Middlewares/lvgl/src/extra/layouts/flex/lv_flex.c ****        *gap = (lv_coord_t)(max_size - content_size) / (lv_coord_t)(item_cnt - 1);
 553:Middlewares/lvgl/src/extra/layouts/flex/lv_flex.c ****        break;
 554:Middlewares/lvgl/src/extra/layouts/flex/lv_flex.c ****    case LV_FLEX_ALIGN_SPACE_AROUND:
 555:Middlewares/lvgl/src/extra/layouts/flex/lv_flex.c ****        *gap += (lv_coord_t)(max_size - content_size) / (lv_coord_t)(item_cnt);
 556:Middlewares/lvgl/src/extra/layouts/flex/lv_flex.c ****        *start_pos += *gap / 2;
 557:Middlewares/lvgl/src/extra/layouts/flex/lv_flex.c ****        break;
ARM GAS  /tmp/ccSBYUf5.s 			page 16


 558:Middlewares/lvgl/src/extra/layouts/flex/lv_flex.c ****    case LV_FLEX_ALIGN_SPACE_EVENLY:
 559:Middlewares/lvgl/src/extra/layouts/flex/lv_flex.c ****        *gap = (lv_coord_t)(max_size - content_size) / (lv_coord_t)(item_cnt + 1);
 560:Middlewares/lvgl/src/extra/layouts/flex/lv_flex.c ****        *start_pos += *gap;
 561:Middlewares/lvgl/src/extra/layouts/flex/lv_flex.c ****        break;
 562:Middlewares/lvgl/src/extra/layouts/flex/lv_flex.c ****    default:
 563:Middlewares/lvgl/src/extra/layouts/flex/lv_flex.c ****        *gap = 0;
 564:Middlewares/lvgl/src/extra/layouts/flex/lv_flex.c ****     }
 565:Middlewares/lvgl/src/extra/layouts/flex/lv_flex.c **** }
 157              		.loc 2 565 1 is_stmt 0 view .LVU32
 158 0034 5DF8044B 		ldr	r4, [sp], #4
 159              	.LCFI1:
 160              		.cfi_remember_state
 161              		.cfi_restore 4
 162              		.cfi_def_cfa_offset 0
 163              	.LVL13:
 164              		.loc 2 565 1 view .LVU33
 165 0038 7047     		bx	lr
 166              	.LVL14:
 167              	.L17:
 168              	.LCFI2:
 169              		.cfi_restore_state
 545:Middlewares/lvgl/src/extra/layouts/flex/lv_flex.c ****         break;
 170              		.loc 2 545 49 view .LVU34
 171 003a 0131     		adds	r1, r1, #1
 172 003c F6E7     		b	.L12
 173              	.LVL15:
 174              	.L11:
 548:Middlewares/lvgl/src/extra/layouts/flex/lv_flex.c ****         *start_pos += max_size - content_size;
 175              		.loc 2 548 9 is_stmt 1 view .LVU35
 548:Middlewares/lvgl/src/extra/layouts/flex/lv_flex.c ****         *start_pos += max_size - content_size;
 176              		.loc 2 548 14 is_stmt 0 view .LVU36
 177 003e 0023     		movs	r3, #0
 178              	.LVL16:
 548:Middlewares/lvgl/src/extra/layouts/flex/lv_flex.c ****         *start_pos += max_size - content_size;
 179              		.loc 2 548 14 view .LVU37
 180 0040 0298     		ldr	r0, [sp, #8]
 181 0042 0380     		strh	r3, [r0]	@ movhi
 549:Middlewares/lvgl/src/extra/layouts/flex/lv_flex.c ****         break;
 182              		.loc 2 549 9 is_stmt 1 view .LVU38
 549:Middlewares/lvgl/src/extra/layouts/flex/lv_flex.c ****         break;
 183              		.loc 2 549 32 is_stmt 0 view .LVU39
 184 0044 891A     		subs	r1, r1, r2
 185              	.LVL17:
 549:Middlewares/lvgl/src/extra/layouts/flex/lv_flex.c ****         break;
 186              		.loc 2 549 20 view .LVU40
 187 0046 2388     		ldrh	r3, [r4]
 188 0048 13FA81F1 		uxtah	r1, r3, r1
 189 004c 2180     		strh	r1, [r4]	@ movhi
 550:Middlewares/lvgl/src/extra/layouts/flex/lv_flex.c ****     case LV_FLEX_ALIGN_SPACE_BETWEEN:
 190              		.loc 2 550 9 is_stmt 1 view .LVU41
 191 004e F1E7     		b	.L3
 192              	.LVL18:
 193              	.L7:
 552:Middlewares/lvgl/src/extra/layouts/flex/lv_flex.c ****        break;
 194              		.loc 2 552 8 view .LVU42
 552:Middlewares/lvgl/src/extra/layouts/flex/lv_flex.c ****        break;
 195              		.loc 2 552 37 is_stmt 0 view .LVU43
ARM GAS  /tmp/ccSBYUf5.s 			page 17


 196 0050 891A     		subs	r1, r1, r2
 197              	.LVL19:
 552:Middlewares/lvgl/src/extra/layouts/flex/lv_flex.c ****        break;
 198              		.loc 2 552 15 view .LVU44
 199 0052 09B2     		sxth	r1, r1
 552:Middlewares/lvgl/src/extra/layouts/flex/lv_flex.c ****        break;
 200              		.loc 2 552 77 view .LVU45
 201 0054 013B     		subs	r3, r3, #1
 202              	.LVL20:
 552:Middlewares/lvgl/src/extra/layouts/flex/lv_flex.c ****        break;
 203              		.loc 2 552 55 view .LVU46
 204 0056 1BB2     		sxth	r3, r3
 552:Middlewares/lvgl/src/extra/layouts/flex/lv_flex.c ****        break;
 205              		.loc 2 552 53 view .LVU47
 206 0058 91FBF3F1 		sdiv	r1, r1, r3
 552:Middlewares/lvgl/src/extra/layouts/flex/lv_flex.c ****        break;
 207              		.loc 2 552 13 view .LVU48
 208 005c 029B     		ldr	r3, [sp, #8]
 209 005e 1980     		strh	r1, [r3]	@ movhi
 553:Middlewares/lvgl/src/extra/layouts/flex/lv_flex.c ****    case LV_FLEX_ALIGN_SPACE_AROUND:
 210              		.loc 2 553 8 is_stmt 1 view .LVU49
 211 0060 E8E7     		b	.L3
 212              	.LVL21:
 213              	.L9:
 555:Middlewares/lvgl/src/extra/layouts/flex/lv_flex.c ****        *start_pos += *gap / 2;
 214              		.loc 2 555 8 view .LVU50
 555:Middlewares/lvgl/src/extra/layouts/flex/lv_flex.c ****        *start_pos += *gap / 2;
 215              		.loc 2 555 38 is_stmt 0 view .LVU51
 216 0062 891A     		subs	r1, r1, r2
 217              	.LVL22:
 555:Middlewares/lvgl/src/extra/layouts/flex/lv_flex.c ****        *start_pos += *gap / 2;
 218              		.loc 2 555 16 view .LVU52
 219 0064 09B2     		sxth	r1, r1
 555:Middlewares/lvgl/src/extra/layouts/flex/lv_flex.c ****        *start_pos += *gap / 2;
 220              		.loc 2 555 54 view .LVU53
 221 0066 91FBF3F3 		sdiv	r3, r1, r3
 222              	.LVL23:
 555:Middlewares/lvgl/src/extra/layouts/flex/lv_flex.c ****        *start_pos += *gap / 2;
 223              		.loc 2 555 13 view .LVU54
 224 006a 029A     		ldr	r2, [sp, #8]
 225              	.LVL24:
 555:Middlewares/lvgl/src/extra/layouts/flex/lv_flex.c ****        *start_pos += *gap / 2;
 226              		.loc 2 555 13 view .LVU55
 227 006c 1288     		ldrh	r2, [r2]
 228 006e 1344     		add	r3, r3, r2
 229 0070 1BB2     		sxth	r3, r3
 230 0072 029A     		ldr	r2, [sp, #8]
 231 0074 1380     		strh	r3, [r2]	@ movhi
 556:Middlewares/lvgl/src/extra/layouts/flex/lv_flex.c ****        break;
 232              		.loc 2 556 8 is_stmt 1 view .LVU56
 556:Middlewares/lvgl/src/extra/layouts/flex/lv_flex.c ****        break;
 233              		.loc 2 556 19 is_stmt 0 view .LVU57
 234 0076 1A46     		mov	r2, r3
 235 0078 002B     		cmp	r3, #0
 236 007a 04DB     		blt	.L18
 237              	.L14:
 556:Middlewares/lvgl/src/extra/layouts/flex/lv_flex.c ****        break;
ARM GAS  /tmp/ccSBYUf5.s 			page 18


 238              		.loc 2 556 19 view .LVU58
 239 007c 2388     		ldrh	r3, [r4]
 240 007e 03EB6203 		add	r3, r3, r2, asr #1
 241 0082 2380     		strh	r3, [r4]	@ movhi
 557:Middlewares/lvgl/src/extra/layouts/flex/lv_flex.c ****    case LV_FLEX_ALIGN_SPACE_EVENLY:
 242              		.loc 2 557 8 is_stmt 1 view .LVU59
 243 0084 D6E7     		b	.L3
 244              	.L18:
 556:Middlewares/lvgl/src/extra/layouts/flex/lv_flex.c ****        break;
 245              		.loc 2 556 19 is_stmt 0 view .LVU60
 246 0086 5A1C     		adds	r2, r3, #1
 247 0088 F8E7     		b	.L14
 248              	.LVL25:
 249              	.L10:
 559:Middlewares/lvgl/src/extra/layouts/flex/lv_flex.c ****        *start_pos += *gap;
 250              		.loc 2 559 8 is_stmt 1 view .LVU61
 559:Middlewares/lvgl/src/extra/layouts/flex/lv_flex.c ****        *start_pos += *gap;
 251              		.loc 2 559 37 is_stmt 0 view .LVU62
 252 008a 891A     		subs	r1, r1, r2
 253              	.LVL26:
 559:Middlewares/lvgl/src/extra/layouts/flex/lv_flex.c ****        *start_pos += *gap;
 254              		.loc 2 559 15 view .LVU63
 255 008c 09B2     		sxth	r1, r1
 559:Middlewares/lvgl/src/extra/layouts/flex/lv_flex.c ****        *start_pos += *gap;
 256              		.loc 2 559 77 view .LVU64
 257 008e 0133     		adds	r3, r3, #1
 258              	.LVL27:
 559:Middlewares/lvgl/src/extra/layouts/flex/lv_flex.c ****        *start_pos += *gap;
 259              		.loc 2 559 55 view .LVU65
 260 0090 1BB2     		sxth	r3, r3
 559:Middlewares/lvgl/src/extra/layouts/flex/lv_flex.c ****        *start_pos += *gap;
 261              		.loc 2 559 53 view .LVU66
 262 0092 91FBF3F3 		sdiv	r3, r1, r3
 559:Middlewares/lvgl/src/extra/layouts/flex/lv_flex.c ****        *start_pos += *gap;
 263              		.loc 2 559 13 view .LVU67
 264 0096 1BB2     		sxth	r3, r3
 265 0098 029A     		ldr	r2, [sp, #8]
 266              	.LVL28:
 559:Middlewares/lvgl/src/extra/layouts/flex/lv_flex.c ****        *start_pos += *gap;
 267              		.loc 2 559 13 view .LVU68
 268 009a 1380     		strh	r3, [r2]	@ movhi
 560:Middlewares/lvgl/src/extra/layouts/flex/lv_flex.c ****        break;
 269              		.loc 2 560 8 is_stmt 1 view .LVU69
 560:Middlewares/lvgl/src/extra/layouts/flex/lv_flex.c ****        break;
 270              		.loc 2 560 19 is_stmt 0 view .LVU70
 271 009c 2288     		ldrh	r2, [r4]
 272 009e 12FA83F3 		uxtah	r3, r2, r3
 273 00a2 2380     		strh	r3, [r4]	@ movhi
 561:Middlewares/lvgl/src/extra/layouts/flex/lv_flex.c ****    default:
 274              		.loc 2 561 8 is_stmt 1 view .LVU71
 275 00a4 C6E7     		b	.L3
 276              	.LVL29:
 277              	.L6:
 563:Middlewares/lvgl/src/extra/layouts/flex/lv_flex.c ****     }
 278              		.loc 2 563 8 view .LVU72
 563:Middlewares/lvgl/src/extra/layouts/flex/lv_flex.c ****     }
 279              		.loc 2 563 13 is_stmt 0 view .LVU73
ARM GAS  /tmp/ccSBYUf5.s 			page 19


 280 00a6 0023     		movs	r3, #0
 281              	.LVL30:
 563:Middlewares/lvgl/src/extra/layouts/flex/lv_flex.c ****     }
 282              		.loc 2 563 13 view .LVU74
 283 00a8 029A     		ldr	r2, [sp, #8]
 284              	.LVL31:
 563:Middlewares/lvgl/src/extra/layouts/flex/lv_flex.c ****     }
 285              		.loc 2 563 13 view .LVU75
 286 00aa 1380     		strh	r3, [r2]	@ movhi
 287              		.loc 2 565 1 view .LVU76
 288 00ac C2E7     		b	.L3
 289              		.cfi_endproc
 290              	.LFE180:
 292              		.section	.text.get_next_item,"ax",%progbits
 293              		.align	1
 294              		.syntax unified
 295              		.thumb
 296              		.thumb_func
 298              	get_next_item:
 299              	.LVL32:
 300              	.LFB181:
 566:Middlewares/lvgl/src/extra/layouts/flex/lv_flex.c **** 
 567:Middlewares/lvgl/src/extra/layouts/flex/lv_flex.c **** static lv_obj_t * get_next_item(lv_obj_t * cont, bool rev, int32_t * item_id)
 568:Middlewares/lvgl/src/extra/layouts/flex/lv_flex.c **** {
 301              		.loc 2 568 1 is_stmt 1 view -0
 302              		.cfi_startproc
 303              		@ args = 0, pretend = 0, frame = 0
 304              		@ frame_needed = 0, uses_anonymous_args = 0
 305              		@ link register save eliminated.
 569:Middlewares/lvgl/src/extra/layouts/flex/lv_flex.c ****     if(rev) {
 306              		.loc 2 569 5 view .LVU78
 307              		.loc 2 569 7 is_stmt 0 view .LVU79
 308 0000 49B1     		cbz	r1, .L20
 570:Middlewares/lvgl/src/extra/layouts/flex/lv_flex.c ****         (*item_id)--;
 309              		.loc 2 570 9 is_stmt 1 view .LVU80
 310              		.loc 2 570 10 is_stmt 0 view .LVU81
 311 0002 1368     		ldr	r3, [r2]
 312              		.loc 2 570 19 view .LVU82
 313 0004 013B     		subs	r3, r3, #1
 314 0006 1360     		str	r3, [r2]
 571:Middlewares/lvgl/src/extra/layouts/flex/lv_flex.c ****         if(*item_id >= 0) return cont->spec_attr->children[*item_id];
 315              		.loc 2 571 9 is_stmt 1 view .LVU83
 316              		.loc 2 571 11 is_stmt 0 view .LVU84
 317 0008 002B     		cmp	r3, #0
 318 000a 0FDB     		blt	.L22
 319              		.loc 2 571 27 is_stmt 1 discriminator 1 view .LVU85
 320              		.loc 2 571 38 is_stmt 0 discriminator 1 view .LVU86
 321 000c 8268     		ldr	r2, [r0, #8]
 322              	.LVL33:
 323              		.loc 2 571 49 discriminator 1 view .LVU87
 324 000e 1268     		ldr	r2, [r2]
 325              		.loc 2 571 59 discriminator 1 view .LVU88
 326 0010 52F82300 		ldr	r0, [r2, r3, lsl #2]
 327              	.LVL34:
 328              		.loc 2 571 59 discriminator 1 view .LVU89
 329 0014 7047     		bx	lr
 330              	.LVL35:
ARM GAS  /tmp/ccSBYUf5.s 			page 20


 331              	.L20:
 572:Middlewares/lvgl/src/extra/layouts/flex/lv_flex.c ****         else return NULL;
 573:Middlewares/lvgl/src/extra/layouts/flex/lv_flex.c ****     } else {
 574:Middlewares/lvgl/src/extra/layouts/flex/lv_flex.c ****         (*item_id)++;
 332              		.loc 2 574 9 is_stmt 1 view .LVU90
 333              		.loc 2 574 10 is_stmt 0 view .LVU91
 334 0016 1368     		ldr	r3, [r2]
 335              		.loc 2 574 19 view .LVU92
 336 0018 0133     		adds	r3, r3, #1
 337 001a 1360     		str	r3, [r2]
 575:Middlewares/lvgl/src/extra/layouts/flex/lv_flex.c ****         if((*item_id) < (int32_t)cont->spec_attr->child_cnt) return cont->spec_attr->children[*item
 338              		.loc 2 575 9 is_stmt 1 view .LVU93
 339              		.loc 2 575 38 is_stmt 0 view .LVU94
 340 001c 8268     		ldr	r2, [r0, #8]
 341              	.LVL36:
 342              		.loc 2 575 49 view .LVU95
 343 001e 5168     		ldr	r1, [r2, #4]
 344              	.LVL37:
 345              		.loc 2 575 11 view .LVU96
 346 0020 8B42     		cmp	r3, r1
 347 0022 05DA     		bge	.L23
 348              		.loc 2 575 62 is_stmt 1 discriminator 1 view .LVU97
 349              		.loc 2 575 84 is_stmt 0 discriminator 1 view .LVU98
 350 0024 1268     		ldr	r2, [r2]
 351              		.loc 2 575 94 discriminator 1 view .LVU99
 352 0026 52F82300 		ldr	r0, [r2, r3, lsl #2]
 353              	.LVL38:
 354              		.loc 2 575 94 discriminator 1 view .LVU100
 355 002a 7047     		bx	lr
 356              	.LVL39:
 357              	.L22:
 572:Middlewares/lvgl/src/extra/layouts/flex/lv_flex.c ****         else return NULL;
 358              		.loc 2 572 21 view .LVU101
 359 002c 0020     		movs	r0, #0
 360              	.LVL40:
 572:Middlewares/lvgl/src/extra/layouts/flex/lv_flex.c ****         else return NULL;
 361              		.loc 2 572 21 view .LVU102
 362 002e 7047     		bx	lr
 363              	.LVL41:
 364              	.L23:
 576:Middlewares/lvgl/src/extra/layouts/flex/lv_flex.c ****         else return NULL;
 365              		.loc 2 576 21 view .LVU103
 366 0030 0020     		movs	r0, #0
 367              	.LVL42:
 577:Middlewares/lvgl/src/extra/layouts/flex/lv_flex.c ****     }
 578:Middlewares/lvgl/src/extra/layouts/flex/lv_flex.c **** }
 368              		.loc 2 578 1 view .LVU104
 369 0032 7047     		bx	lr
 370              		.cfi_endproc
 371              	.LFE181:
 373              		.section	.text.find_track_end,"ax",%progbits
 374              		.align	1
 375              		.syntax unified
 376              		.thumb
 377              		.thumb_func
 379              	find_track_end:
 380              	.LVL43:
ARM GAS  /tmp/ccSBYUf5.s 			page 21


 381              	.LFB178:
 310:Middlewares/lvgl/src/extra/layouts/flex/lv_flex.c ****     lv_coord_t w_set = lv_obj_get_style_width(cont, LV_PART_MAIN);
 382              		.loc 2 310 1 is_stmt 1 view -0
 383              		.cfi_startproc
 384              		@ args = 8, pretend = 0, frame = 24
 385              		@ frame_needed = 0, uses_anonymous_args = 0
 310:Middlewares/lvgl/src/extra/layouts/flex/lv_flex.c ****     lv_coord_t w_set = lv_obj_get_style_width(cont, LV_PART_MAIN);
 386              		.loc 2 310 1 is_stmt 0 view .LVU106
 387 0000 2DE9F04F 		push	{r4, r5, r6, r7, r8, r9, r10, fp, lr}
 388              	.LCFI3:
 389              		.cfi_def_cfa_offset 36
 390              		.cfi_offset 4, -36
 391              		.cfi_offset 5, -32
 392              		.cfi_offset 6, -28
 393              		.cfi_offset 7, -24
 394              		.cfi_offset 8, -20
 395              		.cfi_offset 9, -16
 396              		.cfi_offset 10, -12
 397              		.cfi_offset 11, -8
 398              		.cfi_offset 14, -4
 399 0004 87B0     		sub	sp, sp, #28
 400              	.LCFI4:
 401              		.cfi_def_cfa_offset 64
 402 0006 8146     		mov	r9, r0
 403 0008 0E46     		mov	r6, r1
 404 000a 9046     		mov	r8, r2
 405 000c 0393     		str	r3, [sp, #12]
 406 000e BDF940B0 		ldrsh	fp, [sp, #64]
 407 0012 119D     		ldr	r5, [sp, #68]
 311:Middlewares/lvgl/src/extra/layouts/flex/lv_flex.c ****     lv_coord_t h_set = lv_obj_get_style_height(cont, LV_PART_MAIN);
 408              		.loc 2 311 5 is_stmt 1 view .LVU107
 409              	.LVL44:
 410              	.LBB64:
 411              	.LBI64:
 412              		.file 3 "Middlewares/lvgl/src/extra/layouts/flex/../flex/../../../core/lv_obj_style_gen.h"
   1:Middlewares/lvgl/src/extra/layouts/flex/../flex/../../../core/lv_obj_style_gen.h **** static inline lv_coord_t lv_obj_get_style_width(const struct _lv_obj_t * obj, uint32_t part)
 413              		.loc 3 1 26 view .LVU108
 414              	.LBB65:
   2:Middlewares/lvgl/src/extra/layouts/flex/../flex/../../../core/lv_obj_style_gen.h **** {
   3:Middlewares/lvgl/src/extra/layouts/flex/../flex/../../../core/lv_obj_style_gen.h ****     lv_style_value_t v = lv_obj_get_style_prop(obj, part, LV_STYLE_WIDTH);
 415              		.loc 3 3 5 view .LVU109
 416              		.loc 3 3 26 is_stmt 0 view .LVU110
 417 0014 41F20102 		movw	r2, #4097
 418              	.LVL45:
 419              		.loc 3 3 26 view .LVU111
 420 0018 0021     		movs	r1, #0
 421              	.LVL46:
 422              		.loc 3 3 26 view .LVU112
 423 001a FFF7FEFF 		bl	lv_obj_get_style_prop
 424              	.LVL47:
   4:Middlewares/lvgl/src/extra/layouts/flex/../flex/../../../core/lv_obj_style_gen.h ****     return (lv_coord_t)v.num;
 425              		.loc 3 4 5 is_stmt 1 view .LVU113
 426              		.loc 3 4 12 is_stmt 0 view .LVU114
 427 001e 04B2     		sxth	r4, r0
 428              	.LVL48:
 429              		.loc 3 4 12 view .LVU115
 430              	.LBE65:
ARM GAS  /tmp/ccSBYUf5.s 			page 22


 431              	.LBE64:
 312:Middlewares/lvgl/src/extra/layouts/flex/lv_flex.c **** 
 432              		.loc 2 312 5 is_stmt 1 view .LVU116
 433              	.LBB66:
 434              	.LBI66:
   5:Middlewares/lvgl/src/extra/layouts/flex/../flex/../../../core/lv_obj_style_gen.h **** }
   6:Middlewares/lvgl/src/extra/layouts/flex/../flex/../../../core/lv_obj_style_gen.h **** 
   7:Middlewares/lvgl/src/extra/layouts/flex/../flex/../../../core/lv_obj_style_gen.h **** static inline lv_coord_t lv_obj_get_style_min_width(const struct _lv_obj_t * obj, uint32_t part)
   8:Middlewares/lvgl/src/extra/layouts/flex/../flex/../../../core/lv_obj_style_gen.h **** {
   9:Middlewares/lvgl/src/extra/layouts/flex/../flex/../../../core/lv_obj_style_gen.h ****     lv_style_value_t v = lv_obj_get_style_prop(obj, part, LV_STYLE_MIN_WIDTH);
  10:Middlewares/lvgl/src/extra/layouts/flex/../flex/../../../core/lv_obj_style_gen.h ****     return (lv_coord_t)v.num;
  11:Middlewares/lvgl/src/extra/layouts/flex/../flex/../../../core/lv_obj_style_gen.h **** }
  12:Middlewares/lvgl/src/extra/layouts/flex/../flex/../../../core/lv_obj_style_gen.h **** 
  13:Middlewares/lvgl/src/extra/layouts/flex/../flex/../../../core/lv_obj_style_gen.h **** static inline lv_coord_t lv_obj_get_style_max_width(const struct _lv_obj_t * obj, uint32_t part)
  14:Middlewares/lvgl/src/extra/layouts/flex/../flex/../../../core/lv_obj_style_gen.h **** {
  15:Middlewares/lvgl/src/extra/layouts/flex/../flex/../../../core/lv_obj_style_gen.h ****     lv_style_value_t v = lv_obj_get_style_prop(obj, part, LV_STYLE_MAX_WIDTH);
  16:Middlewares/lvgl/src/extra/layouts/flex/../flex/../../../core/lv_obj_style_gen.h ****     return (lv_coord_t)v.num;
  17:Middlewares/lvgl/src/extra/layouts/flex/../flex/../../../core/lv_obj_style_gen.h **** }
  18:Middlewares/lvgl/src/extra/layouts/flex/../flex/../../../core/lv_obj_style_gen.h **** 
  19:Middlewares/lvgl/src/extra/layouts/flex/../flex/../../../core/lv_obj_style_gen.h **** static inline lv_coord_t lv_obj_get_style_height(const struct _lv_obj_t * obj, uint32_t part)
 435              		.loc 3 19 26 view .LVU117
 436              	.LBB67:
  20:Middlewares/lvgl/src/extra/layouts/flex/../flex/../../../core/lv_obj_style_gen.h **** {
  21:Middlewares/lvgl/src/extra/layouts/flex/../flex/../../../core/lv_obj_style_gen.h ****     lv_style_value_t v = lv_obj_get_style_prop(obj, part, LV_STYLE_HEIGHT);
 437              		.loc 3 21 5 view .LVU118
 438              		.loc 3 21 26 is_stmt 0 view .LVU119
 439 0020 41F20402 		movw	r2, #4100
 440 0024 0021     		movs	r1, #0
 441 0026 4846     		mov	r0, r9
 442 0028 FFF7FEFF 		bl	lv_obj_get_style_prop
 443              	.LVL49:
  22:Middlewares/lvgl/src/extra/layouts/flex/../flex/../../../core/lv_obj_style_gen.h ****     return (lv_coord_t)v.num;
 444              		.loc 3 22 5 is_stmt 1 view .LVU120
 445              		.loc 3 22 5 is_stmt 0 view .LVU121
 446              	.LBE67:
 447              	.LBE66:
 315:Middlewares/lvgl/src/extra/layouts/flex/lv_flex.c ****         f->wrap = false;
 448              		.loc 2 315 5 is_stmt 1 view .LVU122
 315:Middlewares/lvgl/src/extra/layouts/flex/lv_flex.c ****         f->wrap = false;
 449              		.loc 2 315 8 is_stmt 0 view .LVU123
 450 002c F378     		ldrb	r3, [r6, #3]	@ zero_extendqisi2
 315:Middlewares/lvgl/src/extra/layouts/flex/lv_flex.c ****         f->wrap = false;
 451              		.loc 2 315 7 view .LVU124
 452 002e 13F0020F 		tst	r3, #2
 453 0032 10D0     		beq	.L25
 454 0034 00B2     		sxth	r0, r0
 315:Middlewares/lvgl/src/extra/layouts/flex/lv_flex.c ****         f->wrap = false;
 455              		.loc 2 315 16 discriminator 1 view .LVU125
 456 0036 13F00103 		ands	r3, r3, #1
 457 003a 03D0     		beq	.L26
 315:Middlewares/lvgl/src/extra/layouts/flex/lv_flex.c ****         f->wrap = false;
 458              		.loc 2 315 28 discriminator 2 view .LVU126
 459 003c 42F2D172 		movw	r2, #10193
 460 0040 9442     		cmp	r4, r2
 461 0042 04D0     		beq	.L27
 462              	.L26:
 315:Middlewares/lvgl/src/extra/layouts/flex/lv_flex.c ****         f->wrap = false;
ARM GAS  /tmp/ccSBYUf5.s 			page 23


 463              		.loc 2 315 57 discriminator 4 view .LVU127
 464 0044 3BB9     		cbnz	r3, .L25
 315:Middlewares/lvgl/src/extra/layouts/flex/lv_flex.c ****         f->wrap = false;
 465              		.loc 2 315 69 discriminator 5 view .LVU128
 466 0046 42F2D173 		movw	r3, #10193
 467 004a 9842     		cmp	r0, r3
 468 004c 03D1     		bne	.L25
 469              	.L27:
 316:Middlewares/lvgl/src/extra/layouts/flex/lv_flex.c ****     }
 470              		.loc 2 316 9 is_stmt 1 view .LVU129
 316:Middlewares/lvgl/src/extra/layouts/flex/lv_flex.c ****     }
 471              		.loc 2 316 17 is_stmt 0 view .LVU130
 472 004e F378     		ldrb	r3, [r6, #3]	@ zero_extendqisi2
 473 0050 6FF34103 		bfc	r3, #1, #1
 474 0054 F370     		strb	r3, [r6, #3]
 475              	.LVL50:
 476              	.L25:
 318:Middlewares/lvgl/src/extra/layouts/flex/lv_flex.c ****     lv_coord_t(*get_cross_size)(const lv_obj_t *) = (!f->row ? lv_obj_get_width : lv_obj_get_height
 477              		.loc 2 318 5 is_stmt 1 view .LVU131
 318:Middlewares/lvgl/src/extra/layouts/flex/lv_flex.c ****     lv_coord_t(*get_cross_size)(const lv_obj_t *) = (!f->row ? lv_obj_get_width : lv_obj_get_height
 478              		.loc 2 318 60 is_stmt 0 view .LVU132
 479 0056 F378     		ldrb	r3, [r6, #3]	@ zero_extendqisi2
 318:Middlewares/lvgl/src/extra/layouts/flex/lv_flex.c ****     lv_coord_t(*get_cross_size)(const lv_obj_t *) = (!f->row ? lv_obj_get_width : lv_obj_get_height
 480              		.loc 2 318 17 view .LVU133
 481 0058 13F00103 		ands	r3, r3, #1
 482 005c 13D0     		beq	.L50
 483 005e 844A     		ldr	r2, .L56
 484 0060 0192     		str	r2, [sp, #4]
 485              	.L28:
 486              	.LVL51:
 319:Middlewares/lvgl/src/extra/layouts/flex/lv_flex.c **** 
 487              		.loc 2 319 5 is_stmt 1 discriminator 4 view .LVU134
 319:Middlewares/lvgl/src/extra/layouts/flex/lv_flex.c **** 
 488              		.loc 2 319 17 is_stmt 0 discriminator 4 view .LVU135
 489 0062 9BB9     		cbnz	r3, .L51
 319:Middlewares/lvgl/src/extra/layouts/flex/lv_flex.c **** 
 490              		.loc 2 319 17 view .LVU136
 491 0064 DFF808A2 		ldr	r10, .L56
 492              	.L29:
 493              	.LVL52:
 321:Middlewares/lvgl/src/extra/layouts/flex/lv_flex.c ****     t->track_main_size = 0;
 494              		.loc 2 321 5 is_stmt 1 discriminator 4 view .LVU137
 322:Middlewares/lvgl/src/extra/layouts/flex/lv_flex.c ****     t->track_fix_main_size = 0;
 495              		.loc 2 322 5 discriminator 4 view .LVU138
 322:Middlewares/lvgl/src/extra/layouts/flex/lv_flex.c ****     t->track_fix_main_size = 0;
 496              		.loc 2 322 24 is_stmt 0 discriminator 4 view .LVU139
 497 0068 0023     		movs	r3, #0
 498 006a 6B80     		strh	r3, [r5, #2]	@ movhi
 323:Middlewares/lvgl/src/extra/layouts/flex/lv_flex.c ****     t->grow_item_cnt = 0;
 499              		.loc 2 323 5 is_stmt 1 discriminator 4 view .LVU140
 323:Middlewares/lvgl/src/extra/layouts/flex/lv_flex.c ****     t->grow_item_cnt = 0;
 500              		.loc 2 323 28 is_stmt 0 discriminator 4 view .LVU141
 501 006c AB80     		strh	r3, [r5, #4]	@ movhi
 324:Middlewares/lvgl/src/extra/layouts/flex/lv_flex.c ****     t->track_cross_size = 0;
 502              		.loc 2 324 5 is_stmt 1 discriminator 4 view .LVU142
 324:Middlewares/lvgl/src/extra/layouts/flex/lv_flex.c ****     t->track_cross_size = 0;
 503              		.loc 2 324 22 is_stmt 0 discriminator 4 view .LVU143
ARM GAS  /tmp/ccSBYUf5.s 			page 24


 504 006e 2B61     		str	r3, [r5, #16]
 325:Middlewares/lvgl/src/extra/layouts/flex/lv_flex.c ****     t->item_cnt = 0;
 505              		.loc 2 325 5 is_stmt 1 discriminator 4 view .LVU144
 325:Middlewares/lvgl/src/extra/layouts/flex/lv_flex.c ****     t->item_cnt = 0;
 506              		.loc 2 325 25 is_stmt 0 discriminator 4 view .LVU145
 507 0070 2B80     		strh	r3, [r5]	@ movhi
 326:Middlewares/lvgl/src/extra/layouts/flex/lv_flex.c ****     t->grow_dsc = NULL;
 508              		.loc 2 326 5 is_stmt 1 discriminator 4 view .LVU146
 326:Middlewares/lvgl/src/extra/layouts/flex/lv_flex.c ****     t->grow_dsc = NULL;
 509              		.loc 2 326 17 is_stmt 0 discriminator 4 view .LVU147
 510 0072 AB60     		str	r3, [r5, #8]
 327:Middlewares/lvgl/src/extra/layouts/flex/lv_flex.c **** 
 511              		.loc 2 327 5 is_stmt 1 discriminator 4 view .LVU148
 327:Middlewares/lvgl/src/extra/layouts/flex/lv_flex.c **** 
 512              		.loc 2 327 17 is_stmt 0 discriminator 4 view .LVU149
 513 0074 EB60     		str	r3, [r5, #12]
 329:Middlewares/lvgl/src/extra/layouts/flex/lv_flex.c **** 
 514              		.loc 2 329 5 is_stmt 1 discriminator 4 view .LVU150
 329:Middlewares/lvgl/src/extra/layouts/flex/lv_flex.c **** 
 515              		.loc 2 329 13 is_stmt 0 discriminator 4 view .LVU151
 516 0076 CDF81480 		str	r8, [sp, #20]
 331:Middlewares/lvgl/src/extra/layouts/flex/lv_flex.c ****     while(item) {
 517              		.loc 2 331 5 is_stmt 1 discriminator 4 view .LVU152
 331:Middlewares/lvgl/src/extra/layouts/flex/lv_flex.c ****     while(item) {
 518              		.loc 2 331 23 is_stmt 0 discriminator 4 view .LVU153
 519 007a 4146     		mov	r1, r8
 520 007c 4846     		mov	r0, r9
 521 007e FFF7FEFF 		bl	lv_obj_get_child
 522              	.LVL53:
 523 0082 0446     		mov	r4, r0
 524              	.LVL54:
 332:Middlewares/lvgl/src/extra/layouts/flex/lv_flex.c ****         if(item_id != item_start_id && lv_obj_has_flag(item, LV_OBJ_FLAG_FLEX_IN_NEW_TRACK)) break;
 525              		.loc 2 332 5 is_stmt 1 discriminator 4 view .LVU154
 332:Middlewares/lvgl/src/extra/layouts/flex/lv_flex.c ****         if(item_id != item_start_id && lv_obj_has_flag(item, LV_OBJ_FLAG_FLEX_IN_NEW_TRACK)) break;
 526              		.loc 2 332 10 is_stmt 0 discriminator 4 view .LVU155
 527 0084 AAE0     		b	.L30
 528              	.LVL55:
 529              	.L50:
 318:Middlewares/lvgl/src/extra/layouts/flex/lv_flex.c ****     lv_coord_t(*get_cross_size)(const lv_obj_t *) = (!f->row ? lv_obj_get_width : lv_obj_get_height
 530              		.loc 2 318 17 view .LVU156
 531 0086 7B4A     		ldr	r2, .L56+4
 532 0088 0192     		str	r2, [sp, #4]
 533 008a EAE7     		b	.L28
 534              	.LVL56:
 535              	.L51:
 319:Middlewares/lvgl/src/extra/layouts/flex/lv_flex.c **** 
 536              		.loc 2 319 17 view .LVU157
 537 008c DFF8E4A1 		ldr	r10, .L56+4
 538 0090 EAE7     		b	.L29
 539              	.LVL57:
 540              	.L54:
 541              	.LBB68:
 336:Middlewares/lvgl/src/extra/layouts/flex/lv_flex.c ****             if(grow_value) {
 542              		.loc 2 336 13 is_stmt 1 view .LVU158
 543              	.LBB69:
 544              	.LBI69:
 545              		.file 4 "Middlewares/lvgl/src/extra/layouts/flex/../flex/lv_flex.h"
ARM GAS  /tmp/ccSBYUf5.s 			page 25


   1:Middlewares/lvgl/src/extra/layouts/flex/../flex/lv_flex.h **** /**
   2:Middlewares/lvgl/src/extra/layouts/flex/../flex/lv_flex.h ****  * @file lv_flex.h
   3:Middlewares/lvgl/src/extra/layouts/flex/../flex/lv_flex.h ****  *
   4:Middlewares/lvgl/src/extra/layouts/flex/../flex/lv_flex.h ****  */
   5:Middlewares/lvgl/src/extra/layouts/flex/../flex/lv_flex.h **** 
   6:Middlewares/lvgl/src/extra/layouts/flex/../flex/lv_flex.h **** #ifndef LV_FLEX_H
   7:Middlewares/lvgl/src/extra/layouts/flex/../flex/lv_flex.h **** #define LV_FLEX_H
   8:Middlewares/lvgl/src/extra/layouts/flex/../flex/lv_flex.h **** 
   9:Middlewares/lvgl/src/extra/layouts/flex/../flex/lv_flex.h **** #ifdef __cplusplus
  10:Middlewares/lvgl/src/extra/layouts/flex/../flex/lv_flex.h **** extern "C" {
  11:Middlewares/lvgl/src/extra/layouts/flex/../flex/lv_flex.h **** #endif
  12:Middlewares/lvgl/src/extra/layouts/flex/../flex/lv_flex.h **** 
  13:Middlewares/lvgl/src/extra/layouts/flex/../flex/lv_flex.h **** /*********************
  14:Middlewares/lvgl/src/extra/layouts/flex/../flex/lv_flex.h ****  *      INCLUDES
  15:Middlewares/lvgl/src/extra/layouts/flex/../flex/lv_flex.h ****  *********************/
  16:Middlewares/lvgl/src/extra/layouts/flex/../flex/lv_flex.h **** #include "../../../core/lv_obj.h"
  17:Middlewares/lvgl/src/extra/layouts/flex/../flex/lv_flex.h **** #if LV_USE_FLEX
  18:Middlewares/lvgl/src/extra/layouts/flex/../flex/lv_flex.h **** 
  19:Middlewares/lvgl/src/extra/layouts/flex/../flex/lv_flex.h **** /*********************
  20:Middlewares/lvgl/src/extra/layouts/flex/../flex/lv_flex.h ****  *      DEFINES
  21:Middlewares/lvgl/src/extra/layouts/flex/../flex/lv_flex.h ****  *********************/
  22:Middlewares/lvgl/src/extra/layouts/flex/../flex/lv_flex.h **** 
  23:Middlewares/lvgl/src/extra/layouts/flex/../flex/lv_flex.h **** #define LV_OBJ_FLAG_FLEX_IN_NEW_TRACK   LV_OBJ_FLAG_LAYOUT_1
  24:Middlewares/lvgl/src/extra/layouts/flex/../flex/lv_flex.h **** LV_EXPORT_CONST_INT(LV_OBJ_FLAG_FLEX_IN_NEW_TRACK);
  25:Middlewares/lvgl/src/extra/layouts/flex/../flex/lv_flex.h **** 
  26:Middlewares/lvgl/src/extra/layouts/flex/../flex/lv_flex.h **** #define _LV_FLEX_COLUMN        (1 << 0)
  27:Middlewares/lvgl/src/extra/layouts/flex/../flex/lv_flex.h **** #define _LV_FLEX_WRAP       (1 << 2)
  28:Middlewares/lvgl/src/extra/layouts/flex/../flex/lv_flex.h **** #define _LV_FLEX_REVERSE    (1 << 3)
  29:Middlewares/lvgl/src/extra/layouts/flex/../flex/lv_flex.h **** 
  30:Middlewares/lvgl/src/extra/layouts/flex/../flex/lv_flex.h **** /**********************
  31:Middlewares/lvgl/src/extra/layouts/flex/../flex/lv_flex.h ****  *      TYPEDEFS
  32:Middlewares/lvgl/src/extra/layouts/flex/../flex/lv_flex.h ****  **********************/
  33:Middlewares/lvgl/src/extra/layouts/flex/../flex/lv_flex.h **** 
  34:Middlewares/lvgl/src/extra/layouts/flex/../flex/lv_flex.h **** /*Can't include lv_obj.h because it includes this header file*/
  35:Middlewares/lvgl/src/extra/layouts/flex/../flex/lv_flex.h **** struct _lv_obj_t;
  36:Middlewares/lvgl/src/extra/layouts/flex/../flex/lv_flex.h **** 
  37:Middlewares/lvgl/src/extra/layouts/flex/../flex/lv_flex.h **** typedef enum {
  38:Middlewares/lvgl/src/extra/layouts/flex/../flex/lv_flex.h ****     LV_FLEX_ALIGN_START,
  39:Middlewares/lvgl/src/extra/layouts/flex/../flex/lv_flex.h ****     LV_FLEX_ALIGN_END,
  40:Middlewares/lvgl/src/extra/layouts/flex/../flex/lv_flex.h ****     LV_FLEX_ALIGN_CENTER,
  41:Middlewares/lvgl/src/extra/layouts/flex/../flex/lv_flex.h ****     LV_FLEX_ALIGN_SPACE_EVENLY,
  42:Middlewares/lvgl/src/extra/layouts/flex/../flex/lv_flex.h ****     LV_FLEX_ALIGN_SPACE_AROUND,
  43:Middlewares/lvgl/src/extra/layouts/flex/../flex/lv_flex.h ****     LV_FLEX_ALIGN_SPACE_BETWEEN,
  44:Middlewares/lvgl/src/extra/layouts/flex/../flex/lv_flex.h **** }lv_flex_align_t;
  45:Middlewares/lvgl/src/extra/layouts/flex/../flex/lv_flex.h **** 
  46:Middlewares/lvgl/src/extra/layouts/flex/../flex/lv_flex.h **** typedef enum {
  47:Middlewares/lvgl/src/extra/layouts/flex/../flex/lv_flex.h ****     LV_FLEX_FLOW_ROW                 = 0x00,
  48:Middlewares/lvgl/src/extra/layouts/flex/../flex/lv_flex.h ****     LV_FLEX_FLOW_COLUMN              = _LV_FLEX_COLUMN,
  49:Middlewares/lvgl/src/extra/layouts/flex/../flex/lv_flex.h ****     LV_FLEX_FLOW_ROW_WRAP            = LV_FLEX_FLOW_ROW | _LV_FLEX_WRAP,
  50:Middlewares/lvgl/src/extra/layouts/flex/../flex/lv_flex.h ****     LV_FLEX_FLOW_ROW_REVERSE         = LV_FLEX_FLOW_ROW | _LV_FLEX_REVERSE,
  51:Middlewares/lvgl/src/extra/layouts/flex/../flex/lv_flex.h ****     LV_FLEX_FLOW_ROW_WRAP_REVERSE    = LV_FLEX_FLOW_ROW | _LV_FLEX_WRAP | _LV_FLEX_REVERSE,
  52:Middlewares/lvgl/src/extra/layouts/flex/../flex/lv_flex.h ****     LV_FLEX_FLOW_COLUMN_WRAP         = LV_FLEX_FLOW_COLUMN | _LV_FLEX_WRAP,
  53:Middlewares/lvgl/src/extra/layouts/flex/../flex/lv_flex.h ****     LV_FLEX_FLOW_COLUMN_REVERSE      = LV_FLEX_FLOW_COLUMN | _LV_FLEX_REVERSE,
  54:Middlewares/lvgl/src/extra/layouts/flex/../flex/lv_flex.h ****     LV_FLEX_FLOW_COLUMN_WRAP_REVERSE = LV_FLEX_FLOW_COLUMN | _LV_FLEX_WRAP | _LV_FLEX_REVERSE,
  55:Middlewares/lvgl/src/extra/layouts/flex/../flex/lv_flex.h **** }lv_flex_flow_t;
  56:Middlewares/lvgl/src/extra/layouts/flex/../flex/lv_flex.h **** 
  57:Middlewares/lvgl/src/extra/layouts/flex/../flex/lv_flex.h **** /**********************
ARM GAS  /tmp/ccSBYUf5.s 			page 26


  58:Middlewares/lvgl/src/extra/layouts/flex/../flex/lv_flex.h ****  * GLOBAL VARIABLES
  59:Middlewares/lvgl/src/extra/layouts/flex/../flex/lv_flex.h ****  **********************/
  60:Middlewares/lvgl/src/extra/layouts/flex/../flex/lv_flex.h **** extern uint32_t LV_LAYOUT_FLEX;
  61:Middlewares/lvgl/src/extra/layouts/flex/../flex/lv_flex.h **** extern lv_style_prop_t LV_STYLE_FLEX_FLOW;
  62:Middlewares/lvgl/src/extra/layouts/flex/../flex/lv_flex.h **** extern lv_style_prop_t LV_STYLE_FLEX_MAIN_PLACE;
  63:Middlewares/lvgl/src/extra/layouts/flex/../flex/lv_flex.h **** extern lv_style_prop_t LV_STYLE_FLEX_CROSS_PLACE;
  64:Middlewares/lvgl/src/extra/layouts/flex/../flex/lv_flex.h **** extern lv_style_prop_t LV_STYLE_FLEX_TRACK_PLACE;
  65:Middlewares/lvgl/src/extra/layouts/flex/../flex/lv_flex.h **** extern lv_style_prop_t LV_STYLE_FLEX_GROW;
  66:Middlewares/lvgl/src/extra/layouts/flex/../flex/lv_flex.h **** 
  67:Middlewares/lvgl/src/extra/layouts/flex/../flex/lv_flex.h **** /**********************
  68:Middlewares/lvgl/src/extra/layouts/flex/../flex/lv_flex.h ****  * GLOBAL PROTOTYPES
  69:Middlewares/lvgl/src/extra/layouts/flex/../flex/lv_flex.h ****  **********************/
  70:Middlewares/lvgl/src/extra/layouts/flex/../flex/lv_flex.h **** 
  71:Middlewares/lvgl/src/extra/layouts/flex/../flex/lv_flex.h **** /**
  72:Middlewares/lvgl/src/extra/layouts/flex/../flex/lv_flex.h ****  * Initialize a felx layout the default values
  73:Middlewares/lvgl/src/extra/layouts/flex/../flex/lv_flex.h ****  * @param flex pointer to a flex layout descriptor
  74:Middlewares/lvgl/src/extra/layouts/flex/../flex/lv_flex.h ****  */
  75:Middlewares/lvgl/src/extra/layouts/flex/../flex/lv_flex.h **** void lv_flex_init(void);
  76:Middlewares/lvgl/src/extra/layouts/flex/../flex/lv_flex.h **** 
  77:Middlewares/lvgl/src/extra/layouts/flex/../flex/lv_flex.h **** /**
  78:Middlewares/lvgl/src/extra/layouts/flex/../flex/lv_flex.h ****  * Set hot the item should flow
  79:Middlewares/lvgl/src/extra/layouts/flex/../flex/lv_flex.h ****  * @param flex pointer to a flex layout descriptor
  80:Middlewares/lvgl/src/extra/layouts/flex/../flex/lv_flex.h ****  * @param flow an element of `lv_flex_flow_t`.
  81:Middlewares/lvgl/src/extra/layouts/flex/../flex/lv_flex.h ****  */
  82:Middlewares/lvgl/src/extra/layouts/flex/../flex/lv_flex.h **** void lv_obj_set_flex_flow(lv_obj_t * obj, lv_flex_flow_t flow);
  83:Middlewares/lvgl/src/extra/layouts/flex/../flex/lv_flex.h **** 
  84:Middlewares/lvgl/src/extra/layouts/flex/../flex/lv_flex.h **** /**
  85:Middlewares/lvgl/src/extra/layouts/flex/../flex/lv_flex.h ****  * Set how to place (where to align) the items an tracks
  86:Middlewares/lvgl/src/extra/layouts/flex/../flex/lv_flex.h ****  * @param flex pointer: to a flex layout descriptor
  87:Middlewares/lvgl/src/extra/layouts/flex/../flex/lv_flex.h ****  * @param main_place where to place the items on main axis (in their track). Any value of `lv_flex_
  88:Middlewares/lvgl/src/extra/layouts/flex/../flex/lv_flex.h ****  * @param cross_place where to place the item in their track on the cross axis. `LV_FLEX_ALIGN_STAR
  89:Middlewares/lvgl/src/extra/layouts/flex/../flex/lv_flex.h ****  * @param track_place where to place the tracks in the cross direction. Any value of `lv_flex_align
  90:Middlewares/lvgl/src/extra/layouts/flex/../flex/lv_flex.h ****  */
  91:Middlewares/lvgl/src/extra/layouts/flex/../flex/lv_flex.h **** void lv_obj_set_flex_align(lv_obj_t * obj, lv_flex_align_t main_place, lv_flex_align_t cross_place,
  92:Middlewares/lvgl/src/extra/layouts/flex/../flex/lv_flex.h **** 
  93:Middlewares/lvgl/src/extra/layouts/flex/../flex/lv_flex.h **** /**
  94:Middlewares/lvgl/src/extra/layouts/flex/../flex/lv_flex.h ****  * Sets the width or height (on main axis) to grow the object in order fill the free space
  95:Middlewares/lvgl/src/extra/layouts/flex/../flex/lv_flex.h ****  * @param obj pointer to an object. The parent must have flex layout else nothing will happen.
  96:Middlewares/lvgl/src/extra/layouts/flex/../flex/lv_flex.h ****  * @param grow a value to set how much free space to take proportionally to other growing items.
  97:Middlewares/lvgl/src/extra/layouts/flex/../flex/lv_flex.h ****  */
  98:Middlewares/lvgl/src/extra/layouts/flex/../flex/lv_flex.h **** void lv_obj_set_flex_grow(lv_obj_t * obj, uint8_t grow);
  99:Middlewares/lvgl/src/extra/layouts/flex/../flex/lv_flex.h **** 
 100:Middlewares/lvgl/src/extra/layouts/flex/../flex/lv_flex.h **** void lv_style_set_flex_flow(lv_style_t * style, lv_flex_flow_t value);
 101:Middlewares/lvgl/src/extra/layouts/flex/../flex/lv_flex.h **** void lv_style_set_flex_main_place(lv_style_t * style, lv_flex_align_t value);
 102:Middlewares/lvgl/src/extra/layouts/flex/../flex/lv_flex.h **** void lv_style_set_flex_cross_place(lv_style_t * style, lv_flex_align_t value);
 103:Middlewares/lvgl/src/extra/layouts/flex/../flex/lv_flex.h **** void lv_style_set_flex_track_place(lv_style_t * style, lv_flex_align_t value);
 104:Middlewares/lvgl/src/extra/layouts/flex/../flex/lv_flex.h **** void lv_style_set_flex_grow(lv_style_t * style, uint8_t value);
 105:Middlewares/lvgl/src/extra/layouts/flex/../flex/lv_flex.h **** void lv_obj_set_style_flex_flow(lv_obj_t * obj, lv_flex_flow_t value, lv_style_selector_t selector)
 106:Middlewares/lvgl/src/extra/layouts/flex/../flex/lv_flex.h **** void lv_obj_set_style_flex_main_place(lv_obj_t * obj, lv_flex_align_t value, lv_style_selector_t se
 107:Middlewares/lvgl/src/extra/layouts/flex/../flex/lv_flex.h **** void lv_obj_set_style_flex_cross_place(lv_obj_t * obj, lv_flex_align_t value, lv_style_selector_t s
 108:Middlewares/lvgl/src/extra/layouts/flex/../flex/lv_flex.h **** void lv_obj_set_style_flex_track_place(lv_obj_t * obj, lv_flex_align_t value, lv_style_selector_t s
 109:Middlewares/lvgl/src/extra/layouts/flex/../flex/lv_flex.h **** void lv_obj_set_style_flex_grow(lv_obj_t * obj, uint8_t value, lv_style_selector_t selector);
 110:Middlewares/lvgl/src/extra/layouts/flex/../flex/lv_flex.h **** 
 111:Middlewares/lvgl/src/extra/layouts/flex/../flex/lv_flex.h **** static inline lv_flex_flow_t lv_obj_get_style_flex_flow(const lv_obj_t * obj, uint32_t part)
 112:Middlewares/lvgl/src/extra/layouts/flex/../flex/lv_flex.h **** {
 113:Middlewares/lvgl/src/extra/layouts/flex/../flex/lv_flex.h ****     lv_style_value_t v = lv_obj_get_style_prop(obj, part, LV_STYLE_FLEX_FLOW);
 114:Middlewares/lvgl/src/extra/layouts/flex/../flex/lv_flex.h ****     return (lv_flex_flow_t)v.num;
ARM GAS  /tmp/ccSBYUf5.s 			page 27


 115:Middlewares/lvgl/src/extra/layouts/flex/../flex/lv_flex.h **** }
 116:Middlewares/lvgl/src/extra/layouts/flex/../flex/lv_flex.h **** 
 117:Middlewares/lvgl/src/extra/layouts/flex/../flex/lv_flex.h **** static inline lv_flex_align_t lv_obj_get_style_flex_main_place(const lv_obj_t * obj, uint32_t part)
 118:Middlewares/lvgl/src/extra/layouts/flex/../flex/lv_flex.h **** {
 119:Middlewares/lvgl/src/extra/layouts/flex/../flex/lv_flex.h ****     lv_style_value_t v = lv_obj_get_style_prop(obj, part, LV_STYLE_FLEX_MAIN_PLACE);
 120:Middlewares/lvgl/src/extra/layouts/flex/../flex/lv_flex.h ****     return (lv_flex_align_t)v.num;
 121:Middlewares/lvgl/src/extra/layouts/flex/../flex/lv_flex.h **** }
 122:Middlewares/lvgl/src/extra/layouts/flex/../flex/lv_flex.h **** 
 123:Middlewares/lvgl/src/extra/layouts/flex/../flex/lv_flex.h **** static inline lv_flex_align_t lv_obj_get_style_flex_cross_place(const lv_obj_t * obj, uint32_t part
 124:Middlewares/lvgl/src/extra/layouts/flex/../flex/lv_flex.h **** {
 125:Middlewares/lvgl/src/extra/layouts/flex/../flex/lv_flex.h ****     lv_style_value_t v = lv_obj_get_style_prop(obj, part, LV_STYLE_FLEX_CROSS_PLACE);
 126:Middlewares/lvgl/src/extra/layouts/flex/../flex/lv_flex.h ****     return (lv_flex_align_t)v.num;
 127:Middlewares/lvgl/src/extra/layouts/flex/../flex/lv_flex.h **** }
 128:Middlewares/lvgl/src/extra/layouts/flex/../flex/lv_flex.h **** 
 129:Middlewares/lvgl/src/extra/layouts/flex/../flex/lv_flex.h **** static inline lv_flex_align_t lv_obj_get_style_flex_track_place(const lv_obj_t * obj, uint32_t part
 130:Middlewares/lvgl/src/extra/layouts/flex/../flex/lv_flex.h **** {
 131:Middlewares/lvgl/src/extra/layouts/flex/../flex/lv_flex.h ****     lv_style_value_t v = lv_obj_get_style_prop(obj, part, LV_STYLE_FLEX_TRACK_PLACE);
 132:Middlewares/lvgl/src/extra/layouts/flex/../flex/lv_flex.h ****     return (lv_flex_align_t)v.num;
 133:Middlewares/lvgl/src/extra/layouts/flex/../flex/lv_flex.h **** }
 134:Middlewares/lvgl/src/extra/layouts/flex/../flex/lv_flex.h **** 
 135:Middlewares/lvgl/src/extra/layouts/flex/../flex/lv_flex.h **** static inline uint8_t lv_obj_get_style_flex_grow(const lv_obj_t * obj, uint32_t part)
 546              		.loc 4 135 23 view .LVU159
 547              	.LBB70:
 136:Middlewares/lvgl/src/extra/layouts/flex/../flex/lv_flex.h **** {
 137:Middlewares/lvgl/src/extra/layouts/flex/../flex/lv_flex.h ****     lv_style_value_t v = lv_obj_get_style_prop(obj, part, LV_STYLE_FLEX_GROW);
 548              		.loc 4 137 5 view .LVU160
 549              		.loc 4 137 26 is_stmt 0 view .LVU161
 550 0092 794B     		ldr	r3, .L56+8
 551 0094 1A88     		ldrh	r2, [r3]
 552 0096 0021     		movs	r1, #0
 553 0098 2046     		mov	r0, r4
 554 009a FFF7FEFF 		bl	lv_obj_get_style_prop
 555              	.LVL58:
 556 009e 0746     		mov	r7, r0
 138:Middlewares/lvgl/src/extra/layouts/flex/../flex/lv_flex.h ****     return (uint8_t)v.num;
 557              		.loc 4 138 5 is_stmt 1 view .LVU162
 558              	.LVL59:
 559              		.loc 4 138 5 is_stmt 0 view .LVU163
 560              	.LBE70:
 561              	.LBE69:
 337:Middlewares/lvgl/src/extra/layouts/flex/lv_flex.c ****                 grow_sum += grow_value;
 562              		.loc 2 337 13 is_stmt 1 view .LVU164
 337:Middlewares/lvgl/src/extra/layouts/flex/lv_flex.c ****                 grow_sum += grow_value;
 563              		.loc 2 337 15 is_stmt 0 view .LVU165
 564 00a0 10F0FF0F 		tst	r0, #255
 565 00a4 70D0     		beq	.L34
 338:Middlewares/lvgl/src/extra/layouts/flex/lv_flex.c ****                 t->grow_item_cnt++;
 566              		.loc 2 338 17 is_stmt 1 view .LVU166
 339:Middlewares/lvgl/src/extra/layouts/flex/lv_flex.c ****                 t->track_fix_main_size += item_gap;
 567              		.loc 2 339 17 view .LVU167
 339:Middlewares/lvgl/src/extra/layouts/flex/lv_flex.c ****                 t->track_fix_main_size += item_gap;
 568              		.loc 2 339 18 is_stmt 0 view .LVU168
 569 00a6 2869     		ldr	r0, [r5, #16]
 570              	.LVL60:
 339:Middlewares/lvgl/src/extra/layouts/flex/lv_flex.c ****                 t->track_fix_main_size += item_gap;
 571              		.loc 2 339 33 view .LVU169
 572 00a8 0130     		adds	r0, r0, #1
ARM GAS  /tmp/ccSBYUf5.s 			page 28


 573 00aa 2861     		str	r0, [r5, #16]
 340:Middlewares/lvgl/src/extra/layouts/flex/lv_flex.c ****                 if(t->grow_dsc_calc) {
 574              		.loc 2 340 17 is_stmt 1 view .LVU170
 340:Middlewares/lvgl/src/extra/layouts/flex/lv_flex.c ****                 if(t->grow_dsc_calc) {
 575              		.loc 2 340 40 is_stmt 0 view .LVU171
 576 00ac AB88     		ldrh	r3, [r5, #4]
 577 00ae 5B44     		add	r3, r3, fp
 578 00b0 AB80     		strh	r3, [r5, #4]	@ movhi
 341:Middlewares/lvgl/src/extra/layouts/flex/lv_flex.c ****                     grow_dsc_t * new_dsc = lv_mem_buf_get(sizeof(grow_dsc_t) * (t->grow_item_cnt));
 579              		.loc 2 341 17 is_stmt 1 view .LVU172
 341:Middlewares/lvgl/src/extra/layouts/flex/lv_flex.c ****                     grow_dsc_t * new_dsc = lv_mem_buf_get(sizeof(grow_dsc_t) * (t->grow_item_cnt));
 580              		.loc 2 341 20 is_stmt 0 view .LVU173
 581 00b2 2B7D     		ldrb	r3, [r5, #20]	@ zero_extendqisi2
 341:Middlewares/lvgl/src/extra/layouts/flex/lv_flex.c ****                     grow_dsc_t * new_dsc = lv_mem_buf_get(sizeof(grow_dsc_t) * (t->grow_item_cnt));
 582              		.loc 2 341 19 view .LVU174
 583 00b4 13F0010F 		tst	r3, #1
 584 00b8 78D0     		beq	.L35
 585              	.LBB71:
 342:Middlewares/lvgl/src/extra/layouts/flex/lv_flex.c ****                     LV_ASSERT_MALLOC(new_dsc);
 586              		.loc 2 342 21 is_stmt 1 view .LVU175
 342:Middlewares/lvgl/src/extra/layouts/flex/lv_flex.c ****                     LV_ASSERT_MALLOC(new_dsc);
 587              		.loc 2 342 44 is_stmt 0 view .LVU176
 588 00ba 00EB8000 		add	r0, r0, r0, lsl #2
 589 00be 8000     		lsls	r0, r0, #2
 590 00c0 FFF7FEFF 		bl	lv_mem_buf_get
 591              	.LVL61:
 343:Middlewares/lvgl/src/extra/layouts/flex/lv_flex.c ****                     if(new_dsc == NULL) return item_id;
 592              		.loc 2 343 21 is_stmt 1 view .LVU177
 343:Middlewares/lvgl/src/extra/layouts/flex/lv_flex.c ****                     if(new_dsc == NULL) return item_id;
 593              		.loc 2 343 21 view .LVU178
 594 00c4 0290     		str	r0, [sp, #8]
 595 00c6 0028     		cmp	r0, #0
 596 00c8 4DD0     		beq	.L37
 343:Middlewares/lvgl/src/extra/layouts/flex/lv_flex.c ****                     if(new_dsc == NULL) return item_id;
 597              		.loc 2 343 21 view .LVU179
 343:Middlewares/lvgl/src/extra/layouts/flex/lv_flex.c ****                     if(new_dsc == NULL) return item_id;
 598              		.loc 2 343 46 view .LVU180
 344:Middlewares/lvgl/src/extra/layouts/flex/lv_flex.c **** 
 599              		.loc 2 344 21 view .LVU181
 346:Middlewares/lvgl/src/extra/layouts/flex/lv_flex.c ****                         lv_memcpy(new_dsc, t->grow_dsc, sizeof(grow_dsc_t) * (t->grow_item_cnt - 1)
 600              		.loc 2 346 21 view .LVU182
 346:Middlewares/lvgl/src/extra/layouts/flex/lv_flex.c ****                         lv_memcpy(new_dsc, t->grow_dsc, sizeof(grow_dsc_t) * (t->grow_item_cnt - 1)
 601              		.loc 2 346 25 is_stmt 0 view .LVU183
 602 00ca E968     		ldr	r1, [r5, #12]
 346:Middlewares/lvgl/src/extra/layouts/flex/lv_flex.c ****                         lv_memcpy(new_dsc, t->grow_dsc, sizeof(grow_dsc_t) * (t->grow_item_cnt - 1)
 603              		.loc 2 346 23 view .LVU184
 604 00cc 51B1     		cbz	r1, .L38
 347:Middlewares/lvgl/src/extra/layouts/flex/lv_flex.c ****                         lv_mem_buf_release(t->grow_dsc);
 605              		.loc 2 347 25 is_stmt 1 view .LVU185
 347:Middlewares/lvgl/src/extra/layouts/flex/lv_flex.c ****                         lv_mem_buf_release(t->grow_dsc);
 606              		.loc 2 347 80 is_stmt 0 view .LVU186
 607 00ce 2B69     		ldr	r3, [r5, #16]
 347:Middlewares/lvgl/src/extra/layouts/flex/lv_flex.c ****                         lv_mem_buf_release(t->grow_dsc);
 608              		.loc 2 347 25 view .LVU187
 609 00d0 03EB8303 		add	r3, r3, r3, lsl #2
 610 00d4 9A00     		lsls	r2, r3, #2
 611 00d6 143A     		subs	r2, r2, #20
ARM GAS  /tmp/ccSBYUf5.s 			page 29


 612 00d8 0298     		ldr	r0, [sp, #8]
 347:Middlewares/lvgl/src/extra/layouts/flex/lv_flex.c ****                         lv_mem_buf_release(t->grow_dsc);
 613              		.loc 2 347 25 view .LVU188
 614 00da FFF7FEFF 		bl	lv_memcpy
 615              	.LVL62:
 348:Middlewares/lvgl/src/extra/layouts/flex/lv_flex.c ****                     }
 616              		.loc 2 348 25 is_stmt 1 view .LVU189
 617 00de E868     		ldr	r0, [r5, #12]
 618 00e0 FFF7FEFF 		bl	lv_mem_buf_release
 619              	.LVL63:
 620              	.L38:
 350:Middlewares/lvgl/src/extra/layouts/flex/lv_flex.c ****                     new_dsc[t->grow_item_cnt - 1].min_size = f->row ? lv_obj_get_style_min_width(it
 621              		.loc 2 350 21 view .LVU190
 350:Middlewares/lvgl/src/extra/layouts/flex/lv_flex.c ****                     new_dsc[t->grow_item_cnt - 1].min_size = f->row ? lv_obj_get_style_min_width(it
 622              		.loc 2 350 30 is_stmt 0 view .LVU191
 623 00e4 2B69     		ldr	r3, [r5, #16]
 350:Middlewares/lvgl/src/extra/layouts/flex/lv_flex.c ****                     new_dsc[t->grow_item_cnt - 1].min_size = f->row ? lv_obj_get_style_min_width(it
 624              		.loc 2 350 28 view .LVU192
 625 00e6 03EB8303 		add	r3, r3, r3, lsl #2
 626 00ea 9B00     		lsls	r3, r3, #2
 627 00ec 143B     		subs	r3, r3, #20
 350:Middlewares/lvgl/src/extra/layouts/flex/lv_flex.c ****                     new_dsc[t->grow_item_cnt - 1].min_size = f->row ? lv_obj_get_style_min_width(it
 628              		.loc 2 350 56 view .LVU193
 629 00ee 029A     		ldr	r2, [sp, #8]
 630 00f0 D450     		str	r4, [r2, r3]
 351:Middlewares/lvgl/src/extra/layouts/flex/lv_flex.c ****                     new_dsc[t->grow_item_cnt - 1].max_size = f->row ? lv_obj_get_style_max_width(it
 631              		.loc 2 351 21 is_stmt 1 view .LVU194
 351:Middlewares/lvgl/src/extra/layouts/flex/lv_flex.c ****                     new_dsc[t->grow_item_cnt - 1].max_size = f->row ? lv_obj_get_style_max_width(it
 632              		.loc 2 351 69 is_stmt 0 view .LVU195
 633 00f2 F378     		ldrb	r3, [r6, #3]	@ zero_extendqisi2
 351:Middlewares/lvgl/src/extra/layouts/flex/lv_flex.c ****                     new_dsc[t->grow_item_cnt - 1].max_size = f->row ? lv_obj_get_style_max_width(it
 634              		.loc 2 351 60 view .LVU196
 635 00f4 13F0010F 		tst	r3, #1
 636 00f8 36D0     		beq	.L39
 637              	.LVL64:
 638              	.LBB72:
 639              	.LBI72:
   7:Middlewares/lvgl/src/extra/layouts/flex/../flex/../../../core/lv_obj_style_gen.h **** {
 640              		.loc 3 7 26 is_stmt 1 view .LVU197
 641              	.LBB73:
   9:Middlewares/lvgl/src/extra/layouts/flex/../flex/../../../core/lv_obj_style_gen.h ****     return (lv_coord_t)v.num;
 642              		.loc 3 9 5 view .LVU198
   9:Middlewares/lvgl/src/extra/layouts/flex/../flex/../../../core/lv_obj_style_gen.h ****     return (lv_coord_t)v.num;
 643              		.loc 3 9 26 is_stmt 0 view .LVU199
 644 00fa 41F20202 		movw	r2, #4098
 645 00fe 0021     		movs	r1, #0
 646 0100 2046     		mov	r0, r4
 647 0102 FFF7FEFF 		bl	lv_obj_get_style_prop
 648              	.LVL65:
  10:Middlewares/lvgl/src/extra/layouts/flex/../flex/../../../core/lv_obj_style_gen.h **** }
 649              		.loc 3 10 5 is_stmt 1 view .LVU200
  10:Middlewares/lvgl/src/extra/layouts/flex/../flex/../../../core/lv_obj_style_gen.h **** }
 650              		.loc 3 10 12 is_stmt 0 view .LVU201
 651 0106 00B2     		sxth	r0, r0
 652              	.LVL66:
 653              	.L40:
  10:Middlewares/lvgl/src/extra/layouts/flex/../flex/../../../core/lv_obj_style_gen.h **** }
ARM GAS  /tmp/ccSBYUf5.s 			page 30


 654              		.loc 3 10 12 view .LVU202
 655              	.LBE73:
 656              	.LBE72:
 351:Middlewares/lvgl/src/extra/layouts/flex/lv_flex.c ****                     new_dsc[t->grow_item_cnt - 1].max_size = f->row ? lv_obj_get_style_max_width(it
 657              		.loc 2 351 30 discriminator 4 view .LVU203
 658 0108 2B69     		ldr	r3, [r5, #16]
 351:Middlewares/lvgl/src/extra/layouts/flex/lv_flex.c ****                     new_dsc[t->grow_item_cnt - 1].max_size = f->row ? lv_obj_get_style_max_width(it
 659              		.loc 2 351 28 discriminator 4 view .LVU204
 660 010a 03EB8303 		add	r3, r3, r3, lsl #2
 661 010e 9B00     		lsls	r3, r3, #2
 662 0110 143B     		subs	r3, r3, #20
 663 0112 029A     		ldr	r2, [sp, #8]
 664 0114 1344     		add	r3, r3, r2
 351:Middlewares/lvgl/src/extra/layouts/flex/lv_flex.c ****                     new_dsc[t->grow_item_cnt - 1].max_size = f->row ? lv_obj_get_style_max_width(it
 665              		.loc 2 351 60 discriminator 4 view .LVU205
 666 0116 9880     		strh	r0, [r3, #4]	@ movhi
 352:Middlewares/lvgl/src/extra/layouts/flex/lv_flex.c ****                     new_dsc[t->grow_item_cnt - 1].grow_value = grow_value;
 667              		.loc 2 352 21 is_stmt 1 discriminator 4 view .LVU206
 352:Middlewares/lvgl/src/extra/layouts/flex/lv_flex.c ****                     new_dsc[t->grow_item_cnt - 1].grow_value = grow_value;
 668              		.loc 2 352 69 is_stmt 0 discriminator 4 view .LVU207
 669 0118 F378     		ldrb	r3, [r6, #3]	@ zero_extendqisi2
 352:Middlewares/lvgl/src/extra/layouts/flex/lv_flex.c ****                     new_dsc[t->grow_item_cnt - 1].grow_value = grow_value;
 670              		.loc 2 352 60 discriminator 4 view .LVU208
 671 011a 13F0010F 		tst	r3, #1
 672 011e 2BD0     		beq	.L41
 673              	.LVL67:
 674              	.LBB74:
 675              	.LBI74:
  13:Middlewares/lvgl/src/extra/layouts/flex/../flex/../../../core/lv_obj_style_gen.h **** {
 676              		.loc 3 13 26 is_stmt 1 view .LVU209
 677              	.LBB75:
  15:Middlewares/lvgl/src/extra/layouts/flex/../flex/../../../core/lv_obj_style_gen.h ****     return (lv_coord_t)v.num;
 678              		.loc 3 15 5 view .LVU210
  15:Middlewares/lvgl/src/extra/layouts/flex/../flex/../../../core/lv_obj_style_gen.h ****     return (lv_coord_t)v.num;
 679              		.loc 3 15 26 is_stmt 0 view .LVU211
 680 0120 41F20302 		movw	r2, #4099
 681 0124 0021     		movs	r1, #0
 682 0126 2046     		mov	r0, r4
 683 0128 FFF7FEFF 		bl	lv_obj_get_style_prop
 684              	.LVL68:
  16:Middlewares/lvgl/src/extra/layouts/flex/../flex/../../../core/lv_obj_style_gen.h **** }
 685              		.loc 3 16 5 is_stmt 1 view .LVU212
  16:Middlewares/lvgl/src/extra/layouts/flex/../flex/../../../core/lv_obj_style_gen.h **** }
 686              		.loc 3 16 12 is_stmt 0 view .LVU213
 687 012c 00B2     		sxth	r0, r0
 688              	.LVL69:
 689              	.L42:
  16:Middlewares/lvgl/src/extra/layouts/flex/../flex/../../../core/lv_obj_style_gen.h **** }
 690              		.loc 3 16 12 view .LVU214
 691              	.LBE75:
 692              	.LBE74:
 352:Middlewares/lvgl/src/extra/layouts/flex/lv_flex.c ****                     new_dsc[t->grow_item_cnt - 1].grow_value = grow_value;
 693              		.loc 2 352 30 discriminator 4 view .LVU215
 694 012e 2B69     		ldr	r3, [r5, #16]
 352:Middlewares/lvgl/src/extra/layouts/flex/lv_flex.c ****                     new_dsc[t->grow_item_cnt - 1].grow_value = grow_value;
 695              		.loc 2 352 28 discriminator 4 view .LVU216
 696 0130 03EB8303 		add	r3, r3, r3, lsl #2
ARM GAS  /tmp/ccSBYUf5.s 			page 31


 697 0134 9B00     		lsls	r3, r3, #2
 698 0136 143B     		subs	r3, r3, #20
 699 0138 0299     		ldr	r1, [sp, #8]
 700 013a 0B44     		add	r3, r3, r1
 352:Middlewares/lvgl/src/extra/layouts/flex/lv_flex.c ****                     new_dsc[t->grow_item_cnt - 1].grow_value = grow_value;
 701              		.loc 2 352 60 discriminator 4 view .LVU217
 702 013c D880     		strh	r0, [r3, #6]	@ movhi
 353:Middlewares/lvgl/src/extra/layouts/flex/lv_flex.c ****                     new_dsc[t->grow_item_cnt - 1].clamped = 0;
 703              		.loc 2 353 21 is_stmt 1 discriminator 4 view .LVU218
 353:Middlewares/lvgl/src/extra/layouts/flex/lv_flex.c ****                     new_dsc[t->grow_item_cnt - 1].clamped = 0;
 704              		.loc 2 353 30 is_stmt 0 discriminator 4 view .LVU219
 705 013e 2B69     		ldr	r3, [r5, #16]
 353:Middlewares/lvgl/src/extra/layouts/flex/lv_flex.c ****                     new_dsc[t->grow_item_cnt - 1].clamped = 0;
 706              		.loc 2 353 28 discriminator 4 view .LVU220
 707 0140 03EB8303 		add	r3, r3, r3, lsl #2
 708 0144 9B00     		lsls	r3, r3, #2
 709 0146 143B     		subs	r3, r3, #20
 710 0148 0B44     		add	r3, r3, r1
 353:Middlewares/lvgl/src/extra/layouts/flex/lv_flex.c ****                     new_dsc[t->grow_item_cnt - 1].clamped = 0;
 711              		.loc 2 353 62 discriminator 4 view .LVU221
 712 014a FFB2     		uxtb	r7, r7
 713 014c DF60     		str	r7, [r3, #12]
 354:Middlewares/lvgl/src/extra/layouts/flex/lv_flex.c ****                     t->grow_dsc = new_dsc;
 714              		.loc 2 354 21 is_stmt 1 discriminator 4 view .LVU222
 354:Middlewares/lvgl/src/extra/layouts/flex/lv_flex.c ****                     t->grow_dsc = new_dsc;
 715              		.loc 2 354 30 is_stmt 0 discriminator 4 view .LVU223
 716 014e 2B69     		ldr	r3, [r5, #16]
 354:Middlewares/lvgl/src/extra/layouts/flex/lv_flex.c ****                     t->grow_dsc = new_dsc;
 717              		.loc 2 354 28 discriminator 4 view .LVU224
 718 0150 03EB8303 		add	r3, r3, r3, lsl #2
 719 0154 9B00     		lsls	r3, r3, #2
 720 0156 143B     		subs	r3, r3, #20
 721 0158 0B44     		add	r3, r3, r1
 354:Middlewares/lvgl/src/extra/layouts/flex/lv_flex.c ****                     t->grow_dsc = new_dsc;
 722              		.loc 2 354 59 discriminator 4 view .LVU225
 723 015a 1A7C     		ldrb	r2, [r3, #16]	@ zero_extendqisi2
 724 015c 6FF30002 		bfc	r2, #0, #1
 725 0160 1A74     		strb	r2, [r3, #16]
 355:Middlewares/lvgl/src/extra/layouts/flex/lv_flex.c ****                 }
 726              		.loc 2 355 21 is_stmt 1 discriminator 4 view .LVU226
 355:Middlewares/lvgl/src/extra/layouts/flex/lv_flex.c ****                 }
 727              		.loc 2 355 33 is_stmt 0 discriminator 4 view .LVU227
 728 0162 E960     		str	r1, [r5, #12]
 729 0164 22E0     		b	.L35
 730              	.LVL70:
 731              	.L37:
 343:Middlewares/lvgl/src/extra/layouts/flex/lv_flex.c ****                     if(new_dsc == NULL) return item_id;
 732              		.loc 2 343 21 is_stmt 1 discriminator 1 view .LVU228
 343:Middlewares/lvgl/src/extra/layouts/flex/lv_flex.c ****                     if(new_dsc == NULL) return item_id;
 733              		.loc 2 343 21 discriminator 1 view .LVU229
 343:Middlewares/lvgl/src/extra/layouts/flex/lv_flex.c ****                     if(new_dsc == NULL) return item_id;
 734              		.loc 2 343 21 discriminator 1 view .LVU230
 343:Middlewares/lvgl/src/extra/layouts/flex/lv_flex.c ****                     if(new_dsc == NULL) return item_id;
 735              		.loc 2 343 21 discriminator 1 view .LVU231
 736 0166 FEE7     		b	.L37
 737              	.LVL71:
 738              	.L39:
ARM GAS  /tmp/ccSBYUf5.s 			page 32


 739              	.LBB76:
 740              	.LBI76:
  23:Middlewares/lvgl/src/extra/layouts/flex/../flex/../../../core/lv_obj_style_gen.h **** }
  24:Middlewares/lvgl/src/extra/layouts/flex/../flex/../../../core/lv_obj_style_gen.h **** 
  25:Middlewares/lvgl/src/extra/layouts/flex/../flex/../../../core/lv_obj_style_gen.h **** static inline lv_coord_t lv_obj_get_style_min_height(const struct _lv_obj_t * obj, uint32_t part)
 741              		.loc 3 25 26 view .LVU232
 742              	.LBB77:
  26:Middlewares/lvgl/src/extra/layouts/flex/../flex/../../../core/lv_obj_style_gen.h **** {
  27:Middlewares/lvgl/src/extra/layouts/flex/../flex/../../../core/lv_obj_style_gen.h ****     lv_style_value_t v = lv_obj_get_style_prop(obj, part, LV_STYLE_MIN_HEIGHT);
 743              		.loc 3 27 5 view .LVU233
 744              		.loc 3 27 26 is_stmt 0 view .LVU234
 745 0168 41F20502 		movw	r2, #4101
 746 016c 0021     		movs	r1, #0
 747 016e 2046     		mov	r0, r4
 748 0170 FFF7FEFF 		bl	lv_obj_get_style_prop
 749              	.LVL72:
  28:Middlewares/lvgl/src/extra/layouts/flex/../flex/../../../core/lv_obj_style_gen.h ****     return (lv_coord_t)v.num;
 750              		.loc 3 28 5 is_stmt 1 view .LVU235
 751              		.loc 3 28 12 is_stmt 0 view .LVU236
 752 0174 00B2     		sxth	r0, r0
 753              	.LVL73:
 754              		.loc 3 28 12 view .LVU237
 755 0176 C7E7     		b	.L40
 756              	.L41:
 757              	.LVL74:
 758              		.loc 3 28 12 view .LVU238
 759              	.LBE77:
 760              	.LBE76:
 761              	.LBB78:
 762              	.LBI78:
  29:Middlewares/lvgl/src/extra/layouts/flex/../flex/../../../core/lv_obj_style_gen.h **** }
  30:Middlewares/lvgl/src/extra/layouts/flex/../flex/../../../core/lv_obj_style_gen.h **** 
  31:Middlewares/lvgl/src/extra/layouts/flex/../flex/../../../core/lv_obj_style_gen.h **** static inline lv_coord_t lv_obj_get_style_max_height(const struct _lv_obj_t * obj, uint32_t part)
 763              		.loc 3 31 26 is_stmt 1 view .LVU239
 764              	.LBB79:
  32:Middlewares/lvgl/src/extra/layouts/flex/../flex/../../../core/lv_obj_style_gen.h **** {
  33:Middlewares/lvgl/src/extra/layouts/flex/../flex/../../../core/lv_obj_style_gen.h ****     lv_style_value_t v = lv_obj_get_style_prop(obj, part, LV_STYLE_MAX_HEIGHT);
 765              		.loc 3 33 5 view .LVU240
 766              		.loc 3 33 26 is_stmt 0 view .LVU241
 767 0178 41F20602 		movw	r2, #4102
 768 017c 0021     		movs	r1, #0
 769 017e 2046     		mov	r0, r4
 770 0180 FFF7FEFF 		bl	lv_obj_get_style_prop
 771              	.LVL75:
  34:Middlewares/lvgl/src/extra/layouts/flex/../flex/../../../core/lv_obj_style_gen.h ****     return (lv_coord_t)v.num;
 772              		.loc 3 34 5 is_stmt 1 view .LVU242
 773              		.loc 3 34 12 is_stmt 0 view .LVU243
 774 0184 00B2     		sxth	r0, r0
 775              	.LVL76:
 776              		.loc 3 34 12 view .LVU244
 777 0186 D2E7     		b	.L42
 778              	.LVL77:
 779              	.L34:
 780              		.loc 3 34 12 view .LVU245
 781              	.LBE79:
 782              	.LBE78:
 783              	.LBE71:
ARM GAS  /tmp/ccSBYUf5.s 			page 33


 784              	.LBB80:
 358:Middlewares/lvgl/src/extra/layouts/flex/lv_flex.c ****                 if(f->wrap && t->track_fix_main_size + item_size > max_main_size) break;
 785              		.loc 2 358 17 is_stmt 1 view .LVU246
 358:Middlewares/lvgl/src/extra/layouts/flex/lv_flex.c ****                 if(f->wrap && t->track_fix_main_size + item_size > max_main_size) break;
 786              		.loc 2 358 40 is_stmt 0 view .LVU247
 787 0188 2046     		mov	r0, r4
 788              	.LVL78:
 358:Middlewares/lvgl/src/extra/layouts/flex/lv_flex.c ****                 if(f->wrap && t->track_fix_main_size + item_size > max_main_size) break;
 789              		.loc 2 358 40 view .LVU248
 790 018a 019B     		ldr	r3, [sp, #4]
 791 018c 9847     		blx	r3
 792              	.LVL79:
 359:Middlewares/lvgl/src/extra/layouts/flex/lv_flex.c ****                 t->track_fix_main_size += item_size + item_gap;
 793              		.loc 2 359 17 is_stmt 1 view .LVU249
 359:Middlewares/lvgl/src/extra/layouts/flex/lv_flex.c ****                 t->track_fix_main_size += item_size + item_gap;
 794              		.loc 2 359 20 is_stmt 0 view .LVU250
 795 018e F378     		ldrb	r3, [r6, #3]	@ zero_extendqisi2
 359:Middlewares/lvgl/src/extra/layouts/flex/lv_flex.c ****                 t->track_fix_main_size += item_size + item_gap;
 796              		.loc 2 359 19 view .LVU251
 797 0190 13F0020F 		tst	r3, #2
 798 0194 05D0     		beq	.L43
 359:Middlewares/lvgl/src/extra/layouts/flex/lv_flex.c ****                 t->track_fix_main_size += item_size + item_gap;
 799              		.loc 2 359 32 discriminator 1 view .LVU252
 800 0196 B5F90430 		ldrsh	r3, [r5, #4]
 359:Middlewares/lvgl/src/extra/layouts/flex/lv_flex.c ****                 t->track_fix_main_size += item_size + item_gap;
 801              		.loc 2 359 54 discriminator 1 view .LVU253
 802 019a 0344     		add	r3, r3, r0
 359:Middlewares/lvgl/src/extra/layouts/flex/lv_flex.c ****                 t->track_fix_main_size += item_size + item_gap;
 803              		.loc 2 359 28 discriminator 1 view .LVU254
 804 019c 039A     		ldr	r2, [sp, #12]
 805 019e 9342     		cmp	r3, r2
 806 01a0 34DC     		bgt	.L32
 807              	.L43:
 360:Middlewares/lvgl/src/extra/layouts/flex/lv_flex.c ****             }
 808              		.loc 2 360 17 is_stmt 1 view .LVU255
 360:Middlewares/lvgl/src/extra/layouts/flex/lv_flex.c ****             }
 809              		.loc 2 360 53 is_stmt 0 view .LVU256
 810 01a2 5844     		add	r0, r0, fp
 811              	.LVL80:
 360:Middlewares/lvgl/src/extra/layouts/flex/lv_flex.c ****             }
 812              		.loc 2 360 40 view .LVU257
 813 01a4 AB88     		ldrh	r3, [r5, #4]
 814 01a6 13FA80F0 		uxtah	r0, r3, r0
 815 01aa A880     		strh	r0, [r5, #4]	@ movhi
 816              	.L35:
 360:Middlewares/lvgl/src/extra/layouts/flex/lv_flex.c ****             }
 817              		.loc 2 360 40 view .LVU258
 818              	.LBE80:
 364:Middlewares/lvgl/src/extra/layouts/flex/lv_flex.c ****             t->item_cnt++;
 819              		.loc 2 364 13 is_stmt 1 view .LVU259
 364:Middlewares/lvgl/src/extra/layouts/flex/lv_flex.c ****             t->item_cnt++;
 820              		.loc 2 364 35 is_stmt 0 view .LVU260
 821 01ac 2046     		mov	r0, r4
 822 01ae D047     		blx	r10
 823              	.LVL81:
 824 01b0 B5F90030 		ldrsh	r3, [r5]
 364:Middlewares/lvgl/src/extra/layouts/flex/lv_flex.c ****             t->item_cnt++;
ARM GAS  /tmp/ccSBYUf5.s 			page 34


 825              		.loc 2 364 33 view .LVU261
 826 01b4 9842     		cmp	r0, r3
 827 01b6 02DD     		ble	.L44
 364:Middlewares/lvgl/src/extra/layouts/flex/lv_flex.c ****             t->item_cnt++;
 828              		.loc 2 364 35 discriminator 1 view .LVU262
 829 01b8 2046     		mov	r0, r4
 830 01ba D047     		blx	r10
 831              	.LVL82:
 832 01bc 0346     		mov	r3, r0
 833              	.L44:
 364:Middlewares/lvgl/src/extra/layouts/flex/lv_flex.c ****             t->item_cnt++;
 834              		.loc 2 364 33 discriminator 4 view .LVU263
 835 01be 2B80     		strh	r3, [r5]	@ movhi
 365:Middlewares/lvgl/src/extra/layouts/flex/lv_flex.c ****         }
 836              		.loc 2 365 13 is_stmt 1 discriminator 4 view .LVU264
 365:Middlewares/lvgl/src/extra/layouts/flex/lv_flex.c ****         }
 837              		.loc 2 365 14 is_stmt 0 discriminator 4 view .LVU265
 838 01c0 AB68     		ldr	r3, [r5, #8]
 365:Middlewares/lvgl/src/extra/layouts/flex/lv_flex.c ****         }
 839              		.loc 2 365 24 discriminator 4 view .LVU266
 840 01c2 0133     		adds	r3, r3, #1
 841 01c4 AB60     		str	r3, [r5, #8]
 842 01c6 1AE0     		b	.L33
 843              	.L52:
 365:Middlewares/lvgl/src/extra/layouts/flex/lv_flex.c ****         }
 844              		.loc 2 365 24 discriminator 4 view .LVU267
 845              	.LBE68:
 368:Middlewares/lvgl/src/extra/layouts/flex/lv_flex.c ****         if(item_id < 0) break;
 846              		.loc 2 368 32 view .LVU268
 847 01c8 0121     		movs	r1, #1
 848              	.L45:
 368:Middlewares/lvgl/src/extra/layouts/flex/lv_flex.c ****         if(item_id < 0) break;
 849              		.loc 2 368 17 discriminator 4 view .LVU269
 850 01ca 059B     		ldr	r3, [sp, #20]
 851 01cc 1944     		add	r1, r1, r3
 852 01ce 0591     		str	r1, [sp, #20]
 369:Middlewares/lvgl/src/extra/layouts/flex/lv_flex.c ****         item = lv_obj_get_child(cont, item_id);
 853              		.loc 2 369 9 is_stmt 1 discriminator 4 view .LVU270
 369:Middlewares/lvgl/src/extra/layouts/flex/lv_flex.c ****         item = lv_obj_get_child(cont, item_id);
 854              		.loc 2 369 11 is_stmt 0 discriminator 4 view .LVU271
 855 01d0 0029     		cmp	r1, #0
 856 01d2 1BDB     		blt	.L32
 370:Middlewares/lvgl/src/extra/layouts/flex/lv_flex.c ****     }
 857              		.loc 2 370 9 is_stmt 1 view .LVU272
 370:Middlewares/lvgl/src/extra/layouts/flex/lv_flex.c ****     }
 858              		.loc 2 370 16 is_stmt 0 view .LVU273
 859 01d4 4846     		mov	r0, r9
 860 01d6 FFF7FEFF 		bl	lv_obj_get_child
 861              	.LVL83:
 862 01da 0446     		mov	r4, r0
 863              	.LVL84:
 864              	.L30:
 332:Middlewares/lvgl/src/extra/layouts/flex/lv_flex.c ****         if(item_id != item_start_id && lv_obj_has_flag(item, LV_OBJ_FLAG_FLEX_IN_NEW_TRACK)) break;
 865              		.loc 2 332 10 is_stmt 1 view .LVU274
 866 01dc B4B1     		cbz	r4, .L32
 333:Middlewares/lvgl/src/extra/layouts/flex/lv_flex.c **** 
 867              		.loc 2 333 9 view .LVU275
ARM GAS  /tmp/ccSBYUf5.s 			page 35


 333:Middlewares/lvgl/src/extra/layouts/flex/lv_flex.c **** 
 868              		.loc 2 333 20 is_stmt 0 view .LVU276
 869 01de 059B     		ldr	r3, [sp, #20]
 333:Middlewares/lvgl/src/extra/layouts/flex/lv_flex.c **** 
 870              		.loc 2 333 11 view .LVU277
 871 01e0 4345     		cmp	r3, r8
 872 01e2 05D0     		beq	.L31
 333:Middlewares/lvgl/src/extra/layouts/flex/lv_flex.c **** 
 873              		.loc 2 333 40 discriminator 1 view .LVU278
 874 01e4 4FF40001 		mov	r1, #8388608
 875 01e8 2046     		mov	r0, r4
 333:Middlewares/lvgl/src/extra/layouts/flex/lv_flex.c **** 
 876              		.loc 2 333 40 discriminator 1 view .LVU279
 877 01ea FFF7FEFF 		bl	lv_obj_has_flag
 878              	.LVL85:
 333:Middlewares/lvgl/src/extra/layouts/flex/lv_flex.c **** 
 879              		.loc 2 333 37 discriminator 1 view .LVU280
 880 01ee 68B9     		cbnz	r0, .L32
 881              	.L31:
 335:Middlewares/lvgl/src/extra/layouts/flex/lv_flex.c ****             uint8_t grow_value = lv_obj_get_style_flex_grow(item, LV_PART_MAIN);
 882              		.loc 2 335 9 is_stmt 1 view .LVU281
 335:Middlewares/lvgl/src/extra/layouts/flex/lv_flex.c ****             uint8_t grow_value = lv_obj_get_style_flex_grow(item, LV_PART_MAIN);
 883              		.loc 2 335 13 is_stmt 0 view .LVU282
 884 01f0 2249     		ldr	r1, .L56+12
 885 01f2 2046     		mov	r0, r4
 886 01f4 FFF7FEFF 		bl	lv_obj_has_flag_any
 887              	.LVL86:
 335:Middlewares/lvgl/src/extra/layouts/flex/lv_flex.c ****             uint8_t grow_value = lv_obj_get_style_flex_grow(item, LV_PART_MAIN);
 888              		.loc 2 335 11 view .LVU283
 889 01f8 0028     		cmp	r0, #0
 890 01fa 3FF44AAF 		beq	.L54
 891              	.L33:
 368:Middlewares/lvgl/src/extra/layouts/flex/lv_flex.c ****         if(item_id < 0) break;
 892              		.loc 2 368 9 is_stmt 1 view .LVU284
 368:Middlewares/lvgl/src/extra/layouts/flex/lv_flex.c ****         if(item_id < 0) break;
 893              		.loc 2 368 27 is_stmt 0 view .LVU285
 894 01fe F378     		ldrb	r3, [r6, #3]	@ zero_extendqisi2
 368:Middlewares/lvgl/src/extra/layouts/flex/lv_flex.c ****         if(item_id < 0) break;
 895              		.loc 2 368 32 view .LVU286
 896 0200 13F0040F 		tst	r3, #4
 897 0204 E0D0     		beq	.L52
 898 0206 4FF0FF31 		mov	r1, #-1
 899 020a DEE7     		b	.L45
 900              	.L32:
 373:Middlewares/lvgl/src/extra/layouts/flex/lv_flex.c **** 
 901              		.loc 2 373 5 is_stmt 1 view .LVU287
 373:Middlewares/lvgl/src/extra/layouts/flex/lv_flex.c **** 
 902              		.loc 2 373 9 is_stmt 0 view .LVU288
 903 020c B5F90430 		ldrsh	r3, [r5, #4]
 373:Middlewares/lvgl/src/extra/layouts/flex/lv_flex.c **** 
 904              		.loc 2 373 7 view .LVU289
 905 0210 002B     		cmp	r3, #0
 906 0212 02DD     		ble	.L47
 373:Middlewares/lvgl/src/extra/layouts/flex/lv_flex.c **** 
 907              		.loc 2 373 36 is_stmt 1 discriminator 1 view .LVU290
 373:Middlewares/lvgl/src/extra/layouts/flex/lv_flex.c **** 
 908              		.loc 2 373 59 is_stmt 0 discriminator 1 view .LVU291
ARM GAS  /tmp/ccSBYUf5.s 			page 36


 909 0214 A3EB0B03 		sub	r3, r3, fp
 910 0218 AB80     		strh	r3, [r5, #4]	@ movhi
 911              	.L47:
 376:Middlewares/lvgl/src/extra/layouts/flex/lv_flex.c **** 
 912              		.loc 2 376 5 is_stmt 1 view .LVU292
 376:Middlewares/lvgl/src/extra/layouts/flex/lv_flex.c **** 
 913              		.loc 2 376 27 is_stmt 0 view .LVU293
 914 021a 2B69     		ldr	r3, [r5, #16]
 376:Middlewares/lvgl/src/extra/layouts/flex/lv_flex.c **** 
 915              		.loc 2 376 24 view .LVU294
 916 021c 13B9     		cbnz	r3, .L48
 376:Middlewares/lvgl/src/extra/layouts/flex/lv_flex.c **** 
 917              		.loc 2 376 24 discriminator 1 view .LVU295
 918 021e B5F90430 		ldrsh	r3, [r5, #4]
 919 0222 0393     		str	r3, [sp, #12]
 920              	.L48:
 376:Middlewares/lvgl/src/extra/layouts/flex/lv_flex.c **** 
 921              		.loc 2 376 24 discriminator 4 view .LVU296
 922 0224 039B     		ldr	r3, [sp, #12]
 923 0226 6B80     		strh	r3, [r5, #2]	@ movhi
 379:Middlewares/lvgl/src/extra/layouts/flex/lv_flex.c ****         item = cont->spec_attr->children[item_id];
 924              		.loc 2 379 5 is_stmt 1 discriminator 4 view .LVU297
 379:Middlewares/lvgl/src/extra/layouts/flex/lv_flex.c ****         item = cont->spec_attr->children[item_id];
 925              		.loc 2 379 24 is_stmt 0 discriminator 4 view .LVU298
 926 0228 059B     		ldr	r3, [sp, #20]
 379:Middlewares/lvgl/src/extra/layouts/flex/lv_flex.c ****         item = cont->spec_attr->children[item_id];
 927              		.loc 2 379 13 discriminator 4 view .LVU299
 928 022a 003C     		subs	r4, r4, #0
 379:Middlewares/lvgl/src/extra/layouts/flex/lv_flex.c ****         item = cont->spec_attr->children[item_id];
 929              		.loc 2 379 13 discriminator 4 view .LVU300
 930 022c 18BF     		it	ne
 931 022e 0124     		movne	r4, #1
 932              	.LVL87:
 379:Middlewares/lvgl/src/extra/layouts/flex/lv_flex.c ****         item = cont->spec_attr->children[item_id];
 933              		.loc 2 379 13 discriminator 4 view .LVU301
 934 0230 4345     		cmp	r3, r8
 935 0232 18BF     		it	ne
 936 0234 0024     		movne	r4, #0
 379:Middlewares/lvgl/src/extra/layouts/flex/lv_flex.c ****         item = cont->spec_attr->children[item_id];
 937              		.loc 2 379 7 discriminator 4 view .LVU302
 938 0236 1CB9     		cbnz	r4, .L55
 939              	.L49:
 389:Middlewares/lvgl/src/extra/layouts/flex/lv_flex.c **** }
 940              		.loc 2 389 5 is_stmt 1 view .LVU303
 390:Middlewares/lvgl/src/extra/layouts/flex/lv_flex.c **** 
 941              		.loc 2 390 1 is_stmt 0 view .LVU304
 942 0238 0598     		ldr	r0, [sp, #20]
 943 023a 07B0     		add	sp, sp, #28
 944              	.LCFI5:
 945              		.cfi_remember_state
 946              		.cfi_def_cfa_offset 36
 947              		@ sp needed
 948 023c BDE8F08F 		pop	{r4, r5, r6, r7, r8, r9, r10, fp, pc}
 949              	.LVL88:
 950              	.L55:
 951              	.LCFI6:
 952              		.cfi_restore_state
ARM GAS  /tmp/ccSBYUf5.s 			page 37


 380:Middlewares/lvgl/src/extra/layouts/flex/lv_flex.c ****         get_next_item(cont, f->rev, &item_id);
 953              		.loc 2 380 9 is_stmt 1 view .LVU305
 380:Middlewares/lvgl/src/extra/layouts/flex/lv_flex.c ****         get_next_item(cont, f->rev, &item_id);
 954              		.loc 2 380 20 is_stmt 0 view .LVU306
 955 0240 D9F80820 		ldr	r2, [r9, #8]
 380:Middlewares/lvgl/src/extra/layouts/flex/lv_flex.c ****         get_next_item(cont, f->rev, &item_id);
 956              		.loc 2 380 31 view .LVU307
 957 0244 1268     		ldr	r2, [r2]
 380:Middlewares/lvgl/src/extra/layouts/flex/lv_flex.c ****         get_next_item(cont, f->rev, &item_id);
 958              		.loc 2 380 14 view .LVU308
 959 0246 52F82340 		ldr	r4, [r2, r3, lsl #2]
 960              	.LVL89:
 381:Middlewares/lvgl/src/extra/layouts/flex/lv_flex.c ****         if(item) {
 961              		.loc 2 381 9 is_stmt 1 view .LVU309
 381:Middlewares/lvgl/src/extra/layouts/flex/lv_flex.c ****         if(item) {
 962              		.loc 2 381 30 is_stmt 0 view .LVU310
 963 024a F178     		ldrb	r1, [r6, #3]	@ zero_extendqisi2
 381:Middlewares/lvgl/src/extra/layouts/flex/lv_flex.c ****         if(item) {
 964              		.loc 2 381 9 view .LVU311
 965 024c 05AA     		add	r2, sp, #20
 966 024e C1F38001 		ubfx	r1, r1, #2, #1
 967 0252 4846     		mov	r0, r9
 968 0254 FFF7FEFF 		bl	get_next_item
 969              	.LVL90:
 382:Middlewares/lvgl/src/extra/layouts/flex/lv_flex.c ****             t->track_cross_size = get_cross_size(item);
 970              		.loc 2 382 9 is_stmt 1 view .LVU312
 382:Middlewares/lvgl/src/extra/layouts/flex/lv_flex.c ****             t->track_cross_size = get_cross_size(item);
 971              		.loc 2 382 11 is_stmt 0 view .LVU313
 972 0258 002C     		cmp	r4, #0
 973 025a EDD0     		beq	.L49
 383:Middlewares/lvgl/src/extra/layouts/flex/lv_flex.c ****             t->track_main_size = get_main_size(item);
 974              		.loc 2 383 13 is_stmt 1 view .LVU314
 383:Middlewares/lvgl/src/extra/layouts/flex/lv_flex.c ****             t->track_main_size = get_main_size(item);
 975              		.loc 2 383 35 is_stmt 0 view .LVU315
 976 025c 2046     		mov	r0, r4
 977 025e D047     		blx	r10
 978              	.LVL91:
 383:Middlewares/lvgl/src/extra/layouts/flex/lv_flex.c ****             t->track_main_size = get_main_size(item);
 979              		.loc 2 383 33 view .LVU316
 980 0260 2880     		strh	r0, [r5]	@ movhi
 384:Middlewares/lvgl/src/extra/layouts/flex/lv_flex.c ****             t->item_cnt = 1;
 981              		.loc 2 384 13 is_stmt 1 view .LVU317
 384:Middlewares/lvgl/src/extra/layouts/flex/lv_flex.c ****             t->item_cnt = 1;
 982              		.loc 2 384 34 is_stmt 0 view .LVU318
 983 0262 2046     		mov	r0, r4
 984 0264 019B     		ldr	r3, [sp, #4]
 985 0266 9847     		blx	r3
 986              	.LVL92:
 384:Middlewares/lvgl/src/extra/layouts/flex/lv_flex.c ****             t->item_cnt = 1;
 987              		.loc 2 384 32 view .LVU319
 988 0268 6880     		strh	r0, [r5, #2]	@ movhi
 385:Middlewares/lvgl/src/extra/layouts/flex/lv_flex.c ****         }
 989              		.loc 2 385 13 is_stmt 1 view .LVU320
 385:Middlewares/lvgl/src/extra/layouts/flex/lv_flex.c ****         }
 990              		.loc 2 385 25 is_stmt 0 view .LVU321
 991 026a 0123     		movs	r3, #1
 992 026c AB60     		str	r3, [r5, #8]
ARM GAS  /tmp/ccSBYUf5.s 			page 38


 993 026e E3E7     		b	.L49
 994              	.L57:
 995              		.align	2
 996              	.L56:
 997 0270 00000000 		.word	lv_obj_get_width
 998 0274 00000000 		.word	lv_obj_get_height
 999 0278 00000000 		.word	.LANCHOR0
 1000 027c 01800100 		.word	98305
 1001              		.cfi_endproc
 1002              	.LFE178:
 1004              		.section	.text.children_repos,"ax",%progbits
 1005              		.align	1
 1006              		.syntax unified
 1007              		.thumb
 1008              		.thumb_func
 1010              	children_repos:
 1011              	.LVL93:
 1012              	.LFB179:
 396:Middlewares/lvgl/src/extra/layouts/flex/lv_flex.c ****     void (*area_set_main_size)(lv_area_t *, lv_coord_t) = (f->row ? lv_area_set_width : lv_area_set
 1013              		.loc 2 396 1 is_stmt 1 view -0
 1014              		.cfi_startproc
 1015              		@ args = 20, pretend = 0, frame = 64
 1016              		@ frame_needed = 0, uses_anonymous_args = 0
 396:Middlewares/lvgl/src/extra/layouts/flex/lv_flex.c ****     void (*area_set_main_size)(lv_area_t *, lv_coord_t) = (f->row ? lv_area_set_width : lv_area_set
 1017              		.loc 2 396 1 is_stmt 0 view .LVU323
 1018 0000 2DE9F04F 		push	{r4, r5, r6, r7, r8, r9, r10, fp, lr}
 1019              	.LCFI7:
 1020              		.cfi_def_cfa_offset 36
 1021              		.cfi_offset 4, -36
 1022              		.cfi_offset 5, -32
 1023              		.cfi_offset 6, -28
 1024              		.cfi_offset 7, -24
 1025              		.cfi_offset 8, -20
 1026              		.cfi_offset 9, -16
 1027              		.cfi_offset 10, -12
 1028              		.cfi_offset 11, -8
 1029              		.cfi_offset 14, -4
 1030 0004 93B0     		sub	sp, sp, #76
 1031              	.LCFI8:
 1032              		.cfi_def_cfa_offset 112
 1033 0006 0490     		str	r0, [sp, #16]
 1034 0008 8946     		mov	r9, r1
 1035 000a 0D92     		str	r2, [sp, #52]
 1036 000c 0593     		str	r3, [sp, #20]
 1037 000e BDF97030 		ldrsh	r3, [sp, #112]
 1038              	.LVL94:
 396:Middlewares/lvgl/src/extra/layouts/flex/lv_flex.c ****     void (*area_set_main_size)(lv_area_t *, lv_coord_t) = (f->row ? lv_area_set_width : lv_area_set
 1039              		.loc 2 396 1 view .LVU324
 1040 0012 0793     		str	r3, [sp, #28]
 1041 0014 BDF97430 		ldrsh	r3, [sp, #116]
 1042 0018 0893     		str	r3, [sp, #32]
 1043 001a BDF97C30 		ldrsh	r3, [sp, #124]
 1044 001e 0993     		str	r3, [sp, #36]
 1045 0020 209C     		ldr	r4, [sp, #128]
 397:Middlewares/lvgl/src/extra/layouts/flex/lv_flex.c ****     lv_coord_t (*area_get_main_size)(const lv_area_t *) = (f->row ? lv_area_get_width : lv_area_get
 1046              		.loc 2 397 5 is_stmt 1 view .LVU325
 397:Middlewares/lvgl/src/extra/layouts/flex/lv_flex.c ****     lv_coord_t (*area_get_main_size)(const lv_area_t *) = (f->row ? lv_area_get_width : lv_area_get
ARM GAS  /tmp/ccSBYUf5.s 			page 39


 1047              		.loc 2 397 67 is_stmt 0 view .LVU326
 1048 0022 CB78     		ldrb	r3, [r1, #3]	@ zero_extendqisi2
 397:Middlewares/lvgl/src/extra/layouts/flex/lv_flex.c ****     lv_coord_t (*area_get_main_size)(const lv_area_t *) = (f->row ? lv_area_get_width : lv_area_get
 1049              		.loc 2 397 87 view .LVU327
 1050 0024 13F00103 		ands	r3, r3, #1
 1051 0028 0AD0     		beq	.L103
 1052 002a 824A     		ldr	r2, .L125
 1053              	.LVL95:
 397:Middlewares/lvgl/src/extra/layouts/flex/lv_flex.c ****     lv_coord_t (*area_get_main_size)(const lv_area_t *) = (f->row ? lv_area_get_width : lv_area_get
 1054              		.loc 2 397 87 view .LVU328
 1055 002c 0C92     		str	r2, [sp, #48]
 1056              	.L59:
 1057              	.LVL96:
 398:Middlewares/lvgl/src/extra/layouts/flex/lv_flex.c ****     lv_coord_t (*area_get_cross_size)(const lv_area_t *) = (!f->row ? lv_area_get_width : lv_area_g
 1058              		.loc 2 398 5 is_stmt 1 discriminator 4 view .LVU329
 398:Middlewares/lvgl/src/extra/layouts/flex/lv_flex.c ****     lv_coord_t (*area_get_cross_size)(const lv_area_t *) = (!f->row ? lv_area_get_width : lv_area_g
 1059              		.loc 2 398 87 is_stmt 0 discriminator 4 view .LVU330
 1060 002e 53B1     		cbz	r3, .L104
 398:Middlewares/lvgl/src/extra/layouts/flex/lv_flex.c ****     lv_coord_t (*area_get_cross_size)(const lv_area_t *) = (!f->row ? lv_area_get_width : lv_area_g
 1061              		.loc 2 398 87 view .LVU331
 1062 0030 814A     		ldr	r2, .L125+4
 1063 0032 0692     		str	r2, [sp, #24]
 1064              	.L60:
 1065              	.LVL97:
 399:Middlewares/lvgl/src/extra/layouts/flex/lv_flex.c **** 
 1066              		.loc 2 399 5 is_stmt 1 discriminator 4 view .LVU332
 399:Middlewares/lvgl/src/extra/layouts/flex/lv_flex.c **** 
 1067              		.loc 2 399 89 is_stmt 0 discriminator 4 view .LVU333
 1068 0034 53B9     		cbnz	r3, .L105
 399:Middlewares/lvgl/src/extra/layouts/flex/lv_flex.c **** 
 1069              		.loc 2 399 89 view .LVU334
 1070 0036 804B     		ldr	r3, .L125+4
 1071 0038 0B93     		str	r3, [sp, #44]
 1072              	.L61:
 1073              	.LVL98:
 402:Middlewares/lvgl/src/extra/layouts/flex/lv_flex.c ****     bool grow_reiterate  = true;
 1074              		.loc 2 402 5 is_stmt 1 discriminator 4 view .LVU335
 403:Middlewares/lvgl/src/extra/layouts/flex/lv_flex.c ****     while(grow_reiterate) {
 1075              		.loc 2 403 5 discriminator 4 view .LVU336
 404:Middlewares/lvgl/src/extra/layouts/flex/lv_flex.c ****         grow_reiterate = false;
 1076              		.loc 2 404 5 discriminator 4 view .LVU337
 403:Middlewares/lvgl/src/extra/layouts/flex/lv_flex.c ****     while(grow_reiterate) {
 1077              		.loc 2 403 10 is_stmt 0 discriminator 4 view .LVU338
 1078 003a 4FF0010C 		mov	ip, #1
 404:Middlewares/lvgl/src/extra/layouts/flex/lv_flex.c ****         grow_reiterate = false;
 1079              		.loc 2 404 10 discriminator 4 view .LVU339
 1080 003e 52E0     		b	.L62
 1081              	.LVL99:
 1082              	.L103:
 397:Middlewares/lvgl/src/extra/layouts/flex/lv_flex.c ****     lv_coord_t (*area_get_main_size)(const lv_area_t *) = (f->row ? lv_area_get_width : lv_area_get
 1083              		.loc 2 397 87 view .LVU340
 1084 0040 7E4A     		ldr	r2, .L125+8
 1085              	.LVL100:
 397:Middlewares/lvgl/src/extra/layouts/flex/lv_flex.c ****     lv_coord_t (*area_get_main_size)(const lv_area_t *) = (f->row ? lv_area_get_width : lv_area_get
 1086              		.loc 2 397 87 view .LVU341
 1087 0042 0C92     		str	r2, [sp, #48]
 1088 0044 F3E7     		b	.L59
ARM GAS  /tmp/ccSBYUf5.s 			page 40


 1089              	.LVL101:
 1090              	.L104:
 398:Middlewares/lvgl/src/extra/layouts/flex/lv_flex.c ****     lv_coord_t (*area_get_cross_size)(const lv_area_t *) = (!f->row ? lv_area_get_width : lv_area_g
 1091              		.loc 2 398 87 view .LVU342
 1092 0046 7E4A     		ldr	r2, .L125+12
 1093 0048 0692     		str	r2, [sp, #24]
 1094 004a F3E7     		b	.L60
 1095              	.LVL102:
 1096              	.L105:
 399:Middlewares/lvgl/src/extra/layouts/flex/lv_flex.c **** 
 1097              		.loc 2 399 89 view .LVU343
 1098 004c 7C4B     		ldr	r3, .L125+12
 1099 004e 0B93     		str	r3, [sp, #44]
 1100 0050 F3E7     		b	.L61
 1101              	.LVL103:
 1102              	.L64:
 1103              	.LBB81:
 412:Middlewares/lvgl/src/extra/layouts/flex/lv_flex.c ****             }
 1104              		.loc 2 412 17 is_stmt 1 view .LVU344
 412:Middlewares/lvgl/src/extra/layouts/flex/lv_flex.c ****             }
 1105              		.loc 2 412 48 is_stmt 0 view .LVU345
 1106 0052 0089     		ldrh	r0, [r0, #8]
 412:Middlewares/lvgl/src/extra/layouts/flex/lv_flex.c ****             }
 1107              		.loc 2 412 31 view .LVU346
 1108 0054 121A     		subs	r2, r2, r0
 1109              	.LVL104:
 412:Middlewares/lvgl/src/extra/layouts/flex/lv_flex.c ****             }
 1110              		.loc 2 412 31 view .LVU347
 1111 0056 12B2     		sxth	r2, r2
 1112              	.LVL105:
 1113              	.L65:
 408:Middlewares/lvgl/src/extra/layouts/flex/lv_flex.c ****             if(t->grow_dsc[i].clamped == 0) {
 1114              		.loc 2 408 42 is_stmt 1 discriminator 2 view .LVU348
 408:Middlewares/lvgl/src/extra/layouts/flex/lv_flex.c ****             if(t->grow_dsc[i].clamped == 0) {
 1115              		.loc 2 408 43 is_stmt 0 discriminator 2 view .LVU349
 1116 0058 0133     		adds	r3, r3, #1
 1117              	.LVL106:
 1118              	.L63:
 408:Middlewares/lvgl/src/extra/layouts/flex/lv_flex.c ****             if(t->grow_dsc[i].clamped == 0) {
 1119              		.loc 2 408 20 is_stmt 1 discriminator 1 view .LVU350
 408:Middlewares/lvgl/src/extra/layouts/flex/lv_flex.c ****             if(t->grow_dsc[i].clamped == 0) {
 1120              		.loc 2 408 25 is_stmt 0 discriminator 1 view .LVU351
 1121 005a 2069     		ldr	r0, [r4, #16]
 408:Middlewares/lvgl/src/extra/layouts/flex/lv_flex.c ****             if(t->grow_dsc[i].clamped == 0) {
 1122              		.loc 2 408 9 discriminator 1 view .LVU352
 1123 005c 9842     		cmp	r0, r3
 1124 005e 0CD9     		bls	.L110
 409:Middlewares/lvgl/src/extra/layouts/flex/lv_flex.c ****                 grow_value_sum += t->grow_dsc[i].grow_value;
 1125              		.loc 2 409 13 is_stmt 1 view .LVU353
 409:Middlewares/lvgl/src/extra/layouts/flex/lv_flex.c ****                 grow_value_sum += t->grow_dsc[i].grow_value;
 1126              		.loc 2 409 17 is_stmt 0 view .LVU354
 1127 0060 E068     		ldr	r0, [r4, #12]
 409:Middlewares/lvgl/src/extra/layouts/flex/lv_flex.c ****                 grow_value_sum += t->grow_dsc[i].grow_value;
 1128              		.loc 2 409 27 view .LVU355
 1129 0062 03EB8305 		add	r5, r3, r3, lsl #2
 1130 0066 00EB8500 		add	r0, r0, r5, lsl #2
 409:Middlewares/lvgl/src/extra/layouts/flex/lv_flex.c ****                 grow_value_sum += t->grow_dsc[i].grow_value;
ARM GAS  /tmp/ccSBYUf5.s 			page 41


 1131              		.loc 2 409 39 view .LVU356
 1132 006a 057C     		ldrb	r5, [r0, #16]	@ zero_extendqisi2
 409:Middlewares/lvgl/src/extra/layouts/flex/lv_flex.c ****                 grow_value_sum += t->grow_dsc[i].grow_value;
 1133              		.loc 2 409 15 view .LVU357
 1134 006c 15F0010F 		tst	r5, #1
 1135 0070 EFD1     		bne	.L64
 410:Middlewares/lvgl/src/extra/layouts/flex/lv_flex.c ****             } else {
 1136              		.loc 2 410 17 is_stmt 1 view .LVU358
 410:Middlewares/lvgl/src/extra/layouts/flex/lv_flex.c ****             } else {
 1137              		.loc 2 410 49 is_stmt 0 view .LVU359
 1138 0072 C068     		ldr	r0, [r0, #12]
 410:Middlewares/lvgl/src/extra/layouts/flex/lv_flex.c ****             } else {
 1139              		.loc 2 410 32 view .LVU360
 1140 0074 0144     		add	r1, r1, r0
 1141              	.LVL107:
 410:Middlewares/lvgl/src/extra/layouts/flex/lv_flex.c ****             } else {
 1142              		.loc 2 410 32 view .LVU361
 1143 0076 09B2     		sxth	r1, r1
 1144              	.LVL108:
 410:Middlewares/lvgl/src/extra/layouts/flex/lv_flex.c ****             } else {
 1145              		.loc 2 410 32 view .LVU362
 1146 0078 EEE7     		b	.L65
 1147              	.L110:
 405:Middlewares/lvgl/src/extra/layouts/flex/lv_flex.c ****         lv_coord_t grow_value_sum = 0;
 1148              		.loc 2 405 24 view .LVU363
 1149 007a 4FF0000E 		mov	lr, #0
 417:Middlewares/lvgl/src/extra/layouts/flex/lv_flex.c ****             if(t->grow_dsc[i].clamped == 0) {
 1150              		.loc 2 417 15 view .LVU364
 1151 007e 7046     		mov	r0, lr
 1152 0080 10E0     		b	.L67
 1153              	.LVL109:
 1154              	.L112:
 1155              	.LBB82:
 424:Middlewares/lvgl/src/extra/layouts/flex/lv_flex.c ****                     grow_reiterate = true;
 1156              		.loc 2 424 21 is_stmt 1 view .LVU365
 424:Middlewares/lvgl/src/extra/layouts/flex/lv_flex.c ****                     grow_reiterate = true;
 1157              		.loc 2 424 44 is_stmt 0 view .LVU366
 1158 0082 1D7C     		ldrb	r5, [r3, #16]	@ zero_extendqisi2
 1159              	.LVL110:
 424:Middlewares/lvgl/src/extra/layouts/flex/lv_flex.c ****                     grow_reiterate = true;
 1160              		.loc 2 424 44 view .LVU367
 1161 0084 45F00105 		orr	r5, r5, #1
 1162 0088 1D74     		strb	r5, [r3, #16]
 1163              	.LVL111:
 425:Middlewares/lvgl/src/extra/layouts/flex/lv_flex.c ****                 }
 1164              		.loc 2 425 21 is_stmt 1 view .LVU368
 425:Middlewares/lvgl/src/extra/layouts/flex/lv_flex.c ****                 }
 1165              		.loc 2 425 36 is_stmt 0 view .LVU369
 1166 008a E646     		mov	lr, ip
 1167              	.LVL112:
 1168              	.L69:
 427:Middlewares/lvgl/src/extra/layouts/flex/lv_flex.c ****                 grow_value_sum -= t->grow_dsc[i].grow_value;
 1169              		.loc 2 427 17 is_stmt 1 view .LVU370
 427:Middlewares/lvgl/src/extra/layouts/flex/lv_flex.c ****                 grow_value_sum -= t->grow_dsc[i].grow_value;
 1170              		.loc 2 427 18 is_stmt 0 view .LVU371
 1171 008c E368     		ldr	r3, [r4, #12]
 427:Middlewares/lvgl/src/extra/layouts/flex/lv_flex.c ****                 grow_value_sum -= t->grow_dsc[i].grow_value;
ARM GAS  /tmp/ccSBYUf5.s 			page 42


 1172              		.loc 2 427 28 view .LVU372
 1173 008e 3344     		add	r3, r3, r6
 427:Middlewares/lvgl/src/extra/layouts/flex/lv_flex.c ****                 grow_value_sum -= t->grow_dsc[i].grow_value;
 1174              		.loc 2 427 43 view .LVU373
 1175 0090 1F81     		strh	r7, [r3, #8]	@ movhi
 428:Middlewares/lvgl/src/extra/layouts/flex/lv_flex.c ****                 grow_max_size  -= t->grow_dsc[i].final_size;
 1176              		.loc 2 428 17 is_stmt 1 view .LVU374
 428:Middlewares/lvgl/src/extra/layouts/flex/lv_flex.c ****                 grow_max_size  -= t->grow_dsc[i].final_size;
 1177              		.loc 2 428 36 is_stmt 0 view .LVU375
 1178 0092 E368     		ldr	r3, [r4, #12]
 428:Middlewares/lvgl/src/extra/layouts/flex/lv_flex.c ****                 grow_max_size  -= t->grow_dsc[i].final_size;
 1179              		.loc 2 428 46 view .LVU376
 1180 0094 3344     		add	r3, r3, r6
 428:Middlewares/lvgl/src/extra/layouts/flex/lv_flex.c ****                 grow_max_size  -= t->grow_dsc[i].final_size;
 1181              		.loc 2 428 49 view .LVU377
 1182 0096 DD68     		ldr	r5, [r3, #12]
 428:Middlewares/lvgl/src/extra/layouts/flex/lv_flex.c ****                 grow_max_size  -= t->grow_dsc[i].final_size;
 1183              		.loc 2 428 32 view .LVU378
 1184 0098 491B     		subs	r1, r1, r5
 1185              	.LVL113:
 428:Middlewares/lvgl/src/extra/layouts/flex/lv_flex.c ****                 grow_max_size  -= t->grow_dsc[i].final_size;
 1186              		.loc 2 428 32 view .LVU379
 1187 009a 09B2     		sxth	r1, r1
 1188              	.LVL114:
 429:Middlewares/lvgl/src/extra/layouts/flex/lv_flex.c ****             }
 1189              		.loc 2 429 17 is_stmt 1 view .LVU380
 429:Middlewares/lvgl/src/extra/layouts/flex/lv_flex.c ****             }
 1190              		.loc 2 429 49 is_stmt 0 view .LVU381
 1191 009c 1B89     		ldrh	r3, [r3, #8]
 429:Middlewares/lvgl/src/extra/layouts/flex/lv_flex.c ****             }
 1192              		.loc 2 429 32 view .LVU382
 1193 009e D21A     		subs	r2, r2, r3
 1194              	.LVL115:
 429:Middlewares/lvgl/src/extra/layouts/flex/lv_flex.c ****             }
 1195              		.loc 2 429 32 view .LVU383
 1196 00a0 12B2     		sxth	r2, r2
 1197              	.LVL116:
 1198              	.L68:
 429:Middlewares/lvgl/src/extra/layouts/flex/lv_flex.c ****             }
 1199              		.loc 2 429 32 view .LVU384
 1200              	.LBE82:
 417:Middlewares/lvgl/src/extra/layouts/flex/lv_flex.c ****             if(t->grow_dsc[i].clamped == 0) {
 1201              		.loc 2 417 42 is_stmt 1 discriminator 2 view .LVU385
 417:Middlewares/lvgl/src/extra/layouts/flex/lv_flex.c ****             if(t->grow_dsc[i].clamped == 0) {
 1202              		.loc 2 417 43 is_stmt 0 discriminator 2 view .LVU386
 1203 00a2 0130     		adds	r0, r0, #1
 1204              	.LVL117:
 1205              	.L67:
 417:Middlewares/lvgl/src/extra/layouts/flex/lv_flex.c ****             if(t->grow_dsc[i].clamped == 0) {
 1206              		.loc 2 417 20 is_stmt 1 discriminator 1 view .LVU387
 417:Middlewares/lvgl/src/extra/layouts/flex/lv_flex.c ****             if(t->grow_dsc[i].clamped == 0) {
 1207              		.loc 2 417 25 is_stmt 0 discriminator 1 view .LVU388
 1208 00a4 2369     		ldr	r3, [r4, #16]
 417:Middlewares/lvgl/src/extra/layouts/flex/lv_flex.c ****             if(t->grow_dsc[i].clamped == 0) {
 1209              		.loc 2 417 9 discriminator 1 view .LVU389
 1210 00a6 8342     		cmp	r3, r0
 1211 00a8 1CD9     		bls	.L111
ARM GAS  /tmp/ccSBYUf5.s 			page 43


 418:Middlewares/lvgl/src/extra/layouts/flex/lv_flex.c ****                 grow_unit = grow_max_size / grow_value_sum;
 1212              		.loc 2 418 13 is_stmt 1 view .LVU390
 418:Middlewares/lvgl/src/extra/layouts/flex/lv_flex.c ****                 grow_unit = grow_max_size / grow_value_sum;
 1213              		.loc 2 418 17 is_stmt 0 view .LVU391
 1214 00aa E368     		ldr	r3, [r4, #12]
 418:Middlewares/lvgl/src/extra/layouts/flex/lv_flex.c ****                 grow_unit = grow_max_size / grow_value_sum;
 1215              		.loc 2 418 27 view .LVU392
 1216 00ac 00EB8005 		add	r5, r0, r0, lsl #2
 1217 00b0 AE00     		lsls	r6, r5, #2
 1218 00b2 03EB8503 		add	r3, r3, r5, lsl #2
 418:Middlewares/lvgl/src/extra/layouts/flex/lv_flex.c ****                 grow_unit = grow_max_size / grow_value_sum;
 1219              		.loc 2 418 39 view .LVU393
 1220 00b6 1D7C     		ldrb	r5, [r3, #16]	@ zero_extendqisi2
 418:Middlewares/lvgl/src/extra/layouts/flex/lv_flex.c ****                 grow_unit = grow_max_size / grow_value_sum;
 1221              		.loc 2 418 15 view .LVU394
 1222 00b8 15F0010F 		tst	r5, #1
 1223 00bc F1D1     		bne	.L68
 1224              	.LBB83:
 419:Middlewares/lvgl/src/extra/layouts/flex/lv_flex.c ****                 lv_coord_t size = grow_unit * t->grow_dsc[i].grow_value;
 1225              		.loc 2 419 17 is_stmt 1 view .LVU395
 419:Middlewares/lvgl/src/extra/layouts/flex/lv_flex.c ****                 lv_coord_t size = grow_unit * t->grow_dsc[i].grow_value;
 1226              		.loc 2 419 43 is_stmt 0 view .LVU396
 1227 00be 92FBF1F5 		sdiv	r5, r2, r1
 420:Middlewares/lvgl/src/extra/layouts/flex/lv_flex.c ****                 lv_coord_t size_clamp = LV_CLAMP(t->grow_dsc[i].min_size, size, t->grow_dsc[i].max_
 1228              		.loc 2 420 17 is_stmt 1 view .LVU397
 420:Middlewares/lvgl/src/extra/layouts/flex/lv_flex.c ****                 lv_coord_t size_clamp = LV_CLAMP(t->grow_dsc[i].min_size, size, t->grow_dsc[i].max_
 1229              		.loc 2 420 61 is_stmt 0 view .LVU398
 1230 00c2 DF68     		ldr	r7, [r3, #12]
 420:Middlewares/lvgl/src/extra/layouts/flex/lv_flex.c ****                 lv_coord_t size_clamp = LV_CLAMP(t->grow_dsc[i].min_size, size, t->grow_dsc[i].max_
 1231              		.loc 2 420 28 view .LVU399
 1232 00c4 15FB07F5 		smulbb	r5, r5, r7
 1233 00c8 2DB2     		sxth	r5, r5
 1234              	.LVL118:
 421:Middlewares/lvgl/src/extra/layouts/flex/lv_flex.c **** 
 1235              		.loc 2 421 17 is_stmt 1 view .LVU400
 421:Middlewares/lvgl/src/extra/layouts/flex/lv_flex.c **** 
 1236              		.loc 2 421 41 is_stmt 0 view .LVU401
 1237 00ca B3F90670 		ldrsh	r7, [r3, #6]
 1238 00ce AF42     		cmp	r7, r5
 1239 00d0 A8BF     		it	ge
 1240 00d2 2F46     		movge	r7, r5
 1241 00d4 B3F90480 		ldrsh	r8, [r3, #4]
 421:Middlewares/lvgl/src/extra/layouts/flex/lv_flex.c **** 
 1242              		.loc 2 421 28 view .LVU402
 1243 00d8 4745     		cmp	r7, r8
 1244 00da B8BF     		it	lt
 1245 00dc 4746     		movlt	r7, r8
 1246              	.LVL119:
 423:Middlewares/lvgl/src/extra/layouts/flex/lv_flex.c ****                     t->grow_dsc[i].clamped = 1;
 1247              		.loc 2 423 17 is_stmt 1 view .LVU403
 423:Middlewares/lvgl/src/extra/layouts/flex/lv_flex.c ****                     t->grow_dsc[i].clamped = 1;
 1248              		.loc 2 423 19 is_stmt 0 view .LVU404
 1249 00de BD42     		cmp	r5, r7
 1250 00e0 CFD1     		bne	.L112
 1251 00e2 D3E7     		b	.L69
 1252              	.LVL120:
 1253              	.L111:
ARM GAS  /tmp/ccSBYUf5.s 			page 44


 423:Middlewares/lvgl/src/extra/layouts/flex/lv_flex.c ****                     t->grow_dsc[i].clamped = 1;
 1254              		.loc 2 423 19 view .LVU405
 1255              	.LBE83:
 1256 00e4 F446     		mov	ip, lr
 1257              	.LVL121:
 1258              	.L62:
 423:Middlewares/lvgl/src/extra/layouts/flex/lv_flex.c ****                     t->grow_dsc[i].clamped = 1;
 1259              		.loc 2 423 19 view .LVU406
 1260              	.LBE81:
 404:Middlewares/lvgl/src/extra/layouts/flex/lv_flex.c ****         grow_reiterate = false;
 1261              		.loc 2 404 10 is_stmt 1 view .LVU407
 1262 00e6 BCF1000F 		cmp	ip, #0
 1263 00ea 06D0     		beq	.L113
 1264              	.LBB84:
 405:Middlewares/lvgl/src/extra/layouts/flex/lv_flex.c ****         lv_coord_t grow_value_sum = 0;
 1265              		.loc 2 405 9 view .LVU408
 1266              	.LVL122:
 406:Middlewares/lvgl/src/extra/layouts/flex/lv_flex.c ****         lv_coord_t grow_max_size = t->track_main_size - t->track_fix_main_size;
 1267              		.loc 2 406 9 view .LVU409
 407:Middlewares/lvgl/src/extra/layouts/flex/lv_flex.c ****         for(i = 0; i < t->grow_item_cnt; i++) {
 1268              		.loc 2 407 9 view .LVU410
 407:Middlewares/lvgl/src/extra/layouts/flex/lv_flex.c ****         for(i = 0; i < t->grow_item_cnt; i++) {
 1269              		.loc 2 407 37 is_stmt 0 view .LVU411
 1270 00ec 6288     		ldrh	r2, [r4, #2]
 407:Middlewares/lvgl/src/extra/layouts/flex/lv_flex.c ****         for(i = 0; i < t->grow_item_cnt; i++) {
 1271              		.loc 2 407 58 view .LVU412
 1272 00ee A388     		ldrh	r3, [r4, #4]
 407:Middlewares/lvgl/src/extra/layouts/flex/lv_flex.c ****         for(i = 0; i < t->grow_item_cnt; i++) {
 1273              		.loc 2 407 55 view .LVU413
 1274 00f0 D21A     		subs	r2, r2, r3
 407:Middlewares/lvgl/src/extra/layouts/flex/lv_flex.c ****         for(i = 0; i < t->grow_item_cnt; i++) {
 1275              		.loc 2 407 20 view .LVU414
 1276 00f2 12B2     		sxth	r2, r2
 1277              	.LVL123:
 408:Middlewares/lvgl/src/extra/layouts/flex/lv_flex.c ****             if(t->grow_dsc[i].clamped == 0) {
 1278              		.loc 2 408 9 is_stmt 1 view .LVU415
 406:Middlewares/lvgl/src/extra/layouts/flex/lv_flex.c ****         lv_coord_t grow_max_size = t->track_main_size - t->track_fix_main_size;
 1279              		.loc 2 406 20 is_stmt 0 view .LVU416
 1280 00f4 0021     		movs	r1, #0
 408:Middlewares/lvgl/src/extra/layouts/flex/lv_flex.c ****             if(t->grow_dsc[i].clamped == 0) {
 1281              		.loc 2 408 15 view .LVU417
 1282 00f6 0B46     		mov	r3, r1
 408:Middlewares/lvgl/src/extra/layouts/flex/lv_flex.c ****             if(t->grow_dsc[i].clamped == 0) {
 1283              		.loc 2 408 9 view .LVU418
 1284 00f8 AFE7     		b	.L63
 1285              	.LVL124:
 1286              	.L113:
 408:Middlewares/lvgl/src/extra/layouts/flex/lv_flex.c ****             if(t->grow_dsc[i].clamped == 0) {
 1287              		.loc 2 408 9 view .LVU419
 1288              	.LBE84:
 435:Middlewares/lvgl/src/extra/layouts/flex/lv_flex.c **** 
 1289              		.loc 2 435 5 is_stmt 1 view .LVU420
 1290              	.LBB85:
 1291              	.LBI85:
  35:Middlewares/lvgl/src/extra/layouts/flex/../flex/../../../core/lv_obj_style_gen.h **** }
  36:Middlewares/lvgl/src/extra/layouts/flex/../flex/../../../core/lv_obj_style_gen.h **** 
  37:Middlewares/lvgl/src/extra/layouts/flex/../flex/../../../core/lv_obj_style_gen.h **** static inline lv_coord_t lv_obj_get_style_x(const struct _lv_obj_t * obj, uint32_t part)
ARM GAS  /tmp/ccSBYUf5.s 			page 45


  38:Middlewares/lvgl/src/extra/layouts/flex/../flex/../../../core/lv_obj_style_gen.h **** {
  39:Middlewares/lvgl/src/extra/layouts/flex/../flex/../../../core/lv_obj_style_gen.h ****     lv_style_value_t v = lv_obj_get_style_prop(obj, part, LV_STYLE_X);
  40:Middlewares/lvgl/src/extra/layouts/flex/../flex/../../../core/lv_obj_style_gen.h ****     return (lv_coord_t)v.num;
  41:Middlewares/lvgl/src/extra/layouts/flex/../flex/../../../core/lv_obj_style_gen.h **** }
  42:Middlewares/lvgl/src/extra/layouts/flex/../flex/../../../core/lv_obj_style_gen.h **** 
  43:Middlewares/lvgl/src/extra/layouts/flex/../flex/../../../core/lv_obj_style_gen.h **** static inline lv_coord_t lv_obj_get_style_y(const struct _lv_obj_t * obj, uint32_t part)
  44:Middlewares/lvgl/src/extra/layouts/flex/../flex/../../../core/lv_obj_style_gen.h **** {
  45:Middlewares/lvgl/src/extra/layouts/flex/../flex/../../../core/lv_obj_style_gen.h ****     lv_style_value_t v = lv_obj_get_style_prop(obj, part, LV_STYLE_Y);
  46:Middlewares/lvgl/src/extra/layouts/flex/../flex/../../../core/lv_obj_style_gen.h ****     return (lv_coord_t)v.num;
  47:Middlewares/lvgl/src/extra/layouts/flex/../flex/../../../core/lv_obj_style_gen.h **** }
  48:Middlewares/lvgl/src/extra/layouts/flex/../flex/../../../core/lv_obj_style_gen.h **** 
  49:Middlewares/lvgl/src/extra/layouts/flex/../flex/../../../core/lv_obj_style_gen.h **** static inline lv_align_t lv_obj_get_style_align(const struct _lv_obj_t * obj, uint32_t part)
  50:Middlewares/lvgl/src/extra/layouts/flex/../flex/../../../core/lv_obj_style_gen.h **** {
  51:Middlewares/lvgl/src/extra/layouts/flex/../flex/../../../core/lv_obj_style_gen.h ****     lv_style_value_t v = lv_obj_get_style_prop(obj, part, LV_STYLE_ALIGN);
  52:Middlewares/lvgl/src/extra/layouts/flex/../flex/../../../core/lv_obj_style_gen.h ****     return (lv_align_t)v.num;
  53:Middlewares/lvgl/src/extra/layouts/flex/../flex/../../../core/lv_obj_style_gen.h **** }
  54:Middlewares/lvgl/src/extra/layouts/flex/../flex/../../../core/lv_obj_style_gen.h **** 
  55:Middlewares/lvgl/src/extra/layouts/flex/../flex/../../../core/lv_obj_style_gen.h **** static inline lv_coord_t lv_obj_get_style_transform_width(const struct _lv_obj_t * obj, uint32_t pa
  56:Middlewares/lvgl/src/extra/layouts/flex/../flex/../../../core/lv_obj_style_gen.h **** {
  57:Middlewares/lvgl/src/extra/layouts/flex/../flex/../../../core/lv_obj_style_gen.h ****     lv_style_value_t v = lv_obj_get_style_prop(obj, part, LV_STYLE_TRANSFORM_WIDTH);
  58:Middlewares/lvgl/src/extra/layouts/flex/../flex/../../../core/lv_obj_style_gen.h ****     return (lv_coord_t)v.num;
  59:Middlewares/lvgl/src/extra/layouts/flex/../flex/../../../core/lv_obj_style_gen.h **** }
  60:Middlewares/lvgl/src/extra/layouts/flex/../flex/../../../core/lv_obj_style_gen.h **** 
  61:Middlewares/lvgl/src/extra/layouts/flex/../flex/../../../core/lv_obj_style_gen.h **** static inline lv_coord_t lv_obj_get_style_transform_height(const struct _lv_obj_t * obj, uint32_t p
  62:Middlewares/lvgl/src/extra/layouts/flex/../flex/../../../core/lv_obj_style_gen.h **** {
  63:Middlewares/lvgl/src/extra/layouts/flex/../flex/../../../core/lv_obj_style_gen.h ****     lv_style_value_t v = lv_obj_get_style_prop(obj, part, LV_STYLE_TRANSFORM_HEIGHT);
  64:Middlewares/lvgl/src/extra/layouts/flex/../flex/../../../core/lv_obj_style_gen.h ****     return (lv_coord_t)v.num;
  65:Middlewares/lvgl/src/extra/layouts/flex/../flex/../../../core/lv_obj_style_gen.h **** }
  66:Middlewares/lvgl/src/extra/layouts/flex/../flex/../../../core/lv_obj_style_gen.h **** 
  67:Middlewares/lvgl/src/extra/layouts/flex/../flex/../../../core/lv_obj_style_gen.h **** static inline lv_coord_t lv_obj_get_style_translate_x(const struct _lv_obj_t * obj, uint32_t part)
  68:Middlewares/lvgl/src/extra/layouts/flex/../flex/../../../core/lv_obj_style_gen.h **** {
  69:Middlewares/lvgl/src/extra/layouts/flex/../flex/../../../core/lv_obj_style_gen.h ****     lv_style_value_t v = lv_obj_get_style_prop(obj, part, LV_STYLE_TRANSLATE_X);
  70:Middlewares/lvgl/src/extra/layouts/flex/../flex/../../../core/lv_obj_style_gen.h ****     return (lv_coord_t)v.num;
  71:Middlewares/lvgl/src/extra/layouts/flex/../flex/../../../core/lv_obj_style_gen.h **** }
  72:Middlewares/lvgl/src/extra/layouts/flex/../flex/../../../core/lv_obj_style_gen.h **** 
  73:Middlewares/lvgl/src/extra/layouts/flex/../flex/../../../core/lv_obj_style_gen.h **** static inline lv_coord_t lv_obj_get_style_translate_y(const struct _lv_obj_t * obj, uint32_t part)
  74:Middlewares/lvgl/src/extra/layouts/flex/../flex/../../../core/lv_obj_style_gen.h **** {
  75:Middlewares/lvgl/src/extra/layouts/flex/../flex/../../../core/lv_obj_style_gen.h ****     lv_style_value_t v = lv_obj_get_style_prop(obj, part, LV_STYLE_TRANSLATE_Y);
  76:Middlewares/lvgl/src/extra/layouts/flex/../flex/../../../core/lv_obj_style_gen.h ****     return (lv_coord_t)v.num;
  77:Middlewares/lvgl/src/extra/layouts/flex/../flex/../../../core/lv_obj_style_gen.h **** }
  78:Middlewares/lvgl/src/extra/layouts/flex/../flex/../../../core/lv_obj_style_gen.h **** 
  79:Middlewares/lvgl/src/extra/layouts/flex/../flex/../../../core/lv_obj_style_gen.h **** static inline lv_coord_t lv_obj_get_style_transform_zoom(const struct _lv_obj_t * obj, uint32_t par
  80:Middlewares/lvgl/src/extra/layouts/flex/../flex/../../../core/lv_obj_style_gen.h **** {
  81:Middlewares/lvgl/src/extra/layouts/flex/../flex/../../../core/lv_obj_style_gen.h ****     lv_style_value_t v = lv_obj_get_style_prop(obj, part, LV_STYLE_TRANSFORM_ZOOM);
  82:Middlewares/lvgl/src/extra/layouts/flex/../flex/../../../core/lv_obj_style_gen.h ****     return (lv_coord_t)v.num;
  83:Middlewares/lvgl/src/extra/layouts/flex/../flex/../../../core/lv_obj_style_gen.h **** }
  84:Middlewares/lvgl/src/extra/layouts/flex/../flex/../../../core/lv_obj_style_gen.h **** 
  85:Middlewares/lvgl/src/extra/layouts/flex/../flex/../../../core/lv_obj_style_gen.h **** static inline lv_coord_t lv_obj_get_style_transform_angle(const struct _lv_obj_t * obj, uint32_t pa
  86:Middlewares/lvgl/src/extra/layouts/flex/../flex/../../../core/lv_obj_style_gen.h **** {
  87:Middlewares/lvgl/src/extra/layouts/flex/../flex/../../../core/lv_obj_style_gen.h ****     lv_style_value_t v = lv_obj_get_style_prop(obj, part, LV_STYLE_TRANSFORM_ANGLE);
  88:Middlewares/lvgl/src/extra/layouts/flex/../flex/../../../core/lv_obj_style_gen.h ****     return (lv_coord_t)v.num;
  89:Middlewares/lvgl/src/extra/layouts/flex/../flex/../../../core/lv_obj_style_gen.h **** }
  90:Middlewares/lvgl/src/extra/layouts/flex/../flex/../../../core/lv_obj_style_gen.h **** 
  91:Middlewares/lvgl/src/extra/layouts/flex/../flex/../../../core/lv_obj_style_gen.h **** static inline lv_coord_t lv_obj_get_style_pad_top(const struct _lv_obj_t * obj, uint32_t part)
  92:Middlewares/lvgl/src/extra/layouts/flex/../flex/../../../core/lv_obj_style_gen.h **** {
  93:Middlewares/lvgl/src/extra/layouts/flex/../flex/../../../core/lv_obj_style_gen.h ****     lv_style_value_t v = lv_obj_get_style_prop(obj, part, LV_STYLE_PAD_TOP);
  94:Middlewares/lvgl/src/extra/layouts/flex/../flex/../../../core/lv_obj_style_gen.h ****     return (lv_coord_t)v.num;
ARM GAS  /tmp/ccSBYUf5.s 			page 46


  95:Middlewares/lvgl/src/extra/layouts/flex/../flex/../../../core/lv_obj_style_gen.h **** }
  96:Middlewares/lvgl/src/extra/layouts/flex/../flex/../../../core/lv_obj_style_gen.h **** 
  97:Middlewares/lvgl/src/extra/layouts/flex/../flex/../../../core/lv_obj_style_gen.h **** static inline lv_coord_t lv_obj_get_style_pad_bottom(const struct _lv_obj_t * obj, uint32_t part)
  98:Middlewares/lvgl/src/extra/layouts/flex/../flex/../../../core/lv_obj_style_gen.h **** {
  99:Middlewares/lvgl/src/extra/layouts/flex/../flex/../../../core/lv_obj_style_gen.h ****     lv_style_value_t v = lv_obj_get_style_prop(obj, part, LV_STYLE_PAD_BOTTOM);
 100:Middlewares/lvgl/src/extra/layouts/flex/../flex/../../../core/lv_obj_style_gen.h ****     return (lv_coord_t)v.num;
 101:Middlewares/lvgl/src/extra/layouts/flex/../flex/../../../core/lv_obj_style_gen.h **** }
 102:Middlewares/lvgl/src/extra/layouts/flex/../flex/../../../core/lv_obj_style_gen.h **** 
 103:Middlewares/lvgl/src/extra/layouts/flex/../flex/../../../core/lv_obj_style_gen.h **** static inline lv_coord_t lv_obj_get_style_pad_left(const struct _lv_obj_t * obj, uint32_t part)
 104:Middlewares/lvgl/src/extra/layouts/flex/../flex/../../../core/lv_obj_style_gen.h **** {
 105:Middlewares/lvgl/src/extra/layouts/flex/../flex/../../../core/lv_obj_style_gen.h ****     lv_style_value_t v = lv_obj_get_style_prop(obj, part, LV_STYLE_PAD_LEFT);
 106:Middlewares/lvgl/src/extra/layouts/flex/../flex/../../../core/lv_obj_style_gen.h ****     return (lv_coord_t)v.num;
 107:Middlewares/lvgl/src/extra/layouts/flex/../flex/../../../core/lv_obj_style_gen.h **** }
 108:Middlewares/lvgl/src/extra/layouts/flex/../flex/../../../core/lv_obj_style_gen.h **** 
 109:Middlewares/lvgl/src/extra/layouts/flex/../flex/../../../core/lv_obj_style_gen.h **** static inline lv_coord_t lv_obj_get_style_pad_right(const struct _lv_obj_t * obj, uint32_t part)
 110:Middlewares/lvgl/src/extra/layouts/flex/../flex/../../../core/lv_obj_style_gen.h **** {
 111:Middlewares/lvgl/src/extra/layouts/flex/../flex/../../../core/lv_obj_style_gen.h ****     lv_style_value_t v = lv_obj_get_style_prop(obj, part, LV_STYLE_PAD_RIGHT);
 112:Middlewares/lvgl/src/extra/layouts/flex/../flex/../../../core/lv_obj_style_gen.h ****     return (lv_coord_t)v.num;
 113:Middlewares/lvgl/src/extra/layouts/flex/../flex/../../../core/lv_obj_style_gen.h **** }
 114:Middlewares/lvgl/src/extra/layouts/flex/../flex/../../../core/lv_obj_style_gen.h **** 
 115:Middlewares/lvgl/src/extra/layouts/flex/../flex/../../../core/lv_obj_style_gen.h **** static inline lv_coord_t lv_obj_get_style_pad_row(const struct _lv_obj_t * obj, uint32_t part)
 116:Middlewares/lvgl/src/extra/layouts/flex/../flex/../../../core/lv_obj_style_gen.h **** {
 117:Middlewares/lvgl/src/extra/layouts/flex/../flex/../../../core/lv_obj_style_gen.h ****     lv_style_value_t v = lv_obj_get_style_prop(obj, part, LV_STYLE_PAD_ROW);
 118:Middlewares/lvgl/src/extra/layouts/flex/../flex/../../../core/lv_obj_style_gen.h ****     return (lv_coord_t)v.num;
 119:Middlewares/lvgl/src/extra/layouts/flex/../flex/../../../core/lv_obj_style_gen.h **** }
 120:Middlewares/lvgl/src/extra/layouts/flex/../flex/../../../core/lv_obj_style_gen.h **** 
 121:Middlewares/lvgl/src/extra/layouts/flex/../flex/../../../core/lv_obj_style_gen.h **** static inline lv_coord_t lv_obj_get_style_pad_column(const struct _lv_obj_t * obj, uint32_t part)
 122:Middlewares/lvgl/src/extra/layouts/flex/../flex/../../../core/lv_obj_style_gen.h **** {
 123:Middlewares/lvgl/src/extra/layouts/flex/../flex/../../../core/lv_obj_style_gen.h ****     lv_style_value_t v = lv_obj_get_style_prop(obj, part, LV_STYLE_PAD_COLUMN);
 124:Middlewares/lvgl/src/extra/layouts/flex/../flex/../../../core/lv_obj_style_gen.h ****     return (lv_coord_t)v.num;
 125:Middlewares/lvgl/src/extra/layouts/flex/../flex/../../../core/lv_obj_style_gen.h **** }
 126:Middlewares/lvgl/src/extra/layouts/flex/../flex/../../../core/lv_obj_style_gen.h **** 
 127:Middlewares/lvgl/src/extra/layouts/flex/../flex/../../../core/lv_obj_style_gen.h **** static inline lv_coord_t lv_obj_get_style_radius(const struct _lv_obj_t * obj, uint32_t part)
 128:Middlewares/lvgl/src/extra/layouts/flex/../flex/../../../core/lv_obj_style_gen.h **** {
 129:Middlewares/lvgl/src/extra/layouts/flex/../flex/../../../core/lv_obj_style_gen.h ****     lv_style_value_t v = lv_obj_get_style_prop(obj, part, LV_STYLE_RADIUS);
 130:Middlewares/lvgl/src/extra/layouts/flex/../flex/../../../core/lv_obj_style_gen.h ****     return (lv_coord_t)v.num;
 131:Middlewares/lvgl/src/extra/layouts/flex/../flex/../../../core/lv_obj_style_gen.h **** }
 132:Middlewares/lvgl/src/extra/layouts/flex/../flex/../../../core/lv_obj_style_gen.h **** 
 133:Middlewares/lvgl/src/extra/layouts/flex/../flex/../../../core/lv_obj_style_gen.h **** static inline bool lv_obj_get_style_clip_corner(const struct _lv_obj_t * obj, uint32_t part)
 134:Middlewares/lvgl/src/extra/layouts/flex/../flex/../../../core/lv_obj_style_gen.h **** {
 135:Middlewares/lvgl/src/extra/layouts/flex/../flex/../../../core/lv_obj_style_gen.h ****     lv_style_value_t v = lv_obj_get_style_prop(obj, part, LV_STYLE_CLIP_CORNER);
 136:Middlewares/lvgl/src/extra/layouts/flex/../flex/../../../core/lv_obj_style_gen.h ****     return (bool)v.num;
 137:Middlewares/lvgl/src/extra/layouts/flex/../flex/../../../core/lv_obj_style_gen.h **** }
 138:Middlewares/lvgl/src/extra/layouts/flex/../flex/../../../core/lv_obj_style_gen.h **** 
 139:Middlewares/lvgl/src/extra/layouts/flex/../flex/../../../core/lv_obj_style_gen.h **** static inline lv_opa_t lv_obj_get_style_opa(const struct _lv_obj_t * obj, uint32_t part)
 140:Middlewares/lvgl/src/extra/layouts/flex/../flex/../../../core/lv_obj_style_gen.h **** {
 141:Middlewares/lvgl/src/extra/layouts/flex/../flex/../../../core/lv_obj_style_gen.h ****     lv_style_value_t v = lv_obj_get_style_prop(obj, part, LV_STYLE_OPA);
 142:Middlewares/lvgl/src/extra/layouts/flex/../flex/../../../core/lv_obj_style_gen.h ****     return (lv_opa_t)v.num;
 143:Middlewares/lvgl/src/extra/layouts/flex/../flex/../../../core/lv_obj_style_gen.h **** }
 144:Middlewares/lvgl/src/extra/layouts/flex/../flex/../../../core/lv_obj_style_gen.h **** 
 145:Middlewares/lvgl/src/extra/layouts/flex/../flex/../../../core/lv_obj_style_gen.h **** static inline const lv_color_filter_dsc_t * lv_obj_get_style_color_filter_dsc(const struct _lv_obj_
 146:Middlewares/lvgl/src/extra/layouts/flex/../flex/../../../core/lv_obj_style_gen.h **** {
 147:Middlewares/lvgl/src/extra/layouts/flex/../flex/../../../core/lv_obj_style_gen.h ****     lv_style_value_t v = lv_obj_get_style_prop(obj, part, LV_STYLE_COLOR_FILTER_DSC);
 148:Middlewares/lvgl/src/extra/layouts/flex/../flex/../../../core/lv_obj_style_gen.h ****     return (const lv_color_filter_dsc_t *)v.ptr;
 149:Middlewares/lvgl/src/extra/layouts/flex/../flex/../../../core/lv_obj_style_gen.h **** }
 150:Middlewares/lvgl/src/extra/layouts/flex/../flex/../../../core/lv_obj_style_gen.h **** 
 151:Middlewares/lvgl/src/extra/layouts/flex/../flex/../../../core/lv_obj_style_gen.h **** static inline lv_opa_t lv_obj_get_style_color_filter_opa(const struct _lv_obj_t * obj, uint32_t par
ARM GAS  /tmp/ccSBYUf5.s 			page 47


 152:Middlewares/lvgl/src/extra/layouts/flex/../flex/../../../core/lv_obj_style_gen.h **** {
 153:Middlewares/lvgl/src/extra/layouts/flex/../flex/../../../core/lv_obj_style_gen.h ****     lv_style_value_t v = lv_obj_get_style_prop(obj, part, LV_STYLE_COLOR_FILTER_OPA);
 154:Middlewares/lvgl/src/extra/layouts/flex/../flex/../../../core/lv_obj_style_gen.h ****     return (lv_opa_t)v.num;
 155:Middlewares/lvgl/src/extra/layouts/flex/../flex/../../../core/lv_obj_style_gen.h **** }
 156:Middlewares/lvgl/src/extra/layouts/flex/../flex/../../../core/lv_obj_style_gen.h **** 
 157:Middlewares/lvgl/src/extra/layouts/flex/../flex/../../../core/lv_obj_style_gen.h **** static inline uint32_t lv_obj_get_style_anim_time(const struct _lv_obj_t * obj, uint32_t part)
 158:Middlewares/lvgl/src/extra/layouts/flex/../flex/../../../core/lv_obj_style_gen.h **** {
 159:Middlewares/lvgl/src/extra/layouts/flex/../flex/../../../core/lv_obj_style_gen.h ****     lv_style_value_t v = lv_obj_get_style_prop(obj, part, LV_STYLE_ANIM_TIME);
 160:Middlewares/lvgl/src/extra/layouts/flex/../flex/../../../core/lv_obj_style_gen.h ****     return (uint32_t)v.num;
 161:Middlewares/lvgl/src/extra/layouts/flex/../flex/../../../core/lv_obj_style_gen.h **** }
 162:Middlewares/lvgl/src/extra/layouts/flex/../flex/../../../core/lv_obj_style_gen.h **** 
 163:Middlewares/lvgl/src/extra/layouts/flex/../flex/../../../core/lv_obj_style_gen.h **** static inline uint32_t lv_obj_get_style_anim_speed(const struct _lv_obj_t * obj, uint32_t part)
 164:Middlewares/lvgl/src/extra/layouts/flex/../flex/../../../core/lv_obj_style_gen.h **** {
 165:Middlewares/lvgl/src/extra/layouts/flex/../flex/../../../core/lv_obj_style_gen.h ****     lv_style_value_t v = lv_obj_get_style_prop(obj, part, LV_STYLE_ANIM_SPEED);
 166:Middlewares/lvgl/src/extra/layouts/flex/../flex/../../../core/lv_obj_style_gen.h ****     return (uint32_t)v.num;
 167:Middlewares/lvgl/src/extra/layouts/flex/../flex/../../../core/lv_obj_style_gen.h **** }
 168:Middlewares/lvgl/src/extra/layouts/flex/../flex/../../../core/lv_obj_style_gen.h **** 
 169:Middlewares/lvgl/src/extra/layouts/flex/../flex/../../../core/lv_obj_style_gen.h **** static inline const lv_style_transition_dsc_t * lv_obj_get_style_transition(const struct _lv_obj_t 
 170:Middlewares/lvgl/src/extra/layouts/flex/../flex/../../../core/lv_obj_style_gen.h **** {
 171:Middlewares/lvgl/src/extra/layouts/flex/../flex/../../../core/lv_obj_style_gen.h ****     lv_style_value_t v = lv_obj_get_style_prop(obj, part, LV_STYLE_TRANSITION);
 172:Middlewares/lvgl/src/extra/layouts/flex/../flex/../../../core/lv_obj_style_gen.h ****     return (const lv_style_transition_dsc_t *)v.ptr;
 173:Middlewares/lvgl/src/extra/layouts/flex/../flex/../../../core/lv_obj_style_gen.h **** }
 174:Middlewares/lvgl/src/extra/layouts/flex/../flex/../../../core/lv_obj_style_gen.h **** 
 175:Middlewares/lvgl/src/extra/layouts/flex/../flex/../../../core/lv_obj_style_gen.h **** static inline lv_blend_mode_t lv_obj_get_style_blend_mode(const struct _lv_obj_t * obj, uint32_t pa
 176:Middlewares/lvgl/src/extra/layouts/flex/../flex/../../../core/lv_obj_style_gen.h **** {
 177:Middlewares/lvgl/src/extra/layouts/flex/../flex/../../../core/lv_obj_style_gen.h ****     lv_style_value_t v = lv_obj_get_style_prop(obj, part, LV_STYLE_BLEND_MODE);
 178:Middlewares/lvgl/src/extra/layouts/flex/../flex/../../../core/lv_obj_style_gen.h ****     return (lv_blend_mode_t)v.num;
 179:Middlewares/lvgl/src/extra/layouts/flex/../flex/../../../core/lv_obj_style_gen.h **** }
 180:Middlewares/lvgl/src/extra/layouts/flex/../flex/../../../core/lv_obj_style_gen.h **** 
 181:Middlewares/lvgl/src/extra/layouts/flex/../flex/../../../core/lv_obj_style_gen.h **** static inline uint16_t lv_obj_get_style_layout(const struct _lv_obj_t * obj, uint32_t part)
 182:Middlewares/lvgl/src/extra/layouts/flex/../flex/../../../core/lv_obj_style_gen.h **** {
 183:Middlewares/lvgl/src/extra/layouts/flex/../flex/../../../core/lv_obj_style_gen.h ****     lv_style_value_t v = lv_obj_get_style_prop(obj, part, LV_STYLE_LAYOUT);
 184:Middlewares/lvgl/src/extra/layouts/flex/../flex/../../../core/lv_obj_style_gen.h ****     return (uint16_t)v.num;
 185:Middlewares/lvgl/src/extra/layouts/flex/../flex/../../../core/lv_obj_style_gen.h **** }
 186:Middlewares/lvgl/src/extra/layouts/flex/../flex/../../../core/lv_obj_style_gen.h **** 
 187:Middlewares/lvgl/src/extra/layouts/flex/../flex/../../../core/lv_obj_style_gen.h **** static inline lv_base_dir_t lv_obj_get_style_base_dir(const struct _lv_obj_t * obj, uint32_t part)
 1292              		.loc 3 187 29 view .LVU421
 1293              	.LBB86:
 188:Middlewares/lvgl/src/extra/layouts/flex/../flex/../../../core/lv_obj_style_gen.h **** {
 189:Middlewares/lvgl/src/extra/layouts/flex/../flex/../../../core/lv_obj_style_gen.h ****     lv_style_value_t v = lv_obj_get_style_prop(obj, part, LV_STYLE_BASE_DIR);
 1294              		.loc 3 189 5 view .LVU422
 1295              		.loc 3 189 26 is_stmt 0 view .LVU423
 1296 00fa 41F26A42 		movw	r2, #5226
 1297 00fe 0021     		movs	r1, #0
 1298 0100 0498     		ldr	r0, [sp, #16]
 1299 0102 FFF7FEFF 		bl	lv_obj_get_style_prop
 1300              	.LVL125:
 190:Middlewares/lvgl/src/extra/layouts/flex/../flex/../../../core/lv_obj_style_gen.h ****     return (lv_base_dir_t)v.num;
 1301              		.loc 3 190 5 is_stmt 1 view .LVU424
 1302              		.loc 3 190 12 is_stmt 0 view .LVU425
 1303 0106 C5B2     		uxtb	r5, r0
 1304 0108 0A95     		str	r5, [sp, #40]
 1305              	.LVL126:
 1306              		.loc 3 190 12 view .LVU426
 1307              	.LBE86:
 1308              	.LBE85:
 437:Middlewares/lvgl/src/extra/layouts/flex/lv_flex.c **** 
ARM GAS  /tmp/ccSBYUf5.s 			page 48


 1309              		.loc 2 437 5 is_stmt 1 view .LVU427
 437:Middlewares/lvgl/src/extra/layouts/flex/lv_flex.c **** 
 1310              		.loc 2 437 16 is_stmt 0 view .LVU428
 1311 010a 0023     		movs	r3, #0
 1312 010c ADF84630 		strh	r3, [sp, #70]	@ movhi
 439:Middlewares/lvgl/src/extra/layouts/flex/lv_flex.c ****     place_content(f->main_place, max_main_size, t->track_main_size, t->item_cnt, &main_pos, &place_
 1313              		.loc 2 439 5 is_stmt 1 view .LVU429
 439:Middlewares/lvgl/src/extra/layouts/flex/lv_flex.c ****     place_content(f->main_place, max_main_size, t->track_main_size, t->item_cnt, &main_pos, &place_
 1314              		.loc 2 439 16 is_stmt 0 view .LVU430
 1315 0110 ADF84430 		strh	r3, [sp, #68]	@ movhi
 440:Middlewares/lvgl/src/extra/layouts/flex/lv_flex.c ****     if(f->row && rtl) main_pos += lv_obj_get_content_width(cont);
 1316              		.loc 2 440 5 is_stmt 1 view .LVU431
 1317 0114 11AB     		add	r3, sp, #68
 1318 0116 0193     		str	r3, [sp, #4]
 1319 0118 0DF14603 		add	r3, sp, #70
 1320 011c 0093     		str	r3, [sp]
 1321 011e B4F90830 		ldrsh	r3, [r4, #8]
 1322 0122 B4F90220 		ldrsh	r2, [r4, #2]
 1323 0126 BDF97810 		ldrsh	r1, [sp, #120]
 1324 012a 99F80000 		ldrb	r0, [r9]	@ zero_extendqisi2
 1325 012e FFF7FEFF 		bl	place_content
 1326              	.LVL127:
 441:Middlewares/lvgl/src/extra/layouts/flex/lv_flex.c **** 
 1327              		.loc 2 441 5 view .LVU432
 441:Middlewares/lvgl/src/extra/layouts/flex/lv_flex.c **** 
 1328              		.loc 2 441 8 is_stmt 0 view .LVU433
 1329 0132 99F80330 		ldrb	r3, [r9, #3]	@ zero_extendqisi2
 441:Middlewares/lvgl/src/extra/layouts/flex/lv_flex.c **** 
 1330              		.loc 2 441 7 view .LVU434
 1331 0136 13F0010F 		tst	r3, #1
 1332 013a 01D0     		beq	.L72
 441:Middlewares/lvgl/src/extra/layouts/flex/lv_flex.c **** 
 1333              		.loc 2 441 15 discriminator 1 view .LVU435
 1334 013c 012D     		cmp	r5, #1
 1335 013e 05D0     		beq	.L114
 1336              	.L72:
 443:Middlewares/lvgl/src/extra/layouts/flex/lv_flex.c ****     /*Reposition the children*/
 1337              		.loc 2 443 5 is_stmt 1 view .LVU436
 443:Middlewares/lvgl/src/extra/layouts/flex/lv_flex.c ****     /*Reposition the children*/
 1338              		.loc 2 443 23 is_stmt 0 view .LVU437
 1339 0140 0D99     		ldr	r1, [sp, #52]
 1340 0142 0498     		ldr	r0, [sp, #16]
 1341 0144 FFF7FEFF 		bl	lv_obj_get_child
 1342              	.LVL128:
 1343 0148 0546     		mov	r5, r0
 1344              	.LVL129:
 445:Middlewares/lvgl/src/extra/layouts/flex/lv_flex.c ****         if(lv_obj_has_flag_any(item, LV_OBJ_FLAG_IGNORE_LAYOUT | LV_OBJ_FLAG_HIDDEN | LV_OBJ_FLAG_F
 1345              		.loc 2 445 5 is_stmt 1 view .LVU438
 445:Middlewares/lvgl/src/extra/layouts/flex/lv_flex.c ****         if(lv_obj_has_flag_any(item, LV_OBJ_FLAG_IGNORE_LAYOUT | LV_OBJ_FLAG_HIDDEN | LV_OBJ_FLAG_F
 1346              		.loc 2 445 10 is_stmt 0 view .LVU439
 1347 014a F0E0     		b	.L73
 1348              	.LVL130:
 1349              	.L114:
 441:Middlewares/lvgl/src/extra/layouts/flex/lv_flex.c **** 
 1350              		.loc 2 441 23 is_stmt 1 discriminator 2 view .LVU440
 441:Middlewares/lvgl/src/extra/layouts/flex/lv_flex.c **** 
 1351              		.loc 2 441 35 is_stmt 0 discriminator 2 view .LVU441
ARM GAS  /tmp/ccSBYUf5.s 			page 49


 1352 014c 0498     		ldr	r0, [sp, #16]
 1353 014e FFF7FEFF 		bl	lv_obj_get_content_width
 1354              	.LVL131:
 441:Middlewares/lvgl/src/extra/layouts/flex/lv_flex.c **** 
 1355              		.loc 2 441 32 discriminator 2 view .LVU442
 1356 0152 BDF84630 		ldrh	r3, [sp, #70]
 1357 0156 13FA80F3 		uxtah	r3, r3, r0
 1358 015a ADF84630 		strh	r3, [sp, #70]	@ movhi
 1359 015e EFE7     		b	.L72
 1360              	.LVL132:
 1361              	.L122:
 1362              	.LBB87:
 447:Middlewares/lvgl/src/extra/layouts/flex/lv_flex.c ****             continue;
 1363              		.loc 2 447 13 is_stmt 1 view .LVU443
 447:Middlewares/lvgl/src/extra/layouts/flex/lv_flex.c ****             continue;
 1364              		.loc 2 447 41 is_stmt 0 view .LVU444
 1365 0160 99F80310 		ldrb	r1, [r9, #3]	@ zero_extendqisi2
 447:Middlewares/lvgl/src/extra/layouts/flex/lv_flex.c ****             continue;
 1366              		.loc 2 447 20 view .LVU445
 1367 0164 0DAA     		add	r2, sp, #52
 1368 0166 C1F38001 		ubfx	r1, r1, #2, #1
 1369 016a 0498     		ldr	r0, [sp, #16]
 1370 016c FFF7FEFF 		bl	get_next_item
 1371              	.LVL133:
 1372 0170 0546     		mov	r5, r0
 1373              	.LVL134:
 448:Middlewares/lvgl/src/extra/layouts/flex/lv_flex.c ****         }
 1374              		.loc 2 448 13 is_stmt 1 view .LVU446
 1375 0172 DCE0     		b	.L73
 1376              	.LVL135:
 1377              	.L116:
 1378              	.LBB88:
 455:Middlewares/lvgl/src/extra/layouts/flex/lv_flex.c ****                     break;
 1379              		.loc 2 455 21 view .LVU447
 455:Middlewares/lvgl/src/extra/layouts/flex/lv_flex.c ****                     break;
 1380              		.loc 2 455 23 is_stmt 0 view .LVU448
 1381 0174 B0F90870 		ldrsh	r7, [r0, #8]
 1382              	.LVL136:
 456:Middlewares/lvgl/src/extra/layouts/flex/lv_flex.c ****                 }
 1383              		.loc 2 456 21 is_stmt 1 view .LVU449
 1384 0178 0FE0     		b	.L79
 1385              	.LVL137:
 1386              	.L123:
 453:Middlewares/lvgl/src/extra/layouts/flex/lv_flex.c ****                 if(t->grow_dsc[i].item == item) {
 1387              		.loc 2 453 19 is_stmt 0 view .LVU450
 1388 017a 0023     		movs	r3, #0
 1389              	.LVL138:
 1390              	.L76:
 453:Middlewares/lvgl/src/extra/layouts/flex/lv_flex.c ****                 if(t->grow_dsc[i].item == item) {
 1391              		.loc 2 453 24 is_stmt 1 discriminator 1 view .LVU451
 453:Middlewares/lvgl/src/extra/layouts/flex/lv_flex.c ****                 if(t->grow_dsc[i].item == item) {
 1392              		.loc 2 453 29 is_stmt 0 discriminator 1 view .LVU452
 1393 017c 2269     		ldr	r2, [r4, #16]
 453:Middlewares/lvgl/src/extra/layouts/flex/lv_flex.c ****                 if(t->grow_dsc[i].item == item) {
 1394              		.loc 2 453 13 discriminator 1 view .LVU453
 1395 017e 9A42     		cmp	r2, r3
 1396 0180 0AD9     		bls	.L115
ARM GAS  /tmp/ccSBYUf5.s 			page 50


 454:Middlewares/lvgl/src/extra/layouts/flex/lv_flex.c ****                     s = t->grow_dsc[i].final_size;
 1397              		.loc 2 454 17 is_stmt 1 view .LVU454
 454:Middlewares/lvgl/src/extra/layouts/flex/lv_flex.c ****                     s = t->grow_dsc[i].final_size;
 1398              		.loc 2 454 21 is_stmt 0 view .LVU455
 1399 0182 E268     		ldr	r2, [r4, #12]
 454:Middlewares/lvgl/src/extra/layouts/flex/lv_flex.c ****                     s = t->grow_dsc[i].final_size;
 1400              		.loc 2 454 31 view .LVU456
 1401 0184 03EB8301 		add	r1, r3, r3, lsl #2
 1402 0188 02EB8100 		add	r0, r2, r1, lsl #2
 454:Middlewares/lvgl/src/extra/layouts/flex/lv_flex.c ****                     s = t->grow_dsc[i].final_size;
 1403              		.loc 2 454 34 view .LVU457
 1404 018c 52F82120 		ldr	r2, [r2, r1, lsl #2]
 454:Middlewares/lvgl/src/extra/layouts/flex/lv_flex.c ****                     s = t->grow_dsc[i].final_size;
 1405              		.loc 2 454 19 view .LVU458
 1406 0190 AA42     		cmp	r2, r5
 1407 0192 EFD0     		beq	.L116
 453:Middlewares/lvgl/src/extra/layouts/flex/lv_flex.c ****                 if(t->grow_dsc[i].item == item) {
 1408              		.loc 2 453 46 is_stmt 1 discriminator 2 view .LVU459
 453:Middlewares/lvgl/src/extra/layouts/flex/lv_flex.c ****                 if(t->grow_dsc[i].item == item) {
 1409              		.loc 2 453 47 is_stmt 0 discriminator 2 view .LVU460
 1410 0194 0133     		adds	r3, r3, #1
 1411              	.LVL139:
 453:Middlewares/lvgl/src/extra/layouts/flex/lv_flex.c ****                 if(t->grow_dsc[i].item == item) {
 1412              		.loc 2 453 47 discriminator 2 view .LVU461
 1413 0196 F1E7     		b	.L76
 1414              	.L115:
 452:Middlewares/lvgl/src/extra/layouts/flex/lv_flex.c ****             for(i = 0; i < t->grow_item_cnt; i++) {
 1415              		.loc 2 452 24 view .LVU462
 1416 0198 0027     		movs	r7, #0
 1417              	.L79:
 1418              	.LVL140:
 460:Middlewares/lvgl/src/extra/layouts/flex/lv_flex.c ****             else item->h_layout = 1;
 1419              		.loc 2 460 13 is_stmt 1 view .LVU463
 460:Middlewares/lvgl/src/extra/layouts/flex/lv_flex.c ****             else item->h_layout = 1;
 1420              		.loc 2 460 16 is_stmt 0 view .LVU464
 1421 019a 99F80330 		ldrb	r3, [r9, #3]	@ zero_extendqisi2
 1422              	.LVL141:
 460:Middlewares/lvgl/src/extra/layouts/flex/lv_flex.c ****             else item->h_layout = 1;
 1423              		.loc 2 460 15 view .LVU465
 1424 019e 13F0010F 		tst	r3, #1
 1425 01a2 34D0     		beq	.L81
 460:Middlewares/lvgl/src/extra/layouts/flex/lv_flex.c ****             else item->h_layout = 1;
 1426              		.loc 2 460 24 is_stmt 1 discriminator 1 view .LVU466
 460:Middlewares/lvgl/src/extra/layouts/flex/lv_flex.c ****             else item->h_layout = 1;
 1427              		.loc 2 460 39 is_stmt 0 discriminator 1 view .LVU467
 1428 01a4 95F82330 		ldrb	r3, [r5, #35]	@ zero_extendqisi2
 1429 01a8 43F00403 		orr	r3, r3, #4
 1430 01ac 85F82330 		strb	r3, [r5, #35]
 1431              	.L82:
 463:Middlewares/lvgl/src/extra/layouts/flex/lv_flex.c ****                 lv_obj_invalidate(item);
 1432              		.loc 2 463 13 is_stmt 1 view .LVU468
 463:Middlewares/lvgl/src/extra/layouts/flex/lv_flex.c ****                 lv_obj_invalidate(item);
 1433              		.loc 2 463 40 is_stmt 0 view .LVU469
 1434 01b0 05F11406 		add	r6, r5, #20
 463:Middlewares/lvgl/src/extra/layouts/flex/lv_flex.c ****                 lv_obj_invalidate(item);
 1435              		.loc 2 463 21 view .LVU470
 1436 01b4 3046     		mov	r0, r6
ARM GAS  /tmp/ccSBYUf5.s 			page 51


 1437 01b6 069B     		ldr	r3, [sp, #24]
 1438 01b8 9847     		blx	r3
 1439              	.LVL142:
 463:Middlewares/lvgl/src/extra/layouts/flex/lv_flex.c ****                 lv_obj_invalidate(item);
 1440              		.loc 2 463 15 view .LVU471
 1441 01ba B842     		cmp	r0, r7
 1442 01bc 00F0DA80 		beq	.L83
 1443              	.LBB89:
 464:Middlewares/lvgl/src/extra/layouts/flex/lv_flex.c **** 
 1444              		.loc 2 464 17 is_stmt 1 view .LVU472
 1445 01c0 2846     		mov	r0, r5
 1446 01c2 FFF7FEFF 		bl	lv_obj_invalidate
 1447              	.LVL143:
 466:Middlewares/lvgl/src/extra/layouts/flex/lv_flex.c ****                 lv_area_copy(&old_coords, &item->coords);
 1448              		.loc 2 466 17 view .LVU473
 467:Middlewares/lvgl/src/extra/layouts/flex/lv_flex.c ****                 area_set_main_size(&item->coords, s);
 1449              		.loc 2 467 17 view .LVU474
 1450              	.LBB90:
 1451              	.LBI90:
 120:Middlewares/lvgl/src/extra/layouts/flex/../flex/../../../core/../misc/../font/../misc/lv_area.h **** {
 1452              		.loc 1 120 20 view .LVU475
 1453              	.LBB91:
 122:Middlewares/lvgl/src/extra/layouts/flex/../flex/../../../core/../misc/../font/../misc/lv_area.h ****     dest->y1 = src->y1;
 1454              		.loc 1 122 5 view .LVU476
 122:Middlewares/lvgl/src/extra/layouts/flex/../flex/../../../core/../misc/../font/../misc/lv_area.h ****     dest->y1 = src->y1;
 1455              		.loc 1 122 19 is_stmt 0 view .LVU477
 1456 01c6 B5F91430 		ldrsh	r3, [r5, #20]
 122:Middlewares/lvgl/src/extra/layouts/flex/../flex/../../../core/../misc/../font/../misc/lv_area.h ****     dest->y1 = src->y1;
 1457              		.loc 1 122 14 view .LVU478
 1458 01ca ADF83C30 		strh	r3, [sp, #60]	@ movhi
 123:Middlewares/lvgl/src/extra/layouts/flex/../flex/../../../core/../misc/../font/../misc/lv_area.h ****     dest->x2 = src->x2;
 1459              		.loc 1 123 5 is_stmt 1 view .LVU479
 123:Middlewares/lvgl/src/extra/layouts/flex/../flex/../../../core/../misc/../font/../misc/lv_area.h ****     dest->x2 = src->x2;
 1460              		.loc 1 123 19 is_stmt 0 view .LVU480
 1461 01ce B5F91630 		ldrsh	r3, [r5, #22]
 123:Middlewares/lvgl/src/extra/layouts/flex/../flex/../../../core/../misc/../font/../misc/lv_area.h ****     dest->x2 = src->x2;
 1462              		.loc 1 123 14 view .LVU481
 1463 01d2 ADF83E30 		strh	r3, [sp, #62]	@ movhi
 124:Middlewares/lvgl/src/extra/layouts/flex/../flex/../../../core/../misc/../font/../misc/lv_area.h ****     dest->y2 = src->y2;
 1464              		.loc 1 124 5 is_stmt 1 view .LVU482
 124:Middlewares/lvgl/src/extra/layouts/flex/../flex/../../../core/../misc/../font/../misc/lv_area.h ****     dest->y2 = src->y2;
 1465              		.loc 1 124 19 is_stmt 0 view .LVU483
 1466 01d6 B5F91830 		ldrsh	r3, [r5, #24]
 124:Middlewares/lvgl/src/extra/layouts/flex/../flex/../../../core/../misc/../font/../misc/lv_area.h ****     dest->y2 = src->y2;
 1467              		.loc 1 124 14 view .LVU484
 1468 01da ADF84030 		strh	r3, [sp, #64]	@ movhi
 125:Middlewares/lvgl/src/extra/layouts/flex/../flex/../../../core/../misc/../font/../misc/lv_area.h **** }
 1469              		.loc 1 125 5 is_stmt 1 view .LVU485
 125:Middlewares/lvgl/src/extra/layouts/flex/../flex/../../../core/../misc/../font/../misc/lv_area.h **** }
 1470              		.loc 1 125 19 is_stmt 0 view .LVU486
 1471 01de B5F91A30 		ldrsh	r3, [r5, #26]
 125:Middlewares/lvgl/src/extra/layouts/flex/../flex/../../../core/../misc/../font/../misc/lv_area.h **** }
 1472              		.loc 1 125 14 view .LVU487
 1473 01e2 ADF84230 		strh	r3, [sp, #66]	@ movhi
 1474              	.LVL144:
 125:Middlewares/lvgl/src/extra/layouts/flex/../flex/../../../core/../misc/../font/../misc/lv_area.h **** }
 1475              		.loc 1 125 14 view .LVU488
ARM GAS  /tmp/ccSBYUf5.s 			page 52


 1476              	.LBE91:
 1477              	.LBE90:
 468:Middlewares/lvgl/src/extra/layouts/flex/lv_flex.c ****                 lv_event_send(item, LV_EVENT_SIZE_CHANGED, &old_coords);
 1478              		.loc 2 468 17 is_stmt 1 view .LVU489
 1479 01e6 3946     		mov	r1, r7
 1480 01e8 3046     		mov	r0, r6
 1481 01ea 0C9B     		ldr	r3, [sp, #48]
 1482 01ec 9847     		blx	r3
 1483              	.LVL145:
 469:Middlewares/lvgl/src/extra/layouts/flex/lv_flex.c ****                 lv_event_send(lv_obj_get_parent(item), LV_EVENT_CHILD_CHANGED, item);
 1484              		.loc 2 469 17 view .LVU490
 1485 01ee 0FAA     		add	r2, sp, #60
 1486 01f0 2321     		movs	r1, #35
 1487 01f2 2846     		mov	r0, r5
 1488 01f4 FFF7FEFF 		bl	lv_event_send
 1489              	.LVL146:
 470:Middlewares/lvgl/src/extra/layouts/flex/lv_flex.c ****                 lv_obj_invalidate(item);
 1490              		.loc 2 470 17 view .LVU491
 1491 01f8 2846     		mov	r0, r5
 1492 01fa FFF7FEFF 		bl	lv_obj_get_parent
 1493              	.LVL147:
 1494 01fe 2A46     		mov	r2, r5
 1495 0200 2221     		movs	r1, #34
 1496 0202 FFF7FEFF 		bl	lv_event_send
 1497              	.LVL148:
 471:Middlewares/lvgl/src/extra/layouts/flex/lv_flex.c ****             }
 1498              		.loc 2 471 17 view .LVU492
 1499 0206 2846     		mov	r0, r5
 1500 0208 FFF7FEFF 		bl	lv_obj_invalidate
 1501              	.LVL149:
 1502 020c B2E0     		b	.L83
 1503              	.L81:
 471:Middlewares/lvgl/src/extra/layouts/flex/lv_flex.c ****             }
 1504              		.loc 2 471 17 is_stmt 0 view .LVU493
 1505              	.LBE89:
 461:Middlewares/lvgl/src/extra/layouts/flex/lv_flex.c **** 
 1506              		.loc 2 461 18 is_stmt 1 view .LVU494
 461:Middlewares/lvgl/src/extra/layouts/flex/lv_flex.c **** 
 1507              		.loc 2 461 33 is_stmt 0 view .LVU495
 1508 020e 95F82330 		ldrb	r3, [r5, #35]	@ zero_extendqisi2
 1509 0212 43F00203 		orr	r3, r3, #2
 1510 0216 85F82330 		strb	r3, [r5, #35]
 1511 021a C9E7     		b	.L82
 1512              	.LVL150:
 1513              	.L124:
 461:Middlewares/lvgl/src/extra/layouts/flex/lv_flex.c **** 
 1514              		.loc 2 461 33 view .LVU496
 1515              	.LBE88:
 483:Middlewares/lvgl/src/extra/layouts/flex/lv_flex.c ****             break;
 1516              		.loc 2 483 99 view .LVU497
 1517 021c 0136     		adds	r6, r6, #1
 1518 021e BDE0     		b	.L86
 1519              	.L84:
 486:Middlewares/lvgl/src/extra/layouts/flex/lv_flex.c ****             break;
 1520              		.loc 2 486 13 is_stmt 1 view .LVU498
 486:Middlewares/lvgl/src/extra/layouts/flex/lv_flex.c ****             break;
 1521              		.loc 2 486 26 is_stmt 0 view .LVU499
ARM GAS  /tmp/ccSBYUf5.s 			page 53


 1522 0220 2688     		ldrh	r6, [r4]
 486:Middlewares/lvgl/src/extra/layouts/flex/lv_flex.c ****             break;
 1523              		.loc 2 486 47 view .LVU500
 1524 0222 05F11400 		add	r0, r5, #20
 1525 0226 0B9B     		ldr	r3, [sp, #44]
 1526 0228 9847     		blx	r3
 1527              	.LVL151:
 1528 022a 80B2     		uxth	r0, r0
 486:Middlewares/lvgl/src/extra/layouts/flex/lv_flex.c ****             break;
 1529              		.loc 2 486 45 view .LVU501
 1530 022c 361A     		subs	r6, r6, r0
 486:Middlewares/lvgl/src/extra/layouts/flex/lv_flex.c ****             break;
 1531              		.loc 2 486 23 view .LVU502
 1532 022e 33B2     		sxth	r3, r6
 1533 0230 0393     		str	r3, [sp, #12]
 1534              	.LVL152:
 487:Middlewares/lvgl/src/extra/layouts/flex/lv_flex.c ****         default:
 1535              		.loc 2 487 13 is_stmt 1 view .LVU503
 1536 0232 09E0     		b	.L85
 1537              	.L126:
 1538              		.align	2
 1539              	.L125:
 1540 0234 00000000 		.word	lv_area_set_width
 1541 0238 00000000 		.word	lv_area_get_width
 1542 023c 00000000 		.word	lv_area_set_height
 1543 0240 00000000 		.word	lv_area_get_height
 1544              	.LVL153:
 1545              	.L107:
 479:Middlewares/lvgl/src/extra/layouts/flex/lv_flex.c ****         case LV_FLEX_ALIGN_CENTER:
 1546              		.loc 2 479 9 is_stmt 0 view .LVU504
 1547 0244 0023     		movs	r3, #0
 1548 0246 0393     		str	r3, [sp, #12]
 1549              	.LVL154:
 1550              	.L85:
 492:Middlewares/lvgl/src/extra/layouts/flex/lv_flex.c **** 
 1551              		.loc 2 492 9 is_stmt 1 view .LVU505
 492:Middlewares/lvgl/src/extra/layouts/flex/lv_flex.c **** 
 1552              		.loc 2 492 12 is_stmt 0 view .LVU506
 1553 0248 99F80330 		ldrb	r3, [r9, #3]	@ zero_extendqisi2
 492:Middlewares/lvgl/src/extra/layouts/flex/lv_flex.c **** 
 1554              		.loc 2 492 11 view .LVU507
 1555 024c 13F0010F 		tst	r3, #1
 1556 0250 03D0     		beq	.L87
 492:Middlewares/lvgl/src/extra/layouts/flex/lv_flex.c **** 
 1557              		.loc 2 492 19 discriminator 1 view .LVU508
 1558 0252 0A9B     		ldr	r3, [sp, #40]
 1559 0254 012B     		cmp	r3, #1
 1560 0256 00F0A580 		beq	.L117
 1561              	.L87:
 496:Middlewares/lvgl/src/extra/layouts/flex/lv_flex.c ****         lv_coord_t tr_y = lv_obj_get_style_translate_y(item, LV_PART_MAIN);
 1562              		.loc 2 496 9 is_stmt 1 view .LVU509
 1563              	.LVL155:
 1564              	.LBB92:
 1565              	.LBI92:
  67:Middlewares/lvgl/src/extra/layouts/flex/../flex/../../../core/lv_obj_style_gen.h **** {
 1566              		.loc 3 67 26 view .LVU510
 1567              	.LBB93:
ARM GAS  /tmp/ccSBYUf5.s 			page 54


  69:Middlewares/lvgl/src/extra/layouts/flex/../flex/../../../core/lv_obj_style_gen.h ****     return (lv_coord_t)v.num;
 1568              		.loc 3 69 5 view .LVU511
  69:Middlewares/lvgl/src/extra/layouts/flex/../flex/../../../core/lv_obj_style_gen.h ****     return (lv_coord_t)v.num;
 1569              		.loc 3 69 26 is_stmt 0 view .LVU512
 1570 025a 43F20C02 		movw	r2, #12300
 1571 025e 0021     		movs	r1, #0
 1572 0260 2846     		mov	r0, r5
 1573 0262 FFF7FEFF 		bl	lv_obj_get_style_prop
 1574              	.LVL156:
 1575 0266 0746     		mov	r7, r0
 1576              	.LVL157:
  70:Middlewares/lvgl/src/extra/layouts/flex/../flex/../../../core/lv_obj_style_gen.h **** }
 1577              		.loc 3 70 5 is_stmt 1 view .LVU513
  70:Middlewares/lvgl/src/extra/layouts/flex/../flex/../../../core/lv_obj_style_gen.h **** }
 1578              		.loc 3 70 12 is_stmt 0 view .LVU514
 1579 0268 0FFA80FB 		sxth	fp, r0
 1580              	.LVL158:
  70:Middlewares/lvgl/src/extra/layouts/flex/../flex/../../../core/lv_obj_style_gen.h **** }
 1581              		.loc 3 70 12 view .LVU515
 1582              	.LBE93:
 1583              	.LBE92:
 497:Middlewares/lvgl/src/extra/layouts/flex/lv_flex.c ****         lv_coord_t w = lv_obj_get_width(item);
 1584              		.loc 2 497 9 is_stmt 1 view .LVU516
 1585              	.LBB94:
 1586              	.LBI94:
  73:Middlewares/lvgl/src/extra/layouts/flex/../flex/../../../core/lv_obj_style_gen.h **** {
 1587              		.loc 3 73 26 view .LVU517
 1588              	.LBB95:
  75:Middlewares/lvgl/src/extra/layouts/flex/../flex/../../../core/lv_obj_style_gen.h ****     return (lv_coord_t)v.num;
 1589              		.loc 3 75 5 view .LVU518
  75:Middlewares/lvgl/src/extra/layouts/flex/../flex/../../../core/lv_obj_style_gen.h ****     return (lv_coord_t)v.num;
 1590              		.loc 3 75 26 is_stmt 0 view .LVU519
 1591 026c 43F20D02 		movw	r2, #12301
 1592 0270 0021     		movs	r1, #0
 1593 0272 2846     		mov	r0, r5
  75:Middlewares/lvgl/src/extra/layouts/flex/../flex/../../../core/lv_obj_style_gen.h ****     return (lv_coord_t)v.num;
 1594              		.loc 3 75 26 view .LVU520
 1595 0274 FFF7FEFF 		bl	lv_obj_get_style_prop
 1596              	.LVL159:
 1597 0278 0646     		mov	r6, r0
  76:Middlewares/lvgl/src/extra/layouts/flex/../flex/../../../core/lv_obj_style_gen.h **** }
 1598              		.loc 3 76 5 is_stmt 1 view .LVU521
  76:Middlewares/lvgl/src/extra/layouts/flex/../flex/../../../core/lv_obj_style_gen.h **** }
 1599              		.loc 3 76 12 is_stmt 0 view .LVU522
 1600 027a 0FFA80FA 		sxth	r10, r0
 1601              	.LVL160:
  76:Middlewares/lvgl/src/extra/layouts/flex/../flex/../../../core/lv_obj_style_gen.h **** }
 1602              		.loc 3 76 12 view .LVU523
 1603              	.LBE95:
 1604              	.LBE94:
 498:Middlewares/lvgl/src/extra/layouts/flex/lv_flex.c ****         lv_coord_t h = lv_obj_get_height(item);
 1605              		.loc 2 498 9 is_stmt 1 view .LVU524
 498:Middlewares/lvgl/src/extra/layouts/flex/lv_flex.c ****         lv_coord_t h = lv_obj_get_height(item);
 1606              		.loc 2 498 24 is_stmt 0 view .LVU525
 1607 027e 2846     		mov	r0, r5
 1608 0280 FFF7FEFF 		bl	lv_obj_get_width
 1609              	.LVL161:
ARM GAS  /tmp/ccSBYUf5.s 			page 55


 1610 0284 8046     		mov	r8, r0
 1611              	.LVL162:
 499:Middlewares/lvgl/src/extra/layouts/flex/lv_flex.c ****         if(LV_COORD_IS_PCT(tr_x)) tr_x = (w * LV_COORD_GET_PCT(tr_x)) / 100;
 1612              		.loc 2 499 9 is_stmt 1 view .LVU526
 499:Middlewares/lvgl/src/extra/layouts/flex/lv_flex.c ****         if(LV_COORD_IS_PCT(tr_x)) tr_x = (w * LV_COORD_GET_PCT(tr_x)) / 100;
 1613              		.loc 2 499 24 is_stmt 0 view .LVU527
 1614 0286 2846     		mov	r0, r5
 1615 0288 FFF7FEFF 		bl	lv_obj_get_height
 1616              	.LVL163:
 500:Middlewares/lvgl/src/extra/layouts/flex/lv_flex.c ****         if(LV_COORD_IS_PCT(tr_y)) tr_y = (h * LV_COORD_GET_PCT(tr_y)) / 100;
 1617              		.loc 2 500 9 is_stmt 1 view .LVU528
 500:Middlewares/lvgl/src/extra/layouts/flex/lv_flex.c ****         if(LV_COORD_IS_PCT(tr_y)) tr_y = (h * LV_COORD_GET_PCT(tr_y)) / 100;
 1618              		.loc 2 500 12 is_stmt 0 view .LVU529
 1619 028c 07F4C047 		and	r7, r7, #24576
 1620              	.LVL164:
 500:Middlewares/lvgl/src/extra/layouts/flex/lv_flex.c ****         if(LV_COORD_IS_PCT(tr_y)) tr_y = (h * LV_COORD_GET_PCT(tr_y)) / 100;
 1621              		.loc 2 500 11 view .LVU530
 1622 0290 B7F5005F 		cmp	r7, #8192
 1623 0294 00F09180 		beq	.L118
 1624              	.LVL165:
 1625              	.L88:
 501:Middlewares/lvgl/src/extra/layouts/flex/lv_flex.c **** 
 1626              		.loc 2 501 9 is_stmt 1 view .LVU531
 501:Middlewares/lvgl/src/extra/layouts/flex/lv_flex.c **** 
 1627              		.loc 2 501 12 is_stmt 0 view .LVU532
 1628 0298 06F4C046 		and	r6, r6, #24576
 501:Middlewares/lvgl/src/extra/layouts/flex/lv_flex.c **** 
 1629              		.loc 2 501 11 view .LVU533
 1630 029c B6F5005F 		cmp	r6, #8192
 1631 02a0 00F0A280 		beq	.L119
 1632              	.L91:
 503:Middlewares/lvgl/src/extra/layouts/flex/lv_flex.c ****         lv_coord_t diff_y = abs_y - item->coords.y1 + tr_y;
 1633              		.loc 2 503 9 is_stmt 1 view .LVU534
 503:Middlewares/lvgl/src/extra/layouts/flex/lv_flex.c ****         lv_coord_t diff_y = abs_y - item->coords.y1 + tr_y;
 1634              		.loc 2 503 49 is_stmt 0 view .LVU535
 1635 02a4 AE8A     		ldrh	r6, [r5, #20]
 503:Middlewares/lvgl/src/extra/layouts/flex/lv_flex.c ****         lv_coord_t diff_y = abs_y - item->coords.y1 + tr_y;
 1636              		.loc 2 503 35 view .LVU536
 1637 02a6 079B     		ldr	r3, [sp, #28]
 1638 02a8 9E1B     		subs	r6, r3, r6
 503:Middlewares/lvgl/src/extra/layouts/flex/lv_flex.c ****         lv_coord_t diff_y = abs_y - item->coords.y1 + tr_y;
 1639              		.loc 2 503 53 view .LVU537
 1640 02aa 1BFA86F6 		uxtah	r6, fp, r6
 1641 02ae B6B2     		uxth	r6, r6
 1642              	.LVL166:
 504:Middlewares/lvgl/src/extra/layouts/flex/lv_flex.c ****         diff_x += f->row ? main_pos : cross_pos;
 1643              		.loc 2 504 9 is_stmt 1 view .LVU538
 504:Middlewares/lvgl/src/extra/layouts/flex/lv_flex.c ****         diff_x += f->row ? main_pos : cross_pos;
 1644              		.loc 2 504 49 is_stmt 0 view .LVU539
 1645 02b0 EA8A     		ldrh	r2, [r5, #22]
 504:Middlewares/lvgl/src/extra/layouts/flex/lv_flex.c ****         diff_x += f->row ? main_pos : cross_pos;
 1646              		.loc 2 504 35 view .LVU540
 1647 02b2 089B     		ldr	r3, [sp, #32]
 1648 02b4 9A1A     		subs	r2, r3, r2
 504:Middlewares/lvgl/src/extra/layouts/flex/lv_flex.c ****         diff_x += f->row ? main_pos : cross_pos;
 1649              		.loc 2 504 53 view .LVU541
 1650 02b6 1AFA82F2 		uxtah	r2, r10, r2
ARM GAS  /tmp/ccSBYUf5.s 			page 56


 1651 02ba 92B2     		uxth	r2, r2
 1652              	.LVL167:
 505:Middlewares/lvgl/src/extra/layouts/flex/lv_flex.c ****         diff_y += f->row ? cross_pos : main_pos;
 1653              		.loc 2 505 9 is_stmt 1 view .LVU542
 505:Middlewares/lvgl/src/extra/layouts/flex/lv_flex.c ****         diff_y += f->row ? cross_pos : main_pos;
 1654              		.loc 2 505 26 is_stmt 0 view .LVU543
 1655 02bc 99F80330 		ldrb	r3, [r9, #3]	@ zero_extendqisi2
 505:Middlewares/lvgl/src/extra/layouts/flex/lv_flex.c ****         diff_y += f->row ? cross_pos : main_pos;
 1656              		.loc 2 505 16 view .LVU544
 1657 02c0 13F00103 		ands	r3, r3, #1
 1658 02c4 00F0A780 		beq	.L94
 505:Middlewares/lvgl/src/extra/layouts/flex/lv_flex.c ****         diff_y += f->row ? cross_pos : main_pos;
 1659              		.loc 2 505 16 discriminator 1 view .LVU545
 1660 02c8 BDF846B0 		ldrh	fp, [sp, #70]
 1661              	.LVL168:
 1662              	.L95:
 505:Middlewares/lvgl/src/extra/layouts/flex/lv_flex.c ****         diff_y += f->row ? cross_pos : main_pos;
 1663              		.loc 2 505 16 discriminator 4 view .LVU546
 1664 02cc 5E44     		add	r6, r6, fp
 1665              	.LVL169:
 505:Middlewares/lvgl/src/extra/layouts/flex/lv_flex.c ****         diff_y += f->row ? cross_pos : main_pos;
 1666              		.loc 2 505 16 discriminator 4 view .LVU547
 1667 02ce B7B2     		uxth	r7, r6
 1668 02d0 36B2     		sxth	r6, r6
 1669              	.LVL170:
 506:Middlewares/lvgl/src/extra/layouts/flex/lv_flex.c **** 
 1670              		.loc 2 506 9 is_stmt 1 discriminator 4 view .LVU548
 506:Middlewares/lvgl/src/extra/layouts/flex/lv_flex.c **** 
 1671              		.loc 2 506 16 is_stmt 0 discriminator 4 view .LVU549
 1672 02d2 002B     		cmp	r3, #0
 1673 02d4 00F0A280 		beq	.L96
 506:Middlewares/lvgl/src/extra/layouts/flex/lv_flex.c **** 
 1674              		.loc 2 506 16 discriminator 1 view .LVU550
 1675 02d8 BDF80CA0 		ldrh	r10, [sp, #12]
 1676              	.LVL171:
 1677              	.L97:
 506:Middlewares/lvgl/src/extra/layouts/flex/lv_flex.c **** 
 1678              		.loc 2 506 16 discriminator 4 view .LVU551
 1679 02dc 5244     		add	r2, r2, r10
 1680              	.LVL172:
 506:Middlewares/lvgl/src/extra/layouts/flex/lv_flex.c **** 
 1681              		.loc 2 506 16 discriminator 4 view .LVU552
 1682 02de 1FFA82F8 		uxth	r8, r2
 1683 02e2 0FFA82FA 		sxth	r10, r2
 1684              	.LVL173:
 508:Middlewares/lvgl/src/extra/layouts/flex/lv_flex.c ****             lv_obj_invalidate(item);
 1685              		.loc 2 508 9 is_stmt 1 discriminator 4 view .LVU553
 508:Middlewares/lvgl/src/extra/layouts/flex/lv_flex.c ****             lv_obj_invalidate(item);
 1686              		.loc 2 508 11 is_stmt 0 discriminator 4 view .LVU554
 1687 02e6 56EA0A03 		orrs	r3, r6, r10
 1688 02ea 40F09A80 		bne	.L120
 1689              	.LVL174:
 1690              	.L98:
 518:Middlewares/lvgl/src/extra/layouts/flex/lv_flex.c ****         else main_pos -= item_gap + place_gap;
 1691              		.loc 2 518 9 is_stmt 1 view .LVU555
 518:Middlewares/lvgl/src/extra/layouts/flex/lv_flex.c ****         else main_pos -= item_gap + place_gap;
 1692              		.loc 2 518 14 is_stmt 0 view .LVU556
ARM GAS  /tmp/ccSBYUf5.s 			page 57


 1693 02ee 99F80330 		ldrb	r3, [r9, #3]	@ zero_extendqisi2
 518:Middlewares/lvgl/src/extra/layouts/flex/lv_flex.c ****         else main_pos -= item_gap + place_gap;
 1694              		.loc 2 518 11 view .LVU557
 1695 02f2 13F0010F 		tst	r3, #1
 1696 02f6 03D0     		beq	.L99
 518:Middlewares/lvgl/src/extra/layouts/flex/lv_flex.c ****         else main_pos -= item_gap + place_gap;
 1697              		.loc 2 518 12 discriminator 2 view .LVU558
 1698 02f8 0A9B     		ldr	r3, [sp, #40]
 1699 02fa 012B     		cmp	r3, #1
 1700 02fc 00F0AB80 		beq	.L100
 1701              	.L99:
 518:Middlewares/lvgl/src/extra/layouts/flex/lv_flex.c ****         else main_pos -= item_gap + place_gap;
 1702              		.loc 2 518 30 is_stmt 1 discriminator 3 view .LVU559
 518:Middlewares/lvgl/src/extra/layouts/flex/lv_flex.c ****         else main_pos -= item_gap + place_gap;
 1703              		.loc 2 518 42 is_stmt 0 discriminator 3 view .LVU560
 1704 0300 05F11400 		add	r0, r5, #20
 1705 0304 069B     		ldr	r3, [sp, #24]
 1706 0306 9847     		blx	r3
 1707              	.LVL175:
 518:Middlewares/lvgl/src/extra/layouts/flex/lv_flex.c ****         else main_pos -= item_gap + place_gap;
 1708              		.loc 2 518 76 discriminator 3 view .LVU561
 1709 0308 099B     		ldr	r3, [sp, #36]
 1710 030a 1844     		add	r0, r0, r3
 518:Middlewares/lvgl/src/extra/layouts/flex/lv_flex.c ****         else main_pos -= item_gap + place_gap;
 1711              		.loc 2 518 87 discriminator 3 view .LVU562
 1712 030c BDF94430 		ldrsh	r3, [sp, #68]
 1713 0310 0344     		add	r3, r3, r0
 518:Middlewares/lvgl/src/extra/layouts/flex/lv_flex.c ****         else main_pos -= item_gap + place_gap;
 1714              		.loc 2 518 39 discriminator 3 view .LVU563
 1715 0312 BDF84620 		ldrh	r2, [sp, #70]
 1716 0316 1344     		add	r3, r3, r2
 1717 0318 ADF84630 		strh	r3, [sp, #70]	@ movhi
 1718              	.L101:
 521:Middlewares/lvgl/src/extra/layouts/flex/lv_flex.c ****     }
 1719              		.loc 2 521 9 is_stmt 1 view .LVU564
 521:Middlewares/lvgl/src/extra/layouts/flex/lv_flex.c ****     }
 1720              		.loc 2 521 37 is_stmt 0 view .LVU565
 1721 031c 99F80310 		ldrb	r1, [r9, #3]	@ zero_extendqisi2
 521:Middlewares/lvgl/src/extra/layouts/flex/lv_flex.c ****     }
 1722              		.loc 2 521 16 view .LVU566
 1723 0320 0DAA     		add	r2, sp, #52
 1724 0322 C1F38001 		ubfx	r1, r1, #2, #1
 1725 0326 0498     		ldr	r0, [sp, #16]
 1726 0328 FFF7FEFF 		bl	get_next_item
 1727              	.LVL176:
 1728 032c 0546     		mov	r5, r0
 1729              	.LVL177:
 1730              	.L73:
 521:Middlewares/lvgl/src/extra/layouts/flex/lv_flex.c ****     }
 1731              		.loc 2 521 16 view .LVU567
 1732              	.LBE87:
 445:Middlewares/lvgl/src/extra/layouts/flex/lv_flex.c ****         if(lv_obj_has_flag_any(item, LV_OBJ_FLAG_IGNORE_LAYOUT | LV_OBJ_FLAG_HIDDEN | LV_OBJ_FLAG_F
 1733              		.loc 2 445 10 is_stmt 1 view .LVU568
 1734 032e 0D9B     		ldr	r3, [sp, #52]
 1735 0330 059A     		ldr	r2, [sp, #20]
 1736 0332 002D     		cmp	r5, #0
 1737 0334 18BF     		it	ne
ARM GAS  /tmp/ccSBYUf5.s 			page 58


 1738 0336 9342     		cmpne	r3, r2
 1739 0338 00F09880 		beq	.L121
 1740              	.LBB98:
 446:Middlewares/lvgl/src/extra/layouts/flex/lv_flex.c ****             item = get_next_item(cont, f->rev, &item_first_id);
 1741              		.loc 2 446 9 view .LVU569
 446:Middlewares/lvgl/src/extra/layouts/flex/lv_flex.c ****             item = get_next_item(cont, f->rev, &item_first_id);
 1742              		.loc 2 446 12 is_stmt 0 view .LVU570
 1743 033c 4D49     		ldr	r1, .L127
 1744 033e 2846     		mov	r0, r5
 446:Middlewares/lvgl/src/extra/layouts/flex/lv_flex.c ****             item = get_next_item(cont, f->rev, &item_first_id);
 1745              		.loc 2 446 12 view .LVU571
 1746 0340 FFF7FEFF 		bl	lv_obj_has_flag_any
 1747              	.LVL178:
 446:Middlewares/lvgl/src/extra/layouts/flex/lv_flex.c ****             item = get_next_item(cont, f->rev, &item_first_id);
 1748              		.loc 2 446 11 view .LVU572
 1749 0344 0028     		cmp	r0, #0
 1750 0346 7FF40BAF 		bne	.L122
 450:Middlewares/lvgl/src/extra/layouts/flex/lv_flex.c ****         if(grow_size) {
 1751              		.loc 2 450 9 is_stmt 1 view .LVU573
 1752              	.LVL179:
 1753              	.LBB96:
 1754              	.LBI96:
 135:Middlewares/lvgl/src/extra/layouts/flex/../flex/lv_flex.h **** {
 1755              		.loc 4 135 23 view .LVU574
 1756              	.LBB97:
 137:Middlewares/lvgl/src/extra/layouts/flex/../flex/lv_flex.h ****     return (uint8_t)v.num;
 1757              		.loc 4 137 5 view .LVU575
 137:Middlewares/lvgl/src/extra/layouts/flex/../flex/lv_flex.h ****     return (uint8_t)v.num;
 1758              		.loc 4 137 26 is_stmt 0 view .LVU576
 1759 034a 4B4B     		ldr	r3, .L127+4
 1760 034c 1A88     		ldrh	r2, [r3]
 1761 034e 0021     		movs	r1, #0
 1762 0350 2846     		mov	r0, r5
 1763 0352 FFF7FEFF 		bl	lv_obj_get_style_prop
 1764              	.LVL180:
 1765              		.loc 4 138 5 is_stmt 1 view .LVU577
 1766              		.loc 4 138 5 is_stmt 0 view .LVU578
 1767              	.LBE97:
 1768              	.LBE96:
 451:Middlewares/lvgl/src/extra/layouts/flex/lv_flex.c ****             lv_coord_t s = 0;
 1769              		.loc 2 451 9 is_stmt 1 view .LVU579
 451:Middlewares/lvgl/src/extra/layouts/flex/lv_flex.c ****             lv_coord_t s = 0;
 1770              		.loc 2 451 11 is_stmt 0 view .LVU580
 1771 0356 10F0FF0F 		tst	r0, #255
 1772 035a 7FF40EAF 		bne	.L123
 474:Middlewares/lvgl/src/extra/layouts/flex/lv_flex.c ****             item->h_layout = 0;
 1773              		.loc 2 474 13 is_stmt 1 view .LVU581
 474:Middlewares/lvgl/src/extra/layouts/flex/lv_flex.c ****             item->h_layout = 0;
 1774              		.loc 2 474 28 is_stmt 0 view .LVU582
 1775 035e 95F82330 		ldrb	r3, [r5, #35]	@ zero_extendqisi2
 1776 0362 6FF38203 		bfc	r3, #2, #1
 1777 0366 85F82330 		strb	r3, [r5, #35]
 475:Middlewares/lvgl/src/extra/layouts/flex/lv_flex.c ****         }
 1778              		.loc 2 475 13 is_stmt 1 view .LVU583
 475:Middlewares/lvgl/src/extra/layouts/flex/lv_flex.c ****         }
 1779              		.loc 2 475 28 is_stmt 0 view .LVU584
 1780 036a DBB2     		uxtb	r3, r3
ARM GAS  /tmp/ccSBYUf5.s 			page 59


 1781 036c 6FF34103 		bfc	r3, #1, #1
 1782 0370 85F82330 		strb	r3, [r5, #35]
 1783              	.LVL181:
 1784              	.L83:
 478:Middlewares/lvgl/src/extra/layouts/flex/lv_flex.c ****         switch(f->cross_place) {
 1785              		.loc 2 478 9 is_stmt 1 view .LVU585
 479:Middlewares/lvgl/src/extra/layouts/flex/lv_flex.c ****         case LV_FLEX_ALIGN_CENTER:
 1786              		.loc 2 479 9 view .LVU586
 479:Middlewares/lvgl/src/extra/layouts/flex/lv_flex.c ****         case LV_FLEX_ALIGN_CENTER:
 1787              		.loc 2 479 17 is_stmt 0 view .LVU587
 1788 0374 99F80130 		ldrb	r3, [r9, #1]	@ zero_extendqisi2
 479:Middlewares/lvgl/src/extra/layouts/flex/lv_flex.c ****         case LV_FLEX_ALIGN_CENTER:
 1789              		.loc 2 479 9 view .LVU588
 1790 0378 012B     		cmp	r3, #1
 1791 037a 3FF451AF 		beq	.L84
 1792 037e 022B     		cmp	r3, #2
 1793 0380 7FF460AF 		bne	.L107
 483:Middlewares/lvgl/src/extra/layouts/flex/lv_flex.c ****             break;
 1794              		.loc 2 483 13 is_stmt 1 view .LVU589
 483:Middlewares/lvgl/src/extra/layouts/flex/lv_flex.c ****             break;
 1795              		.loc 2 483 29 is_stmt 0 view .LVU590
 1796 0384 B4F90060 		ldrsh	r6, [r4]
 483:Middlewares/lvgl/src/extra/layouts/flex/lv_flex.c ****             break;
 1797              		.loc 2 483 48 view .LVU591
 1798 0388 0136     		adds	r6, r6, #1
 483:Middlewares/lvgl/src/extra/layouts/flex/lv_flex.c ****             break;
 1799              		.loc 2 483 53 view .LVU592
 1800 038a 26F00106 		bic	r6, r6, #1
 483:Middlewares/lvgl/src/extra/layouts/flex/lv_flex.c ****             break;
 1801              		.loc 2 483 63 view .LVU593
 1802 038e 05F11400 		add	r0, r5, #20
 1803 0392 0B9B     		ldr	r3, [sp, #44]
 1804 0394 9847     		blx	r3
 1805              	.LVL182:
 483:Middlewares/lvgl/src/extra/layouts/flex/lv_flex.c ****             break;
 1806              		.loc 2 483 99 view .LVU594
 1807 0396 361A     		subs	r6, r6, r0
 1808 0398 3FF540AF 		bmi	.L124
 1809              	.L86:
 483:Middlewares/lvgl/src/extra/layouts/flex/lv_flex.c ****             break;
 1810              		.loc 2 483 23 view .LVU595
 1811 039c 46F34F03 		sbfx	r3, r6, #1, #16
 1812 03a0 0393     		str	r3, [sp, #12]
 1813              	.LVL183:
 484:Middlewares/lvgl/src/extra/layouts/flex/lv_flex.c ****         case LV_FLEX_ALIGN_END:
 1814              		.loc 2 484 13 is_stmt 1 view .LVU596
 1815 03a2 51E7     		b	.L85
 1816              	.L117:
 492:Middlewares/lvgl/src/extra/layouts/flex/lv_flex.c **** 
 1817              		.loc 2 492 27 discriminator 2 view .LVU597
 492:Middlewares/lvgl/src/extra/layouts/flex/lv_flex.c **** 
 1818              		.loc 2 492 39 is_stmt 0 discriminator 2 view .LVU598
 1819 03a4 05F11400 		add	r0, r5, #20
 1820 03a8 069B     		ldr	r3, [sp, #24]
 1821 03aa 9847     		blx	r3
 1822              	.LVL184:
 1823 03ac 82B2     		uxth	r2, r0
ARM GAS  /tmp/ccSBYUf5.s 			page 60


 492:Middlewares/lvgl/src/extra/layouts/flex/lv_flex.c **** 
 1824              		.loc 2 492 36 discriminator 2 view .LVU599
 1825 03ae BDF84630 		ldrh	r3, [sp, #70]
 1826 03b2 9B1A     		subs	r3, r3, r2
 1827 03b4 ADF84630 		strh	r3, [sp, #70]	@ movhi
 1828 03b8 4FE7     		b	.L87
 1829              	.LVL185:
 1830              	.L118:
 500:Middlewares/lvgl/src/extra/layouts/flex/lv_flex.c ****         if(LV_COORD_IS_PCT(tr_y)) tr_y = (h * LV_COORD_GET_PCT(tr_y)) / 100;
 1831              		.loc 2 500 12 discriminator 1 view .LVU600
 1832 03ba 2BF4C043 		bic	r3, fp, #24576
 1833 03be B3F5FA6F 		cmp	r3, #2000
 1834 03c2 3FF769AF 		bgt	.L88
 500:Middlewares/lvgl/src/extra/layouts/flex/lv_flex.c ****         if(LV_COORD_IS_PCT(tr_y)) tr_y = (h * LV_COORD_GET_PCT(tr_y)) / 100;
 1835              		.loc 2 500 35 is_stmt 1 discriminator 2 view .LVU601
 500:Middlewares/lvgl/src/extra/layouts/flex/lv_flex.c ****         if(LV_COORD_IS_PCT(tr_y)) tr_y = (h * LV_COORD_GET_PCT(tr_y)) / 100;
 1836              		.loc 2 500 47 is_stmt 0 discriminator 2 view .LVU602
 1837 03c6 B3F57A7F 		cmp	r3, #1000
 1838 03ca 01DD     		ble	.L90
 500:Middlewares/lvgl/src/extra/layouts/flex/lv_flex.c ****         if(LV_COORD_IS_PCT(tr_y)) tr_y = (h * LV_COORD_GET_PCT(tr_y)) / 100;
 1839              		.loc 2 500 47 discriminator 3 view .LVU603
 1840 03cc C3F57A73 		rsb	r3, r3, #1000
 1841              	.L90:
 500:Middlewares/lvgl/src/extra/layouts/flex/lv_flex.c ****         if(LV_COORD_IS_PCT(tr_y)) tr_y = (h * LV_COORD_GET_PCT(tr_y)) / 100;
 1842              		.loc 2 500 45 discriminator 6 view .LVU604
 1843 03d0 03FB08F8 		mul	r8, r3, r8
 1844              	.LVL186:
 500:Middlewares/lvgl/src/extra/layouts/flex/lv_flex.c ****         if(LV_COORD_IS_PCT(tr_y)) tr_y = (h * LV_COORD_GET_PCT(tr_y)) / 100;
 1845              		.loc 2 500 71 discriminator 6 view .LVU605
 1846 03d4 294B     		ldr	r3, .L127+8
 1847 03d6 83FB083B 		smull	r3, fp, r3, r8
 1848              	.LVL187:
 500:Middlewares/lvgl/src/extra/layouts/flex/lv_flex.c ****         if(LV_COORD_IS_PCT(tr_y)) tr_y = (h * LV_COORD_GET_PCT(tr_y)) / 100;
 1849              		.loc 2 500 71 discriminator 6 view .LVU606
 1850 03da 4FEAE878 		asr	r8, r8, #31
 1851 03de C8EB6B1B 		rsb	fp, r8, fp, asr #5
 500:Middlewares/lvgl/src/extra/layouts/flex/lv_flex.c ****         if(LV_COORD_IS_PCT(tr_y)) tr_y = (h * LV_COORD_GET_PCT(tr_y)) / 100;
 1852              		.loc 2 500 40 discriminator 6 view .LVU607
 1853 03e2 0FFA8BFB 		sxth	fp, fp
 1854              	.LVL188:
 500:Middlewares/lvgl/src/extra/layouts/flex/lv_flex.c ****         if(LV_COORD_IS_PCT(tr_y)) tr_y = (h * LV_COORD_GET_PCT(tr_y)) / 100;
 1855              		.loc 2 500 40 discriminator 6 view .LVU608
 1856 03e6 57E7     		b	.L88
 1857              	.L119:
 501:Middlewares/lvgl/src/extra/layouts/flex/lv_flex.c **** 
 1858              		.loc 2 501 12 discriminator 1 view .LVU609
 1859 03e8 2AF4C043 		bic	r3, r10, #24576
 1860 03ec B3F5FA6F 		cmp	r3, #2000
 1861 03f0 3FF758AF 		bgt	.L91
 501:Middlewares/lvgl/src/extra/layouts/flex/lv_flex.c **** 
 1862              		.loc 2 501 35 is_stmt 1 discriminator 2 view .LVU610
 501:Middlewares/lvgl/src/extra/layouts/flex/lv_flex.c **** 
 1863              		.loc 2 501 47 is_stmt 0 discriminator 2 view .LVU611
 1864 03f4 B3F57A7F 		cmp	r3, #1000
 1865 03f8 01DD     		ble	.L93
 501:Middlewares/lvgl/src/extra/layouts/flex/lv_flex.c **** 
 1866              		.loc 2 501 47 discriminator 3 view .LVU612
ARM GAS  /tmp/ccSBYUf5.s 			page 61


 1867 03fa C3F57A73 		rsb	r3, r3, #1000
 1868              	.L93:
 501:Middlewares/lvgl/src/extra/layouts/flex/lv_flex.c **** 
 1869              		.loc 2 501 45 discriminator 6 view .LVU613
 1870 03fe 00FB03F3 		mul	r3, r0, r3
 501:Middlewares/lvgl/src/extra/layouts/flex/lv_flex.c **** 
 1871              		.loc 2 501 71 discriminator 6 view .LVU614
 1872 0402 1E4A     		ldr	r2, .L127+8
 1873 0404 82FB0312 		smull	r1, r2, r2, r3
 1874 0408 4FEAE37A 		asr	r10, r3, #31
 1875              	.LVL189:
 501:Middlewares/lvgl/src/extra/layouts/flex/lv_flex.c **** 
 1876              		.loc 2 501 71 discriminator 6 view .LVU615
 1877 040c CAEB621A 		rsb	r10, r10, r2, asr #5
 501:Middlewares/lvgl/src/extra/layouts/flex/lv_flex.c **** 
 1878              		.loc 2 501 40 discriminator 6 view .LVU616
 1879 0410 0FFA8AFA 		sxth	r10, r10
 1880              	.LVL190:
 501:Middlewares/lvgl/src/extra/layouts/flex/lv_flex.c **** 
 1881              		.loc 2 501 40 discriminator 6 view .LVU617
 1882 0414 46E7     		b	.L91
 1883              	.LVL191:
 1884              	.L94:
 505:Middlewares/lvgl/src/extra/layouts/flex/lv_flex.c ****         diff_y += f->row ? cross_pos : main_pos;
 1885              		.loc 2 505 16 discriminator 2 view .LVU618
 1886 0416 BDF80CB0 		ldrh	fp, [sp, #12]
 1887              	.LVL192:
 505:Middlewares/lvgl/src/extra/layouts/flex/lv_flex.c ****         diff_y += f->row ? cross_pos : main_pos;
 1888              		.loc 2 505 16 discriminator 2 view .LVU619
 1889 041a 57E7     		b	.L95
 1890              	.L96:
 506:Middlewares/lvgl/src/extra/layouts/flex/lv_flex.c **** 
 1891              		.loc 2 506 16 discriminator 2 view .LVU620
 1892 041c BDF846A0 		ldrh	r10, [sp, #70]
 1893              	.LVL193:
 506:Middlewares/lvgl/src/extra/layouts/flex/lv_flex.c **** 
 1894              		.loc 2 506 16 discriminator 2 view .LVU621
 1895 0420 5CE7     		b	.L97
 1896              	.LVL194:
 1897              	.L120:
 509:Middlewares/lvgl/src/extra/layouts/flex/lv_flex.c ****             item->coords.x1 += diff_x;
 1898              		.loc 2 509 13 is_stmt 1 view .LVU622
 1899 0422 2846     		mov	r0, r5
 1900              	.LVL195:
 509:Middlewares/lvgl/src/extra/layouts/flex/lv_flex.c ****             item->coords.x1 += diff_x;
 1901              		.loc 2 509 13 is_stmt 0 view .LVU623
 1902 0424 FFF7FEFF 		bl	lv_obj_invalidate
 1903              	.LVL196:
 510:Middlewares/lvgl/src/extra/layouts/flex/lv_flex.c ****             item->coords.x2 += diff_x;
 1904              		.loc 2 510 13 is_stmt 1 view .LVU624
 510:Middlewares/lvgl/src/extra/layouts/flex/lv_flex.c ****             item->coords.x2 += diff_x;
 1905              		.loc 2 510 29 is_stmt 0 view .LVU625
 1906 0428 AB8A     		ldrh	r3, [r5, #20]
 1907 042a 3B44     		add	r3, r3, r7
 1908 042c AB82     		strh	r3, [r5, #20]	@ movhi
 511:Middlewares/lvgl/src/extra/layouts/flex/lv_flex.c ****             item->coords.y1 += diff_y;
 1909              		.loc 2 511 13 is_stmt 1 view .LVU626
ARM GAS  /tmp/ccSBYUf5.s 			page 62


 511:Middlewares/lvgl/src/extra/layouts/flex/lv_flex.c ****             item->coords.y1 += diff_y;
 1910              		.loc 2 511 29 is_stmt 0 view .LVU627
 1911 042e 2B8B     		ldrh	r3, [r5, #24]
 1912 0430 1F44     		add	r7, r7, r3
 1913 0432 2F83     		strh	r7, [r5, #24]	@ movhi
 512:Middlewares/lvgl/src/extra/layouts/flex/lv_flex.c ****             item->coords.y2 += diff_y;
 1914              		.loc 2 512 13 is_stmt 1 view .LVU628
 512:Middlewares/lvgl/src/extra/layouts/flex/lv_flex.c ****             item->coords.y2 += diff_y;
 1915              		.loc 2 512 29 is_stmt 0 view .LVU629
 1916 0434 EB8A     		ldrh	r3, [r5, #22]
 1917 0436 4344     		add	r3, r3, r8
 1918 0438 EB82     		strh	r3, [r5, #22]	@ movhi
 513:Middlewares/lvgl/src/extra/layouts/flex/lv_flex.c ****             lv_obj_invalidate(item);
 1919              		.loc 2 513 13 is_stmt 1 view .LVU630
 513:Middlewares/lvgl/src/extra/layouts/flex/lv_flex.c ****             lv_obj_invalidate(item);
 1920              		.loc 2 513 29 is_stmt 0 view .LVU631
 1921 043a 6B8B     		ldrh	r3, [r5, #26]
 1922 043c 9844     		add	r8, r8, r3
 1923 043e A5F81A80 		strh	r8, [r5, #26]	@ movhi
 514:Middlewares/lvgl/src/extra/layouts/flex/lv_flex.c ****             lv_obj_move_children_by(item, diff_x, diff_y, true);
 1924              		.loc 2 514 13 is_stmt 1 view .LVU632
 1925 0442 2846     		mov	r0, r5
 1926 0444 FFF7FEFF 		bl	lv_obj_invalidate
 1927              	.LVL197:
 515:Middlewares/lvgl/src/extra/layouts/flex/lv_flex.c ****         }
 1928              		.loc 2 515 13 view .LVU633
 1929 0448 0123     		movs	r3, #1
 1930 044a 5246     		mov	r2, r10
 1931 044c 3146     		mov	r1, r6
 1932 044e 2846     		mov	r0, r5
 1933 0450 FFF7FEFF 		bl	lv_obj_move_children_by
 1934              	.LVL198:
 1935 0454 4BE7     		b	.L98
 1936              	.L100:
 519:Middlewares/lvgl/src/extra/layouts/flex/lv_flex.c **** 
 1937              		.loc 2 519 14 view .LVU634
 519:Middlewares/lvgl/src/extra/layouts/flex/lv_flex.c **** 
 1938              		.loc 2 519 35 is_stmt 0 view .LVU635
 1939 0456 BDF84430 		ldrh	r3, [sp, #68]
 1940 045a 099A     		ldr	r2, [sp, #36]
 1941 045c 1344     		add	r3, r3, r2
 1942 045e 9BB2     		uxth	r3, r3
 519:Middlewares/lvgl/src/extra/layouts/flex/lv_flex.c **** 
 1943              		.loc 2 519 23 view .LVU636
 1944 0460 BDF84620 		ldrh	r2, [sp, #70]
 1945 0464 D31A     		subs	r3, r2, r3
 1946 0466 ADF84630 		strh	r3, [sp, #70]	@ movhi
 1947 046a 57E7     		b	.L101
 1948              	.LVL199:
 1949              	.L121:
 519:Middlewares/lvgl/src/extra/layouts/flex/lv_flex.c **** 
 1950              		.loc 2 519 23 view .LVU637
 1951              	.LBE98:
 523:Middlewares/lvgl/src/extra/layouts/flex/lv_flex.c **** 
 1952              		.loc 2 523 1 view .LVU638
 1953 046c 13B0     		add	sp, sp, #76
 1954              	.LCFI9:
ARM GAS  /tmp/ccSBYUf5.s 			page 63


 1955              		.cfi_def_cfa_offset 36
 1956              		@ sp needed
 1957 046e BDE8F08F 		pop	{r4, r5, r6, r7, r8, r9, r10, fp, pc}
 1958              	.LVL200:
 1959              	.L128:
 523:Middlewares/lvgl/src/extra/layouts/flex/lv_flex.c **** 
 1960              		.loc 2 523 1 view .LVU639
 1961 0472 00BF     		.align	2
 1962              	.L127:
 1963 0474 01800100 		.word	98305
 1964 0478 00000000 		.word	.LANCHOR0
 1965 047c 1F85EB51 		.word	1374389535
 1966              		.cfi_endproc
 1967              	.LFE179:
