ARM GAS  /tmp/ccRLru7H.s 			page 1


   1              		.cpu cortex-m7
   2              		.arch armv7e-m
   3              		.fpu fpv5-d16
   4              		.eabi_attribute 28, 1
   5              		.eabi_attribute 20, 1
   6              		.eabi_attribute 21, 1
   7              		.eabi_attribute 23, 3
   8              		.eabi_attribute 24, 1
   9              		.eabi_attribute 25, 1
  10              		.eabi_attribute 26, 1
  11              		.eabi_attribute 30, 1
  12              		.eabi_attribute 34, 1
  13              		.eabi_attribute 18, 4
  14              		.file	"lv_fs.c"
  15              		.text
  16              	.Ltext0:
  17              		.cfi_sections	.debug_frame
  18              		.section	.text.lv_fs_get_real_path,"ax",%progbits
  19              		.align	1
  20              		.syntax unified
  21              		.thumb
  22              		.thumb_func
  24              	lv_fs_get_real_path:
  25              	.LVL0:
  26              	.LFB41:
  27              		.file 1 "Middlewares/lvgl/src/misc/lv_fs.c"
   1:Middlewares/lvgl/src/misc/lv_fs.c **** /**
   2:Middlewares/lvgl/src/misc/lv_fs.c ****  * @file lv_fs.c
   3:Middlewares/lvgl/src/misc/lv_fs.c ****  *
   4:Middlewares/lvgl/src/misc/lv_fs.c ****  */
   5:Middlewares/lvgl/src/misc/lv_fs.c **** 
   6:Middlewares/lvgl/src/misc/lv_fs.c **** /*********************
   7:Middlewares/lvgl/src/misc/lv_fs.c ****  *      INCLUDES
   8:Middlewares/lvgl/src/misc/lv_fs.c ****  *********************/
   9:Middlewares/lvgl/src/misc/lv_fs.c **** #include "lv_fs.h"
  10:Middlewares/lvgl/src/misc/lv_fs.c **** 
  11:Middlewares/lvgl/src/misc/lv_fs.c **** #include "../misc/lv_assert.h"
  12:Middlewares/lvgl/src/misc/lv_fs.c **** #include "lv_ll.h"
  13:Middlewares/lvgl/src/misc/lv_fs.c **** #include <string.h>
  14:Middlewares/lvgl/src/misc/lv_fs.c **** #include "lv_gc.h"
  15:Middlewares/lvgl/src/misc/lv_fs.c **** 
  16:Middlewares/lvgl/src/misc/lv_fs.c **** /*********************
  17:Middlewares/lvgl/src/misc/lv_fs.c ****  *      DEFINES
  18:Middlewares/lvgl/src/misc/lv_fs.c ****  *********************/
  19:Middlewares/lvgl/src/misc/lv_fs.c **** 
  20:Middlewares/lvgl/src/misc/lv_fs.c **** /**
  21:Middlewares/lvgl/src/misc/lv_fs.c ****  * "free" is used as a function pointer (in lv_fs_drv_t).
  22:Middlewares/lvgl/src/misc/lv_fs.c ****  * We must make sure "free" was not defined to a platform specific
  23:Middlewares/lvgl/src/misc/lv_fs.c ****  * free function, otherwise compilation would fail.
  24:Middlewares/lvgl/src/misc/lv_fs.c ****  */
  25:Middlewares/lvgl/src/misc/lv_fs.c **** #ifdef free
  26:Middlewares/lvgl/src/misc/lv_fs.c ****     #undef free
  27:Middlewares/lvgl/src/misc/lv_fs.c **** #endif
  28:Middlewares/lvgl/src/misc/lv_fs.c **** 
  29:Middlewares/lvgl/src/misc/lv_fs.c **** /**********************
  30:Middlewares/lvgl/src/misc/lv_fs.c ****  *      TYPEDEFS
  31:Middlewares/lvgl/src/misc/lv_fs.c ****  **********************/
ARM GAS  /tmp/ccRLru7H.s 			page 2


  32:Middlewares/lvgl/src/misc/lv_fs.c **** 
  33:Middlewares/lvgl/src/misc/lv_fs.c **** /**********************
  34:Middlewares/lvgl/src/misc/lv_fs.c ****  *  STATIC PROTOTYPES
  35:Middlewares/lvgl/src/misc/lv_fs.c ****  **********************/
  36:Middlewares/lvgl/src/misc/lv_fs.c **** static const char * lv_fs_get_real_path(const char * path);
  37:Middlewares/lvgl/src/misc/lv_fs.c **** 
  38:Middlewares/lvgl/src/misc/lv_fs.c **** /**********************
  39:Middlewares/lvgl/src/misc/lv_fs.c ****  *  STATIC VARIABLES
  40:Middlewares/lvgl/src/misc/lv_fs.c ****  **********************/
  41:Middlewares/lvgl/src/misc/lv_fs.c **** 
  42:Middlewares/lvgl/src/misc/lv_fs.c **** /**********************
  43:Middlewares/lvgl/src/misc/lv_fs.c ****  *      MACROS
  44:Middlewares/lvgl/src/misc/lv_fs.c ****  **********************/
  45:Middlewares/lvgl/src/misc/lv_fs.c **** 
  46:Middlewares/lvgl/src/misc/lv_fs.c **** /**********************
  47:Middlewares/lvgl/src/misc/lv_fs.c ****  *   GLOBAL FUNCTIONS
  48:Middlewares/lvgl/src/misc/lv_fs.c ****  **********************/
  49:Middlewares/lvgl/src/misc/lv_fs.c **** 
  50:Middlewares/lvgl/src/misc/lv_fs.c **** void _lv_fs_init(void)
  51:Middlewares/lvgl/src/misc/lv_fs.c **** {
  52:Middlewares/lvgl/src/misc/lv_fs.c ****     _lv_ll_init(&LV_GC_ROOT(_lv_fsdrv_ll), sizeof(lv_fs_drv_t *));
  53:Middlewares/lvgl/src/misc/lv_fs.c **** }
  54:Middlewares/lvgl/src/misc/lv_fs.c **** 
  55:Middlewares/lvgl/src/misc/lv_fs.c **** bool lv_fs_is_ready(char letter)
  56:Middlewares/lvgl/src/misc/lv_fs.c **** {
  57:Middlewares/lvgl/src/misc/lv_fs.c ****     lv_fs_drv_t * drv = lv_fs_get_drv(letter);
  58:Middlewares/lvgl/src/misc/lv_fs.c **** 
  59:Middlewares/lvgl/src/misc/lv_fs.c ****     if(drv == NULL) return false; /*An unknown driver in not ready*/
  60:Middlewares/lvgl/src/misc/lv_fs.c **** 
  61:Middlewares/lvgl/src/misc/lv_fs.c ****     if(drv->ready_cb == NULL) return true; /*Assume the driver is always ready if no handler provid
  62:Middlewares/lvgl/src/misc/lv_fs.c **** 
  63:Middlewares/lvgl/src/misc/lv_fs.c ****     return drv->ready_cb(drv);
  64:Middlewares/lvgl/src/misc/lv_fs.c **** }
  65:Middlewares/lvgl/src/misc/lv_fs.c **** 
  66:Middlewares/lvgl/src/misc/lv_fs.c **** lv_fs_res_t lv_fs_open(lv_fs_file_t * file_p, const char * path, lv_fs_mode_t mode)
  67:Middlewares/lvgl/src/misc/lv_fs.c **** {
  68:Middlewares/lvgl/src/misc/lv_fs.c ****     if(path == NULL) {
  69:Middlewares/lvgl/src/misc/lv_fs.c ****         LV_LOG_WARN("Can't open file: path is NULL");
  70:Middlewares/lvgl/src/misc/lv_fs.c ****         return LV_FS_RES_INV_PARAM;
  71:Middlewares/lvgl/src/misc/lv_fs.c ****     }
  72:Middlewares/lvgl/src/misc/lv_fs.c **** 
  73:Middlewares/lvgl/src/misc/lv_fs.c ****     char letter = path[0];
  74:Middlewares/lvgl/src/misc/lv_fs.c ****     lv_fs_drv_t * drv = lv_fs_get_drv(letter);
  75:Middlewares/lvgl/src/misc/lv_fs.c **** 
  76:Middlewares/lvgl/src/misc/lv_fs.c ****     if(drv == NULL) {
  77:Middlewares/lvgl/src/misc/lv_fs.c ****         LV_LOG_WARN("Can't open file (%s): unknown driver letter", path);
  78:Middlewares/lvgl/src/misc/lv_fs.c ****         return LV_FS_RES_NOT_EX;
  79:Middlewares/lvgl/src/misc/lv_fs.c ****     }
  80:Middlewares/lvgl/src/misc/lv_fs.c **** 
  81:Middlewares/lvgl/src/misc/lv_fs.c ****     if(drv->ready_cb) {
  82:Middlewares/lvgl/src/misc/lv_fs.c ****         if(drv->ready_cb(drv) == false) {
  83:Middlewares/lvgl/src/misc/lv_fs.c ****             LV_LOG_WARN("Can't open file (%s): driver not ready", path);
  84:Middlewares/lvgl/src/misc/lv_fs.c ****             return LV_FS_RES_HW_ERR;
  85:Middlewares/lvgl/src/misc/lv_fs.c ****         }
  86:Middlewares/lvgl/src/misc/lv_fs.c ****     }
  87:Middlewares/lvgl/src/misc/lv_fs.c **** 
  88:Middlewares/lvgl/src/misc/lv_fs.c ****     if(drv->open_cb == NULL) {
ARM GAS  /tmp/ccRLru7H.s 			page 3


  89:Middlewares/lvgl/src/misc/lv_fs.c ****         LV_LOG_WARN("Can't open file (%s): open function not exists", path);
  90:Middlewares/lvgl/src/misc/lv_fs.c ****         return LV_FS_RES_NOT_IMP;
  91:Middlewares/lvgl/src/misc/lv_fs.c ****     }
  92:Middlewares/lvgl/src/misc/lv_fs.c **** 
  93:Middlewares/lvgl/src/misc/lv_fs.c ****     const char * real_path = lv_fs_get_real_path(path);
  94:Middlewares/lvgl/src/misc/lv_fs.c ****     void *file_d = drv->open_cb(drv, real_path, mode);
  95:Middlewares/lvgl/src/misc/lv_fs.c **** 
  96:Middlewares/lvgl/src/misc/lv_fs.c ****     if(file_d == NULL || file_d == (void*)(-1)) {
  97:Middlewares/lvgl/src/misc/lv_fs.c ****         return LV_FS_RES_UNKNOWN;
  98:Middlewares/lvgl/src/misc/lv_fs.c ****     }
  99:Middlewares/lvgl/src/misc/lv_fs.c **** 
 100:Middlewares/lvgl/src/misc/lv_fs.c ****     file_p->drv = drv;
 101:Middlewares/lvgl/src/misc/lv_fs.c ****     file_p->file_d = file_d;
 102:Middlewares/lvgl/src/misc/lv_fs.c **** 
 103:Middlewares/lvgl/src/misc/lv_fs.c ****     return LV_FS_RES_OK;
 104:Middlewares/lvgl/src/misc/lv_fs.c **** }
 105:Middlewares/lvgl/src/misc/lv_fs.c **** 
 106:Middlewares/lvgl/src/misc/lv_fs.c **** lv_fs_res_t lv_fs_close(lv_fs_file_t * file_p)
 107:Middlewares/lvgl/src/misc/lv_fs.c **** {
 108:Middlewares/lvgl/src/misc/lv_fs.c ****     if(file_p->drv == NULL) {
 109:Middlewares/lvgl/src/misc/lv_fs.c ****         return LV_FS_RES_INV_PARAM;
 110:Middlewares/lvgl/src/misc/lv_fs.c ****     }
 111:Middlewares/lvgl/src/misc/lv_fs.c **** 
 112:Middlewares/lvgl/src/misc/lv_fs.c ****     if(file_p->drv->close_cb == NULL) {
 113:Middlewares/lvgl/src/misc/lv_fs.c ****         return LV_FS_RES_NOT_IMP;
 114:Middlewares/lvgl/src/misc/lv_fs.c ****     }
 115:Middlewares/lvgl/src/misc/lv_fs.c **** 
 116:Middlewares/lvgl/src/misc/lv_fs.c ****     lv_fs_res_t res = file_p->drv->close_cb(file_p->drv, file_p->file_d);
 117:Middlewares/lvgl/src/misc/lv_fs.c **** 
 118:Middlewares/lvgl/src/misc/lv_fs.c ****     file_p->file_d = NULL;
 119:Middlewares/lvgl/src/misc/lv_fs.c ****     file_p->drv    = NULL;
 120:Middlewares/lvgl/src/misc/lv_fs.c **** 
 121:Middlewares/lvgl/src/misc/lv_fs.c ****     return res;
 122:Middlewares/lvgl/src/misc/lv_fs.c **** }
 123:Middlewares/lvgl/src/misc/lv_fs.c **** 
 124:Middlewares/lvgl/src/misc/lv_fs.c **** lv_fs_res_t lv_fs_read(lv_fs_file_t * file_p, void * buf, uint32_t btr, uint32_t * br)
 125:Middlewares/lvgl/src/misc/lv_fs.c **** {
 126:Middlewares/lvgl/src/misc/lv_fs.c ****     if(br != NULL) *br = 0;
 127:Middlewares/lvgl/src/misc/lv_fs.c ****     if(file_p->drv == NULL) return LV_FS_RES_INV_PARAM;
 128:Middlewares/lvgl/src/misc/lv_fs.c ****     if(file_p->drv->read_cb == NULL) return LV_FS_RES_NOT_IMP;
 129:Middlewares/lvgl/src/misc/lv_fs.c **** 
 130:Middlewares/lvgl/src/misc/lv_fs.c ****     uint32_t br_tmp = 0;
 131:Middlewares/lvgl/src/misc/lv_fs.c ****     lv_fs_res_t res = file_p->drv->read_cb(file_p->drv, file_p->file_d, buf, btr, &br_tmp);
 132:Middlewares/lvgl/src/misc/lv_fs.c ****     if(br != NULL) *br = br_tmp;
 133:Middlewares/lvgl/src/misc/lv_fs.c **** 
 134:Middlewares/lvgl/src/misc/lv_fs.c ****     return res;
 135:Middlewares/lvgl/src/misc/lv_fs.c **** }
 136:Middlewares/lvgl/src/misc/lv_fs.c **** 
 137:Middlewares/lvgl/src/misc/lv_fs.c **** lv_fs_res_t lv_fs_write(lv_fs_file_t * file_p, const void * buf, uint32_t btw, uint32_t * bw)
 138:Middlewares/lvgl/src/misc/lv_fs.c **** {
 139:Middlewares/lvgl/src/misc/lv_fs.c ****     if(bw != NULL) *bw = 0;
 140:Middlewares/lvgl/src/misc/lv_fs.c **** 
 141:Middlewares/lvgl/src/misc/lv_fs.c ****     if(file_p->drv == NULL) {
 142:Middlewares/lvgl/src/misc/lv_fs.c ****         return LV_FS_RES_INV_PARAM;
 143:Middlewares/lvgl/src/misc/lv_fs.c ****     }
 144:Middlewares/lvgl/src/misc/lv_fs.c **** 
 145:Middlewares/lvgl/src/misc/lv_fs.c ****     if(file_p->drv->write_cb == NULL) {
ARM GAS  /tmp/ccRLru7H.s 			page 4


 146:Middlewares/lvgl/src/misc/lv_fs.c ****         return LV_FS_RES_NOT_IMP;
 147:Middlewares/lvgl/src/misc/lv_fs.c ****     }
 148:Middlewares/lvgl/src/misc/lv_fs.c **** 
 149:Middlewares/lvgl/src/misc/lv_fs.c ****     uint32_t bw_tmp = 0;
 150:Middlewares/lvgl/src/misc/lv_fs.c ****     lv_fs_res_t res = file_p->drv->write_cb(file_p->drv, file_p->file_d, buf, btw, &bw_tmp);
 151:Middlewares/lvgl/src/misc/lv_fs.c ****     if(bw != NULL) *bw = bw_tmp;
 152:Middlewares/lvgl/src/misc/lv_fs.c **** 
 153:Middlewares/lvgl/src/misc/lv_fs.c ****     return res;
 154:Middlewares/lvgl/src/misc/lv_fs.c **** }
 155:Middlewares/lvgl/src/misc/lv_fs.c **** 
 156:Middlewares/lvgl/src/misc/lv_fs.c **** lv_fs_res_t lv_fs_seek(lv_fs_file_t * file_p, uint32_t pos, lv_fs_whence_t whence)
 157:Middlewares/lvgl/src/misc/lv_fs.c **** {
 158:Middlewares/lvgl/src/misc/lv_fs.c ****     if(file_p->drv == NULL) {
 159:Middlewares/lvgl/src/misc/lv_fs.c ****         return LV_FS_RES_INV_PARAM;
 160:Middlewares/lvgl/src/misc/lv_fs.c ****     }
 161:Middlewares/lvgl/src/misc/lv_fs.c **** 
 162:Middlewares/lvgl/src/misc/lv_fs.c ****     if(file_p->drv->seek_cb == NULL) {
 163:Middlewares/lvgl/src/misc/lv_fs.c ****         return LV_FS_RES_NOT_IMP;
 164:Middlewares/lvgl/src/misc/lv_fs.c ****     }
 165:Middlewares/lvgl/src/misc/lv_fs.c **** 
 166:Middlewares/lvgl/src/misc/lv_fs.c ****     lv_fs_res_t res = file_p->drv->seek_cb(file_p->drv, file_p->file_d, pos, whence);
 167:Middlewares/lvgl/src/misc/lv_fs.c **** 
 168:Middlewares/lvgl/src/misc/lv_fs.c ****     return res;
 169:Middlewares/lvgl/src/misc/lv_fs.c **** }
 170:Middlewares/lvgl/src/misc/lv_fs.c **** 
 171:Middlewares/lvgl/src/misc/lv_fs.c **** lv_fs_res_t lv_fs_tell(lv_fs_file_t * file_p, uint32_t * pos)
 172:Middlewares/lvgl/src/misc/lv_fs.c **** {
 173:Middlewares/lvgl/src/misc/lv_fs.c ****     if(file_p->drv == NULL) {
 174:Middlewares/lvgl/src/misc/lv_fs.c ****         *pos = 0;
 175:Middlewares/lvgl/src/misc/lv_fs.c ****         return LV_FS_RES_INV_PARAM;
 176:Middlewares/lvgl/src/misc/lv_fs.c ****     }
 177:Middlewares/lvgl/src/misc/lv_fs.c **** 
 178:Middlewares/lvgl/src/misc/lv_fs.c ****     if(file_p->drv->tell_cb == NULL) {
 179:Middlewares/lvgl/src/misc/lv_fs.c ****         *pos = 0;
 180:Middlewares/lvgl/src/misc/lv_fs.c ****         return LV_FS_RES_NOT_IMP;
 181:Middlewares/lvgl/src/misc/lv_fs.c ****     }
 182:Middlewares/lvgl/src/misc/lv_fs.c **** 
 183:Middlewares/lvgl/src/misc/lv_fs.c ****     lv_fs_res_t res = file_p->drv->tell_cb(file_p->drv, file_p->file_d, pos);
 184:Middlewares/lvgl/src/misc/lv_fs.c **** 
 185:Middlewares/lvgl/src/misc/lv_fs.c ****     return res;
 186:Middlewares/lvgl/src/misc/lv_fs.c **** }
 187:Middlewares/lvgl/src/misc/lv_fs.c **** 
 188:Middlewares/lvgl/src/misc/lv_fs.c **** lv_fs_res_t lv_fs_dir_open(lv_fs_dir_t * rddir_p, const char * path)
 189:Middlewares/lvgl/src/misc/lv_fs.c **** {
 190:Middlewares/lvgl/src/misc/lv_fs.c ****     if(path == NULL) return LV_FS_RES_INV_PARAM;
 191:Middlewares/lvgl/src/misc/lv_fs.c **** 
 192:Middlewares/lvgl/src/misc/lv_fs.c ****     char letter = path[0];
 193:Middlewares/lvgl/src/misc/lv_fs.c ****     lv_fs_drv_t * drv = lv_fs_get_drv(letter);
 194:Middlewares/lvgl/src/misc/lv_fs.c **** 
 195:Middlewares/lvgl/src/misc/lv_fs.c ****     if(drv == NULL) {
 196:Middlewares/lvgl/src/misc/lv_fs.c ****         return LV_FS_RES_NOT_EX;
 197:Middlewares/lvgl/src/misc/lv_fs.c ****     }
 198:Middlewares/lvgl/src/misc/lv_fs.c **** 
 199:Middlewares/lvgl/src/misc/lv_fs.c ****     if(drv->ready_cb) {
 200:Middlewares/lvgl/src/misc/lv_fs.c ****         if(drv->ready_cb(drv) == false) {
 201:Middlewares/lvgl/src/misc/lv_fs.c ****             return LV_FS_RES_HW_ERR;
 202:Middlewares/lvgl/src/misc/lv_fs.c ****         }
ARM GAS  /tmp/ccRLru7H.s 			page 5


 203:Middlewares/lvgl/src/misc/lv_fs.c ****     }
 204:Middlewares/lvgl/src/misc/lv_fs.c **** 
 205:Middlewares/lvgl/src/misc/lv_fs.c ****     if(drv->dir_open_cb == NULL) {
 206:Middlewares/lvgl/src/misc/lv_fs.c ****         return LV_FS_RES_NOT_IMP;
 207:Middlewares/lvgl/src/misc/lv_fs.c ****     }
 208:Middlewares/lvgl/src/misc/lv_fs.c **** 
 209:Middlewares/lvgl/src/misc/lv_fs.c ****     const char * real_path = lv_fs_get_real_path(path);
 210:Middlewares/lvgl/src/misc/lv_fs.c ****     void *dir_d = drv->dir_open_cb(drv, real_path);
 211:Middlewares/lvgl/src/misc/lv_fs.c **** 
 212:Middlewares/lvgl/src/misc/lv_fs.c ****     if(dir_d == NULL || dir_d == (void*)(-1)) {
 213:Middlewares/lvgl/src/misc/lv_fs.c ****         return LV_FS_RES_UNKNOWN;
 214:Middlewares/lvgl/src/misc/lv_fs.c ****     }
 215:Middlewares/lvgl/src/misc/lv_fs.c **** 
 216:Middlewares/lvgl/src/misc/lv_fs.c ****     rddir_p->drv = drv;
 217:Middlewares/lvgl/src/misc/lv_fs.c ****     rddir_p->dir_d = dir_d;
 218:Middlewares/lvgl/src/misc/lv_fs.c **** 
 219:Middlewares/lvgl/src/misc/lv_fs.c ****     return LV_FS_RES_OK;
 220:Middlewares/lvgl/src/misc/lv_fs.c **** }
 221:Middlewares/lvgl/src/misc/lv_fs.c **** 
 222:Middlewares/lvgl/src/misc/lv_fs.c **** lv_fs_res_t lv_fs_dir_read(lv_fs_dir_t * rddir_p, char * fn)
 223:Middlewares/lvgl/src/misc/lv_fs.c **** {
 224:Middlewares/lvgl/src/misc/lv_fs.c ****     if(rddir_p->drv == NULL || rddir_p->dir_d == NULL) {
 225:Middlewares/lvgl/src/misc/lv_fs.c ****         fn[0] = '\0';
 226:Middlewares/lvgl/src/misc/lv_fs.c ****         return LV_FS_RES_INV_PARAM;
 227:Middlewares/lvgl/src/misc/lv_fs.c ****     }
 228:Middlewares/lvgl/src/misc/lv_fs.c **** 
 229:Middlewares/lvgl/src/misc/lv_fs.c ****     if(rddir_p->drv->dir_read_cb == NULL) {
 230:Middlewares/lvgl/src/misc/lv_fs.c ****         fn[0] = '\0';
 231:Middlewares/lvgl/src/misc/lv_fs.c ****         return LV_FS_RES_NOT_IMP;
 232:Middlewares/lvgl/src/misc/lv_fs.c ****     }
 233:Middlewares/lvgl/src/misc/lv_fs.c **** 
 234:Middlewares/lvgl/src/misc/lv_fs.c ****     lv_fs_res_t res = rddir_p->drv->dir_read_cb(rddir_p->drv, rddir_p->dir_d, fn);
 235:Middlewares/lvgl/src/misc/lv_fs.c **** 
 236:Middlewares/lvgl/src/misc/lv_fs.c ****     return res;
 237:Middlewares/lvgl/src/misc/lv_fs.c **** }
 238:Middlewares/lvgl/src/misc/lv_fs.c **** 
 239:Middlewares/lvgl/src/misc/lv_fs.c **** lv_fs_res_t lv_fs_dir_close(lv_fs_dir_t * rddir_p)
 240:Middlewares/lvgl/src/misc/lv_fs.c **** {
 241:Middlewares/lvgl/src/misc/lv_fs.c ****     if(rddir_p->drv == NULL || rddir_p->dir_d == NULL) {
 242:Middlewares/lvgl/src/misc/lv_fs.c ****         return LV_FS_RES_INV_PARAM;
 243:Middlewares/lvgl/src/misc/lv_fs.c ****     }
 244:Middlewares/lvgl/src/misc/lv_fs.c **** 
 245:Middlewares/lvgl/src/misc/lv_fs.c ****     if(rddir_p->drv->dir_close_cb == NULL) {
 246:Middlewares/lvgl/src/misc/lv_fs.c ****         return LV_FS_RES_NOT_IMP;
 247:Middlewares/lvgl/src/misc/lv_fs.c ****     }
 248:Middlewares/lvgl/src/misc/lv_fs.c **** 
 249:Middlewares/lvgl/src/misc/lv_fs.c ****     lv_fs_res_t res = rddir_p->drv->dir_close_cb(rddir_p->drv, rddir_p->dir_d);
 250:Middlewares/lvgl/src/misc/lv_fs.c **** 
 251:Middlewares/lvgl/src/misc/lv_fs.c ****     rddir_p->dir_d = NULL;
 252:Middlewares/lvgl/src/misc/lv_fs.c ****     rddir_p->drv   = NULL;
 253:Middlewares/lvgl/src/misc/lv_fs.c **** 
 254:Middlewares/lvgl/src/misc/lv_fs.c ****     return res;
 255:Middlewares/lvgl/src/misc/lv_fs.c **** }
 256:Middlewares/lvgl/src/misc/lv_fs.c **** 
 257:Middlewares/lvgl/src/misc/lv_fs.c **** void lv_fs_drv_init(lv_fs_drv_t * drv)
 258:Middlewares/lvgl/src/misc/lv_fs.c **** {
 259:Middlewares/lvgl/src/misc/lv_fs.c ****     lv_memset_00(drv, sizeof(lv_fs_drv_t));
ARM GAS  /tmp/ccRLru7H.s 			page 6


 260:Middlewares/lvgl/src/misc/lv_fs.c **** }
 261:Middlewares/lvgl/src/misc/lv_fs.c **** 
 262:Middlewares/lvgl/src/misc/lv_fs.c **** void lv_fs_drv_register(lv_fs_drv_t * drv_p)
 263:Middlewares/lvgl/src/misc/lv_fs.c **** {
 264:Middlewares/lvgl/src/misc/lv_fs.c ****     /*Save the new driver*/
 265:Middlewares/lvgl/src/misc/lv_fs.c ****     lv_fs_drv_t ** new_drv;
 266:Middlewares/lvgl/src/misc/lv_fs.c ****     new_drv = _lv_ll_ins_head(&LV_GC_ROOT(_lv_fsdrv_ll));
 267:Middlewares/lvgl/src/misc/lv_fs.c ****     LV_ASSERT_MALLOC(new_drv);
 268:Middlewares/lvgl/src/misc/lv_fs.c ****     if(new_drv == NULL) return;
 269:Middlewares/lvgl/src/misc/lv_fs.c **** 
 270:Middlewares/lvgl/src/misc/lv_fs.c ****     *new_drv = drv_p;
 271:Middlewares/lvgl/src/misc/lv_fs.c **** }
 272:Middlewares/lvgl/src/misc/lv_fs.c **** 
 273:Middlewares/lvgl/src/misc/lv_fs.c **** lv_fs_drv_t * lv_fs_get_drv(char letter)
 274:Middlewares/lvgl/src/misc/lv_fs.c **** {
 275:Middlewares/lvgl/src/misc/lv_fs.c ****     lv_fs_drv_t ** drv;
 276:Middlewares/lvgl/src/misc/lv_fs.c **** 
 277:Middlewares/lvgl/src/misc/lv_fs.c ****     _LV_LL_READ(&LV_GC_ROOT(_lv_fsdrv_ll), drv) {
 278:Middlewares/lvgl/src/misc/lv_fs.c ****         if((*drv)->letter == letter) {
 279:Middlewares/lvgl/src/misc/lv_fs.c ****             return *drv;
 280:Middlewares/lvgl/src/misc/lv_fs.c ****         }
 281:Middlewares/lvgl/src/misc/lv_fs.c ****     }
 282:Middlewares/lvgl/src/misc/lv_fs.c **** 
 283:Middlewares/lvgl/src/misc/lv_fs.c ****     return NULL;
 284:Middlewares/lvgl/src/misc/lv_fs.c **** }
 285:Middlewares/lvgl/src/misc/lv_fs.c **** 
 286:Middlewares/lvgl/src/misc/lv_fs.c **** char * lv_fs_get_letters(char * buf)
 287:Middlewares/lvgl/src/misc/lv_fs.c **** {
 288:Middlewares/lvgl/src/misc/lv_fs.c ****     lv_fs_drv_t ** drv;
 289:Middlewares/lvgl/src/misc/lv_fs.c ****     uint8_t i = 0;
 290:Middlewares/lvgl/src/misc/lv_fs.c **** 
 291:Middlewares/lvgl/src/misc/lv_fs.c ****     _LV_LL_READ(&LV_GC_ROOT(_lv_fsdrv_ll), drv) {
 292:Middlewares/lvgl/src/misc/lv_fs.c ****         buf[i] = (*drv)->letter;
 293:Middlewares/lvgl/src/misc/lv_fs.c ****         i++;
 294:Middlewares/lvgl/src/misc/lv_fs.c ****     }
 295:Middlewares/lvgl/src/misc/lv_fs.c **** 
 296:Middlewares/lvgl/src/misc/lv_fs.c ****     buf[i] = '\0';
 297:Middlewares/lvgl/src/misc/lv_fs.c **** 
 298:Middlewares/lvgl/src/misc/lv_fs.c ****     return buf;
 299:Middlewares/lvgl/src/misc/lv_fs.c **** }
 300:Middlewares/lvgl/src/misc/lv_fs.c **** 
 301:Middlewares/lvgl/src/misc/lv_fs.c **** const char * lv_fs_get_ext(const char * fn)
 302:Middlewares/lvgl/src/misc/lv_fs.c **** {
 303:Middlewares/lvgl/src/misc/lv_fs.c ****     size_t i;
 304:Middlewares/lvgl/src/misc/lv_fs.c ****     for(i = strlen(fn); i > 0; i--) {
 305:Middlewares/lvgl/src/misc/lv_fs.c ****         if(fn[i] == '.') {
 306:Middlewares/lvgl/src/misc/lv_fs.c ****             return &fn[i + 1];
 307:Middlewares/lvgl/src/misc/lv_fs.c ****         }
 308:Middlewares/lvgl/src/misc/lv_fs.c ****         else if(fn[i] == '/' || fn[i] == '\\') {
 309:Middlewares/lvgl/src/misc/lv_fs.c ****             return ""; /*No extension if a '\' or '/' found*/
 310:Middlewares/lvgl/src/misc/lv_fs.c ****         }
 311:Middlewares/lvgl/src/misc/lv_fs.c ****     }
 312:Middlewares/lvgl/src/misc/lv_fs.c **** 
 313:Middlewares/lvgl/src/misc/lv_fs.c ****     return ""; /*Empty string if no '.' in the file name.*/
 314:Middlewares/lvgl/src/misc/lv_fs.c **** }
 315:Middlewares/lvgl/src/misc/lv_fs.c **** 
 316:Middlewares/lvgl/src/misc/lv_fs.c **** char * lv_fs_up(char * path)
ARM GAS  /tmp/ccRLru7H.s 			page 7


 317:Middlewares/lvgl/src/misc/lv_fs.c **** {
 318:Middlewares/lvgl/src/misc/lv_fs.c ****     size_t len = strlen(path);
 319:Middlewares/lvgl/src/misc/lv_fs.c ****     if(len == 0) return path;
 320:Middlewares/lvgl/src/misc/lv_fs.c **** 
 321:Middlewares/lvgl/src/misc/lv_fs.c ****     len--; /*Go before the trailing '\0'*/
 322:Middlewares/lvgl/src/misc/lv_fs.c **** 
 323:Middlewares/lvgl/src/misc/lv_fs.c ****     /*Ignore trailing '/' or '\'*/
 324:Middlewares/lvgl/src/misc/lv_fs.c ****     while(path[len] == '/' || path[len] == '\\') {
 325:Middlewares/lvgl/src/misc/lv_fs.c ****         path[len] = '\0';
 326:Middlewares/lvgl/src/misc/lv_fs.c ****         if(len > 0)
 327:Middlewares/lvgl/src/misc/lv_fs.c ****             len--;
 328:Middlewares/lvgl/src/misc/lv_fs.c ****         else
 329:Middlewares/lvgl/src/misc/lv_fs.c ****             return path;
 330:Middlewares/lvgl/src/misc/lv_fs.c ****     }
 331:Middlewares/lvgl/src/misc/lv_fs.c **** 
 332:Middlewares/lvgl/src/misc/lv_fs.c ****     size_t i;
 333:Middlewares/lvgl/src/misc/lv_fs.c ****     for(i = len; i > 0; i--) {
 334:Middlewares/lvgl/src/misc/lv_fs.c ****         if(path[i] == '/' || path[i] == '\\') break;
 335:Middlewares/lvgl/src/misc/lv_fs.c ****     }
 336:Middlewares/lvgl/src/misc/lv_fs.c **** 
 337:Middlewares/lvgl/src/misc/lv_fs.c ****     if(i > 0) path[i] = '\0';
 338:Middlewares/lvgl/src/misc/lv_fs.c **** 
 339:Middlewares/lvgl/src/misc/lv_fs.c ****     return path;
 340:Middlewares/lvgl/src/misc/lv_fs.c **** }
 341:Middlewares/lvgl/src/misc/lv_fs.c **** 
 342:Middlewares/lvgl/src/misc/lv_fs.c **** const char * lv_fs_get_last(const char * path)
 343:Middlewares/lvgl/src/misc/lv_fs.c **** {
 344:Middlewares/lvgl/src/misc/lv_fs.c ****     size_t len = strlen(path);
 345:Middlewares/lvgl/src/misc/lv_fs.c ****     if(len == 0) return path;
 346:Middlewares/lvgl/src/misc/lv_fs.c **** 
 347:Middlewares/lvgl/src/misc/lv_fs.c ****     len--; /*Go before the trailing '\0'*/
 348:Middlewares/lvgl/src/misc/lv_fs.c **** 
 349:Middlewares/lvgl/src/misc/lv_fs.c ****     /*Ignore trailing '/' or '\'*/
 350:Middlewares/lvgl/src/misc/lv_fs.c ****     while(path[len] == '/' || path[len] == '\\') {
 351:Middlewares/lvgl/src/misc/lv_fs.c ****         if(len > 0)
 352:Middlewares/lvgl/src/misc/lv_fs.c ****             len--;
 353:Middlewares/lvgl/src/misc/lv_fs.c ****         else
 354:Middlewares/lvgl/src/misc/lv_fs.c ****             return path;
 355:Middlewares/lvgl/src/misc/lv_fs.c ****     }
 356:Middlewares/lvgl/src/misc/lv_fs.c **** 
 357:Middlewares/lvgl/src/misc/lv_fs.c ****     size_t i;
 358:Middlewares/lvgl/src/misc/lv_fs.c ****     for(i = len; i > 0; i--) {
 359:Middlewares/lvgl/src/misc/lv_fs.c ****         if(path[i] == '/' || path[i] == '\\') break;
 360:Middlewares/lvgl/src/misc/lv_fs.c ****     }
 361:Middlewares/lvgl/src/misc/lv_fs.c **** 
 362:Middlewares/lvgl/src/misc/lv_fs.c ****     /*No '/' or '\' in the path so return with path itself*/
 363:Middlewares/lvgl/src/misc/lv_fs.c ****     if(i == 0) return path;
 364:Middlewares/lvgl/src/misc/lv_fs.c **** 
 365:Middlewares/lvgl/src/misc/lv_fs.c ****     return &path[i + 1];
 366:Middlewares/lvgl/src/misc/lv_fs.c **** }
 367:Middlewares/lvgl/src/misc/lv_fs.c **** /**********************
 368:Middlewares/lvgl/src/misc/lv_fs.c ****  *   STATIC FUNCTIONS
 369:Middlewares/lvgl/src/misc/lv_fs.c ****  **********************/
 370:Middlewares/lvgl/src/misc/lv_fs.c **** 
 371:Middlewares/lvgl/src/misc/lv_fs.c **** /**
 372:Middlewares/lvgl/src/misc/lv_fs.c ****  * Skip the driver letter and the possible : after the letter
 373:Middlewares/lvgl/src/misc/lv_fs.c ****  * @param path path string (E.g. S:/folder/file.txt)
ARM GAS  /tmp/ccRLru7H.s 			page 8


 374:Middlewares/lvgl/src/misc/lv_fs.c ****  * @return pointer to the beginning of the real path (E.g. /folder/file.txt)
 375:Middlewares/lvgl/src/misc/lv_fs.c ****  */
 376:Middlewares/lvgl/src/misc/lv_fs.c **** static const char * lv_fs_get_real_path(const char * path)
 377:Middlewares/lvgl/src/misc/lv_fs.c **** {
  28              		.loc 1 377 1 view -0
  29              		.cfi_startproc
  30              		@ args = 0, pretend = 0, frame = 0
  31              		@ frame_needed = 0, uses_anonymous_args = 0
  32              		@ link register save eliminated.
  33              		.loc 1 377 1 is_stmt 0 view .LVU1
  34 0000 0346     		mov	r3, r0
 378:Middlewares/lvgl/src/misc/lv_fs.c ****     path++; /*Ignore the driver letter*/
  35              		.loc 1 378 5 is_stmt 1 view .LVU2
  36              		.loc 1 378 9 is_stmt 0 view .LVU3
  37 0002 0130     		adds	r0, r0, #1
  38              	.LVL1:
 379:Middlewares/lvgl/src/misc/lv_fs.c ****     if(*path == ':') path++;
  39              		.loc 1 379 5 is_stmt 1 view .LVU4
  40              		.loc 1 379 8 is_stmt 0 view .LVU5
  41 0004 5A78     		ldrb	r2, [r3, #1]	@ zero_extendqisi2
  42              		.loc 1 379 7 view .LVU6
  43 0006 3A2A     		cmp	r2, #58
  44 0008 00D0     		beq	.L3
  45              	.L1:
 380:Middlewares/lvgl/src/misc/lv_fs.c **** 
 381:Middlewares/lvgl/src/misc/lv_fs.c ****     return path;
 382:Middlewares/lvgl/src/misc/lv_fs.c **** }
  46              		.loc 1 382 1 view .LVU7
  47 000a 7047     		bx	lr
  48              	.L3:
 379:Middlewares/lvgl/src/misc/lv_fs.c ****     if(*path == ':') path++;
  49              		.loc 1 379 22 is_stmt 1 discriminator 1 view .LVU8
 379:Middlewares/lvgl/src/misc/lv_fs.c ****     if(*path == ':') path++;
  50              		.loc 1 379 26 is_stmt 0 discriminator 1 view .LVU9
  51 000c 981C     		adds	r0, r3, #2
  52              	.LVL2:
 381:Middlewares/lvgl/src/misc/lv_fs.c **** }
  53              		.loc 1 381 5 is_stmt 1 discriminator 1 view .LVU10
 381:Middlewares/lvgl/src/misc/lv_fs.c **** }
  54              		.loc 1 381 12 is_stmt 0 discriminator 1 view .LVU11
  55 000e FCE7     		b	.L1
  56              		.cfi_endproc
  57              	.LFE41:
  59              		.section	.text._lv_fs_init,"ax",%progbits
  60              		.align	1
  61              		.global	_lv_fs_init
  62              		.syntax unified
  63              		.thumb
  64              		.thumb_func
  66              	_lv_fs_init:
  67              	.LFB23:
  51:Middlewares/lvgl/src/misc/lv_fs.c ****     _lv_ll_init(&LV_GC_ROOT(_lv_fsdrv_ll), sizeof(lv_fs_drv_t *));
  68              		.loc 1 51 1 is_stmt 1 view -0
  69              		.cfi_startproc
  70              		@ args = 0, pretend = 0, frame = 0
  71              		@ frame_needed = 0, uses_anonymous_args = 0
  72 0000 08B5     		push	{r3, lr}
ARM GAS  /tmp/ccRLru7H.s 			page 9


  73              	.LCFI0:
  74              		.cfi_def_cfa_offset 8
  75              		.cfi_offset 3, -8
  76              		.cfi_offset 14, -4
  52:Middlewares/lvgl/src/misc/lv_fs.c **** }
  77              		.loc 1 52 5 view .LVU13
  78 0002 0421     		movs	r1, #4
  79 0004 0148     		ldr	r0, .L6
  80 0006 FFF7FEFF 		bl	_lv_ll_init
  81              	.LVL3:
  53:Middlewares/lvgl/src/misc/lv_fs.c **** 
  82              		.loc 1 53 1 is_stmt 0 view .LVU14
  83 000a 08BD     		pop	{r3, pc}
  84              	.L7:
  85              		.align	2
  86              	.L6:
  87 000c 00000000 		.word	_lv_fsdrv_ll
  88              		.cfi_endproc
  89              	.LFE23:
  91              		.section	.text.lv_fs_close,"ax",%progbits
  92              		.align	1
  93              		.global	lv_fs_close
  94              		.syntax unified
  95              		.thumb
  96              		.thumb_func
  98              	lv_fs_close:
  99              	.LVL4:
 100              	.LFB26:
 107:Middlewares/lvgl/src/misc/lv_fs.c ****     if(file_p->drv == NULL) {
 101              		.loc 1 107 1 is_stmt 1 view -0
 102              		.cfi_startproc
 103              		@ args = 0, pretend = 0, frame = 0
 104              		@ frame_needed = 0, uses_anonymous_args = 0
 107:Middlewares/lvgl/src/misc/lv_fs.c ****     if(file_p->drv == NULL) {
 105              		.loc 1 107 1 is_stmt 0 view .LVU16
 106 0000 10B5     		push	{r4, lr}
 107              	.LCFI1:
 108              		.cfi_def_cfa_offset 8
 109              		.cfi_offset 4, -8
 110              		.cfi_offset 14, -4
 111 0002 0446     		mov	r4, r0
 108:Middlewares/lvgl/src/misc/lv_fs.c ****         return LV_FS_RES_INV_PARAM;
 112              		.loc 1 108 5 is_stmt 1 view .LVU17
 108:Middlewares/lvgl/src/misc/lv_fs.c ****         return LV_FS_RES_INV_PARAM;
 113              		.loc 1 108 14 is_stmt 0 view .LVU18
 114 0004 4068     		ldr	r0, [r0, #4]
 115              	.LVL5:
 108:Middlewares/lvgl/src/misc/lv_fs.c ****         return LV_FS_RES_INV_PARAM;
 116              		.loc 1 108 7 view .LVU19
 117 0006 38B1     		cbz	r0, .L10
 112:Middlewares/lvgl/src/misc/lv_fs.c ****         return LV_FS_RES_NOT_IMP;
 118              		.loc 1 112 5 is_stmt 1 view .LVU20
 112:Middlewares/lvgl/src/misc/lv_fs.c ****         return LV_FS_RES_NOT_IMP;
 119              		.loc 1 112 19 is_stmt 0 view .LVU21
 120 0008 C368     		ldr	r3, [r0, #12]
 112:Middlewares/lvgl/src/misc/lv_fs.c ****         return LV_FS_RES_NOT_IMP;
 121              		.loc 1 112 7 view .LVU22
ARM GAS  /tmp/ccRLru7H.s 			page 10


 122 000a 3BB1     		cbz	r3, .L11
 116:Middlewares/lvgl/src/misc/lv_fs.c **** 
 123              		.loc 1 116 5 is_stmt 1 view .LVU23
 116:Middlewares/lvgl/src/misc/lv_fs.c **** 
 124              		.loc 1 116 23 is_stmt 0 view .LVU24
 125 000c 2168     		ldr	r1, [r4]
 126 000e 9847     		blx	r3
 127              	.LVL6:
 118:Middlewares/lvgl/src/misc/lv_fs.c ****     file_p->drv    = NULL;
 128              		.loc 1 118 5 is_stmt 1 view .LVU25
 118:Middlewares/lvgl/src/misc/lv_fs.c ****     file_p->drv    = NULL;
 129              		.loc 1 118 20 is_stmt 0 view .LVU26
 130 0010 0023     		movs	r3, #0
 131 0012 2360     		str	r3, [r4]
 119:Middlewares/lvgl/src/misc/lv_fs.c **** 
 132              		.loc 1 119 5 is_stmt 1 view .LVU27
 119:Middlewares/lvgl/src/misc/lv_fs.c **** 
 133              		.loc 1 119 20 is_stmt 0 view .LVU28
 134 0014 6360     		str	r3, [r4, #4]
 121:Middlewares/lvgl/src/misc/lv_fs.c **** }
 135              		.loc 1 121 5 is_stmt 1 view .LVU29
 136              	.LVL7:
 137              	.L9:
 122:Middlewares/lvgl/src/misc/lv_fs.c **** 
 138              		.loc 1 122 1 is_stmt 0 view .LVU30
 139 0016 10BD     		pop	{r4, pc}
 140              	.LVL8:
 141              	.L10:
 109:Middlewares/lvgl/src/misc/lv_fs.c ****     }
 142              		.loc 1 109 16 view .LVU31
 143 0018 0B20     		movs	r0, #11
 144 001a FCE7     		b	.L9
 145              	.L11:
 113:Middlewares/lvgl/src/misc/lv_fs.c ****     }
 146              		.loc 1 113 16 view .LVU32
 147 001c 0920     		movs	r0, #9
 148 001e FAE7     		b	.L9
 149              		.cfi_endproc
 150              	.LFE26:
 152              		.section	.text.lv_fs_read,"ax",%progbits
 153              		.align	1
 154              		.global	lv_fs_read
 155              		.syntax unified
 156              		.thumb
 157              		.thumb_func
 159              	lv_fs_read:
 160              	.LVL9:
 161              	.LFB27:
 125:Middlewares/lvgl/src/misc/lv_fs.c ****     if(br != NULL) *br = 0;
 162              		.loc 1 125 1 is_stmt 1 view -0
 163              		.cfi_startproc
 164              		@ args = 0, pretend = 0, frame = 8
 165              		@ frame_needed = 0, uses_anonymous_args = 0
 125:Middlewares/lvgl/src/misc/lv_fs.c ****     if(br != NULL) *br = 0;
 166              		.loc 1 125 1 is_stmt 0 view .LVU34
 167 0000 30B5     		push	{r4, r5, lr}
 168              	.LCFI2:
ARM GAS  /tmp/ccRLru7H.s 			page 11


 169              		.cfi_def_cfa_offset 12
 170              		.cfi_offset 4, -12
 171              		.cfi_offset 5, -8
 172              		.cfi_offset 14, -4
 173 0002 85B0     		sub	sp, sp, #20
 174              	.LCFI3:
 175              		.cfi_def_cfa_offset 32
 176 0004 8446     		mov	ip, r0
 126:Middlewares/lvgl/src/misc/lv_fs.c ****     if(file_p->drv == NULL) return LV_FS_RES_INV_PARAM;
 177              		.loc 1 126 5 is_stmt 1 view .LVU35
 126:Middlewares/lvgl/src/misc/lv_fs.c ****     if(file_p->drv == NULL) return LV_FS_RES_INV_PARAM;
 178              		.loc 1 126 7 is_stmt 0 view .LVU36
 179 0006 1C46     		mov	r4, r3
 180 0008 0BB1     		cbz	r3, .L14
 126:Middlewares/lvgl/src/misc/lv_fs.c ****     if(file_p->drv == NULL) return LV_FS_RES_INV_PARAM;
 181              		.loc 1 126 20 is_stmt 1 discriminator 1 view .LVU37
 126:Middlewares/lvgl/src/misc/lv_fs.c ****     if(file_p->drv == NULL) return LV_FS_RES_INV_PARAM;
 182              		.loc 1 126 24 is_stmt 0 discriminator 1 view .LVU38
 183 000a 0023     		movs	r3, #0
 184              	.LVL10:
 126:Middlewares/lvgl/src/misc/lv_fs.c ****     if(file_p->drv == NULL) return LV_FS_RES_INV_PARAM;
 185              		.loc 1 126 24 discriminator 1 view .LVU39
 186 000c 2360     		str	r3, [r4]
 187              	.L14:
 127:Middlewares/lvgl/src/misc/lv_fs.c ****     if(file_p->drv->read_cb == NULL) return LV_FS_RES_NOT_IMP;
 188              		.loc 1 127 5 is_stmt 1 view .LVU40
 127:Middlewares/lvgl/src/misc/lv_fs.c ****     if(file_p->drv->read_cb == NULL) return LV_FS_RES_NOT_IMP;
 189              		.loc 1 127 14 is_stmt 0 view .LVU41
 190 000e DCF80400 		ldr	r0, [ip, #4]
 191              	.LVL11:
 127:Middlewares/lvgl/src/misc/lv_fs.c ****     if(file_p->drv->read_cb == NULL) return LV_FS_RES_NOT_IMP;
 192              		.loc 1 127 7 view .LVU42
 193 0012 78B1     		cbz	r0, .L16
 128:Middlewares/lvgl/src/misc/lv_fs.c **** 
 194              		.loc 1 128 5 is_stmt 1 view .LVU43
 128:Middlewares/lvgl/src/misc/lv_fs.c **** 
 195              		.loc 1 128 19 is_stmt 0 view .LVU44
 196 0014 0569     		ldr	r5, [r0, #16]
 128:Middlewares/lvgl/src/misc/lv_fs.c **** 
 197              		.loc 1 128 7 view .LVU45
 198 0016 7DB1     		cbz	r5, .L17
 130:Middlewares/lvgl/src/misc/lv_fs.c ****     lv_fs_res_t res = file_p->drv->read_cb(file_p->drv, file_p->file_d, buf, btr, &br_tmp);
 199              		.loc 1 130 5 is_stmt 1 view .LVU46
 130:Middlewares/lvgl/src/misc/lv_fs.c ****     lv_fs_res_t res = file_p->drv->read_cb(file_p->drv, file_p->file_d, buf, btr, &br_tmp);
 200              		.loc 1 130 14 is_stmt 0 view .LVU47
 201 0018 0023     		movs	r3, #0
 202 001a 0393     		str	r3, [sp, #12]
 131:Middlewares/lvgl/src/misc/lv_fs.c ****     if(br != NULL) *br = br_tmp;
 203              		.loc 1 131 5 is_stmt 1 view .LVU48
 131:Middlewares/lvgl/src/misc/lv_fs.c ****     if(br != NULL) *br = br_tmp;
 204              		.loc 1 131 23 is_stmt 0 view .LVU49
 205 001c 03AB     		add	r3, sp, #12
 206 001e 0093     		str	r3, [sp]
 207 0020 1346     		mov	r3, r2
 208 0022 0A46     		mov	r2, r1
 209              	.LVL12:
 131:Middlewares/lvgl/src/misc/lv_fs.c ****     if(br != NULL) *br = br_tmp;
ARM GAS  /tmp/ccRLru7H.s 			page 12


 210              		.loc 1 131 23 view .LVU50
 211 0024 DCF80010 		ldr	r1, [ip]
 212              	.LVL13:
 131:Middlewares/lvgl/src/misc/lv_fs.c ****     if(br != NULL) *br = br_tmp;
 213              		.loc 1 131 23 view .LVU51
 214 0028 A847     		blx	r5
 215              	.LVL14:
 132:Middlewares/lvgl/src/misc/lv_fs.c **** 
 216              		.loc 1 132 5 is_stmt 1 view .LVU52
 132:Middlewares/lvgl/src/misc/lv_fs.c **** 
 217              		.loc 1 132 7 is_stmt 0 view .LVU53
 218 002a 0CB1     		cbz	r4, .L15
 132:Middlewares/lvgl/src/misc/lv_fs.c **** 
 219              		.loc 1 132 20 is_stmt 1 discriminator 1 view .LVU54
 132:Middlewares/lvgl/src/misc/lv_fs.c **** 
 220              		.loc 1 132 24 is_stmt 0 discriminator 1 view .LVU55
 221 002c 039B     		ldr	r3, [sp, #12]
 222 002e 2360     		str	r3, [r4]
 223              	.LVL15:
 224              	.L15:
 135:Middlewares/lvgl/src/misc/lv_fs.c **** 
 225              		.loc 1 135 1 view .LVU56
 226 0030 05B0     		add	sp, sp, #20
 227              	.LCFI4:
 228              		.cfi_remember_state
 229              		.cfi_def_cfa_offset 12
 230              		@ sp needed
 231 0032 30BD     		pop	{r4, r5, pc}
 232              	.LVL16:
 233              	.L16:
 234              	.LCFI5:
 235              		.cfi_restore_state
 127:Middlewares/lvgl/src/misc/lv_fs.c ****     if(file_p->drv->read_cb == NULL) return LV_FS_RES_NOT_IMP;
 236              		.loc 1 127 36 view .LVU57
 237 0034 0B20     		movs	r0, #11
 238 0036 FBE7     		b	.L15
 239              	.L17:
 128:Middlewares/lvgl/src/misc/lv_fs.c **** 
 240              		.loc 1 128 45 view .LVU58
 241 0038 0920     		movs	r0, #9
 242 003a F9E7     		b	.L15
 243              		.cfi_endproc
 244              	.LFE27:
 246              		.section	.text.lv_fs_write,"ax",%progbits
 247              		.align	1
 248              		.global	lv_fs_write
 249              		.syntax unified
 250              		.thumb
 251              		.thumb_func
 253              	lv_fs_write:
 254              	.LVL17:
 255              	.LFB28:
 138:Middlewares/lvgl/src/misc/lv_fs.c ****     if(bw != NULL) *bw = 0;
 256              		.loc 1 138 1 is_stmt 1 view -0
 257              		.cfi_startproc
 258              		@ args = 0, pretend = 0, frame = 8
 259              		@ frame_needed = 0, uses_anonymous_args = 0
ARM GAS  /tmp/ccRLru7H.s 			page 13


 138:Middlewares/lvgl/src/misc/lv_fs.c ****     if(bw != NULL) *bw = 0;
 260              		.loc 1 138 1 is_stmt 0 view .LVU60
 261 0000 30B5     		push	{r4, r5, lr}
 262              	.LCFI6:
 263              		.cfi_def_cfa_offset 12
 264              		.cfi_offset 4, -12
 265              		.cfi_offset 5, -8
 266              		.cfi_offset 14, -4
 267 0002 85B0     		sub	sp, sp, #20
 268              	.LCFI7:
 269              		.cfi_def_cfa_offset 32
 270 0004 8446     		mov	ip, r0
 139:Middlewares/lvgl/src/misc/lv_fs.c **** 
 271              		.loc 1 139 5 is_stmt 1 view .LVU61
 139:Middlewares/lvgl/src/misc/lv_fs.c **** 
 272              		.loc 1 139 7 is_stmt 0 view .LVU62
 273 0006 1C46     		mov	r4, r3
 274 0008 0BB1     		cbz	r3, .L20
 139:Middlewares/lvgl/src/misc/lv_fs.c **** 
 275              		.loc 1 139 20 is_stmt 1 discriminator 1 view .LVU63
 139:Middlewares/lvgl/src/misc/lv_fs.c **** 
 276              		.loc 1 139 24 is_stmt 0 discriminator 1 view .LVU64
 277 000a 0023     		movs	r3, #0
 278              	.LVL18:
 139:Middlewares/lvgl/src/misc/lv_fs.c **** 
 279              		.loc 1 139 24 discriminator 1 view .LVU65
 280 000c 2360     		str	r3, [r4]
 281              	.L20:
 141:Middlewares/lvgl/src/misc/lv_fs.c ****         return LV_FS_RES_INV_PARAM;
 282              		.loc 1 141 5 is_stmt 1 view .LVU66
 141:Middlewares/lvgl/src/misc/lv_fs.c ****         return LV_FS_RES_INV_PARAM;
 283              		.loc 1 141 14 is_stmt 0 view .LVU67
 284 000e DCF80400 		ldr	r0, [ip, #4]
 285              	.LVL19:
 141:Middlewares/lvgl/src/misc/lv_fs.c ****         return LV_FS_RES_INV_PARAM;
 286              		.loc 1 141 7 view .LVU68
 287 0012 78B1     		cbz	r0, .L22
 145:Middlewares/lvgl/src/misc/lv_fs.c ****         return LV_FS_RES_NOT_IMP;
 288              		.loc 1 145 5 is_stmt 1 view .LVU69
 145:Middlewares/lvgl/src/misc/lv_fs.c ****         return LV_FS_RES_NOT_IMP;
 289              		.loc 1 145 19 is_stmt 0 view .LVU70
 290 0014 4569     		ldr	r5, [r0, #20]
 145:Middlewares/lvgl/src/misc/lv_fs.c ****         return LV_FS_RES_NOT_IMP;
 291              		.loc 1 145 7 view .LVU71
 292 0016 7DB1     		cbz	r5, .L23
 149:Middlewares/lvgl/src/misc/lv_fs.c ****     lv_fs_res_t res = file_p->drv->write_cb(file_p->drv, file_p->file_d, buf, btw, &bw_tmp);
 293              		.loc 1 149 5 is_stmt 1 view .LVU72
 149:Middlewares/lvgl/src/misc/lv_fs.c ****     lv_fs_res_t res = file_p->drv->write_cb(file_p->drv, file_p->file_d, buf, btw, &bw_tmp);
 294              		.loc 1 149 14 is_stmt 0 view .LVU73
 295 0018 0023     		movs	r3, #0
 296 001a 0393     		str	r3, [sp, #12]
 150:Middlewares/lvgl/src/misc/lv_fs.c ****     if(bw != NULL) *bw = bw_tmp;
 297              		.loc 1 150 5 is_stmt 1 view .LVU74
 150:Middlewares/lvgl/src/misc/lv_fs.c ****     if(bw != NULL) *bw = bw_tmp;
 298              		.loc 1 150 23 is_stmt 0 view .LVU75
 299 001c 03AB     		add	r3, sp, #12
 300 001e 0093     		str	r3, [sp]
ARM GAS  /tmp/ccRLru7H.s 			page 14


 301 0020 1346     		mov	r3, r2
 302 0022 0A46     		mov	r2, r1
 303              	.LVL20:
 150:Middlewares/lvgl/src/misc/lv_fs.c ****     if(bw != NULL) *bw = bw_tmp;
 304              		.loc 1 150 23 view .LVU76
 305 0024 DCF80010 		ldr	r1, [ip]
 306              	.LVL21:
 150:Middlewares/lvgl/src/misc/lv_fs.c ****     if(bw != NULL) *bw = bw_tmp;
 307              		.loc 1 150 23 view .LVU77
 308 0028 A847     		blx	r5
 309              	.LVL22:
 151:Middlewares/lvgl/src/misc/lv_fs.c **** 
 310              		.loc 1 151 5 is_stmt 1 view .LVU78
 151:Middlewares/lvgl/src/misc/lv_fs.c **** 
 311              		.loc 1 151 7 is_stmt 0 view .LVU79
 312 002a 0CB1     		cbz	r4, .L21
 151:Middlewares/lvgl/src/misc/lv_fs.c **** 
 313              		.loc 1 151 20 is_stmt 1 discriminator 1 view .LVU80
 151:Middlewares/lvgl/src/misc/lv_fs.c **** 
 314              		.loc 1 151 24 is_stmt 0 discriminator 1 view .LVU81
 315 002c 039B     		ldr	r3, [sp, #12]
 316 002e 2360     		str	r3, [r4]
 317              	.LVL23:
 318              	.L21:
 154:Middlewares/lvgl/src/misc/lv_fs.c **** 
 319              		.loc 1 154 1 view .LVU82
 320 0030 05B0     		add	sp, sp, #20
 321              	.LCFI8:
 322              		.cfi_remember_state
 323              		.cfi_def_cfa_offset 12
 324              		@ sp needed
 325 0032 30BD     		pop	{r4, r5, pc}
 326              	.LVL24:
 327              	.L22:
 328              	.LCFI9:
 329              		.cfi_restore_state
 142:Middlewares/lvgl/src/misc/lv_fs.c ****     }
 330              		.loc 1 142 16 view .LVU83
 331 0034 0B20     		movs	r0, #11
 332 0036 FBE7     		b	.L21
 333              	.L23:
 146:Middlewares/lvgl/src/misc/lv_fs.c ****     }
 334              		.loc 1 146 16 view .LVU84
 335 0038 0920     		movs	r0, #9
 336 003a F9E7     		b	.L21
 337              		.cfi_endproc
 338              	.LFE28:
 340              		.section	.text.lv_fs_seek,"ax",%progbits
 341              		.align	1
 342              		.global	lv_fs_seek
 343              		.syntax unified
 344              		.thumb
 345              		.thumb_func
 347              	lv_fs_seek:
 348              	.LVL25:
 349              	.LFB29:
 157:Middlewares/lvgl/src/misc/lv_fs.c ****     if(file_p->drv == NULL) {
ARM GAS  /tmp/ccRLru7H.s 			page 15


 350              		.loc 1 157 1 is_stmt 1 view -0
 351              		.cfi_startproc
 352              		@ args = 0, pretend = 0, frame = 0
 353              		@ frame_needed = 0, uses_anonymous_args = 0
 157:Middlewares/lvgl/src/misc/lv_fs.c ****     if(file_p->drv == NULL) {
 354              		.loc 1 157 1 is_stmt 0 view .LVU86
 355 0000 8446     		mov	ip, r0
 158:Middlewares/lvgl/src/misc/lv_fs.c ****         return LV_FS_RES_INV_PARAM;
 356              		.loc 1 158 5 is_stmt 1 view .LVU87
 158:Middlewares/lvgl/src/misc/lv_fs.c ****         return LV_FS_RES_INV_PARAM;
 357              		.loc 1 158 14 is_stmt 0 view .LVU88
 358 0002 4068     		ldr	r0, [r0, #4]
 359              	.LVL26:
 158:Middlewares/lvgl/src/misc/lv_fs.c ****         return LV_FS_RES_INV_PARAM;
 360              		.loc 1 158 7 view .LVU89
 361 0004 40B1     		cbz	r0, .L27
 157:Middlewares/lvgl/src/misc/lv_fs.c ****     if(file_p->drv == NULL) {
 362              		.loc 1 157 1 view .LVU90
 363 0006 10B5     		push	{r4, lr}
 364              	.LCFI10:
 365              		.cfi_def_cfa_offset 8
 366              		.cfi_offset 4, -8
 367              		.cfi_offset 14, -4
 368 0008 1346     		mov	r3, r2
 162:Middlewares/lvgl/src/misc/lv_fs.c ****         return LV_FS_RES_NOT_IMP;
 369              		.loc 1 162 5 is_stmt 1 view .LVU91
 162:Middlewares/lvgl/src/misc/lv_fs.c ****         return LV_FS_RES_NOT_IMP;
 370              		.loc 1 162 19 is_stmt 0 view .LVU92
 371 000a 8469     		ldr	r4, [r0, #24]
 162:Middlewares/lvgl/src/misc/lv_fs.c ****         return LV_FS_RES_NOT_IMP;
 372              		.loc 1 162 7 view .LVU93
 373 000c 34B1     		cbz	r4, .L28
 166:Middlewares/lvgl/src/misc/lv_fs.c **** 
 374              		.loc 1 166 5 is_stmt 1 view .LVU94
 166:Middlewares/lvgl/src/misc/lv_fs.c **** 
 375              		.loc 1 166 23 is_stmt 0 view .LVU95
 376 000e 0A46     		mov	r2, r1
 377              	.LVL27:
 166:Middlewares/lvgl/src/misc/lv_fs.c **** 
 378              		.loc 1 166 23 view .LVU96
 379 0010 DCF80010 		ldr	r1, [ip]
 380              	.LVL28:
 166:Middlewares/lvgl/src/misc/lv_fs.c **** 
 381              		.loc 1 166 23 view .LVU97
 382 0014 A047     		blx	r4
 383              	.LVL29:
 168:Middlewares/lvgl/src/misc/lv_fs.c **** }
 384              		.loc 1 168 5 is_stmt 1 view .LVU98
 385              	.L26:
 169:Middlewares/lvgl/src/misc/lv_fs.c **** 
 386              		.loc 1 169 1 is_stmt 0 view .LVU99
 387 0016 10BD     		pop	{r4, pc}
 388              	.LVL30:
 389              	.L27:
 390              	.LCFI11:
 391              		.cfi_def_cfa_offset 0
 392              		.cfi_restore 4
ARM GAS  /tmp/ccRLru7H.s 			page 16


 393              		.cfi_restore 14
 159:Middlewares/lvgl/src/misc/lv_fs.c ****     }
 394              		.loc 1 159 16 view .LVU100
 395 0018 0B20     		movs	r0, #11
 169:Middlewares/lvgl/src/misc/lv_fs.c **** 
 396              		.loc 1 169 1 view .LVU101
 397 001a 7047     		bx	lr
 398              	.L28:
 399              	.LCFI12:
 400              		.cfi_def_cfa_offset 8
 401              		.cfi_offset 4, -8
 402              		.cfi_offset 14, -4
 163:Middlewares/lvgl/src/misc/lv_fs.c ****     }
 403              		.loc 1 163 16 view .LVU102
 404 001c 0920     		movs	r0, #9
 405 001e FAE7     		b	.L26
 406              		.cfi_endproc
 407              	.LFE29:
 409              		.section	.text.lv_fs_tell,"ax",%progbits
 410              		.align	1
 411              		.global	lv_fs_tell
 412              		.syntax unified
 413              		.thumb
 414              		.thumb_func
 416              	lv_fs_tell:
 417              	.LVL31:
 418              	.LFB30:
 172:Middlewares/lvgl/src/misc/lv_fs.c ****     if(file_p->drv == NULL) {
 419              		.loc 1 172 1 is_stmt 1 view -0
 420              		.cfi_startproc
 421              		@ args = 0, pretend = 0, frame = 0
 422              		@ frame_needed = 0, uses_anonymous_args = 0
 172:Middlewares/lvgl/src/misc/lv_fs.c ****     if(file_p->drv == NULL) {
 423              		.loc 1 172 1 is_stmt 0 view .LVU104
 424 0000 0346     		mov	r3, r0
 425 0002 0A46     		mov	r2, r1
 173:Middlewares/lvgl/src/misc/lv_fs.c ****         *pos = 0;
 426              		.loc 1 173 5 is_stmt 1 view .LVU105
 173:Middlewares/lvgl/src/misc/lv_fs.c ****         *pos = 0;
 427              		.loc 1 173 14 is_stmt 0 view .LVU106
 428 0004 4068     		ldr	r0, [r0, #4]
 429              	.LVL32:
 173:Middlewares/lvgl/src/misc/lv_fs.c ****         *pos = 0;
 430              		.loc 1 173 7 view .LVU107
 431 0006 28B1     		cbz	r0, .L40
 172:Middlewares/lvgl/src/misc/lv_fs.c ****     if(file_p->drv == NULL) {
 432              		.loc 1 172 1 view .LVU108
 433 0008 10B5     		push	{r4, lr}
 434              	.LCFI13:
 435              		.cfi_def_cfa_offset 8
 436              		.cfi_offset 4, -8
 437              		.cfi_offset 14, -4
 178:Middlewares/lvgl/src/misc/lv_fs.c ****         *pos = 0;
 438              		.loc 1 178 5 is_stmt 1 view .LVU109
 178:Middlewares/lvgl/src/misc/lv_fs.c ****         *pos = 0;
 439              		.loc 1 178 19 is_stmt 0 view .LVU110
 440 000a C469     		ldr	r4, [r0, #28]
ARM GAS  /tmp/ccRLru7H.s 			page 17


 178:Middlewares/lvgl/src/misc/lv_fs.c ****         *pos = 0;
 441              		.loc 1 178 7 view .LVU111
 442 000c 34B1     		cbz	r4, .L41
 183:Middlewares/lvgl/src/misc/lv_fs.c **** 
 443              		.loc 1 183 5 is_stmt 1 view .LVU112
 183:Middlewares/lvgl/src/misc/lv_fs.c **** 
 444              		.loc 1 183 23 is_stmt 0 view .LVU113
 445 000e 1968     		ldr	r1, [r3]
 446              	.LVL33:
 183:Middlewares/lvgl/src/misc/lv_fs.c **** 
 447              		.loc 1 183 23 view .LVU114
 448 0010 A047     		blx	r4
 449              	.LVL34:
 185:Middlewares/lvgl/src/misc/lv_fs.c **** }
 450              		.loc 1 185 5 is_stmt 1 view .LVU115
 451              	.L35:
 186:Middlewares/lvgl/src/misc/lv_fs.c **** 
 452              		.loc 1 186 1 is_stmt 0 view .LVU116
 453 0012 10BD     		pop	{r4, pc}
 454              	.LVL35:
 455              	.L40:
 456              	.LCFI14:
 457              		.cfi_def_cfa_offset 0
 458              		.cfi_restore 4
 459              		.cfi_restore 14
 174:Middlewares/lvgl/src/misc/lv_fs.c ****         return LV_FS_RES_INV_PARAM;
 460              		.loc 1 174 9 is_stmt 1 view .LVU117
 174:Middlewares/lvgl/src/misc/lv_fs.c ****         return LV_FS_RES_INV_PARAM;
 461              		.loc 1 174 14 is_stmt 0 view .LVU118
 462 0014 0023     		movs	r3, #0
 463              	.LVL36:
 174:Middlewares/lvgl/src/misc/lv_fs.c ****         return LV_FS_RES_INV_PARAM;
 464              		.loc 1 174 14 view .LVU119
 465 0016 0B60     		str	r3, [r1]
 175:Middlewares/lvgl/src/misc/lv_fs.c ****     }
 466              		.loc 1 175 9 is_stmt 1 view .LVU120
 175:Middlewares/lvgl/src/misc/lv_fs.c ****     }
 467              		.loc 1 175 16 is_stmt 0 view .LVU121
 468 0018 0B20     		movs	r0, #11
 186:Middlewares/lvgl/src/misc/lv_fs.c **** 
 469              		.loc 1 186 1 view .LVU122
 470 001a 7047     		bx	lr
 471              	.LVL37:
 472              	.L41:
 473              	.LCFI15:
 474              		.cfi_def_cfa_offset 8
 475              		.cfi_offset 4, -8
 476              		.cfi_offset 14, -4
 179:Middlewares/lvgl/src/misc/lv_fs.c ****         return LV_FS_RES_NOT_IMP;
 477              		.loc 1 179 9 is_stmt 1 view .LVU123
 179:Middlewares/lvgl/src/misc/lv_fs.c ****         return LV_FS_RES_NOT_IMP;
 478              		.loc 1 179 14 is_stmt 0 view .LVU124
 479 001c 0023     		movs	r3, #0
 480              	.LVL38:
 179:Middlewares/lvgl/src/misc/lv_fs.c ****         return LV_FS_RES_NOT_IMP;
 481              		.loc 1 179 14 view .LVU125
 482 001e 0B60     		str	r3, [r1]
ARM GAS  /tmp/ccRLru7H.s 			page 18


 180:Middlewares/lvgl/src/misc/lv_fs.c ****     }
 483              		.loc 1 180 9 is_stmt 1 view .LVU126
 180:Middlewares/lvgl/src/misc/lv_fs.c ****     }
 484              		.loc 1 180 16 is_stmt 0 view .LVU127
 485 0020 0920     		movs	r0, #9
 486 0022 F6E7     		b	.L35
 487              		.cfi_endproc
 488              	.LFE30:
 490              		.section	.text.lv_fs_dir_read,"ax",%progbits
 491              		.align	1
 492              		.global	lv_fs_dir_read
 493              		.syntax unified
 494              		.thumb
 495              		.thumb_func
 497              	lv_fs_dir_read:
 498              	.LVL39:
 499              	.LFB32:
 223:Middlewares/lvgl/src/misc/lv_fs.c ****     if(rddir_p->drv == NULL || rddir_p->dir_d == NULL) {
 500              		.loc 1 223 1 is_stmt 1 view -0
 501              		.cfi_startproc
 502              		@ args = 0, pretend = 0, frame = 0
 503              		@ frame_needed = 0, uses_anonymous_args = 0
 223:Middlewares/lvgl/src/misc/lv_fs.c ****     if(rddir_p->drv == NULL || rddir_p->dir_d == NULL) {
 504              		.loc 1 223 1 is_stmt 0 view .LVU129
 505 0000 08B5     		push	{r3, lr}
 506              	.LCFI16:
 507              		.cfi_def_cfa_offset 8
 508              		.cfi_offset 3, -8
 509              		.cfi_offset 14, -4
 510 0002 0346     		mov	r3, r0
 511 0004 0A46     		mov	r2, r1
 224:Middlewares/lvgl/src/misc/lv_fs.c ****         fn[0] = '\0';
 512              		.loc 1 224 5 is_stmt 1 view .LVU130
 224:Middlewares/lvgl/src/misc/lv_fs.c ****         fn[0] = '\0';
 513              		.loc 1 224 15 is_stmt 0 view .LVU131
 514 0006 4068     		ldr	r0, [r0, #4]
 515              	.LVL40:
 224:Middlewares/lvgl/src/misc/lv_fs.c ****         fn[0] = '\0';
 516              		.loc 1 224 7 view .LVU132
 517 0008 28B1     		cbz	r0, .L43
 224:Middlewares/lvgl/src/misc/lv_fs.c ****         fn[0] = '\0';
 518              		.loc 1 224 39 discriminator 1 view .LVU133
 519 000a 1968     		ldr	r1, [r3]
 520              	.LVL41:
 224:Middlewares/lvgl/src/misc/lv_fs.c ****         fn[0] = '\0';
 521              		.loc 1 224 29 discriminator 1 view .LVU134
 522 000c 19B1     		cbz	r1, .L43
 229:Middlewares/lvgl/src/misc/lv_fs.c ****         fn[0] = '\0';
 523              		.loc 1 229 5 is_stmt 1 view .LVU135
 229:Middlewares/lvgl/src/misc/lv_fs.c ****         fn[0] = '\0';
 524              		.loc 1 229 20 is_stmt 0 view .LVU136
 525 000e 436A     		ldr	r3, [r0, #36]
 526              	.LVL42:
 229:Middlewares/lvgl/src/misc/lv_fs.c ****         fn[0] = '\0';
 527              		.loc 1 229 7 view .LVU137
 528 0010 2BB1     		cbz	r3, .L48
 234:Middlewares/lvgl/src/misc/lv_fs.c **** 
ARM GAS  /tmp/ccRLru7H.s 			page 19


 529              		.loc 1 234 5 is_stmt 1 view .LVU138
 234:Middlewares/lvgl/src/misc/lv_fs.c **** 
 530              		.loc 1 234 23 is_stmt 0 view .LVU139
 531 0012 9847     		blx	r3
 532              	.LVL43:
 236:Middlewares/lvgl/src/misc/lv_fs.c **** }
 533              		.loc 1 236 5 is_stmt 1 view .LVU140
 534              	.L45:
 237:Middlewares/lvgl/src/misc/lv_fs.c **** 
 535              		.loc 1 237 1 is_stmt 0 view .LVU141
 536 0014 08BD     		pop	{r3, pc}
 537              	.LVL44:
 538              	.L43:
 225:Middlewares/lvgl/src/misc/lv_fs.c ****         return LV_FS_RES_INV_PARAM;
 539              		.loc 1 225 9 is_stmt 1 view .LVU142
 225:Middlewares/lvgl/src/misc/lv_fs.c ****         return LV_FS_RES_INV_PARAM;
 540              		.loc 1 225 15 is_stmt 0 view .LVU143
 541 0016 0023     		movs	r3, #0
 542              	.LVL45:
 225:Middlewares/lvgl/src/misc/lv_fs.c ****         return LV_FS_RES_INV_PARAM;
 543              		.loc 1 225 15 view .LVU144
 544 0018 1370     		strb	r3, [r2]
 226:Middlewares/lvgl/src/misc/lv_fs.c ****     }
 545              		.loc 1 226 9 is_stmt 1 view .LVU145
 226:Middlewares/lvgl/src/misc/lv_fs.c ****     }
 546              		.loc 1 226 16 is_stmt 0 view .LVU146
 547 001a 0B20     		movs	r0, #11
 548 001c FAE7     		b	.L45
 549              	.L48:
 230:Middlewares/lvgl/src/misc/lv_fs.c ****         return LV_FS_RES_NOT_IMP;
 550              		.loc 1 230 9 is_stmt 1 view .LVU147
 230:Middlewares/lvgl/src/misc/lv_fs.c ****         return LV_FS_RES_NOT_IMP;
 551              		.loc 1 230 15 is_stmt 0 view .LVU148
 552 001e 1370     		strb	r3, [r2]
 231:Middlewares/lvgl/src/misc/lv_fs.c ****     }
 553              		.loc 1 231 9 is_stmt 1 view .LVU149
 231:Middlewares/lvgl/src/misc/lv_fs.c ****     }
 554              		.loc 1 231 16 is_stmt 0 view .LVU150
 555 0020 0920     		movs	r0, #9
 556 0022 F7E7     		b	.L45
 557              		.cfi_endproc
 558              	.LFE32:
 560              		.section	.text.lv_fs_dir_close,"ax",%progbits
 561              		.align	1
 562              		.global	lv_fs_dir_close
 563              		.syntax unified
 564              		.thumb
 565              		.thumb_func
 567              	lv_fs_dir_close:
 568              	.LVL46:
 569              	.LFB33:
 240:Middlewares/lvgl/src/misc/lv_fs.c ****     if(rddir_p->drv == NULL || rddir_p->dir_d == NULL) {
 570              		.loc 1 240 1 is_stmt 1 view -0
 571              		.cfi_startproc
 572              		@ args = 0, pretend = 0, frame = 0
 573              		@ frame_needed = 0, uses_anonymous_args = 0
 240:Middlewares/lvgl/src/misc/lv_fs.c ****     if(rddir_p->drv == NULL || rddir_p->dir_d == NULL) {
ARM GAS  /tmp/ccRLru7H.s 			page 20


 574              		.loc 1 240 1 is_stmt 0 view .LVU152
 575 0000 10B5     		push	{r4, lr}
 576              	.LCFI17:
 577              		.cfi_def_cfa_offset 8
 578              		.cfi_offset 4, -8
 579              		.cfi_offset 14, -4
 580 0002 0446     		mov	r4, r0
 241:Middlewares/lvgl/src/misc/lv_fs.c ****         return LV_FS_RES_INV_PARAM;
 581              		.loc 1 241 5 is_stmt 1 view .LVU153
 241:Middlewares/lvgl/src/misc/lv_fs.c ****         return LV_FS_RES_INV_PARAM;
 582              		.loc 1 241 15 is_stmt 0 view .LVU154
 583 0004 4068     		ldr	r0, [r0, #4]
 584              	.LVL47:
 241:Middlewares/lvgl/src/misc/lv_fs.c ****         return LV_FS_RES_INV_PARAM;
 585              		.loc 1 241 7 view .LVU155
 586 0006 40B1     		cbz	r0, .L51
 241:Middlewares/lvgl/src/misc/lv_fs.c ****         return LV_FS_RES_INV_PARAM;
 587              		.loc 1 241 39 discriminator 1 view .LVU156
 588 0008 2168     		ldr	r1, [r4]
 241:Middlewares/lvgl/src/misc/lv_fs.c ****         return LV_FS_RES_INV_PARAM;
 589              		.loc 1 241 29 discriminator 1 view .LVU157
 590 000a 41B1     		cbz	r1, .L52
 245:Middlewares/lvgl/src/misc/lv_fs.c ****         return LV_FS_RES_NOT_IMP;
 591              		.loc 1 245 5 is_stmt 1 view .LVU158
 245:Middlewares/lvgl/src/misc/lv_fs.c ****         return LV_FS_RES_NOT_IMP;
 592              		.loc 1 245 20 is_stmt 0 view .LVU159
 593 000c 836A     		ldr	r3, [r0, #40]
 245:Middlewares/lvgl/src/misc/lv_fs.c ****         return LV_FS_RES_NOT_IMP;
 594              		.loc 1 245 7 view .LVU160
 595 000e 43B1     		cbz	r3, .L53
 249:Middlewares/lvgl/src/misc/lv_fs.c **** 
 596              		.loc 1 249 5 is_stmt 1 view .LVU161
 249:Middlewares/lvgl/src/misc/lv_fs.c **** 
 597              		.loc 1 249 23 is_stmt 0 view .LVU162
 598 0010 9847     		blx	r3
 599              	.LVL48:
 251:Middlewares/lvgl/src/misc/lv_fs.c ****     rddir_p->drv   = NULL;
 600              		.loc 1 251 5 is_stmt 1 view .LVU163
 251:Middlewares/lvgl/src/misc/lv_fs.c ****     rddir_p->drv   = NULL;
 601              		.loc 1 251 20 is_stmt 0 view .LVU164
 602 0012 0023     		movs	r3, #0
 603 0014 2360     		str	r3, [r4]
 252:Middlewares/lvgl/src/misc/lv_fs.c **** 
 604              		.loc 1 252 5 is_stmt 1 view .LVU165
 252:Middlewares/lvgl/src/misc/lv_fs.c **** 
 605              		.loc 1 252 20 is_stmt 0 view .LVU166
 606 0016 6360     		str	r3, [r4, #4]
 254:Middlewares/lvgl/src/misc/lv_fs.c **** }
 607              		.loc 1 254 5 is_stmt 1 view .LVU167
 608              	.LVL49:
 609              	.L50:
 255:Middlewares/lvgl/src/misc/lv_fs.c **** 
 610              		.loc 1 255 1 is_stmt 0 view .LVU168
 611 0018 10BD     		pop	{r4, pc}
 612              	.LVL50:
 613              	.L51:
 242:Middlewares/lvgl/src/misc/lv_fs.c ****     }
ARM GAS  /tmp/ccRLru7H.s 			page 21


 614              		.loc 1 242 16 view .LVU169
 615 001a 0B20     		movs	r0, #11
 616 001c FCE7     		b	.L50
 617              	.L52:
 618 001e 0B20     		movs	r0, #11
 619 0020 FAE7     		b	.L50
 620              	.L53:
 246:Middlewares/lvgl/src/misc/lv_fs.c ****     }
 621              		.loc 1 246 16 view .LVU170
 622 0022 0920     		movs	r0, #9
 623 0024 F8E7     		b	.L50
 624              		.cfi_endproc
 625              	.LFE33:
 627              		.section	.text.lv_fs_drv_init,"ax",%progbits
 628              		.align	1
 629              		.global	lv_fs_drv_init
 630              		.syntax unified
 631              		.thumb
 632              		.thumb_func
 634              	lv_fs_drv_init:
 635              	.LVL51:
 636              	.LFB34:
 258:Middlewares/lvgl/src/misc/lv_fs.c ****     lv_memset_00(drv, sizeof(lv_fs_drv_t));
 637              		.loc 1 258 1 is_stmt 1 view -0
 638              		.cfi_startproc
 639              		@ args = 0, pretend = 0, frame = 0
 640              		@ frame_needed = 0, uses_anonymous_args = 0
 258:Middlewares/lvgl/src/misc/lv_fs.c ****     lv_memset_00(drv, sizeof(lv_fs_drv_t));
 641              		.loc 1 258 1 is_stmt 0 view .LVU172
 642 0000 08B5     		push	{r3, lr}
 643              	.LCFI18:
 644              		.cfi_def_cfa_offset 8
 645              		.cfi_offset 3, -8
 646              		.cfi_offset 14, -4
 259:Middlewares/lvgl/src/misc/lv_fs.c **** }
 647              		.loc 1 259 5 is_stmt 1 view .LVU173
 648 0002 3021     		movs	r1, #48
 649 0004 FFF7FEFF 		bl	lv_memset_00
 650              	.LVL52:
 260:Middlewares/lvgl/src/misc/lv_fs.c **** 
 651              		.loc 1 260 1 is_stmt 0 view .LVU174
 652 0008 08BD     		pop	{r3, pc}
 653              		.cfi_endproc
 654              	.LFE34:
 656              		.section	.text.lv_fs_drv_register,"ax",%progbits
 657              		.align	1
 658              		.global	lv_fs_drv_register
 659              		.syntax unified
 660              		.thumb
 661              		.thumb_func
 663              	lv_fs_drv_register:
 664              	.LVL53:
 665              	.LFB35:
 263:Middlewares/lvgl/src/misc/lv_fs.c ****     /*Save the new driver*/
 666              		.loc 1 263 1 is_stmt 1 view -0
 667              		.cfi_startproc
 668              		@ args = 0, pretend = 0, frame = 0
ARM GAS  /tmp/ccRLru7H.s 			page 22


 669              		@ frame_needed = 0, uses_anonymous_args = 0
 263:Middlewares/lvgl/src/misc/lv_fs.c ****     /*Save the new driver*/
 670              		.loc 1 263 1 is_stmt 0 view .LVU176
 671 0000 10B5     		push	{r4, lr}
 672              	.LCFI19:
 673              		.cfi_def_cfa_offset 8
 674              		.cfi_offset 4, -8
 675              		.cfi_offset 14, -4
 676 0002 0446     		mov	r4, r0
 265:Middlewares/lvgl/src/misc/lv_fs.c ****     new_drv = _lv_ll_ins_head(&LV_GC_ROOT(_lv_fsdrv_ll));
 677              		.loc 1 265 5 is_stmt 1 view .LVU177
 266:Middlewares/lvgl/src/misc/lv_fs.c ****     LV_ASSERT_MALLOC(new_drv);
 678              		.loc 1 266 5 view .LVU178
 266:Middlewares/lvgl/src/misc/lv_fs.c ****     LV_ASSERT_MALLOC(new_drv);
 679              		.loc 1 266 15 is_stmt 0 view .LVU179
 680 0004 0348     		ldr	r0, .L61
 681              	.LVL54:
 266:Middlewares/lvgl/src/misc/lv_fs.c ****     LV_ASSERT_MALLOC(new_drv);
 682              		.loc 1 266 15 view .LVU180
 683 0006 FFF7FEFF 		bl	_lv_ll_ins_head
 684              	.LVL55:
 267:Middlewares/lvgl/src/misc/lv_fs.c ****     if(new_drv == NULL) return;
 685              		.loc 1 267 5 is_stmt 1 view .LVU181
 267:Middlewares/lvgl/src/misc/lv_fs.c ****     if(new_drv == NULL) return;
 686              		.loc 1 267 5 view .LVU182
 687 000a 08B1     		cbz	r0, .L59
 267:Middlewares/lvgl/src/misc/lv_fs.c ****     if(new_drv == NULL) return;
 688              		.loc 1 267 5 view .LVU183
 267:Middlewares/lvgl/src/misc/lv_fs.c ****     if(new_drv == NULL) return;
 689              		.loc 1 267 30 view .LVU184
 268:Middlewares/lvgl/src/misc/lv_fs.c **** 
 690              		.loc 1 268 5 view .LVU185
 270:Middlewares/lvgl/src/misc/lv_fs.c **** }
 691              		.loc 1 270 5 view .LVU186
 270:Middlewares/lvgl/src/misc/lv_fs.c **** }
 692              		.loc 1 270 14 is_stmt 0 view .LVU187
 693 000c 0460     		str	r4, [r0]
 271:Middlewares/lvgl/src/misc/lv_fs.c **** 
 694              		.loc 1 271 1 view .LVU188
 695 000e 10BD     		pop	{r4, pc}
 696              	.LVL56:
 697              	.L59:
 267:Middlewares/lvgl/src/misc/lv_fs.c ****     if(new_drv == NULL) return;
 698              		.loc 1 267 5 is_stmt 1 discriminator 1 view .LVU189
 267:Middlewares/lvgl/src/misc/lv_fs.c ****     if(new_drv == NULL) return;
 699              		.loc 1 267 5 discriminator 1 view .LVU190
 267:Middlewares/lvgl/src/misc/lv_fs.c ****     if(new_drv == NULL) return;
 700              		.loc 1 267 5 discriminator 1 view .LVU191
 267:Middlewares/lvgl/src/misc/lv_fs.c ****     if(new_drv == NULL) return;
 701              		.loc 1 267 5 discriminator 1 view .LVU192
 702 0010 FEE7     		b	.L59
 703              	.L62:
 704 0012 00BF     		.align	2
 705              	.L61:
 706 0014 00000000 		.word	_lv_fsdrv_ll
 707              		.cfi_endproc
 708              	.LFE35:
ARM GAS  /tmp/ccRLru7H.s 			page 23


 710              		.section	.text.lv_fs_get_drv,"ax",%progbits
 711              		.align	1
 712              		.global	lv_fs_get_drv
 713              		.syntax unified
 714              		.thumb
 715              		.thumb_func
 717              	lv_fs_get_drv:
 718              	.LVL57:
 719              	.LFB36:
 274:Middlewares/lvgl/src/misc/lv_fs.c ****     lv_fs_drv_t ** drv;
 720              		.loc 1 274 1 view -0
 721              		.cfi_startproc
 722              		@ args = 0, pretend = 0, frame = 0
 723              		@ frame_needed = 0, uses_anonymous_args = 0
 274:Middlewares/lvgl/src/misc/lv_fs.c ****     lv_fs_drv_t ** drv;
 724              		.loc 1 274 1 is_stmt 0 view .LVU194
 725 0000 10B5     		push	{r4, lr}
 726              	.LCFI20:
 727              		.cfi_def_cfa_offset 8
 728              		.cfi_offset 4, -8
 729              		.cfi_offset 14, -4
 730 0002 0446     		mov	r4, r0
 275:Middlewares/lvgl/src/misc/lv_fs.c **** 
 731              		.loc 1 275 5 is_stmt 1 view .LVU195
 277:Middlewares/lvgl/src/misc/lv_fs.c ****         if((*drv)->letter == letter) {
 732              		.loc 1 277 5 view .LVU196
 733 0004 0848     		ldr	r0, .L70
 734              	.LVL58:
 277:Middlewares/lvgl/src/misc/lv_fs.c ****         if((*drv)->letter == letter) {
 735              		.loc 1 277 5 is_stmt 0 view .LVU197
 736 0006 FFF7FEFF 		bl	_lv_ll_get_head
 737              	.LVL59:
 738 000a 0146     		mov	r1, r0
 739              	.LVL60:
 277:Middlewares/lvgl/src/misc/lv_fs.c ****         if((*drv)->letter == letter) {
 740              		.loc 1 277 5 view .LVU198
 741 000c 03E0     		b	.L64
 742              	.L69:
 277:Middlewares/lvgl/src/misc/lv_fs.c ****         if((*drv)->letter == letter) {
 743              		.loc 1 277 5 is_stmt 1 discriminator 2 view .LVU199
 744 000e 0648     		ldr	r0, .L70
 745              	.LVL61:
 277:Middlewares/lvgl/src/misc/lv_fs.c ****         if((*drv)->letter == letter) {
 746              		.loc 1 277 5 is_stmt 0 discriminator 2 view .LVU200
 747 0010 FFF7FEFF 		bl	_lv_ll_get_next
 748              	.LVL62:
 277:Middlewares/lvgl/src/misc/lv_fs.c ****         if((*drv)->letter == letter) {
 749              		.loc 1 277 5 discriminator 2 view .LVU201
 750 0014 0146     		mov	r1, r0
 751              	.LVL63:
 752              	.L64:
 277:Middlewares/lvgl/src/misc/lv_fs.c ****         if((*drv)->letter == letter) {
 753              		.loc 1 277 5 is_stmt 1 discriminator 1 view .LVU202
 754 0016 21B1     		cbz	r1, .L63
 278:Middlewares/lvgl/src/misc/lv_fs.c ****             return *drv;
 755              		.loc 1 278 9 view .LVU203
 278:Middlewares/lvgl/src/misc/lv_fs.c ****             return *drv;
ARM GAS  /tmp/ccRLru7H.s 			page 24


 756              		.loc 1 278 13 is_stmt 0 view .LVU204
 757 0018 0B68     		ldr	r3, [r1]
 278:Middlewares/lvgl/src/misc/lv_fs.c ****             return *drv;
 758              		.loc 1 278 18 view .LVU205
 759 001a 1A78     		ldrb	r2, [r3]	@ zero_extendqisi2
 278:Middlewares/lvgl/src/misc/lv_fs.c ****             return *drv;
 760              		.loc 1 278 11 view .LVU206
 761 001c A242     		cmp	r2, r4
 762 001e F6D1     		bne	.L69
 279:Middlewares/lvgl/src/misc/lv_fs.c ****         }
 763              		.loc 1 279 20 view .LVU207
 764 0020 1946     		mov	r1, r3
 765              	.L63:
 284:Middlewares/lvgl/src/misc/lv_fs.c **** 
 766              		.loc 1 284 1 view .LVU208
 767 0022 0846     		mov	r0, r1
 768              	.LVL64:
 284:Middlewares/lvgl/src/misc/lv_fs.c **** 
 769              		.loc 1 284 1 view .LVU209
 770 0024 10BD     		pop	{r4, pc}
 771              	.L71:
 772 0026 00BF     		.align	2
 773              	.L70:
 774 0028 00000000 		.word	_lv_fsdrv_ll
 775              		.cfi_endproc
 776              	.LFE36:
 778              		.section	.text.lv_fs_is_ready,"ax",%progbits
 779              		.align	1
 780              		.global	lv_fs_is_ready
 781              		.syntax unified
 782              		.thumb
 783              		.thumb_func
 785              	lv_fs_is_ready:
 786              	.LVL65:
 787              	.LFB24:
  56:Middlewares/lvgl/src/misc/lv_fs.c ****     lv_fs_drv_t * drv = lv_fs_get_drv(letter);
 788              		.loc 1 56 1 is_stmt 1 view -0
 789              		.cfi_startproc
 790              		@ args = 0, pretend = 0, frame = 0
 791              		@ frame_needed = 0, uses_anonymous_args = 0
  56:Middlewares/lvgl/src/misc/lv_fs.c ****     lv_fs_drv_t * drv = lv_fs_get_drv(letter);
 792              		.loc 1 56 1 is_stmt 0 view .LVU211
 793 0000 08B5     		push	{r3, lr}
 794              	.LCFI21:
 795              		.cfi_def_cfa_offset 8
 796              		.cfi_offset 3, -8
 797              		.cfi_offset 14, -4
  57:Middlewares/lvgl/src/misc/lv_fs.c **** 
 798              		.loc 1 57 5 is_stmt 1 view .LVU212
  57:Middlewares/lvgl/src/misc/lv_fs.c **** 
 799              		.loc 1 57 25 is_stmt 0 view .LVU213
 800 0002 FFF7FEFF 		bl	lv_fs_get_drv
 801              	.LVL66:
  59:Middlewares/lvgl/src/misc/lv_fs.c **** 
 802              		.loc 1 59 5 is_stmt 1 view .LVU214
  59:Middlewares/lvgl/src/misc/lv_fs.c **** 
 803              		.loc 1 59 7 is_stmt 0 view .LVU215
ARM GAS  /tmp/ccRLru7H.s 			page 25


 804 0006 18B1     		cbz	r0, .L74
  61:Middlewares/lvgl/src/misc/lv_fs.c **** 
 805              		.loc 1 61 5 is_stmt 1 view .LVU216
  61:Middlewares/lvgl/src/misc/lv_fs.c **** 
 806              		.loc 1 61 11 is_stmt 0 view .LVU217
 807 0008 4268     		ldr	r2, [r0, #4]
  61:Middlewares/lvgl/src/misc/lv_fs.c **** 
 808              		.loc 1 61 7 view .LVU218
 809 000a 1AB1     		cbz	r2, .L75
  63:Middlewares/lvgl/src/misc/lv_fs.c **** }
 810              		.loc 1 63 5 is_stmt 1 view .LVU219
  63:Middlewares/lvgl/src/misc/lv_fs.c **** }
 811              		.loc 1 63 12 is_stmt 0 view .LVU220
 812 000c 9047     		blx	r2
 813              	.LVL67:
 814              	.L73:
  64:Middlewares/lvgl/src/misc/lv_fs.c **** 
 815              		.loc 1 64 1 view .LVU221
 816 000e 08BD     		pop	{r3, pc}
 817              	.LVL68:
 818              	.L74:
  59:Middlewares/lvgl/src/misc/lv_fs.c **** 
 819              		.loc 1 59 28 view .LVU222
 820 0010 0020     		movs	r0, #0
 821              	.LVL69:
  59:Middlewares/lvgl/src/misc/lv_fs.c **** 
 822              		.loc 1 59 28 view .LVU223
 823 0012 FCE7     		b	.L73
 824              	.LVL70:
 825              	.L75:
  61:Middlewares/lvgl/src/misc/lv_fs.c **** 
 826              		.loc 1 61 38 view .LVU224
 827 0014 0120     		movs	r0, #1
 828              	.LVL71:
  61:Middlewares/lvgl/src/misc/lv_fs.c **** 
 829              		.loc 1 61 38 view .LVU225
 830 0016 FAE7     		b	.L73
 831              		.cfi_endproc
 832              	.LFE24:
 834              		.section	.text.lv_fs_open,"ax",%progbits
 835              		.align	1
 836              		.global	lv_fs_open
 837              		.syntax unified
 838              		.thumb
 839              		.thumb_func
 841              	lv_fs_open:
 842              	.LVL72:
 843              	.LFB25:
  67:Middlewares/lvgl/src/misc/lv_fs.c ****     if(path == NULL) {
 844              		.loc 1 67 1 is_stmt 1 view -0
 845              		.cfi_startproc
 846              		@ args = 0, pretend = 0, frame = 0
 847              		@ frame_needed = 0, uses_anonymous_args = 0
  68:Middlewares/lvgl/src/misc/lv_fs.c ****         LV_LOG_WARN("Can't open file: path is NULL");
 848              		.loc 1 68 5 view .LVU227
  68:Middlewares/lvgl/src/misc/lv_fs.c ****         LV_LOG_WARN("Can't open file: path is NULL");
 849              		.loc 1 68 7 is_stmt 0 view .LVU228
ARM GAS  /tmp/ccRLru7H.s 			page 26


 850 0000 11B3     		cbz	r1, .L80
  67:Middlewares/lvgl/src/misc/lv_fs.c ****     if(path == NULL) {
 851              		.loc 1 67 1 view .LVU229
 852 0002 2DE9F041 		push	{r4, r5, r6, r7, r8, lr}
 853              	.LCFI22:
 854              		.cfi_def_cfa_offset 24
 855              		.cfi_offset 4, -24
 856              		.cfi_offset 5, -20
 857              		.cfi_offset 6, -16
 858              		.cfi_offset 7, -12
 859              		.cfi_offset 8, -8
 860              		.cfi_offset 14, -4
 861 0006 0446     		mov	r4, r0
 862 0008 1546     		mov	r5, r2
 863 000a 0F46     		mov	r7, r1
  73:Middlewares/lvgl/src/misc/lv_fs.c ****     lv_fs_drv_t * drv = lv_fs_get_drv(letter);
 864              		.loc 1 73 5 is_stmt 1 view .LVU230
 865              	.LVL73:
  74:Middlewares/lvgl/src/misc/lv_fs.c **** 
 866              		.loc 1 74 5 view .LVU231
  74:Middlewares/lvgl/src/misc/lv_fs.c **** 
 867              		.loc 1 74 25 is_stmt 0 view .LVU232
 868 000c 0878     		ldrb	r0, [r1]	@ zero_extendqisi2
 869              	.LVL74:
  74:Middlewares/lvgl/src/misc/lv_fs.c **** 
 870              		.loc 1 74 25 view .LVU233
 871 000e FFF7FEFF 		bl	lv_fs_get_drv
 872              	.LVL75:
  76:Middlewares/lvgl/src/misc/lv_fs.c ****         LV_LOG_WARN("Can't open file (%s): unknown driver letter", path);
 873              		.loc 1 76 5 is_stmt 1 view .LVU234
  76:Middlewares/lvgl/src/misc/lv_fs.c ****         LV_LOG_WARN("Can't open file (%s): unknown driver letter", path);
 874              		.loc 1 76 7 is_stmt 0 view .LVU235
 875 0012 0646     		mov	r6, r0
 876 0014 D0B1     		cbz	r0, .L81
  81:Middlewares/lvgl/src/misc/lv_fs.c ****         if(drv->ready_cb(drv) == false) {
 877              		.loc 1 81 5 is_stmt 1 view .LVU236
  81:Middlewares/lvgl/src/misc/lv_fs.c ****         if(drv->ready_cb(drv) == false) {
 878              		.loc 1 81 11 is_stmt 0 view .LVU237
 879 0016 4368     		ldr	r3, [r0, #4]
  81:Middlewares/lvgl/src/misc/lv_fs.c ****         if(drv->ready_cb(drv) == false) {
 880              		.loc 1 81 7 view .LVU238
 881 0018 0BB1     		cbz	r3, .L79
  82:Middlewares/lvgl/src/misc/lv_fs.c ****             LV_LOG_WARN("Can't open file (%s): driver not ready", path);
 882              		.loc 1 82 9 is_stmt 1 view .LVU239
  82:Middlewares/lvgl/src/misc/lv_fs.c ****             LV_LOG_WARN("Can't open file (%s): driver not ready", path);
 883              		.loc 1 82 12 is_stmt 0 view .LVU240
 884 001a 9847     		blx	r3
 885              	.LVL76:
  82:Middlewares/lvgl/src/misc/lv_fs.c ****             LV_LOG_WARN("Can't open file (%s): driver not ready", path);
 886              		.loc 1 82 11 view .LVU241
 887 001c C0B1     		cbz	r0, .L82
 888              	.L79:
  88:Middlewares/lvgl/src/misc/lv_fs.c ****         LV_LOG_WARN("Can't open file (%s): open function not exists", path);
 889              		.loc 1 88 5 is_stmt 1 view .LVU242
  88:Middlewares/lvgl/src/misc/lv_fs.c ****         LV_LOG_WARN("Can't open file (%s): open function not exists", path);
 890              		.loc 1 88 11 is_stmt 0 view .LVU243
 891 001e D6F80880 		ldr	r8, [r6, #8]
ARM GAS  /tmp/ccRLru7H.s 			page 27


  88:Middlewares/lvgl/src/misc/lv_fs.c ****         LV_LOG_WARN("Can't open file (%s): open function not exists", path);
 892              		.loc 1 88 7 view .LVU244
 893 0022 B8F1000F 		cmp	r8, #0
 894 0026 15D0     		beq	.L83
  93:Middlewares/lvgl/src/misc/lv_fs.c ****     void *file_d = drv->open_cb(drv, real_path, mode);
 895              		.loc 1 93 5 is_stmt 1 view .LVU245
  93:Middlewares/lvgl/src/misc/lv_fs.c ****     void *file_d = drv->open_cb(drv, real_path, mode);
 896              		.loc 1 93 30 is_stmt 0 view .LVU246
 897 0028 3846     		mov	r0, r7
 898 002a FFF7FEFF 		bl	lv_fs_get_real_path
 899              	.LVL77:
 900 002e 0146     		mov	r1, r0
 901              	.LVL78:
  94:Middlewares/lvgl/src/misc/lv_fs.c **** 
 902              		.loc 1 94 5 is_stmt 1 view .LVU247
  94:Middlewares/lvgl/src/misc/lv_fs.c **** 
 903              		.loc 1 94 20 is_stmt 0 view .LVU248
 904 0030 2A46     		mov	r2, r5
 905 0032 3046     		mov	r0, r6
 906              	.LVL79:
  94:Middlewares/lvgl/src/misc/lv_fs.c **** 
 907              		.loc 1 94 20 view .LVU249
 908 0034 C047     		blx	r8
 909              	.LVL80:
  96:Middlewares/lvgl/src/misc/lv_fs.c ****         return LV_FS_RES_UNKNOWN;
 910              		.loc 1 96 5 is_stmt 1 view .LVU250
  96:Middlewares/lvgl/src/misc/lv_fs.c ****         return LV_FS_RES_UNKNOWN;
 911              		.loc 1 96 23 is_stmt 0 view .LVU251
 912 0036 431E     		subs	r3, r0, #1
  96:Middlewares/lvgl/src/misc/lv_fs.c ****         return LV_FS_RES_UNKNOWN;
 913              		.loc 1 96 7 view .LVU252
 914 0038 13F1030F 		cmn	r3, #3
 915 003c 0CD8     		bhi	.L84
 100:Middlewares/lvgl/src/misc/lv_fs.c ****     file_p->file_d = file_d;
 916              		.loc 1 100 5 is_stmt 1 view .LVU253
 100:Middlewares/lvgl/src/misc/lv_fs.c ****     file_p->file_d = file_d;
 917              		.loc 1 100 17 is_stmt 0 view .LVU254
 918 003e 6660     		str	r6, [r4, #4]
 101:Middlewares/lvgl/src/misc/lv_fs.c **** 
 919              		.loc 1 101 5 is_stmt 1 view .LVU255
 101:Middlewares/lvgl/src/misc/lv_fs.c **** 
 920              		.loc 1 101 20 is_stmt 0 view .LVU256
 921 0040 2060     		str	r0, [r4]
 103:Middlewares/lvgl/src/misc/lv_fs.c **** }
 922              		.loc 1 103 5 is_stmt 1 view .LVU257
 103:Middlewares/lvgl/src/misc/lv_fs.c **** }
 923              		.loc 1 103 12 is_stmt 0 view .LVU258
 924 0042 0020     		movs	r0, #0
 925              	.LVL81:
 926              	.L78:
 104:Middlewares/lvgl/src/misc/lv_fs.c **** 
 927              		.loc 1 104 1 view .LVU259
 928 0044 BDE8F081 		pop	{r4, r5, r6, r7, r8, pc}
 929              	.LVL82:
 930              	.L80:
 931              	.LCFI23:
 932              		.cfi_def_cfa_offset 0
ARM GAS  /tmp/ccRLru7H.s 			page 28


 933              		.cfi_restore 4
 934              		.cfi_restore 5
 935              		.cfi_restore 6
 936              		.cfi_restore 7
 937              		.cfi_restore 8
 938              		.cfi_restore 14
  70:Middlewares/lvgl/src/misc/lv_fs.c ****     }
 939              		.loc 1 70 16 view .LVU260
 940 0048 0B20     		movs	r0, #11
 941              	.LVL83:
 104:Middlewares/lvgl/src/misc/lv_fs.c **** 
 942              		.loc 1 104 1 view .LVU261
 943 004a 7047     		bx	lr
 944              	.LVL84:
 945              	.L81:
 946              	.LCFI24:
 947              		.cfi_def_cfa_offset 24
 948              		.cfi_offset 4, -24
 949              		.cfi_offset 5, -20
 950              		.cfi_offset 6, -16
 951              		.cfi_offset 7, -12
 952              		.cfi_offset 8, -8
 953              		.cfi_offset 14, -4
  78:Middlewares/lvgl/src/misc/lv_fs.c ****     }
 954              		.loc 1 78 16 view .LVU262
 955 004c 0320     		movs	r0, #3
 956              	.LVL85:
  78:Middlewares/lvgl/src/misc/lv_fs.c ****     }
 957              		.loc 1 78 16 view .LVU263
 958 004e F9E7     		b	.L78
 959              	.L82:
  84:Middlewares/lvgl/src/misc/lv_fs.c ****         }
 960              		.loc 1 84 20 view .LVU264
 961 0050 0120     		movs	r0, #1
 962 0052 F7E7     		b	.L78
 963              	.L83:
  90:Middlewares/lvgl/src/misc/lv_fs.c ****     }
 964              		.loc 1 90 16 view .LVU265
 965 0054 0920     		movs	r0, #9
 966 0056 F5E7     		b	.L78
 967              	.LVL86:
 968              	.L84:
  97:Middlewares/lvgl/src/misc/lv_fs.c ****     }
 969              		.loc 1 97 16 view .LVU266
 970 0058 0C20     		movs	r0, #12
 971              	.LVL87:
  97:Middlewares/lvgl/src/misc/lv_fs.c ****     }
 972              		.loc 1 97 16 view .LVU267
 973 005a F3E7     		b	.L78
 974              		.cfi_endproc
 975              	.LFE25:
 977              		.section	.text.lv_fs_dir_open,"ax",%progbits
 978              		.align	1
 979              		.global	lv_fs_dir_open
 980              		.syntax unified
 981              		.thumb
 982              		.thumb_func
ARM GAS  /tmp/ccRLru7H.s 			page 29


 984              	lv_fs_dir_open:
 985              	.LVL88:
 986              	.LFB31:
 189:Middlewares/lvgl/src/misc/lv_fs.c ****     if(path == NULL) return LV_FS_RES_INV_PARAM;
 987              		.loc 1 189 1 is_stmt 1 view -0
 988              		.cfi_startproc
 989              		@ args = 0, pretend = 0, frame = 0
 990              		@ frame_needed = 0, uses_anonymous_args = 0
 190:Middlewares/lvgl/src/misc/lv_fs.c **** 
 991              		.loc 1 190 5 view .LVU269
 190:Middlewares/lvgl/src/misc/lv_fs.c **** 
 992              		.loc 1 190 7 is_stmt 0 view .LVU270
 993 0000 D9B1     		cbz	r1, .L92
 189:Middlewares/lvgl/src/misc/lv_fs.c ****     if(path == NULL) return LV_FS_RES_INV_PARAM;
 994              		.loc 1 189 1 view .LVU271
 995 0002 F8B5     		push	{r3, r4, r5, r6, r7, lr}
 996              	.LCFI25:
 997              		.cfi_def_cfa_offset 24
 998              		.cfi_offset 3, -24
 999              		.cfi_offset 4, -20
 1000              		.cfi_offset 5, -16
 1001              		.cfi_offset 6, -12
 1002              		.cfi_offset 7, -8
 1003              		.cfi_offset 14, -4
 1004 0004 0646     		mov	r6, r0
 1005 0006 0D46     		mov	r5, r1
 192:Middlewares/lvgl/src/misc/lv_fs.c ****     lv_fs_drv_t * drv = lv_fs_get_drv(letter);
 1006              		.loc 1 192 5 is_stmt 1 view .LVU272
 1007              	.LVL89:
 193:Middlewares/lvgl/src/misc/lv_fs.c **** 
 1008              		.loc 1 193 5 view .LVU273
 193:Middlewares/lvgl/src/misc/lv_fs.c **** 
 1009              		.loc 1 193 25 is_stmt 0 view .LVU274
 1010 0008 0878     		ldrb	r0, [r1]	@ zero_extendqisi2
 1011              	.LVL90:
 193:Middlewares/lvgl/src/misc/lv_fs.c **** 
 1012              		.loc 1 193 25 view .LVU275
 1013 000a FFF7FEFF 		bl	lv_fs_get_drv
 1014              	.LVL91:
 195:Middlewares/lvgl/src/misc/lv_fs.c ****         return LV_FS_RES_NOT_EX;
 1015              		.loc 1 195 5 is_stmt 1 view .LVU276
 195:Middlewares/lvgl/src/misc/lv_fs.c ****         return LV_FS_RES_NOT_EX;
 1016              		.loc 1 195 7 is_stmt 0 view .LVU277
 1017 000e 0446     		mov	r4, r0
 1018 0010 A8B1     		cbz	r0, .L93
 199:Middlewares/lvgl/src/misc/lv_fs.c ****         if(drv->ready_cb(drv) == false) {
 1019              		.loc 1 199 5 is_stmt 1 view .LVU278
 199:Middlewares/lvgl/src/misc/lv_fs.c ****         if(drv->ready_cb(drv) == false) {
 1020              		.loc 1 199 11 is_stmt 0 view .LVU279
 1021 0012 4368     		ldr	r3, [r0, #4]
 199:Middlewares/lvgl/src/misc/lv_fs.c ****         if(drv->ready_cb(drv) == false) {
 1022              		.loc 1 199 7 view .LVU280
 1023 0014 0BB1     		cbz	r3, .L91
 200:Middlewares/lvgl/src/misc/lv_fs.c ****             return LV_FS_RES_HW_ERR;
 1024              		.loc 1 200 9 is_stmt 1 view .LVU281
 200:Middlewares/lvgl/src/misc/lv_fs.c ****             return LV_FS_RES_HW_ERR;
 1025              		.loc 1 200 12 is_stmt 0 view .LVU282
ARM GAS  /tmp/ccRLru7H.s 			page 30


 1026 0016 9847     		blx	r3
 1027              	.LVL92:
 200:Middlewares/lvgl/src/misc/lv_fs.c ****             return LV_FS_RES_HW_ERR;
 1028              		.loc 1 200 11 view .LVU283
 1029 0018 98B1     		cbz	r0, .L94
 1030              	.L91:
 205:Middlewares/lvgl/src/misc/lv_fs.c ****         return LV_FS_RES_NOT_IMP;
 1031              		.loc 1 205 5 is_stmt 1 view .LVU284
 205:Middlewares/lvgl/src/misc/lv_fs.c ****         return LV_FS_RES_NOT_IMP;
 1032              		.loc 1 205 11 is_stmt 0 view .LVU285
 1033 001a 276A     		ldr	r7, [r4, #32]
 205:Middlewares/lvgl/src/misc/lv_fs.c ****         return LV_FS_RES_NOT_IMP;
 1034              		.loc 1 205 7 view .LVU286
 1035 001c 9FB1     		cbz	r7, .L95
 209:Middlewares/lvgl/src/misc/lv_fs.c ****     void *dir_d = drv->dir_open_cb(drv, real_path);
 1036              		.loc 1 209 5 is_stmt 1 view .LVU287
 209:Middlewares/lvgl/src/misc/lv_fs.c ****     void *dir_d = drv->dir_open_cb(drv, real_path);
 1037              		.loc 1 209 30 is_stmt 0 view .LVU288
 1038 001e 2846     		mov	r0, r5
 1039 0020 FFF7FEFF 		bl	lv_fs_get_real_path
 1040              	.LVL93:
 1041 0024 0146     		mov	r1, r0
 1042              	.LVL94:
 210:Middlewares/lvgl/src/misc/lv_fs.c **** 
 1043              		.loc 1 210 5 is_stmt 1 view .LVU289
 210:Middlewares/lvgl/src/misc/lv_fs.c **** 
 1044              		.loc 1 210 19 is_stmt 0 view .LVU290
 1045 0026 2046     		mov	r0, r4
 1046              	.LVL95:
 210:Middlewares/lvgl/src/misc/lv_fs.c **** 
 1047              		.loc 1 210 19 view .LVU291
 1048 0028 B847     		blx	r7
 1049              	.LVL96:
 212:Middlewares/lvgl/src/misc/lv_fs.c ****         return LV_FS_RES_UNKNOWN;
 1050              		.loc 1 212 5 is_stmt 1 view .LVU292
 212:Middlewares/lvgl/src/misc/lv_fs.c ****         return LV_FS_RES_UNKNOWN;
 1051              		.loc 1 212 22 is_stmt 0 view .LVU293
 1052 002a 421E     		subs	r2, r0, #1
 212:Middlewares/lvgl/src/misc/lv_fs.c ****         return LV_FS_RES_UNKNOWN;
 1053              		.loc 1 212 7 view .LVU294
 1054 002c 12F1030F 		cmn	r2, #3
 1055 0030 0BD8     		bhi	.L96
 216:Middlewares/lvgl/src/misc/lv_fs.c ****     rddir_p->dir_d = dir_d;
 1056              		.loc 1 216 5 is_stmt 1 view .LVU295
 216:Middlewares/lvgl/src/misc/lv_fs.c ****     rddir_p->dir_d = dir_d;
 1057              		.loc 1 216 18 is_stmt 0 view .LVU296
 1058 0032 7460     		str	r4, [r6, #4]
 217:Middlewares/lvgl/src/misc/lv_fs.c **** 
 1059              		.loc 1 217 5 is_stmt 1 view .LVU297
 217:Middlewares/lvgl/src/misc/lv_fs.c **** 
 1060              		.loc 1 217 20 is_stmt 0 view .LVU298
 1061 0034 3060     		str	r0, [r6]
 219:Middlewares/lvgl/src/misc/lv_fs.c **** }
 1062              		.loc 1 219 5 is_stmt 1 view .LVU299
 219:Middlewares/lvgl/src/misc/lv_fs.c **** }
 1063              		.loc 1 219 12 is_stmt 0 view .LVU300
 1064 0036 0020     		movs	r0, #0
ARM GAS  /tmp/ccRLru7H.s 			page 31


 1065              	.LVL97:
 1066              	.L90:
 220:Middlewares/lvgl/src/misc/lv_fs.c **** 
 1067              		.loc 1 220 1 view .LVU301
 1068 0038 F8BD     		pop	{r3, r4, r5, r6, r7, pc}
 1069              	.LVL98:
 1070              	.L92:
 1071              	.LCFI26:
 1072              		.cfi_def_cfa_offset 0
 1073              		.cfi_restore 3
 1074              		.cfi_restore 4
 1075              		.cfi_restore 5
 1076              		.cfi_restore 6
 1077              		.cfi_restore 7
 1078              		.cfi_restore 14
 190:Middlewares/lvgl/src/misc/lv_fs.c **** 
 1079              		.loc 1 190 29 view .LVU302
 1080 003a 0B20     		movs	r0, #11
 1081              	.LVL99:
 220:Middlewares/lvgl/src/misc/lv_fs.c **** 
 1082              		.loc 1 220 1 view .LVU303
 1083 003c 7047     		bx	lr
 1084              	.LVL100:
 1085              	.L93:
 1086              	.LCFI27:
 1087              		.cfi_def_cfa_offset 24
 1088              		.cfi_offset 3, -24
 1089              		.cfi_offset 4, -20
 1090              		.cfi_offset 5, -16
 1091              		.cfi_offset 6, -12
 1092              		.cfi_offset 7, -8
 1093              		.cfi_offset 14, -4
 196:Middlewares/lvgl/src/misc/lv_fs.c ****     }
 1094              		.loc 1 196 16 view .LVU304
 1095 003e 0320     		movs	r0, #3
 1096              	.LVL101:
 196:Middlewares/lvgl/src/misc/lv_fs.c ****     }
 1097              		.loc 1 196 16 view .LVU305
 1098 0040 FAE7     		b	.L90
 1099              	.L94:
 201:Middlewares/lvgl/src/misc/lv_fs.c ****         }
 1100              		.loc 1 201 20 view .LVU306
 1101 0042 0120     		movs	r0, #1
 1102 0044 F8E7     		b	.L90
 1103              	.L95:
 206:Middlewares/lvgl/src/misc/lv_fs.c ****     }
 1104              		.loc 1 206 16 view .LVU307
 1105 0046 0920     		movs	r0, #9
 1106 0048 F6E7     		b	.L90
 1107              	.LVL102:
 1108              	.L96:
 213:Middlewares/lvgl/src/misc/lv_fs.c ****     }
 1109              		.loc 1 213 16 view .LVU308
 1110 004a 0C20     		movs	r0, #12
 1111              	.LVL103:
 213:Middlewares/lvgl/src/misc/lv_fs.c ****     }
 1112              		.loc 1 213 16 view .LVU309
ARM GAS  /tmp/ccRLru7H.s 			page 32


 1113 004c F4E7     		b	.L90
 1114              		.cfi_endproc
 1115              	.LFE31:
 1117              		.section	.text.lv_fs_get_letters,"ax",%progbits
 1118              		.align	1
 1119              		.global	lv_fs_get_letters
 1120              		.syntax unified
 1121              		.thumb
 1122              		.thumb_func
 1124              	lv_fs_get_letters:
 1125              	.LVL104:
 1126              	.LFB37:
 287:Middlewares/lvgl/src/misc/lv_fs.c ****     lv_fs_drv_t ** drv;
 1127              		.loc 1 287 1 is_stmt 1 view -0
 1128              		.cfi_startproc
 1129              		@ args = 0, pretend = 0, frame = 0
 1130              		@ frame_needed = 0, uses_anonymous_args = 0
 287:Middlewares/lvgl/src/misc/lv_fs.c ****     lv_fs_drv_t ** drv;
 1131              		.loc 1 287 1 is_stmt 0 view .LVU311
 1132 0000 38B5     		push	{r3, r4, r5, lr}
 1133              	.LCFI28:
 1134              		.cfi_def_cfa_offset 16
 1135              		.cfi_offset 3, -16
 1136              		.cfi_offset 4, -12
 1137              		.cfi_offset 5, -8
 1138              		.cfi_offset 14, -4
 1139 0002 0546     		mov	r5, r0
 288:Middlewares/lvgl/src/misc/lv_fs.c ****     uint8_t i = 0;
 1140              		.loc 1 288 5 is_stmt 1 view .LVU312
 289:Middlewares/lvgl/src/misc/lv_fs.c **** 
 1141              		.loc 1 289 5 view .LVU313
 1142              	.LVL105:
 291:Middlewares/lvgl/src/misc/lv_fs.c ****         buf[i] = (*drv)->letter;
 1143              		.loc 1 291 5 view .LVU314
 1144 0004 0A48     		ldr	r0, .L105
 1145              	.LVL106:
 291:Middlewares/lvgl/src/misc/lv_fs.c ****         buf[i] = (*drv)->letter;
 1146              		.loc 1 291 5 is_stmt 0 view .LVU315
 1147 0006 FFF7FEFF 		bl	_lv_ll_get_head
 1148              	.LVL107:
 1149 000a 0146     		mov	r1, r0
 1150              	.LVL108:
 289:Middlewares/lvgl/src/misc/lv_fs.c **** 
 1151              		.loc 1 289 13 view .LVU316
 1152 000c 0024     		movs	r4, #0
 291:Middlewares/lvgl/src/misc/lv_fs.c ****         buf[i] = (*drv)->letter;
 1153              		.loc 1 291 5 view .LVU317
 1154 000e 08E0     		b	.L102
 1155              	.LVL109:
 1156              	.L103:
 292:Middlewares/lvgl/src/misc/lv_fs.c ****         i++;
 1157              		.loc 1 292 9 is_stmt 1 discriminator 3 view .LVU318
 292:Middlewares/lvgl/src/misc/lv_fs.c ****         i++;
 1158              		.loc 1 292 19 is_stmt 0 discriminator 3 view .LVU319
 1159 0010 0B68     		ldr	r3, [r1]
 292:Middlewares/lvgl/src/misc/lv_fs.c ****         i++;
 1160              		.loc 1 292 24 discriminator 3 view .LVU320
ARM GAS  /tmp/ccRLru7H.s 			page 33


 1161 0012 1B78     		ldrb	r3, [r3]	@ zero_extendqisi2
 292:Middlewares/lvgl/src/misc/lv_fs.c ****         i++;
 1162              		.loc 1 292 16 discriminator 3 view .LVU321
 1163 0014 2B55     		strb	r3, [r5, r4]
 293:Middlewares/lvgl/src/misc/lv_fs.c ****     }
 1164              		.loc 1 293 9 is_stmt 1 discriminator 3 view .LVU322
 293:Middlewares/lvgl/src/misc/lv_fs.c ****     }
 1165              		.loc 1 293 10 is_stmt 0 discriminator 3 view .LVU323
 1166 0016 0134     		adds	r4, r4, #1
 1167              	.LVL110:
 293:Middlewares/lvgl/src/misc/lv_fs.c ****     }
 1168              		.loc 1 293 10 discriminator 3 view .LVU324
 1169 0018 E4B2     		uxtb	r4, r4
 1170              	.LVL111:
 291:Middlewares/lvgl/src/misc/lv_fs.c ****         buf[i] = (*drv)->letter;
 1171              		.loc 1 291 5 is_stmt 1 discriminator 3 view .LVU325
 1172 001a 0548     		ldr	r0, .L105
 1173              	.LVL112:
 291:Middlewares/lvgl/src/misc/lv_fs.c ****         buf[i] = (*drv)->letter;
 1174              		.loc 1 291 5 is_stmt 0 discriminator 3 view .LVU326
 1175 001c FFF7FEFF 		bl	_lv_ll_get_next
 1176              	.LVL113:
 291:Middlewares/lvgl/src/misc/lv_fs.c ****         buf[i] = (*drv)->letter;
 1177              		.loc 1 291 5 discriminator 3 view .LVU327
 1178 0020 0146     		mov	r1, r0
 1179              	.LVL114:
 1180              	.L102:
 291:Middlewares/lvgl/src/misc/lv_fs.c ****         buf[i] = (*drv)->letter;
 1181              		.loc 1 291 5 is_stmt 1 discriminator 1 view .LVU328
 1182 0022 0029     		cmp	r1, #0
 1183 0024 F4D1     		bne	.L103
 296:Middlewares/lvgl/src/misc/lv_fs.c **** 
 1184              		.loc 1 296 5 view .LVU329
 296:Middlewares/lvgl/src/misc/lv_fs.c **** 
 1185              		.loc 1 296 12 is_stmt 0 view .LVU330
 1186 0026 0023     		movs	r3, #0
 1187 0028 2B55     		strb	r3, [r5, r4]
 298:Middlewares/lvgl/src/misc/lv_fs.c **** }
 1188              		.loc 1 298 5 is_stmt 1 view .LVU331
 299:Middlewares/lvgl/src/misc/lv_fs.c **** 
 1189              		.loc 1 299 1 is_stmt 0 view .LVU332
 1190 002a 2846     		mov	r0, r5
 1191              	.LVL115:
 299:Middlewares/lvgl/src/misc/lv_fs.c **** 
 1192              		.loc 1 299 1 view .LVU333
 1193 002c 38BD     		pop	{r3, r4, r5, pc}
 1194              	.LVL116:
 1195              	.L106:
 299:Middlewares/lvgl/src/misc/lv_fs.c **** 
 1196              		.loc 1 299 1 view .LVU334
 1197 002e 00BF     		.align	2
 1198              	.L105:
 1199 0030 00000000 		.word	_lv_fsdrv_ll
 1200              		.cfi_endproc
 1201              	.LFE37:
 1203              		.section	.rodata.lv_fs_get_ext.str1.4,"aMS",%progbits,1
 1204              		.align	2
ARM GAS  /tmp/ccRLru7H.s 			page 34


 1205              	.LC0:
 1206 0000 00       		.ascii	"\000"
 1207              		.section	.text.lv_fs_get_ext,"ax",%progbits
 1208              		.align	1
 1209              		.global	lv_fs_get_ext
 1210              		.syntax unified
 1211              		.thumb
 1212              		.thumb_func
 1214              	lv_fs_get_ext:
 1215              	.LVL117:
 1216              	.LFB38:
 302:Middlewares/lvgl/src/misc/lv_fs.c ****     size_t i;
 1217              		.loc 1 302 1 is_stmt 1 view -0
 1218              		.cfi_startproc
 1219              		@ args = 0, pretend = 0, frame = 0
 1220              		@ frame_needed = 0, uses_anonymous_args = 0
 302:Middlewares/lvgl/src/misc/lv_fs.c ****     size_t i;
 1221              		.loc 1 302 1 is_stmt 0 view .LVU336
 1222 0000 10B5     		push	{r4, lr}
 1223              	.LCFI29:
 1224              		.cfi_def_cfa_offset 8
 1225              		.cfi_offset 4, -8
 1226              		.cfi_offset 14, -4
 1227 0002 0446     		mov	r4, r0
 303:Middlewares/lvgl/src/misc/lv_fs.c ****     for(i = strlen(fn); i > 0; i--) {
 1228              		.loc 1 303 5 is_stmt 1 view .LVU337
 304:Middlewares/lvgl/src/misc/lv_fs.c ****         if(fn[i] == '.') {
 1229              		.loc 1 304 5 view .LVU338
 304:Middlewares/lvgl/src/misc/lv_fs.c ****         if(fn[i] == '.') {
 1230              		.loc 1 304 13 is_stmt 0 view .LVU339
 1231 0004 FFF7FEFF 		bl	strlen
 1232              	.LVL118:
 304:Middlewares/lvgl/src/misc/lv_fs.c ****         if(fn[i] == '.') {
 1233              		.loc 1 304 5 view .LVU340
 1234 0008 03E0     		b	.L108
 1235              	.L115:
 306:Middlewares/lvgl/src/misc/lv_fs.c ****         }
 1236              		.loc 1 306 13 is_stmt 1 view .LVU341
 306:Middlewares/lvgl/src/misc/lv_fs.c ****         }
 1237              		.loc 1 306 23 is_stmt 0 view .LVU342
 1238 000a 431C     		adds	r3, r0, #1
 306:Middlewares/lvgl/src/misc/lv_fs.c ****         }
 1239              		.loc 1 306 20 view .LVU343
 1240 000c E018     		adds	r0, r4, r3
 1241              	.LVL119:
 306:Middlewares/lvgl/src/misc/lv_fs.c ****         }
 1242              		.loc 1 306 20 view .LVU344
 1243 000e 0BE0     		b	.L107
 1244              	.LVL120:
 1245              	.L116:
 304:Middlewares/lvgl/src/misc/lv_fs.c ****         if(fn[i] == '.') {
 1246              		.loc 1 304 32 is_stmt 1 discriminator 2 view .LVU345
 304:Middlewares/lvgl/src/misc/lv_fs.c ****         if(fn[i] == '.') {
 1247              		.loc 1 304 33 is_stmt 0 discriminator 2 view .LVU346
 1248 0010 0138     		subs	r0, r0, #1
 1249              	.LVL121:
 1250              	.L108:
ARM GAS  /tmp/ccRLru7H.s 			page 35


 304:Middlewares/lvgl/src/misc/lv_fs.c ****         if(fn[i] == '.') {
 1251              		.loc 1 304 25 is_stmt 1 discriminator 1 view .LVU347
 304:Middlewares/lvgl/src/misc/lv_fs.c ****         if(fn[i] == '.') {
 1252              		.loc 1 304 5 is_stmt 0 discriminator 1 view .LVU348
 1253 0012 40B1     		cbz	r0, .L114
 305:Middlewares/lvgl/src/misc/lv_fs.c ****             return &fn[i + 1];
 1254              		.loc 1 305 9 is_stmt 1 view .LVU349
 305:Middlewares/lvgl/src/misc/lv_fs.c ****             return &fn[i + 1];
 1255              		.loc 1 305 14 is_stmt 0 view .LVU350
 1256 0014 235C     		ldrb	r3, [r4, r0]	@ zero_extendqisi2
 305:Middlewares/lvgl/src/misc/lv_fs.c ****             return &fn[i + 1];
 1257              		.loc 1 305 11 view .LVU351
 1258 0016 2E2B     		cmp	r3, #46
 1259 0018 F7D0     		beq	.L115
 308:Middlewares/lvgl/src/misc/lv_fs.c ****             return ""; /*No extension if a '\' or '/' found*/
 1260              		.loc 1 308 14 is_stmt 1 view .LVU352
 308:Middlewares/lvgl/src/misc/lv_fs.c ****             return ""; /*No extension if a '\' or '/' found*/
 1261              		.loc 1 308 16 is_stmt 0 view .LVU353
 1262 001a 5C2B     		cmp	r3, #92
 1263 001c 18BF     		it	ne
 1264 001e 2F2B     		cmpne	r3, #47
 1265 0020 F6D1     		bne	.L116
 309:Middlewares/lvgl/src/misc/lv_fs.c ****         }
 1266              		.loc 1 309 20 view .LVU354
 1267 0022 0248     		ldr	r0, .L117
 1268              	.LVL122:
 309:Middlewares/lvgl/src/misc/lv_fs.c ****         }
 1269              		.loc 1 309 20 view .LVU355
 1270 0024 00E0     		b	.L107
 1271              	.LVL123:
 1272              	.L114:
 313:Middlewares/lvgl/src/misc/lv_fs.c **** }
 1273              		.loc 1 313 12 view .LVU356
 1274 0026 0148     		ldr	r0, .L117
 1275              	.LVL124:
 1276              	.L107:
 314:Middlewares/lvgl/src/misc/lv_fs.c **** 
 1277              		.loc 1 314 1 view .LVU357
 1278 0028 10BD     		pop	{r4, pc}
 1279              	.LVL125:
 1280              	.L118:
 314:Middlewares/lvgl/src/misc/lv_fs.c **** 
 1281              		.loc 1 314 1 view .LVU358
 1282 002a 00BF     		.align	2
 1283              	.L117:
 1284 002c 00000000 		.word	.LC0
 1285              		.cfi_endproc
 1286              	.LFE38:
 1288              		.section	.text.lv_fs_up,"ax",%progbits
 1289              		.align	1
 1290              		.global	lv_fs_up
 1291              		.syntax unified
 1292              		.thumb
 1293              		.thumb_func
 1295              	lv_fs_up:
 1296              	.LVL126:
 1297              	.LFB39:
ARM GAS  /tmp/ccRLru7H.s 			page 36


 317:Middlewares/lvgl/src/misc/lv_fs.c ****     size_t len = strlen(path);
 1298              		.loc 1 317 1 is_stmt 1 view -0
 1299              		.cfi_startproc
 1300              		@ args = 0, pretend = 0, frame = 0
 1301              		@ frame_needed = 0, uses_anonymous_args = 0
 317:Middlewares/lvgl/src/misc/lv_fs.c ****     size_t len = strlen(path);
 1302              		.loc 1 317 1 is_stmt 0 view .LVU360
 1303 0000 10B5     		push	{r4, lr}
 1304              	.LCFI30:
 1305              		.cfi_def_cfa_offset 8
 1306              		.cfi_offset 4, -8
 1307              		.cfi_offset 14, -4
 1308 0002 0446     		mov	r4, r0
 318:Middlewares/lvgl/src/misc/lv_fs.c ****     if(len == 0) return path;
 1309              		.loc 1 318 5 is_stmt 1 view .LVU361
 318:Middlewares/lvgl/src/misc/lv_fs.c ****     if(len == 0) return path;
 1310              		.loc 1 318 18 is_stmt 0 view .LVU362
 1311 0004 FFF7FEFF 		bl	strlen
 1312              	.LVL127:
 319:Middlewares/lvgl/src/misc/lv_fs.c **** 
 1313              		.loc 1 319 5 is_stmt 1 view .LVU363
 319:Middlewares/lvgl/src/misc/lv_fs.c **** 
 1314              		.loc 1 319 7 is_stmt 0 view .LVU364
 1315 0008 A8B1     		cbz	r0, .L120
 321:Middlewares/lvgl/src/misc/lv_fs.c **** 
 1316              		.loc 1 321 5 is_stmt 1 view .LVU365
 321:Middlewares/lvgl/src/misc/lv_fs.c **** 
 1317              		.loc 1 321 8 is_stmt 0 view .LVU366
 1318 000a 431E     		subs	r3, r0, #1
 1319              	.LVL128:
 324:Middlewares/lvgl/src/misc/lv_fs.c ****         path[len] = '\0';
 1320              		.loc 1 324 5 is_stmt 1 view .LVU367
 1321              	.L121:
 324:Middlewares/lvgl/src/misc/lv_fs.c ****         path[len] = '\0';
 1322              		.loc 1 324 10 view .LVU368
 324:Middlewares/lvgl/src/misc/lv_fs.c ****         path[len] = '\0';
 1323              		.loc 1 324 15 is_stmt 0 view .LVU369
 1324 000c E25C     		ldrb	r2, [r4, r3]	@ zero_extendqisi2
 324:Middlewares/lvgl/src/misc/lv_fs.c ****         path[len] = '\0';
 1325              		.loc 1 324 10 view .LVU370
 1326 000e 5C2A     		cmp	r2, #92
 1327 0010 18BF     		it	ne
 1328 0012 2F2A     		cmpne	r2, #47
 1329 0014 04D1     		bne	.L123
 325:Middlewares/lvgl/src/misc/lv_fs.c ****         if(len > 0)
 1330              		.loc 1 325 9 is_stmt 1 view .LVU371
 325:Middlewares/lvgl/src/misc/lv_fs.c ****         if(len > 0)
 1331              		.loc 1 325 19 is_stmt 0 view .LVU372
 1332 0016 0022     		movs	r2, #0
 1333 0018 E254     		strb	r2, [r4, r3]
 326:Middlewares/lvgl/src/misc/lv_fs.c ****             len--;
 1334              		.loc 1 326 9 is_stmt 1 view .LVU373
 326:Middlewares/lvgl/src/misc/lv_fs.c ****             len--;
 1335              		.loc 1 326 11 is_stmt 0 view .LVU374
 1336 001a 63B1     		cbz	r3, .L120
 327:Middlewares/lvgl/src/misc/lv_fs.c ****         else
 1337              		.loc 1 327 13 is_stmt 1 view .LVU375
ARM GAS  /tmp/ccRLru7H.s 			page 37


 327:Middlewares/lvgl/src/misc/lv_fs.c ****         else
 1338              		.loc 1 327 16 is_stmt 0 view .LVU376
 1339 001c 013B     		subs	r3, r3, #1
 1340              	.LVL129:
 327:Middlewares/lvgl/src/misc/lv_fs.c ****         else
 1341              		.loc 1 327 16 view .LVU377
 1342 001e F5E7     		b	.L121
 1343              	.LVL130:
 1344              	.L123:
 333:Middlewares/lvgl/src/misc/lv_fs.c ****         if(path[i] == '/' || path[i] == '\\') break;
 1345              		.loc 1 333 18 is_stmt 1 discriminator 1 view .LVU378
 333:Middlewares/lvgl/src/misc/lv_fs.c ****         if(path[i] == '/' || path[i] == '\\') break;
 1346              		.loc 1 333 5 is_stmt 0 discriminator 1 view .LVU379
 1347 0020 33B1     		cbz	r3, .L124
 334:Middlewares/lvgl/src/misc/lv_fs.c ****     }
 1348              		.loc 1 334 9 is_stmt 1 view .LVU380
 334:Middlewares/lvgl/src/misc/lv_fs.c ****     }
 1349              		.loc 1 334 16 is_stmt 0 view .LVU381
 1350 0022 E25C     		ldrb	r2, [r4, r3]	@ zero_extendqisi2
 334:Middlewares/lvgl/src/misc/lv_fs.c ****     }
 1351              		.loc 1 334 11 view .LVU382
 1352 0024 5C2A     		cmp	r2, #92
 1353 0026 18BF     		it	ne
 1354 0028 2F2A     		cmpne	r2, #47
 1355 002a 01D0     		beq	.L124
 333:Middlewares/lvgl/src/misc/lv_fs.c ****         if(path[i] == '/' || path[i] == '\\') break;
 1356              		.loc 1 333 25 is_stmt 1 discriminator 2 view .LVU383
 333:Middlewares/lvgl/src/misc/lv_fs.c ****         if(path[i] == '/' || path[i] == '\\') break;
 1357              		.loc 1 333 26 is_stmt 0 discriminator 2 view .LVU384
 1358 002c 013B     		subs	r3, r3, #1
 1359              	.LVL131:
 333:Middlewares/lvgl/src/misc/lv_fs.c ****         if(path[i] == '/' || path[i] == '\\') break;
 1360              		.loc 1 333 26 discriminator 2 view .LVU385
 1361 002e F7E7     		b	.L123
 1362              	.L124:
 337:Middlewares/lvgl/src/misc/lv_fs.c **** 
 1363              		.loc 1 337 5 is_stmt 1 view .LVU386
 337:Middlewares/lvgl/src/misc/lv_fs.c **** 
 1364              		.loc 1 337 7 is_stmt 0 view .LVU387
 1365 0030 0BB1     		cbz	r3, .L120
 337:Middlewares/lvgl/src/misc/lv_fs.c **** 
 1366              		.loc 1 337 15 is_stmt 1 discriminator 1 view .LVU388
 337:Middlewares/lvgl/src/misc/lv_fs.c **** 
 1367              		.loc 1 337 23 is_stmt 0 discriminator 1 view .LVU389
 1368 0032 0022     		movs	r2, #0
 1369 0034 E254     		strb	r2, [r4, r3]
 1370              	.LVL132:
 1371              	.L120:
 340:Middlewares/lvgl/src/misc/lv_fs.c **** 
 1372              		.loc 1 340 1 view .LVU390
 1373 0036 2046     		mov	r0, r4
 1374 0038 10BD     		pop	{r4, pc}
 340:Middlewares/lvgl/src/misc/lv_fs.c **** 
 1375              		.loc 1 340 1 view .LVU391
 1376              		.cfi_endproc
 1377              	.LFE39:
 1379              		.section	.text.lv_fs_get_last,"ax",%progbits
ARM GAS  /tmp/ccRLru7H.s 			page 38


 1380              		.align	1
 1381              		.global	lv_fs_get_last
 1382              		.syntax unified
 1383              		.thumb
 1384              		.thumb_func
 1386              	lv_fs_get_last:
 1387              	.LVL133:
 1388              	.LFB40:
 343:Middlewares/lvgl/src/misc/lv_fs.c ****     size_t len = strlen(path);
 1389              		.loc 1 343 1 is_stmt 1 view -0
 1390              		.cfi_startproc
 1391              		@ args = 0, pretend = 0, frame = 0
 1392              		@ frame_needed = 0, uses_anonymous_args = 0
 343:Middlewares/lvgl/src/misc/lv_fs.c ****     size_t len = strlen(path);
 1393              		.loc 1 343 1 is_stmt 0 view .LVU393
 1394 0000 10B5     		push	{r4, lr}
 1395              	.LCFI31:
 1396              		.cfi_def_cfa_offset 8
 1397              		.cfi_offset 4, -8
 1398              		.cfi_offset 14, -4
 1399 0002 0446     		mov	r4, r0
 344:Middlewares/lvgl/src/misc/lv_fs.c ****     if(len == 0) return path;
 1400              		.loc 1 344 5 is_stmt 1 view .LVU394
 344:Middlewares/lvgl/src/misc/lv_fs.c ****     if(len == 0) return path;
 1401              		.loc 1 344 18 is_stmt 0 view .LVU395
 1402 0004 FFF7FEFF 		bl	strlen
 1403              	.LVL134:
 345:Middlewares/lvgl/src/misc/lv_fs.c **** 
 1404              		.loc 1 345 5 is_stmt 1 view .LVU396
 345:Middlewares/lvgl/src/misc/lv_fs.c **** 
 1405              		.loc 1 345 7 is_stmt 0 view .LVU397
 1406 0008 98B1     		cbz	r0, .L128
 347:Middlewares/lvgl/src/misc/lv_fs.c **** 
 1407              		.loc 1 347 5 is_stmt 1 view .LVU398
 347:Middlewares/lvgl/src/misc/lv_fs.c **** 
 1408              		.loc 1 347 8 is_stmt 0 view .LVU399
 1409 000a 431E     		subs	r3, r0, #1
 1410              	.LVL135:
 350:Middlewares/lvgl/src/misc/lv_fs.c ****         if(len > 0)
 1411              		.loc 1 350 5 is_stmt 1 view .LVU400
 1412              	.L129:
 350:Middlewares/lvgl/src/misc/lv_fs.c ****         if(len > 0)
 1413              		.loc 1 350 10 view .LVU401
 350:Middlewares/lvgl/src/misc/lv_fs.c ****         if(len > 0)
 1414              		.loc 1 350 15 is_stmt 0 view .LVU402
 1415 000c E25C     		ldrb	r2, [r4, r3]	@ zero_extendqisi2
 350:Middlewares/lvgl/src/misc/lv_fs.c ****         if(len > 0)
 1416              		.loc 1 350 10 view .LVU403
 1417 000e 5C2A     		cmp	r2, #92
 1418 0010 18BF     		it	ne
 1419 0012 2F2A     		cmpne	r2, #47
 1420 0014 02D1     		bne	.L131
 351:Middlewares/lvgl/src/misc/lv_fs.c ****             len--;
 1421              		.loc 1 351 9 is_stmt 1 view .LVU404
 351:Middlewares/lvgl/src/misc/lv_fs.c ****             len--;
 1422              		.loc 1 351 11 is_stmt 0 view .LVU405
 1423 0016 63B1     		cbz	r3, .L128
ARM GAS  /tmp/ccRLru7H.s 			page 39


 352:Middlewares/lvgl/src/misc/lv_fs.c ****         else
 1424              		.loc 1 352 13 is_stmt 1 view .LVU406
 352:Middlewares/lvgl/src/misc/lv_fs.c ****         else
 1425              		.loc 1 352 16 is_stmt 0 view .LVU407
 1426 0018 013B     		subs	r3, r3, #1
 1427              	.LVL136:
 352:Middlewares/lvgl/src/misc/lv_fs.c ****         else
 1428              		.loc 1 352 16 view .LVU408
 1429 001a F7E7     		b	.L129
 1430              	.LVL137:
 1431              	.L131:
 358:Middlewares/lvgl/src/misc/lv_fs.c ****         if(path[i] == '/' || path[i] == '\\') break;
 1432              		.loc 1 358 18 is_stmt 1 discriminator 1 view .LVU409
 358:Middlewares/lvgl/src/misc/lv_fs.c ****         if(path[i] == '/' || path[i] == '\\') break;
 1433              		.loc 1 358 5 is_stmt 0 discriminator 1 view .LVU410
 1434 001c 33B1     		cbz	r3, .L132
 359:Middlewares/lvgl/src/misc/lv_fs.c ****     }
 1435              		.loc 1 359 9 is_stmt 1 view .LVU411
 359:Middlewares/lvgl/src/misc/lv_fs.c ****     }
 1436              		.loc 1 359 16 is_stmt 0 view .LVU412
 1437 001e E25C     		ldrb	r2, [r4, r3]	@ zero_extendqisi2
 359:Middlewares/lvgl/src/misc/lv_fs.c ****     }
 1438              		.loc 1 359 11 view .LVU413
 1439 0020 5C2A     		cmp	r2, #92
 1440 0022 18BF     		it	ne
 1441 0024 2F2A     		cmpne	r2, #47
 1442 0026 01D0     		beq	.L132
 358:Middlewares/lvgl/src/misc/lv_fs.c ****         if(path[i] == '/' || path[i] == '\\') break;
 1443              		.loc 1 358 25 is_stmt 1 discriminator 2 view .LVU414
 358:Middlewares/lvgl/src/misc/lv_fs.c ****         if(path[i] == '/' || path[i] == '\\') break;
 1444              		.loc 1 358 26 is_stmt 0 discriminator 2 view .LVU415
 1445 0028 013B     		subs	r3, r3, #1
 1446              	.LVL138:
 358:Middlewares/lvgl/src/misc/lv_fs.c ****         if(path[i] == '/' || path[i] == '\\') break;
 1447              		.loc 1 358 26 discriminator 2 view .LVU416
 1448 002a F7E7     		b	.L131
 1449              	.L132:
 363:Middlewares/lvgl/src/misc/lv_fs.c **** 
 1450              		.loc 1 363 5 is_stmt 1 view .LVU417
 363:Middlewares/lvgl/src/misc/lv_fs.c **** 
 1451              		.loc 1 363 7 is_stmt 0 view .LVU418
 1452 002c 0BB1     		cbz	r3, .L128
 365:Middlewares/lvgl/src/misc/lv_fs.c **** }
 1453              		.loc 1 365 5 is_stmt 1 view .LVU419
 365:Middlewares/lvgl/src/misc/lv_fs.c **** }
 1454              		.loc 1 365 17 is_stmt 0 view .LVU420
 1455 002e 0133     		adds	r3, r3, #1
 1456              	.LVL139:
 365:Middlewares/lvgl/src/misc/lv_fs.c **** }
 1457              		.loc 1 365 12 view .LVU421
 1458 0030 1C44     		add	r4, r4, r3
 1459              	.LVL140:
 1460              	.L128:
 366:Middlewares/lvgl/src/misc/lv_fs.c **** /**********************
 1461              		.loc 1 366 1 view .LVU422
 1462 0032 2046     		mov	r0, r4
 1463 0034 10BD     		pop	{r4, pc}
ARM GAS  /tmp/ccRLru7H.s 			page 40


 1464              		.cfi_endproc
 1465              	.LFE40:
 1467              		.text
 1468              	.Letext0:
 1469              		.file 2 "/home/akinya/gcc-arm-none-eabi/arm-none-eabi/include/machine/_default_types.h"
 1470              		.file 3 "/home/akinya/gcc-arm-none-eabi/arm-none-eabi/include/sys/_stdint.h"
 1471              		.file 4 "Middlewares/lvgl/src/misc/lv_fs.h"
 1472              		.file 5 "/home/akinya/gcc-arm-none-eabi/lib/gcc/arm-none-eabi/10.3.1/include/stddef.h"
 1473              		.file 6 "Middlewares/lvgl/src/misc/lv_ll.h"
 1474              		.file 7 "Middlewares/lvgl/src/misc/lv_gc.h"
 1475              		.file 8 "/home/akinya/gcc-arm-none-eabi/arm-none-eabi/include/string.h"
 1476              		.file 9 "Middlewares/lvgl/src/misc/lv_mem.h"
ARM GAS  /tmp/ccRLru7H.s 			page 41

