ARM GAS  /tmp/cc3I9fWq.s 			page 1


   1              		.cpu cortex-m7
   2              		.arch armv7e-m
   3              		.fpu fpv5-d16
   4              		.eabi_attribute 28, 1
   5              		.eabi_attribute 20, 1
   6              		.eabi_attribute 21, 1
   7              		.eabi_attribute 23, 3
   8              		.eabi_attribute 24, 1
   9              		.eabi_attribute 25, 1
  10              		.eabi_attribute 26, 1
  11              		.eabi_attribute 30, 1
  12              		.eabi_attribute 34, 1
  13              		.eabi_attribute 18, 4
  14              		.file	"lv_grid.c"
  15              		.text
  16              	.Ltext0:
  17              		.cfi_sections	.debug_frame
  18              		.section	.text.grid_align,"ax",%progbits
  19              		.align	1
  20              		.syntax unified
  21              		.thumb
  22              		.thumb_func
  24              	grid_align:
  25              	.LVL0:
  26              	.LFB203:
  27              		.file 1 "Middlewares/lvgl/src/extra/layouts/grid/lv_grid.c"
   1:Middlewares/lvgl/src/extra/layouts/grid/lv_grid.c **** /**
   2:Middlewares/lvgl/src/extra/layouts/grid/lv_grid.c ****  * @file lv_grid.c
   3:Middlewares/lvgl/src/extra/layouts/grid/lv_grid.c ****  *
   4:Middlewares/lvgl/src/extra/layouts/grid/lv_grid.c ****  */
   5:Middlewares/lvgl/src/extra/layouts/grid/lv_grid.c **** 
   6:Middlewares/lvgl/src/extra/layouts/grid/lv_grid.c **** /*********************
   7:Middlewares/lvgl/src/extra/layouts/grid/lv_grid.c ****  *      INCLUDES
   8:Middlewares/lvgl/src/extra/layouts/grid/lv_grid.c ****  *********************/
   9:Middlewares/lvgl/src/extra/layouts/grid/lv_grid.c **** #include "../lv_layouts.h"
  10:Middlewares/lvgl/src/extra/layouts/grid/lv_grid.c **** 
  11:Middlewares/lvgl/src/extra/layouts/grid/lv_grid.c **** #if LV_USE_GRID
  12:Middlewares/lvgl/src/extra/layouts/grid/lv_grid.c **** 
  13:Middlewares/lvgl/src/extra/layouts/grid/lv_grid.c **** /*********************
  14:Middlewares/lvgl/src/extra/layouts/grid/lv_grid.c ****  *      DEFINES
  15:Middlewares/lvgl/src/extra/layouts/grid/lv_grid.c ****  *********************/
  16:Middlewares/lvgl/src/extra/layouts/grid/lv_grid.c **** /**
  17:Middlewares/lvgl/src/extra/layouts/grid/lv_grid.c ****  * Some helper defines
  18:Middlewares/lvgl/src/extra/layouts/grid/lv_grid.c ****  */
  19:Middlewares/lvgl/src/extra/layouts/grid/lv_grid.c **** #define IS_FR(x)       (x >= LV_COORD_MAX - 100)
  20:Middlewares/lvgl/src/extra/layouts/grid/lv_grid.c **** #define IS_CONTENT(x)  (x == LV_COORD_MAX - 101)
  21:Middlewares/lvgl/src/extra/layouts/grid/lv_grid.c **** #define GET_FR(x)      (x - (LV_COORD_MAX - 100))
  22:Middlewares/lvgl/src/extra/layouts/grid/lv_grid.c **** 
  23:Middlewares/lvgl/src/extra/layouts/grid/lv_grid.c **** /**********************
  24:Middlewares/lvgl/src/extra/layouts/grid/lv_grid.c ****  *      TYPEDEFS
  25:Middlewares/lvgl/src/extra/layouts/grid/lv_grid.c ****  **********************/
  26:Middlewares/lvgl/src/extra/layouts/grid/lv_grid.c **** typedef struct {
  27:Middlewares/lvgl/src/extra/layouts/grid/lv_grid.c ****     uint32_t col;
  28:Middlewares/lvgl/src/extra/layouts/grid/lv_grid.c ****     uint32_t row;
  29:Middlewares/lvgl/src/extra/layouts/grid/lv_grid.c ****     lv_point_t grid_abs;
  30:Middlewares/lvgl/src/extra/layouts/grid/lv_grid.c **** }item_repos_hint_t;
  31:Middlewares/lvgl/src/extra/layouts/grid/lv_grid.c **** 
ARM GAS  /tmp/cc3I9fWq.s 			page 2


  32:Middlewares/lvgl/src/extra/layouts/grid/lv_grid.c **** typedef struct {
  33:Middlewares/lvgl/src/extra/layouts/grid/lv_grid.c ****     lv_coord_t * x;
  34:Middlewares/lvgl/src/extra/layouts/grid/lv_grid.c ****     lv_coord_t * y;
  35:Middlewares/lvgl/src/extra/layouts/grid/lv_grid.c ****     lv_coord_t * w;
  36:Middlewares/lvgl/src/extra/layouts/grid/lv_grid.c ****     lv_coord_t * h;
  37:Middlewares/lvgl/src/extra/layouts/grid/lv_grid.c ****     uint32_t col_num;
  38:Middlewares/lvgl/src/extra/layouts/grid/lv_grid.c ****     uint32_t row_num;
  39:Middlewares/lvgl/src/extra/layouts/grid/lv_grid.c ****     lv_coord_t grid_w;
  40:Middlewares/lvgl/src/extra/layouts/grid/lv_grid.c ****     lv_coord_t grid_h;
  41:Middlewares/lvgl/src/extra/layouts/grid/lv_grid.c **** }_lv_grid_calc_t;
  42:Middlewares/lvgl/src/extra/layouts/grid/lv_grid.c **** 
  43:Middlewares/lvgl/src/extra/layouts/grid/lv_grid.c **** 
  44:Middlewares/lvgl/src/extra/layouts/grid/lv_grid.c **** /**********************
  45:Middlewares/lvgl/src/extra/layouts/grid/lv_grid.c ****  *  GLOBAL PROTOTYPES
  46:Middlewares/lvgl/src/extra/layouts/grid/lv_grid.c ****  **********************/
  47:Middlewares/lvgl/src/extra/layouts/grid/lv_grid.c **** 
  48:Middlewares/lvgl/src/extra/layouts/grid/lv_grid.c **** /**********************
  49:Middlewares/lvgl/src/extra/layouts/grid/lv_grid.c ****  *  STATIC PROTOTYPES
  50:Middlewares/lvgl/src/extra/layouts/grid/lv_grid.c ****  **********************/
  51:Middlewares/lvgl/src/extra/layouts/grid/lv_grid.c **** static void grid_update(lv_obj_t * cont, void * user_data);
  52:Middlewares/lvgl/src/extra/layouts/grid/lv_grid.c **** static void calc(lv_obj_t * obj, _lv_grid_calc_t * calc);
  53:Middlewares/lvgl/src/extra/layouts/grid/lv_grid.c **** static void calc_free(_lv_grid_calc_t * calc);
  54:Middlewares/lvgl/src/extra/layouts/grid/lv_grid.c **** static void calc_cols(lv_obj_t * cont, _lv_grid_calc_t * c);
  55:Middlewares/lvgl/src/extra/layouts/grid/lv_grid.c **** static void calc_rows(lv_obj_t * cont, _lv_grid_calc_t * c);
  56:Middlewares/lvgl/src/extra/layouts/grid/lv_grid.c **** static void item_repos(lv_obj_t * item, _lv_grid_calc_t * c, item_repos_hint_t * hint);
  57:Middlewares/lvgl/src/extra/layouts/grid/lv_grid.c **** static lv_coord_t grid_align(lv_coord_t cont_size,  bool auto_size, uint8_t align, lv_coord_t gap, 
  58:Middlewares/lvgl/src/extra/layouts/grid/lv_grid.c **** static uint32_t count_tracks(const lv_coord_t * templ);
  59:Middlewares/lvgl/src/extra/layouts/grid/lv_grid.c **** 
  60:Middlewares/lvgl/src/extra/layouts/grid/lv_grid.c **** static inline const lv_coord_t * get_col_dsc(lv_obj_t * obj) {return lv_obj_get_style_grid_column_d
  61:Middlewares/lvgl/src/extra/layouts/grid/lv_grid.c **** static inline const lv_coord_t * get_row_dsc(lv_obj_t * obj) {return lv_obj_get_style_grid_row_dsc_
  62:Middlewares/lvgl/src/extra/layouts/grid/lv_grid.c **** static inline uint8_t get_col_pos(lv_obj_t * obj) {return lv_obj_get_style_grid_cell_column_pos(obj
  63:Middlewares/lvgl/src/extra/layouts/grid/lv_grid.c **** static inline uint8_t get_row_pos(lv_obj_t * obj) {return lv_obj_get_style_grid_cell_row_pos(obj, 0
  64:Middlewares/lvgl/src/extra/layouts/grid/lv_grid.c **** static inline uint8_t get_col_span(lv_obj_t * obj) {return lv_obj_get_style_grid_cell_column_span(o
  65:Middlewares/lvgl/src/extra/layouts/grid/lv_grid.c **** static inline uint8_t get_row_span(lv_obj_t * obj) {return lv_obj_get_style_grid_cell_row_span(obj,
  66:Middlewares/lvgl/src/extra/layouts/grid/lv_grid.c **** static inline uint8_t get_cell_col_align(lv_obj_t * obj) {return lv_obj_get_style_grid_cell_x_align
  67:Middlewares/lvgl/src/extra/layouts/grid/lv_grid.c **** static inline uint8_t get_cell_row_align(lv_obj_t * obj) {return lv_obj_get_style_grid_cell_y_align
  68:Middlewares/lvgl/src/extra/layouts/grid/lv_grid.c **** static inline uint8_t get_grid_col_align(lv_obj_t * obj) {return lv_obj_get_style_grid_column_align
  69:Middlewares/lvgl/src/extra/layouts/grid/lv_grid.c **** static inline uint8_t get_grid_row_align(lv_obj_t * obj) {return lv_obj_get_style_grid_row_align(ob
  70:Middlewares/lvgl/src/extra/layouts/grid/lv_grid.c **** 
  71:Middlewares/lvgl/src/extra/layouts/grid/lv_grid.c **** /**********************
  72:Middlewares/lvgl/src/extra/layouts/grid/lv_grid.c ****  *  GLOBAL VARIABLES
  73:Middlewares/lvgl/src/extra/layouts/grid/lv_grid.c ****  **********************/
  74:Middlewares/lvgl/src/extra/layouts/grid/lv_grid.c **** uint32_t LV_LAYOUT_GRID;
  75:Middlewares/lvgl/src/extra/layouts/grid/lv_grid.c **** lv_style_prop_t LV_STYLE_GRID_COLUMN_DSC_ARRAY;
  76:Middlewares/lvgl/src/extra/layouts/grid/lv_grid.c **** lv_style_prop_t LV_STYLE_GRID_COLUMN_ALIGN;
  77:Middlewares/lvgl/src/extra/layouts/grid/lv_grid.c **** lv_style_prop_t LV_STYLE_GRID_ROW_DSC_ARRAY;
  78:Middlewares/lvgl/src/extra/layouts/grid/lv_grid.c **** lv_style_prop_t LV_STYLE_GRID_ROW_ALIGN;
  79:Middlewares/lvgl/src/extra/layouts/grid/lv_grid.c **** lv_style_prop_t LV_STYLE_GRID_CELL_COLUMN_POS;
  80:Middlewares/lvgl/src/extra/layouts/grid/lv_grid.c **** lv_style_prop_t LV_STYLE_GRID_CELL_COLUMN_SPAN;
  81:Middlewares/lvgl/src/extra/layouts/grid/lv_grid.c **** lv_style_prop_t LV_STYLE_GRID_CELL_X_ALIGN;
  82:Middlewares/lvgl/src/extra/layouts/grid/lv_grid.c **** lv_style_prop_t LV_STYLE_GRID_CELL_ROW_POS;
  83:Middlewares/lvgl/src/extra/layouts/grid/lv_grid.c **** lv_style_prop_t LV_STYLE_GRID_CELL_ROW_SPAN;
  84:Middlewares/lvgl/src/extra/layouts/grid/lv_grid.c **** lv_style_prop_t LV_STYLE_GRID_CELL_Y_ALIGN;
  85:Middlewares/lvgl/src/extra/layouts/grid/lv_grid.c **** 
  86:Middlewares/lvgl/src/extra/layouts/grid/lv_grid.c **** /**********************
  87:Middlewares/lvgl/src/extra/layouts/grid/lv_grid.c ****  *  STATIC VARIABLES
  88:Middlewares/lvgl/src/extra/layouts/grid/lv_grid.c ****  **********************/
ARM GAS  /tmp/cc3I9fWq.s 			page 3


  89:Middlewares/lvgl/src/extra/layouts/grid/lv_grid.c **** 
  90:Middlewares/lvgl/src/extra/layouts/grid/lv_grid.c **** /**********************
  91:Middlewares/lvgl/src/extra/layouts/grid/lv_grid.c ****  *      MACROS
  92:Middlewares/lvgl/src/extra/layouts/grid/lv_grid.c ****  **********************/
  93:Middlewares/lvgl/src/extra/layouts/grid/lv_grid.c **** 
  94:Middlewares/lvgl/src/extra/layouts/grid/lv_grid.c **** /**********************
  95:Middlewares/lvgl/src/extra/layouts/grid/lv_grid.c ****  *   GLOBAL FUNCTIONS
  96:Middlewares/lvgl/src/extra/layouts/grid/lv_grid.c ****  **********************/
  97:Middlewares/lvgl/src/extra/layouts/grid/lv_grid.c **** 
  98:Middlewares/lvgl/src/extra/layouts/grid/lv_grid.c **** 
  99:Middlewares/lvgl/src/extra/layouts/grid/lv_grid.c **** void lv_grid_init(void)
 100:Middlewares/lvgl/src/extra/layouts/grid/lv_grid.c **** {
 101:Middlewares/lvgl/src/extra/layouts/grid/lv_grid.c ****     LV_LAYOUT_GRID = lv_layout_register(grid_update, NULL);
 102:Middlewares/lvgl/src/extra/layouts/grid/lv_grid.c **** 
 103:Middlewares/lvgl/src/extra/layouts/grid/lv_grid.c ****     LV_STYLE_GRID_COLUMN_DSC_ARRAY = lv_style_register_prop() | LV_STYLE_PROP_LAYOUT_REFR;
 104:Middlewares/lvgl/src/extra/layouts/grid/lv_grid.c ****     LV_STYLE_GRID_ROW_DSC_ARRAY = lv_style_register_prop() | LV_STYLE_PROP_LAYOUT_REFR;
 105:Middlewares/lvgl/src/extra/layouts/grid/lv_grid.c ****     LV_STYLE_GRID_COLUMN_ALIGN = lv_style_register_prop() | LV_STYLE_PROP_LAYOUT_REFR;
 106:Middlewares/lvgl/src/extra/layouts/grid/lv_grid.c ****     LV_STYLE_GRID_ROW_ALIGN = lv_style_register_prop() | LV_STYLE_PROP_LAYOUT_REFR;
 107:Middlewares/lvgl/src/extra/layouts/grid/lv_grid.c **** 
 108:Middlewares/lvgl/src/extra/layouts/grid/lv_grid.c ****     LV_STYLE_GRID_CELL_ROW_SPAN = lv_style_register_prop() | LV_STYLE_PROP_LAYOUT_REFR;
 109:Middlewares/lvgl/src/extra/layouts/grid/lv_grid.c ****     LV_STYLE_GRID_CELL_ROW_POS = lv_style_register_prop() | LV_STYLE_PROP_LAYOUT_REFR;
 110:Middlewares/lvgl/src/extra/layouts/grid/lv_grid.c ****     LV_STYLE_GRID_CELL_COLUMN_SPAN = lv_style_register_prop() | LV_STYLE_PROP_LAYOUT_REFR;
 111:Middlewares/lvgl/src/extra/layouts/grid/lv_grid.c ****     LV_STYLE_GRID_CELL_COLUMN_POS = lv_style_register_prop() | LV_STYLE_PROP_LAYOUT_REFR;
 112:Middlewares/lvgl/src/extra/layouts/grid/lv_grid.c ****     LV_STYLE_GRID_CELL_X_ALIGN = lv_style_register_prop() | LV_STYLE_PROP_LAYOUT_REFR;
 113:Middlewares/lvgl/src/extra/layouts/grid/lv_grid.c ****     LV_STYLE_GRID_CELL_Y_ALIGN = lv_style_register_prop() | LV_STYLE_PROP_LAYOUT_REFR;
 114:Middlewares/lvgl/src/extra/layouts/grid/lv_grid.c **** }
 115:Middlewares/lvgl/src/extra/layouts/grid/lv_grid.c **** 
 116:Middlewares/lvgl/src/extra/layouts/grid/lv_grid.c **** void lv_obj_set_grid_dsc_array(lv_obj_t * obj, const lv_coord_t col_dsc[], const lv_coord_t row_dsc
 117:Middlewares/lvgl/src/extra/layouts/grid/lv_grid.c **** {
 118:Middlewares/lvgl/src/extra/layouts/grid/lv_grid.c ****     lv_obj_set_style_grid_column_dsc_array(obj, col_dsc, 0);
 119:Middlewares/lvgl/src/extra/layouts/grid/lv_grid.c ****     lv_obj_set_style_grid_row_dsc_array(obj, row_dsc, 0);
 120:Middlewares/lvgl/src/extra/layouts/grid/lv_grid.c ****     lv_obj_set_style_layout(obj, LV_LAYOUT_GRID, 0);
 121:Middlewares/lvgl/src/extra/layouts/grid/lv_grid.c **** }
 122:Middlewares/lvgl/src/extra/layouts/grid/lv_grid.c **** 
 123:Middlewares/lvgl/src/extra/layouts/grid/lv_grid.c **** void lv_obj_set_grid_align(lv_obj_t * obj, lv_grid_align_t column_align, lv_grid_align_t row_align)
 124:Middlewares/lvgl/src/extra/layouts/grid/lv_grid.c **** {
 125:Middlewares/lvgl/src/extra/layouts/grid/lv_grid.c ****     lv_obj_set_style_grid_column_align(obj, column_align, 0);
 126:Middlewares/lvgl/src/extra/layouts/grid/lv_grid.c ****     lv_obj_set_style_grid_row_align(obj, row_align, 0);
 127:Middlewares/lvgl/src/extra/layouts/grid/lv_grid.c **** 
 128:Middlewares/lvgl/src/extra/layouts/grid/lv_grid.c **** }
 129:Middlewares/lvgl/src/extra/layouts/grid/lv_grid.c **** 
 130:Middlewares/lvgl/src/extra/layouts/grid/lv_grid.c **** void lv_obj_set_grid_cell(lv_obj_t * obj, lv_grid_align_t x_align, uint8_t col_pos, uint8_t col_spa
 131:Middlewares/lvgl/src/extra/layouts/grid/lv_grid.c ****                                           lv_grid_align_t y_align, uint8_t row_pos, uint8_t row_spa
 132:Middlewares/lvgl/src/extra/layouts/grid/lv_grid.c **** 
 133:Middlewares/lvgl/src/extra/layouts/grid/lv_grid.c **** {
 134:Middlewares/lvgl/src/extra/layouts/grid/lv_grid.c ****     lv_obj_set_style_grid_cell_column_pos(obj, col_pos, 0);
 135:Middlewares/lvgl/src/extra/layouts/grid/lv_grid.c ****     lv_obj_set_style_grid_cell_row_pos(obj, row_pos, 0);
 136:Middlewares/lvgl/src/extra/layouts/grid/lv_grid.c ****     lv_obj_set_style_grid_cell_x_align(obj, x_align, 0);
 137:Middlewares/lvgl/src/extra/layouts/grid/lv_grid.c ****     lv_obj_set_style_grid_cell_column_span(obj, col_span, 0);
 138:Middlewares/lvgl/src/extra/layouts/grid/lv_grid.c ****     lv_obj_set_style_grid_cell_row_span(obj, row_span, 0);
 139:Middlewares/lvgl/src/extra/layouts/grid/lv_grid.c ****     lv_obj_set_style_grid_cell_y_align(obj, y_align, 0);
 140:Middlewares/lvgl/src/extra/layouts/grid/lv_grid.c **** 
 141:Middlewares/lvgl/src/extra/layouts/grid/lv_grid.c ****     lv_obj_mark_layout_as_dirty(lv_obj_get_parent(obj));
 142:Middlewares/lvgl/src/extra/layouts/grid/lv_grid.c **** }
 143:Middlewares/lvgl/src/extra/layouts/grid/lv_grid.c **** 
 144:Middlewares/lvgl/src/extra/layouts/grid/lv_grid.c **** 
 145:Middlewares/lvgl/src/extra/layouts/grid/lv_grid.c **** void lv_style_set_grid_row_dsc_array(lv_style_t * style, const lv_coord_t value[])
ARM GAS  /tmp/cc3I9fWq.s 			page 4


 146:Middlewares/lvgl/src/extra/layouts/grid/lv_grid.c **** {
 147:Middlewares/lvgl/src/extra/layouts/grid/lv_grid.c ****     lv_style_value_t v = {
 148:Middlewares/lvgl/src/extra/layouts/grid/lv_grid.c ****         .ptr = (const void *)value
 149:Middlewares/lvgl/src/extra/layouts/grid/lv_grid.c ****     };
 150:Middlewares/lvgl/src/extra/layouts/grid/lv_grid.c ****     lv_style_set_prop(style, LV_STYLE_GRID_ROW_DSC_ARRAY, v);
 151:Middlewares/lvgl/src/extra/layouts/grid/lv_grid.c **** }
 152:Middlewares/lvgl/src/extra/layouts/grid/lv_grid.c **** 
 153:Middlewares/lvgl/src/extra/layouts/grid/lv_grid.c **** void lv_style_set_grid_column_dsc_array(lv_style_t * style, const lv_coord_t value[])
 154:Middlewares/lvgl/src/extra/layouts/grid/lv_grid.c **** {
 155:Middlewares/lvgl/src/extra/layouts/grid/lv_grid.c ****     lv_style_value_t v = {
 156:Middlewares/lvgl/src/extra/layouts/grid/lv_grid.c ****         .ptr = (const void *)value
 157:Middlewares/lvgl/src/extra/layouts/grid/lv_grid.c ****     };
 158:Middlewares/lvgl/src/extra/layouts/grid/lv_grid.c ****     lv_style_set_prop(style, LV_STYLE_GRID_COLUMN_DSC_ARRAY, v);
 159:Middlewares/lvgl/src/extra/layouts/grid/lv_grid.c **** }
 160:Middlewares/lvgl/src/extra/layouts/grid/lv_grid.c **** 
 161:Middlewares/lvgl/src/extra/layouts/grid/lv_grid.c **** void lv_style_set_grid_row_align(lv_style_t * style, lv_grid_align_t value)
 162:Middlewares/lvgl/src/extra/layouts/grid/lv_grid.c **** {
 163:Middlewares/lvgl/src/extra/layouts/grid/lv_grid.c ****     lv_style_value_t v = {
 164:Middlewares/lvgl/src/extra/layouts/grid/lv_grid.c ****         .num = (lv_grid_align_t)value
 165:Middlewares/lvgl/src/extra/layouts/grid/lv_grid.c ****     };
 166:Middlewares/lvgl/src/extra/layouts/grid/lv_grid.c ****     lv_style_set_prop(style, LV_STYLE_GRID_ROW_ALIGN, v);
 167:Middlewares/lvgl/src/extra/layouts/grid/lv_grid.c **** }
 168:Middlewares/lvgl/src/extra/layouts/grid/lv_grid.c **** 
 169:Middlewares/lvgl/src/extra/layouts/grid/lv_grid.c **** void lv_style_set_grid_column_align(lv_style_t * style, lv_grid_align_t value)
 170:Middlewares/lvgl/src/extra/layouts/grid/lv_grid.c **** {
 171:Middlewares/lvgl/src/extra/layouts/grid/lv_grid.c ****     lv_style_value_t v = {
 172:Middlewares/lvgl/src/extra/layouts/grid/lv_grid.c ****         .num = (lv_grid_align_t)value
 173:Middlewares/lvgl/src/extra/layouts/grid/lv_grid.c ****     };
 174:Middlewares/lvgl/src/extra/layouts/grid/lv_grid.c ****     lv_style_set_prop(style, LV_STYLE_GRID_COLUMN_ALIGN, v);
 175:Middlewares/lvgl/src/extra/layouts/grid/lv_grid.c **** }
 176:Middlewares/lvgl/src/extra/layouts/grid/lv_grid.c **** 
 177:Middlewares/lvgl/src/extra/layouts/grid/lv_grid.c **** 
 178:Middlewares/lvgl/src/extra/layouts/grid/lv_grid.c **** void lv_style_set_grid_cell_column_pos(lv_style_t * style, lv_coord_t value)
 179:Middlewares/lvgl/src/extra/layouts/grid/lv_grid.c **** {
 180:Middlewares/lvgl/src/extra/layouts/grid/lv_grid.c ****     lv_style_value_t v = {
 181:Middlewares/lvgl/src/extra/layouts/grid/lv_grid.c ****         .num = value
 182:Middlewares/lvgl/src/extra/layouts/grid/lv_grid.c ****     };
 183:Middlewares/lvgl/src/extra/layouts/grid/lv_grid.c ****     lv_style_set_prop(style, LV_STYLE_GRID_CELL_COLUMN_POS, v);
 184:Middlewares/lvgl/src/extra/layouts/grid/lv_grid.c **** }
 185:Middlewares/lvgl/src/extra/layouts/grid/lv_grid.c **** 
 186:Middlewares/lvgl/src/extra/layouts/grid/lv_grid.c **** void lv_style_set_grid_cell_column_span(lv_style_t * style, lv_coord_t value)
 187:Middlewares/lvgl/src/extra/layouts/grid/lv_grid.c **** {
 188:Middlewares/lvgl/src/extra/layouts/grid/lv_grid.c ****     lv_style_value_t v = {
 189:Middlewares/lvgl/src/extra/layouts/grid/lv_grid.c ****         .num = value
 190:Middlewares/lvgl/src/extra/layouts/grid/lv_grid.c ****     };
 191:Middlewares/lvgl/src/extra/layouts/grid/lv_grid.c ****     lv_style_set_prop(style, LV_STYLE_GRID_CELL_COLUMN_SPAN, v);
 192:Middlewares/lvgl/src/extra/layouts/grid/lv_grid.c **** }
 193:Middlewares/lvgl/src/extra/layouts/grid/lv_grid.c **** 
 194:Middlewares/lvgl/src/extra/layouts/grid/lv_grid.c **** void lv_style_set_grid_cell_row_pos(lv_style_t * style, lv_coord_t value)
 195:Middlewares/lvgl/src/extra/layouts/grid/lv_grid.c **** {
 196:Middlewares/lvgl/src/extra/layouts/grid/lv_grid.c ****     lv_style_value_t v = {
 197:Middlewares/lvgl/src/extra/layouts/grid/lv_grid.c ****         .num = value
 198:Middlewares/lvgl/src/extra/layouts/grid/lv_grid.c ****     };
 199:Middlewares/lvgl/src/extra/layouts/grid/lv_grid.c ****     lv_style_set_prop(style, LV_STYLE_GRID_CELL_ROW_POS, v);
 200:Middlewares/lvgl/src/extra/layouts/grid/lv_grid.c **** }
 201:Middlewares/lvgl/src/extra/layouts/grid/lv_grid.c **** 
 202:Middlewares/lvgl/src/extra/layouts/grid/lv_grid.c **** void lv_style_set_grid_cell_row_span(lv_style_t * style, lv_coord_t value)
ARM GAS  /tmp/cc3I9fWq.s 			page 5


 203:Middlewares/lvgl/src/extra/layouts/grid/lv_grid.c **** {
 204:Middlewares/lvgl/src/extra/layouts/grid/lv_grid.c ****     lv_style_value_t v = {
 205:Middlewares/lvgl/src/extra/layouts/grid/lv_grid.c ****         .num = value
 206:Middlewares/lvgl/src/extra/layouts/grid/lv_grid.c ****     };
 207:Middlewares/lvgl/src/extra/layouts/grid/lv_grid.c ****     lv_style_set_prop(style, LV_STYLE_GRID_CELL_ROW_SPAN, v);
 208:Middlewares/lvgl/src/extra/layouts/grid/lv_grid.c **** }
 209:Middlewares/lvgl/src/extra/layouts/grid/lv_grid.c **** 
 210:Middlewares/lvgl/src/extra/layouts/grid/lv_grid.c **** void lv_style_set_grid_cell_x_align(lv_style_t * style, lv_coord_t value)
 211:Middlewares/lvgl/src/extra/layouts/grid/lv_grid.c **** {
 212:Middlewares/lvgl/src/extra/layouts/grid/lv_grid.c ****     lv_style_value_t v = {
 213:Middlewares/lvgl/src/extra/layouts/grid/lv_grid.c ****         .num = value
 214:Middlewares/lvgl/src/extra/layouts/grid/lv_grid.c ****     };
 215:Middlewares/lvgl/src/extra/layouts/grid/lv_grid.c ****     lv_style_set_prop(style, LV_STYLE_GRID_CELL_X_ALIGN, v);
 216:Middlewares/lvgl/src/extra/layouts/grid/lv_grid.c **** }
 217:Middlewares/lvgl/src/extra/layouts/grid/lv_grid.c **** 
 218:Middlewares/lvgl/src/extra/layouts/grid/lv_grid.c **** void lv_style_set_grid_cell_y_align(lv_style_t * style, lv_coord_t value)
 219:Middlewares/lvgl/src/extra/layouts/grid/lv_grid.c **** {
 220:Middlewares/lvgl/src/extra/layouts/grid/lv_grid.c ****     lv_style_value_t v = {
 221:Middlewares/lvgl/src/extra/layouts/grid/lv_grid.c ****         .num = value
 222:Middlewares/lvgl/src/extra/layouts/grid/lv_grid.c ****     };
 223:Middlewares/lvgl/src/extra/layouts/grid/lv_grid.c ****     lv_style_set_prop(style, LV_STYLE_GRID_CELL_Y_ALIGN, v);
 224:Middlewares/lvgl/src/extra/layouts/grid/lv_grid.c **** }
 225:Middlewares/lvgl/src/extra/layouts/grid/lv_grid.c **** 
 226:Middlewares/lvgl/src/extra/layouts/grid/lv_grid.c **** void lv_obj_set_style_grid_row_dsc_array(lv_obj_t * obj, const lv_coord_t value[], lv_style_selecto
 227:Middlewares/lvgl/src/extra/layouts/grid/lv_grid.c **** {
 228:Middlewares/lvgl/src/extra/layouts/grid/lv_grid.c ****     lv_style_value_t v = {
 229:Middlewares/lvgl/src/extra/layouts/grid/lv_grid.c ****         .ptr = (const void *)value
 230:Middlewares/lvgl/src/extra/layouts/grid/lv_grid.c ****     };
 231:Middlewares/lvgl/src/extra/layouts/grid/lv_grid.c ****     lv_obj_set_local_style_prop(obj,LV_STYLE_GRID_ROW_DSC_ARRAY, v, selector);
 232:Middlewares/lvgl/src/extra/layouts/grid/lv_grid.c **** }
 233:Middlewares/lvgl/src/extra/layouts/grid/lv_grid.c **** 
 234:Middlewares/lvgl/src/extra/layouts/grid/lv_grid.c **** void lv_obj_set_style_grid_column_dsc_array(lv_obj_t * obj, const lv_coord_t value[], lv_style_sele
 235:Middlewares/lvgl/src/extra/layouts/grid/lv_grid.c **** {
 236:Middlewares/lvgl/src/extra/layouts/grid/lv_grid.c ****     lv_style_value_t v = {
 237:Middlewares/lvgl/src/extra/layouts/grid/lv_grid.c ****         .ptr = (const void *)value
 238:Middlewares/lvgl/src/extra/layouts/grid/lv_grid.c ****     };
 239:Middlewares/lvgl/src/extra/layouts/grid/lv_grid.c ****     lv_obj_set_local_style_prop(obj, LV_STYLE_GRID_COLUMN_DSC_ARRAY, v, selector);
 240:Middlewares/lvgl/src/extra/layouts/grid/lv_grid.c **** }
 241:Middlewares/lvgl/src/extra/layouts/grid/lv_grid.c **** 
 242:Middlewares/lvgl/src/extra/layouts/grid/lv_grid.c **** 
 243:Middlewares/lvgl/src/extra/layouts/grid/lv_grid.c **** void lv_obj_set_style_grid_row_align(lv_obj_t * obj, lv_grid_align_t value, lv_style_selector_t sel
 244:Middlewares/lvgl/src/extra/layouts/grid/lv_grid.c **** {
 245:Middlewares/lvgl/src/extra/layouts/grid/lv_grid.c ****     lv_style_value_t v = {
 246:Middlewares/lvgl/src/extra/layouts/grid/lv_grid.c ****         .num = (int32_t) value
 247:Middlewares/lvgl/src/extra/layouts/grid/lv_grid.c ****     };
 248:Middlewares/lvgl/src/extra/layouts/grid/lv_grid.c ****     lv_obj_set_local_style_prop(obj, LV_STYLE_GRID_ROW_ALIGN, v, selector);
 249:Middlewares/lvgl/src/extra/layouts/grid/lv_grid.c **** }
 250:Middlewares/lvgl/src/extra/layouts/grid/lv_grid.c **** 
 251:Middlewares/lvgl/src/extra/layouts/grid/lv_grid.c **** void lv_obj_set_style_grid_column_align(lv_obj_t * obj, lv_grid_align_t value, lv_style_selector_t 
 252:Middlewares/lvgl/src/extra/layouts/grid/lv_grid.c **** {
 253:Middlewares/lvgl/src/extra/layouts/grid/lv_grid.c ****     lv_style_value_t v = {
 254:Middlewares/lvgl/src/extra/layouts/grid/lv_grid.c ****         .num = (int32_t) value
 255:Middlewares/lvgl/src/extra/layouts/grid/lv_grid.c ****     };
 256:Middlewares/lvgl/src/extra/layouts/grid/lv_grid.c ****     lv_obj_set_local_style_prop(obj, LV_STYLE_GRID_COLUMN_ALIGN, v, selector);
 257:Middlewares/lvgl/src/extra/layouts/grid/lv_grid.c **** }
 258:Middlewares/lvgl/src/extra/layouts/grid/lv_grid.c **** 
 259:Middlewares/lvgl/src/extra/layouts/grid/lv_grid.c **** 
ARM GAS  /tmp/cc3I9fWq.s 			page 6


 260:Middlewares/lvgl/src/extra/layouts/grid/lv_grid.c **** void lv_obj_set_style_grid_cell_column_pos(lv_obj_t * obj, lv_coord_t value, lv_style_selector_t se
 261:Middlewares/lvgl/src/extra/layouts/grid/lv_grid.c **** {
 262:Middlewares/lvgl/src/extra/layouts/grid/lv_grid.c ****     lv_style_value_t v = {
 263:Middlewares/lvgl/src/extra/layouts/grid/lv_grid.c ****         .num = value
 264:Middlewares/lvgl/src/extra/layouts/grid/lv_grid.c ****     };
 265:Middlewares/lvgl/src/extra/layouts/grid/lv_grid.c ****     lv_obj_set_local_style_prop(obj,LV_STYLE_GRID_CELL_COLUMN_POS, v, selector);
 266:Middlewares/lvgl/src/extra/layouts/grid/lv_grid.c **** }
 267:Middlewares/lvgl/src/extra/layouts/grid/lv_grid.c **** 
 268:Middlewares/lvgl/src/extra/layouts/grid/lv_grid.c **** void lv_obj_set_style_grid_cell_column_span(lv_obj_t * obj, lv_coord_t value, lv_style_selector_t s
 269:Middlewares/lvgl/src/extra/layouts/grid/lv_grid.c **** {
 270:Middlewares/lvgl/src/extra/layouts/grid/lv_grid.c ****     lv_style_value_t v = {
 271:Middlewares/lvgl/src/extra/layouts/grid/lv_grid.c ****         .num = value
 272:Middlewares/lvgl/src/extra/layouts/grid/lv_grid.c ****     };
 273:Middlewares/lvgl/src/extra/layouts/grid/lv_grid.c ****     lv_obj_set_local_style_prop(obj,LV_STYLE_GRID_CELL_COLUMN_SPAN, v, selector);
 274:Middlewares/lvgl/src/extra/layouts/grid/lv_grid.c **** }
 275:Middlewares/lvgl/src/extra/layouts/grid/lv_grid.c **** 
 276:Middlewares/lvgl/src/extra/layouts/grid/lv_grid.c **** void lv_obj_set_style_grid_cell_row_pos(lv_obj_t * obj, lv_coord_t value, lv_style_selector_t selec
 277:Middlewares/lvgl/src/extra/layouts/grid/lv_grid.c **** {
 278:Middlewares/lvgl/src/extra/layouts/grid/lv_grid.c ****     lv_style_value_t v = {
 279:Middlewares/lvgl/src/extra/layouts/grid/lv_grid.c ****         .num = value
 280:Middlewares/lvgl/src/extra/layouts/grid/lv_grid.c ****     };
 281:Middlewares/lvgl/src/extra/layouts/grid/lv_grid.c ****     lv_obj_set_local_style_prop(obj,LV_STYLE_GRID_CELL_ROW_POS, v, selector);
 282:Middlewares/lvgl/src/extra/layouts/grid/lv_grid.c **** }
 283:Middlewares/lvgl/src/extra/layouts/grid/lv_grid.c **** 
 284:Middlewares/lvgl/src/extra/layouts/grid/lv_grid.c **** void lv_obj_set_style_grid_cell_row_span(lv_obj_t * obj, lv_coord_t value, lv_style_selector_t sele
 285:Middlewares/lvgl/src/extra/layouts/grid/lv_grid.c **** {
 286:Middlewares/lvgl/src/extra/layouts/grid/lv_grid.c ****     lv_style_value_t v = {
 287:Middlewares/lvgl/src/extra/layouts/grid/lv_grid.c ****         .num = value
 288:Middlewares/lvgl/src/extra/layouts/grid/lv_grid.c ****     };
 289:Middlewares/lvgl/src/extra/layouts/grid/lv_grid.c ****     lv_obj_set_local_style_prop(obj, LV_STYLE_GRID_CELL_ROW_SPAN, v, selector);
 290:Middlewares/lvgl/src/extra/layouts/grid/lv_grid.c **** }
 291:Middlewares/lvgl/src/extra/layouts/grid/lv_grid.c **** 
 292:Middlewares/lvgl/src/extra/layouts/grid/lv_grid.c **** void lv_obj_set_style_grid_cell_x_align(lv_obj_t * obj, lv_coord_t value, lv_style_selector_t selec
 293:Middlewares/lvgl/src/extra/layouts/grid/lv_grid.c **** {
 294:Middlewares/lvgl/src/extra/layouts/grid/lv_grid.c ****     lv_style_value_t v = {
 295:Middlewares/lvgl/src/extra/layouts/grid/lv_grid.c ****         .num = value
 296:Middlewares/lvgl/src/extra/layouts/grid/lv_grid.c ****     };
 297:Middlewares/lvgl/src/extra/layouts/grid/lv_grid.c ****     lv_obj_set_local_style_prop(obj, LV_STYLE_GRID_CELL_X_ALIGN, v, selector);
 298:Middlewares/lvgl/src/extra/layouts/grid/lv_grid.c **** }
 299:Middlewares/lvgl/src/extra/layouts/grid/lv_grid.c **** 
 300:Middlewares/lvgl/src/extra/layouts/grid/lv_grid.c **** void lv_obj_set_style_grid_cell_y_align(lv_obj_t * obj, lv_coord_t value, lv_style_selector_t selec
 301:Middlewares/lvgl/src/extra/layouts/grid/lv_grid.c **** {
 302:Middlewares/lvgl/src/extra/layouts/grid/lv_grid.c ****     lv_style_value_t v = {
 303:Middlewares/lvgl/src/extra/layouts/grid/lv_grid.c ****         .num = value
 304:Middlewares/lvgl/src/extra/layouts/grid/lv_grid.c ****     };
 305:Middlewares/lvgl/src/extra/layouts/grid/lv_grid.c ****     lv_obj_set_local_style_prop(obj, LV_STYLE_GRID_CELL_Y_ALIGN, v, selector);
 306:Middlewares/lvgl/src/extra/layouts/grid/lv_grid.c **** }
 307:Middlewares/lvgl/src/extra/layouts/grid/lv_grid.c **** 
 308:Middlewares/lvgl/src/extra/layouts/grid/lv_grid.c **** 
 309:Middlewares/lvgl/src/extra/layouts/grid/lv_grid.c **** /**********************
 310:Middlewares/lvgl/src/extra/layouts/grid/lv_grid.c ****  *   STATIC FUNCTIONS
 311:Middlewares/lvgl/src/extra/layouts/grid/lv_grid.c ****  **********************/
 312:Middlewares/lvgl/src/extra/layouts/grid/lv_grid.c **** 
 313:Middlewares/lvgl/src/extra/layouts/grid/lv_grid.c **** static void grid_update(lv_obj_t * cont, void * user_data)
 314:Middlewares/lvgl/src/extra/layouts/grid/lv_grid.c **** {
 315:Middlewares/lvgl/src/extra/layouts/grid/lv_grid.c ****     LV_LOG_INFO("update %p container", cont);
 316:Middlewares/lvgl/src/extra/layouts/grid/lv_grid.c ****     LV_UNUSED(user_data);
ARM GAS  /tmp/cc3I9fWq.s 			page 7


 317:Middlewares/lvgl/src/extra/layouts/grid/lv_grid.c **** 
 318:Middlewares/lvgl/src/extra/layouts/grid/lv_grid.c ****     const lv_coord_t * col_templ = get_col_dsc(cont);
 319:Middlewares/lvgl/src/extra/layouts/grid/lv_grid.c ****     const lv_coord_t * row_templ = get_row_dsc(cont);
 320:Middlewares/lvgl/src/extra/layouts/grid/lv_grid.c ****     if(col_templ == NULL || row_templ == NULL) return;
 321:Middlewares/lvgl/src/extra/layouts/grid/lv_grid.c **** 
 322:Middlewares/lvgl/src/extra/layouts/grid/lv_grid.c ****     _lv_grid_calc_t c;
 323:Middlewares/lvgl/src/extra/layouts/grid/lv_grid.c ****     calc(cont, &c);
 324:Middlewares/lvgl/src/extra/layouts/grid/lv_grid.c **** 
 325:Middlewares/lvgl/src/extra/layouts/grid/lv_grid.c ****     item_repos_hint_t hint;
 326:Middlewares/lvgl/src/extra/layouts/grid/lv_grid.c ****     lv_memset_00(&hint, sizeof(hint));
 327:Middlewares/lvgl/src/extra/layouts/grid/lv_grid.c **** 
 328:Middlewares/lvgl/src/extra/layouts/grid/lv_grid.c ****     /*Calculate the grids absolute x and y coordinates.
 329:Middlewares/lvgl/src/extra/layouts/grid/lv_grid.c ****      *It will be used as helper during item repositioning to avoid calculating this value for every
 330:Middlewares/lvgl/src/extra/layouts/grid/lv_grid.c ****     lv_coord_t border_widt = lv_obj_get_style_border_width(cont, LV_PART_MAIN);
 331:Middlewares/lvgl/src/extra/layouts/grid/lv_grid.c ****     lv_coord_t pad_left = lv_obj_get_style_pad_left(cont, LV_PART_MAIN) + border_widt;
 332:Middlewares/lvgl/src/extra/layouts/grid/lv_grid.c ****     lv_coord_t pad_top = lv_obj_get_style_pad_top(cont, LV_PART_MAIN) + border_widt;
 333:Middlewares/lvgl/src/extra/layouts/grid/lv_grid.c ****     hint.grid_abs.x = pad_left + cont->coords.x1 - lv_obj_get_scroll_x(cont);
 334:Middlewares/lvgl/src/extra/layouts/grid/lv_grid.c ****     hint.grid_abs.y = pad_top + cont->coords.y1 - lv_obj_get_scroll_y(cont);
 335:Middlewares/lvgl/src/extra/layouts/grid/lv_grid.c **** 
 336:Middlewares/lvgl/src/extra/layouts/grid/lv_grid.c ****     uint32_t i;
 337:Middlewares/lvgl/src/extra/layouts/grid/lv_grid.c ****     for(i = 0; i < cont->spec_attr->child_cnt; i++) {
 338:Middlewares/lvgl/src/extra/layouts/grid/lv_grid.c ****         lv_obj_t * item = cont->spec_attr->children[i];
 339:Middlewares/lvgl/src/extra/layouts/grid/lv_grid.c ****         item_repos(item, &c, &hint);
 340:Middlewares/lvgl/src/extra/layouts/grid/lv_grid.c ****     }
 341:Middlewares/lvgl/src/extra/layouts/grid/lv_grid.c ****     calc_free(&c);
 342:Middlewares/lvgl/src/extra/layouts/grid/lv_grid.c **** 
 343:Middlewares/lvgl/src/extra/layouts/grid/lv_grid.c ****     lv_coord_t w_set = lv_obj_get_style_width(cont, LV_PART_MAIN);
 344:Middlewares/lvgl/src/extra/layouts/grid/lv_grid.c ****     lv_coord_t h_set = lv_obj_get_style_height(cont, LV_PART_MAIN);
 345:Middlewares/lvgl/src/extra/layouts/grid/lv_grid.c ****     if(w_set == LV_SIZE_CONTENT || h_set == LV_SIZE_CONTENT) {
 346:Middlewares/lvgl/src/extra/layouts/grid/lv_grid.c ****         lv_obj_refr_size(cont);
 347:Middlewares/lvgl/src/extra/layouts/grid/lv_grid.c ****     }
 348:Middlewares/lvgl/src/extra/layouts/grid/lv_grid.c **** 
 349:Middlewares/lvgl/src/extra/layouts/grid/lv_grid.c ****     lv_event_send(cont, LV_EVENT_LAYOUT_CHANGED, NULL);
 350:Middlewares/lvgl/src/extra/layouts/grid/lv_grid.c **** 
 351:Middlewares/lvgl/src/extra/layouts/grid/lv_grid.c ****     LV_TRACE_LAYOUT("finished");
 352:Middlewares/lvgl/src/extra/layouts/grid/lv_grid.c **** }
 353:Middlewares/lvgl/src/extra/layouts/grid/lv_grid.c **** 
 354:Middlewares/lvgl/src/extra/layouts/grid/lv_grid.c **** /**
 355:Middlewares/lvgl/src/extra/layouts/grid/lv_grid.c ****  * Calculate the grid cells coordinates
 356:Middlewares/lvgl/src/extra/layouts/grid/lv_grid.c ****  * @param cont an object that has a grid
 357:Middlewares/lvgl/src/extra/layouts/grid/lv_grid.c ****  * @param calc store the calculated cells sizes here
 358:Middlewares/lvgl/src/extra/layouts/grid/lv_grid.c ****  * @note `_lv_grid_calc_free(calc_out)` needs to be called when `calc_out` is not needed anymore
 359:Middlewares/lvgl/src/extra/layouts/grid/lv_grid.c ****  */
 360:Middlewares/lvgl/src/extra/layouts/grid/lv_grid.c **** static void calc(lv_obj_t * cont, _lv_grid_calc_t * calc_out)
 361:Middlewares/lvgl/src/extra/layouts/grid/lv_grid.c **** {
 362:Middlewares/lvgl/src/extra/layouts/grid/lv_grid.c ****     if(lv_obj_get_child(cont, 0) == NULL) {
 363:Middlewares/lvgl/src/extra/layouts/grid/lv_grid.c ****         lv_memset_00(calc_out, sizeof(_lv_grid_calc_t));
 364:Middlewares/lvgl/src/extra/layouts/grid/lv_grid.c ****         return;
 365:Middlewares/lvgl/src/extra/layouts/grid/lv_grid.c ****     }
 366:Middlewares/lvgl/src/extra/layouts/grid/lv_grid.c **** 
 367:Middlewares/lvgl/src/extra/layouts/grid/lv_grid.c ****     calc_rows(cont, calc_out);
 368:Middlewares/lvgl/src/extra/layouts/grid/lv_grid.c ****     calc_cols(cont, calc_out);
 369:Middlewares/lvgl/src/extra/layouts/grid/lv_grid.c **** 
 370:Middlewares/lvgl/src/extra/layouts/grid/lv_grid.c ****     lv_coord_t col_gap = lv_obj_get_style_pad_column(cont, LV_PART_MAIN);
 371:Middlewares/lvgl/src/extra/layouts/grid/lv_grid.c ****     lv_coord_t row_gap = lv_obj_get_style_pad_row(cont, LV_PART_MAIN);
 372:Middlewares/lvgl/src/extra/layouts/grid/lv_grid.c **** 
 373:Middlewares/lvgl/src/extra/layouts/grid/lv_grid.c ****     bool rev = lv_obj_get_style_base_dir(cont, LV_PART_MAIN) == LV_BASE_DIR_RTL ? true : false;
ARM GAS  /tmp/cc3I9fWq.s 			page 8


 374:Middlewares/lvgl/src/extra/layouts/grid/lv_grid.c **** 
 375:Middlewares/lvgl/src/extra/layouts/grid/lv_grid.c ****     lv_coord_t w_set = lv_obj_get_style_width(cont, LV_PART_MAIN);
 376:Middlewares/lvgl/src/extra/layouts/grid/lv_grid.c ****     lv_coord_t h_set = lv_obj_get_style_height(cont, LV_PART_MAIN);
 377:Middlewares/lvgl/src/extra/layouts/grid/lv_grid.c ****     bool auto_w = (w_set == LV_SIZE_CONTENT && !cont->w_layout) ? true : false;
 378:Middlewares/lvgl/src/extra/layouts/grid/lv_grid.c ****     lv_coord_t cont_w = lv_obj_get_content_width(cont);
 379:Middlewares/lvgl/src/extra/layouts/grid/lv_grid.c ****     calc_out->grid_w = grid_align(cont_w, auto_w, get_grid_col_align(cont), col_gap, calc_out->col_
 380:Middlewares/lvgl/src/extra/layouts/grid/lv_grid.c **** 
 381:Middlewares/lvgl/src/extra/layouts/grid/lv_grid.c ****     bool auto_h = (h_set == LV_SIZE_CONTENT && !cont->h_layout) ? true : false;
 382:Middlewares/lvgl/src/extra/layouts/grid/lv_grid.c ****     lv_coord_t cont_h = lv_obj_get_content_height(cont);
 383:Middlewares/lvgl/src/extra/layouts/grid/lv_grid.c ****     calc_out->grid_h = grid_align(cont_h, auto_h, get_grid_row_align(cont), row_gap, calc_out->row_
 384:Middlewares/lvgl/src/extra/layouts/grid/lv_grid.c **** 
 385:Middlewares/lvgl/src/extra/layouts/grid/lv_grid.c ****     LV_ASSERT_MEM_INTEGRITY();
 386:Middlewares/lvgl/src/extra/layouts/grid/lv_grid.c **** }
 387:Middlewares/lvgl/src/extra/layouts/grid/lv_grid.c **** 
 388:Middlewares/lvgl/src/extra/layouts/grid/lv_grid.c **** /**
 389:Middlewares/lvgl/src/extra/layouts/grid/lv_grid.c ****  * Free the a grid calculation's data
 390:Middlewares/lvgl/src/extra/layouts/grid/lv_grid.c ****  * @param calc pointer to the calculated gtrid cell coordinates
 391:Middlewares/lvgl/src/extra/layouts/grid/lv_grid.c ****  */
 392:Middlewares/lvgl/src/extra/layouts/grid/lv_grid.c **** static void calc_free(_lv_grid_calc_t * calc)
 393:Middlewares/lvgl/src/extra/layouts/grid/lv_grid.c **** {
 394:Middlewares/lvgl/src/extra/layouts/grid/lv_grid.c ****     lv_mem_buf_release(calc->x);
 395:Middlewares/lvgl/src/extra/layouts/grid/lv_grid.c ****     lv_mem_buf_release(calc->y);
 396:Middlewares/lvgl/src/extra/layouts/grid/lv_grid.c ****     lv_mem_buf_release(calc->w);
 397:Middlewares/lvgl/src/extra/layouts/grid/lv_grid.c ****     lv_mem_buf_release(calc->h);
 398:Middlewares/lvgl/src/extra/layouts/grid/lv_grid.c **** }
 399:Middlewares/lvgl/src/extra/layouts/grid/lv_grid.c **** 
 400:Middlewares/lvgl/src/extra/layouts/grid/lv_grid.c **** static void calc_cols(lv_obj_t * cont, _lv_grid_calc_t * c)
 401:Middlewares/lvgl/src/extra/layouts/grid/lv_grid.c **** {
 402:Middlewares/lvgl/src/extra/layouts/grid/lv_grid.c ****     const lv_coord_t * col_templ = get_col_dsc(cont);
 403:Middlewares/lvgl/src/extra/layouts/grid/lv_grid.c ****     lv_coord_t cont_w = lv_obj_get_content_width(cont);
 404:Middlewares/lvgl/src/extra/layouts/grid/lv_grid.c **** 
 405:Middlewares/lvgl/src/extra/layouts/grid/lv_grid.c ****     c->col_num = count_tracks(col_templ);
 406:Middlewares/lvgl/src/extra/layouts/grid/lv_grid.c ****     c->x = lv_mem_buf_get(sizeof(lv_coord_t) * c->col_num);
 407:Middlewares/lvgl/src/extra/layouts/grid/lv_grid.c ****     c->w = lv_mem_buf_get(sizeof(lv_coord_t) * c->col_num);
 408:Middlewares/lvgl/src/extra/layouts/grid/lv_grid.c **** 
 409:Middlewares/lvgl/src/extra/layouts/grid/lv_grid.c ****     /*Set sizes for CONTENT cells*/
 410:Middlewares/lvgl/src/extra/layouts/grid/lv_grid.c ****     uint32_t i;
 411:Middlewares/lvgl/src/extra/layouts/grid/lv_grid.c ****     for(i = 0; i < c->col_num; i++) {
 412:Middlewares/lvgl/src/extra/layouts/grid/lv_grid.c ****         lv_coord_t size = LV_COORD_MIN;
 413:Middlewares/lvgl/src/extra/layouts/grid/lv_grid.c ****         if(IS_CONTENT(col_templ[i])) {
 414:Middlewares/lvgl/src/extra/layouts/grid/lv_grid.c ****             /*Check the size of children of this cell*/
 415:Middlewares/lvgl/src/extra/layouts/grid/lv_grid.c ****             uint32_t ci;
 416:Middlewares/lvgl/src/extra/layouts/grid/lv_grid.c ****             for(ci = 0; ci < lv_obj_get_child_cnt(cont); ci++) {
 417:Middlewares/lvgl/src/extra/layouts/grid/lv_grid.c ****                 lv_obj_t * item = lv_obj_get_child(cont, ci);
 418:Middlewares/lvgl/src/extra/layouts/grid/lv_grid.c ****                 if(lv_obj_has_flag_any(item, LV_OBJ_FLAG_IGNORE_LAYOUT | LV_OBJ_FLAG_HIDDEN | LV_OB
 419:Middlewares/lvgl/src/extra/layouts/grid/lv_grid.c ****                 uint32_t col_span = get_col_span(item);
 420:Middlewares/lvgl/src/extra/layouts/grid/lv_grid.c ****                 if(col_span != 1) continue;
 421:Middlewares/lvgl/src/extra/layouts/grid/lv_grid.c **** 
 422:Middlewares/lvgl/src/extra/layouts/grid/lv_grid.c ****                 uint32_t col_pos = get_col_pos(item);
 423:Middlewares/lvgl/src/extra/layouts/grid/lv_grid.c ****                 if(col_pos != i) continue;
 424:Middlewares/lvgl/src/extra/layouts/grid/lv_grid.c **** 
 425:Middlewares/lvgl/src/extra/layouts/grid/lv_grid.c ****                 size = LV_MAX(size, lv_obj_get_width(item));
 426:Middlewares/lvgl/src/extra/layouts/grid/lv_grid.c ****             }
 427:Middlewares/lvgl/src/extra/layouts/grid/lv_grid.c ****             if(size >= 0) c->w[i] = size;
 428:Middlewares/lvgl/src/extra/layouts/grid/lv_grid.c ****             else c->w[i] = 0;
 429:Middlewares/lvgl/src/extra/layouts/grid/lv_grid.c ****         }
 430:Middlewares/lvgl/src/extra/layouts/grid/lv_grid.c ****     }
ARM GAS  /tmp/cc3I9fWq.s 			page 9


 431:Middlewares/lvgl/src/extra/layouts/grid/lv_grid.c **** 
 432:Middlewares/lvgl/src/extra/layouts/grid/lv_grid.c ****     uint32_t col_fr_cnt = 0;
 433:Middlewares/lvgl/src/extra/layouts/grid/lv_grid.c ****     lv_coord_t grid_w = 0;
 434:Middlewares/lvgl/src/extra/layouts/grid/lv_grid.c **** 
 435:Middlewares/lvgl/src/extra/layouts/grid/lv_grid.c ****     for(i = 0; i < c->col_num; i++) {
 436:Middlewares/lvgl/src/extra/layouts/grid/lv_grid.c ****         lv_coord_t x = col_templ[i];
 437:Middlewares/lvgl/src/extra/layouts/grid/lv_grid.c ****         if(IS_FR(x)) {
 438:Middlewares/lvgl/src/extra/layouts/grid/lv_grid.c ****             col_fr_cnt += GET_FR(x);
 439:Middlewares/lvgl/src/extra/layouts/grid/lv_grid.c ****         }
 440:Middlewares/lvgl/src/extra/layouts/grid/lv_grid.c ****         else if (IS_CONTENT(x)) {
 441:Middlewares/lvgl/src/extra/layouts/grid/lv_grid.c ****             grid_w += c->w[i];
 442:Middlewares/lvgl/src/extra/layouts/grid/lv_grid.c ****         }
 443:Middlewares/lvgl/src/extra/layouts/grid/lv_grid.c ****         else {
 444:Middlewares/lvgl/src/extra/layouts/grid/lv_grid.c ****             c->w[i] = x;
 445:Middlewares/lvgl/src/extra/layouts/grid/lv_grid.c ****             grid_w += x;
 446:Middlewares/lvgl/src/extra/layouts/grid/lv_grid.c ****         }
 447:Middlewares/lvgl/src/extra/layouts/grid/lv_grid.c ****     }
 448:Middlewares/lvgl/src/extra/layouts/grid/lv_grid.c **** 
 449:Middlewares/lvgl/src/extra/layouts/grid/lv_grid.c ****     lv_coord_t col_gap = lv_obj_get_style_pad_column(cont, LV_PART_MAIN);
 450:Middlewares/lvgl/src/extra/layouts/grid/lv_grid.c ****     cont_w -= col_gap * (c->col_num - 1);
 451:Middlewares/lvgl/src/extra/layouts/grid/lv_grid.c ****     lv_coord_t free_w = cont_w - grid_w;
 452:Middlewares/lvgl/src/extra/layouts/grid/lv_grid.c ****     if(free_w < 0) free_w = 0;
 453:Middlewares/lvgl/src/extra/layouts/grid/lv_grid.c **** 
 454:Middlewares/lvgl/src/extra/layouts/grid/lv_grid.c ****     int32_t last_fr_i = -1;
 455:Middlewares/lvgl/src/extra/layouts/grid/lv_grid.c ****     int32_t last_fr_x = 0;
 456:Middlewares/lvgl/src/extra/layouts/grid/lv_grid.c ****     for(i = 0; i < c->col_num; i++) {
 457:Middlewares/lvgl/src/extra/layouts/grid/lv_grid.c ****         lv_coord_t x = col_templ[i];
 458:Middlewares/lvgl/src/extra/layouts/grid/lv_grid.c ****         if(IS_FR(x)) {
 459:Middlewares/lvgl/src/extra/layouts/grid/lv_grid.c ****             lv_coord_t f = GET_FR(x);
 460:Middlewares/lvgl/src/extra/layouts/grid/lv_grid.c ****             c->w[i] = (free_w * f) / col_fr_cnt;
 461:Middlewares/lvgl/src/extra/layouts/grid/lv_grid.c ****             last_fr_i = i;
 462:Middlewares/lvgl/src/extra/layouts/grid/lv_grid.c ****             last_fr_x = f;
 463:Middlewares/lvgl/src/extra/layouts/grid/lv_grid.c ****         }
 464:Middlewares/lvgl/src/extra/layouts/grid/lv_grid.c ****     }
 465:Middlewares/lvgl/src/extra/layouts/grid/lv_grid.c **** 
 466:Middlewares/lvgl/src/extra/layouts/grid/lv_grid.c ****     /*To avoid rounding errors set the last FR track to the remaining size */
 467:Middlewares/lvgl/src/extra/layouts/grid/lv_grid.c ****     if(last_fr_i >= 0) {
 468:Middlewares/lvgl/src/extra/layouts/grid/lv_grid.c ****     	c->w[last_fr_i] = free_w - ((free_w * (col_fr_cnt - last_fr_x)) / col_fr_cnt);
 469:Middlewares/lvgl/src/extra/layouts/grid/lv_grid.c ****     }
 470:Middlewares/lvgl/src/extra/layouts/grid/lv_grid.c **** }
 471:Middlewares/lvgl/src/extra/layouts/grid/lv_grid.c **** 
 472:Middlewares/lvgl/src/extra/layouts/grid/lv_grid.c **** static void calc_rows(lv_obj_t * cont, _lv_grid_calc_t * c)
 473:Middlewares/lvgl/src/extra/layouts/grid/lv_grid.c **** {
 474:Middlewares/lvgl/src/extra/layouts/grid/lv_grid.c ****     uint32_t i;
 475:Middlewares/lvgl/src/extra/layouts/grid/lv_grid.c ****     const lv_coord_t * row_templ = get_row_dsc(cont);
 476:Middlewares/lvgl/src/extra/layouts/grid/lv_grid.c ****     c->row_num = count_tracks(row_templ);
 477:Middlewares/lvgl/src/extra/layouts/grid/lv_grid.c ****     c->y = lv_mem_buf_get(sizeof(lv_coord_t) * c->row_num);
 478:Middlewares/lvgl/src/extra/layouts/grid/lv_grid.c ****     c->h = lv_mem_buf_get(sizeof(lv_coord_t) * c->row_num);
 479:Middlewares/lvgl/src/extra/layouts/grid/lv_grid.c ****     /*Set sizes for CONTENT cells*/
 480:Middlewares/lvgl/src/extra/layouts/grid/lv_grid.c ****     for(i = 0; i < c->row_num; i++) {
 481:Middlewares/lvgl/src/extra/layouts/grid/lv_grid.c ****         lv_coord_t size = LV_COORD_MIN;
 482:Middlewares/lvgl/src/extra/layouts/grid/lv_grid.c ****         if(IS_CONTENT(row_templ[i])) {
 483:Middlewares/lvgl/src/extra/layouts/grid/lv_grid.c ****             /*Check the size of children of this cell*/
 484:Middlewares/lvgl/src/extra/layouts/grid/lv_grid.c ****             uint32_t ci;
 485:Middlewares/lvgl/src/extra/layouts/grid/lv_grid.c ****             for(ci = 0; ci < lv_obj_get_child_cnt(cont); ci++) {
 486:Middlewares/lvgl/src/extra/layouts/grid/lv_grid.c ****                 lv_obj_t * item = lv_obj_get_child(cont, ci);
 487:Middlewares/lvgl/src/extra/layouts/grid/lv_grid.c ****                 if(lv_obj_has_flag_any(item, LV_OBJ_FLAG_IGNORE_LAYOUT | LV_OBJ_FLAG_HIDDEN | LV_OB
ARM GAS  /tmp/cc3I9fWq.s 			page 10


 488:Middlewares/lvgl/src/extra/layouts/grid/lv_grid.c ****                 uint32_t row_span = get_row_span(item);
 489:Middlewares/lvgl/src/extra/layouts/grid/lv_grid.c ****                 if(row_span != 1) continue;
 490:Middlewares/lvgl/src/extra/layouts/grid/lv_grid.c **** 
 491:Middlewares/lvgl/src/extra/layouts/grid/lv_grid.c ****                 uint32_t row_pos = get_row_pos(item);
 492:Middlewares/lvgl/src/extra/layouts/grid/lv_grid.c ****                 if(row_pos != i) continue;
 493:Middlewares/lvgl/src/extra/layouts/grid/lv_grid.c **** 
 494:Middlewares/lvgl/src/extra/layouts/grid/lv_grid.c ****                 size = LV_MAX(size, lv_obj_get_height(item));
 495:Middlewares/lvgl/src/extra/layouts/grid/lv_grid.c ****             }
 496:Middlewares/lvgl/src/extra/layouts/grid/lv_grid.c ****             if(size >= 0) c->h[i] = size;
 497:Middlewares/lvgl/src/extra/layouts/grid/lv_grid.c ****             else c->h[i] = 0;
 498:Middlewares/lvgl/src/extra/layouts/grid/lv_grid.c ****         }
 499:Middlewares/lvgl/src/extra/layouts/grid/lv_grid.c ****     }
 500:Middlewares/lvgl/src/extra/layouts/grid/lv_grid.c **** 
 501:Middlewares/lvgl/src/extra/layouts/grid/lv_grid.c ****     uint32_t row_fr_cnt = 0;
 502:Middlewares/lvgl/src/extra/layouts/grid/lv_grid.c ****     lv_coord_t grid_h = 0;
 503:Middlewares/lvgl/src/extra/layouts/grid/lv_grid.c **** 
 504:Middlewares/lvgl/src/extra/layouts/grid/lv_grid.c ****     for(i = 0; i < c->row_num; i++) {
 505:Middlewares/lvgl/src/extra/layouts/grid/lv_grid.c ****         lv_coord_t x = row_templ[i];
 506:Middlewares/lvgl/src/extra/layouts/grid/lv_grid.c ****         if(IS_FR(x)) {
 507:Middlewares/lvgl/src/extra/layouts/grid/lv_grid.c ****             row_fr_cnt += GET_FR(x);
 508:Middlewares/lvgl/src/extra/layouts/grid/lv_grid.c ****         } else if (IS_CONTENT(x)) {
 509:Middlewares/lvgl/src/extra/layouts/grid/lv_grid.c ****             grid_h += c->h[i];
 510:Middlewares/lvgl/src/extra/layouts/grid/lv_grid.c ****         } else {
 511:Middlewares/lvgl/src/extra/layouts/grid/lv_grid.c ****             c->h[i] = x;
 512:Middlewares/lvgl/src/extra/layouts/grid/lv_grid.c ****             grid_h += x;
 513:Middlewares/lvgl/src/extra/layouts/grid/lv_grid.c ****         }
 514:Middlewares/lvgl/src/extra/layouts/grid/lv_grid.c ****     }
 515:Middlewares/lvgl/src/extra/layouts/grid/lv_grid.c **** 
 516:Middlewares/lvgl/src/extra/layouts/grid/lv_grid.c **** 
 517:Middlewares/lvgl/src/extra/layouts/grid/lv_grid.c ****     lv_coord_t row_gap = lv_obj_get_style_pad_row(cont, LV_PART_MAIN);
 518:Middlewares/lvgl/src/extra/layouts/grid/lv_grid.c ****     lv_coord_t cont_h = lv_obj_get_content_height(cont) - row_gap * (c->row_num - 1);
 519:Middlewares/lvgl/src/extra/layouts/grid/lv_grid.c ****     lv_coord_t free_h = cont_h - grid_h;
 520:Middlewares/lvgl/src/extra/layouts/grid/lv_grid.c ****     if(free_h < 0) free_h = 0;
 521:Middlewares/lvgl/src/extra/layouts/grid/lv_grid.c **** 
 522:Middlewares/lvgl/src/extra/layouts/grid/lv_grid.c ****     int32_t last_fr_i = -1;
 523:Middlewares/lvgl/src/extra/layouts/grid/lv_grid.c ****     int32_t last_fr_x = 0;
 524:Middlewares/lvgl/src/extra/layouts/grid/lv_grid.c ****     for(i = 0; i < c->row_num; i++) {
 525:Middlewares/lvgl/src/extra/layouts/grid/lv_grid.c ****         lv_coord_t x = row_templ[i];
 526:Middlewares/lvgl/src/extra/layouts/grid/lv_grid.c ****         if(IS_FR(x)) {
 527:Middlewares/lvgl/src/extra/layouts/grid/lv_grid.c ****             lv_coord_t f = GET_FR(x);
 528:Middlewares/lvgl/src/extra/layouts/grid/lv_grid.c ****             c->h[i] = (free_h * f) / row_fr_cnt;
 529:Middlewares/lvgl/src/extra/layouts/grid/lv_grid.c ****         }
 530:Middlewares/lvgl/src/extra/layouts/grid/lv_grid.c ****     }
 531:Middlewares/lvgl/src/extra/layouts/grid/lv_grid.c **** 
 532:Middlewares/lvgl/src/extra/layouts/grid/lv_grid.c ****     /*To avoid rounding errors set the last FR track to the remaining size */
 533:Middlewares/lvgl/src/extra/layouts/grid/lv_grid.c ****     if(last_fr_i >= 0) {
 534:Middlewares/lvgl/src/extra/layouts/grid/lv_grid.c ****     	c->h[last_fr_i] = free_h - ((free_h * (row_fr_cnt - last_fr_x)) / row_fr_cnt);
 535:Middlewares/lvgl/src/extra/layouts/grid/lv_grid.c ****     }
 536:Middlewares/lvgl/src/extra/layouts/grid/lv_grid.c **** }
 537:Middlewares/lvgl/src/extra/layouts/grid/lv_grid.c **** 
 538:Middlewares/lvgl/src/extra/layouts/grid/lv_grid.c **** /**
 539:Middlewares/lvgl/src/extra/layouts/grid/lv_grid.c ****  * Reposition a grid item in its cell
 540:Middlewares/lvgl/src/extra/layouts/grid/lv_grid.c ****  * @param item a grid item to reposition
 541:Middlewares/lvgl/src/extra/layouts/grid/lv_grid.c ****  * @param calc the calculated grid of `cont`
 542:Middlewares/lvgl/src/extra/layouts/grid/lv_grid.c ****  * @param child_id_ext helper value if the ID of the child is know (order from the oldest) else -1
 543:Middlewares/lvgl/src/extra/layouts/grid/lv_grid.c ****  * @param grid_abs helper value, the absolute position of the grid, NULL if unknown
 544:Middlewares/lvgl/src/extra/layouts/grid/lv_grid.c ****  */
ARM GAS  /tmp/cc3I9fWq.s 			page 11


 545:Middlewares/lvgl/src/extra/layouts/grid/lv_grid.c **** static void item_repos(lv_obj_t * item, _lv_grid_calc_t * c, item_repos_hint_t * hint)
 546:Middlewares/lvgl/src/extra/layouts/grid/lv_grid.c **** {
 547:Middlewares/lvgl/src/extra/layouts/grid/lv_grid.c ****     if(lv_obj_has_flag_any(item, LV_OBJ_FLAG_IGNORE_LAYOUT | LV_OBJ_FLAG_HIDDEN | LV_OBJ_FLAG_FLOAT
 548:Middlewares/lvgl/src/extra/layouts/grid/lv_grid.c ****     uint32_t col_span = get_col_span(item);
 549:Middlewares/lvgl/src/extra/layouts/grid/lv_grid.c ****     uint32_t row_span = get_row_span(item);
 550:Middlewares/lvgl/src/extra/layouts/grid/lv_grid.c ****     if(row_span == 0 || col_span == 0) return;
 551:Middlewares/lvgl/src/extra/layouts/grid/lv_grid.c **** 
 552:Middlewares/lvgl/src/extra/layouts/grid/lv_grid.c ****     uint32_t col_pos = get_col_pos(item);
 553:Middlewares/lvgl/src/extra/layouts/grid/lv_grid.c ****     uint32_t row_pos = get_row_pos(item);
 554:Middlewares/lvgl/src/extra/layouts/grid/lv_grid.c ****     lv_grid_align_t col_align = get_cell_col_align(item);
 555:Middlewares/lvgl/src/extra/layouts/grid/lv_grid.c ****     lv_grid_align_t row_align = get_cell_row_align(item);
 556:Middlewares/lvgl/src/extra/layouts/grid/lv_grid.c **** 
 557:Middlewares/lvgl/src/extra/layouts/grid/lv_grid.c **** 
 558:Middlewares/lvgl/src/extra/layouts/grid/lv_grid.c ****     lv_coord_t col_x1 = c->x[col_pos];
 559:Middlewares/lvgl/src/extra/layouts/grid/lv_grid.c ****     lv_coord_t col_x2 = c->x[col_pos + col_span - 1] + c->w[col_pos + col_span - 1];
 560:Middlewares/lvgl/src/extra/layouts/grid/lv_grid.c ****     lv_coord_t col_w = col_x2 - col_x1;
 561:Middlewares/lvgl/src/extra/layouts/grid/lv_grid.c **** 
 562:Middlewares/lvgl/src/extra/layouts/grid/lv_grid.c ****     lv_coord_t row_y1 = c->y[row_pos];
 563:Middlewares/lvgl/src/extra/layouts/grid/lv_grid.c ****     lv_coord_t row_y2 = c->y[row_pos + row_span - 1] + c->h[row_pos + row_span - 1];
 564:Middlewares/lvgl/src/extra/layouts/grid/lv_grid.c ****     lv_coord_t row_h = row_y2 - row_y1;
 565:Middlewares/lvgl/src/extra/layouts/grid/lv_grid.c **** 
 566:Middlewares/lvgl/src/extra/layouts/grid/lv_grid.c **** 
 567:Middlewares/lvgl/src/extra/layouts/grid/lv_grid.c ****     /*If the item has RTL base dir switch start and end*/
 568:Middlewares/lvgl/src/extra/layouts/grid/lv_grid.c ****     if(lv_obj_get_style_base_dir(item, LV_PART_MAIN) == LV_BASE_DIR_RTL) {
 569:Middlewares/lvgl/src/extra/layouts/grid/lv_grid.c ****         if(col_align == LV_GRID_ALIGN_START) col_align = LV_GRID_ALIGN_END;
 570:Middlewares/lvgl/src/extra/layouts/grid/lv_grid.c ****         else if(col_align == LV_GRID_ALIGN_END) col_align = LV_GRID_ALIGN_START;
 571:Middlewares/lvgl/src/extra/layouts/grid/lv_grid.c ****     }
 572:Middlewares/lvgl/src/extra/layouts/grid/lv_grid.c **** 
 573:Middlewares/lvgl/src/extra/layouts/grid/lv_grid.c ****     lv_coord_t x;
 574:Middlewares/lvgl/src/extra/layouts/grid/lv_grid.c ****     lv_coord_t y;
 575:Middlewares/lvgl/src/extra/layouts/grid/lv_grid.c ****     lv_coord_t item_w = lv_area_get_width(&item->coords);
 576:Middlewares/lvgl/src/extra/layouts/grid/lv_grid.c ****     lv_coord_t item_h = lv_area_get_height(&item->coords);
 577:Middlewares/lvgl/src/extra/layouts/grid/lv_grid.c **** 
 578:Middlewares/lvgl/src/extra/layouts/grid/lv_grid.c ****     switch(col_align) {
 579:Middlewares/lvgl/src/extra/layouts/grid/lv_grid.c ****         default:
 580:Middlewares/lvgl/src/extra/layouts/grid/lv_grid.c ****         case LV_GRID_ALIGN_START:
 581:Middlewares/lvgl/src/extra/layouts/grid/lv_grid.c ****             x = c->x[col_pos];
 582:Middlewares/lvgl/src/extra/layouts/grid/lv_grid.c ****             item->w_layout = 0;
 583:Middlewares/lvgl/src/extra/layouts/grid/lv_grid.c ****             break;
 584:Middlewares/lvgl/src/extra/layouts/grid/lv_grid.c ****         case LV_GRID_ALIGN_STRETCH:
 585:Middlewares/lvgl/src/extra/layouts/grid/lv_grid.c ****             x = c->x[col_pos];
 586:Middlewares/lvgl/src/extra/layouts/grid/lv_grid.c ****             item_w = col_w;
 587:Middlewares/lvgl/src/extra/layouts/grid/lv_grid.c ****             item->w_layout = 1;
 588:Middlewares/lvgl/src/extra/layouts/grid/lv_grid.c ****             break;
 589:Middlewares/lvgl/src/extra/layouts/grid/lv_grid.c ****         case LV_GRID_ALIGN_CENTER:
 590:Middlewares/lvgl/src/extra/layouts/grid/lv_grid.c ****             x = c->x[col_pos] + (col_w - item_w) / 2;
 591:Middlewares/lvgl/src/extra/layouts/grid/lv_grid.c ****             item->w_layout = 0;
 592:Middlewares/lvgl/src/extra/layouts/grid/lv_grid.c ****             break;
 593:Middlewares/lvgl/src/extra/layouts/grid/lv_grid.c ****         case LV_GRID_ALIGN_END:
 594:Middlewares/lvgl/src/extra/layouts/grid/lv_grid.c ****             x = c->x[col_pos] + col_w - lv_obj_get_width(item);
 595:Middlewares/lvgl/src/extra/layouts/grid/lv_grid.c ****             item->w_layout = 0;
 596:Middlewares/lvgl/src/extra/layouts/grid/lv_grid.c ****             break;
 597:Middlewares/lvgl/src/extra/layouts/grid/lv_grid.c ****     }
 598:Middlewares/lvgl/src/extra/layouts/grid/lv_grid.c **** 
 599:Middlewares/lvgl/src/extra/layouts/grid/lv_grid.c ****     switch(row_align) {
 600:Middlewares/lvgl/src/extra/layouts/grid/lv_grid.c ****         default:
 601:Middlewares/lvgl/src/extra/layouts/grid/lv_grid.c ****         case LV_GRID_ALIGN_START:
ARM GAS  /tmp/cc3I9fWq.s 			page 12


 602:Middlewares/lvgl/src/extra/layouts/grid/lv_grid.c ****             y = c->y[row_pos];
 603:Middlewares/lvgl/src/extra/layouts/grid/lv_grid.c ****             item->h_layout = 0;
 604:Middlewares/lvgl/src/extra/layouts/grid/lv_grid.c ****             break;
 605:Middlewares/lvgl/src/extra/layouts/grid/lv_grid.c ****         case LV_GRID_ALIGN_STRETCH:
 606:Middlewares/lvgl/src/extra/layouts/grid/lv_grid.c ****             y = c->y[row_pos];
 607:Middlewares/lvgl/src/extra/layouts/grid/lv_grid.c ****             item_h = row_h;
 608:Middlewares/lvgl/src/extra/layouts/grid/lv_grid.c ****             item->h_layout = 1;
 609:Middlewares/lvgl/src/extra/layouts/grid/lv_grid.c ****             break;
 610:Middlewares/lvgl/src/extra/layouts/grid/lv_grid.c ****         case LV_GRID_ALIGN_CENTER:
 611:Middlewares/lvgl/src/extra/layouts/grid/lv_grid.c ****             y = c->y[row_pos] + (row_h - item_h) / 2;
 612:Middlewares/lvgl/src/extra/layouts/grid/lv_grid.c ****             item->h_layout = 0;
 613:Middlewares/lvgl/src/extra/layouts/grid/lv_grid.c ****             break;
 614:Middlewares/lvgl/src/extra/layouts/grid/lv_grid.c ****         case LV_GRID_ALIGN_END:
 615:Middlewares/lvgl/src/extra/layouts/grid/lv_grid.c ****             y = c->y[row_pos] + row_h - lv_obj_get_height(item);
 616:Middlewares/lvgl/src/extra/layouts/grid/lv_grid.c ****             item->h_layout = 0;
 617:Middlewares/lvgl/src/extra/layouts/grid/lv_grid.c ****             break;
 618:Middlewares/lvgl/src/extra/layouts/grid/lv_grid.c ****     }
 619:Middlewares/lvgl/src/extra/layouts/grid/lv_grid.c **** 
 620:Middlewares/lvgl/src/extra/layouts/grid/lv_grid.c ****     /*Set a new size if required*/
 621:Middlewares/lvgl/src/extra/layouts/grid/lv_grid.c ****     if(lv_obj_get_width(item) != item_w || lv_obj_get_height(item) != item_h) {
 622:Middlewares/lvgl/src/extra/layouts/grid/lv_grid.c ****         lv_area_t old_coords;
 623:Middlewares/lvgl/src/extra/layouts/grid/lv_grid.c ****         lv_area_copy(&old_coords, &item->coords);
 624:Middlewares/lvgl/src/extra/layouts/grid/lv_grid.c ****         lv_obj_invalidate(item);
 625:Middlewares/lvgl/src/extra/layouts/grid/lv_grid.c ****         lv_area_set_width(&item->coords, item_w);
 626:Middlewares/lvgl/src/extra/layouts/grid/lv_grid.c ****         lv_area_set_height(&item->coords, item_h);
 627:Middlewares/lvgl/src/extra/layouts/grid/lv_grid.c ****         lv_obj_invalidate(item);
 628:Middlewares/lvgl/src/extra/layouts/grid/lv_grid.c ****         lv_event_send(item, LV_EVENT_SIZE_CHANGED, &old_coords);
 629:Middlewares/lvgl/src/extra/layouts/grid/lv_grid.c ****         lv_event_send(lv_obj_get_parent(item), LV_EVENT_CHILD_CHANGED, item);
 630:Middlewares/lvgl/src/extra/layouts/grid/lv_grid.c **** 
 631:Middlewares/lvgl/src/extra/layouts/grid/lv_grid.c ****     }
 632:Middlewares/lvgl/src/extra/layouts/grid/lv_grid.c **** 
 633:Middlewares/lvgl/src/extra/layouts/grid/lv_grid.c ****     /*Handle percentage value of translate*/
 634:Middlewares/lvgl/src/extra/layouts/grid/lv_grid.c ****     lv_coord_t tr_x = lv_obj_get_style_translate_x(item, LV_PART_MAIN);
 635:Middlewares/lvgl/src/extra/layouts/grid/lv_grid.c ****     lv_coord_t tr_y = lv_obj_get_style_translate_y(item, LV_PART_MAIN);
 636:Middlewares/lvgl/src/extra/layouts/grid/lv_grid.c ****     lv_coord_t w = lv_obj_get_width(item);
 637:Middlewares/lvgl/src/extra/layouts/grid/lv_grid.c ****     lv_coord_t h = lv_obj_get_height(item);
 638:Middlewares/lvgl/src/extra/layouts/grid/lv_grid.c ****     if(LV_COORD_IS_PCT(tr_x)) tr_x = (w * LV_COORD_GET_PCT(tr_x)) / 100;
 639:Middlewares/lvgl/src/extra/layouts/grid/lv_grid.c ****     if(LV_COORD_IS_PCT(tr_y)) tr_y = (h * LV_COORD_GET_PCT(tr_y)) / 100;
 640:Middlewares/lvgl/src/extra/layouts/grid/lv_grid.c **** 
 641:Middlewares/lvgl/src/extra/layouts/grid/lv_grid.c ****     x += tr_x;
 642:Middlewares/lvgl/src/extra/layouts/grid/lv_grid.c ****     y += tr_y;
 643:Middlewares/lvgl/src/extra/layouts/grid/lv_grid.c **** 
 644:Middlewares/lvgl/src/extra/layouts/grid/lv_grid.c ****     lv_coord_t diff_x = hint->grid_abs.x + x - item->coords.x1;
 645:Middlewares/lvgl/src/extra/layouts/grid/lv_grid.c ****     lv_coord_t diff_y = hint->grid_abs.y + y - item->coords.y1;
 646:Middlewares/lvgl/src/extra/layouts/grid/lv_grid.c ****     if(diff_x || diff_y) {
 647:Middlewares/lvgl/src/extra/layouts/grid/lv_grid.c ****         lv_obj_invalidate(item);
 648:Middlewares/lvgl/src/extra/layouts/grid/lv_grid.c ****         item->coords.x1 += diff_x;
 649:Middlewares/lvgl/src/extra/layouts/grid/lv_grid.c ****         item->coords.x2 += diff_x;
 650:Middlewares/lvgl/src/extra/layouts/grid/lv_grid.c ****         item->coords.y1 += diff_y;
 651:Middlewares/lvgl/src/extra/layouts/grid/lv_grid.c ****         item->coords.y2 += diff_y;
 652:Middlewares/lvgl/src/extra/layouts/grid/lv_grid.c ****         lv_obj_invalidate(item);
 653:Middlewares/lvgl/src/extra/layouts/grid/lv_grid.c ****         lv_obj_move_children_by(item, diff_x, diff_y, true);
 654:Middlewares/lvgl/src/extra/layouts/grid/lv_grid.c ****     }
 655:Middlewares/lvgl/src/extra/layouts/grid/lv_grid.c **** }
 656:Middlewares/lvgl/src/extra/layouts/grid/lv_grid.c **** 
 657:Middlewares/lvgl/src/extra/layouts/grid/lv_grid.c **** /**
 658:Middlewares/lvgl/src/extra/layouts/grid/lv_grid.c ****  * Place the grid track according to align methods. It keeps the track sizes but sets their positio
ARM GAS  /tmp/cc3I9fWq.s 			page 13


 659:Middlewares/lvgl/src/extra/layouts/grid/lv_grid.c ****  * It can process both columns or rows according to the passed parameters.
 660:Middlewares/lvgl/src/extra/layouts/grid/lv_grid.c ****  * @param cont_size size of the containers content area (width/height)
 661:Middlewares/lvgl/src/extra/layouts/grid/lv_grid.c ****  * @param auto_size true: the container has auto size in the current direction
 662:Middlewares/lvgl/src/extra/layouts/grid/lv_grid.c ****  * @param align align method
 663:Middlewares/lvgl/src/extra/layouts/grid/lv_grid.c ****  * @param gap grid gap
 664:Middlewares/lvgl/src/extra/layouts/grid/lv_grid.c ****  * @param track_num number of tracks
 665:Middlewares/lvgl/src/extra/layouts/grid/lv_grid.c ****  * @param size_array array with the track sizes
 666:Middlewares/lvgl/src/extra/layouts/grid/lv_grid.c ****  * @param pos_array write the positions of the tracks here
 667:Middlewares/lvgl/src/extra/layouts/grid/lv_grid.c ****  * @return the total size of the grid
 668:Middlewares/lvgl/src/extra/layouts/grid/lv_grid.c ****  */
 669:Middlewares/lvgl/src/extra/layouts/grid/lv_grid.c **** static lv_coord_t grid_align(lv_coord_t cont_size,  bool auto_size, uint8_t align, lv_coord_t gap, 
 670:Middlewares/lvgl/src/extra/layouts/grid/lv_grid.c **** {
  28              		.loc 1 670 1 view -0
  29              		.cfi_startproc
  30              		@ args = 16, pretend = 0, frame = 0
  31              		@ frame_needed = 0, uses_anonymous_args = 0
  32              		.loc 1 670 1 is_stmt 0 view .LVU1
  33 0000 2DE9F041 		push	{r4, r5, r6, r7, r8, lr}
  34              	.LCFI0:
  35              		.cfi_def_cfa_offset 24
  36              		.cfi_offset 4, -24
  37              		.cfi_offset 5, -20
  38              		.cfi_offset 6, -16
  39              		.cfi_offset 7, -12
  40              		.cfi_offset 8, -8
  41              		.cfi_offset 14, -4
  42 0004 8446     		mov	ip, r0
  43 0006 069D     		ldr	r5, [sp, #24]
  44 0008 079E     		ldr	r6, [sp, #28]
  45 000a 089C     		ldr	r4, [sp, #32]
  46 000c 9DF82470 		ldrb	r7, [sp, #36]	@ zero_extendqisi2
 671:Middlewares/lvgl/src/extra/layouts/grid/lv_grid.c ****     lv_coord_t grid_size = 0;
  47              		.loc 1 671 5 is_stmt 1 view .LVU2
  48              	.LVL1:
 672:Middlewares/lvgl/src/extra/layouts/grid/lv_grid.c ****     uint32_t i;
  49              		.loc 1 672 5 view .LVU3
 673:Middlewares/lvgl/src/extra/layouts/grid/lv_grid.c **** 
 674:Middlewares/lvgl/src/extra/layouts/grid/lv_grid.c ****     if(auto_size) {
  50              		.loc 1 674 5 view .LVU4
  51              		.loc 1 674 7 is_stmt 0 view .LVU5
  52 0010 19B1     		cbz	r1, .L2
 675:Middlewares/lvgl/src/extra/layouts/grid/lv_grid.c ****         pos_array[0] = 0;
  53              		.loc 1 675 9 is_stmt 1 view .LVU6
  54              		.loc 1 675 22 is_stmt 0 view .LVU7
  55 0012 0022     		movs	r2, #0
  56              	.LVL2:
  57              		.loc 1 675 22 view .LVU8
  58 0014 2280     		strh	r2, [r4]	@ movhi
  59              	.LVL3:
  60              	.L3:
 676:Middlewares/lvgl/src/extra/layouts/grid/lv_grid.c ****     } else {
 677:Middlewares/lvgl/src/extra/layouts/grid/lv_grid.c ****         /*With spaced alignment gap will be calculated from the remaining space*/
 678:Middlewares/lvgl/src/extra/layouts/grid/lv_grid.c ****         if(align == LV_GRID_ALIGN_SPACE_AROUND || align == LV_GRID_ALIGN_SPACE_BETWEEN || align == 
 679:Middlewares/lvgl/src/extra/layouts/grid/lv_grid.c ****             gap = 0;
 680:Middlewares/lvgl/src/extra/layouts/grid/lv_grid.c ****             if(track_num == 1) align = LV_GRID_ALIGN_CENTER;
 681:Middlewares/lvgl/src/extra/layouts/grid/lv_grid.c ****         }
 682:Middlewares/lvgl/src/extra/layouts/grid/lv_grid.c **** 
ARM GAS  /tmp/cc3I9fWq.s 			page 14


 683:Middlewares/lvgl/src/extra/layouts/grid/lv_grid.c ****         /*Get the full grid size with gap*/
 684:Middlewares/lvgl/src/extra/layouts/grid/lv_grid.c ****         for(i = 0; i < track_num; i++) {
 685:Middlewares/lvgl/src/extra/layouts/grid/lv_grid.c ****             grid_size += size_array[i] + gap;
 686:Middlewares/lvgl/src/extra/layouts/grid/lv_grid.c ****         }
 687:Middlewares/lvgl/src/extra/layouts/grid/lv_grid.c ****         grid_size -= gap;
 688:Middlewares/lvgl/src/extra/layouts/grid/lv_grid.c **** 
 689:Middlewares/lvgl/src/extra/layouts/grid/lv_grid.c ****         /*Calculate the position of the first item and set gap is necessary*/
 690:Middlewares/lvgl/src/extra/layouts/grid/lv_grid.c ****         switch(align) {
 691:Middlewares/lvgl/src/extra/layouts/grid/lv_grid.c ****         case LV_GRID_ALIGN_START:
 692:Middlewares/lvgl/src/extra/layouts/grid/lv_grid.c ****             pos_array[0] = 0;
 693:Middlewares/lvgl/src/extra/layouts/grid/lv_grid.c ****             break;
 694:Middlewares/lvgl/src/extra/layouts/grid/lv_grid.c ****         case LV_GRID_ALIGN_CENTER:
 695:Middlewares/lvgl/src/extra/layouts/grid/lv_grid.c ****             pos_array[0] = (cont_size - grid_size) / 2;
 696:Middlewares/lvgl/src/extra/layouts/grid/lv_grid.c ****             break;
 697:Middlewares/lvgl/src/extra/layouts/grid/lv_grid.c ****         case LV_GRID_ALIGN_END:
 698:Middlewares/lvgl/src/extra/layouts/grid/lv_grid.c ****             pos_array[0] = cont_size - grid_size;
 699:Middlewares/lvgl/src/extra/layouts/grid/lv_grid.c ****             break;
 700:Middlewares/lvgl/src/extra/layouts/grid/lv_grid.c ****         case LV_GRID_ALIGN_SPACE_BETWEEN:
 701:Middlewares/lvgl/src/extra/layouts/grid/lv_grid.c ****             pos_array[0] = 0;
 702:Middlewares/lvgl/src/extra/layouts/grid/lv_grid.c ****             gap = (lv_coord_t)(cont_size - grid_size) / (lv_coord_t)(track_num - 1);
 703:Middlewares/lvgl/src/extra/layouts/grid/lv_grid.c ****             break;
 704:Middlewares/lvgl/src/extra/layouts/grid/lv_grid.c ****         case LV_GRID_ALIGN_SPACE_AROUND:
 705:Middlewares/lvgl/src/extra/layouts/grid/lv_grid.c ****             gap = (lv_coord_t)(cont_size - grid_size) / (lv_coord_t)(track_num);
 706:Middlewares/lvgl/src/extra/layouts/grid/lv_grid.c ****             pos_array[0] = gap / 2;
 707:Middlewares/lvgl/src/extra/layouts/grid/lv_grid.c ****             break;
 708:Middlewares/lvgl/src/extra/layouts/grid/lv_grid.c ****         case LV_GRID_ALIGN_SPACE_EVENLY:
 709:Middlewares/lvgl/src/extra/layouts/grid/lv_grid.c ****             gap = (lv_coord_t)(cont_size - grid_size) / (lv_coord_t)(track_num + 1);
 710:Middlewares/lvgl/src/extra/layouts/grid/lv_grid.c ****             pos_array[0] = gap;
 711:Middlewares/lvgl/src/extra/layouts/grid/lv_grid.c ****             break;
 712:Middlewares/lvgl/src/extra/layouts/grid/lv_grid.c **** 
 713:Middlewares/lvgl/src/extra/layouts/grid/lv_grid.c ****         }
 714:Middlewares/lvgl/src/extra/layouts/grid/lv_grid.c ****     }
 715:Middlewares/lvgl/src/extra/layouts/grid/lv_grid.c **** 
 716:Middlewares/lvgl/src/extra/layouts/grid/lv_grid.c ****     /*Set the position of all tracks from the start position, gaps and track sizes*/
 717:Middlewares/lvgl/src/extra/layouts/grid/lv_grid.c ****     for(i = 0; i < track_num - 1; i++) {
  61              		.loc 1 717 5 is_stmt 1 view .LVU9
  62              		.loc 1 717 11 is_stmt 0 view .LVU10
  63 0016 0022     		movs	r2, #0
  64              		.loc 1 717 5 view .LVU11
  65 0018 71E0     		b	.L16
  66              	.LVL4:
  67              	.L2:
 678:Middlewares/lvgl/src/extra/layouts/grid/lv_grid.c ****             gap = 0;
  68              		.loc 1 678 9 is_stmt 1 view .LVU12
 678:Middlewares/lvgl/src/extra/layouts/grid/lv_grid.c ****             gap = 0;
  69              		.loc 1 678 88 is_stmt 0 view .LVU13
  70 001a 111F     		subs	r1, r2, #4
  71              	.LVL5:
 678:Middlewares/lvgl/src/extra/layouts/grid/lv_grid.c ****             gap = 0;
  72              		.loc 1 678 88 view .LVU14
  73 001c C9B2     		uxtb	r1, r1
 678:Middlewares/lvgl/src/extra/layouts/grid/lv_grid.c ****             gap = 0;
  74              		.loc 1 678 11 view .LVU15
  75 001e 0229     		cmp	r1, #2
  76 0020 02D8     		bhi	.L4
 679:Middlewares/lvgl/src/extra/layouts/grid/lv_grid.c ****             if(track_num == 1) align = LV_GRID_ALIGN_CENTER;
  77              		.loc 1 679 13 is_stmt 1 view .LVU16
ARM GAS  /tmp/cc3I9fWq.s 			page 15


  78              	.LVL6:
 680:Middlewares/lvgl/src/extra/layouts/grid/lv_grid.c ****         }
  79              		.loc 1 680 13 view .LVU17
 680:Middlewares/lvgl/src/extra/layouts/grid/lv_grid.c ****         }
  80              		.loc 1 680 15 is_stmt 0 view .LVU18
  81 0022 012D     		cmp	r5, #1
  82 0024 0CD0     		beq	.L21
 679:Middlewares/lvgl/src/extra/layouts/grid/lv_grid.c ****             if(track_num == 1) align = LV_GRID_ALIGN_CENTER;
  83              		.loc 1 679 17 view .LVU19
  84 0026 0023     		movs	r3, #0
  85              	.LVL7:
  86              	.L4:
 684:Middlewares/lvgl/src/extra/layouts/grid/lv_grid.c ****             grid_size += size_array[i] + gap;
  87              		.loc 1 684 9 is_stmt 1 view .LVU20
 684:Middlewares/lvgl/src/extra/layouts/grid/lv_grid.c ****             grid_size += size_array[i] + gap;
  88              		.loc 1 684 15 is_stmt 0 view .LVU21
  89 0028 0020     		movs	r0, #0
  90              	.LVL8:
 671:Middlewares/lvgl/src/extra/layouts/grid/lv_grid.c ****     uint32_t i;
  91              		.loc 1 671 16 view .LVU22
  92 002a 0146     		mov	r1, r0
  93              	.LVL9:
  94              	.L5:
 684:Middlewares/lvgl/src/extra/layouts/grid/lv_grid.c ****             grid_size += size_array[i] + gap;
  95              		.loc 1 684 20 is_stmt 1 discriminator 1 view .LVU23
 684:Middlewares/lvgl/src/extra/layouts/grid/lv_grid.c ****             grid_size += size_array[i] + gap;
  96              		.loc 1 684 9 is_stmt 0 discriminator 1 view .LVU24
  97 002c A842     		cmp	r0, r5
  98 002e 0AD2     		bcs	.L24
 685:Middlewares/lvgl/src/extra/layouts/grid/lv_grid.c ****         }
  99              		.loc 1 685 13 is_stmt 1 discriminator 3 view .LVU25
 685:Middlewares/lvgl/src/extra/layouts/grid/lv_grid.c ****         }
 100              		.loc 1 685 36 is_stmt 0 discriminator 3 view .LVU26
 101 0030 36F810E0 		ldrh	lr, [r6, r0, lsl #1]
 685:Middlewares/lvgl/src/extra/layouts/grid/lv_grid.c ****         }
 102              		.loc 1 685 40 discriminator 3 view .LVU27
 103 0034 9E44     		add	lr, lr, r3
 685:Middlewares/lvgl/src/extra/layouts/grid/lv_grid.c ****         }
 104              		.loc 1 685 23 discriminator 3 view .LVU28
 105 0036 11FA8EF1 		uxtah	r1, r1, lr
 106              	.LVL10:
 685:Middlewares/lvgl/src/extra/layouts/grid/lv_grid.c ****         }
 107              		.loc 1 685 23 discriminator 3 view .LVU29
 108 003a 09B2     		sxth	r1, r1
 109              	.LVL11:
 684:Middlewares/lvgl/src/extra/layouts/grid/lv_grid.c ****             grid_size += size_array[i] + gap;
 110              		.loc 1 684 35 is_stmt 1 discriminator 3 view .LVU30
 684:Middlewares/lvgl/src/extra/layouts/grid/lv_grid.c ****             grid_size += size_array[i] + gap;
 111              		.loc 1 684 36 is_stmt 0 discriminator 3 view .LVU31
 112 003c 0130     		adds	r0, r0, #1
 113              	.LVL12:
 684:Middlewares/lvgl/src/extra/layouts/grid/lv_grid.c ****             grid_size += size_array[i] + gap;
 114              		.loc 1 684 36 discriminator 3 view .LVU32
 115 003e F5E7     		b	.L5
 116              	.LVL13:
 117              	.L21:
 679:Middlewares/lvgl/src/extra/layouts/grid/lv_grid.c ****             if(track_num == 1) align = LV_GRID_ALIGN_CENTER;
ARM GAS  /tmp/cc3I9fWq.s 			page 16


 118              		.loc 1 679 17 view .LVU33
 119 0040 0023     		movs	r3, #0
 680:Middlewares/lvgl/src/extra/layouts/grid/lv_grid.c ****         }
 120              		.loc 1 680 38 view .LVU34
 121 0042 0122     		movs	r2, #1
 122              	.LVL14:
 680:Middlewares/lvgl/src/extra/layouts/grid/lv_grid.c ****         }
 123              		.loc 1 680 38 view .LVU35
 124 0044 F0E7     		b	.L4
 125              	.LVL15:
 126              	.L24:
 687:Middlewares/lvgl/src/extra/layouts/grid/lv_grid.c **** 
 127              		.loc 1 687 9 is_stmt 1 view .LVU36
 687:Middlewares/lvgl/src/extra/layouts/grid/lv_grid.c **** 
 128              		.loc 1 687 19 is_stmt 0 view .LVU37
 129 0046 89B2     		uxth	r1, r1
 687:Middlewares/lvgl/src/extra/layouts/grid/lv_grid.c **** 
 130              		.loc 1 687 19 view .LVU38
 131 0048 98B2     		uxth	r0, r3
 132              	.LVL16:
 687:Middlewares/lvgl/src/extra/layouts/grid/lv_grid.c **** 
 133              		.loc 1 687 19 view .LVU39
 134 004a A1EB000E 		sub	lr, r1, r0
 135 004e 0FFA8EFE 		sxth	lr, lr
 136              	.LVL17:
 690:Middlewares/lvgl/src/extra/layouts/grid/lv_grid.c ****         case LV_GRID_ALIGN_START:
 137              		.loc 1 690 9 is_stmt 1 view .LVU40
 138 0052 062A     		cmp	r2, #6
 139 0054 DFD8     		bhi	.L3
 140 0056 0FF20808 		adr	r8, .L8
 141 005a 58F822F0 		ldr	pc, [r8, r2, lsl #2]
 142 005e 00BF     		.p2align 2
 143              	.L8:
 144 0060 7D000000 		.word	.L13+1
 145 0064 83000000 		.word	.L12+1
 146 0068 99000000 		.word	.L11+1
 147 006c 17000000 		.word	.L3+1
 148 0070 D7000000 		.word	.L10+1
 149 0074 B9000000 		.word	.L9+1
 150 0078 A3000000 		.word	.L7+1
 151              		.p2align 1
 152              	.L13:
 692:Middlewares/lvgl/src/extra/layouts/grid/lv_grid.c ****             break;
 153              		.loc 1 692 13 view .LVU41
 692:Middlewares/lvgl/src/extra/layouts/grid/lv_grid.c ****             break;
 154              		.loc 1 692 26 is_stmt 0 view .LVU42
 155 007c 0022     		movs	r2, #0
 156              	.LVL18:
 692:Middlewares/lvgl/src/extra/layouts/grid/lv_grid.c ****             break;
 157              		.loc 1 692 26 view .LVU43
 158 007e 2280     		strh	r2, [r4]	@ movhi
 693:Middlewares/lvgl/src/extra/layouts/grid/lv_grid.c ****         case LV_GRID_ALIGN_CENTER:
 159              		.loc 1 693 13 is_stmt 1 view .LVU44
 160 0080 C9E7     		b	.L3
 161              	.LVL19:
 162              	.L12:
 695:Middlewares/lvgl/src/extra/layouts/grid/lv_grid.c ****             break;
ARM GAS  /tmp/cc3I9fWq.s 			page 17


 163              		.loc 1 695 13 view .LVU45
 695:Middlewares/lvgl/src/extra/layouts/grid/lv_grid.c ****             break;
 164              		.loc 1 695 52 is_stmt 0 view .LVU46
 165 0082 BCEB0E0E 		subs	lr, ip, lr
 166              	.LVL20:
 695:Middlewares/lvgl/src/extra/layouts/grid/lv_grid.c ****             break;
 167              		.loc 1 695 52 view .LVU47
 168 0086 04D4     		bmi	.L25
 169              	.L14:
 170 0088 4FEA6E0E 		asr	lr, lr, #1
 695:Middlewares/lvgl/src/extra/layouts/grid/lv_grid.c ****             break;
 171              		.loc 1 695 26 view .LVU48
 172 008c A4F800E0 		strh	lr, [r4]	@ movhi
 696:Middlewares/lvgl/src/extra/layouts/grid/lv_grid.c ****         case LV_GRID_ALIGN_END:
 173              		.loc 1 696 13 is_stmt 1 view .LVU49
 174 0090 C1E7     		b	.L3
 175              	.L25:
 695:Middlewares/lvgl/src/extra/layouts/grid/lv_grid.c ****             break;
 176              		.loc 1 695 52 is_stmt 0 view .LVU50
 177 0092 0EF1010E 		add	lr, lr, #1
 178 0096 F7E7     		b	.L14
 179              	.LVL21:
 180              	.L11:
 698:Middlewares/lvgl/src/extra/layouts/grid/lv_grid.c ****             break;
 181              		.loc 1 698 13 is_stmt 1 view .LVU51
 698:Middlewares/lvgl/src/extra/layouts/grid/lv_grid.c ****             break;
 182              		.loc 1 698 38 is_stmt 0 view .LVU52
 183 0098 411A     		subs	r1, r0, r1
 184 009a 01EB0C02 		add	r2, r1, ip
 185              	.LVL22:
 698:Middlewares/lvgl/src/extra/layouts/grid/lv_grid.c ****             break;
 186              		.loc 1 698 26 view .LVU53
 187 009e 2280     		strh	r2, [r4]	@ movhi
 699:Middlewares/lvgl/src/extra/layouts/grid/lv_grid.c ****         case LV_GRID_ALIGN_SPACE_BETWEEN:
 188              		.loc 1 699 13 is_stmt 1 view .LVU54
 189 00a0 B9E7     		b	.L3
 190              	.LVL23:
 191              	.L7:
 701:Middlewares/lvgl/src/extra/layouts/grid/lv_grid.c ****             gap = (lv_coord_t)(cont_size - grid_size) / (lv_coord_t)(track_num - 1);
 192              		.loc 1 701 13 view .LVU55
 701:Middlewares/lvgl/src/extra/layouts/grid/lv_grid.c ****             gap = (lv_coord_t)(cont_size - grid_size) / (lv_coord_t)(track_num - 1);
 193              		.loc 1 701 26 is_stmt 0 view .LVU56
 194 00a2 0023     		movs	r3, #0
 195              	.LVL24:
 701:Middlewares/lvgl/src/extra/layouts/grid/lv_grid.c ****             gap = (lv_coord_t)(cont_size - grid_size) / (lv_coord_t)(track_num - 1);
 196              		.loc 1 701 26 view .LVU57
 197 00a4 2380     		strh	r3, [r4]	@ movhi
 702:Middlewares/lvgl/src/extra/layouts/grid/lv_grid.c ****             break;
 198              		.loc 1 702 13 is_stmt 1 view .LVU58
 702:Middlewares/lvgl/src/extra/layouts/grid/lv_grid.c ****             break;
 199              		.loc 1 702 42 is_stmt 0 view .LVU59
 200 00a6 431A     		subs	r3, r0, r1
 201 00a8 6344     		add	r3, r3, ip
 702:Middlewares/lvgl/src/extra/layouts/grid/lv_grid.c ****             break;
 202              		.loc 1 702 19 view .LVU60
 203 00aa 1BB2     		sxth	r3, r3
 702:Middlewares/lvgl/src/extra/layouts/grid/lv_grid.c ****             break;
ARM GAS  /tmp/cc3I9fWq.s 			page 18


 204              		.loc 1 702 80 view .LVU61
 205 00ac 6A1E     		subs	r2, r5, #1
 206              	.LVL25:
 702:Middlewares/lvgl/src/extra/layouts/grid/lv_grid.c ****             break;
 207              		.loc 1 702 57 view .LVU62
 208 00ae 12B2     		sxth	r2, r2
 702:Middlewares/lvgl/src/extra/layouts/grid/lv_grid.c ****             break;
 209              		.loc 1 702 55 view .LVU63
 210 00b0 93FBF2F3 		sdiv	r3, r3, r2
 702:Middlewares/lvgl/src/extra/layouts/grid/lv_grid.c ****             break;
 211              		.loc 1 702 17 view .LVU64
 212 00b4 1BB2     		sxth	r3, r3
 213              	.LVL26:
 703:Middlewares/lvgl/src/extra/layouts/grid/lv_grid.c ****         case LV_GRID_ALIGN_SPACE_AROUND:
 214              		.loc 1 703 13 is_stmt 1 view .LVU65
 215 00b6 AEE7     		b	.L3
 216              	.LVL27:
 217              	.L9:
 705:Middlewares/lvgl/src/extra/layouts/grid/lv_grid.c ****             pos_array[0] = gap / 2;
 218              		.loc 1 705 13 view .LVU66
 705:Middlewares/lvgl/src/extra/layouts/grid/lv_grid.c ****             pos_array[0] = gap / 2;
 219              		.loc 1 705 42 is_stmt 0 view .LVU67
 220 00b8 431A     		subs	r3, r0, r1
 221              	.LVL28:
 705:Middlewares/lvgl/src/extra/layouts/grid/lv_grid.c ****             pos_array[0] = gap / 2;
 222              		.loc 1 705 42 view .LVU68
 223 00ba 6344     		add	r3, r3, ip
 705:Middlewares/lvgl/src/extra/layouts/grid/lv_grid.c ****             pos_array[0] = gap / 2;
 224              		.loc 1 705 19 view .LVU69
 225 00bc 1BB2     		sxth	r3, r3
 705:Middlewares/lvgl/src/extra/layouts/grid/lv_grid.c ****             pos_array[0] = gap / 2;
 226              		.loc 1 705 57 view .LVU70
 227 00be 2AB2     		sxth	r2, r5
 228              	.LVL29:
 705:Middlewares/lvgl/src/extra/layouts/grid/lv_grid.c ****             pos_array[0] = gap / 2;
 229              		.loc 1 705 55 view .LVU71
 230 00c0 93FBF2F3 		sdiv	r3, r3, r2
 705:Middlewares/lvgl/src/extra/layouts/grid/lv_grid.c ****             pos_array[0] = gap / 2;
 231              		.loc 1 705 17 view .LVU72
 232 00c4 1BB2     		sxth	r3, r3
 233              	.LVL30:
 706:Middlewares/lvgl/src/extra/layouts/grid/lv_grid.c ****             break;
 234              		.loc 1 706 13 is_stmt 1 view .LVU73
 706:Middlewares/lvgl/src/extra/layouts/grid/lv_grid.c ****             break;
 235              		.loc 1 706 26 is_stmt 0 view .LVU74
 236 00c6 1A46     		mov	r2, r3
 237 00c8 002B     		cmp	r3, #0
 238 00ca 02DB     		blt	.L26
 239              	.L15:
 240 00cc 5210     		asrs	r2, r2, #1
 241 00ce 2280     		strh	r2, [r4]	@ movhi
 707:Middlewares/lvgl/src/extra/layouts/grid/lv_grid.c ****         case LV_GRID_ALIGN_SPACE_EVENLY:
 242              		.loc 1 707 13 is_stmt 1 view .LVU75
 243 00d0 A1E7     		b	.L3
 244              	.L26:
 706:Middlewares/lvgl/src/extra/layouts/grid/lv_grid.c ****             break;
 245              		.loc 1 706 26 is_stmt 0 view .LVU76
ARM GAS  /tmp/cc3I9fWq.s 			page 19


 246 00d2 5A1C     		adds	r2, r3, #1
 247 00d4 FAE7     		b	.L15
 248              	.LVL31:
 249              	.L10:
 709:Middlewares/lvgl/src/extra/layouts/grid/lv_grid.c ****             pos_array[0] = gap;
 250              		.loc 1 709 13 is_stmt 1 view .LVU77
 709:Middlewares/lvgl/src/extra/layouts/grid/lv_grid.c ****             pos_array[0] = gap;
 251              		.loc 1 709 42 is_stmt 0 view .LVU78
 252 00d6 431A     		subs	r3, r0, r1
 253              	.LVL32:
 709:Middlewares/lvgl/src/extra/layouts/grid/lv_grid.c ****             pos_array[0] = gap;
 254              		.loc 1 709 42 view .LVU79
 255 00d8 6344     		add	r3, r3, ip
 709:Middlewares/lvgl/src/extra/layouts/grid/lv_grid.c ****             pos_array[0] = gap;
 256              		.loc 1 709 19 view .LVU80
 257 00da 1BB2     		sxth	r3, r3
 709:Middlewares/lvgl/src/extra/layouts/grid/lv_grid.c ****             pos_array[0] = gap;
 258              		.loc 1 709 80 view .LVU81
 259 00dc 6A1C     		adds	r2, r5, #1
 260              	.LVL33:
 709:Middlewares/lvgl/src/extra/layouts/grid/lv_grid.c ****             pos_array[0] = gap;
 261              		.loc 1 709 57 view .LVU82
 262 00de 12B2     		sxth	r2, r2
 709:Middlewares/lvgl/src/extra/layouts/grid/lv_grid.c ****             pos_array[0] = gap;
 263              		.loc 1 709 55 view .LVU83
 264 00e0 93FBF2F3 		sdiv	r3, r3, r2
 709:Middlewares/lvgl/src/extra/layouts/grid/lv_grid.c ****             pos_array[0] = gap;
 265              		.loc 1 709 17 view .LVU84
 266 00e4 1BB2     		sxth	r3, r3
 267              	.LVL34:
 710:Middlewares/lvgl/src/extra/layouts/grid/lv_grid.c ****             break;
 268              		.loc 1 710 13 is_stmt 1 view .LVU85
 710:Middlewares/lvgl/src/extra/layouts/grid/lv_grid.c ****             break;
 269              		.loc 1 710 26 is_stmt 0 view .LVU86
 270 00e6 2380     		strh	r3, [r4]	@ movhi
 711:Middlewares/lvgl/src/extra/layouts/grid/lv_grid.c **** 
 271              		.loc 1 711 13 is_stmt 1 view .LVU87
 272 00e8 95E7     		b	.L3
 273              	.LVL35:
 274              	.L17:
 718:Middlewares/lvgl/src/extra/layouts/grid/lv_grid.c ****         pos_array[i + 1] = pos_array[i] + size_array[i] + gap;
 275              		.loc 1 718 9 discriminator 3 view .LVU88
 276              		.loc 1 718 37 is_stmt 0 discriminator 3 view .LVU89
 277 00ea 34F81210 		ldrh	r1, [r4, r2, lsl #1]
 278              		.loc 1 718 53 discriminator 3 view .LVU90
 279 00ee 36F81200 		ldrh	r0, [r6, r2, lsl #1]
 280              		.loc 1 718 41 discriminator 3 view .LVU91
 281 00f2 0144     		add	r1, r1, r0
 282              		.loc 1 718 18 discriminator 3 view .LVU92
 283 00f4 0132     		adds	r2, r2, #1
 284              	.LVL36:
 285              		.loc 1 718 57 discriminator 3 view .LVU93
 286 00f6 13FA81F1 		uxtah	r1, r3, r1
 287              		.loc 1 718 26 discriminator 3 view .LVU94
 288 00fa 24F81210 		strh	r1, [r4, r2, lsl #1]	@ movhi
 717:Middlewares/lvgl/src/extra/layouts/grid/lv_grid.c ****         pos_array[i + 1] = pos_array[i] + size_array[i] + gap;
 289              		.loc 1 717 35 is_stmt 1 discriminator 3 view .LVU95
ARM GAS  /tmp/cc3I9fWq.s 			page 20


 290              	.LVL37:
 291              	.L16:
 717:Middlewares/lvgl/src/extra/layouts/grid/lv_grid.c ****         pos_array[i + 1] = pos_array[i] + size_array[i] + gap;
 292              		.loc 1 717 16 discriminator 1 view .LVU96
 717:Middlewares/lvgl/src/extra/layouts/grid/lv_grid.c ****         pos_array[i + 1] = pos_array[i] + size_array[i] + gap;
 293              		.loc 1 717 30 is_stmt 0 discriminator 1 view .LVU97
 294 00fe 691E     		subs	r1, r5, #1
 717:Middlewares/lvgl/src/extra/layouts/grid/lv_grid.c ****         pos_array[i + 1] = pos_array[i] + size_array[i] + gap;
 295              		.loc 1 717 5 discriminator 1 view .LVU98
 296 0100 9142     		cmp	r1, r2
 297 0102 F2D8     		bhi	.L17
 719:Middlewares/lvgl/src/extra/layouts/grid/lv_grid.c ****     }
 720:Middlewares/lvgl/src/extra/layouts/grid/lv_grid.c **** 
 721:Middlewares/lvgl/src/extra/layouts/grid/lv_grid.c ****     lv_coord_t total_gird_size = pos_array[track_num - 1] + size_array[track_num - 1] - pos_array[0
 298              		.loc 1 721 5 is_stmt 1 view .LVU99
 299              		.loc 1 721 43 is_stmt 0 view .LVU100
 300 0104 6FF00043 		mvn	r3, #-2147483648
 301              	.LVL38:
 302              		.loc 1 721 43 view .LVU101
 303 0108 2B44     		add	r3, r3, r5
 304 010a 34F81300 		ldrh	r0, [r4, r3, lsl #1]
 305              		.loc 1 721 71 view .LVU102
 306 010e 36F81330 		ldrh	r3, [r6, r3, lsl #1]
 307              		.loc 1 721 59 view .LVU103
 308 0112 1844     		add	r0, r0, r3
 309 0114 80B2     		uxth	r0, r0
 310              		.loc 1 721 98 view .LVU104
 311 0116 2388     		ldrh	r3, [r4]
 312              		.loc 1 721 87 view .LVU105
 313 0118 C01A     		subs	r0, r0, r3
 314              		.loc 1 721 16 view .LVU106
 315 011a 00B2     		sxth	r0, r0
 316              	.LVL39:
 722:Middlewares/lvgl/src/extra/layouts/grid/lv_grid.c **** 
 723:Middlewares/lvgl/src/extra/layouts/grid/lv_grid.c ****     if(reverse) {
 317              		.loc 1 723 5 is_stmt 1 view .LVU107
 318              		.loc 1 723 7 is_stmt 0 view .LVU108
 319 011c 0FB9     		cbnz	r7, .L22
 320              	.L19:
 724:Middlewares/lvgl/src/extra/layouts/grid/lv_grid.c ****         for(i = 0; i < track_num; i++) {
 725:Middlewares/lvgl/src/extra/layouts/grid/lv_grid.c ****             pos_array[i] = cont_size - pos_array[i] - size_array[i];
 726:Middlewares/lvgl/src/extra/layouts/grid/lv_grid.c ****         }
 727:Middlewares/lvgl/src/extra/layouts/grid/lv_grid.c **** 
 728:Middlewares/lvgl/src/extra/layouts/grid/lv_grid.c ****     }
 729:Middlewares/lvgl/src/extra/layouts/grid/lv_grid.c **** 
 730:Middlewares/lvgl/src/extra/layouts/grid/lv_grid.c ****     /*Return the full size of the grid*/
 731:Middlewares/lvgl/src/extra/layouts/grid/lv_grid.c ****     return total_gird_size;
 321              		.loc 1 731 5 is_stmt 1 view .LVU109
 732:Middlewares/lvgl/src/extra/layouts/grid/lv_grid.c **** }
 322              		.loc 1 732 1 is_stmt 0 view .LVU110
 323 011e BDE8F081 		pop	{r4, r5, r6, r7, r8, pc}
 324              	.LVL40:
 325              	.L22:
 724:Middlewares/lvgl/src/extra/layouts/grid/lv_grid.c ****         for(i = 0; i < track_num; i++) {
 326              		.loc 1 724 15 view .LVU111
 327 0122 0022     		movs	r2, #0
 328              	.LVL41:
ARM GAS  /tmp/cc3I9fWq.s 			page 21


 329              	.L18:
 724:Middlewares/lvgl/src/extra/layouts/grid/lv_grid.c ****         for(i = 0; i < track_num; i++) {
 330              		.loc 1 724 20 is_stmt 1 discriminator 1 view .LVU112
 724:Middlewares/lvgl/src/extra/layouts/grid/lv_grid.c ****         for(i = 0; i < track_num; i++) {
 331              		.loc 1 724 9 is_stmt 0 discriminator 1 view .LVU113
 332 0124 AA42     		cmp	r2, r5
 333 0126 FAD2     		bcs	.L19
 725:Middlewares/lvgl/src/extra/layouts/grid/lv_grid.c ****         }
 334              		.loc 1 725 13 is_stmt 1 discriminator 3 view .LVU114
 725:Middlewares/lvgl/src/extra/layouts/grid/lv_grid.c ****         }
 335              		.loc 1 725 49 is_stmt 0 discriminator 3 view .LVU115
 336 0128 34F81230 		ldrh	r3, [r4, r2, lsl #1]
 725:Middlewares/lvgl/src/extra/layouts/grid/lv_grid.c ****         }
 337              		.loc 1 725 38 discriminator 3 view .LVU116
 338 012c ACEB0303 		sub	r3, ip, r3
 339 0130 9BB2     		uxth	r3, r3
 725:Middlewares/lvgl/src/extra/layouts/grid/lv_grid.c ****         }
 340              		.loc 1 725 65 discriminator 3 view .LVU117
 341 0132 36F81210 		ldrh	r1, [r6, r2, lsl #1]
 725:Middlewares/lvgl/src/extra/layouts/grid/lv_grid.c ****         }
 342              		.loc 1 725 53 discriminator 3 view .LVU118
 343 0136 5B1A     		subs	r3, r3, r1
 725:Middlewares/lvgl/src/extra/layouts/grid/lv_grid.c ****         }
 344              		.loc 1 725 26 discriminator 3 view .LVU119
 345 0138 24F81230 		strh	r3, [r4, r2, lsl #1]	@ movhi
 724:Middlewares/lvgl/src/extra/layouts/grid/lv_grid.c ****         for(i = 0; i < track_num; i++) {
 346              		.loc 1 724 35 is_stmt 1 discriminator 3 view .LVU120
 724:Middlewares/lvgl/src/extra/layouts/grid/lv_grid.c ****         for(i = 0; i < track_num; i++) {
 347              		.loc 1 724 36 is_stmt 0 discriminator 3 view .LVU121
 348 013c 0132     		adds	r2, r2, #1
 349              	.LVL42:
 724:Middlewares/lvgl/src/extra/layouts/grid/lv_grid.c ****         for(i = 0; i < track_num; i++) {
 350              		.loc 1 724 36 discriminator 3 view .LVU122
 351 013e F1E7     		b	.L18
 352              		.cfi_endproc
 353              	.LFE203:
 355              		.section	.text.count_tracks,"ax",%progbits
 356              		.align	1
 357              		.syntax unified
 358              		.thumb
 359              		.thumb_func
 361              	count_tracks:
 362              	.LVL43:
 363              	.LFB204:
 733:Middlewares/lvgl/src/extra/layouts/grid/lv_grid.c **** 
 734:Middlewares/lvgl/src/extra/layouts/grid/lv_grid.c **** static uint32_t count_tracks(const lv_coord_t * templ)
 735:Middlewares/lvgl/src/extra/layouts/grid/lv_grid.c **** {
 364              		.loc 1 735 1 is_stmt 1 view -0
 365              		.cfi_startproc
 366              		@ args = 0, pretend = 0, frame = 0
 367              		@ frame_needed = 0, uses_anonymous_args = 0
 368              		@ link register save eliminated.
 369              		.loc 1 735 1 is_stmt 0 view .LVU124
 370 0000 0246     		mov	r2, r0
 736:Middlewares/lvgl/src/extra/layouts/grid/lv_grid.c ****     uint32_t i;
 371              		.loc 1 736 5 is_stmt 1 view .LVU125
 737:Middlewares/lvgl/src/extra/layouts/grid/lv_grid.c ****     for(i = 0; templ[i] != LV_COORD_MAX; i++);
ARM GAS  /tmp/cc3I9fWq.s 			page 22


 372              		.loc 1 737 5 view .LVU126
 373              	.LVL44:
 374              		.loc 1 737 11 is_stmt 0 view .LVU127
 375 0002 0020     		movs	r0, #0
 376              	.LVL45:
 377              		.loc 1 737 5 view .LVU128
 378 0004 00E0     		b	.L28
 379              	.LVL46:
 380              	.L29:
 381              		.loc 1 737 46 is_stmt 1 discriminator 3 view .LVU129
 382              		.loc 1 737 42 discriminator 3 view .LVU130
 383              		.loc 1 737 43 is_stmt 0 discriminator 3 view .LVU131
 384 0006 0130     		adds	r0, r0, #1
 385              	.LVL47:
 386              	.L28:
 387              		.loc 1 737 16 is_stmt 1 discriminator 1 view .LVU132
 388              		.loc 1 737 21 is_stmt 0 discriminator 1 view .LVU133
 389 0008 32F91030 		ldrsh	r3, [r2, r0, lsl #1]
 390              		.loc 1 737 5 discriminator 1 view .LVU134
 391 000c B3F5C04F 		cmp	r3, #24576
 392 0010 F9D1     		bne	.L29
 738:Middlewares/lvgl/src/extra/layouts/grid/lv_grid.c **** 
 739:Middlewares/lvgl/src/extra/layouts/grid/lv_grid.c ****     return i;
 393              		.loc 1 739 5 is_stmt 1 view .LVU135
 740:Middlewares/lvgl/src/extra/layouts/grid/lv_grid.c **** }
 394              		.loc 1 740 1 is_stmt 0 view .LVU136
 395 0012 7047     		bx	lr
 396              		.cfi_endproc
 397              	.LFE204:
 399              		.section	.text.item_repos,"ax",%progbits
 400              		.align	1
 401              		.syntax unified
 402              		.thumb
 403              		.thumb_func
 405              	item_repos:
 406              	.LVL48:
 407              	.LFB202:
 546:Middlewares/lvgl/src/extra/layouts/grid/lv_grid.c ****     if(lv_obj_has_flag_any(item, LV_OBJ_FLAG_IGNORE_LAYOUT | LV_OBJ_FLAG_HIDDEN | LV_OBJ_FLAG_FLOAT
 408              		.loc 1 546 1 is_stmt 1 view -0
 409              		.cfi_startproc
 410              		@ args = 0, pretend = 0, frame = 32
 411              		@ frame_needed = 0, uses_anonymous_args = 0
 546:Middlewares/lvgl/src/extra/layouts/grid/lv_grid.c ****     if(lv_obj_has_flag_any(item, LV_OBJ_FLAG_IGNORE_LAYOUT | LV_OBJ_FLAG_HIDDEN | LV_OBJ_FLAG_FLOAT
 412              		.loc 1 546 1 is_stmt 0 view .LVU138
 413 0000 2DE9F04F 		push	{r4, r5, r6, r7, r8, r9, r10, fp, lr}
 414              	.LCFI1:
 415              		.cfi_def_cfa_offset 36
 416              		.cfi_offset 4, -36
 417              		.cfi_offset 5, -32
 418              		.cfi_offset 6, -28
 419              		.cfi_offset 7, -24
 420              		.cfi_offset 8, -20
 421              		.cfi_offset 9, -16
 422              		.cfi_offset 10, -12
 423              		.cfi_offset 11, -8
 424              		.cfi_offset 14, -4
 425 0004 89B0     		sub	sp, sp, #36
ARM GAS  /tmp/cc3I9fWq.s 			page 23


 426              	.LCFI2:
 427              		.cfi_def_cfa_offset 72
 428 0006 0446     		mov	r4, r0
 429 0008 0D46     		mov	r5, r1
 430 000a 0192     		str	r2, [sp, #4]
 547:Middlewares/lvgl/src/extra/layouts/grid/lv_grid.c ****     uint32_t col_span = get_col_span(item);
 431              		.loc 1 547 5 is_stmt 1 view .LVU139
 547:Middlewares/lvgl/src/extra/layouts/grid/lv_grid.c ****     uint32_t col_span = get_col_span(item);
 432              		.loc 1 547 8 is_stmt 0 view .LVU140
 433 000c C649     		ldr	r1, .L61
 434              	.LVL49:
 547:Middlewares/lvgl/src/extra/layouts/grid/lv_grid.c ****     uint32_t col_span = get_col_span(item);
 435              		.loc 1 547 8 view .LVU141
 436 000e FFF7FEFF 		bl	lv_obj_has_flag_any
 437              	.LVL50:
 547:Middlewares/lvgl/src/extra/layouts/grid/lv_grid.c ****     uint32_t col_span = get_col_span(item);
 438              		.loc 1 547 7 view .LVU142
 439 0012 10B1     		cbz	r0, .L54
 440              	.LVL51:
 441              	.L30:
 655:Middlewares/lvgl/src/extra/layouts/grid/lv_grid.c **** 
 442              		.loc 1 655 1 view .LVU143
 443 0014 09B0     		add	sp, sp, #36
 444              	.LCFI3:
 445              		.cfi_remember_state
 446              		.cfi_def_cfa_offset 36
 447              		@ sp needed
 448 0016 BDE8F08F 		pop	{r4, r5, r6, r7, r8, r9, r10, fp, pc}
 449              	.LVL52:
 450              	.L54:
 451              	.LCFI4:
 452              		.cfi_restore_state
 548:Middlewares/lvgl/src/extra/layouts/grid/lv_grid.c ****     uint32_t row_span = get_row_span(item);
 453              		.loc 1 548 5 is_stmt 1 view .LVU144
 454              	.LBB109:
 455              	.LBI109:
  64:Middlewares/lvgl/src/extra/layouts/grid/lv_grid.c **** static inline uint8_t get_row_span(lv_obj_t * obj) {return lv_obj_get_style_grid_cell_row_span(obj,
 456              		.loc 1 64 23 view .LVU145
 457              	.LBB110:
  64:Middlewares/lvgl/src/extra/layouts/grid/lv_grid.c **** static inline uint8_t get_row_span(lv_obj_t * obj) {return lv_obj_get_style_grid_cell_row_span(obj,
 458              		.loc 1 64 53 view .LVU146
 459              	.LBB111:
 460              	.LBI111:
 461              		.file 2 "Middlewares/lvgl/src/extra/layouts/grid/../grid/lv_grid.h"
   1:Middlewares/lvgl/src/extra/layouts/grid/../grid/lv_grid.h **** /**
   2:Middlewares/lvgl/src/extra/layouts/grid/../grid/lv_grid.h ****  * @file lv_grid.h
   3:Middlewares/lvgl/src/extra/layouts/grid/../grid/lv_grid.h ****  *
   4:Middlewares/lvgl/src/extra/layouts/grid/../grid/lv_grid.h ****  */
   5:Middlewares/lvgl/src/extra/layouts/grid/../grid/lv_grid.h **** 
   6:Middlewares/lvgl/src/extra/layouts/grid/../grid/lv_grid.h **** #ifndef LV_GRID_H
   7:Middlewares/lvgl/src/extra/layouts/grid/../grid/lv_grid.h **** #define LV_GRID_H
   8:Middlewares/lvgl/src/extra/layouts/grid/../grid/lv_grid.h **** 
   9:Middlewares/lvgl/src/extra/layouts/grid/../grid/lv_grid.h **** #ifdef __cplusplus
  10:Middlewares/lvgl/src/extra/layouts/grid/../grid/lv_grid.h **** extern "C" {
  11:Middlewares/lvgl/src/extra/layouts/grid/../grid/lv_grid.h **** #endif
  12:Middlewares/lvgl/src/extra/layouts/grid/../grid/lv_grid.h **** 
  13:Middlewares/lvgl/src/extra/layouts/grid/../grid/lv_grid.h **** /*********************
ARM GAS  /tmp/cc3I9fWq.s 			page 24


  14:Middlewares/lvgl/src/extra/layouts/grid/../grid/lv_grid.h ****  *      INCLUDES
  15:Middlewares/lvgl/src/extra/layouts/grid/../grid/lv_grid.h ****  *********************/
  16:Middlewares/lvgl/src/extra/layouts/grid/../grid/lv_grid.h **** #include "../../../core/lv_obj.h"
  17:Middlewares/lvgl/src/extra/layouts/grid/../grid/lv_grid.h **** #if LV_USE_GRID
  18:Middlewares/lvgl/src/extra/layouts/grid/../grid/lv_grid.h **** 
  19:Middlewares/lvgl/src/extra/layouts/grid/../grid/lv_grid.h **** /*********************
  20:Middlewares/lvgl/src/extra/layouts/grid/../grid/lv_grid.h ****  *      DEFINES
  21:Middlewares/lvgl/src/extra/layouts/grid/../grid/lv_grid.h ****  *********************/
  22:Middlewares/lvgl/src/extra/layouts/grid/../grid/lv_grid.h **** /**
  23:Middlewares/lvgl/src/extra/layouts/grid/../grid/lv_grid.h ****  * Can be used track size to make the track fill the free space.
  24:Middlewares/lvgl/src/extra/layouts/grid/../grid/lv_grid.h ****  * @param x how much space to take proportionally to other FR tracks
  25:Middlewares/lvgl/src/extra/layouts/grid/../grid/lv_grid.h ****  * @return a special track size
  26:Middlewares/lvgl/src/extra/layouts/grid/../grid/lv_grid.h ****  */
  27:Middlewares/lvgl/src/extra/layouts/grid/../grid/lv_grid.h **** #define LV_GRID_FR(x)          (LV_COORD_MAX - 100 + x)
  28:Middlewares/lvgl/src/extra/layouts/grid/../grid/lv_grid.h **** 
  29:Middlewares/lvgl/src/extra/layouts/grid/../grid/lv_grid.h **** #define LV_GRID_CONTENT        (LV_COORD_MAX - 101)
  30:Middlewares/lvgl/src/extra/layouts/grid/../grid/lv_grid.h **** LV_EXPORT_CONST_INT(LV_GRID_CONTENT);
  31:Middlewares/lvgl/src/extra/layouts/grid/../grid/lv_grid.h **** 
  32:Middlewares/lvgl/src/extra/layouts/grid/../grid/lv_grid.h **** #define LV_GRID_TEMPLATE_LAST  (LV_COORD_MAX)
  33:Middlewares/lvgl/src/extra/layouts/grid/../grid/lv_grid.h **** LV_EXPORT_CONST_INT(LV_GRID_TEMPLATE_LAST);
  34:Middlewares/lvgl/src/extra/layouts/grid/../grid/lv_grid.h **** 
  35:Middlewares/lvgl/src/extra/layouts/grid/../grid/lv_grid.h **** /**********************
  36:Middlewares/lvgl/src/extra/layouts/grid/../grid/lv_grid.h ****  *      TYPEDEFS
  37:Middlewares/lvgl/src/extra/layouts/grid/../grid/lv_grid.h ****  **********************/
  38:Middlewares/lvgl/src/extra/layouts/grid/../grid/lv_grid.h **** 
  39:Middlewares/lvgl/src/extra/layouts/grid/../grid/lv_grid.h **** /*Can't include lv_obj.h because it includes this header file*/
  40:Middlewares/lvgl/src/extra/layouts/grid/../grid/lv_grid.h **** struct _lv_obj_t;
  41:Middlewares/lvgl/src/extra/layouts/grid/../grid/lv_grid.h **** 
  42:Middlewares/lvgl/src/extra/layouts/grid/../grid/lv_grid.h **** typedef enum {
  43:Middlewares/lvgl/src/extra/layouts/grid/../grid/lv_grid.h ****     LV_GRID_ALIGN_START,
  44:Middlewares/lvgl/src/extra/layouts/grid/../grid/lv_grid.h ****     LV_GRID_ALIGN_CENTER,
  45:Middlewares/lvgl/src/extra/layouts/grid/../grid/lv_grid.h ****     LV_GRID_ALIGN_END,
  46:Middlewares/lvgl/src/extra/layouts/grid/../grid/lv_grid.h ****     LV_GRID_ALIGN_STRETCH,
  47:Middlewares/lvgl/src/extra/layouts/grid/../grid/lv_grid.h ****     LV_GRID_ALIGN_SPACE_EVENLY,
  48:Middlewares/lvgl/src/extra/layouts/grid/../grid/lv_grid.h ****     LV_GRID_ALIGN_SPACE_AROUND,
  49:Middlewares/lvgl/src/extra/layouts/grid/../grid/lv_grid.h ****     LV_GRID_ALIGN_SPACE_BETWEEN,
  50:Middlewares/lvgl/src/extra/layouts/grid/../grid/lv_grid.h **** }lv_grid_align_t;
  51:Middlewares/lvgl/src/extra/layouts/grid/../grid/lv_grid.h **** 
  52:Middlewares/lvgl/src/extra/layouts/grid/../grid/lv_grid.h **** /**********************
  53:Middlewares/lvgl/src/extra/layouts/grid/../grid/lv_grid.h ****  * GLOBAL VARIABLES
  54:Middlewares/lvgl/src/extra/layouts/grid/../grid/lv_grid.h ****  **********************/
  55:Middlewares/lvgl/src/extra/layouts/grid/../grid/lv_grid.h **** 
  56:Middlewares/lvgl/src/extra/layouts/grid/../grid/lv_grid.h **** extern uint32_t LV_LAYOUT_GRID;
  57:Middlewares/lvgl/src/extra/layouts/grid/../grid/lv_grid.h **** extern lv_style_prop_t LV_STYLE_GRID_COLUMN_DSC_ARRAY;
  58:Middlewares/lvgl/src/extra/layouts/grid/../grid/lv_grid.h **** extern lv_style_prop_t LV_STYLE_GRID_COLUMN_ALIGN;
  59:Middlewares/lvgl/src/extra/layouts/grid/../grid/lv_grid.h **** extern lv_style_prop_t LV_STYLE_GRID_ROW_DSC_ARRAY;
  60:Middlewares/lvgl/src/extra/layouts/grid/../grid/lv_grid.h **** extern lv_style_prop_t LV_STYLE_GRID_ROW_ALIGN;
  61:Middlewares/lvgl/src/extra/layouts/grid/../grid/lv_grid.h **** extern lv_style_prop_t LV_STYLE_GRID_CELL_COLUMN_POS;
  62:Middlewares/lvgl/src/extra/layouts/grid/../grid/lv_grid.h **** extern lv_style_prop_t LV_STYLE_GRID_CELL_COLUMN_SPAN;
  63:Middlewares/lvgl/src/extra/layouts/grid/../grid/lv_grid.h **** extern lv_style_prop_t LV_STYLE_GRID_CELL_X_ALIGN;
  64:Middlewares/lvgl/src/extra/layouts/grid/../grid/lv_grid.h **** extern lv_style_prop_t LV_STYLE_GRID_CELL_ROW_POS;
  65:Middlewares/lvgl/src/extra/layouts/grid/../grid/lv_grid.h **** extern lv_style_prop_t LV_STYLE_GRID_CELL_ROW_SPAN;
  66:Middlewares/lvgl/src/extra/layouts/grid/../grid/lv_grid.h **** extern lv_style_prop_t LV_STYLE_GRID_CELL_Y_ALIGN;
  67:Middlewares/lvgl/src/extra/layouts/grid/../grid/lv_grid.h **** 
  68:Middlewares/lvgl/src/extra/layouts/grid/../grid/lv_grid.h **** /**********************
  69:Middlewares/lvgl/src/extra/layouts/grid/../grid/lv_grid.h ****  * GLOBAL PROTOTYPES
  70:Middlewares/lvgl/src/extra/layouts/grid/../grid/lv_grid.h ****  **********************/
ARM GAS  /tmp/cc3I9fWq.s 			page 25


  71:Middlewares/lvgl/src/extra/layouts/grid/../grid/lv_grid.h **** 
  72:Middlewares/lvgl/src/extra/layouts/grid/../grid/lv_grid.h **** void lv_grid_init(void);
  73:Middlewares/lvgl/src/extra/layouts/grid/../grid/lv_grid.h **** 
  74:Middlewares/lvgl/src/extra/layouts/grid/../grid/lv_grid.h **** void lv_obj_set_grid_dsc_array(lv_obj_t * obj, const lv_coord_t col_dsc[], const lv_coord_t row_dsc
  75:Middlewares/lvgl/src/extra/layouts/grid/../grid/lv_grid.h **** 
  76:Middlewares/lvgl/src/extra/layouts/grid/../grid/lv_grid.h **** void lv_obj_set_grid_align(lv_obj_t * obj, lv_grid_align_t column_align, lv_grid_align_t row_align)
  77:Middlewares/lvgl/src/extra/layouts/grid/../grid/lv_grid.h **** 
  78:Middlewares/lvgl/src/extra/layouts/grid/../grid/lv_grid.h **** /**
  79:Middlewares/lvgl/src/extra/layouts/grid/../grid/lv_grid.h ****  * Set the cell of an object. The object's parent needs to have grid layout, else nothing will happ
  80:Middlewares/lvgl/src/extra/layouts/grid/../grid/lv_grid.h ****  * @param obj pointer to an object
  81:Middlewares/lvgl/src/extra/layouts/grid/../grid/lv_grid.h ****  * @param hor_place the vertical alignment in the cell. `LV_GRID_START/END/CENTER/STRETCH`
  82:Middlewares/lvgl/src/extra/layouts/grid/../grid/lv_grid.h ****  * @param col_pos column ID
  83:Middlewares/lvgl/src/extra/layouts/grid/../grid/lv_grid.h ****  * @param col_span number of columns to take (>= 1)
  84:Middlewares/lvgl/src/extra/layouts/grid/../grid/lv_grid.h ****  * @param ver_place the horizontal alignment in the cell. `LV_GRID_START/END/CENTER/STRETCH`
  85:Middlewares/lvgl/src/extra/layouts/grid/../grid/lv_grid.h ****  * @param row_pos row ID
  86:Middlewares/lvgl/src/extra/layouts/grid/../grid/lv_grid.h ****  * @param row_span number of rows to take (>= 1)
  87:Middlewares/lvgl/src/extra/layouts/grid/../grid/lv_grid.h ****  */
  88:Middlewares/lvgl/src/extra/layouts/grid/../grid/lv_grid.h **** void lv_obj_set_grid_cell(lv_obj_t * obj, lv_grid_align_t column_align, uint8_t col_pos, uint8_t co
  89:Middlewares/lvgl/src/extra/layouts/grid/../grid/lv_grid.h ****                                           lv_grid_align_t row_align, uint8_t row_pos, uint8_t row_s
  90:Middlewares/lvgl/src/extra/layouts/grid/../grid/lv_grid.h **** 
  91:Middlewares/lvgl/src/extra/layouts/grid/../grid/lv_grid.h **** /**
  92:Middlewares/lvgl/src/extra/layouts/grid/../grid/lv_grid.h ****  * Just a wrapper to `LV_GRID_FR` for bindings.
  93:Middlewares/lvgl/src/extra/layouts/grid/../grid/lv_grid.h ****  */
  94:Middlewares/lvgl/src/extra/layouts/grid/../grid/lv_grid.h **** static inline lv_coord_t lv_grid_fr(uint8_t x)
  95:Middlewares/lvgl/src/extra/layouts/grid/../grid/lv_grid.h **** {
  96:Middlewares/lvgl/src/extra/layouts/grid/../grid/lv_grid.h ****     return LV_GRID_FR(x);
  97:Middlewares/lvgl/src/extra/layouts/grid/../grid/lv_grid.h **** }
  98:Middlewares/lvgl/src/extra/layouts/grid/../grid/lv_grid.h **** 
  99:Middlewares/lvgl/src/extra/layouts/grid/../grid/lv_grid.h **** void lv_style_set_grid_row_dsc_array(lv_style_t * style, const lv_coord_t value[]);
 100:Middlewares/lvgl/src/extra/layouts/grid/../grid/lv_grid.h **** void lv_style_set_grid_column_dsc_array(lv_style_t * style, const lv_coord_t value[]);
 101:Middlewares/lvgl/src/extra/layouts/grid/../grid/lv_grid.h **** void lv_style_set_grid_row_align(lv_style_t * style, lv_grid_align_t value);
 102:Middlewares/lvgl/src/extra/layouts/grid/../grid/lv_grid.h **** void lv_style_set_grid_column_align(lv_style_t * style, lv_grid_align_t value);
 103:Middlewares/lvgl/src/extra/layouts/grid/../grid/lv_grid.h **** void lv_style_set_grid_cell_column_pos(lv_style_t * style, lv_coord_t value);
 104:Middlewares/lvgl/src/extra/layouts/grid/../grid/lv_grid.h **** void lv_style_set_grid_cell_column_span(lv_style_t * style, lv_coord_t value);
 105:Middlewares/lvgl/src/extra/layouts/grid/../grid/lv_grid.h **** void lv_style_set_grid_cell_row_pos(lv_style_t * style, lv_coord_t value);
 106:Middlewares/lvgl/src/extra/layouts/grid/../grid/lv_grid.h **** void lv_style_set_grid_cell_row_span(lv_style_t * style, lv_coord_t value);
 107:Middlewares/lvgl/src/extra/layouts/grid/../grid/lv_grid.h **** void lv_style_set_grid_cell_x_align(lv_style_t * style, lv_coord_t value);
 108:Middlewares/lvgl/src/extra/layouts/grid/../grid/lv_grid.h **** void lv_style_set_grid_cell_y_align(lv_style_t * style, lv_coord_t value);
 109:Middlewares/lvgl/src/extra/layouts/grid/../grid/lv_grid.h **** 
 110:Middlewares/lvgl/src/extra/layouts/grid/../grid/lv_grid.h **** void lv_obj_set_style_grid_row_dsc_array(lv_obj_t * obj, const lv_coord_t value[], lv_style_selecto
 111:Middlewares/lvgl/src/extra/layouts/grid/../grid/lv_grid.h **** void lv_obj_set_style_grid_column_dsc_array(lv_obj_t * obj, const lv_coord_t value[], lv_style_sele
 112:Middlewares/lvgl/src/extra/layouts/grid/../grid/lv_grid.h **** void lv_obj_set_style_grid_row_align(lv_obj_t * obj, lv_grid_align_t value, lv_style_selector_t sel
 113:Middlewares/lvgl/src/extra/layouts/grid/../grid/lv_grid.h **** void lv_obj_set_style_grid_column_align(lv_obj_t * obj, lv_grid_align_t value, lv_style_selector_t 
 114:Middlewares/lvgl/src/extra/layouts/grid/../grid/lv_grid.h **** void lv_obj_set_style_grid_cell_column_pos(lv_obj_t * obj, lv_coord_t value, lv_style_selector_t se
 115:Middlewares/lvgl/src/extra/layouts/grid/../grid/lv_grid.h **** void lv_obj_set_style_grid_cell_column_span(lv_obj_t * obj, lv_coord_t value, lv_style_selector_t s
 116:Middlewares/lvgl/src/extra/layouts/grid/../grid/lv_grid.h **** void lv_obj_set_style_grid_cell_row_pos(lv_obj_t * obj, lv_coord_t value, lv_style_selector_t selec
 117:Middlewares/lvgl/src/extra/layouts/grid/../grid/lv_grid.h **** void lv_obj_set_style_grid_cell_row_span(lv_obj_t * obj, lv_coord_t value, lv_style_selector_t sele
 118:Middlewares/lvgl/src/extra/layouts/grid/../grid/lv_grid.h **** void lv_obj_set_style_grid_cell_x_align(lv_obj_t * obj, lv_coord_t value, lv_style_selector_t selec
 119:Middlewares/lvgl/src/extra/layouts/grid/../grid/lv_grid.h **** void lv_obj_set_style_grid_cell_y_align(lv_obj_t * obj, lv_coord_t value, lv_style_selector_t selec
 120:Middlewares/lvgl/src/extra/layouts/grid/../grid/lv_grid.h **** 
 121:Middlewares/lvgl/src/extra/layouts/grid/../grid/lv_grid.h **** static inline const lv_coord_t * lv_obj_get_style_grid_row_dsc_array(const lv_obj_t * obj, uint32_t
 122:Middlewares/lvgl/src/extra/layouts/grid/../grid/lv_grid.h **** {
 123:Middlewares/lvgl/src/extra/layouts/grid/../grid/lv_grid.h ****     lv_style_value_t v = lv_obj_get_style_prop(obj, part, LV_STYLE_GRID_ROW_DSC_ARRAY);
 124:Middlewares/lvgl/src/extra/layouts/grid/../grid/lv_grid.h ****     return (const lv_coord_t *)v.ptr;
 125:Middlewares/lvgl/src/extra/layouts/grid/../grid/lv_grid.h **** }
 126:Middlewares/lvgl/src/extra/layouts/grid/../grid/lv_grid.h **** 
 127:Middlewares/lvgl/src/extra/layouts/grid/../grid/lv_grid.h **** static inline const lv_coord_t * lv_obj_get_style_grid_column_dsc_array(const lv_obj_t * obj, uint3
ARM GAS  /tmp/cc3I9fWq.s 			page 26


 128:Middlewares/lvgl/src/extra/layouts/grid/../grid/lv_grid.h **** {
 129:Middlewares/lvgl/src/extra/layouts/grid/../grid/lv_grid.h ****     lv_style_value_t v = lv_obj_get_style_prop(obj, part, LV_STYLE_GRID_COLUMN_DSC_ARRAY);
 130:Middlewares/lvgl/src/extra/layouts/grid/../grid/lv_grid.h ****     return (const lv_coord_t *)v.ptr;
 131:Middlewares/lvgl/src/extra/layouts/grid/../grid/lv_grid.h **** }
 132:Middlewares/lvgl/src/extra/layouts/grid/../grid/lv_grid.h **** 
 133:Middlewares/lvgl/src/extra/layouts/grid/../grid/lv_grid.h **** static inline lv_grid_align_t lv_obj_get_style_grid_row_align(const lv_obj_t * obj, uint32_t part)
 134:Middlewares/lvgl/src/extra/layouts/grid/../grid/lv_grid.h **** {
 135:Middlewares/lvgl/src/extra/layouts/grid/../grid/lv_grid.h ****     lv_style_value_t v = lv_obj_get_style_prop(obj, part, LV_STYLE_GRID_ROW_ALIGN);
 136:Middlewares/lvgl/src/extra/layouts/grid/../grid/lv_grid.h ****     return (lv_grid_align_t)v.num;
 137:Middlewares/lvgl/src/extra/layouts/grid/../grid/lv_grid.h **** }
 138:Middlewares/lvgl/src/extra/layouts/grid/../grid/lv_grid.h **** 
 139:Middlewares/lvgl/src/extra/layouts/grid/../grid/lv_grid.h **** static inline lv_grid_align_t lv_obj_get_style_grid_column_align(const lv_obj_t * obj, uint32_t par
 140:Middlewares/lvgl/src/extra/layouts/grid/../grid/lv_grid.h **** {
 141:Middlewares/lvgl/src/extra/layouts/grid/../grid/lv_grid.h ****     lv_style_value_t v = lv_obj_get_style_prop(obj, part, LV_STYLE_GRID_COLUMN_ALIGN);
 142:Middlewares/lvgl/src/extra/layouts/grid/../grid/lv_grid.h ****     return (lv_grid_align_t)v.num;
 143:Middlewares/lvgl/src/extra/layouts/grid/../grid/lv_grid.h **** }
 144:Middlewares/lvgl/src/extra/layouts/grid/../grid/lv_grid.h **** 
 145:Middlewares/lvgl/src/extra/layouts/grid/../grid/lv_grid.h **** static inline lv_coord_t lv_obj_get_style_grid_cell_column_pos(const lv_obj_t * obj, uint32_t part)
 146:Middlewares/lvgl/src/extra/layouts/grid/../grid/lv_grid.h **** {
 147:Middlewares/lvgl/src/extra/layouts/grid/../grid/lv_grid.h ****     lv_style_value_t v = lv_obj_get_style_prop(obj, part, LV_STYLE_GRID_CELL_COLUMN_POS);
 148:Middlewares/lvgl/src/extra/layouts/grid/../grid/lv_grid.h ****     return (lv_coord_t)v.num;
 149:Middlewares/lvgl/src/extra/layouts/grid/../grid/lv_grid.h **** }
 150:Middlewares/lvgl/src/extra/layouts/grid/../grid/lv_grid.h **** 
 151:Middlewares/lvgl/src/extra/layouts/grid/../grid/lv_grid.h **** static inline lv_coord_t lv_obj_get_style_grid_cell_column_span(const lv_obj_t * obj, uint32_t part
 462              		.loc 2 151 26 view .LVU147
 463              	.LBB112:
 152:Middlewares/lvgl/src/extra/layouts/grid/../grid/lv_grid.h **** {
 153:Middlewares/lvgl/src/extra/layouts/grid/../grid/lv_grid.h ****     lv_style_value_t v = lv_obj_get_style_prop(obj, part, LV_STYLE_GRID_CELL_COLUMN_SPAN);
 464              		.loc 2 153 5 view .LVU148
 465              		.loc 2 153 26 is_stmt 0 view .LVU149
 466 001a C44B     		ldr	r3, .L61+4
 467 001c 1A88     		ldrh	r2, [r3]
 468 001e 0021     		movs	r1, #0
 469 0020 2046     		mov	r0, r4
 470 0022 FFF7FEFF 		bl	lv_obj_get_style_prop
 471              	.LVL53:
 154:Middlewares/lvgl/src/extra/layouts/grid/../grid/lv_grid.h ****     return (lv_coord_t)v.num;
 472              		.loc 2 154 5 is_stmt 1 view .LVU150
 473              		.loc 2 154 5 is_stmt 0 view .LVU151
 474              	.LBE112:
 475              	.LBE111:
  64:Middlewares/lvgl/src/extra/layouts/grid/lv_grid.c **** static inline uint8_t get_row_span(lv_obj_t * obj) {return lv_obj_get_style_grid_cell_row_span(obj,
 476              		.loc 1 64 60 view .LVU152
 477 0026 C7B2     		uxtb	r7, r0
 478              	.LVL54:
  64:Middlewares/lvgl/src/extra/layouts/grid/lv_grid.c **** static inline uint8_t get_row_span(lv_obj_t * obj) {return lv_obj_get_style_grid_cell_row_span(obj,
 479              		.loc 1 64 60 view .LVU153
 480              	.LBE110:
 481              	.LBE109:
 549:Middlewares/lvgl/src/extra/layouts/grid/lv_grid.c ****     if(row_span == 0 || col_span == 0) return;
 482              		.loc 1 549 5 is_stmt 1 view .LVU154
 483              	.LBB113:
 484              	.LBI113:
  65:Middlewares/lvgl/src/extra/layouts/grid/lv_grid.c **** static inline uint8_t get_cell_col_align(lv_obj_t * obj) {return lv_obj_get_style_grid_cell_x_align
 485              		.loc 1 65 23 view .LVU155
 486              	.LBB114:
  65:Middlewares/lvgl/src/extra/layouts/grid/lv_grid.c **** static inline uint8_t get_cell_col_align(lv_obj_t * obj) {return lv_obj_get_style_grid_cell_x_align
ARM GAS  /tmp/cc3I9fWq.s 			page 27


 487              		.loc 1 65 53 view .LVU156
 488              	.LBB115:
 489              	.LBI115:
 155:Middlewares/lvgl/src/extra/layouts/grid/../grid/lv_grid.h **** }
 156:Middlewares/lvgl/src/extra/layouts/grid/../grid/lv_grid.h **** 
 157:Middlewares/lvgl/src/extra/layouts/grid/../grid/lv_grid.h **** static inline lv_coord_t lv_obj_get_style_grid_cell_row_pos(const lv_obj_t * obj, uint32_t part)
 158:Middlewares/lvgl/src/extra/layouts/grid/../grid/lv_grid.h **** {
 159:Middlewares/lvgl/src/extra/layouts/grid/../grid/lv_grid.h ****     lv_style_value_t v = lv_obj_get_style_prop(obj, part, LV_STYLE_GRID_CELL_ROW_POS);
 160:Middlewares/lvgl/src/extra/layouts/grid/../grid/lv_grid.h ****     return (lv_coord_t)v.num;
 161:Middlewares/lvgl/src/extra/layouts/grid/../grid/lv_grid.h **** }
 162:Middlewares/lvgl/src/extra/layouts/grid/../grid/lv_grid.h **** 
 163:Middlewares/lvgl/src/extra/layouts/grid/../grid/lv_grid.h **** static inline lv_coord_t lv_obj_get_style_grid_cell_row_span(const lv_obj_t * obj, uint32_t part)
 490              		.loc 2 163 26 view .LVU157
 491              	.LBB116:
 164:Middlewares/lvgl/src/extra/layouts/grid/../grid/lv_grid.h **** {
 165:Middlewares/lvgl/src/extra/layouts/grid/../grid/lv_grid.h ****     lv_style_value_t v = lv_obj_get_style_prop(obj, part, LV_STYLE_GRID_CELL_ROW_SPAN);
 492              		.loc 2 165 5 view .LVU158
 493              		.loc 2 165 26 is_stmt 0 view .LVU159
 494 0028 C14B     		ldr	r3, .L61+8
 495 002a 1A88     		ldrh	r2, [r3]
 496 002c 0021     		movs	r1, #0
 497 002e 2046     		mov	r0, r4
 498 0030 FFF7FEFF 		bl	lv_obj_get_style_prop
 499              	.LVL55:
 166:Middlewares/lvgl/src/extra/layouts/grid/../grid/lv_grid.h ****     return (lv_coord_t)v.num;
 500              		.loc 2 166 5 is_stmt 1 view .LVU160
 501              		.loc 2 166 5 is_stmt 0 view .LVU161
 502              	.LBE116:
 503              	.LBE115:
 504              	.LBE114:
 505              	.LBE113:
 550:Middlewares/lvgl/src/extra/layouts/grid/lv_grid.c **** 
 506              		.loc 1 550 5 is_stmt 1 view .LVU162
 550:Middlewares/lvgl/src/extra/layouts/grid/lv_grid.c **** 
 507              		.loc 1 550 17 is_stmt 0 view .LVU163
 508 0034 10F0FF06 		ands	r6, r0, #255
 509 0038 0CBF     		ite	eq
 510 003a 0123     		moveq	r3, #1
 511 003c 0023     		movne	r3, #0
 550:Middlewares/lvgl/src/extra/layouts/grid/lv_grid.c **** 
 512              		.loc 1 550 22 view .LVU164
 513 003e 002F     		cmp	r7, #0
 514 0040 08BF     		it	eq
 515 0042 43F00103 		orreq	r3, r3, #1
 550:Middlewares/lvgl/src/extra/layouts/grid/lv_grid.c **** 
 516              		.loc 1 550 7 view .LVU165
 517 0046 002B     		cmp	r3, #0
 518 0048 E4D1     		bne	.L30
 552:Middlewares/lvgl/src/extra/layouts/grid/lv_grid.c ****     uint32_t row_pos = get_row_pos(item);
 519              		.loc 1 552 5 is_stmt 1 view .LVU166
 520              	.LVL56:
 521              	.LBB117:
 522              	.LBI117:
  62:Middlewares/lvgl/src/extra/layouts/grid/lv_grid.c **** static inline uint8_t get_row_pos(lv_obj_t * obj) {return lv_obj_get_style_grid_cell_row_pos(obj, 0
 523              		.loc 1 62 23 view .LVU167
 524              	.LBB118:
  62:Middlewares/lvgl/src/extra/layouts/grid/lv_grid.c **** static inline uint8_t get_row_pos(lv_obj_t * obj) {return lv_obj_get_style_grid_cell_row_pos(obj, 0
ARM GAS  /tmp/cc3I9fWq.s 			page 28


 525              		.loc 1 62 52 view .LVU168
 526              	.LBB119:
 527              	.LBI119:
 145:Middlewares/lvgl/src/extra/layouts/grid/../grid/lv_grid.h **** {
 528              		.loc 2 145 26 view .LVU169
 529              	.LBB120:
 147:Middlewares/lvgl/src/extra/layouts/grid/../grid/lv_grid.h ****     return (lv_coord_t)v.num;
 530              		.loc 2 147 5 view .LVU170
 147:Middlewares/lvgl/src/extra/layouts/grid/../grid/lv_grid.h ****     return (lv_coord_t)v.num;
 531              		.loc 2 147 26 is_stmt 0 view .LVU171
 532 004a BA4B     		ldr	r3, .L61+12
 533 004c 1A88     		ldrh	r2, [r3]
 534 004e 0021     		movs	r1, #0
 535 0050 2046     		mov	r0, r4
 536              	.LVL57:
 147:Middlewares/lvgl/src/extra/layouts/grid/../grid/lv_grid.h ****     return (lv_coord_t)v.num;
 537              		.loc 2 147 26 view .LVU172
 538 0052 FFF7FEFF 		bl	lv_obj_get_style_prop
 539              	.LVL58:
 148:Middlewares/lvgl/src/extra/layouts/grid/../grid/lv_grid.h **** }
 540              		.loc 2 148 5 is_stmt 1 view .LVU173
 148:Middlewares/lvgl/src/extra/layouts/grid/../grid/lv_grid.h **** }
 541              		.loc 2 148 5 is_stmt 0 view .LVU174
 542              	.LBE120:
 543              	.LBE119:
  62:Middlewares/lvgl/src/extra/layouts/grid/lv_grid.c **** static inline uint8_t get_row_pos(lv_obj_t * obj) {return lv_obj_get_style_grid_cell_row_pos(obj, 0
 544              		.loc 1 62 59 view .LVU175
 545 0056 5FFA80FB 		uxtb	fp, r0
 546              	.LVL59:
  62:Middlewares/lvgl/src/extra/layouts/grid/lv_grid.c **** static inline uint8_t get_row_pos(lv_obj_t * obj) {return lv_obj_get_style_grid_cell_row_pos(obj, 0
 547              		.loc 1 62 59 view .LVU176
 548              	.LBE118:
 549              	.LBE117:
 553:Middlewares/lvgl/src/extra/layouts/grid/lv_grid.c ****     lv_grid_align_t col_align = get_cell_col_align(item);
 550              		.loc 1 553 5 is_stmt 1 view .LVU177
 551              	.LBB121:
 552              	.LBI121:
  63:Middlewares/lvgl/src/extra/layouts/grid/lv_grid.c **** static inline uint8_t get_col_span(lv_obj_t * obj) {return lv_obj_get_style_grid_cell_column_span(o
 553              		.loc 1 63 23 view .LVU178
 554              	.LBB122:
  63:Middlewares/lvgl/src/extra/layouts/grid/lv_grid.c **** static inline uint8_t get_col_span(lv_obj_t * obj) {return lv_obj_get_style_grid_cell_column_span(o
 555              		.loc 1 63 52 view .LVU179
 556              	.LBB123:
 557              	.LBI123:
 157:Middlewares/lvgl/src/extra/layouts/grid/../grid/lv_grid.h **** {
 558              		.loc 2 157 26 view .LVU180
 559              	.LBB124:
 159:Middlewares/lvgl/src/extra/layouts/grid/../grid/lv_grid.h ****     return (lv_coord_t)v.num;
 560              		.loc 2 159 5 view .LVU181
 159:Middlewares/lvgl/src/extra/layouts/grid/../grid/lv_grid.h ****     return (lv_coord_t)v.num;
 561              		.loc 2 159 26 is_stmt 0 view .LVU182
 562 005a B74B     		ldr	r3, .L61+16
 563 005c 1A88     		ldrh	r2, [r3]
 564 005e 0021     		movs	r1, #0
 565 0060 2046     		mov	r0, r4
 566 0062 FFF7FEFF 		bl	lv_obj_get_style_prop
 567              	.LVL60:
ARM GAS  /tmp/cc3I9fWq.s 			page 29


 160:Middlewares/lvgl/src/extra/layouts/grid/../grid/lv_grid.h **** }
 568              		.loc 2 160 5 is_stmt 1 view .LVU183
 160:Middlewares/lvgl/src/extra/layouts/grid/../grid/lv_grid.h **** }
 569              		.loc 2 160 5 is_stmt 0 view .LVU184
 570              	.LBE124:
 571              	.LBE123:
  63:Middlewares/lvgl/src/extra/layouts/grid/lv_grid.c **** static inline uint8_t get_col_span(lv_obj_t * obj) {return lv_obj_get_style_grid_cell_column_span(o
 572              		.loc 1 63 59 view .LVU185
 573 0066 5FFA80FA 		uxtb	r10, r0
 574              	.LVL61:
  63:Middlewares/lvgl/src/extra/layouts/grid/lv_grid.c **** static inline uint8_t get_col_span(lv_obj_t * obj) {return lv_obj_get_style_grid_cell_column_span(o
 575              		.loc 1 63 59 view .LVU186
 576              	.LBE122:
 577              	.LBE121:
 554:Middlewares/lvgl/src/extra/layouts/grid/lv_grid.c ****     lv_grid_align_t row_align = get_cell_row_align(item);
 578              		.loc 1 554 5 is_stmt 1 view .LVU187
 579              	.LBB125:
 580              	.LBI125:
  66:Middlewares/lvgl/src/extra/layouts/grid/lv_grid.c **** static inline uint8_t get_cell_row_align(lv_obj_t * obj) {return lv_obj_get_style_grid_cell_y_align
 581              		.loc 1 66 23 view .LVU188
 582              	.LBB126:
  66:Middlewares/lvgl/src/extra/layouts/grid/lv_grid.c **** static inline uint8_t get_cell_row_align(lv_obj_t * obj) {return lv_obj_get_style_grid_cell_y_align
 583              		.loc 1 66 59 view .LVU189
 584              	.LBB127:
 585              	.LBI127:
 167:Middlewares/lvgl/src/extra/layouts/grid/../grid/lv_grid.h **** }
 168:Middlewares/lvgl/src/extra/layouts/grid/../grid/lv_grid.h **** 
 169:Middlewares/lvgl/src/extra/layouts/grid/../grid/lv_grid.h **** static inline lv_coord_t lv_obj_get_style_grid_cell_x_align(const lv_obj_t * obj, uint32_t part)
 586              		.loc 2 169 26 view .LVU190
 587              	.LBB128:
 170:Middlewares/lvgl/src/extra/layouts/grid/../grid/lv_grid.h **** {
 171:Middlewares/lvgl/src/extra/layouts/grid/../grid/lv_grid.h ****     lv_style_value_t v = lv_obj_get_style_prop(obj, part, LV_STYLE_GRID_CELL_X_ALIGN);
 588              		.loc 2 171 5 view .LVU191
 589              		.loc 2 171 26 is_stmt 0 view .LVU192
 590 006a B44B     		ldr	r3, .L61+20
 591 006c 1A88     		ldrh	r2, [r3]
 592 006e 0021     		movs	r1, #0
 593 0070 2046     		mov	r0, r4
 594 0072 FFF7FEFF 		bl	lv_obj_get_style_prop
 595              	.LVL62:
 172:Middlewares/lvgl/src/extra/layouts/grid/../grid/lv_grid.h ****     return (lv_coord_t)v.num;
 596              		.loc 2 172 5 is_stmt 1 view .LVU193
 597              		.loc 2 172 5 is_stmt 0 view .LVU194
 598              	.LBE128:
 599              	.LBE127:
  66:Middlewares/lvgl/src/extra/layouts/grid/lv_grid.c **** static inline uint8_t get_cell_row_align(lv_obj_t * obj) {return lv_obj_get_style_grid_cell_y_align
 600              		.loc 1 66 66 view .LVU195
 601 0076 5FFA80F8 		uxtb	r8, r0
 602              	.LVL63:
  66:Middlewares/lvgl/src/extra/layouts/grid/lv_grid.c **** static inline uint8_t get_cell_row_align(lv_obj_t * obj) {return lv_obj_get_style_grid_cell_y_align
 603              		.loc 1 66 66 view .LVU196
 604              	.LBE126:
 605              	.LBE125:
 555:Middlewares/lvgl/src/extra/layouts/grid/lv_grid.c **** 
 606              		.loc 1 555 5 is_stmt 1 view .LVU197
 607              	.LBB129:
 608              	.LBI129:
ARM GAS  /tmp/cc3I9fWq.s 			page 30


  67:Middlewares/lvgl/src/extra/layouts/grid/lv_grid.c **** static inline uint8_t get_grid_col_align(lv_obj_t * obj) {return lv_obj_get_style_grid_column_align
 609              		.loc 1 67 23 view .LVU198
 610              	.LBB130:
  67:Middlewares/lvgl/src/extra/layouts/grid/lv_grid.c **** static inline uint8_t get_grid_col_align(lv_obj_t * obj) {return lv_obj_get_style_grid_column_align
 611              		.loc 1 67 59 view .LVU199
 612              	.LBB131:
 613              	.LBI131:
 173:Middlewares/lvgl/src/extra/layouts/grid/../grid/lv_grid.h **** }
 174:Middlewares/lvgl/src/extra/layouts/grid/../grid/lv_grid.h **** 
 175:Middlewares/lvgl/src/extra/layouts/grid/../grid/lv_grid.h **** static inline lv_coord_t lv_obj_get_style_grid_cell_y_align(const lv_obj_t * obj, uint32_t part)
 614              		.loc 2 175 26 view .LVU200
 615              	.LBB132:
 176:Middlewares/lvgl/src/extra/layouts/grid/../grid/lv_grid.h **** {
 177:Middlewares/lvgl/src/extra/layouts/grid/../grid/lv_grid.h ****     lv_style_value_t v = lv_obj_get_style_prop(obj, part, LV_STYLE_GRID_CELL_Y_ALIGN);
 616              		.loc 2 177 5 view .LVU201
 617              		.loc 2 177 26 is_stmt 0 view .LVU202
 618 007a B14B     		ldr	r3, .L61+24
 619 007c 1A88     		ldrh	r2, [r3]
 620 007e 0021     		movs	r1, #0
 621 0080 2046     		mov	r0, r4
 622 0082 FFF7FEFF 		bl	lv_obj_get_style_prop
 623              	.LVL64:
 178:Middlewares/lvgl/src/extra/layouts/grid/../grid/lv_grid.h ****     return (lv_coord_t)v.num;
 624              		.loc 2 178 5 is_stmt 1 view .LVU203
 625              		.loc 2 178 5 is_stmt 0 view .LVU204
 626              	.LBE132:
 627              	.LBE131:
  67:Middlewares/lvgl/src/extra/layouts/grid/lv_grid.c **** static inline uint8_t get_grid_col_align(lv_obj_t * obj) {return lv_obj_get_style_grid_column_align
 628              		.loc 1 67 66 view .LVU205
 629 0086 5FFA80F9 		uxtb	r9, r0
 630              	.LVL65:
  67:Middlewares/lvgl/src/extra/layouts/grid/lv_grid.c **** static inline uint8_t get_grid_col_align(lv_obj_t * obj) {return lv_obj_get_style_grid_column_align
 631              		.loc 1 67 66 view .LVU206
 632              	.LBE130:
 633              	.LBE129:
 558:Middlewares/lvgl/src/extra/layouts/grid/lv_grid.c ****     lv_coord_t col_x2 = c->x[col_pos + col_span - 1] + c->w[col_pos + col_span - 1];
 634              		.loc 1 558 5 is_stmt 1 view .LVU207
 558:Middlewares/lvgl/src/extra/layouts/grid/lv_grid.c ****     lv_coord_t col_x2 = c->x[col_pos + col_span - 1] + c->w[col_pos + col_span - 1];
 635              		.loc 1 558 26 is_stmt 0 view .LVU208
 636 008a 2B68     		ldr	r3, [r5]
 558:Middlewares/lvgl/src/extra/layouts/grid/lv_grid.c ****     lv_coord_t col_x2 = c->x[col_pos + col_span - 1] + c->w[col_pos + col_span - 1];
 637              		.loc 1 558 16 view .LVU209
 638 008c 33F91B10 		ldrsh	r1, [r3, fp, lsl #1]
 639              	.LVL66:
 559:Middlewares/lvgl/src/extra/layouts/grid/lv_grid.c ****     lv_coord_t col_w = col_x2 - col_x1;
 640              		.loc 1 559 5 is_stmt 1 view .LVU210
 559:Middlewares/lvgl/src/extra/layouts/grid/lv_grid.c ****     lv_coord_t col_w = col_x2 - col_x1;
 641              		.loc 1 559 38 is_stmt 0 view .LVU211
 642 0090 5F44     		add	r7, r7, fp
 643              	.LVL67:
 559:Middlewares/lvgl/src/extra/layouts/grid/lv_grid.c ****     lv_coord_t col_w = col_x2 - col_x1;
 644              		.loc 1 559 29 view .LVU212
 645 0092 6FF00042 		mvn	r2, #-2147483648
 646 0096 1744     		add	r7, r7, r2
 647 0098 33F81730 		ldrh	r3, [r3, r7, lsl #1]
 559:Middlewares/lvgl/src/extra/layouts/grid/lv_grid.c ****     lv_coord_t col_w = col_x2 - col_x1;
 648              		.loc 1 559 57 view .LVU213
ARM GAS  /tmp/cc3I9fWq.s 			page 31


 649 009c A868     		ldr	r0, [r5, #8]
 559:Middlewares/lvgl/src/extra/layouts/grid/lv_grid.c ****     lv_coord_t col_w = col_x2 - col_x1;
 650              		.loc 1 559 60 view .LVU214
 651 009e 30F81700 		ldrh	r0, [r0, r7, lsl #1]
 559:Middlewares/lvgl/src/extra/layouts/grid/lv_grid.c ****     lv_coord_t col_w = col_x2 - col_x1;
 652              		.loc 1 559 54 view .LVU215
 653 00a2 0344     		add	r3, r3, r0
 654 00a4 9BB2     		uxth	r3, r3
 655              	.LVL68:
 560:Middlewares/lvgl/src/extra/layouts/grid/lv_grid.c **** 
 656              		.loc 1 560 5 is_stmt 1 view .LVU216
 560:Middlewares/lvgl/src/extra/layouts/grid/lv_grid.c **** 
 657              		.loc 1 560 31 is_stmt 0 view .LVU217
 658 00a6 5B1A     		subs	r3, r3, r1
 659              	.LVL69:
 560:Middlewares/lvgl/src/extra/layouts/grid/lv_grid.c **** 
 660              		.loc 1 560 31 view .LVU218
 661 00a8 99B2     		uxth	r1, r3
 662              	.LVL70:
 560:Middlewares/lvgl/src/extra/layouts/grid/lv_grid.c **** 
 663              		.loc 1 560 31 view .LVU219
 664 00aa 0491     		str	r1, [sp, #16]
 560:Middlewares/lvgl/src/extra/layouts/grid/lv_grid.c **** 
 665              		.loc 1 560 16 view .LVU220
 666 00ac 1BB2     		sxth	r3, r3
 667 00ae 0293     		str	r3, [sp, #8]
 668              	.LVL71:
 562:Middlewares/lvgl/src/extra/layouts/grid/lv_grid.c ****     lv_coord_t row_y2 = c->y[row_pos + row_span - 1] + c->h[row_pos + row_span - 1];
 669              		.loc 1 562 5 is_stmt 1 view .LVU221
 562:Middlewares/lvgl/src/extra/layouts/grid/lv_grid.c ****     lv_coord_t row_y2 = c->y[row_pos + row_span - 1] + c->h[row_pos + row_span - 1];
 670              		.loc 1 562 26 is_stmt 0 view .LVU222
 671 00b0 6B68     		ldr	r3, [r5, #4]
 562:Middlewares/lvgl/src/extra/layouts/grid/lv_grid.c ****     lv_coord_t row_y2 = c->y[row_pos + row_span - 1] + c->h[row_pos + row_span - 1];
 672              		.loc 1 562 16 view .LVU223
 673 00b2 33F91A10 		ldrsh	r1, [r3, r10, lsl #1]
 674              	.LVL72:
 563:Middlewares/lvgl/src/extra/layouts/grid/lv_grid.c ****     lv_coord_t row_h = row_y2 - row_y1;
 675              		.loc 1 563 5 is_stmt 1 view .LVU224
 563:Middlewares/lvgl/src/extra/layouts/grid/lv_grid.c ****     lv_coord_t row_h = row_y2 - row_y1;
 676              		.loc 1 563 38 is_stmt 0 view .LVU225
 677 00b6 5644     		add	r6, r6, r10
 563:Middlewares/lvgl/src/extra/layouts/grid/lv_grid.c ****     lv_coord_t row_h = row_y2 - row_y1;
 678              		.loc 1 563 29 view .LVU226
 679 00b8 3244     		add	r2, r2, r6
 680 00ba 33F81230 		ldrh	r3, [r3, r2, lsl #1]
 563:Middlewares/lvgl/src/extra/layouts/grid/lv_grid.c ****     lv_coord_t row_h = row_y2 - row_y1;
 681              		.loc 1 563 57 view .LVU227
 682 00be E868     		ldr	r0, [r5, #12]
 683              	.LVL73:
 563:Middlewares/lvgl/src/extra/layouts/grid/lv_grid.c ****     lv_coord_t row_h = row_y2 - row_y1;
 684              		.loc 1 563 60 view .LVU228
 685 00c0 30F81220 		ldrh	r2, [r0, r2, lsl #1]
 563:Middlewares/lvgl/src/extra/layouts/grid/lv_grid.c ****     lv_coord_t row_h = row_y2 - row_y1;
 686              		.loc 1 563 54 view .LVU229
 687 00c4 1344     		add	r3, r3, r2
 688 00c6 9BB2     		uxth	r3, r3
 689              	.LVL74:
ARM GAS  /tmp/cc3I9fWq.s 			page 32


 564:Middlewares/lvgl/src/extra/layouts/grid/lv_grid.c **** 
 690              		.loc 1 564 5 is_stmt 1 view .LVU230
 564:Middlewares/lvgl/src/extra/layouts/grid/lv_grid.c **** 
 691              		.loc 1 564 31 is_stmt 0 view .LVU231
 692 00c8 5B1A     		subs	r3, r3, r1
 693              	.LVL75:
 564:Middlewares/lvgl/src/extra/layouts/grid/lv_grid.c **** 
 694              		.loc 1 564 31 view .LVU232
 695 00ca 9AB2     		uxth	r2, r3
 696              	.LVL76:
 564:Middlewares/lvgl/src/extra/layouts/grid/lv_grid.c **** 
 697              		.loc 1 564 31 view .LVU233
 698 00cc 0592     		str	r2, [sp, #20]
 564:Middlewares/lvgl/src/extra/layouts/grid/lv_grid.c **** 
 699              		.loc 1 564 16 view .LVU234
 700 00ce 1BB2     		sxth	r3, r3
 701 00d0 0393     		str	r3, [sp, #12]
 702              	.LVL77:
 568:Middlewares/lvgl/src/extra/layouts/grid/lv_grid.c ****         if(col_align == LV_GRID_ALIGN_START) col_align = LV_GRID_ALIGN_END;
 703              		.loc 1 568 5 is_stmt 1 view .LVU235
 704              	.LBB133:
 705              	.LBI133:
 706              		.file 3 "Middlewares/lvgl/src/extra/layouts/grid/../flex/../../../core/lv_obj_style_gen.h"
   1:Middlewares/lvgl/src/extra/layouts/grid/../flex/../../../core/lv_obj_style_gen.h **** static inline lv_coord_t lv_obj_get_style_width(const struct _lv_obj_t * obj, uint32_t part)
   2:Middlewares/lvgl/src/extra/layouts/grid/../flex/../../../core/lv_obj_style_gen.h **** {
   3:Middlewares/lvgl/src/extra/layouts/grid/../flex/../../../core/lv_obj_style_gen.h ****     lv_style_value_t v = lv_obj_get_style_prop(obj, part, LV_STYLE_WIDTH);
   4:Middlewares/lvgl/src/extra/layouts/grid/../flex/../../../core/lv_obj_style_gen.h ****     return (lv_coord_t)v.num;
   5:Middlewares/lvgl/src/extra/layouts/grid/../flex/../../../core/lv_obj_style_gen.h **** }
   6:Middlewares/lvgl/src/extra/layouts/grid/../flex/../../../core/lv_obj_style_gen.h **** 
   7:Middlewares/lvgl/src/extra/layouts/grid/../flex/../../../core/lv_obj_style_gen.h **** static inline lv_coord_t lv_obj_get_style_min_width(const struct _lv_obj_t * obj, uint32_t part)
   8:Middlewares/lvgl/src/extra/layouts/grid/../flex/../../../core/lv_obj_style_gen.h **** {
   9:Middlewares/lvgl/src/extra/layouts/grid/../flex/../../../core/lv_obj_style_gen.h ****     lv_style_value_t v = lv_obj_get_style_prop(obj, part, LV_STYLE_MIN_WIDTH);
  10:Middlewares/lvgl/src/extra/layouts/grid/../flex/../../../core/lv_obj_style_gen.h ****     return (lv_coord_t)v.num;
  11:Middlewares/lvgl/src/extra/layouts/grid/../flex/../../../core/lv_obj_style_gen.h **** }
  12:Middlewares/lvgl/src/extra/layouts/grid/../flex/../../../core/lv_obj_style_gen.h **** 
  13:Middlewares/lvgl/src/extra/layouts/grid/../flex/../../../core/lv_obj_style_gen.h **** static inline lv_coord_t lv_obj_get_style_max_width(const struct _lv_obj_t * obj, uint32_t part)
  14:Middlewares/lvgl/src/extra/layouts/grid/../flex/../../../core/lv_obj_style_gen.h **** {
  15:Middlewares/lvgl/src/extra/layouts/grid/../flex/../../../core/lv_obj_style_gen.h ****     lv_style_value_t v = lv_obj_get_style_prop(obj, part, LV_STYLE_MAX_WIDTH);
  16:Middlewares/lvgl/src/extra/layouts/grid/../flex/../../../core/lv_obj_style_gen.h ****     return (lv_coord_t)v.num;
  17:Middlewares/lvgl/src/extra/layouts/grid/../flex/../../../core/lv_obj_style_gen.h **** }
  18:Middlewares/lvgl/src/extra/layouts/grid/../flex/../../../core/lv_obj_style_gen.h **** 
  19:Middlewares/lvgl/src/extra/layouts/grid/../flex/../../../core/lv_obj_style_gen.h **** static inline lv_coord_t lv_obj_get_style_height(const struct _lv_obj_t * obj, uint32_t part)
  20:Middlewares/lvgl/src/extra/layouts/grid/../flex/../../../core/lv_obj_style_gen.h **** {
  21:Middlewares/lvgl/src/extra/layouts/grid/../flex/../../../core/lv_obj_style_gen.h ****     lv_style_value_t v = lv_obj_get_style_prop(obj, part, LV_STYLE_HEIGHT);
  22:Middlewares/lvgl/src/extra/layouts/grid/../flex/../../../core/lv_obj_style_gen.h ****     return (lv_coord_t)v.num;
  23:Middlewares/lvgl/src/extra/layouts/grid/../flex/../../../core/lv_obj_style_gen.h **** }
  24:Middlewares/lvgl/src/extra/layouts/grid/../flex/../../../core/lv_obj_style_gen.h **** 
  25:Middlewares/lvgl/src/extra/layouts/grid/../flex/../../../core/lv_obj_style_gen.h **** static inline lv_coord_t lv_obj_get_style_min_height(const struct _lv_obj_t * obj, uint32_t part)
  26:Middlewares/lvgl/src/extra/layouts/grid/../flex/../../../core/lv_obj_style_gen.h **** {
  27:Middlewares/lvgl/src/extra/layouts/grid/../flex/../../../core/lv_obj_style_gen.h ****     lv_style_value_t v = lv_obj_get_style_prop(obj, part, LV_STYLE_MIN_HEIGHT);
  28:Middlewares/lvgl/src/extra/layouts/grid/../flex/../../../core/lv_obj_style_gen.h ****     return (lv_coord_t)v.num;
  29:Middlewares/lvgl/src/extra/layouts/grid/../flex/../../../core/lv_obj_style_gen.h **** }
  30:Middlewares/lvgl/src/extra/layouts/grid/../flex/../../../core/lv_obj_style_gen.h **** 
  31:Middlewares/lvgl/src/extra/layouts/grid/../flex/../../../core/lv_obj_style_gen.h **** static inline lv_coord_t lv_obj_get_style_max_height(const struct _lv_obj_t * obj, uint32_t part)
  32:Middlewares/lvgl/src/extra/layouts/grid/../flex/../../../core/lv_obj_style_gen.h **** {
  33:Middlewares/lvgl/src/extra/layouts/grid/../flex/../../../core/lv_obj_style_gen.h ****     lv_style_value_t v = lv_obj_get_style_prop(obj, part, LV_STYLE_MAX_HEIGHT);
  34:Middlewares/lvgl/src/extra/layouts/grid/../flex/../../../core/lv_obj_style_gen.h ****     return (lv_coord_t)v.num;
ARM GAS  /tmp/cc3I9fWq.s 			page 33


  35:Middlewares/lvgl/src/extra/layouts/grid/../flex/../../../core/lv_obj_style_gen.h **** }
  36:Middlewares/lvgl/src/extra/layouts/grid/../flex/../../../core/lv_obj_style_gen.h **** 
  37:Middlewares/lvgl/src/extra/layouts/grid/../flex/../../../core/lv_obj_style_gen.h **** static inline lv_coord_t lv_obj_get_style_x(const struct _lv_obj_t * obj, uint32_t part)
  38:Middlewares/lvgl/src/extra/layouts/grid/../flex/../../../core/lv_obj_style_gen.h **** {
  39:Middlewares/lvgl/src/extra/layouts/grid/../flex/../../../core/lv_obj_style_gen.h ****     lv_style_value_t v = lv_obj_get_style_prop(obj, part, LV_STYLE_X);
  40:Middlewares/lvgl/src/extra/layouts/grid/../flex/../../../core/lv_obj_style_gen.h ****     return (lv_coord_t)v.num;
  41:Middlewares/lvgl/src/extra/layouts/grid/../flex/../../../core/lv_obj_style_gen.h **** }
  42:Middlewares/lvgl/src/extra/layouts/grid/../flex/../../../core/lv_obj_style_gen.h **** 
  43:Middlewares/lvgl/src/extra/layouts/grid/../flex/../../../core/lv_obj_style_gen.h **** static inline lv_coord_t lv_obj_get_style_y(const struct _lv_obj_t * obj, uint32_t part)
  44:Middlewares/lvgl/src/extra/layouts/grid/../flex/../../../core/lv_obj_style_gen.h **** {
  45:Middlewares/lvgl/src/extra/layouts/grid/../flex/../../../core/lv_obj_style_gen.h ****     lv_style_value_t v = lv_obj_get_style_prop(obj, part, LV_STYLE_Y);
  46:Middlewares/lvgl/src/extra/layouts/grid/../flex/../../../core/lv_obj_style_gen.h ****     return (lv_coord_t)v.num;
  47:Middlewares/lvgl/src/extra/layouts/grid/../flex/../../../core/lv_obj_style_gen.h **** }
  48:Middlewares/lvgl/src/extra/layouts/grid/../flex/../../../core/lv_obj_style_gen.h **** 
  49:Middlewares/lvgl/src/extra/layouts/grid/../flex/../../../core/lv_obj_style_gen.h **** static inline lv_align_t lv_obj_get_style_align(const struct _lv_obj_t * obj, uint32_t part)
  50:Middlewares/lvgl/src/extra/layouts/grid/../flex/../../../core/lv_obj_style_gen.h **** {
  51:Middlewares/lvgl/src/extra/layouts/grid/../flex/../../../core/lv_obj_style_gen.h ****     lv_style_value_t v = lv_obj_get_style_prop(obj, part, LV_STYLE_ALIGN);
  52:Middlewares/lvgl/src/extra/layouts/grid/../flex/../../../core/lv_obj_style_gen.h ****     return (lv_align_t)v.num;
  53:Middlewares/lvgl/src/extra/layouts/grid/../flex/../../../core/lv_obj_style_gen.h **** }
  54:Middlewares/lvgl/src/extra/layouts/grid/../flex/../../../core/lv_obj_style_gen.h **** 
  55:Middlewares/lvgl/src/extra/layouts/grid/../flex/../../../core/lv_obj_style_gen.h **** static inline lv_coord_t lv_obj_get_style_transform_width(const struct _lv_obj_t * obj, uint32_t pa
  56:Middlewares/lvgl/src/extra/layouts/grid/../flex/../../../core/lv_obj_style_gen.h **** {
  57:Middlewares/lvgl/src/extra/layouts/grid/../flex/../../../core/lv_obj_style_gen.h ****     lv_style_value_t v = lv_obj_get_style_prop(obj, part, LV_STYLE_TRANSFORM_WIDTH);
  58:Middlewares/lvgl/src/extra/layouts/grid/../flex/../../../core/lv_obj_style_gen.h ****     return (lv_coord_t)v.num;
  59:Middlewares/lvgl/src/extra/layouts/grid/../flex/../../../core/lv_obj_style_gen.h **** }
  60:Middlewares/lvgl/src/extra/layouts/grid/../flex/../../../core/lv_obj_style_gen.h **** 
  61:Middlewares/lvgl/src/extra/layouts/grid/../flex/../../../core/lv_obj_style_gen.h **** static inline lv_coord_t lv_obj_get_style_transform_height(const struct _lv_obj_t * obj, uint32_t p
  62:Middlewares/lvgl/src/extra/layouts/grid/../flex/../../../core/lv_obj_style_gen.h **** {
  63:Middlewares/lvgl/src/extra/layouts/grid/../flex/../../../core/lv_obj_style_gen.h ****     lv_style_value_t v = lv_obj_get_style_prop(obj, part, LV_STYLE_TRANSFORM_HEIGHT);
  64:Middlewares/lvgl/src/extra/layouts/grid/../flex/../../../core/lv_obj_style_gen.h ****     return (lv_coord_t)v.num;
  65:Middlewares/lvgl/src/extra/layouts/grid/../flex/../../../core/lv_obj_style_gen.h **** }
  66:Middlewares/lvgl/src/extra/layouts/grid/../flex/../../../core/lv_obj_style_gen.h **** 
  67:Middlewares/lvgl/src/extra/layouts/grid/../flex/../../../core/lv_obj_style_gen.h **** static inline lv_coord_t lv_obj_get_style_translate_x(const struct _lv_obj_t * obj, uint32_t part)
  68:Middlewares/lvgl/src/extra/layouts/grid/../flex/../../../core/lv_obj_style_gen.h **** {
  69:Middlewares/lvgl/src/extra/layouts/grid/../flex/../../../core/lv_obj_style_gen.h ****     lv_style_value_t v = lv_obj_get_style_prop(obj, part, LV_STYLE_TRANSLATE_X);
  70:Middlewares/lvgl/src/extra/layouts/grid/../flex/../../../core/lv_obj_style_gen.h ****     return (lv_coord_t)v.num;
  71:Middlewares/lvgl/src/extra/layouts/grid/../flex/../../../core/lv_obj_style_gen.h **** }
  72:Middlewares/lvgl/src/extra/layouts/grid/../flex/../../../core/lv_obj_style_gen.h **** 
  73:Middlewares/lvgl/src/extra/layouts/grid/../flex/../../../core/lv_obj_style_gen.h **** static inline lv_coord_t lv_obj_get_style_translate_y(const struct _lv_obj_t * obj, uint32_t part)
  74:Middlewares/lvgl/src/extra/layouts/grid/../flex/../../../core/lv_obj_style_gen.h **** {
  75:Middlewares/lvgl/src/extra/layouts/grid/../flex/../../../core/lv_obj_style_gen.h ****     lv_style_value_t v = lv_obj_get_style_prop(obj, part, LV_STYLE_TRANSLATE_Y);
  76:Middlewares/lvgl/src/extra/layouts/grid/../flex/../../../core/lv_obj_style_gen.h ****     return (lv_coord_t)v.num;
  77:Middlewares/lvgl/src/extra/layouts/grid/../flex/../../../core/lv_obj_style_gen.h **** }
  78:Middlewares/lvgl/src/extra/layouts/grid/../flex/../../../core/lv_obj_style_gen.h **** 
  79:Middlewares/lvgl/src/extra/layouts/grid/../flex/../../../core/lv_obj_style_gen.h **** static inline lv_coord_t lv_obj_get_style_transform_zoom(const struct _lv_obj_t * obj, uint32_t par
  80:Middlewares/lvgl/src/extra/layouts/grid/../flex/../../../core/lv_obj_style_gen.h **** {
  81:Middlewares/lvgl/src/extra/layouts/grid/../flex/../../../core/lv_obj_style_gen.h ****     lv_style_value_t v = lv_obj_get_style_prop(obj, part, LV_STYLE_TRANSFORM_ZOOM);
  82:Middlewares/lvgl/src/extra/layouts/grid/../flex/../../../core/lv_obj_style_gen.h ****     return (lv_coord_t)v.num;
  83:Middlewares/lvgl/src/extra/layouts/grid/../flex/../../../core/lv_obj_style_gen.h **** }
  84:Middlewares/lvgl/src/extra/layouts/grid/../flex/../../../core/lv_obj_style_gen.h **** 
  85:Middlewares/lvgl/src/extra/layouts/grid/../flex/../../../core/lv_obj_style_gen.h **** static inline lv_coord_t lv_obj_get_style_transform_angle(const struct _lv_obj_t * obj, uint32_t pa
  86:Middlewares/lvgl/src/extra/layouts/grid/../flex/../../../core/lv_obj_style_gen.h **** {
  87:Middlewares/lvgl/src/extra/layouts/grid/../flex/../../../core/lv_obj_style_gen.h ****     lv_style_value_t v = lv_obj_get_style_prop(obj, part, LV_STYLE_TRANSFORM_ANGLE);
  88:Middlewares/lvgl/src/extra/layouts/grid/../flex/../../../core/lv_obj_style_gen.h ****     return (lv_coord_t)v.num;
  89:Middlewares/lvgl/src/extra/layouts/grid/../flex/../../../core/lv_obj_style_gen.h **** }
  90:Middlewares/lvgl/src/extra/layouts/grid/../flex/../../../core/lv_obj_style_gen.h **** 
  91:Middlewares/lvgl/src/extra/layouts/grid/../flex/../../../core/lv_obj_style_gen.h **** static inline lv_coord_t lv_obj_get_style_pad_top(const struct _lv_obj_t * obj, uint32_t part)
ARM GAS  /tmp/cc3I9fWq.s 			page 34


  92:Middlewares/lvgl/src/extra/layouts/grid/../flex/../../../core/lv_obj_style_gen.h **** {
  93:Middlewares/lvgl/src/extra/layouts/grid/../flex/../../../core/lv_obj_style_gen.h ****     lv_style_value_t v = lv_obj_get_style_prop(obj, part, LV_STYLE_PAD_TOP);
  94:Middlewares/lvgl/src/extra/layouts/grid/../flex/../../../core/lv_obj_style_gen.h ****     return (lv_coord_t)v.num;
  95:Middlewares/lvgl/src/extra/layouts/grid/../flex/../../../core/lv_obj_style_gen.h **** }
  96:Middlewares/lvgl/src/extra/layouts/grid/../flex/../../../core/lv_obj_style_gen.h **** 
  97:Middlewares/lvgl/src/extra/layouts/grid/../flex/../../../core/lv_obj_style_gen.h **** static inline lv_coord_t lv_obj_get_style_pad_bottom(const struct _lv_obj_t * obj, uint32_t part)
  98:Middlewares/lvgl/src/extra/layouts/grid/../flex/../../../core/lv_obj_style_gen.h **** {
  99:Middlewares/lvgl/src/extra/layouts/grid/../flex/../../../core/lv_obj_style_gen.h ****     lv_style_value_t v = lv_obj_get_style_prop(obj, part, LV_STYLE_PAD_BOTTOM);
 100:Middlewares/lvgl/src/extra/layouts/grid/../flex/../../../core/lv_obj_style_gen.h ****     return (lv_coord_t)v.num;
 101:Middlewares/lvgl/src/extra/layouts/grid/../flex/../../../core/lv_obj_style_gen.h **** }
 102:Middlewares/lvgl/src/extra/layouts/grid/../flex/../../../core/lv_obj_style_gen.h **** 
 103:Middlewares/lvgl/src/extra/layouts/grid/../flex/../../../core/lv_obj_style_gen.h **** static inline lv_coord_t lv_obj_get_style_pad_left(const struct _lv_obj_t * obj, uint32_t part)
 104:Middlewares/lvgl/src/extra/layouts/grid/../flex/../../../core/lv_obj_style_gen.h **** {
 105:Middlewares/lvgl/src/extra/layouts/grid/../flex/../../../core/lv_obj_style_gen.h ****     lv_style_value_t v = lv_obj_get_style_prop(obj, part, LV_STYLE_PAD_LEFT);
 106:Middlewares/lvgl/src/extra/layouts/grid/../flex/../../../core/lv_obj_style_gen.h ****     return (lv_coord_t)v.num;
 107:Middlewares/lvgl/src/extra/layouts/grid/../flex/../../../core/lv_obj_style_gen.h **** }
 108:Middlewares/lvgl/src/extra/layouts/grid/../flex/../../../core/lv_obj_style_gen.h **** 
 109:Middlewares/lvgl/src/extra/layouts/grid/../flex/../../../core/lv_obj_style_gen.h **** static inline lv_coord_t lv_obj_get_style_pad_right(const struct _lv_obj_t * obj, uint32_t part)
 110:Middlewares/lvgl/src/extra/layouts/grid/../flex/../../../core/lv_obj_style_gen.h **** {
 111:Middlewares/lvgl/src/extra/layouts/grid/../flex/../../../core/lv_obj_style_gen.h ****     lv_style_value_t v = lv_obj_get_style_prop(obj, part, LV_STYLE_PAD_RIGHT);
 112:Middlewares/lvgl/src/extra/layouts/grid/../flex/../../../core/lv_obj_style_gen.h ****     return (lv_coord_t)v.num;
 113:Middlewares/lvgl/src/extra/layouts/grid/../flex/../../../core/lv_obj_style_gen.h **** }
 114:Middlewares/lvgl/src/extra/layouts/grid/../flex/../../../core/lv_obj_style_gen.h **** 
 115:Middlewares/lvgl/src/extra/layouts/grid/../flex/../../../core/lv_obj_style_gen.h **** static inline lv_coord_t lv_obj_get_style_pad_row(const struct _lv_obj_t * obj, uint32_t part)
 116:Middlewares/lvgl/src/extra/layouts/grid/../flex/../../../core/lv_obj_style_gen.h **** {
 117:Middlewares/lvgl/src/extra/layouts/grid/../flex/../../../core/lv_obj_style_gen.h ****     lv_style_value_t v = lv_obj_get_style_prop(obj, part, LV_STYLE_PAD_ROW);
 118:Middlewares/lvgl/src/extra/layouts/grid/../flex/../../../core/lv_obj_style_gen.h ****     return (lv_coord_t)v.num;
 119:Middlewares/lvgl/src/extra/layouts/grid/../flex/../../../core/lv_obj_style_gen.h **** }
 120:Middlewares/lvgl/src/extra/layouts/grid/../flex/../../../core/lv_obj_style_gen.h **** 
 121:Middlewares/lvgl/src/extra/layouts/grid/../flex/../../../core/lv_obj_style_gen.h **** static inline lv_coord_t lv_obj_get_style_pad_column(const struct _lv_obj_t * obj, uint32_t part)
 122:Middlewares/lvgl/src/extra/layouts/grid/../flex/../../../core/lv_obj_style_gen.h **** {
 123:Middlewares/lvgl/src/extra/layouts/grid/../flex/../../../core/lv_obj_style_gen.h ****     lv_style_value_t v = lv_obj_get_style_prop(obj, part, LV_STYLE_PAD_COLUMN);
 124:Middlewares/lvgl/src/extra/layouts/grid/../flex/../../../core/lv_obj_style_gen.h ****     return (lv_coord_t)v.num;
 125:Middlewares/lvgl/src/extra/layouts/grid/../flex/../../../core/lv_obj_style_gen.h **** }
 126:Middlewares/lvgl/src/extra/layouts/grid/../flex/../../../core/lv_obj_style_gen.h **** 
 127:Middlewares/lvgl/src/extra/layouts/grid/../flex/../../../core/lv_obj_style_gen.h **** static inline lv_coord_t lv_obj_get_style_radius(const struct _lv_obj_t * obj, uint32_t part)
 128:Middlewares/lvgl/src/extra/layouts/grid/../flex/../../../core/lv_obj_style_gen.h **** {
 129:Middlewares/lvgl/src/extra/layouts/grid/../flex/../../../core/lv_obj_style_gen.h ****     lv_style_value_t v = lv_obj_get_style_prop(obj, part, LV_STYLE_RADIUS);
 130:Middlewares/lvgl/src/extra/layouts/grid/../flex/../../../core/lv_obj_style_gen.h ****     return (lv_coord_t)v.num;
 131:Middlewares/lvgl/src/extra/layouts/grid/../flex/../../../core/lv_obj_style_gen.h **** }
 132:Middlewares/lvgl/src/extra/layouts/grid/../flex/../../../core/lv_obj_style_gen.h **** 
 133:Middlewares/lvgl/src/extra/layouts/grid/../flex/../../../core/lv_obj_style_gen.h **** static inline bool lv_obj_get_style_clip_corner(const struct _lv_obj_t * obj, uint32_t part)
 134:Middlewares/lvgl/src/extra/layouts/grid/../flex/../../../core/lv_obj_style_gen.h **** {
 135:Middlewares/lvgl/src/extra/layouts/grid/../flex/../../../core/lv_obj_style_gen.h ****     lv_style_value_t v = lv_obj_get_style_prop(obj, part, LV_STYLE_CLIP_CORNER);
 136:Middlewares/lvgl/src/extra/layouts/grid/../flex/../../../core/lv_obj_style_gen.h ****     return (bool)v.num;
 137:Middlewares/lvgl/src/extra/layouts/grid/../flex/../../../core/lv_obj_style_gen.h **** }
 138:Middlewares/lvgl/src/extra/layouts/grid/../flex/../../../core/lv_obj_style_gen.h **** 
 139:Middlewares/lvgl/src/extra/layouts/grid/../flex/../../../core/lv_obj_style_gen.h **** static inline lv_opa_t lv_obj_get_style_opa(const struct _lv_obj_t * obj, uint32_t part)
 140:Middlewares/lvgl/src/extra/layouts/grid/../flex/../../../core/lv_obj_style_gen.h **** {
 141:Middlewares/lvgl/src/extra/layouts/grid/../flex/../../../core/lv_obj_style_gen.h ****     lv_style_value_t v = lv_obj_get_style_prop(obj, part, LV_STYLE_OPA);
 142:Middlewares/lvgl/src/extra/layouts/grid/../flex/../../../core/lv_obj_style_gen.h ****     return (lv_opa_t)v.num;
 143:Middlewares/lvgl/src/extra/layouts/grid/../flex/../../../core/lv_obj_style_gen.h **** }
 144:Middlewares/lvgl/src/extra/layouts/grid/../flex/../../../core/lv_obj_style_gen.h **** 
 145:Middlewares/lvgl/src/extra/layouts/grid/../flex/../../../core/lv_obj_style_gen.h **** static inline const lv_color_filter_dsc_t * lv_obj_get_style_color_filter_dsc(const struct _lv_obj_
 146:Middlewares/lvgl/src/extra/layouts/grid/../flex/../../../core/lv_obj_style_gen.h **** {
 147:Middlewares/lvgl/src/extra/layouts/grid/../flex/../../../core/lv_obj_style_gen.h ****     lv_style_value_t v = lv_obj_get_style_prop(obj, part, LV_STYLE_COLOR_FILTER_DSC);
 148:Middlewares/lvgl/src/extra/layouts/grid/../flex/../../../core/lv_obj_style_gen.h ****     return (const lv_color_filter_dsc_t *)v.ptr;
ARM GAS  /tmp/cc3I9fWq.s 			page 35


 149:Middlewares/lvgl/src/extra/layouts/grid/../flex/../../../core/lv_obj_style_gen.h **** }
 150:Middlewares/lvgl/src/extra/layouts/grid/../flex/../../../core/lv_obj_style_gen.h **** 
 151:Middlewares/lvgl/src/extra/layouts/grid/../flex/../../../core/lv_obj_style_gen.h **** static inline lv_opa_t lv_obj_get_style_color_filter_opa(const struct _lv_obj_t * obj, uint32_t par
 152:Middlewares/lvgl/src/extra/layouts/grid/../flex/../../../core/lv_obj_style_gen.h **** {
 153:Middlewares/lvgl/src/extra/layouts/grid/../flex/../../../core/lv_obj_style_gen.h ****     lv_style_value_t v = lv_obj_get_style_prop(obj, part, LV_STYLE_COLOR_FILTER_OPA);
 154:Middlewares/lvgl/src/extra/layouts/grid/../flex/../../../core/lv_obj_style_gen.h ****     return (lv_opa_t)v.num;
 155:Middlewares/lvgl/src/extra/layouts/grid/../flex/../../../core/lv_obj_style_gen.h **** }
 156:Middlewares/lvgl/src/extra/layouts/grid/../flex/../../../core/lv_obj_style_gen.h **** 
 157:Middlewares/lvgl/src/extra/layouts/grid/../flex/../../../core/lv_obj_style_gen.h **** static inline uint32_t lv_obj_get_style_anim_time(const struct _lv_obj_t * obj, uint32_t part)
 158:Middlewares/lvgl/src/extra/layouts/grid/../flex/../../../core/lv_obj_style_gen.h **** {
 159:Middlewares/lvgl/src/extra/layouts/grid/../flex/../../../core/lv_obj_style_gen.h ****     lv_style_value_t v = lv_obj_get_style_prop(obj, part, LV_STYLE_ANIM_TIME);
 160:Middlewares/lvgl/src/extra/layouts/grid/../flex/../../../core/lv_obj_style_gen.h ****     return (uint32_t)v.num;
 161:Middlewares/lvgl/src/extra/layouts/grid/../flex/../../../core/lv_obj_style_gen.h **** }
 162:Middlewares/lvgl/src/extra/layouts/grid/../flex/../../../core/lv_obj_style_gen.h **** 
 163:Middlewares/lvgl/src/extra/layouts/grid/../flex/../../../core/lv_obj_style_gen.h **** static inline uint32_t lv_obj_get_style_anim_speed(const struct _lv_obj_t * obj, uint32_t part)
 164:Middlewares/lvgl/src/extra/layouts/grid/../flex/../../../core/lv_obj_style_gen.h **** {
 165:Middlewares/lvgl/src/extra/layouts/grid/../flex/../../../core/lv_obj_style_gen.h ****     lv_style_value_t v = lv_obj_get_style_prop(obj, part, LV_STYLE_ANIM_SPEED);
 166:Middlewares/lvgl/src/extra/layouts/grid/../flex/../../../core/lv_obj_style_gen.h ****     return (uint32_t)v.num;
 167:Middlewares/lvgl/src/extra/layouts/grid/../flex/../../../core/lv_obj_style_gen.h **** }
 168:Middlewares/lvgl/src/extra/layouts/grid/../flex/../../../core/lv_obj_style_gen.h **** 
 169:Middlewares/lvgl/src/extra/layouts/grid/../flex/../../../core/lv_obj_style_gen.h **** static inline const lv_style_transition_dsc_t * lv_obj_get_style_transition(const struct _lv_obj_t 
 170:Middlewares/lvgl/src/extra/layouts/grid/../flex/../../../core/lv_obj_style_gen.h **** {
 171:Middlewares/lvgl/src/extra/layouts/grid/../flex/../../../core/lv_obj_style_gen.h ****     lv_style_value_t v = lv_obj_get_style_prop(obj, part, LV_STYLE_TRANSITION);
 172:Middlewares/lvgl/src/extra/layouts/grid/../flex/../../../core/lv_obj_style_gen.h ****     return (const lv_style_transition_dsc_t *)v.ptr;
 173:Middlewares/lvgl/src/extra/layouts/grid/../flex/../../../core/lv_obj_style_gen.h **** }
 174:Middlewares/lvgl/src/extra/layouts/grid/../flex/../../../core/lv_obj_style_gen.h **** 
 175:Middlewares/lvgl/src/extra/layouts/grid/../flex/../../../core/lv_obj_style_gen.h **** static inline lv_blend_mode_t lv_obj_get_style_blend_mode(const struct _lv_obj_t * obj, uint32_t pa
 176:Middlewares/lvgl/src/extra/layouts/grid/../flex/../../../core/lv_obj_style_gen.h **** {
 177:Middlewares/lvgl/src/extra/layouts/grid/../flex/../../../core/lv_obj_style_gen.h ****     lv_style_value_t v = lv_obj_get_style_prop(obj, part, LV_STYLE_BLEND_MODE);
 178:Middlewares/lvgl/src/extra/layouts/grid/../flex/../../../core/lv_obj_style_gen.h ****     return (lv_blend_mode_t)v.num;
 179:Middlewares/lvgl/src/extra/layouts/grid/../flex/../../../core/lv_obj_style_gen.h **** }
 180:Middlewares/lvgl/src/extra/layouts/grid/../flex/../../../core/lv_obj_style_gen.h **** 
 181:Middlewares/lvgl/src/extra/layouts/grid/../flex/../../../core/lv_obj_style_gen.h **** static inline uint16_t lv_obj_get_style_layout(const struct _lv_obj_t * obj, uint32_t part)
 182:Middlewares/lvgl/src/extra/layouts/grid/../flex/../../../core/lv_obj_style_gen.h **** {
 183:Middlewares/lvgl/src/extra/layouts/grid/../flex/../../../core/lv_obj_style_gen.h ****     lv_style_value_t v = lv_obj_get_style_prop(obj, part, LV_STYLE_LAYOUT);
 184:Middlewares/lvgl/src/extra/layouts/grid/../flex/../../../core/lv_obj_style_gen.h ****     return (uint16_t)v.num;
 185:Middlewares/lvgl/src/extra/layouts/grid/../flex/../../../core/lv_obj_style_gen.h **** }
 186:Middlewares/lvgl/src/extra/layouts/grid/../flex/../../../core/lv_obj_style_gen.h **** 
 187:Middlewares/lvgl/src/extra/layouts/grid/../flex/../../../core/lv_obj_style_gen.h **** static inline lv_base_dir_t lv_obj_get_style_base_dir(const struct _lv_obj_t * obj, uint32_t part)
 707              		.loc 3 187 29 view .LVU236
 708              	.LBB134:
 188:Middlewares/lvgl/src/extra/layouts/grid/../flex/../../../core/lv_obj_style_gen.h **** {
 189:Middlewares/lvgl/src/extra/layouts/grid/../flex/../../../core/lv_obj_style_gen.h ****     lv_style_value_t v = lv_obj_get_style_prop(obj, part, LV_STYLE_BASE_DIR);
 709              		.loc 3 189 5 view .LVU237
 710              		.loc 3 189 26 is_stmt 0 view .LVU238
 711 00d2 41F26A42 		movw	r2, #5226
 712 00d6 0021     		movs	r1, #0
 713              	.LVL78:
 714              		.loc 3 189 26 view .LVU239
 715 00d8 2046     		mov	r0, r4
 716              	.LVL79:
 717              		.loc 3 189 26 view .LVU240
 718 00da FFF7FEFF 		bl	lv_obj_get_style_prop
 719              	.LVL80:
 190:Middlewares/lvgl/src/extra/layouts/grid/../flex/../../../core/lv_obj_style_gen.h ****     return (lv_base_dir_t)v.num;
 720              		.loc 3 190 5 is_stmt 1 view .LVU241
 721              		.loc 3 190 12 is_stmt 0 view .LVU242
ARM GAS  /tmp/cc3I9fWq.s 			page 36


 722 00de C0B2     		uxtb	r0, r0
 723              	.LVL81:
 724              		.loc 3 190 12 view .LVU243
 725              	.LBE134:
 726              	.LBE133:
 568:Middlewares/lvgl/src/extra/layouts/grid/lv_grid.c ****         if(col_align == LV_GRID_ALIGN_START) col_align = LV_GRID_ALIGN_END;
 727              		.loc 1 568 7 view .LVU244
 728 00e0 0128     		cmp	r0, #1
 729 00e2 00F0C380 		beq	.L55
 730              	.LVL82:
 731              	.L32:
 573:Middlewares/lvgl/src/extra/layouts/grid/lv_grid.c ****     lv_coord_t y;
 732              		.loc 1 573 5 is_stmt 1 view .LVU245
 574:Middlewares/lvgl/src/extra/layouts/grid/lv_grid.c ****     lv_coord_t item_w = lv_area_get_width(&item->coords);
 733              		.loc 1 574 5 view .LVU246
 575:Middlewares/lvgl/src/extra/layouts/grid/lv_grid.c ****     lv_coord_t item_h = lv_area_get_height(&item->coords);
 734              		.loc 1 575 5 view .LVU247
 735              	.LBB135:
 736              	.LBI135:
 737              		.file 4 "Middlewares/lvgl/src/extra/layouts/grid/../flex/../../../core/../misc/../font/../misc/lv_
   1:Middlewares/lvgl/src/extra/layouts/grid/../flex/../../../core/../misc/../font/../misc/lv_area.h **** /**
   2:Middlewares/lvgl/src/extra/layouts/grid/../flex/../../../core/../misc/../font/../misc/lv_area.h ****  * @file lv_area.h
   3:Middlewares/lvgl/src/extra/layouts/grid/../flex/../../../core/../misc/../font/../misc/lv_area.h ****  *
   4:Middlewares/lvgl/src/extra/layouts/grid/../flex/../../../core/../misc/../font/../misc/lv_area.h ****  */
   5:Middlewares/lvgl/src/extra/layouts/grid/../flex/../../../core/../misc/../font/../misc/lv_area.h **** 
   6:Middlewares/lvgl/src/extra/layouts/grid/../flex/../../../core/../misc/../font/../misc/lv_area.h **** #ifndef LV_AREA_H
   7:Middlewares/lvgl/src/extra/layouts/grid/../flex/../../../core/../misc/../font/../misc/lv_area.h **** #define LV_AREA_H
   8:Middlewares/lvgl/src/extra/layouts/grid/../flex/../../../core/../misc/../font/../misc/lv_area.h **** 
   9:Middlewares/lvgl/src/extra/layouts/grid/../flex/../../../core/../misc/../font/../misc/lv_area.h **** #ifdef __cplusplus
  10:Middlewares/lvgl/src/extra/layouts/grid/../flex/../../../core/../misc/../font/../misc/lv_area.h **** extern "C" {
  11:Middlewares/lvgl/src/extra/layouts/grid/../flex/../../../core/../misc/../font/../misc/lv_area.h **** #endif
  12:Middlewares/lvgl/src/extra/layouts/grid/../flex/../../../core/../misc/../font/../misc/lv_area.h **** 
  13:Middlewares/lvgl/src/extra/layouts/grid/../flex/../../../core/../misc/../font/../misc/lv_area.h **** /*********************
  14:Middlewares/lvgl/src/extra/layouts/grid/../flex/../../../core/../misc/../font/../misc/lv_area.h ****  *      INCLUDES
  15:Middlewares/lvgl/src/extra/layouts/grid/../flex/../../../core/../misc/../font/../misc/lv_area.h ****  *********************/
  16:Middlewares/lvgl/src/extra/layouts/grid/../flex/../../../core/../misc/../font/../misc/lv_area.h **** #include "../lv_conf_internal.h"
  17:Middlewares/lvgl/src/extra/layouts/grid/../flex/../../../core/../misc/../font/../misc/lv_area.h **** #include <string.h>
  18:Middlewares/lvgl/src/extra/layouts/grid/../flex/../../../core/../misc/../font/../misc/lv_area.h **** #include <stdbool.h>
  19:Middlewares/lvgl/src/extra/layouts/grid/../flex/../../../core/../misc/../font/../misc/lv_area.h **** #include <stdint.h>
  20:Middlewares/lvgl/src/extra/layouts/grid/../flex/../../../core/../misc/../font/../misc/lv_area.h **** 
  21:Middlewares/lvgl/src/extra/layouts/grid/../flex/../../../core/../misc/../font/../misc/lv_area.h **** /*********************
  22:Middlewares/lvgl/src/extra/layouts/grid/../flex/../../../core/../misc/../font/../misc/lv_area.h ****  *      DEFINES
  23:Middlewares/lvgl/src/extra/layouts/grid/../flex/../../../core/../misc/../font/../misc/lv_area.h ****  *********************/
  24:Middlewares/lvgl/src/extra/layouts/grid/../flex/../../../core/../misc/../font/../misc/lv_area.h **** 
  25:Middlewares/lvgl/src/extra/layouts/grid/../flex/../../../core/../misc/../font/../misc/lv_area.h **** #define _LV_COORD_MAX_REDUCE    8192
  26:Middlewares/lvgl/src/extra/layouts/grid/../flex/../../../core/../misc/../font/../misc/lv_area.h **** 
  27:Middlewares/lvgl/src/extra/layouts/grid/../flex/../../../core/../misc/../font/../misc/lv_area.h **** #if LV_USE_LARGE_COORD
  28:Middlewares/lvgl/src/extra/layouts/grid/../flex/../../../core/../misc/../font/../misc/lv_area.h **** typedef int32_t lv_coord_t;
  29:Middlewares/lvgl/src/extra/layouts/grid/../flex/../../../core/../misc/../font/../misc/lv_area.h **** #else
  30:Middlewares/lvgl/src/extra/layouts/grid/../flex/../../../core/../misc/../font/../misc/lv_area.h **** typedef int16_t lv_coord_t;
  31:Middlewares/lvgl/src/extra/layouts/grid/../flex/../../../core/../misc/../font/../misc/lv_area.h **** #endif
  32:Middlewares/lvgl/src/extra/layouts/grid/../flex/../../../core/../misc/../font/../misc/lv_area.h **** 
  33:Middlewares/lvgl/src/extra/layouts/grid/../flex/../../../core/../misc/../font/../misc/lv_area.h **** /*To allow some special values in the end reduce the max value*/
  34:Middlewares/lvgl/src/extra/layouts/grid/../flex/../../../core/../misc/../font/../misc/lv_area.h **** #define LV_COORD_MAX ((lv_coord_t)((uint32_t)((uint32_t)1 << (8 * sizeof(lv_coord_t) - 1)) - _LV_CO
  35:Middlewares/lvgl/src/extra/layouts/grid/../flex/../../../core/../misc/../font/../misc/lv_area.h **** #define LV_COORD_MIN (-LV_COORD_MAX)
  36:Middlewares/lvgl/src/extra/layouts/grid/../flex/../../../core/../misc/../font/../misc/lv_area.h **** 
  37:Middlewares/lvgl/src/extra/layouts/grid/../flex/../../../core/../misc/../font/../misc/lv_area.h **** LV_EXPORT_CONST_INT(LV_COORD_MAX);
ARM GAS  /tmp/cc3I9fWq.s 			page 37


  38:Middlewares/lvgl/src/extra/layouts/grid/../flex/../../../core/../misc/../font/../misc/lv_area.h **** LV_EXPORT_CONST_INT(LV_COORD_MIN);
  39:Middlewares/lvgl/src/extra/layouts/grid/../flex/../../../core/../misc/../font/../misc/lv_area.h **** 
  40:Middlewares/lvgl/src/extra/layouts/grid/../flex/../../../core/../misc/../font/../misc/lv_area.h **** /**********************
  41:Middlewares/lvgl/src/extra/layouts/grid/../flex/../../../core/../misc/../font/../misc/lv_area.h ****  *      TYPEDEFS
  42:Middlewares/lvgl/src/extra/layouts/grid/../flex/../../../core/../misc/../font/../misc/lv_area.h ****  **********************/
  43:Middlewares/lvgl/src/extra/layouts/grid/../flex/../../../core/../misc/../font/../misc/lv_area.h **** 
  44:Middlewares/lvgl/src/extra/layouts/grid/../flex/../../../core/../misc/../font/../misc/lv_area.h **** /**
  45:Middlewares/lvgl/src/extra/layouts/grid/../flex/../../../core/../misc/../font/../misc/lv_area.h ****  * Represents a point on the screen.
  46:Middlewares/lvgl/src/extra/layouts/grid/../flex/../../../core/../misc/../font/../misc/lv_area.h ****  */
  47:Middlewares/lvgl/src/extra/layouts/grid/../flex/../../../core/../misc/../font/../misc/lv_area.h **** typedef struct {
  48:Middlewares/lvgl/src/extra/layouts/grid/../flex/../../../core/../misc/../font/../misc/lv_area.h ****     lv_coord_t x;
  49:Middlewares/lvgl/src/extra/layouts/grid/../flex/../../../core/../misc/../font/../misc/lv_area.h ****     lv_coord_t y;
  50:Middlewares/lvgl/src/extra/layouts/grid/../flex/../../../core/../misc/../font/../misc/lv_area.h **** } lv_point_t;
  51:Middlewares/lvgl/src/extra/layouts/grid/../flex/../../../core/../misc/../font/../misc/lv_area.h **** 
  52:Middlewares/lvgl/src/extra/layouts/grid/../flex/../../../core/../misc/../font/../misc/lv_area.h **** /** Represents an area of the screen.*/
  53:Middlewares/lvgl/src/extra/layouts/grid/../flex/../../../core/../misc/../font/../misc/lv_area.h **** typedef struct {
  54:Middlewares/lvgl/src/extra/layouts/grid/../flex/../../../core/../misc/../font/../misc/lv_area.h ****     lv_coord_t x1;
  55:Middlewares/lvgl/src/extra/layouts/grid/../flex/../../../core/../misc/../font/../misc/lv_area.h ****     lv_coord_t y1;
  56:Middlewares/lvgl/src/extra/layouts/grid/../flex/../../../core/../misc/../font/../misc/lv_area.h ****     lv_coord_t x2;
  57:Middlewares/lvgl/src/extra/layouts/grid/../flex/../../../core/../misc/../font/../misc/lv_area.h ****     lv_coord_t y2;
  58:Middlewares/lvgl/src/extra/layouts/grid/../flex/../../../core/../misc/../font/../misc/lv_area.h **** } lv_area_t;
  59:Middlewares/lvgl/src/extra/layouts/grid/../flex/../../../core/../misc/../font/../misc/lv_area.h **** 
  60:Middlewares/lvgl/src/extra/layouts/grid/../flex/../../../core/../misc/../font/../misc/lv_area.h **** /** Alignments*/
  61:Middlewares/lvgl/src/extra/layouts/grid/../flex/../../../core/../misc/../font/../misc/lv_area.h **** enum {
  62:Middlewares/lvgl/src/extra/layouts/grid/../flex/../../../core/../misc/../font/../misc/lv_area.h ****     LV_ALIGN_DEFAULT = 0,
  63:Middlewares/lvgl/src/extra/layouts/grid/../flex/../../../core/../misc/../font/../misc/lv_area.h ****     LV_ALIGN_TOP_LEFT,
  64:Middlewares/lvgl/src/extra/layouts/grid/../flex/../../../core/../misc/../font/../misc/lv_area.h ****     LV_ALIGN_TOP_MID,
  65:Middlewares/lvgl/src/extra/layouts/grid/../flex/../../../core/../misc/../font/../misc/lv_area.h ****     LV_ALIGN_TOP_RIGHT,
  66:Middlewares/lvgl/src/extra/layouts/grid/../flex/../../../core/../misc/../font/../misc/lv_area.h ****     LV_ALIGN_BOTTOM_LEFT,
  67:Middlewares/lvgl/src/extra/layouts/grid/../flex/../../../core/../misc/../font/../misc/lv_area.h ****     LV_ALIGN_BOTTOM_MID,
  68:Middlewares/lvgl/src/extra/layouts/grid/../flex/../../../core/../misc/../font/../misc/lv_area.h ****     LV_ALIGN_BOTTOM_RIGHT,
  69:Middlewares/lvgl/src/extra/layouts/grid/../flex/../../../core/../misc/../font/../misc/lv_area.h ****     LV_ALIGN_LEFT_MID,
  70:Middlewares/lvgl/src/extra/layouts/grid/../flex/../../../core/../misc/../font/../misc/lv_area.h ****     LV_ALIGN_RIGHT_MID,
  71:Middlewares/lvgl/src/extra/layouts/grid/../flex/../../../core/../misc/../font/../misc/lv_area.h ****     LV_ALIGN_CENTER,
  72:Middlewares/lvgl/src/extra/layouts/grid/../flex/../../../core/../misc/../font/../misc/lv_area.h **** 
  73:Middlewares/lvgl/src/extra/layouts/grid/../flex/../../../core/../misc/../font/../misc/lv_area.h ****     LV_ALIGN_OUT_TOP_LEFT,
  74:Middlewares/lvgl/src/extra/layouts/grid/../flex/../../../core/../misc/../font/../misc/lv_area.h ****     LV_ALIGN_OUT_TOP_MID,
  75:Middlewares/lvgl/src/extra/layouts/grid/../flex/../../../core/../misc/../font/../misc/lv_area.h ****     LV_ALIGN_OUT_TOP_RIGHT,
  76:Middlewares/lvgl/src/extra/layouts/grid/../flex/../../../core/../misc/../font/../misc/lv_area.h ****     LV_ALIGN_OUT_BOTTOM_LEFT,
  77:Middlewares/lvgl/src/extra/layouts/grid/../flex/../../../core/../misc/../font/../misc/lv_area.h ****     LV_ALIGN_OUT_BOTTOM_MID,
  78:Middlewares/lvgl/src/extra/layouts/grid/../flex/../../../core/../misc/../font/../misc/lv_area.h ****     LV_ALIGN_OUT_BOTTOM_RIGHT,
  79:Middlewares/lvgl/src/extra/layouts/grid/../flex/../../../core/../misc/../font/../misc/lv_area.h ****     LV_ALIGN_OUT_LEFT_TOP,
  80:Middlewares/lvgl/src/extra/layouts/grid/../flex/../../../core/../misc/../font/../misc/lv_area.h ****     LV_ALIGN_OUT_LEFT_MID,
  81:Middlewares/lvgl/src/extra/layouts/grid/../flex/../../../core/../misc/../font/../misc/lv_area.h ****     LV_ALIGN_OUT_LEFT_BOTTOM,
  82:Middlewares/lvgl/src/extra/layouts/grid/../flex/../../../core/../misc/../font/../misc/lv_area.h ****     LV_ALIGN_OUT_RIGHT_TOP,
  83:Middlewares/lvgl/src/extra/layouts/grid/../flex/../../../core/../misc/../font/../misc/lv_area.h ****     LV_ALIGN_OUT_RIGHT_MID,
  84:Middlewares/lvgl/src/extra/layouts/grid/../flex/../../../core/../misc/../font/../misc/lv_area.h ****     LV_ALIGN_OUT_RIGHT_BOTTOM,
  85:Middlewares/lvgl/src/extra/layouts/grid/../flex/../../../core/../misc/../font/../misc/lv_area.h **** };
  86:Middlewares/lvgl/src/extra/layouts/grid/../flex/../../../core/../misc/../font/../misc/lv_area.h **** typedef uint8_t lv_align_t;
  87:Middlewares/lvgl/src/extra/layouts/grid/../flex/../../../core/../misc/../font/../misc/lv_area.h **** 
  88:Middlewares/lvgl/src/extra/layouts/grid/../flex/../../../core/../misc/../font/../misc/lv_area.h **** enum {
  89:Middlewares/lvgl/src/extra/layouts/grid/../flex/../../../core/../misc/../font/../misc/lv_area.h ****     LV_DIR_NONE     = 0x00,
  90:Middlewares/lvgl/src/extra/layouts/grid/../flex/../../../core/../misc/../font/../misc/lv_area.h ****     LV_DIR_LEFT     = (1 << 0),
  91:Middlewares/lvgl/src/extra/layouts/grid/../flex/../../../core/../misc/../font/../misc/lv_area.h ****     LV_DIR_RIGHT    = (1 << 1),
  92:Middlewares/lvgl/src/extra/layouts/grid/../flex/../../../core/../misc/../font/../misc/lv_area.h ****     LV_DIR_TOP      = (1 << 2),
  93:Middlewares/lvgl/src/extra/layouts/grid/../flex/../../../core/../misc/../font/../misc/lv_area.h ****     LV_DIR_BOTTOM   = (1 << 3),
  94:Middlewares/lvgl/src/extra/layouts/grid/../flex/../../../core/../misc/../font/../misc/lv_area.h ****     LV_DIR_HOR      = LV_DIR_LEFT | LV_DIR_RIGHT,
ARM GAS  /tmp/cc3I9fWq.s 			page 38


  95:Middlewares/lvgl/src/extra/layouts/grid/../flex/../../../core/../misc/../font/../misc/lv_area.h ****     LV_DIR_VER      = LV_DIR_TOP | LV_DIR_BOTTOM,
  96:Middlewares/lvgl/src/extra/layouts/grid/../flex/../../../core/../misc/../font/../misc/lv_area.h ****     LV_DIR_ALL      = LV_DIR_HOR | LV_DIR_VER,
  97:Middlewares/lvgl/src/extra/layouts/grid/../flex/../../../core/../misc/../font/../misc/lv_area.h **** };
  98:Middlewares/lvgl/src/extra/layouts/grid/../flex/../../../core/../misc/../font/../misc/lv_area.h **** 
  99:Middlewares/lvgl/src/extra/layouts/grid/../flex/../../../core/../misc/../font/../misc/lv_area.h **** typedef uint8_t lv_dir_t;
 100:Middlewares/lvgl/src/extra/layouts/grid/../flex/../../../core/../misc/../font/../misc/lv_area.h **** 
 101:Middlewares/lvgl/src/extra/layouts/grid/../flex/../../../core/../misc/../font/../misc/lv_area.h **** /**********************
 102:Middlewares/lvgl/src/extra/layouts/grid/../flex/../../../core/../misc/../font/../misc/lv_area.h ****  * GLOBAL PROTOTYPES
 103:Middlewares/lvgl/src/extra/layouts/grid/../flex/../../../core/../misc/../font/../misc/lv_area.h ****  **********************/
 104:Middlewares/lvgl/src/extra/layouts/grid/../flex/../../../core/../misc/../font/../misc/lv_area.h **** 
 105:Middlewares/lvgl/src/extra/layouts/grid/../flex/../../../core/../misc/../font/../misc/lv_area.h **** /**
 106:Middlewares/lvgl/src/extra/layouts/grid/../flex/../../../core/../misc/../font/../misc/lv_area.h ****  * Initialize an area
 107:Middlewares/lvgl/src/extra/layouts/grid/../flex/../../../core/../misc/../font/../misc/lv_area.h ****  * @param area_p pointer to an area
 108:Middlewares/lvgl/src/extra/layouts/grid/../flex/../../../core/../misc/../font/../misc/lv_area.h ****  * @param x1 left coordinate of the area
 109:Middlewares/lvgl/src/extra/layouts/grid/../flex/../../../core/../misc/../font/../misc/lv_area.h ****  * @param y1 top coordinate of the area
 110:Middlewares/lvgl/src/extra/layouts/grid/../flex/../../../core/../misc/../font/../misc/lv_area.h ****  * @param x2 right coordinate of the area
 111:Middlewares/lvgl/src/extra/layouts/grid/../flex/../../../core/../misc/../font/../misc/lv_area.h ****  * @param y2 bottom coordinate of the area
 112:Middlewares/lvgl/src/extra/layouts/grid/../flex/../../../core/../misc/../font/../misc/lv_area.h ****  */
 113:Middlewares/lvgl/src/extra/layouts/grid/../flex/../../../core/../misc/../font/../misc/lv_area.h **** void lv_area_set(lv_area_t * area_p, lv_coord_t x1, lv_coord_t y1, lv_coord_t x2, lv_coord_t y2);
 114:Middlewares/lvgl/src/extra/layouts/grid/../flex/../../../core/../misc/../font/../misc/lv_area.h **** 
 115:Middlewares/lvgl/src/extra/layouts/grid/../flex/../../../core/../misc/../font/../misc/lv_area.h **** /**
 116:Middlewares/lvgl/src/extra/layouts/grid/../flex/../../../core/../misc/../font/../misc/lv_area.h ****  * Copy an area
 117:Middlewares/lvgl/src/extra/layouts/grid/../flex/../../../core/../misc/../font/../misc/lv_area.h ****  * @param dest pointer to the destination area
 118:Middlewares/lvgl/src/extra/layouts/grid/../flex/../../../core/../misc/../font/../misc/lv_area.h ****  * @param src pointer to the source area
 119:Middlewares/lvgl/src/extra/layouts/grid/../flex/../../../core/../misc/../font/../misc/lv_area.h ****  */
 120:Middlewares/lvgl/src/extra/layouts/grid/../flex/../../../core/../misc/../font/../misc/lv_area.h **** inline static void lv_area_copy(lv_area_t * dest, const lv_area_t * src)
 121:Middlewares/lvgl/src/extra/layouts/grid/../flex/../../../core/../misc/../font/../misc/lv_area.h **** {
 122:Middlewares/lvgl/src/extra/layouts/grid/../flex/../../../core/../misc/../font/../misc/lv_area.h ****     dest->x1 = src->x1;
 123:Middlewares/lvgl/src/extra/layouts/grid/../flex/../../../core/../misc/../font/../misc/lv_area.h ****     dest->y1 = src->y1;
 124:Middlewares/lvgl/src/extra/layouts/grid/../flex/../../../core/../misc/../font/../misc/lv_area.h ****     dest->x2 = src->x2;
 125:Middlewares/lvgl/src/extra/layouts/grid/../flex/../../../core/../misc/../font/../misc/lv_area.h ****     dest->y2 = src->y2;
 126:Middlewares/lvgl/src/extra/layouts/grid/../flex/../../../core/../misc/../font/../misc/lv_area.h **** }
 127:Middlewares/lvgl/src/extra/layouts/grid/../flex/../../../core/../misc/../font/../misc/lv_area.h **** 
 128:Middlewares/lvgl/src/extra/layouts/grid/../flex/../../../core/../misc/../font/../misc/lv_area.h **** /**
 129:Middlewares/lvgl/src/extra/layouts/grid/../flex/../../../core/../misc/../font/../misc/lv_area.h ****  * Get the width of an area
 130:Middlewares/lvgl/src/extra/layouts/grid/../flex/../../../core/../misc/../font/../misc/lv_area.h ****  * @param area_p pointer to an area
 131:Middlewares/lvgl/src/extra/layouts/grid/../flex/../../../core/../misc/../font/../misc/lv_area.h ****  * @return the width of the area (if x1 == x2 -> width = 1)
 132:Middlewares/lvgl/src/extra/layouts/grid/../flex/../../../core/../misc/../font/../misc/lv_area.h ****  */
 133:Middlewares/lvgl/src/extra/layouts/grid/../flex/../../../core/../misc/../font/../misc/lv_area.h **** static inline lv_coord_t lv_area_get_width(const lv_area_t * area_p)
 738              		.loc 4 133 26 view .LVU248
 739              	.LBB136:
 134:Middlewares/lvgl/src/extra/layouts/grid/../flex/../../../core/../misc/../font/../misc/lv_area.h **** {
 135:Middlewares/lvgl/src/extra/layouts/grid/../flex/../../../core/../misc/../font/../misc/lv_area.h ****     return (lv_coord_t)(area_p->x2 - area_p->x1 + 1);
 740              		.loc 4 135 5 view .LVU249
 741              		.loc 4 135 31 is_stmt 0 view .LVU250
 742 00e6 268B     		ldrh	r6, [r4, #24]
 743              		.loc 4 135 44 view .LVU251
 744 00e8 A38A     		ldrh	r3, [r4, #20]
 745              		.loc 4 135 36 view .LVU252
 746 00ea F61A     		subs	r6, r6, r3
 747 00ec B6B2     		uxth	r6, r6
 748              		.loc 4 135 49 view .LVU253
 749 00ee 0136     		adds	r6, r6, #1
 750              		.loc 4 135 12 view .LVU254
 751 00f0 36B2     		sxth	r6, r6
 752              	.LVL83:
 753              		.loc 4 135 12 view .LVU255
ARM GAS  /tmp/cc3I9fWq.s 			page 39


 754              	.LBE136:
 755              	.LBE135:
 576:Middlewares/lvgl/src/extra/layouts/grid/lv_grid.c **** 
 756              		.loc 1 576 5 is_stmt 1 view .LVU256
 757              	.LBB137:
 758              	.LBI137:
 136:Middlewares/lvgl/src/extra/layouts/grid/../flex/../../../core/../misc/../font/../misc/lv_area.h **** }
 137:Middlewares/lvgl/src/extra/layouts/grid/../flex/../../../core/../misc/../font/../misc/lv_area.h **** 
 138:Middlewares/lvgl/src/extra/layouts/grid/../flex/../../../core/../misc/../font/../misc/lv_area.h **** /**
 139:Middlewares/lvgl/src/extra/layouts/grid/../flex/../../../core/../misc/../font/../misc/lv_area.h ****  * Get the height of an area
 140:Middlewares/lvgl/src/extra/layouts/grid/../flex/../../../core/../misc/../font/../misc/lv_area.h ****  * @param area_p pointer to an area
 141:Middlewares/lvgl/src/extra/layouts/grid/../flex/../../../core/../misc/../font/../misc/lv_area.h ****  * @return the height of the area (if y1 == y2 -> height = 1)
 142:Middlewares/lvgl/src/extra/layouts/grid/../flex/../../../core/../misc/../font/../misc/lv_area.h ****  */
 143:Middlewares/lvgl/src/extra/layouts/grid/../flex/../../../core/../misc/../font/../misc/lv_area.h **** static inline lv_coord_t lv_area_get_height(const lv_area_t * area_p)
 759              		.loc 4 143 26 view .LVU257
 760              	.LBB138:
 144:Middlewares/lvgl/src/extra/layouts/grid/../flex/../../../core/../misc/../font/../misc/lv_area.h **** {
 145:Middlewares/lvgl/src/extra/layouts/grid/../flex/../../../core/../misc/../font/../misc/lv_area.h ****     return (lv_coord_t)(area_p->y2 - area_p->y1 + 1);
 761              		.loc 4 145 5 view .LVU258
 762              		.loc 4 145 31 is_stmt 0 view .LVU259
 763 00f2 678B     		ldrh	r7, [r4, #26]
 764              		.loc 4 145 44 view .LVU260
 765 00f4 E38A     		ldrh	r3, [r4, #22]
 766              		.loc 4 145 36 view .LVU261
 767 00f6 FF1A     		subs	r7, r7, r3
 768 00f8 BFB2     		uxth	r7, r7
 769              		.loc 4 145 49 view .LVU262
 770 00fa 0137     		adds	r7, r7, #1
 771              		.loc 4 145 12 view .LVU263
 772 00fc 3FB2     		sxth	r7, r7
 773              	.LVL84:
 774              		.loc 4 145 12 view .LVU264
 775              	.LBE138:
 776              	.LBE137:
 578:Middlewares/lvgl/src/extra/layouts/grid/lv_grid.c ****         default:
 777              		.loc 1 578 5 is_stmt 1 view .LVU265
 778 00fe B8F1020F 		cmp	r8, #2
 779 0102 00F0DE80 		beq	.L33
 780 0106 B8F1030F 		cmp	r8, #3
 781 010a 00F0BC80 		beq	.L34
 782 010e B8F1010F 		cmp	r8, #1
 783 0112 00F0C380 		beq	.L35
 581:Middlewares/lvgl/src/extra/layouts/grid/lv_grid.c ****             item->w_layout = 0;
 784              		.loc 1 581 13 view .LVU266
 581:Middlewares/lvgl/src/extra/layouts/grid/lv_grid.c ****             item->w_layout = 0;
 785              		.loc 1 581 18 is_stmt 0 view .LVU267
 786 0116 2B68     		ldr	r3, [r5]
 581:Middlewares/lvgl/src/extra/layouts/grid/lv_grid.c ****             item->w_layout = 0;
 787              		.loc 1 581 15 view .LVU268
 788 0118 33F91B80 		ldrsh	r8, [r3, fp, lsl #1]
 789              	.LVL85:
 582:Middlewares/lvgl/src/extra/layouts/grid/lv_grid.c ****             break;
 790              		.loc 1 582 13 is_stmt 1 view .LVU269
 582:Middlewares/lvgl/src/extra/layouts/grid/lv_grid.c ****             break;
 791              		.loc 1 582 28 is_stmt 0 view .LVU270
 792 011c 94F82330 		ldrb	r3, [r4, #35]	@ zero_extendqisi2
 793 0120 6FF38203 		bfc	r3, #2, #1
ARM GAS  /tmp/cc3I9fWq.s 			page 40


 794 0124 84F82330 		strb	r3, [r4, #35]
 795              	.LVL86:
 583:Middlewares/lvgl/src/extra/layouts/grid/lv_grid.c ****         case LV_GRID_ALIGN_STRETCH:
 796              		.loc 1 583 13 is_stmt 1 view .LVU271
 797              	.L36:
 599:Middlewares/lvgl/src/extra/layouts/grid/lv_grid.c ****         default:
 798              		.loc 1 599 5 view .LVU272
 799 0128 B9F1020F 		cmp	r9, #2
 800 012c 00F00A81 		beq	.L38
 599:Middlewares/lvgl/src/extra/layouts/grid/lv_grid.c ****         default:
 801              		.loc 1 599 5 is_stmt 0 view .LVU273
 802 0130 B9F1030F 		cmp	r9, #3
 803 0134 00F0DB80 		beq	.L39
 804 0138 B9F1010F 		cmp	r9, #1
 805 013c 00F0E280 		beq	.L40
 602:Middlewares/lvgl/src/extra/layouts/grid/lv_grid.c ****             item->h_layout = 0;
 806              		.loc 1 602 13 is_stmt 1 view .LVU274
 602:Middlewares/lvgl/src/extra/layouts/grid/lv_grid.c ****             item->h_layout = 0;
 807              		.loc 1 602 18 is_stmt 0 view .LVU275
 808 0140 6B68     		ldr	r3, [r5, #4]
 602:Middlewares/lvgl/src/extra/layouts/grid/lv_grid.c ****             item->h_layout = 0;
 809              		.loc 1 602 15 view .LVU276
 810 0142 33F91A50 		ldrsh	r5, [r3, r10, lsl #1]
 811              	.LVL87:
 603:Middlewares/lvgl/src/extra/layouts/grid/lv_grid.c ****             break;
 812              		.loc 1 603 13 is_stmt 1 view .LVU277
 603:Middlewares/lvgl/src/extra/layouts/grid/lv_grid.c ****             break;
 813              		.loc 1 603 28 is_stmt 0 view .LVU278
 814 0146 94F82330 		ldrb	r3, [r4, #35]	@ zero_extendqisi2
 815 014a 6FF34103 		bfc	r3, #1, #1
 816 014e 84F82330 		strb	r3, [r4, #35]
 604:Middlewares/lvgl/src/extra/layouts/grid/lv_grid.c ****         case LV_GRID_ALIGN_STRETCH:
 817              		.loc 1 604 13 is_stmt 1 view .LVU279
 818              	.LVL88:
 819              	.L41:
 621:Middlewares/lvgl/src/extra/layouts/grid/lv_grid.c ****         lv_area_t old_coords;
 820              		.loc 1 621 5 view .LVU280
 621:Middlewares/lvgl/src/extra/layouts/grid/lv_grid.c ****         lv_area_t old_coords;
 821              		.loc 1 621 8 is_stmt 0 view .LVU281
 822 0152 2046     		mov	r0, r4
 823 0154 FFF7FEFF 		bl	lv_obj_get_width
 824              	.LVL89:
 621:Middlewares/lvgl/src/extra/layouts/grid/lv_grid.c ****         lv_area_t old_coords;
 825              		.loc 1 621 7 view .LVU282
 826 0158 B042     		cmp	r0, r6
 827 015a 00F00681 		beq	.L56
 828              	.L43:
 829              	.LBB139:
 622:Middlewares/lvgl/src/extra/layouts/grid/lv_grid.c ****         lv_area_copy(&old_coords, &item->coords);
 830              		.loc 1 622 9 is_stmt 1 view .LVU283
 623:Middlewares/lvgl/src/extra/layouts/grid/lv_grid.c ****         lv_obj_invalidate(item);
 831              		.loc 1 623 9 view .LVU284
 832              	.LVL90:
 833              	.LBB140:
 834              	.LBI140:
 120:Middlewares/lvgl/src/extra/layouts/grid/../flex/../../../core/../misc/../font/../misc/lv_area.h **** {
 835              		.loc 4 120 20 view .LVU285
ARM GAS  /tmp/cc3I9fWq.s 			page 41


 836              	.LBB141:
 122:Middlewares/lvgl/src/extra/layouts/grid/../flex/../../../core/../misc/../font/../misc/lv_area.h ****     dest->y1 = src->y1;
 837              		.loc 4 122 5 view .LVU286
 122:Middlewares/lvgl/src/extra/layouts/grid/../flex/../../../core/../misc/../font/../misc/lv_area.h ****     dest->y1 = src->y1;
 838              		.loc 4 122 19 is_stmt 0 view .LVU287
 839 015e B4F91430 		ldrsh	r3, [r4, #20]
 122:Middlewares/lvgl/src/extra/layouts/grid/../flex/../../../core/../misc/../font/../misc/lv_area.h ****     dest->y1 = src->y1;
 840              		.loc 4 122 14 view .LVU288
 841 0162 ADF81830 		strh	r3, [sp, #24]	@ movhi
 123:Middlewares/lvgl/src/extra/layouts/grid/../flex/../../../core/../misc/../font/../misc/lv_area.h ****     dest->x2 = src->x2;
 842              		.loc 4 123 5 is_stmt 1 view .LVU289
 123:Middlewares/lvgl/src/extra/layouts/grid/../flex/../../../core/../misc/../font/../misc/lv_area.h ****     dest->x2 = src->x2;
 843              		.loc 4 123 19 is_stmt 0 view .LVU290
 844 0166 B4F91630 		ldrsh	r3, [r4, #22]
 123:Middlewares/lvgl/src/extra/layouts/grid/../flex/../../../core/../misc/../font/../misc/lv_area.h ****     dest->x2 = src->x2;
 845              		.loc 4 123 14 view .LVU291
 846 016a ADF81A30 		strh	r3, [sp, #26]	@ movhi
 124:Middlewares/lvgl/src/extra/layouts/grid/../flex/../../../core/../misc/../font/../misc/lv_area.h ****     dest->y2 = src->y2;
 847              		.loc 4 124 5 is_stmt 1 view .LVU292
 124:Middlewares/lvgl/src/extra/layouts/grid/../flex/../../../core/../misc/../font/../misc/lv_area.h ****     dest->y2 = src->y2;
 848              		.loc 4 124 19 is_stmt 0 view .LVU293
 849 016e B4F91830 		ldrsh	r3, [r4, #24]
 124:Middlewares/lvgl/src/extra/layouts/grid/../flex/../../../core/../misc/../font/../misc/lv_area.h ****     dest->y2 = src->y2;
 850              		.loc 4 124 14 view .LVU294
 851 0172 ADF81C30 		strh	r3, [sp, #28]	@ movhi
 125:Middlewares/lvgl/src/extra/layouts/grid/../flex/../../../core/../misc/../font/../misc/lv_area.h **** }
 852              		.loc 4 125 5 is_stmt 1 view .LVU295
 125:Middlewares/lvgl/src/extra/layouts/grid/../flex/../../../core/../misc/../font/../misc/lv_area.h **** }
 853              		.loc 4 125 19 is_stmt 0 view .LVU296
 854 0176 B4F91A30 		ldrsh	r3, [r4, #26]
 125:Middlewares/lvgl/src/extra/layouts/grid/../flex/../../../core/../misc/../font/../misc/lv_area.h **** }
 855              		.loc 4 125 14 view .LVU297
 856 017a ADF81E30 		strh	r3, [sp, #30]	@ movhi
 857              	.LVL91:
 125:Middlewares/lvgl/src/extra/layouts/grid/../flex/../../../core/../misc/../font/../misc/lv_area.h **** }
 858              		.loc 4 125 14 view .LVU298
 859              	.LBE141:
 860              	.LBE140:
 624:Middlewares/lvgl/src/extra/layouts/grid/lv_grid.c ****         lv_area_set_width(&item->coords, item_w);
 861              		.loc 1 624 9 is_stmt 1 view .LVU299
 862 017e 2046     		mov	r0, r4
 863 0180 FFF7FEFF 		bl	lv_obj_invalidate
 864              	.LVL92:
 625:Middlewares/lvgl/src/extra/layouts/grid/lv_grid.c ****         lv_area_set_height(&item->coords, item_h);
 865              		.loc 1 625 9 view .LVU300
 866 0184 04F11403 		add	r3, r4, #20
 867 0188 3146     		mov	r1, r6
 868 018a 1E46     		mov	r6, r3
 869              	.LVL93:
 625:Middlewares/lvgl/src/extra/layouts/grid/lv_grid.c ****         lv_area_set_height(&item->coords, item_h);
 870              		.loc 1 625 9 is_stmt 0 view .LVU301
 871 018c 1846     		mov	r0, r3
 872 018e FFF7FEFF 		bl	lv_area_set_width
 873              	.LVL94:
 626:Middlewares/lvgl/src/extra/layouts/grid/lv_grid.c ****         lv_obj_invalidate(item);
 874              		.loc 1 626 9 is_stmt 1 view .LVU302
 875 0192 3946     		mov	r1, r7
ARM GAS  /tmp/cc3I9fWq.s 			page 42


 876 0194 3046     		mov	r0, r6
 877 0196 FFF7FEFF 		bl	lv_area_set_height
 878              	.LVL95:
 627:Middlewares/lvgl/src/extra/layouts/grid/lv_grid.c ****         lv_event_send(item, LV_EVENT_SIZE_CHANGED, &old_coords);
 879              		.loc 1 627 9 view .LVU303
 880 019a 2046     		mov	r0, r4
 881 019c FFF7FEFF 		bl	lv_obj_invalidate
 882              	.LVL96:
 628:Middlewares/lvgl/src/extra/layouts/grid/lv_grid.c ****         lv_event_send(lv_obj_get_parent(item), LV_EVENT_CHILD_CHANGED, item);
 883              		.loc 1 628 9 view .LVU304
 884 01a0 06AA     		add	r2, sp, #24
 885 01a2 2321     		movs	r1, #35
 886 01a4 2046     		mov	r0, r4
 887 01a6 FFF7FEFF 		bl	lv_event_send
 888              	.LVL97:
 629:Middlewares/lvgl/src/extra/layouts/grid/lv_grid.c **** 
 889              		.loc 1 629 9 view .LVU305
 890 01aa 2046     		mov	r0, r4
 891 01ac FFF7FEFF 		bl	lv_obj_get_parent
 892              	.LVL98:
 893 01b0 2246     		mov	r2, r4
 894 01b2 2221     		movs	r1, #34
 895 01b4 FFF7FEFF 		bl	lv_event_send
 896              	.LVL99:
 897              	.L44:
 629:Middlewares/lvgl/src/extra/layouts/grid/lv_grid.c **** 
 898              		.loc 1 629 9 is_stmt 0 view .LVU306
 899              	.LBE139:
 634:Middlewares/lvgl/src/extra/layouts/grid/lv_grid.c ****     lv_coord_t tr_y = lv_obj_get_style_translate_y(item, LV_PART_MAIN);
 900              		.loc 1 634 5 is_stmt 1 view .LVU307
 901              	.LBB142:
 902              	.LBI142:
  67:Middlewares/lvgl/src/extra/layouts/grid/../flex/../../../core/lv_obj_style_gen.h **** {
 903              		.loc 3 67 26 view .LVU308
 904              	.LBB143:
  69:Middlewares/lvgl/src/extra/layouts/grid/../flex/../../../core/lv_obj_style_gen.h ****     return (lv_coord_t)v.num;
 905              		.loc 3 69 5 view .LVU309
  69:Middlewares/lvgl/src/extra/layouts/grid/../flex/../../../core/lv_obj_style_gen.h ****     return (lv_coord_t)v.num;
 906              		.loc 3 69 26 is_stmt 0 view .LVU310
 907 01b8 43F20C02 		movw	r2, #12300
 908 01bc 0021     		movs	r1, #0
 909 01be 2046     		mov	r0, r4
 910 01c0 FFF7FEFF 		bl	lv_obj_get_style_prop
 911              	.LVL100:
 912 01c4 0746     		mov	r7, r0
 913              	.LVL101:
  70:Middlewares/lvgl/src/extra/layouts/grid/../flex/../../../core/lv_obj_style_gen.h **** }
 914              		.loc 3 70 5 is_stmt 1 view .LVU311
  70:Middlewares/lvgl/src/extra/layouts/grid/../flex/../../../core/lv_obj_style_gen.h **** }
 915              		.loc 3 70 12 is_stmt 0 view .LVU312
 916 01c6 0FFA80FA 		sxth	r10, r0
 917              	.LVL102:
  70:Middlewares/lvgl/src/extra/layouts/grid/../flex/../../../core/lv_obj_style_gen.h **** }
 918              		.loc 3 70 12 view .LVU313
 919              	.LBE143:
 920              	.LBE142:
 635:Middlewares/lvgl/src/extra/layouts/grid/lv_grid.c ****     lv_coord_t w = lv_obj_get_width(item);
ARM GAS  /tmp/cc3I9fWq.s 			page 43


 921              		.loc 1 635 5 is_stmt 1 view .LVU314
 922              	.LBB144:
 923              	.LBI144:
  73:Middlewares/lvgl/src/extra/layouts/grid/../flex/../../../core/lv_obj_style_gen.h **** {
 924              		.loc 3 73 26 view .LVU315
 925              	.LBB145:
  75:Middlewares/lvgl/src/extra/layouts/grid/../flex/../../../core/lv_obj_style_gen.h ****     return (lv_coord_t)v.num;
 926              		.loc 3 75 5 view .LVU316
  75:Middlewares/lvgl/src/extra/layouts/grid/../flex/../../../core/lv_obj_style_gen.h ****     return (lv_coord_t)v.num;
 927              		.loc 3 75 26 is_stmt 0 view .LVU317
 928 01ca 43F20D02 		movw	r2, #12301
 929 01ce 0021     		movs	r1, #0
 930 01d0 2046     		mov	r0, r4
  75:Middlewares/lvgl/src/extra/layouts/grid/../flex/../../../core/lv_obj_style_gen.h ****     return (lv_coord_t)v.num;
 931              		.loc 3 75 26 view .LVU318
 932 01d2 FFF7FEFF 		bl	lv_obj_get_style_prop
 933              	.LVL103:
 934 01d6 0646     		mov	r6, r0
  76:Middlewares/lvgl/src/extra/layouts/grid/../flex/../../../core/lv_obj_style_gen.h **** }
 935              		.loc 3 76 5 is_stmt 1 view .LVU319
  76:Middlewares/lvgl/src/extra/layouts/grid/../flex/../../../core/lv_obj_style_gen.h **** }
 936              		.loc 3 76 12 is_stmt 0 view .LVU320
 937 01d8 0FFA80F9 		sxth	r9, r0
 938              	.LVL104:
  76:Middlewares/lvgl/src/extra/layouts/grid/../flex/../../../core/lv_obj_style_gen.h **** }
 939              		.loc 3 76 12 view .LVU321
 940              	.LBE145:
 941              	.LBE144:
 636:Middlewares/lvgl/src/extra/layouts/grid/lv_grid.c ****     lv_coord_t h = lv_obj_get_height(item);
 942              		.loc 1 636 5 is_stmt 1 view .LVU322
 636:Middlewares/lvgl/src/extra/layouts/grid/lv_grid.c ****     lv_coord_t h = lv_obj_get_height(item);
 943              		.loc 1 636 20 is_stmt 0 view .LVU323
 944 01dc 2046     		mov	r0, r4
 945 01de FFF7FEFF 		bl	lv_obj_get_width
 946              	.LVL105:
 947 01e2 8346     		mov	fp, r0
 948              	.LVL106:
 637:Middlewares/lvgl/src/extra/layouts/grid/lv_grid.c ****     if(LV_COORD_IS_PCT(tr_x)) tr_x = (w * LV_COORD_GET_PCT(tr_x)) / 100;
 949              		.loc 1 637 5 is_stmt 1 view .LVU324
 637:Middlewares/lvgl/src/extra/layouts/grid/lv_grid.c ****     if(LV_COORD_IS_PCT(tr_x)) tr_x = (w * LV_COORD_GET_PCT(tr_x)) / 100;
 950              		.loc 1 637 20 is_stmt 0 view .LVU325
 951 01e4 2046     		mov	r0, r4
 952 01e6 FFF7FEFF 		bl	lv_obj_get_height
 953              	.LVL107:
 638:Middlewares/lvgl/src/extra/layouts/grid/lv_grid.c ****     if(LV_COORD_IS_PCT(tr_y)) tr_y = (h * LV_COORD_GET_PCT(tr_y)) / 100;
 954              		.loc 1 638 5 is_stmt 1 view .LVU326
 638:Middlewares/lvgl/src/extra/layouts/grid/lv_grid.c ****     if(LV_COORD_IS_PCT(tr_y)) tr_y = (h * LV_COORD_GET_PCT(tr_y)) / 100;
 955              		.loc 1 638 8 is_stmt 0 view .LVU327
 956 01ea 07F4C047 		and	r7, r7, #24576
 957              	.LVL108:
 638:Middlewares/lvgl/src/extra/layouts/grid/lv_grid.c ****     if(LV_COORD_IS_PCT(tr_y)) tr_y = (h * LV_COORD_GET_PCT(tr_y)) / 100;
 958              		.loc 1 638 7 view .LVU328
 959 01ee B7F5005F 		cmp	r7, #8192
 960 01f2 00F0C180 		beq	.L57
 961              	.LVL109:
 962              	.L45:
 639:Middlewares/lvgl/src/extra/layouts/grid/lv_grid.c **** 
ARM GAS  /tmp/cc3I9fWq.s 			page 44


 963              		.loc 1 639 5 is_stmt 1 view .LVU329
 639:Middlewares/lvgl/src/extra/layouts/grid/lv_grid.c **** 
 964              		.loc 1 639 8 is_stmt 0 view .LVU330
 965 01f6 06F4C046 		and	r6, r6, #24576
 639:Middlewares/lvgl/src/extra/layouts/grid/lv_grid.c **** 
 966              		.loc 1 639 7 view .LVU331
 967 01fa B6F5005F 		cmp	r6, #8192
 968 01fe 00F0D280 		beq	.L58
 969              	.L48:
 641:Middlewares/lvgl/src/extra/layouts/grid/lv_grid.c ****     y += tr_y;
 970              		.loc 1 641 5 is_stmt 1 view .LVU332
 641:Middlewares/lvgl/src/extra/layouts/grid/lv_grid.c ****     y += tr_y;
 971              		.loc 1 641 7 is_stmt 0 view .LVU333
 972 0202 08EB0A06 		add	r6, r8, r10
 973              	.LVL110:
 642:Middlewares/lvgl/src/extra/layouts/grid/lv_grid.c **** 
 974              		.loc 1 642 5 is_stmt 1 view .LVU334
 642:Middlewares/lvgl/src/extra/layouts/grid/lv_grid.c **** 
 975              		.loc 1 642 7 is_stmt 0 view .LVU335
 976 0206 05EB0902 		add	r2, r5, r9
 977              	.LVL111:
 644:Middlewares/lvgl/src/extra/layouts/grid/lv_grid.c ****     lv_coord_t diff_y = hint->grid_abs.y + y - item->coords.y1;
 978              		.loc 1 644 5 is_stmt 1 view .LVU336
 644:Middlewares/lvgl/src/extra/layouts/grid/lv_grid.c ****     lv_coord_t diff_y = hint->grid_abs.y + y - item->coords.y1;
 979              		.loc 1 644 39 is_stmt 0 view .LVU337
 980 020a 0199     		ldr	r1, [sp, #4]
 981 020c B1F80880 		ldrh	r8, [r1, #8]
 644:Middlewares/lvgl/src/extra/layouts/grid/lv_grid.c ****     lv_coord_t diff_y = hint->grid_abs.y + y - item->coords.y1;
 982              		.loc 1 644 42 view .LVU338
 983 0210 18FA86F6 		uxtah	r6, r8, r6
 984              	.LVL112:
 644:Middlewares/lvgl/src/extra/layouts/grid/lv_grid.c ****     lv_coord_t diff_y = hint->grid_abs.y + y - item->coords.y1;
 985              		.loc 1 644 42 view .LVU339
 986 0214 B6B2     		uxth	r6, r6
 644:Middlewares/lvgl/src/extra/layouts/grid/lv_grid.c ****     lv_coord_t diff_y = hint->grid_abs.y + y - item->coords.y1;
 987              		.loc 1 644 60 view .LVU340
 988 0216 A38A     		ldrh	r3, [r4, #20]
 644:Middlewares/lvgl/src/extra/layouts/grid/lv_grid.c ****     lv_coord_t diff_y = hint->grid_abs.y + y - item->coords.y1;
 989              		.loc 1 644 46 view .LVU341
 990 0218 F61A     		subs	r6, r6, r3
 991 021a B7B2     		uxth	r7, r6
 644:Middlewares/lvgl/src/extra/layouts/grid/lv_grid.c ****     lv_coord_t diff_y = hint->grid_abs.y + y - item->coords.y1;
 992              		.loc 1 644 16 view .LVU342
 993 021c 36B2     		sxth	r6, r6
 994              	.LVL113:
 645:Middlewares/lvgl/src/extra/layouts/grid/lv_grid.c ****     if(diff_x || diff_y) {
 995              		.loc 1 645 5 is_stmt 1 view .LVU343
 645:Middlewares/lvgl/src/extra/layouts/grid/lv_grid.c ****     if(diff_x || diff_y) {
 996              		.loc 1 645 39 is_stmt 0 view .LVU344
 997 021e 4D89     		ldrh	r5, [r1, #10]
 645:Middlewares/lvgl/src/extra/layouts/grid/lv_grid.c ****     if(diff_x || diff_y) {
 998              		.loc 1 645 42 view .LVU345
 999 0220 15FA82F2 		uxtah	r2, r5, r2
 1000              	.LVL114:
 645:Middlewares/lvgl/src/extra/layouts/grid/lv_grid.c ****     if(diff_x || diff_y) {
 1001              		.loc 1 645 42 view .LVU346
 1002 0224 92B2     		uxth	r2, r2
ARM GAS  /tmp/cc3I9fWq.s 			page 45


 645:Middlewares/lvgl/src/extra/layouts/grid/lv_grid.c ****     if(diff_x || diff_y) {
 1003              		.loc 1 645 60 view .LVU347
 1004 0226 E38A     		ldrh	r3, [r4, #22]
 645:Middlewares/lvgl/src/extra/layouts/grid/lv_grid.c ****     if(diff_x || diff_y) {
 1005              		.loc 1 645 46 view .LVU348
 1006 0228 D21A     		subs	r2, r2, r3
 1007 022a 1FFA82F8 		uxth	r8, r2
 645:Middlewares/lvgl/src/extra/layouts/grid/lv_grid.c ****     if(diff_x || diff_y) {
 1008              		.loc 1 645 16 view .LVU349
 1009 022e 15B2     		sxth	r5, r2
 1010              	.LVL115:
 646:Middlewares/lvgl/src/extra/layouts/grid/lv_grid.c ****         lv_obj_invalidate(item);
 1011              		.loc 1 646 5 is_stmt 1 view .LVU350
 646:Middlewares/lvgl/src/extra/layouts/grid/lv_grid.c ****         lv_obj_invalidate(item);
 1012              		.loc 1 646 7 is_stmt 0 view .LVU351
 1013 0230 56EA0503 		orrs	r3, r6, r5
 1014 0234 3FF4EEAE 		beq	.L30
 647:Middlewares/lvgl/src/extra/layouts/grid/lv_grid.c ****         item->coords.x1 += diff_x;
 1015              		.loc 1 647 9 is_stmt 1 view .LVU352
 1016 0238 2046     		mov	r0, r4
 1017              	.LVL116:
 647:Middlewares/lvgl/src/extra/layouts/grid/lv_grid.c ****         item->coords.x1 += diff_x;
 1018              		.loc 1 647 9 is_stmt 0 view .LVU353
 1019 023a FFF7FEFF 		bl	lv_obj_invalidate
 1020              	.LVL117:
 648:Middlewares/lvgl/src/extra/layouts/grid/lv_grid.c ****         item->coords.x2 += diff_x;
 1021              		.loc 1 648 9 is_stmt 1 view .LVU354
 648:Middlewares/lvgl/src/extra/layouts/grid/lv_grid.c ****         item->coords.x2 += diff_x;
 1022              		.loc 1 648 25 is_stmt 0 view .LVU355
 1023 023e A38A     		ldrh	r3, [r4, #20]
 1024 0240 3B44     		add	r3, r3, r7
 1025 0242 A382     		strh	r3, [r4, #20]	@ movhi
 649:Middlewares/lvgl/src/extra/layouts/grid/lv_grid.c ****         item->coords.y1 += diff_y;
 1026              		.loc 1 649 9 is_stmt 1 view .LVU356
 649:Middlewares/lvgl/src/extra/layouts/grid/lv_grid.c ****         item->coords.y1 += diff_y;
 1027              		.loc 1 649 25 is_stmt 0 view .LVU357
 1028 0244 238B     		ldrh	r3, [r4, #24]
 1029 0246 1F44     		add	r7, r7, r3
 1030 0248 2783     		strh	r7, [r4, #24]	@ movhi
 650:Middlewares/lvgl/src/extra/layouts/grid/lv_grid.c ****         item->coords.y2 += diff_y;
 1031              		.loc 1 650 9 is_stmt 1 view .LVU358
 650:Middlewares/lvgl/src/extra/layouts/grid/lv_grid.c ****         item->coords.y2 += diff_y;
 1032              		.loc 1 650 25 is_stmt 0 view .LVU359
 1033 024a E38A     		ldrh	r3, [r4, #22]
 1034 024c 4344     		add	r3, r3, r8
 1035 024e E382     		strh	r3, [r4, #22]	@ movhi
 651:Middlewares/lvgl/src/extra/layouts/grid/lv_grid.c ****         lv_obj_invalidate(item);
 1036              		.loc 1 651 9 is_stmt 1 view .LVU360
 651:Middlewares/lvgl/src/extra/layouts/grid/lv_grid.c ****         lv_obj_invalidate(item);
 1037              		.loc 1 651 25 is_stmt 0 view .LVU361
 1038 0250 638B     		ldrh	r3, [r4, #26]
 1039 0252 9844     		add	r8, r8, r3
 1040 0254 A4F81A80 		strh	r8, [r4, #26]	@ movhi
 652:Middlewares/lvgl/src/extra/layouts/grid/lv_grid.c ****         lv_obj_move_children_by(item, diff_x, diff_y, true);
 1041              		.loc 1 652 9 is_stmt 1 view .LVU362
 1042 0258 2046     		mov	r0, r4
 1043 025a FFF7FEFF 		bl	lv_obj_invalidate
ARM GAS  /tmp/cc3I9fWq.s 			page 46


 1044              	.LVL118:
 653:Middlewares/lvgl/src/extra/layouts/grid/lv_grid.c ****     }
 1045              		.loc 1 653 9 view .LVU363
 1046 025e 0123     		movs	r3, #1
 1047 0260 2A46     		mov	r2, r5
 1048 0262 3146     		mov	r1, r6
 1049 0264 2046     		mov	r0, r4
 1050 0266 FFF7FEFF 		bl	lv_obj_move_children_by
 1051              	.LVL119:
 1052 026a D3E6     		b	.L30
 1053              	.LVL120:
 1054              	.L55:
 569:Middlewares/lvgl/src/extra/layouts/grid/lv_grid.c ****         else if(col_align == LV_GRID_ALIGN_END) col_align = LV_GRID_ALIGN_START;
 1055              		.loc 1 569 9 view .LVU364
 569:Middlewares/lvgl/src/extra/layouts/grid/lv_grid.c ****         else if(col_align == LV_GRID_ALIGN_END) col_align = LV_GRID_ALIGN_START;
 1056              		.loc 1 569 11 is_stmt 0 view .LVU365
 1057 026c B8F1000F 		cmp	r8, #0
 1058 0270 06D0     		beq	.L51
 570:Middlewares/lvgl/src/extra/layouts/grid/lv_grid.c ****     }
 1059              		.loc 1 570 14 is_stmt 1 view .LVU366
 570:Middlewares/lvgl/src/extra/layouts/grid/lv_grid.c ****     }
 1060              		.loc 1 570 16 is_stmt 0 view .LVU367
 1061 0272 B8F1020F 		cmp	r8, #2
 1062 0276 7FF436AF 		bne	.L32
 570:Middlewares/lvgl/src/extra/layouts/grid/lv_grid.c ****     }
 1063              		.loc 1 570 59 view .LVU368
 1064 027a 4FF00008 		mov	r8, #0
 1065              	.LVL121:
 570:Middlewares/lvgl/src/extra/layouts/grid/lv_grid.c ****     }
 1066              		.loc 1 570 59 view .LVU369
 1067 027e 32E7     		b	.L32
 1068              	.LVL122:
 1069              	.L51:
 569:Middlewares/lvgl/src/extra/layouts/grid/lv_grid.c ****         else if(col_align == LV_GRID_ALIGN_END) col_align = LV_GRID_ALIGN_START;
 1070              		.loc 1 569 56 view .LVU370
 1071 0280 4FF00208 		mov	r8, #2
 1072              	.LVL123:
 569:Middlewares/lvgl/src/extra/layouts/grid/lv_grid.c ****         else if(col_align == LV_GRID_ALIGN_END) col_align = LV_GRID_ALIGN_START;
 1073              		.loc 1 569 56 view .LVU371
 1074 0284 2FE7     		b	.L32
 1075              	.LVL124:
 1076              	.L34:
 585:Middlewares/lvgl/src/extra/layouts/grid/lv_grid.c ****             item_w = col_w;
 1077              		.loc 1 585 13 is_stmt 1 view .LVU372
 585:Middlewares/lvgl/src/extra/layouts/grid/lv_grid.c ****             item_w = col_w;
 1078              		.loc 1 585 18 is_stmt 0 view .LVU373
 1079 0286 2B68     		ldr	r3, [r5]
 585:Middlewares/lvgl/src/extra/layouts/grid/lv_grid.c ****             item_w = col_w;
 1080              		.loc 1 585 15 view .LVU374
 1081 0288 33F91B80 		ldrsh	r8, [r3, fp, lsl #1]
 1082              	.LVL125:
 586:Middlewares/lvgl/src/extra/layouts/grid/lv_grid.c ****             item->w_layout = 1;
 1083              		.loc 1 586 13 is_stmt 1 view .LVU375
 587:Middlewares/lvgl/src/extra/layouts/grid/lv_grid.c ****             break;
 1084              		.loc 1 587 13 view .LVU376
 587:Middlewares/lvgl/src/extra/layouts/grid/lv_grid.c ****             break;
 1085              		.loc 1 587 28 is_stmt 0 view .LVU377
ARM GAS  /tmp/cc3I9fWq.s 			page 47


 1086 028c 94F82330 		ldrb	r3, [r4, #35]	@ zero_extendqisi2
 1087 0290 43F00403 		orr	r3, r3, #4
 1088 0294 84F82330 		strb	r3, [r4, #35]
 1089              	.LVL126:
 588:Middlewares/lvgl/src/extra/layouts/grid/lv_grid.c ****         case LV_GRID_ALIGN_CENTER:
 1090              		.loc 1 588 13 is_stmt 1 view .LVU378
 586:Middlewares/lvgl/src/extra/layouts/grid/lv_grid.c ****             item->w_layout = 1;
 1091              		.loc 1 586 20 is_stmt 0 view .LVU379
 1092 0298 029E     		ldr	r6, [sp, #8]
 588:Middlewares/lvgl/src/extra/layouts/grid/lv_grid.c ****         case LV_GRID_ALIGN_CENTER:
 1093              		.loc 1 588 13 view .LVU380
 1094 029a 45E7     		b	.L36
 1095              	.LVL127:
 1096              	.L35:
 590:Middlewares/lvgl/src/extra/layouts/grid/lv_grid.c ****             item->w_layout = 0;
 1097              		.loc 1 590 13 is_stmt 1 view .LVU381
 590:Middlewares/lvgl/src/extra/layouts/grid/lv_grid.c ****             item->w_layout = 0;
 1098              		.loc 1 590 18 is_stmt 0 view .LVU382
 1099 029c 2B68     		ldr	r3, [r5]
 590:Middlewares/lvgl/src/extra/layouts/grid/lv_grid.c ****             item->w_layout = 0;
 1100              		.loc 1 590 21 view .LVU383
 1101 029e 33F81B80 		ldrh	r8, [r3, fp, lsl #1]
 1102              	.LVL128:
 590:Middlewares/lvgl/src/extra/layouts/grid/lv_grid.c ****             item->w_layout = 0;
 1103              		.loc 1 590 50 view .LVU384
 1104 02a2 029B     		ldr	r3, [sp, #8]
 1105 02a4 9B1B     		subs	r3, r3, r6
 1106 02a6 0AD4     		bmi	.L59
 1107              	.L37:
 590:Middlewares/lvgl/src/extra/layouts/grid/lv_grid.c ****             item->w_layout = 0;
 1108              		.loc 1 590 31 view .LVU385
 1109 02a8 08EB6308 		add	r8, r8, r3, asr #1
 590:Middlewares/lvgl/src/extra/layouts/grid/lv_grid.c ****             item->w_layout = 0;
 1110              		.loc 1 590 15 view .LVU386
 1111 02ac 0FFA88F8 		sxth	r8, r8
 1112              	.LVL129:
 591:Middlewares/lvgl/src/extra/layouts/grid/lv_grid.c ****             break;
 1113              		.loc 1 591 13 is_stmt 1 view .LVU387
 591:Middlewares/lvgl/src/extra/layouts/grid/lv_grid.c ****             break;
 1114              		.loc 1 591 28 is_stmt 0 view .LVU388
 1115 02b0 94F82330 		ldrb	r3, [r4, #35]	@ zero_extendqisi2
 1116 02b4 6FF38203 		bfc	r3, #2, #1
 1117 02b8 84F82330 		strb	r3, [r4, #35]
 1118              	.LVL130:
 592:Middlewares/lvgl/src/extra/layouts/grid/lv_grid.c ****         case LV_GRID_ALIGN_END:
 1119              		.loc 1 592 13 is_stmt 1 view .LVU389
 1120 02bc 34E7     		b	.L36
 1121              	.LVL131:
 1122              	.L59:
 590:Middlewares/lvgl/src/extra/layouts/grid/lv_grid.c ****             item->w_layout = 0;
 1123              		.loc 1 590 50 is_stmt 0 view .LVU390
 1124 02be 0133     		adds	r3, r3, #1
 1125 02c0 F2E7     		b	.L37
 1126              	.LVL132:
 1127              	.L33:
 594:Middlewares/lvgl/src/extra/layouts/grid/lv_grid.c ****             item->w_layout = 0;
 1128              		.loc 1 594 13 is_stmt 1 view .LVU391
ARM GAS  /tmp/cc3I9fWq.s 			page 48


 594:Middlewares/lvgl/src/extra/layouts/grid/lv_grid.c ****             item->w_layout = 0;
 1129              		.loc 1 594 18 is_stmt 0 view .LVU392
 1130 02c2 2B68     		ldr	r3, [r5]
 594:Middlewares/lvgl/src/extra/layouts/grid/lv_grid.c ****             item->w_layout = 0;
 1131              		.loc 1 594 21 view .LVU393
 1132 02c4 33F81B80 		ldrh	r8, [r3, fp, lsl #1]
 1133              	.LVL133:
 594:Middlewares/lvgl/src/extra/layouts/grid/lv_grid.c ****             item->w_layout = 0;
 1134              		.loc 1 594 31 view .LVU394
 1135 02c8 049B     		ldr	r3, [sp, #16]
 1136 02ca 4344     		add	r3, r3, r8
 1137 02cc 1FFA83F8 		uxth	r8, r3
 594:Middlewares/lvgl/src/extra/layouts/grid/lv_grid.c ****             item->w_layout = 0;
 1138              		.loc 1 594 41 view .LVU395
 1139 02d0 2046     		mov	r0, r4
 1140 02d2 FFF7FEFF 		bl	lv_obj_get_width
 1141              	.LVL134:
 1142 02d6 80B2     		uxth	r0, r0
 594:Middlewares/lvgl/src/extra/layouts/grid/lv_grid.c ****             item->w_layout = 0;
 1143              		.loc 1 594 39 view .LVU396
 1144 02d8 A8EB0008 		sub	r8, r8, r0
 594:Middlewares/lvgl/src/extra/layouts/grid/lv_grid.c ****             item->w_layout = 0;
 1145              		.loc 1 594 15 view .LVU397
 1146 02dc 0FFA88F8 		sxth	r8, r8
 1147              	.LVL135:
 595:Middlewares/lvgl/src/extra/layouts/grid/lv_grid.c ****             break;
 1148              		.loc 1 595 13 is_stmt 1 view .LVU398
 595:Middlewares/lvgl/src/extra/layouts/grid/lv_grid.c ****             break;
 1149              		.loc 1 595 28 is_stmt 0 view .LVU399
 1150 02e0 94F82330 		ldrb	r3, [r4, #35]	@ zero_extendqisi2
 1151 02e4 6FF38203 		bfc	r3, #2, #1
 1152 02e8 84F82330 		strb	r3, [r4, #35]
 1153              	.LVL136:
 596:Middlewares/lvgl/src/extra/layouts/grid/lv_grid.c ****     }
 1154              		.loc 1 596 13 is_stmt 1 view .LVU400
 1155 02ec 1CE7     		b	.L36
 1156              	.L39:
 606:Middlewares/lvgl/src/extra/layouts/grid/lv_grid.c ****             item_h = row_h;
 1157              		.loc 1 606 13 view .LVU401
 606:Middlewares/lvgl/src/extra/layouts/grid/lv_grid.c ****             item_h = row_h;
 1158              		.loc 1 606 18 is_stmt 0 view .LVU402
 1159 02ee 6B68     		ldr	r3, [r5, #4]
 606:Middlewares/lvgl/src/extra/layouts/grid/lv_grid.c ****             item_h = row_h;
 1160              		.loc 1 606 15 view .LVU403
 1161 02f0 33F91A50 		ldrsh	r5, [r3, r10, lsl #1]
 1162              	.LVL137:
 607:Middlewares/lvgl/src/extra/layouts/grid/lv_grid.c ****             item->h_layout = 1;
 1163              		.loc 1 607 13 is_stmt 1 view .LVU404
 608:Middlewares/lvgl/src/extra/layouts/grid/lv_grid.c ****             break;
 1164              		.loc 1 608 13 view .LVU405
 608:Middlewares/lvgl/src/extra/layouts/grid/lv_grid.c ****             break;
 1165              		.loc 1 608 28 is_stmt 0 view .LVU406
 1166 02f4 94F82330 		ldrb	r3, [r4, #35]	@ zero_extendqisi2
 1167 02f8 43F00203 		orr	r3, r3, #2
 1168 02fc 84F82330 		strb	r3, [r4, #35]
 1169              	.LVL138:
 609:Middlewares/lvgl/src/extra/layouts/grid/lv_grid.c ****         case LV_GRID_ALIGN_CENTER:
ARM GAS  /tmp/cc3I9fWq.s 			page 49


 1170              		.loc 1 609 13 is_stmt 1 view .LVU407
 607:Middlewares/lvgl/src/extra/layouts/grid/lv_grid.c ****             item->h_layout = 1;
 1171              		.loc 1 607 20 is_stmt 0 view .LVU408
 1172 0300 039F     		ldr	r7, [sp, #12]
 609:Middlewares/lvgl/src/extra/layouts/grid/lv_grid.c ****         case LV_GRID_ALIGN_CENTER:
 1173              		.loc 1 609 13 view .LVU409
 1174 0302 26E7     		b	.L41
 1175              	.LVL139:
 1176              	.L40:
 611:Middlewares/lvgl/src/extra/layouts/grid/lv_grid.c ****             item->h_layout = 0;
 1177              		.loc 1 611 13 is_stmt 1 view .LVU410
 611:Middlewares/lvgl/src/extra/layouts/grid/lv_grid.c ****             item->h_layout = 0;
 1178              		.loc 1 611 18 is_stmt 0 view .LVU411
 1179 0304 6B68     		ldr	r3, [r5, #4]
 611:Middlewares/lvgl/src/extra/layouts/grid/lv_grid.c ****             item->h_layout = 0;
 1180              		.loc 1 611 21 view .LVU412
 1181 0306 33F81A50 		ldrh	r5, [r3, r10, lsl #1]
 1182              	.LVL140:
 611:Middlewares/lvgl/src/extra/layouts/grid/lv_grid.c ****             item->h_layout = 0;
 1183              		.loc 1 611 50 view .LVU413
 1184 030a 039B     		ldr	r3, [sp, #12]
 1185 030c DB1B     		subs	r3, r3, r7
 1186 030e 09D4     		bmi	.L60
 1187              	.L42:
 611:Middlewares/lvgl/src/extra/layouts/grid/lv_grid.c ****             item->h_layout = 0;
 1188              		.loc 1 611 31 view .LVU414
 1189 0310 05EB6305 		add	r5, r5, r3, asr #1
 611:Middlewares/lvgl/src/extra/layouts/grid/lv_grid.c ****             item->h_layout = 0;
 1190              		.loc 1 611 15 view .LVU415
 1191 0314 2DB2     		sxth	r5, r5
 1192              	.LVL141:
 612:Middlewares/lvgl/src/extra/layouts/grid/lv_grid.c ****             break;
 1193              		.loc 1 612 13 is_stmt 1 view .LVU416
 612:Middlewares/lvgl/src/extra/layouts/grid/lv_grid.c ****             break;
 1194              		.loc 1 612 28 is_stmt 0 view .LVU417
 1195 0316 94F82330 		ldrb	r3, [r4, #35]	@ zero_extendqisi2
 1196 031a 6FF34103 		bfc	r3, #1, #1
 1197 031e 84F82330 		strb	r3, [r4, #35]
 613:Middlewares/lvgl/src/extra/layouts/grid/lv_grid.c ****         case LV_GRID_ALIGN_END:
 1198              		.loc 1 613 13 is_stmt 1 view .LVU418
 1199 0322 16E7     		b	.L41
 1200              	.LVL142:
 1201              	.L60:
 611:Middlewares/lvgl/src/extra/layouts/grid/lv_grid.c ****             item->h_layout = 0;
 1202              		.loc 1 611 50 is_stmt 0 view .LVU419
 1203 0324 0133     		adds	r3, r3, #1
 1204 0326 F3E7     		b	.L42
 1205              	.L62:
 1206              		.align	2
 1207              	.L61:
 1208 0328 01800100 		.word	98305
 1209 032c 00000000 		.word	.LANCHOR0
 1210 0330 00000000 		.word	.LANCHOR1
 1211 0334 00000000 		.word	.LANCHOR2
 1212 0338 00000000 		.word	.LANCHOR3
 1213 033c 00000000 		.word	.LANCHOR4
 1214 0340 00000000 		.word	.LANCHOR5
ARM GAS  /tmp/cc3I9fWq.s 			page 50


 1215              	.LVL143:
 1216              	.L38:
 615:Middlewares/lvgl/src/extra/layouts/grid/lv_grid.c ****             item->h_layout = 0;
 1217              		.loc 1 615 13 is_stmt 1 view .LVU420
 615:Middlewares/lvgl/src/extra/layouts/grid/lv_grid.c ****             item->h_layout = 0;
 1218              		.loc 1 615 18 is_stmt 0 view .LVU421
 1219 0344 6B68     		ldr	r3, [r5, #4]
 615:Middlewares/lvgl/src/extra/layouts/grid/lv_grid.c ****             item->h_layout = 0;
 1220              		.loc 1 615 21 view .LVU422
 1221 0346 33F81A50 		ldrh	r5, [r3, r10, lsl #1]
 1222              	.LVL144:
 615:Middlewares/lvgl/src/extra/layouts/grid/lv_grid.c ****             item->h_layout = 0;
 1223              		.loc 1 615 31 view .LVU423
 1224 034a 059B     		ldr	r3, [sp, #20]
 1225 034c 2B44     		add	r3, r3, r5
 1226 034e 9DB2     		uxth	r5, r3
 615:Middlewares/lvgl/src/extra/layouts/grid/lv_grid.c ****             item->h_layout = 0;
 1227              		.loc 1 615 41 view .LVU424
 1228 0350 2046     		mov	r0, r4
 1229 0352 FFF7FEFF 		bl	lv_obj_get_height
 1230              	.LVL145:
 1231 0356 80B2     		uxth	r0, r0
 615:Middlewares/lvgl/src/extra/layouts/grid/lv_grid.c ****             item->h_layout = 0;
 1232              		.loc 1 615 39 view .LVU425
 1233 0358 2D1A     		subs	r5, r5, r0
 615:Middlewares/lvgl/src/extra/layouts/grid/lv_grid.c ****             item->h_layout = 0;
 1234              		.loc 1 615 15 view .LVU426
 1235 035a 2DB2     		sxth	r5, r5
 1236              	.LVL146:
 616:Middlewares/lvgl/src/extra/layouts/grid/lv_grid.c ****             break;
 1237              		.loc 1 616 13 is_stmt 1 view .LVU427
 616:Middlewares/lvgl/src/extra/layouts/grid/lv_grid.c ****             break;
 1238              		.loc 1 616 28 is_stmt 0 view .LVU428
 1239 035c 94F82330 		ldrb	r3, [r4, #35]	@ zero_extendqisi2
 1240 0360 6FF34103 		bfc	r3, #1, #1
 1241 0364 84F82330 		strb	r3, [r4, #35]
 617:Middlewares/lvgl/src/extra/layouts/grid/lv_grid.c ****     }
 1242              		.loc 1 617 13 is_stmt 1 view .LVU429
 1243 0368 F3E6     		b	.L41
 1244              	.L56:
 621:Middlewares/lvgl/src/extra/layouts/grid/lv_grid.c ****         lv_area_t old_coords;
 1245              		.loc 1 621 44 is_stmt 0 discriminator 1 view .LVU430
 1246 036a 2046     		mov	r0, r4
 1247 036c FFF7FEFF 		bl	lv_obj_get_height
 1248              	.LVL147:
 621:Middlewares/lvgl/src/extra/layouts/grid/lv_grid.c ****         lv_area_t old_coords;
 1249              		.loc 1 621 41 discriminator 1 view .LVU431
 1250 0370 B842     		cmp	r0, r7
 1251 0372 7FF4F4AE 		bne	.L43
 1252 0376 1FE7     		b	.L44
 1253              	.LVL148:
 1254              	.L57:
 638:Middlewares/lvgl/src/extra/layouts/grid/lv_grid.c ****     if(LV_COORD_IS_PCT(tr_y)) tr_y = (h * LV_COORD_GET_PCT(tr_y)) / 100;
 1255              		.loc 1 638 8 discriminator 1 view .LVU432
 1256 0378 2AF4C043 		bic	r3, r10, #24576
 1257 037c B3F5FA6F 		cmp	r3, #2000
 1258 0380 3FF739AF 		bgt	.L45
ARM GAS  /tmp/cc3I9fWq.s 			page 51


 638:Middlewares/lvgl/src/extra/layouts/grid/lv_grid.c ****     if(LV_COORD_IS_PCT(tr_y)) tr_y = (h * LV_COORD_GET_PCT(tr_y)) / 100;
 1259              		.loc 1 638 31 is_stmt 1 discriminator 2 view .LVU433
 638:Middlewares/lvgl/src/extra/layouts/grid/lv_grid.c ****     if(LV_COORD_IS_PCT(tr_y)) tr_y = (h * LV_COORD_GET_PCT(tr_y)) / 100;
 1260              		.loc 1 638 43 is_stmt 0 discriminator 2 view .LVU434
 1261 0384 B3F57A7F 		cmp	r3, #1000
 1262 0388 01DD     		ble	.L47
 638:Middlewares/lvgl/src/extra/layouts/grid/lv_grid.c ****     if(LV_COORD_IS_PCT(tr_y)) tr_y = (h * LV_COORD_GET_PCT(tr_y)) / 100;
 1263              		.loc 1 638 43 discriminator 3 view .LVU435
 1264 038a C3F57A73 		rsb	r3, r3, #1000
 1265              	.L47:
 638:Middlewares/lvgl/src/extra/layouts/grid/lv_grid.c ****     if(LV_COORD_IS_PCT(tr_y)) tr_y = (h * LV_COORD_GET_PCT(tr_y)) / 100;
 1266              		.loc 1 638 41 discriminator 6 view .LVU436
 1267 038e 03FB0BFB 		mul	fp, r3, fp
 1268              	.LVL149:
 638:Middlewares/lvgl/src/extra/layouts/grid/lv_grid.c ****     if(LV_COORD_IS_PCT(tr_y)) tr_y = (h * LV_COORD_GET_PCT(tr_y)) / 100;
 1269              		.loc 1 638 67 discriminator 6 view .LVU437
 1270 0392 104B     		ldr	r3, .L63
 1271 0394 83FB0B3A 		smull	r3, r10, r3, fp
 1272              	.LVL150:
 638:Middlewares/lvgl/src/extra/layouts/grid/lv_grid.c ****     if(LV_COORD_IS_PCT(tr_y)) tr_y = (h * LV_COORD_GET_PCT(tr_y)) / 100;
 1273              		.loc 1 638 67 discriminator 6 view .LVU438
 1274 0398 4FEAEB7B 		asr	fp, fp, #31
 1275 039c CBEB6A1A 		rsb	r10, fp, r10, asr #5
 638:Middlewares/lvgl/src/extra/layouts/grid/lv_grid.c ****     if(LV_COORD_IS_PCT(tr_y)) tr_y = (h * LV_COORD_GET_PCT(tr_y)) / 100;
 1276              		.loc 1 638 36 discriminator 6 view .LVU439
 1277 03a0 0FFA8AFA 		sxth	r10, r10
 1278              	.LVL151:
 638:Middlewares/lvgl/src/extra/layouts/grid/lv_grid.c ****     if(LV_COORD_IS_PCT(tr_y)) tr_y = (h * LV_COORD_GET_PCT(tr_y)) / 100;
 1279              		.loc 1 638 36 discriminator 6 view .LVU440
 1280 03a4 27E7     		b	.L45
 1281              	.L58:
 639:Middlewares/lvgl/src/extra/layouts/grid/lv_grid.c **** 
 1282              		.loc 1 639 8 discriminator 1 view .LVU441
 1283 03a6 29F4C043 		bic	r3, r9, #24576
 1284 03aa B3F5FA6F 		cmp	r3, #2000
 1285 03ae 3FF728AF 		bgt	.L48
 639:Middlewares/lvgl/src/extra/layouts/grid/lv_grid.c **** 
 1286              		.loc 1 639 31 is_stmt 1 discriminator 2 view .LVU442
 639:Middlewares/lvgl/src/extra/layouts/grid/lv_grid.c **** 
 1287              		.loc 1 639 43 is_stmt 0 discriminator 2 view .LVU443
 1288 03b2 B3F57A7F 		cmp	r3, #1000
 1289 03b6 01DD     		ble	.L50
 639:Middlewares/lvgl/src/extra/layouts/grid/lv_grid.c **** 
 1290              		.loc 1 639 43 discriminator 3 view .LVU444
 1291 03b8 C3F57A73 		rsb	r3, r3, #1000
 1292              	.L50:
 639:Middlewares/lvgl/src/extra/layouts/grid/lv_grid.c **** 
 1293              		.loc 1 639 41 discriminator 6 view .LVU445
 1294 03bc 00FB03F3 		mul	r3, r0, r3
 639:Middlewares/lvgl/src/extra/layouts/grid/lv_grid.c **** 
 1295              		.loc 1 639 67 discriminator 6 view .LVU446
 1296 03c0 044A     		ldr	r2, .L63
 1297 03c2 82FB0312 		smull	r1, r2, r2, r3
 1298 03c6 4FEAE379 		asr	r9, r3, #31
 1299              	.LVL152:
 639:Middlewares/lvgl/src/extra/layouts/grid/lv_grid.c **** 
 1300              		.loc 1 639 67 discriminator 6 view .LVU447
ARM GAS  /tmp/cc3I9fWq.s 			page 52


 1301 03ca C9EB6219 		rsb	r9, r9, r2, asr #5
 639:Middlewares/lvgl/src/extra/layouts/grid/lv_grid.c **** 
 1302              		.loc 1 639 36 discriminator 6 view .LVU448
 1303 03ce 0FFA89F9 		sxth	r9, r9
 1304              	.LVL153:
 639:Middlewares/lvgl/src/extra/layouts/grid/lv_grid.c **** 
 1305              		.loc 1 639 36 discriminator 6 view .LVU449
 1306 03d2 16E7     		b	.L48
 1307              	.L64:
 1308              		.align	2
 1309              	.L63:
 1310 03d4 1F85EB51 		.word	1374389535
 1311              		.cfi_endproc
 1312              	.LFE202:
 1314              		.section	.text.calc_free,"ax",%progbits
 1315              		.align	1
 1316              		.syntax unified
 1317              		.thumb
 1318              		.thumb_func
 1320              	calc_free:
 1321              	.LVL154:
 1322              	.LFB199:
 393:Middlewares/lvgl/src/extra/layouts/grid/lv_grid.c ****     lv_mem_buf_release(calc->x);
 1323              		.loc 1 393 1 is_stmt 1 view -0
 1324              		.cfi_startproc
 1325              		@ args = 0, pretend = 0, frame = 0
 1326              		@ frame_needed = 0, uses_anonymous_args = 0
 393:Middlewares/lvgl/src/extra/layouts/grid/lv_grid.c ****     lv_mem_buf_release(calc->x);
 1327              		.loc 1 393 1 is_stmt 0 view .LVU451
 1328 0000 10B5     		push	{r4, lr}
 1329              	.LCFI5:
 1330              		.cfi_def_cfa_offset 8
 1331              		.cfi_offset 4, -8
 1332              		.cfi_offset 14, -4
 1333 0002 0446     		mov	r4, r0
 394:Middlewares/lvgl/src/extra/layouts/grid/lv_grid.c ****     lv_mem_buf_release(calc->y);
 1334              		.loc 1 394 5 is_stmt 1 view .LVU452
 1335 0004 0068     		ldr	r0, [r0]
 1336              	.LVL155:
 394:Middlewares/lvgl/src/extra/layouts/grid/lv_grid.c ****     lv_mem_buf_release(calc->y);
 1337              		.loc 1 394 5 is_stmt 0 view .LVU453
 1338 0006 FFF7FEFF 		bl	lv_mem_buf_release
 1339              	.LVL156:
 395:Middlewares/lvgl/src/extra/layouts/grid/lv_grid.c ****     lv_mem_buf_release(calc->w);
 1340              		.loc 1 395 5 is_stmt 1 view .LVU454
 1341 000a 6068     		ldr	r0, [r4, #4]
 1342 000c FFF7FEFF 		bl	lv_mem_buf_release
 1343              	.LVL157:
 396:Middlewares/lvgl/src/extra/layouts/grid/lv_grid.c ****     lv_mem_buf_release(calc->h);
 1344              		.loc 1 396 5 view .LVU455
 1345 0010 A068     		ldr	r0, [r4, #8]
 1346 0012 FFF7FEFF 		bl	lv_mem_buf_release
 1347              	.LVL158:
 397:Middlewares/lvgl/src/extra/layouts/grid/lv_grid.c **** }
 1348              		.loc 1 397 5 view .LVU456
 1349 0016 E068     		ldr	r0, [r4, #12]
 1350 0018 FFF7FEFF 		bl	lv_mem_buf_release
ARM GAS  /tmp/cc3I9fWq.s 			page 53


 1351              	.LVL159:
 398:Middlewares/lvgl/src/extra/layouts/grid/lv_grid.c **** 
 1352              		.loc 1 398 1 is_stmt 0 view .LVU457
 1353 001c 10BD     		pop	{r4, pc}
 398:Middlewares/lvgl/src/extra/layouts/grid/lv_grid.c **** 
 1354              		.loc 1 398 1 view .LVU458
 1355              		.cfi_endproc
 1356              	.LFE199:
 1358              		.section	.text.calc_rows,"ax",%progbits
 1359              		.align	1
 1360              		.syntax unified
 1361              		.thumb
 1362              		.thumb_func
 1364              	calc_rows:
 1365              	.LVL160:
 1366              	.LFB201:
 473:Middlewares/lvgl/src/extra/layouts/grid/lv_grid.c ****     uint32_t i;
 1367              		.loc 1 473 1 is_stmt 1 view -0
 1368              		.cfi_startproc
 1369              		@ args = 0, pretend = 0, frame = 0
 1370              		@ frame_needed = 0, uses_anonymous_args = 0
 473:Middlewares/lvgl/src/extra/layouts/grid/lv_grid.c ****     uint32_t i;
 1371              		.loc 1 473 1 is_stmt 0 view .LVU460
 1372 0000 2DE9F84F 		push	{r3, r4, r5, r6, r7, r8, r9, r10, fp, lr}
 1373              	.LCFI6:
 1374              		.cfi_def_cfa_offset 40
 1375              		.cfi_offset 3, -40
 1376              		.cfi_offset 4, -36
 1377              		.cfi_offset 5, -32
 1378              		.cfi_offset 6, -28
 1379              		.cfi_offset 7, -24
 1380              		.cfi_offset 8, -20
 1381              		.cfi_offset 9, -16
 1382              		.cfi_offset 10, -12
 1383              		.cfi_offset 11, -8
 1384              		.cfi_offset 14, -4
 1385 0004 8046     		mov	r8, r0
 1386 0006 0C46     		mov	r4, r1
 474:Middlewares/lvgl/src/extra/layouts/grid/lv_grid.c ****     const lv_coord_t * row_templ = get_row_dsc(cont);
 1387              		.loc 1 474 5 is_stmt 1 view .LVU461
 475:Middlewares/lvgl/src/extra/layouts/grid/lv_grid.c ****     c->row_num = count_tracks(row_templ);
 1388              		.loc 1 475 5 view .LVU462
 1389              	.LVL161:
 1390              	.LBB166:
 1391              	.LBI166:
  61:Middlewares/lvgl/src/extra/layouts/grid/lv_grid.c **** static inline uint8_t get_col_pos(lv_obj_t * obj) {return lv_obj_get_style_grid_cell_column_pos(obj
 1392              		.loc 1 61 34 view .LVU463
 1393              	.LBE166:
  61:Middlewares/lvgl/src/extra/layouts/grid/lv_grid.c **** static inline uint8_t get_col_pos(lv_obj_t * obj) {return lv_obj_get_style_grid_cell_column_pos(obj
 1394              		.loc 1 61 63 view .LVU464
 1395              	.LBB169:
 1396              	.LBB167:
 1397              	.LBI167:
 121:Middlewares/lvgl/src/extra/layouts/grid/../grid/lv_grid.h **** {
 1398              		.loc 2 121 34 view .LVU465
 1399              	.LBB168:
 123:Middlewares/lvgl/src/extra/layouts/grid/../grid/lv_grid.h ****     return (const lv_coord_t *)v.ptr;
ARM GAS  /tmp/cc3I9fWq.s 			page 54


 1400              		.loc 2 123 5 view .LVU466
 123:Middlewares/lvgl/src/extra/layouts/grid/../grid/lv_grid.h ****     return (const lv_coord_t *)v.ptr;
 1401              		.loc 2 123 26 is_stmt 0 view .LVU467
 1402 0008 564B     		ldr	r3, .L93
 1403 000a 1A88     		ldrh	r2, [r3]
 1404 000c 0021     		movs	r1, #0
 1405              	.LVL162:
 123:Middlewares/lvgl/src/extra/layouts/grid/../grid/lv_grid.h ****     return (const lv_coord_t *)v.ptr;
 1406              		.loc 2 123 26 view .LVU468
 1407 000e FFF7FEFF 		bl	lv_obj_get_style_prop
 1408              	.LVL163:
 123:Middlewares/lvgl/src/extra/layouts/grid/../grid/lv_grid.h ****     return (const lv_coord_t *)v.ptr;
 1409              		.loc 2 123 26 view .LVU469
 1410 0012 0746     		mov	r7, r0
 124:Middlewares/lvgl/src/extra/layouts/grid/../grid/lv_grid.h **** }
 1411              		.loc 2 124 5 is_stmt 1 view .LVU470
 1412              	.LVL164:
 124:Middlewares/lvgl/src/extra/layouts/grid/../grid/lv_grid.h **** }
 1413              		.loc 2 124 5 is_stmt 0 view .LVU471
 1414              	.LBE168:
 1415              	.LBE167:
 1416              	.LBE169:
 476:Middlewares/lvgl/src/extra/layouts/grid/lv_grid.c ****     c->y = lv_mem_buf_get(sizeof(lv_coord_t) * c->row_num);
 1417              		.loc 1 476 5 is_stmt 1 view .LVU472
 476:Middlewares/lvgl/src/extra/layouts/grid/lv_grid.c ****     c->y = lv_mem_buf_get(sizeof(lv_coord_t) * c->row_num);
 1418              		.loc 1 476 18 is_stmt 0 view .LVU473
 1419 0014 FFF7FEFF 		bl	count_tracks
 1420              	.LVL165:
 476:Middlewares/lvgl/src/extra/layouts/grid/lv_grid.c ****     c->y = lv_mem_buf_get(sizeof(lv_coord_t) * c->row_num);
 1421              		.loc 1 476 16 view .LVU474
 1422 0018 6061     		str	r0, [r4, #20]
 477:Middlewares/lvgl/src/extra/layouts/grid/lv_grid.c ****     c->h = lv_mem_buf_get(sizeof(lv_coord_t) * c->row_num);
 1423              		.loc 1 477 5 is_stmt 1 view .LVU475
 477:Middlewares/lvgl/src/extra/layouts/grid/lv_grid.c ****     c->h = lv_mem_buf_get(sizeof(lv_coord_t) * c->row_num);
 1424              		.loc 1 477 12 is_stmt 0 view .LVU476
 1425 001a 4000     		lsls	r0, r0, #1
 1426 001c FFF7FEFF 		bl	lv_mem_buf_get
 1427              	.LVL166:
 477:Middlewares/lvgl/src/extra/layouts/grid/lv_grid.c ****     c->h = lv_mem_buf_get(sizeof(lv_coord_t) * c->row_num);
 1428              		.loc 1 477 10 view .LVU477
 1429 0020 6060     		str	r0, [r4, #4]
 478:Middlewares/lvgl/src/extra/layouts/grid/lv_grid.c ****     /*Set sizes for CONTENT cells*/
 1430              		.loc 1 478 5 is_stmt 1 view .LVU478
 478:Middlewares/lvgl/src/extra/layouts/grid/lv_grid.c ****     /*Set sizes for CONTENT cells*/
 1431              		.loc 1 478 49 is_stmt 0 view .LVU479
 1432 0022 6069     		ldr	r0, [r4, #20]
 478:Middlewares/lvgl/src/extra/layouts/grid/lv_grid.c ****     /*Set sizes for CONTENT cells*/
 1433              		.loc 1 478 12 view .LVU480
 1434 0024 4000     		lsls	r0, r0, #1
 1435 0026 FFF7FEFF 		bl	lv_mem_buf_get
 1436              	.LVL167:
 478:Middlewares/lvgl/src/extra/layouts/grid/lv_grid.c ****     /*Set sizes for CONTENT cells*/
 1437              		.loc 1 478 10 view .LVU481
 1438 002a E060     		str	r0, [r4, #12]
 480:Middlewares/lvgl/src/extra/layouts/grid/lv_grid.c ****         lv_coord_t size = LV_COORD_MIN;
 1439              		.loc 1 480 5 is_stmt 1 view .LVU482
 1440              	.LVL168:
ARM GAS  /tmp/cc3I9fWq.s 			page 55


 480:Middlewares/lvgl/src/extra/layouts/grid/lv_grid.c ****         lv_coord_t size = LV_COORD_MIN;
 1441              		.loc 1 480 11 is_stmt 0 view .LVU483
 1442 002c 0026     		movs	r6, #0
 480:Middlewares/lvgl/src/extra/layouts/grid/lv_grid.c ****         lv_coord_t size = LV_COORD_MIN;
 1443              		.loc 1 480 5 view .LVU484
 1444 002e 32E0     		b	.L68
 1445              	.LVL169:
 1446              	.L71:
 1447              	.LBB170:
 1448              	.LBB171:
 485:Middlewares/lvgl/src/extra/layouts/grid/lv_grid.c ****                 lv_obj_t * item = lv_obj_get_child(cont, ci);
 1449              		.loc 1 485 58 is_stmt 1 discriminator 2 view .LVU485
 485:Middlewares/lvgl/src/extra/layouts/grid/lv_grid.c ****                 lv_obj_t * item = lv_obj_get_child(cont, ci);
 1450              		.loc 1 485 60 is_stmt 0 discriminator 2 view .LVU486
 1451 0030 0135     		adds	r5, r5, #1
 1452              	.LVL170:
 1453              	.L69:
 485:Middlewares/lvgl/src/extra/layouts/grid/lv_grid.c ****                 lv_obj_t * item = lv_obj_get_child(cont, ci);
 1454              		.loc 1 485 25 is_stmt 1 discriminator 1 view .LVU487
 485:Middlewares/lvgl/src/extra/layouts/grid/lv_grid.c ****                 lv_obj_t * item = lv_obj_get_child(cont, ci);
 1455              		.loc 1 485 30 is_stmt 0 discriminator 1 view .LVU488
 1456 0032 4046     		mov	r0, r8
 1457 0034 FFF7FEFF 		bl	lv_obj_get_child_cnt
 1458              	.LVL171:
 485:Middlewares/lvgl/src/extra/layouts/grid/lv_grid.c ****                 lv_obj_t * item = lv_obj_get_child(cont, ci);
 1459              		.loc 1 485 13 discriminator 1 view .LVU489
 1460 0038 A842     		cmp	r0, r5
 1461 003a 25D9     		bls	.L87
 1462              	.LBB172:
 486:Middlewares/lvgl/src/extra/layouts/grid/lv_grid.c ****                 if(lv_obj_has_flag_any(item, LV_OBJ_FLAG_IGNORE_LAYOUT | LV_OBJ_FLAG_HIDDEN | LV_OB
 1463              		.loc 1 486 17 is_stmt 1 view .LVU490
 486:Middlewares/lvgl/src/extra/layouts/grid/lv_grid.c ****                 if(lv_obj_has_flag_any(item, LV_OBJ_FLAG_IGNORE_LAYOUT | LV_OBJ_FLAG_HIDDEN | LV_OB
 1464              		.loc 1 486 35 is_stmt 0 view .LVU491
 1465 003c 2946     		mov	r1, r5
 1466 003e 4046     		mov	r0, r8
 1467 0040 FFF7FEFF 		bl	lv_obj_get_child
 1468              	.LVL172:
 1469 0044 8146     		mov	r9, r0
 1470              	.LVL173:
 487:Middlewares/lvgl/src/extra/layouts/grid/lv_grid.c ****                 uint32_t row_span = get_row_span(item);
 1471              		.loc 1 487 17 is_stmt 1 view .LVU492
 487:Middlewares/lvgl/src/extra/layouts/grid/lv_grid.c ****                 uint32_t row_span = get_row_span(item);
 1472              		.loc 1 487 20 is_stmt 0 view .LVU493
 1473 0046 4849     		ldr	r1, .L93+4
 1474 0048 FFF7FEFF 		bl	lv_obj_has_flag_any
 1475              	.LVL174:
 487:Middlewares/lvgl/src/extra/layouts/grid/lv_grid.c ****                 uint32_t row_span = get_row_span(item);
 1476              		.loc 1 487 19 view .LVU494
 1477 004c 0028     		cmp	r0, #0
 1478 004e EFD1     		bne	.L71
 488:Middlewares/lvgl/src/extra/layouts/grid/lv_grid.c ****                 if(row_span != 1) continue;
 1479              		.loc 1 488 17 is_stmt 1 view .LVU495
 1480              	.LVL175:
 1481              	.LBB173:
 1482              	.LBI173:
  65:Middlewares/lvgl/src/extra/layouts/grid/lv_grid.c **** static inline uint8_t get_cell_col_align(lv_obj_t * obj) {return lv_obj_get_style_grid_cell_x_align
 1483              		.loc 1 65 23 view .LVU496
ARM GAS  /tmp/cc3I9fWq.s 			page 56


 1484              	.LBB174:
  65:Middlewares/lvgl/src/extra/layouts/grid/lv_grid.c **** static inline uint8_t get_cell_col_align(lv_obj_t * obj) {return lv_obj_get_style_grid_cell_x_align
 1485              		.loc 1 65 53 view .LVU497
 1486              	.LBB175:
 1487              	.LBI175:
 163:Middlewares/lvgl/src/extra/layouts/grid/../grid/lv_grid.h **** {
 1488              		.loc 2 163 26 view .LVU498
 1489              	.LBB176:
 165:Middlewares/lvgl/src/extra/layouts/grid/../grid/lv_grid.h ****     return (lv_coord_t)v.num;
 1490              		.loc 2 165 5 view .LVU499
 165:Middlewares/lvgl/src/extra/layouts/grid/../grid/lv_grid.h ****     return (lv_coord_t)v.num;
 1491              		.loc 2 165 26 is_stmt 0 view .LVU500
 1492 0050 464B     		ldr	r3, .L93+8
 1493 0052 1A88     		ldrh	r2, [r3]
 1494 0054 0021     		movs	r1, #0
 1495 0056 4846     		mov	r0, r9
 1496 0058 FFF7FEFF 		bl	lv_obj_get_style_prop
 1497              	.LVL176:
 166:Middlewares/lvgl/src/extra/layouts/grid/../grid/lv_grid.h **** }
 1498              		.loc 2 166 5 is_stmt 1 view .LVU501
 166:Middlewares/lvgl/src/extra/layouts/grid/../grid/lv_grid.h **** }
 1499              		.loc 2 166 5 is_stmt 0 view .LVU502
 1500              	.LBE176:
 1501              	.LBE175:
  65:Middlewares/lvgl/src/extra/layouts/grid/lv_grid.c **** static inline uint8_t get_cell_col_align(lv_obj_t * obj) {return lv_obj_get_style_grid_cell_x_align
 1502              		.loc 1 65 60 view .LVU503
 1503 005c C0B2     		uxtb	r0, r0
 1504              	.LVL177:
  65:Middlewares/lvgl/src/extra/layouts/grid/lv_grid.c **** static inline uint8_t get_cell_col_align(lv_obj_t * obj) {return lv_obj_get_style_grid_cell_x_align
 1505              		.loc 1 65 60 view .LVU504
 1506              	.LBE174:
 1507              	.LBE173:
 489:Middlewares/lvgl/src/extra/layouts/grid/lv_grid.c **** 
 1508              		.loc 1 489 17 is_stmt 1 view .LVU505
 489:Middlewares/lvgl/src/extra/layouts/grid/lv_grid.c **** 
 1509              		.loc 1 489 19 is_stmt 0 view .LVU506
 1510 005e 0128     		cmp	r0, #1
 1511 0060 E6D1     		bne	.L71
 491:Middlewares/lvgl/src/extra/layouts/grid/lv_grid.c ****                 if(row_pos != i) continue;
 1512              		.loc 1 491 17 is_stmt 1 view .LVU507
 1513              	.LVL178:
 1514              	.LBB177:
 1515              	.LBI177:
  63:Middlewares/lvgl/src/extra/layouts/grid/lv_grid.c **** static inline uint8_t get_col_span(lv_obj_t * obj) {return lv_obj_get_style_grid_cell_column_span(o
 1516              		.loc 1 63 23 view .LVU508
 1517              	.LBB178:
  63:Middlewares/lvgl/src/extra/layouts/grid/lv_grid.c **** static inline uint8_t get_col_span(lv_obj_t * obj) {return lv_obj_get_style_grid_cell_column_span(o
 1518              		.loc 1 63 52 view .LVU509
 1519              	.LBB179:
 1520              	.LBI179:
 157:Middlewares/lvgl/src/extra/layouts/grid/../grid/lv_grid.h **** {
 1521              		.loc 2 157 26 view .LVU510
 1522              	.LBB180:
 159:Middlewares/lvgl/src/extra/layouts/grid/../grid/lv_grid.h ****     return (lv_coord_t)v.num;
 1523              		.loc 2 159 5 view .LVU511
 159:Middlewares/lvgl/src/extra/layouts/grid/../grid/lv_grid.h ****     return (lv_coord_t)v.num;
 1524              		.loc 2 159 26 is_stmt 0 view .LVU512
ARM GAS  /tmp/cc3I9fWq.s 			page 57


 1525 0062 434B     		ldr	r3, .L93+12
 1526 0064 1A88     		ldrh	r2, [r3]
 1527 0066 0021     		movs	r1, #0
 1528 0068 4846     		mov	r0, r9
 1529              	.LVL179:
 159:Middlewares/lvgl/src/extra/layouts/grid/../grid/lv_grid.h ****     return (lv_coord_t)v.num;
 1530              		.loc 2 159 26 view .LVU513
 1531 006a FFF7FEFF 		bl	lv_obj_get_style_prop
 1532              	.LVL180:
 160:Middlewares/lvgl/src/extra/layouts/grid/../grid/lv_grid.h **** }
 1533              		.loc 2 160 5 is_stmt 1 view .LVU514
 160:Middlewares/lvgl/src/extra/layouts/grid/../grid/lv_grid.h **** }
 1534              		.loc 2 160 5 is_stmt 0 view .LVU515
 1535              	.LBE180:
 1536              	.LBE179:
  63:Middlewares/lvgl/src/extra/layouts/grid/lv_grid.c **** static inline uint8_t get_col_span(lv_obj_t * obj) {return lv_obj_get_style_grid_cell_column_span(o
 1537              		.loc 1 63 59 view .LVU516
 1538 006e C0B2     		uxtb	r0, r0
 1539              	.LVL181:
  63:Middlewares/lvgl/src/extra/layouts/grid/lv_grid.c **** static inline uint8_t get_col_span(lv_obj_t * obj) {return lv_obj_get_style_grid_cell_column_span(o
 1540              		.loc 1 63 59 view .LVU517
 1541              	.LBE178:
 1542              	.LBE177:
 492:Middlewares/lvgl/src/extra/layouts/grid/lv_grid.c **** 
 1543              		.loc 1 492 17 is_stmt 1 view .LVU518
 492:Middlewares/lvgl/src/extra/layouts/grid/lv_grid.c **** 
 1544              		.loc 1 492 19 is_stmt 0 view .LVU519
 1545 0070 8642     		cmp	r6, r0
 1546 0072 DDD1     		bne	.L71
 494:Middlewares/lvgl/src/extra/layouts/grid/lv_grid.c ****             }
 1547              		.loc 1 494 17 is_stmt 1 view .LVU520
 494:Middlewares/lvgl/src/extra/layouts/grid/lv_grid.c ****             }
 1548              		.loc 1 494 24 is_stmt 0 view .LVU521
 1549 0074 4846     		mov	r0, r9
 1550              	.LVL182:
 494:Middlewares/lvgl/src/extra/layouts/grid/lv_grid.c ****             }
 1551              		.loc 1 494 24 view .LVU522
 1552 0076 FFF7FEFF 		bl	lv_obj_get_height
 1553              	.LVL183:
 494:Middlewares/lvgl/src/extra/layouts/grid/lv_grid.c ****             }
 1554              		.loc 1 494 22 view .LVU523
 1555 007a 5845     		cmp	r0, fp
 1556 007c D8DB     		blt	.L71
 494:Middlewares/lvgl/src/extra/layouts/grid/lv_grid.c ****             }
 1557              		.loc 1 494 24 discriminator 1 view .LVU524
 1558 007e 4846     		mov	r0, r9
 1559 0080 FFF7FEFF 		bl	lv_obj_get_height
 1560              	.LVL184:
 1561 0084 8346     		mov	fp, r0
 1562              	.LVL185:
 494:Middlewares/lvgl/src/extra/layouts/grid/lv_grid.c ****             }
 1563              		.loc 1 494 24 discriminator 1 view .LVU525
 1564 0086 D3E7     		b	.L71
 1565              	.LVL186:
 1566              	.L87:
 494:Middlewares/lvgl/src/extra/layouts/grid/lv_grid.c ****             }
 1567              		.loc 1 494 24 discriminator 1 view .LVU526
ARM GAS  /tmp/cc3I9fWq.s 			page 58


 1568              	.LBE172:
 496:Middlewares/lvgl/src/extra/layouts/grid/lv_grid.c ****             else c->h[i] = 0;
 1569              		.loc 1 496 13 is_stmt 1 view .LVU527
 496:Middlewares/lvgl/src/extra/layouts/grid/lv_grid.c ****             else c->h[i] = 0;
 1570              		.loc 1 496 15 is_stmt 0 view .LVU528
 1571 0088 BBF1000F 		cmp	fp, #0
 1572 008c 12DB     		blt	.L73
 496:Middlewares/lvgl/src/extra/layouts/grid/lv_grid.c ****             else c->h[i] = 0;
 1573              		.loc 1 496 27 is_stmt 1 discriminator 1 view .LVU529
 496:Middlewares/lvgl/src/extra/layouts/grid/lv_grid.c ****             else c->h[i] = 0;
 1574              		.loc 1 496 28 is_stmt 0 discriminator 1 view .LVU530
 1575 008e E368     		ldr	r3, [r4, #12]
 496:Middlewares/lvgl/src/extra/layouts/grid/lv_grid.c ****             else c->h[i] = 0;
 1576              		.loc 1 496 35 discriminator 1 view .LVU531
 1577 0090 23F80AB0 		strh	fp, [r3, r10]	@ movhi
 1578              	.LVL187:
 1579              	.L70:
 496:Middlewares/lvgl/src/extra/layouts/grid/lv_grid.c ****             else c->h[i] = 0;
 1580              		.loc 1 496 35 discriminator 1 view .LVU532
 1581              	.LBE171:
 1582              	.LBE170:
 480:Middlewares/lvgl/src/extra/layouts/grid/lv_grid.c ****         lv_coord_t size = LV_COORD_MIN;
 1583              		.loc 1 480 32 is_stmt 1 discriminator 2 view .LVU533
 480:Middlewares/lvgl/src/extra/layouts/grid/lv_grid.c ****         lv_coord_t size = LV_COORD_MIN;
 1584              		.loc 1 480 33 is_stmt 0 discriminator 2 view .LVU534
 1585 0094 0136     		adds	r6, r6, #1
 1586              	.LVL188:
 1587              	.L68:
 480:Middlewares/lvgl/src/extra/layouts/grid/lv_grid.c ****         lv_coord_t size = LV_COORD_MIN;
 1588              		.loc 1 480 16 is_stmt 1 discriminator 1 view .LVU535
 480:Middlewares/lvgl/src/extra/layouts/grid/lv_grid.c ****         lv_coord_t size = LV_COORD_MIN;
 1589              		.loc 1 480 21 is_stmt 0 discriminator 1 view .LVU536
 1590 0096 6369     		ldr	r3, [r4, #20]
 480:Middlewares/lvgl/src/extra/layouts/grid/lv_grid.c ****         lv_coord_t size = LV_COORD_MIN;
 1591              		.loc 1 480 5 discriminator 1 view .LVU537
 1592 0098 B342     		cmp	r3, r6
 1593 009a 10D9     		bls	.L88
 1594              	.LBB183:
 481:Middlewares/lvgl/src/extra/layouts/grid/lv_grid.c ****         if(IS_CONTENT(row_templ[i])) {
 1595              		.loc 1 481 9 is_stmt 1 view .LVU538
 1596              	.LVL189:
 482:Middlewares/lvgl/src/extra/layouts/grid/lv_grid.c ****             /*Check the size of children of this cell*/
 1597              		.loc 1 482 9 view .LVU539
 482:Middlewares/lvgl/src/extra/layouts/grid/lv_grid.c ****             /*Check the size of children of this cell*/
 1598              		.loc 1 482 12 is_stmt 0 view .LVU540
 1599 009c 4FEA460A 		lsl	r10, r6, #1
 1600 00a0 37F91620 		ldrsh	r2, [r7, r6, lsl #1]
 482:Middlewares/lvgl/src/extra/layouts/grid/lv_grid.c ****             /*Check the size of children of this cell*/
 1601              		.loc 1 482 11 view .LVU541
 1602 00a4 45F69B73 		movw	r3, #24475
 1603 00a8 9A42     		cmp	r2, r3
 1604 00aa F3D1     		bne	.L70
 1605              	.LBB181:
 485:Middlewares/lvgl/src/extra/layouts/grid/lv_grid.c ****                 lv_obj_t * item = lv_obj_get_child(cont, ci);
 1606              		.loc 1 485 20 view .LVU542
 1607 00ac 0025     		movs	r5, #0
 1608              	.LBE181:
ARM GAS  /tmp/cc3I9fWq.s 			page 59


 481:Middlewares/lvgl/src/extra/layouts/grid/lv_grid.c ****         if(IS_CONTENT(row_templ[i])) {
 1609              		.loc 1 481 20 view .LVU543
 1610 00ae DFF8C8B0 		ldr	fp, .L93+20
 1611 00b2 BEE7     		b	.L69
 1612              	.LVL190:
 1613              	.L73:
 1614              	.LBB182:
 497:Middlewares/lvgl/src/extra/layouts/grid/lv_grid.c ****         }
 1615              		.loc 1 497 18 is_stmt 1 view .LVU544
 497:Middlewares/lvgl/src/extra/layouts/grid/lv_grid.c ****         }
 1616              		.loc 1 497 19 is_stmt 0 view .LVU545
 1617 00b4 E368     		ldr	r3, [r4, #12]
 497:Middlewares/lvgl/src/extra/layouts/grid/lv_grid.c ****         }
 1618              		.loc 1 497 26 view .LVU546
 1619 00b6 0022     		movs	r2, #0
 1620 00b8 23F80A20 		strh	r2, [r3, r10]	@ movhi
 1621 00bc EAE7     		b	.L70
 1622              	.LVL191:
 1623              	.L88:
 497:Middlewares/lvgl/src/extra/layouts/grid/lv_grid.c ****         }
 1624              		.loc 1 497 26 view .LVU547
 1625              	.LBE182:
 1626              	.LBE183:
 502:Middlewares/lvgl/src/extra/layouts/grid/lv_grid.c **** 
 1627              		.loc 1 502 16 view .LVU548
 1628 00be 0026     		movs	r6, #0
 1629              	.LVL192:
 501:Middlewares/lvgl/src/extra/layouts/grid/lv_grid.c ****     lv_coord_t grid_h = 0;
 1630              		.loc 1 501 14 view .LVU549
 1631 00c0 3546     		mov	r5, r6
 504:Middlewares/lvgl/src/extra/layouts/grid/lv_grid.c ****         lv_coord_t x = row_templ[i];
 1632              		.loc 1 504 11 view .LVU550
 1633 00c2 3246     		mov	r2, r6
 1634 00c4 08E0     		b	.L75
 1635              	.LVL193:
 1636              	.L76:
 1637              	.LBB184:
 508:Middlewares/lvgl/src/extra/layouts/grid/lv_grid.c ****             grid_h += c->h[i];
 1638              		.loc 1 508 16 is_stmt 1 view .LVU551
 508:Middlewares/lvgl/src/extra/layouts/grid/lv_grid.c ****             grid_h += c->h[i];
 1639              		.loc 1 508 19 is_stmt 0 view .LVU552
 1640 00c6 45F69B71 		movw	r1, #24475
 1641 00ca 8B42     		cmp	r3, r1
 1642 00cc 12D0     		beq	.L89
 511:Middlewares/lvgl/src/extra/layouts/grid/lv_grid.c ****             grid_h += x;
 1643              		.loc 1 511 13 is_stmt 1 view .LVU553
 511:Middlewares/lvgl/src/extra/layouts/grid/lv_grid.c ****             grid_h += x;
 1644              		.loc 1 511 14 is_stmt 0 view .LVU554
 1645 00ce E168     		ldr	r1, [r4, #12]
 511:Middlewares/lvgl/src/extra/layouts/grid/lv_grid.c ****             grid_h += x;
 1646              		.loc 1 511 21 view .LVU555
 1647 00d0 0B52     		strh	r3, [r1, r0]	@ movhi
 512:Middlewares/lvgl/src/extra/layouts/grid/lv_grid.c ****         }
 1648              		.loc 1 512 13 is_stmt 1 view .LVU556
 512:Middlewares/lvgl/src/extra/layouts/grid/lv_grid.c ****         }
 1649              		.loc 1 512 20 is_stmt 0 view .LVU557
 1650 00d2 3344     		add	r3, r3, r6
ARM GAS  /tmp/cc3I9fWq.s 			page 60


 1651              	.LVL194:
 512:Middlewares/lvgl/src/extra/layouts/grid/lv_grid.c ****         }
 1652              		.loc 1 512 20 view .LVU558
 1653 00d4 1EB2     		sxth	r6, r3
 1654              	.LVL195:
 1655              	.L77:
 512:Middlewares/lvgl/src/extra/layouts/grid/lv_grid.c ****         }
 1656              		.loc 1 512 20 view .LVU559
 1657              	.LBE184:
 504:Middlewares/lvgl/src/extra/layouts/grid/lv_grid.c ****         lv_coord_t x = row_templ[i];
 1658              		.loc 1 504 32 is_stmt 1 discriminator 2 view .LVU560
 504:Middlewares/lvgl/src/extra/layouts/grid/lv_grid.c ****         lv_coord_t x = row_templ[i];
 1659              		.loc 1 504 33 is_stmt 0 discriminator 2 view .LVU561
 1660 00d6 0132     		adds	r2, r2, #1
 1661              	.LVL196:
 1662              	.L75:
 504:Middlewares/lvgl/src/extra/layouts/grid/lv_grid.c ****         lv_coord_t x = row_templ[i];
 1663              		.loc 1 504 16 is_stmt 1 discriminator 1 view .LVU562
 504:Middlewares/lvgl/src/extra/layouts/grid/lv_grid.c ****         lv_coord_t x = row_templ[i];
 1664              		.loc 1 504 21 is_stmt 0 discriminator 1 view .LVU563
 1665 00d8 6369     		ldr	r3, [r4, #20]
 504:Middlewares/lvgl/src/extra/layouts/grid/lv_grid.c ****         lv_coord_t x = row_templ[i];
 1666              		.loc 1 504 5 discriminator 1 view .LVU564
 1667 00da 9342     		cmp	r3, r2
 1668 00dc 0FD9     		bls	.L90
 1669              	.LBB185:
 505:Middlewares/lvgl/src/extra/layouts/grid/lv_grid.c ****         if(IS_FR(x)) {
 1670              		.loc 1 505 9 is_stmt 1 view .LVU565
 505:Middlewares/lvgl/src/extra/layouts/grid/lv_grid.c ****         if(IS_FR(x)) {
 1671              		.loc 1 505 33 is_stmt 0 view .LVU566
 1672 00de 5000     		lsls	r0, r2, #1
 505:Middlewares/lvgl/src/extra/layouts/grid/lv_grid.c ****         if(IS_FR(x)) {
 1673              		.loc 1 505 20 view .LVU567
 1674 00e0 37F91230 		ldrsh	r3, [r7, r2, lsl #1]
 1675              	.LVL197:
 506:Middlewares/lvgl/src/extra/layouts/grid/lv_grid.c ****             row_fr_cnt += GET_FR(x);
 1676              		.loc 1 506 9 is_stmt 1 view .LVU568
 506:Middlewares/lvgl/src/extra/layouts/grid/lv_grid.c ****             row_fr_cnt += GET_FR(x);
 1677              		.loc 1 506 11 is_stmt 0 view .LVU569
 1678 00e4 45F69B71 		movw	r1, #24475
 1679 00e8 8B42     		cmp	r3, r1
 1680 00ea ECDD     		ble	.L76
 507:Middlewares/lvgl/src/extra/layouts/grid/lv_grid.c ****         } else if (IS_CONTENT(x)) {
 1681              		.loc 1 507 13 is_stmt 1 view .LVU570
 507:Middlewares/lvgl/src/extra/layouts/grid/lv_grid.c ****         } else if (IS_CONTENT(x)) {
 1682              		.loc 1 507 24 is_stmt 0 view .LVU571
 1683 00ec 2B44     		add	r3, r3, r5
 1684              	.LVL198:
 507:Middlewares/lvgl/src/extra/layouts/grid/lv_grid.c ****         } else if (IS_CONTENT(x)) {
 1685              		.loc 1 507 24 view .LVU572
 1686 00ee 214D     		ldr	r5, .L93+16
 1687              	.LVL199:
 507:Middlewares/lvgl/src/extra/layouts/grid/lv_grid.c ****         } else if (IS_CONTENT(x)) {
 1688              		.loc 1 507 24 view .LVU573
 1689 00f0 1D44     		add	r5, r5, r3
 1690              	.LVL200:
 507:Middlewares/lvgl/src/extra/layouts/grid/lv_grid.c ****         } else if (IS_CONTENT(x)) {
ARM GAS  /tmp/cc3I9fWq.s 			page 61


 1691              		.loc 1 507 24 view .LVU574
 1692 00f2 F0E7     		b	.L77
 1693              	.LVL201:
 1694              	.L89:
 509:Middlewares/lvgl/src/extra/layouts/grid/lv_grid.c ****         } else {
 1695              		.loc 1 509 13 is_stmt 1 view .LVU575
 509:Middlewares/lvgl/src/extra/layouts/grid/lv_grid.c ****         } else {
 1696              		.loc 1 509 24 is_stmt 0 view .LVU576
 1697 00f4 E368     		ldr	r3, [r4, #12]
 1698              	.LVL202:
 509:Middlewares/lvgl/src/extra/layouts/grid/lv_grid.c ****         } else {
 1699              		.loc 1 509 27 view .LVU577
 1700 00f6 1B5A     		ldrh	r3, [r3, r0]
 509:Middlewares/lvgl/src/extra/layouts/grid/lv_grid.c ****         } else {
 1701              		.loc 1 509 20 view .LVU578
 1702 00f8 3344     		add	r3, r3, r6
 1703 00fa 1EB2     		sxth	r6, r3
 1704              	.LVL203:
 509:Middlewares/lvgl/src/extra/layouts/grid/lv_grid.c ****         } else {
 1705              		.loc 1 509 20 view .LVU579
 1706 00fc EBE7     		b	.L77
 1707              	.LVL204:
 1708              	.L90:
 509:Middlewares/lvgl/src/extra/layouts/grid/lv_grid.c ****         } else {
 1709              		.loc 1 509 20 view .LVU580
 1710              	.LBE185:
 517:Middlewares/lvgl/src/extra/layouts/grid/lv_grid.c ****     lv_coord_t cont_h = lv_obj_get_content_height(cont) - row_gap * (c->row_num - 1);
 1711              		.loc 1 517 5 is_stmt 1 view .LVU581
 1712              	.LBB186:
 1713              	.LBI186:
 115:Middlewares/lvgl/src/extra/layouts/grid/../flex/../../../core/lv_obj_style_gen.h **** {
 1714              		.loc 3 115 26 view .LVU582
 1715              	.LBB187:
 117:Middlewares/lvgl/src/extra/layouts/grid/../flex/../../../core/lv_obj_style_gen.h ****     return (lv_coord_t)v.num;
 1716              		.loc 3 117 5 view .LVU583
 117:Middlewares/lvgl/src/extra/layouts/grid/../flex/../../../core/lv_obj_style_gen.h ****     return (lv_coord_t)v.num;
 1717              		.loc 3 117 26 is_stmt 0 view .LVU584
 1718 00fe 41F21402 		movw	r2, #4116
 1719              	.LVL205:
 117:Middlewares/lvgl/src/extra/layouts/grid/../flex/../../../core/lv_obj_style_gen.h ****     return (lv_coord_t)v.num;
 1720              		.loc 3 117 26 view .LVU585
 1721 0102 0021     		movs	r1, #0
 1722 0104 4046     		mov	r0, r8
 1723 0106 FFF7FEFF 		bl	lv_obj_get_style_prop
 1724              	.LVL206:
 118:Middlewares/lvgl/src/extra/layouts/grid/../flex/../../../core/lv_obj_style_gen.h **** }
 1725              		.loc 3 118 5 is_stmt 1 view .LVU586
 118:Middlewares/lvgl/src/extra/layouts/grid/../flex/../../../core/lv_obj_style_gen.h **** }
 1726              		.loc 3 118 12 is_stmt 0 view .LVU587
 1727 010a 0FFA80F9 		sxth	r9, r0
 1728              	.LVL207:
 118:Middlewares/lvgl/src/extra/layouts/grid/../flex/../../../core/lv_obj_style_gen.h **** }
 1729              		.loc 3 118 12 view .LVU588
 1730              	.LBE187:
 1731              	.LBE186:
 518:Middlewares/lvgl/src/extra/layouts/grid/lv_grid.c ****     lv_coord_t free_h = cont_h - grid_h;
 1732              		.loc 1 518 5 is_stmt 1 view .LVU589
ARM GAS  /tmp/cc3I9fWq.s 			page 62


 518:Middlewares/lvgl/src/extra/layouts/grid/lv_grid.c ****     lv_coord_t free_h = cont_h - grid_h;
 1733              		.loc 1 518 25 is_stmt 0 view .LVU590
 1734 010e 4046     		mov	r0, r8
 1735 0110 FFF7FEFF 		bl	lv_obj_get_content_height
 1736              	.LVL208:
 1737 0114 83B2     		uxth	r3, r0
 518:Middlewares/lvgl/src/extra/layouts/grid/lv_grid.c ****     lv_coord_t free_h = cont_h - grid_h;
 1738              		.loc 1 518 71 view .LVU591
 1739 0116 6269     		ldr	r2, [r4, #20]
 518:Middlewares/lvgl/src/extra/layouts/grid/lv_grid.c ****     lv_coord_t free_h = cont_h - grid_h;
 1740              		.loc 1 518 81 view .LVU592
 1741 0118 013A     		subs	r2, r2, #1
 518:Middlewares/lvgl/src/extra/layouts/grid/lv_grid.c ****     lv_coord_t free_h = cont_h - grid_h;
 1742              		.loc 1 518 57 view .LVU593
 1743 011a 19FB02F9 		smulbb	r9, r9, r2
 1744              	.LVL209:
 518:Middlewares/lvgl/src/extra/layouts/grid/lv_grid.c ****     lv_coord_t free_h = cont_h - grid_h;
 1745              		.loc 1 518 57 view .LVU594
 1746 011e A3EB0903 		sub	r3, r3, r9
 1747 0122 9BB2     		uxth	r3, r3
 1748              	.LVL210:
 519:Middlewares/lvgl/src/extra/layouts/grid/lv_grid.c ****     if(free_h < 0) free_h = 0;
 1749              		.loc 1 519 5 is_stmt 1 view .LVU595
 519:Middlewares/lvgl/src/extra/layouts/grid/lv_grid.c ****     if(free_h < 0) free_h = 0;
 1750              		.loc 1 519 32 is_stmt 0 view .LVU596
 1751 0124 9B1B     		subs	r3, r3, r6
 1752              	.LVL211:
 519:Middlewares/lvgl/src/extra/layouts/grid/lv_grid.c ****     if(free_h < 0) free_h = 0;
 1753              		.loc 1 519 16 view .LVU597
 1754 0126 1BB2     		sxth	r3, r3
 1755              	.LVL212:
 520:Middlewares/lvgl/src/extra/layouts/grid/lv_grid.c **** 
 1756              		.loc 1 520 5 is_stmt 1 view .LVU598
 520:Middlewares/lvgl/src/extra/layouts/grid/lv_grid.c **** 
 1757              		.loc 1 520 7 is_stmt 0 view .LVU599
 1758 0128 002B     		cmp	r3, #0
 1759 012a 01DB     		blt	.L91
 1760              	.LVL213:
 1761              	.L80:
 522:Middlewares/lvgl/src/extra/layouts/grid/lv_grid.c ****     int32_t last_fr_x = 0;
 1762              		.loc 1 522 5 is_stmt 1 view .LVU600
 523:Middlewares/lvgl/src/extra/layouts/grid/lv_grid.c ****     for(i = 0; i < c->row_num; i++) {
 1763              		.loc 1 523 5 view .LVU601
 524:Middlewares/lvgl/src/extra/layouts/grid/lv_grid.c ****         lv_coord_t x = row_templ[i];
 1764              		.loc 1 524 5 view .LVU602
 524:Middlewares/lvgl/src/extra/layouts/grid/lv_grid.c ****         lv_coord_t x = row_templ[i];
 1765              		.loc 1 524 11 is_stmt 0 view .LVU603
 1766 012c 0021     		movs	r1, #0
 524:Middlewares/lvgl/src/extra/layouts/grid/lv_grid.c ****         lv_coord_t x = row_templ[i];
 1767              		.loc 1 524 5 view .LVU604
 1768 012e 02E0     		b	.L81
 1769              	.LVL214:
 1770              	.L91:
 520:Middlewares/lvgl/src/extra/layouts/grid/lv_grid.c **** 
 1771              		.loc 1 520 27 view .LVU605
 1772 0130 0023     		movs	r3, #0
 1773              	.LVL215:
ARM GAS  /tmp/cc3I9fWq.s 			page 63


 520:Middlewares/lvgl/src/extra/layouts/grid/lv_grid.c **** 
 1774              		.loc 1 520 27 view .LVU606
 1775 0132 FBE7     		b	.L80
 1776              	.LVL216:
 1777              	.L82:
 524:Middlewares/lvgl/src/extra/layouts/grid/lv_grid.c ****         lv_coord_t x = row_templ[i];
 1778              		.loc 1 524 32 is_stmt 1 discriminator 2 view .LVU607
 524:Middlewares/lvgl/src/extra/layouts/grid/lv_grid.c ****         lv_coord_t x = row_templ[i];
 1779              		.loc 1 524 33 is_stmt 0 discriminator 2 view .LVU608
 1780 0134 0131     		adds	r1, r1, #1
 1781              	.LVL217:
 1782              	.L81:
 524:Middlewares/lvgl/src/extra/layouts/grid/lv_grid.c ****         lv_coord_t x = row_templ[i];
 1783              		.loc 1 524 16 is_stmt 1 discriminator 1 view .LVU609
 524:Middlewares/lvgl/src/extra/layouts/grid/lv_grid.c ****         lv_coord_t x = row_templ[i];
 1784              		.loc 1 524 21 is_stmt 0 discriminator 1 view .LVU610
 1785 0136 6269     		ldr	r2, [r4, #20]
 524:Middlewares/lvgl/src/extra/layouts/grid/lv_grid.c ****         lv_coord_t x = row_templ[i];
 1786              		.loc 1 524 5 discriminator 1 view .LVU611
 1787 0138 8A42     		cmp	r2, r1
 1788 013a 10D9     		bls	.L92
 1789              	.LBB188:
 525:Middlewares/lvgl/src/extra/layouts/grid/lv_grid.c ****         if(IS_FR(x)) {
 1790              		.loc 1 525 9 is_stmt 1 view .LVU612
 525:Middlewares/lvgl/src/extra/layouts/grid/lv_grid.c ****         if(IS_FR(x)) {
 1791              		.loc 1 525 20 is_stmt 0 view .LVU613
 1792 013c 37F91100 		ldrsh	r0, [r7, r1, lsl #1]
 1793              	.LVL218:
 526:Middlewares/lvgl/src/extra/layouts/grid/lv_grid.c ****             lv_coord_t f = GET_FR(x);
 1794              		.loc 1 526 9 is_stmt 1 view .LVU614
 526:Middlewares/lvgl/src/extra/layouts/grid/lv_grid.c ****             lv_coord_t f = GET_FR(x);
 1795              		.loc 1 526 11 is_stmt 0 view .LVU615
 1796 0140 45F69B72 		movw	r2, #24475
 1797 0144 9042     		cmp	r0, r2
 1798 0146 F5DD     		ble	.L82
 1799              	.LBB189:
 527:Middlewares/lvgl/src/extra/layouts/grid/lv_grid.c ****             c->h[i] = (free_h * f) / row_fr_cnt;
 1800              		.loc 1 527 13 is_stmt 1 view .LVU616
 527:Middlewares/lvgl/src/extra/layouts/grid/lv_grid.c ****             c->h[i] = (free_h * f) / row_fr_cnt;
 1801              		.loc 1 527 28 is_stmt 0 view .LVU617
 1802 0148 0A4A     		ldr	r2, .L93+16
 1803 014a 0244     		add	r2, r2, r0
 527:Middlewares/lvgl/src/extra/layouts/grid/lv_grid.c ****             c->h[i] = (free_h * f) / row_fr_cnt;
 1804              		.loc 1 527 24 view .LVU618
 1805 014c 12B2     		sxth	r2, r2
 1806              	.LVL219:
 528:Middlewares/lvgl/src/extra/layouts/grid/lv_grid.c ****         }
 1807              		.loc 1 528 13 is_stmt 1 view .LVU619
 528:Middlewares/lvgl/src/extra/layouts/grid/lv_grid.c ****         }
 1808              		.loc 1 528 31 is_stmt 0 view .LVU620
 1809 014e 03FB02F2 		mul	r2, r3, r2
 1810              	.LVL220:
 528:Middlewares/lvgl/src/extra/layouts/grid/lv_grid.c ****         }
 1811              		.loc 1 528 36 view .LVU621
 1812 0152 B2FBF5F2 		udiv	r2, r2, r5
 528:Middlewares/lvgl/src/extra/layouts/grid/lv_grid.c ****         }
 1813              		.loc 1 528 14 view .LVU622
ARM GAS  /tmp/cc3I9fWq.s 			page 64


 1814 0156 E068     		ldr	r0, [r4, #12]
 1815              	.LVL221:
 528:Middlewares/lvgl/src/extra/layouts/grid/lv_grid.c ****         }
 1816              		.loc 1 528 21 view .LVU623
 1817 0158 20F81120 		strh	r2, [r0, r1, lsl #1]	@ movhi
 1818              	.LVL222:
 528:Middlewares/lvgl/src/extra/layouts/grid/lv_grid.c ****         }
 1819              		.loc 1 528 21 view .LVU624
 1820 015c EAE7     		b	.L82
 1821              	.L92:
 528:Middlewares/lvgl/src/extra/layouts/grid/lv_grid.c ****         }
 1822              		.loc 1 528 21 view .LVU625
 1823              	.LBE189:
 1824              	.LBE188:
 536:Middlewares/lvgl/src/extra/layouts/grid/lv_grid.c **** 
 1825              		.loc 1 536 1 view .LVU626
 1826 015e BDE8F88F 		pop	{r3, r4, r5, r6, r7, r8, r9, r10, fp, pc}
 1827              	.LVL223:
 1828              	.L94:
 536:Middlewares/lvgl/src/extra/layouts/grid/lv_grid.c **** 
 1829              		.loc 1 536 1 view .LVU627
 1830 0162 00BF     		.align	2
 1831              	.L93:
 1832 0164 00000000 		.word	.LANCHOR6
 1833 0168 01800100 		.word	98305
 1834 016c 00000000 		.word	.LANCHOR1
 1835 0170 00000000 		.word	.LANCHOR3
 1836 0174 64A0FFFF 		.word	-24476
 1837 0178 00A0FFFF 		.word	-24576
 1838              		.cfi_endproc
 1839              	.LFE201:
 1841              		.section	.text.calc_cols,"ax",%progbits
 1842              		.align	1
 1843              		.syntax unified
 1844              		.thumb
 1845              		.thumb_func
 1847              	calc_cols:
 1848              	.LVL224:
 1849              	.LFB200:
 401:Middlewares/lvgl/src/extra/layouts/grid/lv_grid.c ****     const lv_coord_t * col_templ = get_col_dsc(cont);
 1850              		.loc 1 401 1 is_stmt 1 view -0
 1851              		.cfi_startproc
 1852              		@ args = 0, pretend = 0, frame = 8
 1853              		@ frame_needed = 0, uses_anonymous_args = 0
 401:Middlewares/lvgl/src/extra/layouts/grid/lv_grid.c ****     const lv_coord_t * col_templ = get_col_dsc(cont);
 1854              		.loc 1 401 1 is_stmt 0 view .LVU629
 1855 0000 2DE9F04F 		push	{r4, r5, r6, r7, r8, r9, r10, fp, lr}
 1856              	.LCFI7:
 1857              		.cfi_def_cfa_offset 36
 1858              		.cfi_offset 4, -36
 1859              		.cfi_offset 5, -32
 1860              		.cfi_offset 6, -28
 1861              		.cfi_offset 7, -24
 1862              		.cfi_offset 8, -20
 1863              		.cfi_offset 9, -16
 1864              		.cfi_offset 10, -12
 1865              		.cfi_offset 11, -8
ARM GAS  /tmp/cc3I9fWq.s 			page 65


 1866              		.cfi_offset 14, -4
 1867 0004 83B0     		sub	sp, sp, #12
 1868              	.LCFI8:
 1869              		.cfi_def_cfa_offset 48
 1870 0006 8146     		mov	r9, r0
 1871 0008 0C46     		mov	r4, r1
 402:Middlewares/lvgl/src/extra/layouts/grid/lv_grid.c ****     lv_coord_t cont_w = lv_obj_get_content_width(cont);
 1872              		.loc 1 402 5 is_stmt 1 view .LVU630
 1873              	.LVL225:
 1874              	.LBB210:
 1875              	.LBI210:
  60:Middlewares/lvgl/src/extra/layouts/grid/lv_grid.c **** static inline const lv_coord_t * get_row_dsc(lv_obj_t * obj) {return lv_obj_get_style_grid_row_dsc_
 1876              		.loc 1 60 34 view .LVU631
 1877              	.LBE210:
  60:Middlewares/lvgl/src/extra/layouts/grid/lv_grid.c **** static inline const lv_coord_t * get_row_dsc(lv_obj_t * obj) {return lv_obj_get_style_grid_row_dsc_
 1878              		.loc 1 60 63 view .LVU632
 1879              	.LBB213:
 1880              	.LBB211:
 1881              	.LBI211:
 127:Middlewares/lvgl/src/extra/layouts/grid/../grid/lv_grid.h **** {
 1882              		.loc 2 127 34 view .LVU633
 1883              	.LBB212:
 129:Middlewares/lvgl/src/extra/layouts/grid/../grid/lv_grid.h ****     return (const lv_coord_t *)v.ptr;
 1884              		.loc 2 129 5 view .LVU634
 129:Middlewares/lvgl/src/extra/layouts/grid/../grid/lv_grid.h ****     return (const lv_coord_t *)v.ptr;
 1885              		.loc 2 129 26 is_stmt 0 view .LVU635
 1886 000a 5E4B     		ldr	r3, .L122
 1887 000c 1A88     		ldrh	r2, [r3]
 1888 000e 0021     		movs	r1, #0
 1889              	.LVL226:
 129:Middlewares/lvgl/src/extra/layouts/grid/../grid/lv_grid.h ****     return (const lv_coord_t *)v.ptr;
 1890              		.loc 2 129 26 view .LVU636
 1891 0010 FFF7FEFF 		bl	lv_obj_get_style_prop
 1892              	.LVL227:
 129:Middlewares/lvgl/src/extra/layouts/grid/../grid/lv_grid.h ****     return (const lv_coord_t *)v.ptr;
 1893              		.loc 2 129 26 view .LVU637
 1894 0014 8046     		mov	r8, r0
 130:Middlewares/lvgl/src/extra/layouts/grid/../grid/lv_grid.h **** }
 1895              		.loc 2 130 5 is_stmt 1 view .LVU638
 1896              	.LVL228:
 130:Middlewares/lvgl/src/extra/layouts/grid/../grid/lv_grid.h **** }
 1897              		.loc 2 130 5 is_stmt 0 view .LVU639
 1898              	.LBE212:
 1899              	.LBE211:
 1900              	.LBE213:
 403:Middlewares/lvgl/src/extra/layouts/grid/lv_grid.c **** 
 1901              		.loc 1 403 5 is_stmt 1 view .LVU640
 403:Middlewares/lvgl/src/extra/layouts/grid/lv_grid.c **** 
 1902              		.loc 1 403 25 is_stmt 0 view .LVU641
 1903 0016 4846     		mov	r0, r9
 1904              	.LVL229:
 403:Middlewares/lvgl/src/extra/layouts/grid/lv_grid.c **** 
 1905              		.loc 1 403 25 view .LVU642
 1906 0018 FFF7FEFF 		bl	lv_obj_get_content_width
 1907              	.LVL230:
 1908 001c 0190     		str	r0, [sp, #4]
 1909              	.LVL231:
ARM GAS  /tmp/cc3I9fWq.s 			page 66


 405:Middlewares/lvgl/src/extra/layouts/grid/lv_grid.c ****     c->x = lv_mem_buf_get(sizeof(lv_coord_t) * c->col_num);
 1910              		.loc 1 405 5 is_stmt 1 view .LVU643
 405:Middlewares/lvgl/src/extra/layouts/grid/lv_grid.c ****     c->x = lv_mem_buf_get(sizeof(lv_coord_t) * c->col_num);
 1911              		.loc 1 405 18 is_stmt 0 view .LVU644
 1912 001e 4046     		mov	r0, r8
 1913 0020 FFF7FEFF 		bl	count_tracks
 1914              	.LVL232:
 405:Middlewares/lvgl/src/extra/layouts/grid/lv_grid.c ****     c->x = lv_mem_buf_get(sizeof(lv_coord_t) * c->col_num);
 1915              		.loc 1 405 16 view .LVU645
 1916 0024 2061     		str	r0, [r4, #16]
 406:Middlewares/lvgl/src/extra/layouts/grid/lv_grid.c ****     c->w = lv_mem_buf_get(sizeof(lv_coord_t) * c->col_num);
 1917              		.loc 1 406 5 is_stmt 1 view .LVU646
 406:Middlewares/lvgl/src/extra/layouts/grid/lv_grid.c ****     c->w = lv_mem_buf_get(sizeof(lv_coord_t) * c->col_num);
 1918              		.loc 1 406 12 is_stmt 0 view .LVU647
 1919 0026 4000     		lsls	r0, r0, #1
 1920 0028 FFF7FEFF 		bl	lv_mem_buf_get
 1921              	.LVL233:
 406:Middlewares/lvgl/src/extra/layouts/grid/lv_grid.c ****     c->w = lv_mem_buf_get(sizeof(lv_coord_t) * c->col_num);
 1922              		.loc 1 406 10 view .LVU648
 1923 002c 2060     		str	r0, [r4]
 407:Middlewares/lvgl/src/extra/layouts/grid/lv_grid.c **** 
 1924              		.loc 1 407 5 is_stmt 1 view .LVU649
 407:Middlewares/lvgl/src/extra/layouts/grid/lv_grid.c **** 
 1925              		.loc 1 407 49 is_stmt 0 view .LVU650
 1926 002e 2069     		ldr	r0, [r4, #16]
 407:Middlewares/lvgl/src/extra/layouts/grid/lv_grid.c **** 
 1927              		.loc 1 407 12 view .LVU651
 1928 0030 4000     		lsls	r0, r0, #1
 1929 0032 FFF7FEFF 		bl	lv_mem_buf_get
 1930              	.LVL234:
 407:Middlewares/lvgl/src/extra/layouts/grid/lv_grid.c **** 
 1931              		.loc 1 407 10 view .LVU652
 1932 0036 A060     		str	r0, [r4, #8]
 410:Middlewares/lvgl/src/extra/layouts/grid/lv_grid.c ****     for(i = 0; i < c->col_num; i++) {
 1933              		.loc 1 410 5 is_stmt 1 view .LVU653
 411:Middlewares/lvgl/src/extra/layouts/grid/lv_grid.c ****         lv_coord_t size = LV_COORD_MIN;
 1934              		.loc 1 411 5 view .LVU654
 1935              	.LVL235:
 411:Middlewares/lvgl/src/extra/layouts/grid/lv_grid.c ****         lv_coord_t size = LV_COORD_MIN;
 1936              		.loc 1 411 11 is_stmt 0 view .LVU655
 1937 0038 0026     		movs	r6, #0
 411:Middlewares/lvgl/src/extra/layouts/grid/lv_grid.c ****         lv_coord_t size = LV_COORD_MIN;
 1938              		.loc 1 411 5 view .LVU656
 1939 003a 32E0     		b	.L96
 1940              	.LVL236:
 1941              	.L99:
 1942              	.LBB214:
 1943              	.LBB215:
 416:Middlewares/lvgl/src/extra/layouts/grid/lv_grid.c ****                 lv_obj_t * item = lv_obj_get_child(cont, ci);
 1944              		.loc 1 416 58 is_stmt 1 discriminator 2 view .LVU657
 416:Middlewares/lvgl/src/extra/layouts/grid/lv_grid.c ****                 lv_obj_t * item = lv_obj_get_child(cont, ci);
 1945              		.loc 1 416 60 is_stmt 0 discriminator 2 view .LVU658
 1946 003c 0135     		adds	r5, r5, #1
 1947              	.LVL237:
 1948              	.L97:
 416:Middlewares/lvgl/src/extra/layouts/grid/lv_grid.c ****                 lv_obj_t * item = lv_obj_get_child(cont, ci);
 1949              		.loc 1 416 25 is_stmt 1 discriminator 1 view .LVU659
ARM GAS  /tmp/cc3I9fWq.s 			page 67


 416:Middlewares/lvgl/src/extra/layouts/grid/lv_grid.c ****                 lv_obj_t * item = lv_obj_get_child(cont, ci);
 1950              		.loc 1 416 30 is_stmt 0 discriminator 1 view .LVU660
 1951 003e 4846     		mov	r0, r9
 1952 0040 FFF7FEFF 		bl	lv_obj_get_child_cnt
 1953              	.LVL238:
 416:Middlewares/lvgl/src/extra/layouts/grid/lv_grid.c ****                 lv_obj_t * item = lv_obj_get_child(cont, ci);
 1954              		.loc 1 416 13 discriminator 1 view .LVU661
 1955 0044 A842     		cmp	r0, r5
 1956 0046 25D9     		bls	.L116
 1957              	.LBB216:
 417:Middlewares/lvgl/src/extra/layouts/grid/lv_grid.c ****                 if(lv_obj_has_flag_any(item, LV_OBJ_FLAG_IGNORE_LAYOUT | LV_OBJ_FLAG_HIDDEN | LV_OB
 1958              		.loc 1 417 17 is_stmt 1 view .LVU662
 417:Middlewares/lvgl/src/extra/layouts/grid/lv_grid.c ****                 if(lv_obj_has_flag_any(item, LV_OBJ_FLAG_IGNORE_LAYOUT | LV_OBJ_FLAG_HIDDEN | LV_OB
 1959              		.loc 1 417 35 is_stmt 0 view .LVU663
 1960 0048 2946     		mov	r1, r5
 1961 004a 4846     		mov	r0, r9
 1962 004c FFF7FEFF 		bl	lv_obj_get_child
 1963              	.LVL239:
 1964 0050 0746     		mov	r7, r0
 1965              	.LVL240:
 418:Middlewares/lvgl/src/extra/layouts/grid/lv_grid.c ****                 uint32_t col_span = get_col_span(item);
 1966              		.loc 1 418 17 is_stmt 1 view .LVU664
 418:Middlewares/lvgl/src/extra/layouts/grid/lv_grid.c ****                 uint32_t col_span = get_col_span(item);
 1967              		.loc 1 418 20 is_stmt 0 view .LVU665
 1968 0052 4D49     		ldr	r1, .L122+4
 1969 0054 FFF7FEFF 		bl	lv_obj_has_flag_any
 1970              	.LVL241:
 418:Middlewares/lvgl/src/extra/layouts/grid/lv_grid.c ****                 uint32_t col_span = get_col_span(item);
 1971              		.loc 1 418 19 view .LVU666
 1972 0058 0028     		cmp	r0, #0
 1973 005a EFD1     		bne	.L99
 419:Middlewares/lvgl/src/extra/layouts/grid/lv_grid.c ****                 if(col_span != 1) continue;
 1974              		.loc 1 419 17 is_stmt 1 view .LVU667
 1975              	.LVL242:
 1976              	.LBB217:
 1977              	.LBI217:
  64:Middlewares/lvgl/src/extra/layouts/grid/lv_grid.c **** static inline uint8_t get_row_span(lv_obj_t * obj) {return lv_obj_get_style_grid_cell_row_span(obj,
 1978              		.loc 1 64 23 view .LVU668
 1979              	.LBB218:
  64:Middlewares/lvgl/src/extra/layouts/grid/lv_grid.c **** static inline uint8_t get_row_span(lv_obj_t * obj) {return lv_obj_get_style_grid_cell_row_span(obj,
 1980              		.loc 1 64 53 view .LVU669
 1981              	.LBB219:
 1982              	.LBI219:
 151:Middlewares/lvgl/src/extra/layouts/grid/../grid/lv_grid.h **** {
 1983              		.loc 2 151 26 view .LVU670
 1984              	.LBB220:
 153:Middlewares/lvgl/src/extra/layouts/grid/../grid/lv_grid.h ****     return (lv_coord_t)v.num;
 1985              		.loc 2 153 5 view .LVU671
 153:Middlewares/lvgl/src/extra/layouts/grid/../grid/lv_grid.h ****     return (lv_coord_t)v.num;
 1986              		.loc 2 153 26 is_stmt 0 view .LVU672
 1987 005c 4B4B     		ldr	r3, .L122+8
 1988 005e 1A88     		ldrh	r2, [r3]
 1989 0060 0021     		movs	r1, #0
 1990 0062 3846     		mov	r0, r7
 1991 0064 FFF7FEFF 		bl	lv_obj_get_style_prop
 1992              	.LVL243:
 154:Middlewares/lvgl/src/extra/layouts/grid/../grid/lv_grid.h **** }
ARM GAS  /tmp/cc3I9fWq.s 			page 68


 1993              		.loc 2 154 5 is_stmt 1 view .LVU673
 154:Middlewares/lvgl/src/extra/layouts/grid/../grid/lv_grid.h **** }
 1994              		.loc 2 154 5 is_stmt 0 view .LVU674
 1995              	.LBE220:
 1996              	.LBE219:
  64:Middlewares/lvgl/src/extra/layouts/grid/lv_grid.c **** static inline uint8_t get_row_span(lv_obj_t * obj) {return lv_obj_get_style_grid_cell_row_span(obj,
 1997              		.loc 1 64 60 view .LVU675
 1998 0068 C0B2     		uxtb	r0, r0
 1999              	.LVL244:
  64:Middlewares/lvgl/src/extra/layouts/grid/lv_grid.c **** static inline uint8_t get_row_span(lv_obj_t * obj) {return lv_obj_get_style_grid_cell_row_span(obj,
 2000              		.loc 1 64 60 view .LVU676
 2001              	.LBE218:
 2002              	.LBE217:
 420:Middlewares/lvgl/src/extra/layouts/grid/lv_grid.c **** 
 2003              		.loc 1 420 17 is_stmt 1 view .LVU677
 420:Middlewares/lvgl/src/extra/layouts/grid/lv_grid.c **** 
 2004              		.loc 1 420 19 is_stmt 0 view .LVU678
 2005 006a 0128     		cmp	r0, #1
 2006 006c E6D1     		bne	.L99
 422:Middlewares/lvgl/src/extra/layouts/grid/lv_grid.c ****                 if(col_pos != i) continue;
 2007              		.loc 1 422 17 is_stmt 1 view .LVU679
 2008              	.LVL245:
 2009              	.LBB221:
 2010              	.LBI221:
  62:Middlewares/lvgl/src/extra/layouts/grid/lv_grid.c **** static inline uint8_t get_row_pos(lv_obj_t * obj) {return lv_obj_get_style_grid_cell_row_pos(obj, 0
 2011              		.loc 1 62 23 view .LVU680
 2012              	.LBB222:
  62:Middlewares/lvgl/src/extra/layouts/grid/lv_grid.c **** static inline uint8_t get_row_pos(lv_obj_t * obj) {return lv_obj_get_style_grid_cell_row_pos(obj, 0
 2013              		.loc 1 62 52 view .LVU681
 2014              	.LBB223:
 2015              	.LBI223:
 145:Middlewares/lvgl/src/extra/layouts/grid/../grid/lv_grid.h **** {
 2016              		.loc 2 145 26 view .LVU682
 2017              	.LBB224:
 147:Middlewares/lvgl/src/extra/layouts/grid/../grid/lv_grid.h ****     return (lv_coord_t)v.num;
 2018              		.loc 2 147 5 view .LVU683
 147:Middlewares/lvgl/src/extra/layouts/grid/../grid/lv_grid.h ****     return (lv_coord_t)v.num;
 2019              		.loc 2 147 26 is_stmt 0 view .LVU684
 2020 006e 484B     		ldr	r3, .L122+12
 2021 0070 1A88     		ldrh	r2, [r3]
 2022 0072 0021     		movs	r1, #0
 2023 0074 3846     		mov	r0, r7
 2024              	.LVL246:
 147:Middlewares/lvgl/src/extra/layouts/grid/../grid/lv_grid.h ****     return (lv_coord_t)v.num;
 2025              		.loc 2 147 26 view .LVU685
 2026 0076 FFF7FEFF 		bl	lv_obj_get_style_prop
 2027              	.LVL247:
 148:Middlewares/lvgl/src/extra/layouts/grid/../grid/lv_grid.h **** }
 2028              		.loc 2 148 5 is_stmt 1 view .LVU686
 148:Middlewares/lvgl/src/extra/layouts/grid/../grid/lv_grid.h **** }
 2029              		.loc 2 148 5 is_stmt 0 view .LVU687
 2030              	.LBE224:
 2031              	.LBE223:
  62:Middlewares/lvgl/src/extra/layouts/grid/lv_grid.c **** static inline uint8_t get_row_pos(lv_obj_t * obj) {return lv_obj_get_style_grid_cell_row_pos(obj, 0
 2032              		.loc 1 62 59 view .LVU688
 2033 007a C0B2     		uxtb	r0, r0
 2034              	.LVL248:
ARM GAS  /tmp/cc3I9fWq.s 			page 69


  62:Middlewares/lvgl/src/extra/layouts/grid/lv_grid.c **** static inline uint8_t get_row_pos(lv_obj_t * obj) {return lv_obj_get_style_grid_cell_row_pos(obj, 0
 2035              		.loc 1 62 59 view .LVU689
 2036              	.LBE222:
 2037              	.LBE221:
 423:Middlewares/lvgl/src/extra/layouts/grid/lv_grid.c **** 
 2038              		.loc 1 423 17 is_stmt 1 view .LVU690
 423:Middlewares/lvgl/src/extra/layouts/grid/lv_grid.c **** 
 2039              		.loc 1 423 19 is_stmt 0 view .LVU691
 2040 007c 8642     		cmp	r6, r0
 2041 007e DDD1     		bne	.L99
 425:Middlewares/lvgl/src/extra/layouts/grid/lv_grid.c ****             }
 2042              		.loc 1 425 17 is_stmt 1 view .LVU692
 425:Middlewares/lvgl/src/extra/layouts/grid/lv_grid.c ****             }
 2043              		.loc 1 425 24 is_stmt 0 view .LVU693
 2044 0080 3846     		mov	r0, r7
 2045              	.LVL249:
 425:Middlewares/lvgl/src/extra/layouts/grid/lv_grid.c ****             }
 2046              		.loc 1 425 24 view .LVU694
 2047 0082 FFF7FEFF 		bl	lv_obj_get_width
 2048              	.LVL250:
 425:Middlewares/lvgl/src/extra/layouts/grid/lv_grid.c ****             }
 2049              		.loc 1 425 22 view .LVU695
 2050 0086 5845     		cmp	r0, fp
 2051 0088 D8DB     		blt	.L99
 425:Middlewares/lvgl/src/extra/layouts/grid/lv_grid.c ****             }
 2052              		.loc 1 425 24 discriminator 1 view .LVU696
 2053 008a 3846     		mov	r0, r7
 2054 008c FFF7FEFF 		bl	lv_obj_get_width
 2055              	.LVL251:
 2056 0090 8346     		mov	fp, r0
 2057              	.LVL252:
 425:Middlewares/lvgl/src/extra/layouts/grid/lv_grid.c ****             }
 2058              		.loc 1 425 24 discriminator 1 view .LVU697
 2059 0092 D3E7     		b	.L99
 2060              	.LVL253:
 2061              	.L116:
 425:Middlewares/lvgl/src/extra/layouts/grid/lv_grid.c ****             }
 2062              		.loc 1 425 24 discriminator 1 view .LVU698
 2063              	.LBE216:
 427:Middlewares/lvgl/src/extra/layouts/grid/lv_grid.c ****             else c->w[i] = 0;
 2064              		.loc 1 427 13 is_stmt 1 view .LVU699
 427:Middlewares/lvgl/src/extra/layouts/grid/lv_grid.c ****             else c->w[i] = 0;
 2065              		.loc 1 427 15 is_stmt 0 view .LVU700
 2066 0094 BBF1000F 		cmp	fp, #0
 2067 0098 12DB     		blt	.L101
 427:Middlewares/lvgl/src/extra/layouts/grid/lv_grid.c ****             else c->w[i] = 0;
 2068              		.loc 1 427 27 is_stmt 1 discriminator 1 view .LVU701
 427:Middlewares/lvgl/src/extra/layouts/grid/lv_grid.c ****             else c->w[i] = 0;
 2069              		.loc 1 427 28 is_stmt 0 discriminator 1 view .LVU702
 2070 009a A368     		ldr	r3, [r4, #8]
 427:Middlewares/lvgl/src/extra/layouts/grid/lv_grid.c ****             else c->w[i] = 0;
 2071              		.loc 1 427 35 discriminator 1 view .LVU703
 2072 009c 23F80AB0 		strh	fp, [r3, r10]	@ movhi
 2073              	.LVL254:
 2074              	.L98:
 427:Middlewares/lvgl/src/extra/layouts/grid/lv_grid.c ****             else c->w[i] = 0;
 2075              		.loc 1 427 35 discriminator 1 view .LVU704
ARM GAS  /tmp/cc3I9fWq.s 			page 70


 2076              	.LBE215:
 2077              	.LBE214:
 411:Middlewares/lvgl/src/extra/layouts/grid/lv_grid.c ****         lv_coord_t size = LV_COORD_MIN;
 2078              		.loc 1 411 32 is_stmt 1 discriminator 2 view .LVU705
 411:Middlewares/lvgl/src/extra/layouts/grid/lv_grid.c ****         lv_coord_t size = LV_COORD_MIN;
 2079              		.loc 1 411 33 is_stmt 0 discriminator 2 view .LVU706
 2080 00a0 0136     		adds	r6, r6, #1
 2081              	.LVL255:
 2082              	.L96:
 411:Middlewares/lvgl/src/extra/layouts/grid/lv_grid.c ****         lv_coord_t size = LV_COORD_MIN;
 2083              		.loc 1 411 16 is_stmt 1 discriminator 1 view .LVU707
 411:Middlewares/lvgl/src/extra/layouts/grid/lv_grid.c ****         lv_coord_t size = LV_COORD_MIN;
 2084              		.loc 1 411 21 is_stmt 0 discriminator 1 view .LVU708
 2085 00a2 2369     		ldr	r3, [r4, #16]
 411:Middlewares/lvgl/src/extra/layouts/grid/lv_grid.c ****         lv_coord_t size = LV_COORD_MIN;
 2086              		.loc 1 411 5 discriminator 1 view .LVU709
 2087 00a4 B342     		cmp	r3, r6
 2088 00a6 10D9     		bls	.L117
 2089              	.LBB227:
 412:Middlewares/lvgl/src/extra/layouts/grid/lv_grid.c ****         if(IS_CONTENT(col_templ[i])) {
 2090              		.loc 1 412 9 is_stmt 1 view .LVU710
 2091              	.LVL256:
 413:Middlewares/lvgl/src/extra/layouts/grid/lv_grid.c ****             /*Check the size of children of this cell*/
 2092              		.loc 1 413 9 view .LVU711
 413:Middlewares/lvgl/src/extra/layouts/grid/lv_grid.c ****             /*Check the size of children of this cell*/
 2093              		.loc 1 413 12 is_stmt 0 view .LVU712
 2094 00a8 4FEA460A 		lsl	r10, r6, #1
 2095 00ac 38F91620 		ldrsh	r2, [r8, r6, lsl #1]
 413:Middlewares/lvgl/src/extra/layouts/grid/lv_grid.c ****             /*Check the size of children of this cell*/
 2096              		.loc 1 413 11 view .LVU713
 2097 00b0 45F69B73 		movw	r3, #24475
 2098 00b4 9A42     		cmp	r2, r3
 2099 00b6 F3D1     		bne	.L98
 2100              	.LBB225:
 416:Middlewares/lvgl/src/extra/layouts/grid/lv_grid.c ****                 lv_obj_t * item = lv_obj_get_child(cont, ci);
 2101              		.loc 1 416 20 view .LVU714
 2102 00b8 0025     		movs	r5, #0
 2103              	.LBE225:
 412:Middlewares/lvgl/src/extra/layouts/grid/lv_grid.c ****         if(IS_CONTENT(col_templ[i])) {
 2104              		.loc 1 412 20 view .LVU715
 2105 00ba DFF8DCB0 		ldr	fp, .L122+20
 2106 00be BEE7     		b	.L97
 2107              	.LVL257:
 2108              	.L101:
 2109              	.LBB226:
 428:Middlewares/lvgl/src/extra/layouts/grid/lv_grid.c ****         }
 2110              		.loc 1 428 18 is_stmt 1 view .LVU716
 428:Middlewares/lvgl/src/extra/layouts/grid/lv_grid.c ****         }
 2111              		.loc 1 428 19 is_stmt 0 view .LVU717
 2112 00c0 A368     		ldr	r3, [r4, #8]
 428:Middlewares/lvgl/src/extra/layouts/grid/lv_grid.c ****         }
 2113              		.loc 1 428 26 view .LVU718
 2114 00c2 0022     		movs	r2, #0
 2115 00c4 23F80A20 		strh	r2, [r3, r10]	@ movhi
 2116 00c8 EAE7     		b	.L98
 2117              	.LVL258:
 2118              	.L117:
ARM GAS  /tmp/cc3I9fWq.s 			page 71


 428:Middlewares/lvgl/src/extra/layouts/grid/lv_grid.c ****         }
 2119              		.loc 1 428 26 view .LVU719
 2120              	.LBE226:
 2121              	.LBE227:
 433:Middlewares/lvgl/src/extra/layouts/grid/lv_grid.c **** 
 2122              		.loc 1 433 16 view .LVU720
 2123 00ca 0026     		movs	r6, #0
 2124              	.LVL259:
 432:Middlewares/lvgl/src/extra/layouts/grid/lv_grid.c ****     lv_coord_t grid_w = 0;
 2125              		.loc 1 432 14 view .LVU721
 2126 00cc 3546     		mov	r5, r6
 435:Middlewares/lvgl/src/extra/layouts/grid/lv_grid.c ****         lv_coord_t x = col_templ[i];
 2127              		.loc 1 435 11 view .LVU722
 2128 00ce 3246     		mov	r2, r6
 2129 00d0 08E0     		b	.L103
 2130              	.LVL260:
 2131              	.L104:
 2132              	.LBB228:
 440:Middlewares/lvgl/src/extra/layouts/grid/lv_grid.c ****             grid_w += c->w[i];
 2133              		.loc 1 440 14 is_stmt 1 view .LVU723
 440:Middlewares/lvgl/src/extra/layouts/grid/lv_grid.c ****             grid_w += c->w[i];
 2134              		.loc 1 440 17 is_stmt 0 view .LVU724
 2135 00d2 45F69B71 		movw	r1, #24475
 2136 00d6 8B42     		cmp	r3, r1
 2137 00d8 12D0     		beq	.L118
 444:Middlewares/lvgl/src/extra/layouts/grid/lv_grid.c ****             grid_w += x;
 2138              		.loc 1 444 13 is_stmt 1 view .LVU725
 444:Middlewares/lvgl/src/extra/layouts/grid/lv_grid.c ****             grid_w += x;
 2139              		.loc 1 444 14 is_stmt 0 view .LVU726
 2140 00da A168     		ldr	r1, [r4, #8]
 444:Middlewares/lvgl/src/extra/layouts/grid/lv_grid.c ****             grid_w += x;
 2141              		.loc 1 444 21 view .LVU727
 2142 00dc 0B52     		strh	r3, [r1, r0]	@ movhi
 445:Middlewares/lvgl/src/extra/layouts/grid/lv_grid.c ****         }
 2143              		.loc 1 445 13 is_stmt 1 view .LVU728
 445:Middlewares/lvgl/src/extra/layouts/grid/lv_grid.c ****         }
 2144              		.loc 1 445 20 is_stmt 0 view .LVU729
 2145 00de 3344     		add	r3, r3, r6
 2146              	.LVL261:
 445:Middlewares/lvgl/src/extra/layouts/grid/lv_grid.c ****         }
 2147              		.loc 1 445 20 view .LVU730
 2148 00e0 1EB2     		sxth	r6, r3
 2149              	.LVL262:
 2150              	.L105:
 445:Middlewares/lvgl/src/extra/layouts/grid/lv_grid.c ****         }
 2151              		.loc 1 445 20 view .LVU731
 2152              	.LBE228:
 435:Middlewares/lvgl/src/extra/layouts/grid/lv_grid.c ****         lv_coord_t x = col_templ[i];
 2153              		.loc 1 435 32 is_stmt 1 discriminator 2 view .LVU732
 435:Middlewares/lvgl/src/extra/layouts/grid/lv_grid.c ****         lv_coord_t x = col_templ[i];
 2154              		.loc 1 435 33 is_stmt 0 discriminator 2 view .LVU733
 2155 00e2 0132     		adds	r2, r2, #1
 2156              	.LVL263:
 2157              	.L103:
 435:Middlewares/lvgl/src/extra/layouts/grid/lv_grid.c ****         lv_coord_t x = col_templ[i];
 2158              		.loc 1 435 16 is_stmt 1 discriminator 1 view .LVU734
 435:Middlewares/lvgl/src/extra/layouts/grid/lv_grid.c ****         lv_coord_t x = col_templ[i];
ARM GAS  /tmp/cc3I9fWq.s 			page 72


 2159              		.loc 1 435 21 is_stmt 0 discriminator 1 view .LVU735
 2160 00e4 2369     		ldr	r3, [r4, #16]
 435:Middlewares/lvgl/src/extra/layouts/grid/lv_grid.c ****         lv_coord_t x = col_templ[i];
 2161              		.loc 1 435 5 discriminator 1 view .LVU736
 2162 00e6 9342     		cmp	r3, r2
 2163 00e8 0FD9     		bls	.L119
 2164              	.LBB229:
 436:Middlewares/lvgl/src/extra/layouts/grid/lv_grid.c ****         if(IS_FR(x)) {
 2165              		.loc 1 436 9 is_stmt 1 view .LVU737
 436:Middlewares/lvgl/src/extra/layouts/grid/lv_grid.c ****         if(IS_FR(x)) {
 2166              		.loc 1 436 33 is_stmt 0 view .LVU738
 2167 00ea 5000     		lsls	r0, r2, #1
 436:Middlewares/lvgl/src/extra/layouts/grid/lv_grid.c ****         if(IS_FR(x)) {
 2168              		.loc 1 436 20 view .LVU739
 2169 00ec 38F91230 		ldrsh	r3, [r8, r2, lsl #1]
 2170              	.LVL264:
 437:Middlewares/lvgl/src/extra/layouts/grid/lv_grid.c ****             col_fr_cnt += GET_FR(x);
 2171              		.loc 1 437 9 is_stmt 1 view .LVU740
 437:Middlewares/lvgl/src/extra/layouts/grid/lv_grid.c ****             col_fr_cnt += GET_FR(x);
 2172              		.loc 1 437 11 is_stmt 0 view .LVU741
 2173 00f0 45F69B71 		movw	r1, #24475
 2174 00f4 8B42     		cmp	r3, r1
 2175 00f6 ECDD     		ble	.L104
 438:Middlewares/lvgl/src/extra/layouts/grid/lv_grid.c ****         }
 2176              		.loc 1 438 13 is_stmt 1 view .LVU742
 438:Middlewares/lvgl/src/extra/layouts/grid/lv_grid.c ****         }
 2177              		.loc 1 438 24 is_stmt 0 view .LVU743
 2178 00f8 2B44     		add	r3, r3, r5
 2179              	.LVL265:
 438:Middlewares/lvgl/src/extra/layouts/grid/lv_grid.c ****         }
 2180              		.loc 1 438 24 view .LVU744
 2181 00fa 264D     		ldr	r5, .L122+16
 2182              	.LVL266:
 438:Middlewares/lvgl/src/extra/layouts/grid/lv_grid.c ****         }
 2183              		.loc 1 438 24 view .LVU745
 2184 00fc 1D44     		add	r5, r5, r3
 2185              	.LVL267:
 438:Middlewares/lvgl/src/extra/layouts/grid/lv_grid.c ****         }
 2186              		.loc 1 438 24 view .LVU746
 2187 00fe F0E7     		b	.L105
 2188              	.LVL268:
 2189              	.L118:
 441:Middlewares/lvgl/src/extra/layouts/grid/lv_grid.c ****         }
 2190              		.loc 1 441 13 is_stmt 1 view .LVU747
 441:Middlewares/lvgl/src/extra/layouts/grid/lv_grid.c ****         }
 2191              		.loc 1 441 24 is_stmt 0 view .LVU748
 2192 0100 A368     		ldr	r3, [r4, #8]
 2193              	.LVL269:
 441:Middlewares/lvgl/src/extra/layouts/grid/lv_grid.c ****         }
 2194              		.loc 1 441 27 view .LVU749
 2195 0102 1B5A     		ldrh	r3, [r3, r0]
 441:Middlewares/lvgl/src/extra/layouts/grid/lv_grid.c ****         }
 2196              		.loc 1 441 20 view .LVU750
 2197 0104 3344     		add	r3, r3, r6
 2198 0106 1EB2     		sxth	r6, r3
 2199              	.LVL270:
 441:Middlewares/lvgl/src/extra/layouts/grid/lv_grid.c ****         }
ARM GAS  /tmp/cc3I9fWq.s 			page 73


 2200              		.loc 1 441 20 view .LVU751
 2201 0108 EBE7     		b	.L105
 2202              	.LVL271:
 2203              	.L119:
 441:Middlewares/lvgl/src/extra/layouts/grid/lv_grid.c ****         }
 2204              		.loc 1 441 20 view .LVU752
 2205              	.LBE229:
 449:Middlewares/lvgl/src/extra/layouts/grid/lv_grid.c ****     cont_w -= col_gap * (c->col_num - 1);
 2206              		.loc 1 449 5 is_stmt 1 view .LVU753
 2207              	.LBB230:
 2208              	.LBI230:
 121:Middlewares/lvgl/src/extra/layouts/grid/../flex/../../../core/lv_obj_style_gen.h **** {
 2209              		.loc 3 121 26 view .LVU754
 2210              	.LBB231:
 123:Middlewares/lvgl/src/extra/layouts/grid/../flex/../../../core/lv_obj_style_gen.h ****     return (lv_coord_t)v.num;
 2211              		.loc 3 123 5 view .LVU755
 123:Middlewares/lvgl/src/extra/layouts/grid/../flex/../../../core/lv_obj_style_gen.h ****     return (lv_coord_t)v.num;
 2212              		.loc 3 123 26 is_stmt 0 view .LVU756
 2213 010a 41F21502 		movw	r2, #4117
 2214              	.LVL272:
 123:Middlewares/lvgl/src/extra/layouts/grid/../flex/../../../core/lv_obj_style_gen.h ****     return (lv_coord_t)v.num;
 2215              		.loc 3 123 26 view .LVU757
 2216 010e 0021     		movs	r1, #0
 2217 0110 4846     		mov	r0, r9
 2218 0112 FFF7FEFF 		bl	lv_obj_get_style_prop
 2219              	.LVL273:
 124:Middlewares/lvgl/src/extra/layouts/grid/../flex/../../../core/lv_obj_style_gen.h **** }
 2220              		.loc 3 124 5 is_stmt 1 view .LVU758
 124:Middlewares/lvgl/src/extra/layouts/grid/../flex/../../../core/lv_obj_style_gen.h **** }
 2221              		.loc 3 124 5 is_stmt 0 view .LVU759
 2222              	.LBE231:
 2223              	.LBE230:
 450:Middlewares/lvgl/src/extra/layouts/grid/lv_grid.c ****     lv_coord_t free_w = cont_w - grid_w;
 2224              		.loc 1 450 5 is_stmt 1 view .LVU760
 450:Middlewares/lvgl/src/extra/layouts/grid/lv_grid.c ****     lv_coord_t free_w = cont_w - grid_w;
 2225              		.loc 1 450 27 is_stmt 0 view .LVU761
 2226 0116 2369     		ldr	r3, [r4, #16]
 450:Middlewares/lvgl/src/extra/layouts/grid/lv_grid.c ****     lv_coord_t free_w = cont_w - grid_w;
 2227              		.loc 1 450 37 view .LVU762
 2228 0118 013B     		subs	r3, r3, #1
 450:Middlewares/lvgl/src/extra/layouts/grid/lv_grid.c ****     lv_coord_t free_w = cont_w - grid_w;
 2229              		.loc 1 450 12 view .LVU763
 2230 011a 10FB03F3 		smulbb	r3, r0, r3
 2231 011e 019A     		ldr	r2, [sp, #4]
 2232 0120 D31A     		subs	r3, r2, r3
 2233 0122 9BB2     		uxth	r3, r3
 2234              	.LVL274:
 451:Middlewares/lvgl/src/extra/layouts/grid/lv_grid.c ****     if(free_w < 0) free_w = 0;
 2235              		.loc 1 451 5 is_stmt 1 view .LVU764
 451:Middlewares/lvgl/src/extra/layouts/grid/lv_grid.c ****     if(free_w < 0) free_w = 0;
 2236              		.loc 1 451 32 is_stmt 0 view .LVU765
 2237 0124 9B1B     		subs	r3, r3, r6
 2238              	.LVL275:
 451:Middlewares/lvgl/src/extra/layouts/grid/lv_grid.c ****     if(free_w < 0) free_w = 0;
 2239              		.loc 1 451 16 view .LVU766
 2240 0126 1BB2     		sxth	r3, r3
 2241              	.LVL276:
ARM GAS  /tmp/cc3I9fWq.s 			page 74


 452:Middlewares/lvgl/src/extra/layouts/grid/lv_grid.c **** 
 2242              		.loc 1 452 5 is_stmt 1 view .LVU767
 452:Middlewares/lvgl/src/extra/layouts/grid/lv_grid.c **** 
 2243              		.loc 1 452 7 is_stmt 0 view .LVU768
 2244 0128 002B     		cmp	r3, #0
 2245 012a 04DB     		blt	.L120
 2246              	.LVL277:
 2247              	.L108:
 454:Middlewares/lvgl/src/extra/layouts/grid/lv_grid.c ****     int32_t last_fr_x = 0;
 2248              		.loc 1 454 5 is_stmt 1 view .LVU769
 455:Middlewares/lvgl/src/extra/layouts/grid/lv_grid.c ****     for(i = 0; i < c->col_num; i++) {
 2249              		.loc 1 455 5 view .LVU770
 456:Middlewares/lvgl/src/extra/layouts/grid/lv_grid.c ****         lv_coord_t x = col_templ[i];
 2250              		.loc 1 456 5 view .LVU771
 455:Middlewares/lvgl/src/extra/layouts/grid/lv_grid.c ****     for(i = 0; i < c->col_num; i++) {
 2251              		.loc 1 455 13 is_stmt 0 view .LVU772
 2252 012c 0021     		movs	r1, #0
 454:Middlewares/lvgl/src/extra/layouts/grid/lv_grid.c ****     int32_t last_fr_x = 0;
 2253              		.loc 1 454 13 view .LVU773
 2254 012e 4FF0FF37 		mov	r7, #-1
 456:Middlewares/lvgl/src/extra/layouts/grid/lv_grid.c ****         lv_coord_t x = col_templ[i];
 2255              		.loc 1 456 11 view .LVU774
 2256 0132 0A46     		mov	r2, r1
 2257              	.LVL278:
 456:Middlewares/lvgl/src/extra/layouts/grid/lv_grid.c ****         lv_coord_t x = col_templ[i];
 2258              		.loc 1 456 5 view .LVU775
 2259 0134 02E0     		b	.L109
 2260              	.LVL279:
 2261              	.L120:
 452:Middlewares/lvgl/src/extra/layouts/grid/lv_grid.c **** 
 2262              		.loc 1 452 27 view .LVU776
 2263 0136 0023     		movs	r3, #0
 2264              	.LVL280:
 452:Middlewares/lvgl/src/extra/layouts/grid/lv_grid.c **** 
 2265              		.loc 1 452 27 view .LVU777
 2266 0138 F8E7     		b	.L108
 2267              	.LVL281:
 2268              	.L110:
 456:Middlewares/lvgl/src/extra/layouts/grid/lv_grid.c ****         lv_coord_t x = col_templ[i];
 2269              		.loc 1 456 32 is_stmt 1 discriminator 2 view .LVU778
 456:Middlewares/lvgl/src/extra/layouts/grid/lv_grid.c ****         lv_coord_t x = col_templ[i];
 2270              		.loc 1 456 33 is_stmt 0 discriminator 2 view .LVU779
 2271 013a 0132     		adds	r2, r2, #1
 2272              	.LVL282:
 2273              	.L109:
 456:Middlewares/lvgl/src/extra/layouts/grid/lv_grid.c ****         lv_coord_t x = col_templ[i];
 2274              		.loc 1 456 16 is_stmt 1 discriminator 1 view .LVU780
 456:Middlewares/lvgl/src/extra/layouts/grid/lv_grid.c ****         lv_coord_t x = col_templ[i];
 2275              		.loc 1 456 21 is_stmt 0 discriminator 1 view .LVU781
 2276 013c 2069     		ldr	r0, [r4, #16]
 456:Middlewares/lvgl/src/extra/layouts/grid/lv_grid.c ****         lv_coord_t x = col_templ[i];
 2277              		.loc 1 456 5 discriminator 1 view .LVU782
 2278 013e 9042     		cmp	r0, r2
 2279 0140 11D9     		bls	.L121
 2280              	.LBB232:
 457:Middlewares/lvgl/src/extra/layouts/grid/lv_grid.c ****         if(IS_FR(x)) {
 2281              		.loc 1 457 9 is_stmt 1 view .LVU783
ARM GAS  /tmp/cc3I9fWq.s 			page 75


 457:Middlewares/lvgl/src/extra/layouts/grid/lv_grid.c ****         if(IS_FR(x)) {
 2282              		.loc 1 457 20 is_stmt 0 view .LVU784
 2283 0142 38F91200 		ldrsh	r0, [r8, r2, lsl #1]
 2284              	.LVL283:
 458:Middlewares/lvgl/src/extra/layouts/grid/lv_grid.c ****             lv_coord_t f = GET_FR(x);
 2285              		.loc 1 458 9 is_stmt 1 view .LVU785
 458:Middlewares/lvgl/src/extra/layouts/grid/lv_grid.c ****             lv_coord_t f = GET_FR(x);
 2286              		.loc 1 458 11 is_stmt 0 view .LVU786
 2287 0146 45F69B76 		movw	r6, #24475
 2288 014a B042     		cmp	r0, r6
 2289 014c F5DD     		ble	.L110
 2290              	.LBB233:
 459:Middlewares/lvgl/src/extra/layouts/grid/lv_grid.c ****             c->w[i] = (free_w * f) / col_fr_cnt;
 2291              		.loc 1 459 13 is_stmt 1 view .LVU787
 459:Middlewares/lvgl/src/extra/layouts/grid/lv_grid.c ****             c->w[i] = (free_w * f) / col_fr_cnt;
 2292              		.loc 1 459 28 is_stmt 0 view .LVU788
 2293 014e 1149     		ldr	r1, .L122+16
 2294              	.LVL284:
 459:Middlewares/lvgl/src/extra/layouts/grid/lv_grid.c ****             c->w[i] = (free_w * f) / col_fr_cnt;
 2295              		.loc 1 459 28 view .LVU789
 2296 0150 0144     		add	r1, r1, r0
 459:Middlewares/lvgl/src/extra/layouts/grid/lv_grid.c ****             c->w[i] = (free_w * f) / col_fr_cnt;
 2297              		.loc 1 459 24 view .LVU790
 2298 0152 09B2     		sxth	r1, r1
 460:Middlewares/lvgl/src/extra/layouts/grid/lv_grid.c ****             last_fr_i = i;
 2299              		.loc 1 460 13 is_stmt 1 view .LVU791
 460:Middlewares/lvgl/src/extra/layouts/grid/lv_grid.c ****             last_fr_i = i;
 2300              		.loc 1 460 31 is_stmt 0 view .LVU792
 2301 0154 01FB03F0 		mul	r0, r1, r3
 2302              	.LVL285:
 460:Middlewares/lvgl/src/extra/layouts/grid/lv_grid.c ****             last_fr_i = i;
 2303              		.loc 1 460 36 view .LVU793
 2304 0158 B0FBF5F0 		udiv	r0, r0, r5
 460:Middlewares/lvgl/src/extra/layouts/grid/lv_grid.c ****             last_fr_i = i;
 2305              		.loc 1 460 14 view .LVU794
 2306 015c A668     		ldr	r6, [r4, #8]
 460:Middlewares/lvgl/src/extra/layouts/grid/lv_grid.c ****             last_fr_i = i;
 2307              		.loc 1 460 21 view .LVU795
 2308 015e 26F81200 		strh	r0, [r6, r2, lsl #1]	@ movhi
 2309              	.LVL286:
 461:Middlewares/lvgl/src/extra/layouts/grid/lv_grid.c ****             last_fr_x = f;
 2310              		.loc 1 461 13 is_stmt 1 view .LVU796
 461:Middlewares/lvgl/src/extra/layouts/grid/lv_grid.c ****             last_fr_x = f;
 2311              		.loc 1 461 23 is_stmt 0 view .LVU797
 2312 0162 1746     		mov	r7, r2
 2313              	.LVL287:
 462:Middlewares/lvgl/src/extra/layouts/grid/lv_grid.c ****         }
 2314              		.loc 1 462 13 is_stmt 1 view .LVU798
 462:Middlewares/lvgl/src/extra/layouts/grid/lv_grid.c ****         }
 2315              		.loc 1 462 13 is_stmt 0 view .LVU799
 2316 0164 E9E7     		b	.L110
 2317              	.LVL288:
 2318              	.L121:
 462:Middlewares/lvgl/src/extra/layouts/grid/lv_grid.c ****         }
 2319              		.loc 1 462 13 view .LVU800
 2320              	.LBE233:
 2321              	.LBE232:
ARM GAS  /tmp/cc3I9fWq.s 			page 76


 467:Middlewares/lvgl/src/extra/layouts/grid/lv_grid.c ****     	c->w[last_fr_i] = free_w - ((free_w * (col_fr_cnt - last_fr_x)) / col_fr_cnt);
 2322              		.loc 1 467 5 is_stmt 1 view .LVU801
 467:Middlewares/lvgl/src/extra/layouts/grid/lv_grid.c ****     	c->w[last_fr_i] = free_w - ((free_w * (col_fr_cnt - last_fr_x)) / col_fr_cnt);
 2323              		.loc 1 467 7 is_stmt 0 view .LVU802
 2324 0166 002F     		cmp	r7, #0
 2325 0168 08DB     		blt	.L95
 468:Middlewares/lvgl/src/extra/layouts/grid/lv_grid.c ****     }
 2326              		.loc 1 468 6 is_stmt 1 view .LVU803
 468:Middlewares/lvgl/src/extra/layouts/grid/lv_grid.c ****     }
 2327              		.loc 1 468 56 is_stmt 0 view .LVU804
 2328 016a 691A     		subs	r1, r5, r1
 2329              	.LVL289:
 468:Middlewares/lvgl/src/extra/layouts/grid/lv_grid.c ****     }
 2330              		.loc 1 468 42 view .LVU805
 2331 016c 03FB01F1 		mul	r1, r3, r1
 468:Middlewares/lvgl/src/extra/layouts/grid/lv_grid.c ****     }
 2332              		.loc 1 468 70 view .LVU806
 2333 0170 B1FBF5F5 		udiv	r5, r1, r5
 2334              	.LVL290:
 468:Middlewares/lvgl/src/extra/layouts/grid/lv_grid.c ****     }
 2335              		.loc 1 468 7 view .LVU807
 2336 0174 A268     		ldr	r2, [r4, #8]
 2337              	.LVL291:
 468:Middlewares/lvgl/src/extra/layouts/grid/lv_grid.c ****     }
 2338              		.loc 1 468 31 view .LVU808
 2339 0176 5D1B     		subs	r5, r3, r5
 468:Middlewares/lvgl/src/extra/layouts/grid/lv_grid.c ****     }
 2340              		.loc 1 468 22 view .LVU809
 2341 0178 22F81750 		strh	r5, [r2, r7, lsl #1]	@ movhi
 2342              	.L95:
 470:Middlewares/lvgl/src/extra/layouts/grid/lv_grid.c **** 
 2343              		.loc 1 470 1 view .LVU810
 2344 017c 03B0     		add	sp, sp, #12
 2345              	.LCFI9:
 2346              		.cfi_def_cfa_offset 36
 2347              		@ sp needed
 2348 017e BDE8F08F 		pop	{r4, r5, r6, r7, r8, r9, r10, fp, pc}
 2349              	.LVL292:
 2350              	.L123:
 470:Middlewares/lvgl/src/extra/layouts/grid/lv_grid.c **** 
 2351              		.loc 1 470 1 view .LVU811
 2352 0182 00BF     		.align	2
 2353              	.L122:
 2354 0184 00000000 		.word	.LANCHOR7
 2355 0188 01800100 		.word	98305
 2356 018c 00000000 		.word	.LANCHOR0
 2357 0190 00000000 		.word	.LANCHOR2
 2358 0194 64A0FFFF 		.word	-24476
 2359 0198 00A0FFFF 		.word	-24576
 2360              		.cfi_endproc
 2361              	.LFE200:
 2363              		.section	.text.calc,"ax",%progbits
 2364              		.align	1
 2365              		.syntax unified
 2366              		.thumb
 2367              		.thumb_func
 2369              	calc:
ARM GAS  /tmp/cc3I9fWq.s 			page 77


 2370              	.LVL293:
 2371              	.LFB198:
 361:Middlewares/lvgl/src/extra/layouts/grid/lv_grid.c ****     if(lv_obj_get_child(cont, 0) == NULL) {
 2372              		.loc 1 361 1 is_stmt 1 view -0
 2373              		.cfi_startproc
 2374              		@ args = 0, pretend = 0, frame = 0
 2375              		@ frame_needed = 0, uses_anonymous_args = 0
 361:Middlewares/lvgl/src/extra/layouts/grid/lv_grid.c ****     if(lv_obj_get_child(cont, 0) == NULL) {
 2376              		.loc 1 361 1 is_stmt 0 view .LVU813
 2377 0000 2DE9F04F 		push	{r4, r5, r6, r7, r8, r9, r10, fp, lr}
 2378              	.LCFI10:
 2379              		.cfi_def_cfa_offset 36
 2380              		.cfi_offset 4, -36
 2381              		.cfi_offset 5, -32
 2382              		.cfi_offset 6, -28
 2383              		.cfi_offset 7, -24
 2384              		.cfi_offset 8, -20
 2385              		.cfi_offset 9, -16
 2386              		.cfi_offset 10, -12
 2387              		.cfi_offset 11, -8
 2388              		.cfi_offset 14, -4
 2389 0004 85B0     		sub	sp, sp, #20
 2390              	.LCFI11:
 2391              		.cfi_def_cfa_offset 56
 2392 0006 0446     		mov	r4, r0
 2393 0008 0D46     		mov	r5, r1
 362:Middlewares/lvgl/src/extra/layouts/grid/lv_grid.c ****         lv_memset_00(calc_out, sizeof(_lv_grid_calc_t));
 2394              		.loc 1 362 5 is_stmt 1 view .LVU814
 362:Middlewares/lvgl/src/extra/layouts/grid/lv_grid.c ****         lv_memset_00(calc_out, sizeof(_lv_grid_calc_t));
 2395              		.loc 1 362 8 is_stmt 0 view .LVU815
 2396 000a 0021     		movs	r1, #0
 2397              	.LVL294:
 362:Middlewares/lvgl/src/extra/layouts/grid/lv_grid.c ****         lv_memset_00(calc_out, sizeof(_lv_grid_calc_t));
 2398              		.loc 1 362 8 view .LVU816
 2399 000c FFF7FEFF 		bl	lv_obj_get_child
 2400              	.LVL295:
 362:Middlewares/lvgl/src/extra/layouts/grid/lv_grid.c ****         lv_memset_00(calc_out, sizeof(_lv_grid_calc_t));
 2401              		.loc 1 362 7 view .LVU817
 2402 0010 0028     		cmp	r0, #0
 2403 0012 71D0     		beq	.L134
 367:Middlewares/lvgl/src/extra/layouts/grid/lv_grid.c ****     calc_cols(cont, calc_out);
 2404              		.loc 1 367 5 is_stmt 1 view .LVU818
 2405 0014 2946     		mov	r1, r5
 2406 0016 2046     		mov	r0, r4
 2407 0018 FFF7FEFF 		bl	calc_rows
 2408              	.LVL296:
 368:Middlewares/lvgl/src/extra/layouts/grid/lv_grid.c **** 
 2409              		.loc 1 368 5 view .LVU819
 2410 001c 2946     		mov	r1, r5
 2411 001e 2046     		mov	r0, r4
 2412 0020 FFF7FEFF 		bl	calc_cols
 2413              	.LVL297:
 370:Middlewares/lvgl/src/extra/layouts/grid/lv_grid.c ****     lv_coord_t row_gap = lv_obj_get_style_pad_row(cont, LV_PART_MAIN);
 2414              		.loc 1 370 5 view .LVU820
 2415              	.LBB252:
 2416              	.LBI252:
 121:Middlewares/lvgl/src/extra/layouts/grid/../flex/../../../core/lv_obj_style_gen.h **** {
ARM GAS  /tmp/cc3I9fWq.s 			page 78


 2417              		.loc 3 121 26 view .LVU821
 2418              	.LBB253:
 123:Middlewares/lvgl/src/extra/layouts/grid/../flex/../../../core/lv_obj_style_gen.h ****     return (lv_coord_t)v.num;
 2419              		.loc 3 123 5 view .LVU822
 123:Middlewares/lvgl/src/extra/layouts/grid/../flex/../../../core/lv_obj_style_gen.h ****     return (lv_coord_t)v.num;
 2420              		.loc 3 123 26 is_stmt 0 view .LVU823
 2421 0024 41F21502 		movw	r2, #4117
 2422 0028 0021     		movs	r1, #0
 2423 002a 2046     		mov	r0, r4
 2424 002c FFF7FEFF 		bl	lv_obj_get_style_prop
 2425              	.LVL298:
 124:Middlewares/lvgl/src/extra/layouts/grid/../flex/../../../core/lv_obj_style_gen.h **** }
 2426              		.loc 3 124 5 is_stmt 1 view .LVU824
 124:Middlewares/lvgl/src/extra/layouts/grid/../flex/../../../core/lv_obj_style_gen.h **** }
 2427              		.loc 3 124 12 is_stmt 0 view .LVU825
 2428 0030 0FFA80FA 		sxth	r10, r0
 2429              	.LVL299:
 124:Middlewares/lvgl/src/extra/layouts/grid/../flex/../../../core/lv_obj_style_gen.h **** }
 2430              		.loc 3 124 12 view .LVU826
 2431              	.LBE253:
 2432              	.LBE252:
 371:Middlewares/lvgl/src/extra/layouts/grid/lv_grid.c **** 
 2433              		.loc 1 371 5 is_stmt 1 view .LVU827
 2434              	.LBB254:
 2435              	.LBI254:
 115:Middlewares/lvgl/src/extra/layouts/grid/../flex/../../../core/lv_obj_style_gen.h **** {
 2436              		.loc 3 115 26 view .LVU828
 2437              	.LBB255:
 117:Middlewares/lvgl/src/extra/layouts/grid/../flex/../../../core/lv_obj_style_gen.h ****     return (lv_coord_t)v.num;
 2438              		.loc 3 117 5 view .LVU829
 117:Middlewares/lvgl/src/extra/layouts/grid/../flex/../../../core/lv_obj_style_gen.h ****     return (lv_coord_t)v.num;
 2439              		.loc 3 117 26 is_stmt 0 view .LVU830
 2440 0034 41F21402 		movw	r2, #4116
 2441 0038 0021     		movs	r1, #0
 2442 003a 2046     		mov	r0, r4
 2443 003c FFF7FEFF 		bl	lv_obj_get_style_prop
 2444              	.LVL300:
 118:Middlewares/lvgl/src/extra/layouts/grid/../flex/../../../core/lv_obj_style_gen.h **** }
 2445              		.loc 3 118 5 is_stmt 1 view .LVU831
 118:Middlewares/lvgl/src/extra/layouts/grid/../flex/../../../core/lv_obj_style_gen.h **** }
 2446              		.loc 3 118 12 is_stmt 0 view .LVU832
 2447 0040 07B2     		sxth	r7, r0
 2448              	.LVL301:
 118:Middlewares/lvgl/src/extra/layouts/grid/../flex/../../../core/lv_obj_style_gen.h **** }
 2449              		.loc 3 118 12 view .LVU833
 2450              	.LBE255:
 2451              	.LBE254:
 373:Middlewares/lvgl/src/extra/layouts/grid/lv_grid.c **** 
 2452              		.loc 1 373 5 is_stmt 1 view .LVU834
 2453              	.LBB256:
 2454              	.LBI256:
 187:Middlewares/lvgl/src/extra/layouts/grid/../flex/../../../core/lv_obj_style_gen.h **** {
 2455              		.loc 3 187 29 view .LVU835
 2456              	.LBB257:
 189:Middlewares/lvgl/src/extra/layouts/grid/../flex/../../../core/lv_obj_style_gen.h ****     return (lv_base_dir_t)v.num;
 2457              		.loc 3 189 5 view .LVU836
 189:Middlewares/lvgl/src/extra/layouts/grid/../flex/../../../core/lv_obj_style_gen.h ****     return (lv_base_dir_t)v.num;
ARM GAS  /tmp/cc3I9fWq.s 			page 79


 2458              		.loc 3 189 26 is_stmt 0 view .LVU837
 2459 0042 41F26A42 		movw	r2, #5226
 2460 0046 0021     		movs	r1, #0
 2461 0048 2046     		mov	r0, r4
 2462 004a FFF7FEFF 		bl	lv_obj_get_style_prop
 2463              	.LVL302:
 2464              		.loc 3 190 5 is_stmt 1 view .LVU838
 2465              		.loc 3 190 12 is_stmt 0 view .LVU839
 2466 004e C6B2     		uxtb	r6, r0
 2467              	.LVL303:
 2468              		.loc 3 190 12 view .LVU840
 2469              	.LBE257:
 2470              	.LBE256:
 373:Middlewares/lvgl/src/extra/layouts/grid/lv_grid.c **** 
 2471              		.loc 1 373 10 view .LVU841
 2472 0050 012E     		cmp	r6, #1
 2473 0052 14BF     		ite	ne
 2474 0054 0026     		movne	r6, #0
 2475 0056 0126     		moveq	r6, #1
 2476              	.LVL304:
 375:Middlewares/lvgl/src/extra/layouts/grid/lv_grid.c ****     lv_coord_t h_set = lv_obj_get_style_height(cont, LV_PART_MAIN);
 2477              		.loc 1 375 5 is_stmt 1 view .LVU842
 2478              	.LBB258:
 2479              	.LBI258:
   1:Middlewares/lvgl/src/extra/layouts/grid/../flex/../../../core/lv_obj_style_gen.h **** {
 2480              		.loc 3 1 26 view .LVU843
 2481              	.LBB259:
   3:Middlewares/lvgl/src/extra/layouts/grid/../flex/../../../core/lv_obj_style_gen.h ****     return (lv_coord_t)v.num;
 2482              		.loc 3 3 5 view .LVU844
   3:Middlewares/lvgl/src/extra/layouts/grid/../flex/../../../core/lv_obj_style_gen.h ****     return (lv_coord_t)v.num;
 2483              		.loc 3 3 26 is_stmt 0 view .LVU845
 2484 0058 41F20102 		movw	r2, #4097
 2485 005c 0021     		movs	r1, #0
 2486 005e 2046     		mov	r0, r4
 2487 0060 FFF7FEFF 		bl	lv_obj_get_style_prop
 2488              	.LVL305:
   4:Middlewares/lvgl/src/extra/layouts/grid/../flex/../../../core/lv_obj_style_gen.h **** }
 2489              		.loc 3 4 5 is_stmt 1 view .LVU846
   4:Middlewares/lvgl/src/extra/layouts/grid/../flex/../../../core/lv_obj_style_gen.h **** }
 2490              		.loc 3 4 12 is_stmt 0 view .LVU847
 2491 0064 0FFA80F9 		sxth	r9, r0
 2492              	.LVL306:
   4:Middlewares/lvgl/src/extra/layouts/grid/../flex/../../../core/lv_obj_style_gen.h **** }
 2493              		.loc 3 4 12 view .LVU848
 2494              	.LBE259:
 2495              	.LBE258:
 376:Middlewares/lvgl/src/extra/layouts/grid/lv_grid.c ****     bool auto_w = (w_set == LV_SIZE_CONTENT && !cont->w_layout) ? true : false;
 2496              		.loc 1 376 5 is_stmt 1 view .LVU849
 2497              	.LBB260:
 2498              	.LBI260:
  19:Middlewares/lvgl/src/extra/layouts/grid/../flex/../../../core/lv_obj_style_gen.h **** {
 2499              		.loc 3 19 26 view .LVU850
 2500              	.LBB261:
  21:Middlewares/lvgl/src/extra/layouts/grid/../flex/../../../core/lv_obj_style_gen.h ****     return (lv_coord_t)v.num;
 2501              		.loc 3 21 5 view .LVU851
  21:Middlewares/lvgl/src/extra/layouts/grid/../flex/../../../core/lv_obj_style_gen.h ****     return (lv_coord_t)v.num;
 2502              		.loc 3 21 26 is_stmt 0 view .LVU852
ARM GAS  /tmp/cc3I9fWq.s 			page 80


 2503 0068 41F20402 		movw	r2, #4100
 2504 006c 0021     		movs	r1, #0
 2505 006e 2046     		mov	r0, r4
 2506 0070 FFF7FEFF 		bl	lv_obj_get_style_prop
 2507              	.LVL307:
  22:Middlewares/lvgl/src/extra/layouts/grid/../flex/../../../core/lv_obj_style_gen.h **** }
 2508              		.loc 3 22 5 is_stmt 1 view .LVU853
  22:Middlewares/lvgl/src/extra/layouts/grid/../flex/../../../core/lv_obj_style_gen.h **** }
 2509              		.loc 3 22 12 is_stmt 0 view .LVU854
 2510 0074 0FFA80F8 		sxth	r8, r0
 2511              	.LVL308:
  22:Middlewares/lvgl/src/extra/layouts/grid/../flex/../../../core/lv_obj_style_gen.h **** }
 2512              		.loc 3 22 12 view .LVU855
 2513              	.LBE261:
 2514              	.LBE260:
 377:Middlewares/lvgl/src/extra/layouts/grid/lv_grid.c ****     lv_coord_t cont_w = lv_obj_get_content_width(cont);
 2515              		.loc 1 377 5 is_stmt 1 view .LVU856
 377:Middlewares/lvgl/src/extra/layouts/grid/lv_grid.c ****     lv_coord_t cont_w = lv_obj_get_content_width(cont);
 2516              		.loc 1 377 72 is_stmt 0 view .LVU857
 2517 0078 42F2D173 		movw	r3, #10193
 2518 007c 9945     		cmp	r9, r3
 2519 007e 40D0     		beq	.L135
 2520 0080 4FF0000B 		mov	fp, #0
 2521              	.L127:
 2522              	.LVL309:
 378:Middlewares/lvgl/src/extra/layouts/grid/lv_grid.c ****     calc_out->grid_w = grid_align(cont_w, auto_w, get_grid_col_align(cont), col_gap, calc_out->col_
 2523              		.loc 1 378 5 is_stmt 1 discriminator 6 view .LVU858
 378:Middlewares/lvgl/src/extra/layouts/grid/lv_grid.c ****     calc_out->grid_w = grid_align(cont_w, auto_w, get_grid_col_align(cont), col_gap, calc_out->col_
 2524              		.loc 1 378 25 is_stmt 0 discriminator 6 view .LVU859
 2525 0084 2046     		mov	r0, r4
 2526 0086 FFF7FEFF 		bl	lv_obj_get_content_width
 2527              	.LVL310:
 2528 008a 8146     		mov	r9, r0
 2529              	.LVL311:
 379:Middlewares/lvgl/src/extra/layouts/grid/lv_grid.c **** 
 2530              		.loc 1 379 5 is_stmt 1 discriminator 6 view .LVU860
 2531              	.LBB262:
 2532              	.LBI262:
  68:Middlewares/lvgl/src/extra/layouts/grid/lv_grid.c **** static inline uint8_t get_grid_row_align(lv_obj_t * obj) {return lv_obj_get_style_grid_row_align(ob
 2533              		.loc 1 68 23 discriminator 6 view .LVU861
 2534              	.LBE262:
  68:Middlewares/lvgl/src/extra/layouts/grid/lv_grid.c **** static inline uint8_t get_grid_row_align(lv_obj_t * obj) {return lv_obj_get_style_grid_row_align(ob
 2535              		.loc 1 68 59 discriminator 6 view .LVU862
 2536              	.LBB265:
 2537              	.LBB263:
 2538              	.LBI263:
 139:Middlewares/lvgl/src/extra/layouts/grid/../grid/lv_grid.h **** {
 2539              		.loc 2 139 31 discriminator 6 view .LVU863
 2540              	.LBB264:
 141:Middlewares/lvgl/src/extra/layouts/grid/../grid/lv_grid.h ****     return (lv_grid_align_t)v.num;
 2541              		.loc 2 141 5 discriminator 6 view .LVU864
 141:Middlewares/lvgl/src/extra/layouts/grid/../grid/lv_grid.h ****     return (lv_grid_align_t)v.num;
 2542              		.loc 2 141 26 is_stmt 0 discriminator 6 view .LVU865
 2543 008c 284B     		ldr	r3, .L137
 2544 008e 1A88     		ldrh	r2, [r3]
 2545 0090 0021     		movs	r1, #0
 2546 0092 2046     		mov	r0, r4
ARM GAS  /tmp/cc3I9fWq.s 			page 81


 2547 0094 FFF7FEFF 		bl	lv_obj_get_style_prop
 2548              	.LVL312:
 142:Middlewares/lvgl/src/extra/layouts/grid/../grid/lv_grid.h **** }
 2549              		.loc 2 142 5 is_stmt 1 discriminator 6 view .LVU866
 142:Middlewares/lvgl/src/extra/layouts/grid/../grid/lv_grid.h **** }
 2550              		.loc 2 142 5 is_stmt 0 discriminator 6 view .LVU867
 2551              	.LBE264:
 2552              	.LBE263:
 2553              	.LBE265:
 379:Middlewares/lvgl/src/extra/layouts/grid/lv_grid.c **** 
 2554              		.loc 1 379 24 discriminator 6 view .LVU868
 2555 0098 0396     		str	r6, [sp, #12]
 2556 009a 2B68     		ldr	r3, [r5]
 2557 009c 0293     		str	r3, [sp, #8]
 2558 009e AB68     		ldr	r3, [r5, #8]
 2559 00a0 0193     		str	r3, [sp, #4]
 2560 00a2 2B69     		ldr	r3, [r5, #16]
 2561 00a4 0093     		str	r3, [sp]
 2562 00a6 5346     		mov	r3, r10
 2563 00a8 C2B2     		uxtb	r2, r0
 2564 00aa 5946     		mov	r1, fp
 2565 00ac 4846     		mov	r0, r9
 2566 00ae FFF7FEFF 		bl	grid_align
 2567              	.LVL313:
 379:Middlewares/lvgl/src/extra/layouts/grid/lv_grid.c **** 
 2568              		.loc 1 379 22 discriminator 6 view .LVU869
 2569 00b2 2883     		strh	r0, [r5, #24]	@ movhi
 381:Middlewares/lvgl/src/extra/layouts/grid/lv_grid.c ****     lv_coord_t cont_h = lv_obj_get_content_height(cont);
 2570              		.loc 1 381 5 is_stmt 1 discriminator 6 view .LVU870
 381:Middlewares/lvgl/src/extra/layouts/grid/lv_grid.c ****     lv_coord_t cont_h = lv_obj_get_content_height(cont);
 2571              		.loc 1 381 72 is_stmt 0 discriminator 6 view .LVU871
 2572 00b4 42F2D173 		movw	r3, #10193
 2573 00b8 9845     		cmp	r8, r3
 2574 00ba 2DD0     		beq	.L136
 381:Middlewares/lvgl/src/extra/layouts/grid/lv_grid.c ****     lv_coord_t cont_h = lv_obj_get_content_height(cont);
 2575              		.loc 1 381 72 view .LVU872
 2576 00bc 4FF00008 		mov	r8, #0
 2577              	.LVL314:
 2578              	.L128:
 382:Middlewares/lvgl/src/extra/layouts/grid/lv_grid.c ****     calc_out->grid_h = grid_align(cont_h, auto_h, get_grid_row_align(cont), row_gap, calc_out->row_
 2579              		.loc 1 382 5 is_stmt 1 discriminator 6 view .LVU873
 382:Middlewares/lvgl/src/extra/layouts/grid/lv_grid.c ****     calc_out->grid_h = grid_align(cont_h, auto_h, get_grid_row_align(cont), row_gap, calc_out->row_
 2580              		.loc 1 382 25 is_stmt 0 discriminator 6 view .LVU874
 2581 00c0 2046     		mov	r0, r4
 2582 00c2 FFF7FEFF 		bl	lv_obj_get_content_height
 2583              	.LVL315:
 2584 00c6 0646     		mov	r6, r0
 2585              	.LVL316:
 383:Middlewares/lvgl/src/extra/layouts/grid/lv_grid.c **** 
 2586              		.loc 1 383 5 is_stmt 1 discriminator 6 view .LVU875
 2587              	.LBB266:
 2588              	.LBI266:
  69:Middlewares/lvgl/src/extra/layouts/grid/lv_grid.c **** 
 2589              		.loc 1 69 23 discriminator 6 view .LVU876
 2590              	.LBE266:
  69:Middlewares/lvgl/src/extra/layouts/grid/lv_grid.c **** 
 2591              		.loc 1 69 59 discriminator 6 view .LVU877
ARM GAS  /tmp/cc3I9fWq.s 			page 82


 2592              	.LBB269:
 2593              	.LBB267:
 2594              	.LBI267:
 133:Middlewares/lvgl/src/extra/layouts/grid/../grid/lv_grid.h **** {
 2595              		.loc 2 133 31 discriminator 6 view .LVU878
 2596              	.LBB268:
 135:Middlewares/lvgl/src/extra/layouts/grid/../grid/lv_grid.h ****     return (lv_grid_align_t)v.num;
 2597              		.loc 2 135 5 discriminator 6 view .LVU879
 135:Middlewares/lvgl/src/extra/layouts/grid/../grid/lv_grid.h ****     return (lv_grid_align_t)v.num;
 2598              		.loc 2 135 26 is_stmt 0 discriminator 6 view .LVU880
 2599 00c8 1A4B     		ldr	r3, .L137+4
 2600 00ca 1A88     		ldrh	r2, [r3]
 2601 00cc 0021     		movs	r1, #0
 2602 00ce 2046     		mov	r0, r4
 2603 00d0 FFF7FEFF 		bl	lv_obj_get_style_prop
 2604              	.LVL317:
 136:Middlewares/lvgl/src/extra/layouts/grid/../grid/lv_grid.h **** }
 2605              		.loc 2 136 5 is_stmt 1 discriminator 6 view .LVU881
 136:Middlewares/lvgl/src/extra/layouts/grid/../grid/lv_grid.h **** }
 2606              		.loc 2 136 5 is_stmt 0 discriminator 6 view .LVU882
 2607              	.LBE268:
 2608              	.LBE267:
 2609              	.LBE269:
 383:Middlewares/lvgl/src/extra/layouts/grid/lv_grid.c **** 
 2610              		.loc 1 383 24 discriminator 6 view .LVU883
 2611 00d4 0023     		movs	r3, #0
 2612 00d6 0393     		str	r3, [sp, #12]
 2613 00d8 6B68     		ldr	r3, [r5, #4]
 2614 00da 0293     		str	r3, [sp, #8]
 2615 00dc EB68     		ldr	r3, [r5, #12]
 2616 00de 0193     		str	r3, [sp, #4]
 2617 00e0 6B69     		ldr	r3, [r5, #20]
 2618 00e2 0093     		str	r3, [sp]
 2619 00e4 3B46     		mov	r3, r7
 2620 00e6 C2B2     		uxtb	r2, r0
 2621 00e8 4146     		mov	r1, r8
 2622 00ea 3046     		mov	r0, r6
 2623 00ec FFF7FEFF 		bl	grid_align
 2624              	.LVL318:
 383:Middlewares/lvgl/src/extra/layouts/grid/lv_grid.c **** 
 2625              		.loc 1 383 22 discriminator 6 view .LVU884
 2626 00f0 6883     		strh	r0, [r5, #26]	@ movhi
 385:Middlewares/lvgl/src/extra/layouts/grid/lv_grid.c **** }
 2627              		.loc 1 385 30 is_stmt 1 discriminator 6 view .LVU885
 2628              	.LVL319:
 2629              	.L124:
 386:Middlewares/lvgl/src/extra/layouts/grid/lv_grid.c **** 
 2630              		.loc 1 386 1 is_stmt 0 view .LVU886
 2631 00f2 05B0     		add	sp, sp, #20
 2632              	.LCFI12:
 2633              		.cfi_remember_state
 2634              		.cfi_def_cfa_offset 36
 2635              		@ sp needed
 2636 00f4 BDE8F08F 		pop	{r4, r5, r6, r7, r8, r9, r10, fp, pc}
 2637              	.LVL320:
 2638              	.L134:
 2639              	.LCFI13:
ARM GAS  /tmp/cc3I9fWq.s 			page 83


 2640              		.cfi_restore_state
 363:Middlewares/lvgl/src/extra/layouts/grid/lv_grid.c ****         return;
 2641              		.loc 1 363 9 is_stmt 1 view .LVU887
 2642 00f8 1C21     		movs	r1, #28
 2643 00fa 2846     		mov	r0, r5
 2644 00fc FFF7FEFF 		bl	lv_memset_00
 2645              	.LVL321:
 364:Middlewares/lvgl/src/extra/layouts/grid/lv_grid.c ****     }
 2646              		.loc 1 364 9 view .LVU888
 2647 0100 F7E7     		b	.L124
 2648              	.LVL322:
 2649              	.L135:
 377:Middlewares/lvgl/src/extra/layouts/grid/lv_grid.c ****     lv_coord_t cont_w = lv_obj_get_content_width(cont);
 2650              		.loc 1 377 48 is_stmt 0 discriminator 1 view .LVU889
 2651 0102 94F82330 		ldrb	r3, [r4, #35]	@ zero_extendqisi2
 377:Middlewares/lvgl/src/extra/layouts/grid/lv_grid.c ****     lv_coord_t cont_w = lv_obj_get_content_width(cont);
 2652              		.loc 1 377 72 discriminator 1 view .LVU890
 2653 0106 13F0040F 		tst	r3, #4
 2654 010a 02D0     		beq	.L130
 377:Middlewares/lvgl/src/extra/layouts/grid/lv_grid.c ****     lv_coord_t cont_w = lv_obj_get_content_width(cont);
 2655              		.loc 1 377 72 view .LVU891
 2656 010c 4FF0000B 		mov	fp, #0
 2657 0110 B8E7     		b	.L127
 2658              	.L130:
 2659 0112 4FF0010B 		mov	fp, #1
 2660 0116 B5E7     		b	.L127
 2661              	.LVL323:
 2662              	.L136:
 381:Middlewares/lvgl/src/extra/layouts/grid/lv_grid.c ****     lv_coord_t cont_h = lv_obj_get_content_height(cont);
 2663              		.loc 1 381 48 discriminator 1 view .LVU892
 2664 0118 94F82330 		ldrb	r3, [r4, #35]	@ zero_extendqisi2
 381:Middlewares/lvgl/src/extra/layouts/grid/lv_grid.c ****     lv_coord_t cont_h = lv_obj_get_content_height(cont);
 2665              		.loc 1 381 72 discriminator 1 view .LVU893
 2666 011c 13F0020F 		tst	r3, #2
 2667 0120 02D0     		beq	.L132
 381:Middlewares/lvgl/src/extra/layouts/grid/lv_grid.c ****     lv_coord_t cont_h = lv_obj_get_content_height(cont);
 2668              		.loc 1 381 72 view .LVU894
 2669 0122 4FF00008 		mov	r8, #0
 2670              	.LVL324:
 381:Middlewares/lvgl/src/extra/layouts/grid/lv_grid.c ****     lv_coord_t cont_h = lv_obj_get_content_height(cont);
 2671              		.loc 1 381 72 view .LVU895
 2672 0126 CBE7     		b	.L128
 2673              	.LVL325:
 2674              	.L132:
 381:Middlewares/lvgl/src/extra/layouts/grid/lv_grid.c ****     lv_coord_t cont_h = lv_obj_get_content_height(cont);
 2675              		.loc 1 381 72 view .LVU896
 2676 0128 4FF00108 		mov	r8, #1
 2677              	.LVL326:
 381:Middlewares/lvgl/src/extra/layouts/grid/lv_grid.c ****     lv_coord_t cont_h = lv_obj_get_content_height(cont);
 2678              		.loc 1 381 72 view .LVU897
 2679 012c C8E7     		b	.L128
 2680              	.L138:
 2681 012e 00BF     		.align	2
 2682              	.L137:
 2683 0130 00000000 		.word	.LANCHOR8
 2684 0134 00000000 		.word	.LANCHOR9
 2685              		.cfi_endproc
ARM GAS  /tmp/cc3I9fWq.s 			page 84


 2686              	.LFE198:
 2688              		.section	.text.grid_update,"ax",%progbits
 2689              		.align	1
 2690              		.syntax unified
 2691              		.thumb
 2692              		.thumb_func
 2694              	grid_update:
 2695              	.LVL327:
 2696              	.LFB197:
 314:Middlewares/lvgl/src/extra/layouts/grid/lv_grid.c ****     LV_LOG_INFO("update %p container", cont);
 2697              		.loc 1 314 1 is_stmt 1 view -0
 2698              		.cfi_startproc
 2699              		@ args = 0, pretend = 0, frame = 40
 2700              		@ frame_needed = 0, uses_anonymous_args = 0
 314:Middlewares/lvgl/src/extra/layouts/grid/lv_grid.c ****     LV_LOG_INFO("update %p container", cont);
 2701              		.loc 1 314 1 is_stmt 0 view .LVU899
 2702 0000 70B5     		push	{r4, r5, r6, lr}
 2703              	.LCFI14:
 2704              		.cfi_def_cfa_offset 16
 2705              		.cfi_offset 4, -16
 2706              		.cfi_offset 5, -12
 2707              		.cfi_offset 6, -8
 2708              		.cfi_offset 14, -4
 2709 0002 8AB0     		sub	sp, sp, #40
 2710              	.LCFI15:
 2711              		.cfi_def_cfa_offset 56
 2712 0004 0546     		mov	r5, r0
 315:Middlewares/lvgl/src/extra/layouts/grid/lv_grid.c ****     LV_UNUSED(user_data);
 2713              		.loc 1 315 45 is_stmt 1 view .LVU900
 316:Middlewares/lvgl/src/extra/layouts/grid/lv_grid.c **** 
 2714              		.loc 1 316 5 view .LVU901
 318:Middlewares/lvgl/src/extra/layouts/grid/lv_grid.c ****     const lv_coord_t * row_templ = get_row_dsc(cont);
 2715              		.loc 1 318 5 view .LVU902
 2716              	.LVL328:
 2717              	.LBB289:
 2718              	.LBI289:
  60:Middlewares/lvgl/src/extra/layouts/grid/lv_grid.c **** static inline const lv_coord_t * get_row_dsc(lv_obj_t * obj) {return lv_obj_get_style_grid_row_dsc_
 2719              		.loc 1 60 34 view .LVU903
 2720              	.LBE289:
  60:Middlewares/lvgl/src/extra/layouts/grid/lv_grid.c **** static inline const lv_coord_t * get_row_dsc(lv_obj_t * obj) {return lv_obj_get_style_grid_row_dsc_
 2721              		.loc 1 60 63 view .LVU904
 2722              	.LBB292:
 2723              	.LBB290:
 2724              	.LBI290:
 127:Middlewares/lvgl/src/extra/layouts/grid/../grid/lv_grid.h **** {
 2725              		.loc 2 127 34 view .LVU905
 2726              	.LBB291:
 129:Middlewares/lvgl/src/extra/layouts/grid/../grid/lv_grid.h ****     return (const lv_coord_t *)v.ptr;
 2727              		.loc 2 129 5 view .LVU906
 129:Middlewares/lvgl/src/extra/layouts/grid/../grid/lv_grid.h ****     return (const lv_coord_t *)v.ptr;
 2728              		.loc 2 129 26 is_stmt 0 view .LVU907
 2729 0006 3B4B     		ldr	r3, .L148
 2730 0008 1A88     		ldrh	r2, [r3]
 2731 000a 0021     		movs	r1, #0
 2732              	.LVL329:
 129:Middlewares/lvgl/src/extra/layouts/grid/../grid/lv_grid.h ****     return (const lv_coord_t *)v.ptr;
 2733              		.loc 2 129 26 view .LVU908
ARM GAS  /tmp/cc3I9fWq.s 			page 85


 2734 000c FFF7FEFF 		bl	lv_obj_get_style_prop
 2735              	.LVL330:
 129:Middlewares/lvgl/src/extra/layouts/grid/../grid/lv_grid.h ****     return (const lv_coord_t *)v.ptr;
 2736              		.loc 2 129 26 view .LVU909
 2737 0010 0446     		mov	r4, r0
 2738              	.LVL331:
 130:Middlewares/lvgl/src/extra/layouts/grid/../grid/lv_grid.h **** }
 2739              		.loc 2 130 5 is_stmt 1 view .LVU910
 130:Middlewares/lvgl/src/extra/layouts/grid/../grid/lv_grid.h **** }
 2740              		.loc 2 130 5 is_stmt 0 view .LVU911
 2741              	.LBE291:
 2742              	.LBE290:
 2743              	.LBE292:
 319:Middlewares/lvgl/src/extra/layouts/grid/lv_grid.c ****     if(col_templ == NULL || row_templ == NULL) return;
 2744              		.loc 1 319 5 is_stmt 1 view .LVU912
 2745              	.LBB293:
 2746              	.LBI293:
  61:Middlewares/lvgl/src/extra/layouts/grid/lv_grid.c **** static inline uint8_t get_col_pos(lv_obj_t * obj) {return lv_obj_get_style_grid_cell_column_pos(obj
 2747              		.loc 1 61 34 view .LVU913
 2748              	.LBE293:
  61:Middlewares/lvgl/src/extra/layouts/grid/lv_grid.c **** static inline uint8_t get_col_pos(lv_obj_t * obj) {return lv_obj_get_style_grid_cell_column_pos(obj
 2749              		.loc 1 61 63 view .LVU914
 2750              	.LBB296:
 2751              	.LBB294:
 2752              	.LBI294:
 121:Middlewares/lvgl/src/extra/layouts/grid/../grid/lv_grid.h **** {
 2753              		.loc 2 121 34 view .LVU915
 2754              	.LBB295:
 123:Middlewares/lvgl/src/extra/layouts/grid/../grid/lv_grid.h ****     return (const lv_coord_t *)v.ptr;
 2755              		.loc 2 123 5 view .LVU916
 123:Middlewares/lvgl/src/extra/layouts/grid/../grid/lv_grid.h ****     return (const lv_coord_t *)v.ptr;
 2756              		.loc 2 123 26 is_stmt 0 view .LVU917
 2757 0012 394B     		ldr	r3, .L148+4
 2758 0014 1A88     		ldrh	r2, [r3]
 2759 0016 0021     		movs	r1, #0
 2760 0018 2846     		mov	r0, r5
 2761              	.LVL332:
 123:Middlewares/lvgl/src/extra/layouts/grid/../grid/lv_grid.h ****     return (const lv_coord_t *)v.ptr;
 2762              		.loc 2 123 26 view .LVU918
 2763 001a FFF7FEFF 		bl	lv_obj_get_style_prop
 2764              	.LVL333:
 124:Middlewares/lvgl/src/extra/layouts/grid/../grid/lv_grid.h **** }
 2765              		.loc 2 124 5 is_stmt 1 view .LVU919
 124:Middlewares/lvgl/src/extra/layouts/grid/../grid/lv_grid.h **** }
 2766              		.loc 2 124 5 is_stmt 0 view .LVU920
 2767              	.LBE295:
 2768              	.LBE294:
 2769              	.LBE296:
 320:Middlewares/lvgl/src/extra/layouts/grid/lv_grid.c **** 
 2770              		.loc 1 320 5 is_stmt 1 view .LVU921
 320:Middlewares/lvgl/src/extra/layouts/grid/lv_grid.c **** 
 2771              		.loc 1 320 7 is_stmt 0 view .LVU922
 2772 001e 0028     		cmp	r0, #0
 2773 0020 18BF     		it	ne
 2774 0022 002C     		cmpne	r4, #0
 2775 0024 01D1     		bne	.L146
 2776              	.LVL334:
ARM GAS  /tmp/cc3I9fWq.s 			page 86


 2777              	.L139:
 352:Middlewares/lvgl/src/extra/layouts/grid/lv_grid.c **** 
 2778              		.loc 1 352 1 view .LVU923
 2779 0026 0AB0     		add	sp, sp, #40
 2780              	.LCFI16:
 2781              		.cfi_remember_state
 2782              		.cfi_def_cfa_offset 16
 2783              		@ sp needed
 2784 0028 70BD     		pop	{r4, r5, r6, pc}
 2785              	.LVL335:
 2786              	.L146:
 2787              	.LCFI17:
 2788              		.cfi_restore_state
 322:Middlewares/lvgl/src/extra/layouts/grid/lv_grid.c ****     calc(cont, &c);
 2789              		.loc 1 322 5 is_stmt 1 view .LVU924
 323:Middlewares/lvgl/src/extra/layouts/grid/lv_grid.c **** 
 2790              		.loc 1 323 5 view .LVU925
 2791 002a 03A9     		add	r1, sp, #12
 2792 002c 2846     		mov	r0, r5
 2793              	.LVL336:
 323:Middlewares/lvgl/src/extra/layouts/grid/lv_grid.c **** 
 2794              		.loc 1 323 5 is_stmt 0 view .LVU926
 2795 002e FFF7FEFF 		bl	calc
 2796              	.LVL337:
 325:Middlewares/lvgl/src/extra/layouts/grid/lv_grid.c ****     lv_memset_00(&hint, sizeof(hint));
 2797              		.loc 1 325 5 is_stmt 1 view .LVU927
 326:Middlewares/lvgl/src/extra/layouts/grid/lv_grid.c **** 
 2798              		.loc 1 326 5 view .LVU928
 2799 0032 0C21     		movs	r1, #12
 2800 0034 6846     		mov	r0, sp
 2801 0036 FFF7FEFF 		bl	lv_memset_00
 2802              	.LVL338:
 330:Middlewares/lvgl/src/extra/layouts/grid/lv_grid.c ****     lv_coord_t pad_left = lv_obj_get_style_pad_left(cont, LV_PART_MAIN) + border_widt;
 2803              		.loc 1 330 5 view .LVU929
 2804              	.LBB297:
 2805              	.LBI297:
 191:Middlewares/lvgl/src/extra/layouts/grid/../flex/../../../core/lv_obj_style_gen.h **** }
 192:Middlewares/lvgl/src/extra/layouts/grid/../flex/../../../core/lv_obj_style_gen.h **** 
 193:Middlewares/lvgl/src/extra/layouts/grid/../flex/../../../core/lv_obj_style_gen.h **** static inline lv_color_t lv_obj_get_style_bg_color(const struct _lv_obj_t * obj, uint32_t part)
 194:Middlewares/lvgl/src/extra/layouts/grid/../flex/../../../core/lv_obj_style_gen.h **** {
 195:Middlewares/lvgl/src/extra/layouts/grid/../flex/../../../core/lv_obj_style_gen.h ****     lv_style_value_t v = lv_obj_get_style_prop(obj, part, LV_STYLE_BG_COLOR);
 196:Middlewares/lvgl/src/extra/layouts/grid/../flex/../../../core/lv_obj_style_gen.h ****     return v.color;
 197:Middlewares/lvgl/src/extra/layouts/grid/../flex/../../../core/lv_obj_style_gen.h **** }
 198:Middlewares/lvgl/src/extra/layouts/grid/../flex/../../../core/lv_obj_style_gen.h **** 
 199:Middlewares/lvgl/src/extra/layouts/grid/../flex/../../../core/lv_obj_style_gen.h **** static inline lv_color_t lv_obj_get_style_bg_color_filtered(const struct _lv_obj_t * obj, uint32_t 
 200:Middlewares/lvgl/src/extra/layouts/grid/../flex/../../../core/lv_obj_style_gen.h **** {
 201:Middlewares/lvgl/src/extra/layouts/grid/../flex/../../../core/lv_obj_style_gen.h ****     lv_style_value_t v = lv_obj_get_style_prop(obj, part, LV_STYLE_BG_COLOR_FILTERED);
 202:Middlewares/lvgl/src/extra/layouts/grid/../flex/../../../core/lv_obj_style_gen.h ****     return v.color;
 203:Middlewares/lvgl/src/extra/layouts/grid/../flex/../../../core/lv_obj_style_gen.h **** }
 204:Middlewares/lvgl/src/extra/layouts/grid/../flex/../../../core/lv_obj_style_gen.h **** 
 205:Middlewares/lvgl/src/extra/layouts/grid/../flex/../../../core/lv_obj_style_gen.h **** static inline lv_opa_t lv_obj_get_style_bg_opa(const struct _lv_obj_t * obj, uint32_t part)
 206:Middlewares/lvgl/src/extra/layouts/grid/../flex/../../../core/lv_obj_style_gen.h **** {
 207:Middlewares/lvgl/src/extra/layouts/grid/../flex/../../../core/lv_obj_style_gen.h ****     lv_style_value_t v = lv_obj_get_style_prop(obj, part, LV_STYLE_BG_OPA);
 208:Middlewares/lvgl/src/extra/layouts/grid/../flex/../../../core/lv_obj_style_gen.h ****     return (lv_opa_t)v.num;
 209:Middlewares/lvgl/src/extra/layouts/grid/../flex/../../../core/lv_obj_style_gen.h **** }
 210:Middlewares/lvgl/src/extra/layouts/grid/../flex/../../../core/lv_obj_style_gen.h **** 
 211:Middlewares/lvgl/src/extra/layouts/grid/../flex/../../../core/lv_obj_style_gen.h **** static inline lv_color_t lv_obj_get_style_bg_grad_color(const struct _lv_obj_t * obj, uint32_t part
ARM GAS  /tmp/cc3I9fWq.s 			page 87


 212:Middlewares/lvgl/src/extra/layouts/grid/../flex/../../../core/lv_obj_style_gen.h **** {
 213:Middlewares/lvgl/src/extra/layouts/grid/../flex/../../../core/lv_obj_style_gen.h ****     lv_style_value_t v = lv_obj_get_style_prop(obj, part, LV_STYLE_BG_GRAD_COLOR);
 214:Middlewares/lvgl/src/extra/layouts/grid/../flex/../../../core/lv_obj_style_gen.h ****     return v.color;
 215:Middlewares/lvgl/src/extra/layouts/grid/../flex/../../../core/lv_obj_style_gen.h **** }
 216:Middlewares/lvgl/src/extra/layouts/grid/../flex/../../../core/lv_obj_style_gen.h **** 
 217:Middlewares/lvgl/src/extra/layouts/grid/../flex/../../../core/lv_obj_style_gen.h **** static inline lv_color_t lv_obj_get_style_bg_grad_color_filtered(const struct _lv_obj_t * obj, uint
 218:Middlewares/lvgl/src/extra/layouts/grid/../flex/../../../core/lv_obj_style_gen.h **** {
 219:Middlewares/lvgl/src/extra/layouts/grid/../flex/../../../core/lv_obj_style_gen.h ****     lv_style_value_t v = lv_obj_get_style_prop(obj, part, LV_STYLE_BG_GRAD_COLOR_FILTERED);
 220:Middlewares/lvgl/src/extra/layouts/grid/../flex/../../../core/lv_obj_style_gen.h ****     return v.color;
 221:Middlewares/lvgl/src/extra/layouts/grid/../flex/../../../core/lv_obj_style_gen.h **** }
 222:Middlewares/lvgl/src/extra/layouts/grid/../flex/../../../core/lv_obj_style_gen.h **** 
 223:Middlewares/lvgl/src/extra/layouts/grid/../flex/../../../core/lv_obj_style_gen.h **** static inline lv_grad_dir_t lv_obj_get_style_bg_grad_dir(const struct _lv_obj_t * obj, uint32_t par
 224:Middlewares/lvgl/src/extra/layouts/grid/../flex/../../../core/lv_obj_style_gen.h **** {
 225:Middlewares/lvgl/src/extra/layouts/grid/../flex/../../../core/lv_obj_style_gen.h ****     lv_style_value_t v = lv_obj_get_style_prop(obj, part, LV_STYLE_BG_GRAD_DIR);
 226:Middlewares/lvgl/src/extra/layouts/grid/../flex/../../../core/lv_obj_style_gen.h ****     return (lv_grad_dir_t)v.num;
 227:Middlewares/lvgl/src/extra/layouts/grid/../flex/../../../core/lv_obj_style_gen.h **** }
 228:Middlewares/lvgl/src/extra/layouts/grid/../flex/../../../core/lv_obj_style_gen.h **** 
 229:Middlewares/lvgl/src/extra/layouts/grid/../flex/../../../core/lv_obj_style_gen.h **** static inline lv_coord_t lv_obj_get_style_bg_main_stop(const struct _lv_obj_t * obj, uint32_t part)
 230:Middlewares/lvgl/src/extra/layouts/grid/../flex/../../../core/lv_obj_style_gen.h **** {
 231:Middlewares/lvgl/src/extra/layouts/grid/../flex/../../../core/lv_obj_style_gen.h ****     lv_style_value_t v = lv_obj_get_style_prop(obj, part, LV_STYLE_BG_MAIN_STOP);
 232:Middlewares/lvgl/src/extra/layouts/grid/../flex/../../../core/lv_obj_style_gen.h ****     return (lv_coord_t)v.num;
 233:Middlewares/lvgl/src/extra/layouts/grid/../flex/../../../core/lv_obj_style_gen.h **** }
 234:Middlewares/lvgl/src/extra/layouts/grid/../flex/../../../core/lv_obj_style_gen.h **** 
 235:Middlewares/lvgl/src/extra/layouts/grid/../flex/../../../core/lv_obj_style_gen.h **** static inline lv_coord_t lv_obj_get_style_bg_grad_stop(const struct _lv_obj_t * obj, uint32_t part)
 236:Middlewares/lvgl/src/extra/layouts/grid/../flex/../../../core/lv_obj_style_gen.h **** {
 237:Middlewares/lvgl/src/extra/layouts/grid/../flex/../../../core/lv_obj_style_gen.h ****     lv_style_value_t v = lv_obj_get_style_prop(obj, part, LV_STYLE_BG_GRAD_STOP);
 238:Middlewares/lvgl/src/extra/layouts/grid/../flex/../../../core/lv_obj_style_gen.h ****     return (lv_coord_t)v.num;
 239:Middlewares/lvgl/src/extra/layouts/grid/../flex/../../../core/lv_obj_style_gen.h **** }
 240:Middlewares/lvgl/src/extra/layouts/grid/../flex/../../../core/lv_obj_style_gen.h **** 
 241:Middlewares/lvgl/src/extra/layouts/grid/../flex/../../../core/lv_obj_style_gen.h **** static inline const void * lv_obj_get_style_bg_img_src(const struct _lv_obj_t * obj, uint32_t part)
 242:Middlewares/lvgl/src/extra/layouts/grid/../flex/../../../core/lv_obj_style_gen.h **** {
 243:Middlewares/lvgl/src/extra/layouts/grid/../flex/../../../core/lv_obj_style_gen.h ****     lv_style_value_t v = lv_obj_get_style_prop(obj, part, LV_STYLE_BG_IMG_SRC);
 244:Middlewares/lvgl/src/extra/layouts/grid/../flex/../../../core/lv_obj_style_gen.h ****     return (const void *)v.ptr;
 245:Middlewares/lvgl/src/extra/layouts/grid/../flex/../../../core/lv_obj_style_gen.h **** }
 246:Middlewares/lvgl/src/extra/layouts/grid/../flex/../../../core/lv_obj_style_gen.h **** 
 247:Middlewares/lvgl/src/extra/layouts/grid/../flex/../../../core/lv_obj_style_gen.h **** static inline lv_opa_t lv_obj_get_style_bg_img_opa(const struct _lv_obj_t * obj, uint32_t part)
 248:Middlewares/lvgl/src/extra/layouts/grid/../flex/../../../core/lv_obj_style_gen.h **** {
 249:Middlewares/lvgl/src/extra/layouts/grid/../flex/../../../core/lv_obj_style_gen.h ****     lv_style_value_t v = lv_obj_get_style_prop(obj, part, LV_STYLE_BG_IMG_OPA);
 250:Middlewares/lvgl/src/extra/layouts/grid/../flex/../../../core/lv_obj_style_gen.h ****     return (lv_opa_t)v.num;
 251:Middlewares/lvgl/src/extra/layouts/grid/../flex/../../../core/lv_obj_style_gen.h **** }
 252:Middlewares/lvgl/src/extra/layouts/grid/../flex/../../../core/lv_obj_style_gen.h **** 
 253:Middlewares/lvgl/src/extra/layouts/grid/../flex/../../../core/lv_obj_style_gen.h **** static inline lv_color_t lv_obj_get_style_bg_img_recolor(const struct _lv_obj_t * obj, uint32_t par
 254:Middlewares/lvgl/src/extra/layouts/grid/../flex/../../../core/lv_obj_style_gen.h **** {
 255:Middlewares/lvgl/src/extra/layouts/grid/../flex/../../../core/lv_obj_style_gen.h ****     lv_style_value_t v = lv_obj_get_style_prop(obj, part, LV_STYLE_BG_IMG_RECOLOR);
 256:Middlewares/lvgl/src/extra/layouts/grid/../flex/../../../core/lv_obj_style_gen.h ****     return v.color;
 257:Middlewares/lvgl/src/extra/layouts/grid/../flex/../../../core/lv_obj_style_gen.h **** }
 258:Middlewares/lvgl/src/extra/layouts/grid/../flex/../../../core/lv_obj_style_gen.h **** 
 259:Middlewares/lvgl/src/extra/layouts/grid/../flex/../../../core/lv_obj_style_gen.h **** static inline lv_color_t lv_obj_get_style_bg_img_recolor_filtered(const struct _lv_obj_t * obj, uin
 260:Middlewares/lvgl/src/extra/layouts/grid/../flex/../../../core/lv_obj_style_gen.h **** {
 261:Middlewares/lvgl/src/extra/layouts/grid/../flex/../../../core/lv_obj_style_gen.h ****     lv_style_value_t v = lv_obj_get_style_prop(obj, part, LV_STYLE_BG_IMG_RECOLOR_FILTERED);
 262:Middlewares/lvgl/src/extra/layouts/grid/../flex/../../../core/lv_obj_style_gen.h ****     return v.color;
 263:Middlewares/lvgl/src/extra/layouts/grid/../flex/../../../core/lv_obj_style_gen.h **** }
 264:Middlewares/lvgl/src/extra/layouts/grid/../flex/../../../core/lv_obj_style_gen.h **** 
 265:Middlewares/lvgl/src/extra/layouts/grid/../flex/../../../core/lv_obj_style_gen.h **** static inline lv_opa_t lv_obj_get_style_bg_img_recolor_opa(const struct _lv_obj_t * obj, uint32_t p
 266:Middlewares/lvgl/src/extra/layouts/grid/../flex/../../../core/lv_obj_style_gen.h **** {
 267:Middlewares/lvgl/src/extra/layouts/grid/../flex/../../../core/lv_obj_style_gen.h ****     lv_style_value_t v = lv_obj_get_style_prop(obj, part, LV_STYLE_BG_IMG_RECOLOR_OPA);
 268:Middlewares/lvgl/src/extra/layouts/grid/../flex/../../../core/lv_obj_style_gen.h ****     return (lv_opa_t)v.num;
ARM GAS  /tmp/cc3I9fWq.s 			page 88


 269:Middlewares/lvgl/src/extra/layouts/grid/../flex/../../../core/lv_obj_style_gen.h **** }
 270:Middlewares/lvgl/src/extra/layouts/grid/../flex/../../../core/lv_obj_style_gen.h **** 
 271:Middlewares/lvgl/src/extra/layouts/grid/../flex/../../../core/lv_obj_style_gen.h **** static inline bool lv_obj_get_style_bg_img_tiled(const struct _lv_obj_t * obj, uint32_t part)
 272:Middlewares/lvgl/src/extra/layouts/grid/../flex/../../../core/lv_obj_style_gen.h **** {
 273:Middlewares/lvgl/src/extra/layouts/grid/../flex/../../../core/lv_obj_style_gen.h ****     lv_style_value_t v = lv_obj_get_style_prop(obj, part, LV_STYLE_BG_IMG_TILED);
 274:Middlewares/lvgl/src/extra/layouts/grid/../flex/../../../core/lv_obj_style_gen.h ****     return (bool)v.num;
 275:Middlewares/lvgl/src/extra/layouts/grid/../flex/../../../core/lv_obj_style_gen.h **** }
 276:Middlewares/lvgl/src/extra/layouts/grid/../flex/../../../core/lv_obj_style_gen.h **** 
 277:Middlewares/lvgl/src/extra/layouts/grid/../flex/../../../core/lv_obj_style_gen.h **** static inline lv_color_t lv_obj_get_style_border_color(const struct _lv_obj_t * obj, uint32_t part)
 278:Middlewares/lvgl/src/extra/layouts/grid/../flex/../../../core/lv_obj_style_gen.h **** {
 279:Middlewares/lvgl/src/extra/layouts/grid/../flex/../../../core/lv_obj_style_gen.h ****     lv_style_value_t v = lv_obj_get_style_prop(obj, part, LV_STYLE_BORDER_COLOR);
 280:Middlewares/lvgl/src/extra/layouts/grid/../flex/../../../core/lv_obj_style_gen.h ****     return v.color;
 281:Middlewares/lvgl/src/extra/layouts/grid/../flex/../../../core/lv_obj_style_gen.h **** }
 282:Middlewares/lvgl/src/extra/layouts/grid/../flex/../../../core/lv_obj_style_gen.h **** 
 283:Middlewares/lvgl/src/extra/layouts/grid/../flex/../../../core/lv_obj_style_gen.h **** static inline lv_color_t lv_obj_get_style_border_color_filtered(const struct _lv_obj_t * obj, uint3
 284:Middlewares/lvgl/src/extra/layouts/grid/../flex/../../../core/lv_obj_style_gen.h **** {
 285:Middlewares/lvgl/src/extra/layouts/grid/../flex/../../../core/lv_obj_style_gen.h ****     lv_style_value_t v = lv_obj_get_style_prop(obj, part, LV_STYLE_BORDER_COLOR_FILTERED);
 286:Middlewares/lvgl/src/extra/layouts/grid/../flex/../../../core/lv_obj_style_gen.h ****     return v.color;
 287:Middlewares/lvgl/src/extra/layouts/grid/../flex/../../../core/lv_obj_style_gen.h **** }
 288:Middlewares/lvgl/src/extra/layouts/grid/../flex/../../../core/lv_obj_style_gen.h **** 
 289:Middlewares/lvgl/src/extra/layouts/grid/../flex/../../../core/lv_obj_style_gen.h **** static inline lv_opa_t lv_obj_get_style_border_opa(const struct _lv_obj_t * obj, uint32_t part)
 290:Middlewares/lvgl/src/extra/layouts/grid/../flex/../../../core/lv_obj_style_gen.h **** {
 291:Middlewares/lvgl/src/extra/layouts/grid/../flex/../../../core/lv_obj_style_gen.h ****     lv_style_value_t v = lv_obj_get_style_prop(obj, part, LV_STYLE_BORDER_OPA);
 292:Middlewares/lvgl/src/extra/layouts/grid/../flex/../../../core/lv_obj_style_gen.h ****     return (lv_opa_t)v.num;
 293:Middlewares/lvgl/src/extra/layouts/grid/../flex/../../../core/lv_obj_style_gen.h **** }
 294:Middlewares/lvgl/src/extra/layouts/grid/../flex/../../../core/lv_obj_style_gen.h **** 
 295:Middlewares/lvgl/src/extra/layouts/grid/../flex/../../../core/lv_obj_style_gen.h **** static inline lv_coord_t lv_obj_get_style_border_width(const struct _lv_obj_t * obj, uint32_t part)
 2806              		.loc 3 295 26 view .LVU930
 2807              	.LBB298:
 296:Middlewares/lvgl/src/extra/layouts/grid/../flex/../../../core/lv_obj_style_gen.h **** {
 297:Middlewares/lvgl/src/extra/layouts/grid/../flex/../../../core/lv_obj_style_gen.h ****     lv_style_value_t v = lv_obj_get_style_prop(obj, part, LV_STYLE_BORDER_WIDTH);
 2808              		.loc 3 297 5 view .LVU931
 2809              		.loc 3 297 26 is_stmt 0 view .LVU932
 2810 003a 41F23202 		movw	r2, #4146
 2811 003e 0021     		movs	r1, #0
 2812 0040 2846     		mov	r0, r5
 2813 0042 FFF7FEFF 		bl	lv_obj_get_style_prop
 2814              	.LVL339:
 2815 0046 0646     		mov	r6, r0
 2816              	.LVL340:
 298:Middlewares/lvgl/src/extra/layouts/grid/../flex/../../../core/lv_obj_style_gen.h ****     return (lv_coord_t)v.num;
 2817              		.loc 3 298 5 is_stmt 1 view .LVU933
 2818              		.loc 3 298 5 is_stmt 0 view .LVU934
 2819              	.LBE298:
 2820              	.LBE297:
 331:Middlewares/lvgl/src/extra/layouts/grid/lv_grid.c ****     lv_coord_t pad_top = lv_obj_get_style_pad_top(cont, LV_PART_MAIN) + border_widt;
 2821              		.loc 1 331 5 is_stmt 1 view .LVU935
 2822              	.LBB299:
 2823              	.LBI299:
 103:Middlewares/lvgl/src/extra/layouts/grid/../flex/../../../core/lv_obj_style_gen.h **** {
 2824              		.loc 3 103 26 view .LVU936
 2825              	.LBB300:
 105:Middlewares/lvgl/src/extra/layouts/grid/../flex/../../../core/lv_obj_style_gen.h ****     return (lv_coord_t)v.num;
 2826              		.loc 3 105 5 view .LVU937
 105:Middlewares/lvgl/src/extra/layouts/grid/../flex/../../../core/lv_obj_style_gen.h ****     return (lv_coord_t)v.num;
 2827              		.loc 3 105 26 is_stmt 0 view .LVU938
 2828 0048 41F21202 		movw	r2, #4114
ARM GAS  /tmp/cc3I9fWq.s 			page 89


 2829 004c 0021     		movs	r1, #0
 2830 004e 2846     		mov	r0, r5
 2831 0050 FFF7FEFF 		bl	lv_obj_get_style_prop
 2832              	.LVL341:
 106:Middlewares/lvgl/src/extra/layouts/grid/../flex/../../../core/lv_obj_style_gen.h **** }
 2833              		.loc 3 106 5 is_stmt 1 view .LVU939
 106:Middlewares/lvgl/src/extra/layouts/grid/../flex/../../../core/lv_obj_style_gen.h **** }
 2834              		.loc 3 106 5 is_stmt 0 view .LVU940
 2835              	.LBE300:
 2836              	.LBE299:
 331:Middlewares/lvgl/src/extra/layouts/grid/lv_grid.c ****     lv_coord_t pad_top = lv_obj_get_style_pad_top(cont, LV_PART_MAIN) + border_widt;
 2837              		.loc 1 331 73 view .LVU941
 2838 0054 B6B2     		uxth	r6, r6
 331:Middlewares/lvgl/src/extra/layouts/grid/lv_grid.c ****     lv_coord_t pad_top = lv_obj_get_style_pad_top(cont, LV_PART_MAIN) + border_widt;
 2839              		.loc 1 331 73 view .LVU942
 2840 0056 16FA80F4 		uxtah	r4, r6, r0
 2841              	.LVL342:
 331:Middlewares/lvgl/src/extra/layouts/grid/lv_grid.c ****     lv_coord_t pad_top = lv_obj_get_style_pad_top(cont, LV_PART_MAIN) + border_widt;
 2842              		.loc 1 331 73 view .LVU943
 2843 005a A4B2     		uxth	r4, r4
 2844              	.LVL343:
 332:Middlewares/lvgl/src/extra/layouts/grid/lv_grid.c ****     hint.grid_abs.x = pad_left + cont->coords.x1 - lv_obj_get_scroll_x(cont);
 2845              		.loc 1 332 5 is_stmt 1 view .LVU944
 2846              	.LBB301:
 2847              	.LBI301:
  91:Middlewares/lvgl/src/extra/layouts/grid/../flex/../../../core/lv_obj_style_gen.h **** {
 2848              		.loc 3 91 26 view .LVU945
 2849              	.LBB302:
  93:Middlewares/lvgl/src/extra/layouts/grid/../flex/../../../core/lv_obj_style_gen.h ****     return (lv_coord_t)v.num;
 2850              		.loc 3 93 5 view .LVU946
  93:Middlewares/lvgl/src/extra/layouts/grid/../flex/../../../core/lv_obj_style_gen.h ****     return (lv_coord_t)v.num;
 2851              		.loc 3 93 26 is_stmt 0 view .LVU947
 2852 005c 41F21002 		movw	r2, #4112
 2853 0060 0021     		movs	r1, #0
 2854 0062 2846     		mov	r0, r5
 2855 0064 FFF7FEFF 		bl	lv_obj_get_style_prop
 2856              	.LVL344:
  94:Middlewares/lvgl/src/extra/layouts/grid/../flex/../../../core/lv_obj_style_gen.h **** }
 2857              		.loc 3 94 5 is_stmt 1 view .LVU948
  94:Middlewares/lvgl/src/extra/layouts/grid/../flex/../../../core/lv_obj_style_gen.h **** }
 2858              		.loc 3 94 5 is_stmt 0 view .LVU949
 2859              	.LBE302:
 2860              	.LBE301:
 332:Middlewares/lvgl/src/extra/layouts/grid/lv_grid.c ****     hint.grid_abs.x = pad_left + cont->coords.x1 - lv_obj_get_scroll_x(cont);
 2861              		.loc 1 332 71 view .LVU950
 2862 0068 16FA80F6 		uxtah	r6, r6, r0
 2863              	.LVL345:
 332:Middlewares/lvgl/src/extra/layouts/grid/lv_grid.c ****     hint.grid_abs.x = pad_left + cont->coords.x1 - lv_obj_get_scroll_x(cont);
 2864              		.loc 1 332 71 view .LVU951
 2865 006c B6B2     		uxth	r6, r6
 2866              	.LVL346:
 333:Middlewares/lvgl/src/extra/layouts/grid/lv_grid.c ****     hint.grid_abs.y = pad_top + cont->coords.y1 - lv_obj_get_scroll_y(cont);
 2867              		.loc 1 333 5 is_stmt 1 view .LVU952
 333:Middlewares/lvgl/src/extra/layouts/grid/lv_grid.c ****     hint.grid_abs.y = pad_top + cont->coords.y1 - lv_obj_get_scroll_y(cont);
 2868              		.loc 1 333 46 is_stmt 0 view .LVU953
 2869 006e AB8A     		ldrh	r3, [r5, #20]
 333:Middlewares/lvgl/src/extra/layouts/grid/lv_grid.c ****     hint.grid_abs.y = pad_top + cont->coords.y1 - lv_obj_get_scroll_y(cont);
ARM GAS  /tmp/cc3I9fWq.s 			page 90


 2870              		.loc 1 333 32 view .LVU954
 2871 0070 1C44     		add	r4, r4, r3
 2872              	.LVL347:
 333:Middlewares/lvgl/src/extra/layouts/grid/lv_grid.c ****     hint.grid_abs.y = pad_top + cont->coords.y1 - lv_obj_get_scroll_y(cont);
 2873              		.loc 1 333 32 view .LVU955
 2874 0072 A4B2     		uxth	r4, r4
 333:Middlewares/lvgl/src/extra/layouts/grid/lv_grid.c ****     hint.grid_abs.y = pad_top + cont->coords.y1 - lv_obj_get_scroll_y(cont);
 2875              		.loc 1 333 52 view .LVU956
 2876 0074 2846     		mov	r0, r5
 2877 0076 FFF7FEFF 		bl	lv_obj_get_scroll_x
 2878              	.LVL348:
 2879 007a 80B2     		uxth	r0, r0
 333:Middlewares/lvgl/src/extra/layouts/grid/lv_grid.c ****     hint.grid_abs.y = pad_top + cont->coords.y1 - lv_obj_get_scroll_y(cont);
 2880              		.loc 1 333 50 view .LVU957
 2881 007c 241A     		subs	r4, r4, r0
 333:Middlewares/lvgl/src/extra/layouts/grid/lv_grid.c ****     hint.grid_abs.y = pad_top + cont->coords.y1 - lv_obj_get_scroll_y(cont);
 2882              		.loc 1 333 21 view .LVU958
 2883 007e ADF80840 		strh	r4, [sp, #8]	@ movhi
 334:Middlewares/lvgl/src/extra/layouts/grid/lv_grid.c **** 
 2884              		.loc 1 334 5 is_stmt 1 view .LVU959
 334:Middlewares/lvgl/src/extra/layouts/grid/lv_grid.c **** 
 2885              		.loc 1 334 45 is_stmt 0 view .LVU960
 2886 0082 EC8A     		ldrh	r4, [r5, #22]
 334:Middlewares/lvgl/src/extra/layouts/grid/lv_grid.c **** 
 2887              		.loc 1 334 31 view .LVU961
 2888 0084 3444     		add	r4, r4, r6
 2889 0086 A4B2     		uxth	r4, r4
 334:Middlewares/lvgl/src/extra/layouts/grid/lv_grid.c **** 
 2890              		.loc 1 334 51 view .LVU962
 2891 0088 2846     		mov	r0, r5
 2892 008a FFF7FEFF 		bl	lv_obj_get_scroll_y
 2893              	.LVL349:
 2894 008e 80B2     		uxth	r0, r0
 334:Middlewares/lvgl/src/extra/layouts/grid/lv_grid.c **** 
 2895              		.loc 1 334 49 view .LVU963
 2896 0090 241A     		subs	r4, r4, r0
 334:Middlewares/lvgl/src/extra/layouts/grid/lv_grid.c **** 
 2897              		.loc 1 334 21 view .LVU964
 2898 0092 ADF80A40 		strh	r4, [sp, #10]	@ movhi
 336:Middlewares/lvgl/src/extra/layouts/grid/lv_grid.c ****     for(i = 0; i < cont->spec_attr->child_cnt; i++) {
 2899              		.loc 1 336 5 is_stmt 1 view .LVU965
 337:Middlewares/lvgl/src/extra/layouts/grid/lv_grid.c ****         lv_obj_t * item = cont->spec_attr->children[i];
 2900              		.loc 1 337 5 view .LVU966
 2901              	.LVL350:
 337:Middlewares/lvgl/src/extra/layouts/grid/lv_grid.c ****         lv_obj_t * item = cont->spec_attr->children[i];
 2902              		.loc 1 337 11 is_stmt 0 view .LVU967
 2903 0096 0024     		movs	r4, #0
 337:Middlewares/lvgl/src/extra/layouts/grid/lv_grid.c ****         lv_obj_t * item = cont->spec_attr->children[i];
 2904              		.loc 1 337 5 view .LVU968
 2905 0098 07E0     		b	.L142
 2906              	.LVL351:
 2907              	.L143:
 2908              	.LBB303:
 338:Middlewares/lvgl/src/extra/layouts/grid/lv_grid.c ****         item_repos(item, &c, &hint);
 2909              		.loc 1 338 9 is_stmt 1 discriminator 3 view .LVU969
 338:Middlewares/lvgl/src/extra/layouts/grid/lv_grid.c ****         item_repos(item, &c, &hint);
 2910              		.loc 1 338 42 is_stmt 0 discriminator 3 view .LVU970
ARM GAS  /tmp/cc3I9fWq.s 			page 91


 2911 009a 1B68     		ldr	r3, [r3]
 2912              	.LVL352:
 339:Middlewares/lvgl/src/extra/layouts/grid/lv_grid.c ****     }
 2913              		.loc 1 339 9 is_stmt 1 discriminator 3 view .LVU971
 2914 009c 6A46     		mov	r2, sp
 2915 009e 03A9     		add	r1, sp, #12
 2916 00a0 53F82400 		ldr	r0, [r3, r4, lsl #2]
 2917 00a4 FFF7FEFF 		bl	item_repos
 2918              	.LVL353:
 339:Middlewares/lvgl/src/extra/layouts/grid/lv_grid.c ****     }
 2919              		.loc 1 339 9 is_stmt 0 discriminator 3 view .LVU972
 2920              	.LBE303:
 337:Middlewares/lvgl/src/extra/layouts/grid/lv_grid.c ****         lv_obj_t * item = cont->spec_attr->children[i];
 2921              		.loc 1 337 48 is_stmt 1 discriminator 3 view .LVU973
 337:Middlewares/lvgl/src/extra/layouts/grid/lv_grid.c ****         lv_obj_t * item = cont->spec_attr->children[i];
 2922              		.loc 1 337 49 is_stmt 0 discriminator 3 view .LVU974
 2923 00a8 0134     		adds	r4, r4, #1
 2924              	.LVL354:
 2925              	.L142:
 337:Middlewares/lvgl/src/extra/layouts/grid/lv_grid.c ****         lv_obj_t * item = cont->spec_attr->children[i];
 2926              		.loc 1 337 16 is_stmt 1 discriminator 1 view .LVU975
 337:Middlewares/lvgl/src/extra/layouts/grid/lv_grid.c ****         lv_obj_t * item = cont->spec_attr->children[i];
 2927              		.loc 1 337 24 is_stmt 0 discriminator 1 view .LVU976
 2928 00aa AB68     		ldr	r3, [r5, #8]
 337:Middlewares/lvgl/src/extra/layouts/grid/lv_grid.c ****         lv_obj_t * item = cont->spec_attr->children[i];
 2929              		.loc 1 337 35 discriminator 1 view .LVU977
 2930 00ac 5A68     		ldr	r2, [r3, #4]
 337:Middlewares/lvgl/src/extra/layouts/grid/lv_grid.c ****         lv_obj_t * item = cont->spec_attr->children[i];
 2931              		.loc 1 337 5 discriminator 1 view .LVU978
 2932 00ae A242     		cmp	r2, r4
 2933 00b0 F3D8     		bhi	.L143
 341:Middlewares/lvgl/src/extra/layouts/grid/lv_grid.c **** 
 2934              		.loc 1 341 5 is_stmt 1 view .LVU979
 2935 00b2 03A8     		add	r0, sp, #12
 2936 00b4 FFF7FEFF 		bl	calc_free
 2937              	.LVL355:
 343:Middlewares/lvgl/src/extra/layouts/grid/lv_grid.c ****     lv_coord_t h_set = lv_obj_get_style_height(cont, LV_PART_MAIN);
 2938              		.loc 1 343 5 view .LVU980
 2939              	.LBB304:
 2940              	.LBI304:
   1:Middlewares/lvgl/src/extra/layouts/grid/../flex/../../../core/lv_obj_style_gen.h **** {
 2941              		.loc 3 1 26 view .LVU981
 2942              	.LBB305:
   3:Middlewares/lvgl/src/extra/layouts/grid/../flex/../../../core/lv_obj_style_gen.h ****     return (lv_coord_t)v.num;
 2943              		.loc 3 3 5 view .LVU982
   3:Middlewares/lvgl/src/extra/layouts/grid/../flex/../../../core/lv_obj_style_gen.h ****     return (lv_coord_t)v.num;
 2944              		.loc 3 3 26 is_stmt 0 view .LVU983
 2945 00b8 41F20102 		movw	r2, #4097
 2946 00bc 0021     		movs	r1, #0
 2947 00be 2846     		mov	r0, r5
 2948 00c0 FFF7FEFF 		bl	lv_obj_get_style_prop
 2949              	.LVL356:
   4:Middlewares/lvgl/src/extra/layouts/grid/../flex/../../../core/lv_obj_style_gen.h **** }
 2950              		.loc 3 4 5 is_stmt 1 view .LVU984
   4:Middlewares/lvgl/src/extra/layouts/grid/../flex/../../../core/lv_obj_style_gen.h **** }
 2951              		.loc 3 4 12 is_stmt 0 view .LVU985
 2952 00c4 04B2     		sxth	r4, r0
ARM GAS  /tmp/cc3I9fWq.s 			page 92


 2953              	.LVL357:
   4:Middlewares/lvgl/src/extra/layouts/grid/../flex/../../../core/lv_obj_style_gen.h **** }
 2954              		.loc 3 4 12 view .LVU986
 2955              	.LBE305:
 2956              	.LBE304:
 344:Middlewares/lvgl/src/extra/layouts/grid/lv_grid.c ****     if(w_set == LV_SIZE_CONTENT || h_set == LV_SIZE_CONTENT) {
 2957              		.loc 1 344 5 is_stmt 1 view .LVU987
 2958              	.LBB306:
 2959              	.LBI306:
  19:Middlewares/lvgl/src/extra/layouts/grid/../flex/../../../core/lv_obj_style_gen.h **** {
 2960              		.loc 3 19 26 view .LVU988
 2961              	.LBB307:
  21:Middlewares/lvgl/src/extra/layouts/grid/../flex/../../../core/lv_obj_style_gen.h ****     return (lv_coord_t)v.num;
 2962              		.loc 3 21 5 view .LVU989
  21:Middlewares/lvgl/src/extra/layouts/grid/../flex/../../../core/lv_obj_style_gen.h ****     return (lv_coord_t)v.num;
 2963              		.loc 3 21 26 is_stmt 0 view .LVU990
 2964 00c6 41F20402 		movw	r2, #4100
 2965 00ca 0021     		movs	r1, #0
 2966 00cc 2846     		mov	r0, r5
 2967 00ce FFF7FEFF 		bl	lv_obj_get_style_prop
 2968              	.LVL358:
  22:Middlewares/lvgl/src/extra/layouts/grid/../flex/../../../core/lv_obj_style_gen.h **** }
 2969              		.loc 3 22 5 is_stmt 1 view .LVU991
  22:Middlewares/lvgl/src/extra/layouts/grid/../flex/../../../core/lv_obj_style_gen.h **** }
 2970              		.loc 3 22 12 is_stmt 0 view .LVU992
 2971 00d2 00B2     		sxth	r0, r0
 2972              	.LVL359:
  22:Middlewares/lvgl/src/extra/layouts/grid/../flex/../../../core/lv_obj_style_gen.h **** }
 2973              		.loc 3 22 12 view .LVU993
 2974              	.LBE307:
 2975              	.LBE306:
 345:Middlewares/lvgl/src/extra/layouts/grid/lv_grid.c ****         lv_obj_refr_size(cont);
 2976              		.loc 1 345 5 is_stmt 1 view .LVU994
 345:Middlewares/lvgl/src/extra/layouts/grid/lv_grid.c ****         lv_obj_refr_size(cont);
 2977              		.loc 1 345 14 is_stmt 0 view .LVU995
 2978 00d4 42F2D173 		movw	r3, #10193
 345:Middlewares/lvgl/src/extra/layouts/grid/lv_grid.c ****         lv_obj_refr_size(cont);
 2979              		.loc 1 345 7 view .LVU996
 2980 00d8 9842     		cmp	r0, r3
 2981 00da 18BF     		it	ne
 2982 00dc 9C42     		cmpne	r4, r3
 2983 00de 05D0     		beq	.L147
 2984              	.LVL360:
 2985              	.L144:
 349:Middlewares/lvgl/src/extra/layouts/grid/lv_grid.c **** 
 2986              		.loc 1 349 5 is_stmt 1 view .LVU997
 2987 00e0 0022     		movs	r2, #0
 2988 00e2 2521     		movs	r1, #37
 2989 00e4 2846     		mov	r0, r5
 2990 00e6 FFF7FEFF 		bl	lv_event_send
 2991              	.LVL361:
 351:Middlewares/lvgl/src/extra/layouts/grid/lv_grid.c **** }
 2992              		.loc 1 351 32 view .LVU998
 2993 00ea 9CE7     		b	.L139
 2994              	.LVL362:
 2995              	.L147:
 346:Middlewares/lvgl/src/extra/layouts/grid/lv_grid.c ****     }
ARM GAS  /tmp/cc3I9fWq.s 			page 93


 2996              		.loc 1 346 9 view .LVU999
 2997 00ec 2846     		mov	r0, r5
 2998              	.LVL363:
 346:Middlewares/lvgl/src/extra/layouts/grid/lv_grid.c ****     }
 2999              		.loc 1 346 9 is_stmt 0 view .LVU1000
 3000 00ee FFF7FEFF 		bl	lv_obj_refr_size
 3001              	.LVL364:
 3002 00f2 F5E7     		b	.L144
 3003              	.L149:
 3004              		.align	2
 3005              	.L148:
 3006 00f4 00000000 		.word	.LANCHOR7
 3007 00f8 00000000 		.word	.LANCHOR6
 3008              		.cfi_endproc
 3009              	.LFE197:
 3011              		.section	.text.lv_grid_init,"ax",%progbits
 3012              		.align	1
 3013              		.global	lv_grid_init
 3014              		.syntax unified
 3015              		.thumb
 3016              		.thumb_func
 3018              	lv_grid_init:
 3019              	.LFB173:
 100:Middlewares/lvgl/src/extra/layouts/grid/lv_grid.c ****     LV_LAYOUT_GRID = lv_layout_register(grid_update, NULL);
 3020              		.loc 1 100 1 is_stmt 1 view -0
 3021              		.cfi_startproc
 3022              		@ args = 0, pretend = 0, frame = 0
 3023              		@ frame_needed = 0, uses_anonymous_args = 0
 3024 0000 08B5     		push	{r3, lr}
 3025              	.LCFI18:
 3026              		.cfi_def_cfa_offset 8
 3027              		.cfi_offset 3, -8
 3028              		.cfi_offset 14, -4
 101:Middlewares/lvgl/src/extra/layouts/grid/lv_grid.c **** 
 3029              		.loc 1 101 5 view .LVU1002
 101:Middlewares/lvgl/src/extra/layouts/grid/lv_grid.c **** 
 3030              		.loc 1 101 22 is_stmt 0 view .LVU1003
 3031 0002 0021     		movs	r1, #0
 3032 0004 2048     		ldr	r0, .L152
 3033 0006 FFF7FEFF 		bl	lv_layout_register
 3034              	.LVL365:
 101:Middlewares/lvgl/src/extra/layouts/grid/lv_grid.c **** 
 3035              		.loc 1 101 20 view .LVU1004
 3036 000a 204B     		ldr	r3, .L152+4
 3037 000c 1860     		str	r0, [r3]
 103:Middlewares/lvgl/src/extra/layouts/grid/lv_grid.c ****     LV_STYLE_GRID_ROW_DSC_ARRAY = lv_style_register_prop() | LV_STYLE_PROP_LAYOUT_REFR;
 3038              		.loc 1 103 5 is_stmt 1 view .LVU1005
 103:Middlewares/lvgl/src/extra/layouts/grid/lv_grid.c ****     LV_STYLE_GRID_ROW_DSC_ARRAY = lv_style_register_prop() | LV_STYLE_PROP_LAYOUT_REFR;
 3039              		.loc 1 103 38 is_stmt 0 view .LVU1006
 3040 000e FFF7FEFF 		bl	lv_style_register_prop
 3041              	.LVL366:
 103:Middlewares/lvgl/src/extra/layouts/grid/lv_grid.c ****     LV_STYLE_GRID_ROW_DSC_ARRAY = lv_style_register_prop() | LV_STYLE_PROP_LAYOUT_REFR;
 3042              		.loc 1 103 36 view .LVU1007
 3043 0012 40F48050 		orr	r0, r0, #4096
 3044 0016 1E4B     		ldr	r3, .L152+8
 3045 0018 1880     		strh	r0, [r3]	@ movhi
 104:Middlewares/lvgl/src/extra/layouts/grid/lv_grid.c ****     LV_STYLE_GRID_COLUMN_ALIGN = lv_style_register_prop() | LV_STYLE_PROP_LAYOUT_REFR;
ARM GAS  /tmp/cc3I9fWq.s 			page 94


 3046              		.loc 1 104 5 is_stmt 1 view .LVU1008
 104:Middlewares/lvgl/src/extra/layouts/grid/lv_grid.c ****     LV_STYLE_GRID_COLUMN_ALIGN = lv_style_register_prop() | LV_STYLE_PROP_LAYOUT_REFR;
 3047              		.loc 1 104 35 is_stmt 0 view .LVU1009
 3048 001a FFF7FEFF 		bl	lv_style_register_prop
 3049              	.LVL367:
 104:Middlewares/lvgl/src/extra/layouts/grid/lv_grid.c ****     LV_STYLE_GRID_COLUMN_ALIGN = lv_style_register_prop() | LV_STYLE_PROP_LAYOUT_REFR;
 3050              		.loc 1 104 33 view .LVU1010
 3051 001e 40F48050 		orr	r0, r0, #4096
 3052 0022 1C4B     		ldr	r3, .L152+12
 3053 0024 1880     		strh	r0, [r3]	@ movhi
 105:Middlewares/lvgl/src/extra/layouts/grid/lv_grid.c ****     LV_STYLE_GRID_ROW_ALIGN = lv_style_register_prop() | LV_STYLE_PROP_LAYOUT_REFR;
 3054              		.loc 1 105 5 is_stmt 1 view .LVU1011
 105:Middlewares/lvgl/src/extra/layouts/grid/lv_grid.c ****     LV_STYLE_GRID_ROW_ALIGN = lv_style_register_prop() | LV_STYLE_PROP_LAYOUT_REFR;
 3055              		.loc 1 105 34 is_stmt 0 view .LVU1012
 3056 0026 FFF7FEFF 		bl	lv_style_register_prop
 3057              	.LVL368:
 105:Middlewares/lvgl/src/extra/layouts/grid/lv_grid.c ****     LV_STYLE_GRID_ROW_ALIGN = lv_style_register_prop() | LV_STYLE_PROP_LAYOUT_REFR;
 3058              		.loc 1 105 32 view .LVU1013
 3059 002a 40F48050 		orr	r0, r0, #4096
 3060 002e 1A4B     		ldr	r3, .L152+16
 3061 0030 1880     		strh	r0, [r3]	@ movhi
 106:Middlewares/lvgl/src/extra/layouts/grid/lv_grid.c **** 
 3062              		.loc 1 106 5 is_stmt 1 view .LVU1014
 106:Middlewares/lvgl/src/extra/layouts/grid/lv_grid.c **** 
 3063              		.loc 1 106 31 is_stmt 0 view .LVU1015
 3064 0032 FFF7FEFF 		bl	lv_style_register_prop
 3065              	.LVL369:
 106:Middlewares/lvgl/src/extra/layouts/grid/lv_grid.c **** 
 3066              		.loc 1 106 29 view .LVU1016
 3067 0036 40F48050 		orr	r0, r0, #4096
 3068 003a 184B     		ldr	r3, .L152+20
 3069 003c 1880     		strh	r0, [r3]	@ movhi
 108:Middlewares/lvgl/src/extra/layouts/grid/lv_grid.c ****     LV_STYLE_GRID_CELL_ROW_POS = lv_style_register_prop() | LV_STYLE_PROP_LAYOUT_REFR;
 3070              		.loc 1 108 5 is_stmt 1 view .LVU1017
 108:Middlewares/lvgl/src/extra/layouts/grid/lv_grid.c ****     LV_STYLE_GRID_CELL_ROW_POS = lv_style_register_prop() | LV_STYLE_PROP_LAYOUT_REFR;
 3071              		.loc 1 108 35 is_stmt 0 view .LVU1018
 3072 003e FFF7FEFF 		bl	lv_style_register_prop
 3073              	.LVL370:
 108:Middlewares/lvgl/src/extra/layouts/grid/lv_grid.c ****     LV_STYLE_GRID_CELL_ROW_POS = lv_style_register_prop() | LV_STYLE_PROP_LAYOUT_REFR;
 3074              		.loc 1 108 33 view .LVU1019
 3075 0042 40F48050 		orr	r0, r0, #4096
 3076 0046 164B     		ldr	r3, .L152+24
 3077 0048 1880     		strh	r0, [r3]	@ movhi
 109:Middlewares/lvgl/src/extra/layouts/grid/lv_grid.c ****     LV_STYLE_GRID_CELL_COLUMN_SPAN = lv_style_register_prop() | LV_STYLE_PROP_LAYOUT_REFR;
 3078              		.loc 1 109 5 is_stmt 1 view .LVU1020
 109:Middlewares/lvgl/src/extra/layouts/grid/lv_grid.c ****     LV_STYLE_GRID_CELL_COLUMN_SPAN = lv_style_register_prop() | LV_STYLE_PROP_LAYOUT_REFR;
 3079              		.loc 1 109 34 is_stmt 0 view .LVU1021
 3080 004a FFF7FEFF 		bl	lv_style_register_prop
 3081              	.LVL371:
 109:Middlewares/lvgl/src/extra/layouts/grid/lv_grid.c ****     LV_STYLE_GRID_CELL_COLUMN_SPAN = lv_style_register_prop() | LV_STYLE_PROP_LAYOUT_REFR;
 3082              		.loc 1 109 32 view .LVU1022
 3083 004e 40F48050 		orr	r0, r0, #4096
 3084 0052 144B     		ldr	r3, .L152+28
 3085 0054 1880     		strh	r0, [r3]	@ movhi
 110:Middlewares/lvgl/src/extra/layouts/grid/lv_grid.c ****     LV_STYLE_GRID_CELL_COLUMN_POS = lv_style_register_prop() | LV_STYLE_PROP_LAYOUT_REFR;
 3086              		.loc 1 110 5 is_stmt 1 view .LVU1023
 110:Middlewares/lvgl/src/extra/layouts/grid/lv_grid.c ****     LV_STYLE_GRID_CELL_COLUMN_POS = lv_style_register_prop() | LV_STYLE_PROP_LAYOUT_REFR;
ARM GAS  /tmp/cc3I9fWq.s 			page 95


 3087              		.loc 1 110 38 is_stmt 0 view .LVU1024
 3088 0056 FFF7FEFF 		bl	lv_style_register_prop
 3089              	.LVL372:
 110:Middlewares/lvgl/src/extra/layouts/grid/lv_grid.c ****     LV_STYLE_GRID_CELL_COLUMN_POS = lv_style_register_prop() | LV_STYLE_PROP_LAYOUT_REFR;
 3090              		.loc 1 110 36 view .LVU1025
 3091 005a 40F48050 		orr	r0, r0, #4096
 3092 005e 124B     		ldr	r3, .L152+32
 3093 0060 1880     		strh	r0, [r3]	@ movhi
 111:Middlewares/lvgl/src/extra/layouts/grid/lv_grid.c ****     LV_STYLE_GRID_CELL_X_ALIGN = lv_style_register_prop() | LV_STYLE_PROP_LAYOUT_REFR;
 3094              		.loc 1 111 5 is_stmt 1 view .LVU1026
 111:Middlewares/lvgl/src/extra/layouts/grid/lv_grid.c ****     LV_STYLE_GRID_CELL_X_ALIGN = lv_style_register_prop() | LV_STYLE_PROP_LAYOUT_REFR;
 3095              		.loc 1 111 37 is_stmt 0 view .LVU1027
 3096 0062 FFF7FEFF 		bl	lv_style_register_prop
 3097              	.LVL373:
 111:Middlewares/lvgl/src/extra/layouts/grid/lv_grid.c ****     LV_STYLE_GRID_CELL_X_ALIGN = lv_style_register_prop() | LV_STYLE_PROP_LAYOUT_REFR;
 3098              		.loc 1 111 35 view .LVU1028
 3099 0066 40F48050 		orr	r0, r0, #4096
 3100 006a 104B     		ldr	r3, .L152+36
 3101 006c 1880     		strh	r0, [r3]	@ movhi
 112:Middlewares/lvgl/src/extra/layouts/grid/lv_grid.c ****     LV_STYLE_GRID_CELL_Y_ALIGN = lv_style_register_prop() | LV_STYLE_PROP_LAYOUT_REFR;
 3102              		.loc 1 112 5 is_stmt 1 view .LVU1029
 112:Middlewares/lvgl/src/extra/layouts/grid/lv_grid.c ****     LV_STYLE_GRID_CELL_Y_ALIGN = lv_style_register_prop() | LV_STYLE_PROP_LAYOUT_REFR;
 3103              		.loc 1 112 34 is_stmt 0 view .LVU1030
 3104 006e FFF7FEFF 		bl	lv_style_register_prop
 3105              	.LVL374:
 112:Middlewares/lvgl/src/extra/layouts/grid/lv_grid.c ****     LV_STYLE_GRID_CELL_Y_ALIGN = lv_style_register_prop() | LV_STYLE_PROP_LAYOUT_REFR;
 3106              		.loc 1 112 32 view .LVU1031
 3107 0072 40F48050 		orr	r0, r0, #4096
 3108 0076 0E4B     		ldr	r3, .L152+40
 3109 0078 1880     		strh	r0, [r3]	@ movhi
 113:Middlewares/lvgl/src/extra/layouts/grid/lv_grid.c **** }
 3110              		.loc 1 113 5 is_stmt 1 view .LVU1032
 113:Middlewares/lvgl/src/extra/layouts/grid/lv_grid.c **** }
 3111              		.loc 1 113 34 is_stmt 0 view .LVU1033
 3112 007a FFF7FEFF 		bl	lv_style_register_prop
 3113              	.LVL375:
 113:Middlewares/lvgl/src/extra/layouts/grid/lv_grid.c **** }
 3114              		.loc 1 113 32 view .LVU1034
 3115 007e 40F48050 		orr	r0, r0, #4096
 3116 0082 0C4B     		ldr	r3, .L152+44
 3117 0084 1880     		strh	r0, [r3]	@ movhi
 114:Middlewares/lvgl/src/extra/layouts/grid/lv_grid.c **** 
 3118              		.loc 1 114 1 view .LVU1035
 3119 0086 08BD     		pop	{r3, pc}
 3120              	.L153:
 3121              		.align	2
 3122              	.L152:
 3123 0088 00000000 		.word	grid_update
 3124 008c 00000000 		.word	.LANCHOR10
 3125 0090 00000000 		.word	.LANCHOR7
 3126 0094 00000000 		.word	.LANCHOR6
 3127 0098 00000000 		.word	.LANCHOR8
 3128 009c 00000000 		.word	.LANCHOR9
 3129 00a0 00000000 		.word	.LANCHOR1
 3130 00a4 00000000 		.word	.LANCHOR3
 3131 00a8 00000000 		.word	.LANCHOR0
 3132 00ac 00000000 		.word	.LANCHOR2
ARM GAS  /tmp/cc3I9fWq.s 			page 96


 3133 00b0 00000000 		.word	.LANCHOR4
 3134 00b4 00000000 		.word	.LANCHOR5
 3135              		.cfi_endproc
 3136              	.LFE173:
 3138              		.section	.text.lv_style_set_grid_row_dsc_array,"ax",%progbits
 3139              		.align	1
 3140              		.global	lv_style_set_grid_row_dsc_array
 3141              		.syntax unified
 3142              		.thumb
 3143              		.thumb_func
 3145              	lv_style_set_grid_row_dsc_array:
 3146              	.LVL376:
 3147              	.LFB177:
 146:Middlewares/lvgl/src/extra/layouts/grid/lv_grid.c ****     lv_style_value_t v = {
 3148              		.loc 1 146 1 is_stmt 1 view -0
 3149              		.cfi_startproc
 3150              		@ args = 0, pretend = 0, frame = 0
 3151              		@ frame_needed = 0, uses_anonymous_args = 0
 146:Middlewares/lvgl/src/extra/layouts/grid/lv_grid.c ****     lv_style_value_t v = {
 3152              		.loc 1 146 1 is_stmt 0 view .LVU1037
 3153 0000 08B5     		push	{r3, lr}
 3154              	.LCFI19:
 3155              		.cfi_def_cfa_offset 8
 3156              		.cfi_offset 3, -8
 3157              		.cfi_offset 14, -4
 3158 0002 0A46     		mov	r2, r1
 147:Middlewares/lvgl/src/extra/layouts/grid/lv_grid.c ****         .ptr = (const void *)value
 3159              		.loc 1 147 5 is_stmt 1 view .LVU1038
 150:Middlewares/lvgl/src/extra/layouts/grid/lv_grid.c **** }
 3160              		.loc 1 150 5 view .LVU1039
 3161 0004 024B     		ldr	r3, .L156
 3162 0006 1988     		ldrh	r1, [r3]
 3163              	.LVL377:
 150:Middlewares/lvgl/src/extra/layouts/grid/lv_grid.c **** }
 3164              		.loc 1 150 5 is_stmt 0 view .LVU1040
 3165 0008 FFF7FEFF 		bl	lv_style_set_prop
 3166              	.LVL378:
 151:Middlewares/lvgl/src/extra/layouts/grid/lv_grid.c **** 
 3167              		.loc 1 151 1 view .LVU1041
 3168 000c 08BD     		pop	{r3, pc}
 3169              	.L157:
 3170 000e 00BF     		.align	2
 3171              	.L156:
 3172 0010 00000000 		.word	.LANCHOR6
 3173              		.cfi_endproc
 3174              	.LFE177:
 3176              		.section	.text.lv_style_set_grid_column_dsc_array,"ax",%progbits
 3177              		.align	1
 3178              		.global	lv_style_set_grid_column_dsc_array
 3179              		.syntax unified
 3180              		.thumb
 3181              		.thumb_func
 3183              	lv_style_set_grid_column_dsc_array:
 3184              	.LVL379:
 3185              	.LFB178:
 154:Middlewares/lvgl/src/extra/layouts/grid/lv_grid.c ****     lv_style_value_t v = {
 3186              		.loc 1 154 1 is_stmt 1 view -0
ARM GAS  /tmp/cc3I9fWq.s 			page 97


 3187              		.cfi_startproc
 3188              		@ args = 0, pretend = 0, frame = 0
 3189              		@ frame_needed = 0, uses_anonymous_args = 0
 154:Middlewares/lvgl/src/extra/layouts/grid/lv_grid.c ****     lv_style_value_t v = {
 3190              		.loc 1 154 1 is_stmt 0 view .LVU1043
 3191 0000 08B5     		push	{r3, lr}
 3192              	.LCFI20:
 3193              		.cfi_def_cfa_offset 8
 3194              		.cfi_offset 3, -8
 3195              		.cfi_offset 14, -4
 3196 0002 0A46     		mov	r2, r1
 155:Middlewares/lvgl/src/extra/layouts/grid/lv_grid.c ****         .ptr = (const void *)value
 3197              		.loc 1 155 5 is_stmt 1 view .LVU1044
 158:Middlewares/lvgl/src/extra/layouts/grid/lv_grid.c **** }
 3198              		.loc 1 158 5 view .LVU1045
 3199 0004 024B     		ldr	r3, .L160
 3200 0006 1988     		ldrh	r1, [r3]
 3201              	.LVL380:
 158:Middlewares/lvgl/src/extra/layouts/grid/lv_grid.c **** }
 3202              		.loc 1 158 5 is_stmt 0 view .LVU1046
 3203 0008 FFF7FEFF 		bl	lv_style_set_prop
 3204              	.LVL381:
 159:Middlewares/lvgl/src/extra/layouts/grid/lv_grid.c **** 
 3205              		.loc 1 159 1 view .LVU1047
 3206 000c 08BD     		pop	{r3, pc}
 3207              	.L161:
 3208 000e 00BF     		.align	2
 3209              	.L160:
 3210 0010 00000000 		.word	.LANCHOR7
 3211              		.cfi_endproc
 3212              	.LFE178:
 3214              		.section	.text.lv_style_set_grid_row_align,"ax",%progbits
 3215              		.align	1
 3216              		.global	lv_style_set_grid_row_align
 3217              		.syntax unified
 3218              		.thumb
 3219              		.thumb_func
 3221              	lv_style_set_grid_row_align:
 3222              	.LVL382:
 3223              	.LFB179:
 162:Middlewares/lvgl/src/extra/layouts/grid/lv_grid.c ****     lv_style_value_t v = {
 3224              		.loc 1 162 1 is_stmt 1 view -0
 3225              		.cfi_startproc
 3226              		@ args = 0, pretend = 0, frame = 0
 3227              		@ frame_needed = 0, uses_anonymous_args = 0
 162:Middlewares/lvgl/src/extra/layouts/grid/lv_grid.c ****     lv_style_value_t v = {
 3228              		.loc 1 162 1 is_stmt 0 view .LVU1049
 3229 0000 08B5     		push	{r3, lr}
 3230              	.LCFI21:
 3231              		.cfi_def_cfa_offset 8
 3232              		.cfi_offset 3, -8
 3233              		.cfi_offset 14, -4
 3234 0002 0A46     		mov	r2, r1
 163:Middlewares/lvgl/src/extra/layouts/grid/lv_grid.c ****         .num = (lv_grid_align_t)value
 3235              		.loc 1 163 5 is_stmt 1 view .LVU1050
 166:Middlewares/lvgl/src/extra/layouts/grid/lv_grid.c **** }
 3236              		.loc 1 166 5 view .LVU1051
ARM GAS  /tmp/cc3I9fWq.s 			page 98


 3237 0004 024B     		ldr	r3, .L164
 3238 0006 1988     		ldrh	r1, [r3]
 3239              	.LVL383:
 166:Middlewares/lvgl/src/extra/layouts/grid/lv_grid.c **** }
 3240              		.loc 1 166 5 is_stmt 0 view .LVU1052
 3241 0008 FFF7FEFF 		bl	lv_style_set_prop
 3242              	.LVL384:
 167:Middlewares/lvgl/src/extra/layouts/grid/lv_grid.c **** 
 3243              		.loc 1 167 1 view .LVU1053
 3244 000c 08BD     		pop	{r3, pc}
 3245              	.L165:
 3246 000e 00BF     		.align	2
 3247              	.L164:
 3248 0010 00000000 		.word	.LANCHOR9
 3249              		.cfi_endproc
 3250              	.LFE179:
 3252              		.section	.text.lv_style_set_grid_column_align,"ax",%progbits
 3253              		.align	1
 3254              		.global	lv_style_set_grid_column_align
 3255              		.syntax unified
 3256              		.thumb
 3257              		.thumb_func
 3259              	lv_style_set_grid_column_align:
 3260              	.LVL385:
 3261              	.LFB180:
 170:Middlewares/lvgl/src/extra/layouts/grid/lv_grid.c ****     lv_style_value_t v = {
 3262              		.loc 1 170 1 is_stmt 1 view -0
 3263              		.cfi_startproc
 3264              		@ args = 0, pretend = 0, frame = 0
 3265              		@ frame_needed = 0, uses_anonymous_args = 0
 170:Middlewares/lvgl/src/extra/layouts/grid/lv_grid.c ****     lv_style_value_t v = {
 3266              		.loc 1 170 1 is_stmt 0 view .LVU1055
 3267 0000 08B5     		push	{r3, lr}
 3268              	.LCFI22:
 3269              		.cfi_def_cfa_offset 8
 3270              		.cfi_offset 3, -8
 3271              		.cfi_offset 14, -4
 3272 0002 0A46     		mov	r2, r1
 171:Middlewares/lvgl/src/extra/layouts/grid/lv_grid.c ****         .num = (lv_grid_align_t)value
 3273              		.loc 1 171 5 is_stmt 1 view .LVU1056
 174:Middlewares/lvgl/src/extra/layouts/grid/lv_grid.c **** }
 3274              		.loc 1 174 5 view .LVU1057
 3275 0004 024B     		ldr	r3, .L168
 3276 0006 1988     		ldrh	r1, [r3]
 3277              	.LVL386:
 174:Middlewares/lvgl/src/extra/layouts/grid/lv_grid.c **** }
 3278              		.loc 1 174 5 is_stmt 0 view .LVU1058
 3279 0008 FFF7FEFF 		bl	lv_style_set_prop
 3280              	.LVL387:
 175:Middlewares/lvgl/src/extra/layouts/grid/lv_grid.c **** 
 3281              		.loc 1 175 1 view .LVU1059
 3282 000c 08BD     		pop	{r3, pc}
 3283              	.L169:
 3284 000e 00BF     		.align	2
 3285              	.L168:
 3286 0010 00000000 		.word	.LANCHOR8
 3287              		.cfi_endproc
ARM GAS  /tmp/cc3I9fWq.s 			page 99


 3288              	.LFE180:
 3290              		.section	.text.lv_style_set_grid_cell_column_pos,"ax",%progbits
 3291              		.align	1
 3292              		.global	lv_style_set_grid_cell_column_pos
 3293              		.syntax unified
 3294              		.thumb
 3295              		.thumb_func
 3297              	lv_style_set_grid_cell_column_pos:
 3298              	.LVL388:
 3299              	.LFB181:
 179:Middlewares/lvgl/src/extra/layouts/grid/lv_grid.c ****     lv_style_value_t v = {
 3300              		.loc 1 179 1 is_stmt 1 view -0
 3301              		.cfi_startproc
 3302              		@ args = 0, pretend = 0, frame = 0
 3303              		@ frame_needed = 0, uses_anonymous_args = 0
 179:Middlewares/lvgl/src/extra/layouts/grid/lv_grid.c ****     lv_style_value_t v = {
 3304              		.loc 1 179 1 is_stmt 0 view .LVU1061
 3305 0000 08B5     		push	{r3, lr}
 3306              	.LCFI23:
 3307              		.cfi_def_cfa_offset 8
 3308              		.cfi_offset 3, -8
 3309              		.cfi_offset 14, -4
 3310 0002 0A46     		mov	r2, r1
 180:Middlewares/lvgl/src/extra/layouts/grid/lv_grid.c ****         .num = value
 3311              		.loc 1 180 5 is_stmt 1 view .LVU1062
 183:Middlewares/lvgl/src/extra/layouts/grid/lv_grid.c **** }
 3312              		.loc 1 183 5 view .LVU1063
 3313 0004 024B     		ldr	r3, .L172
 3314 0006 1988     		ldrh	r1, [r3]
 3315              	.LVL389:
 183:Middlewares/lvgl/src/extra/layouts/grid/lv_grid.c **** }
 3316              		.loc 1 183 5 is_stmt 0 view .LVU1064
 3317 0008 FFF7FEFF 		bl	lv_style_set_prop
 3318              	.LVL390:
 184:Middlewares/lvgl/src/extra/layouts/grid/lv_grid.c **** 
 3319              		.loc 1 184 1 view .LVU1065
 3320 000c 08BD     		pop	{r3, pc}
 3321              	.L173:
 3322 000e 00BF     		.align	2
 3323              	.L172:
 3324 0010 00000000 		.word	.LANCHOR2
 3325              		.cfi_endproc
 3326              	.LFE181:
 3328              		.section	.text.lv_style_set_grid_cell_column_span,"ax",%progbits
 3329              		.align	1
 3330              		.global	lv_style_set_grid_cell_column_span
 3331              		.syntax unified
 3332              		.thumb
 3333              		.thumb_func
 3335              	lv_style_set_grid_cell_column_span:
 3336              	.LVL391:
 3337              	.LFB182:
 187:Middlewares/lvgl/src/extra/layouts/grid/lv_grid.c ****     lv_style_value_t v = {
 3338              		.loc 1 187 1 is_stmt 1 view -0
 3339              		.cfi_startproc
 3340              		@ args = 0, pretend = 0, frame = 0
 3341              		@ frame_needed = 0, uses_anonymous_args = 0
ARM GAS  /tmp/cc3I9fWq.s 			page 100


 187:Middlewares/lvgl/src/extra/layouts/grid/lv_grid.c ****     lv_style_value_t v = {
 3342              		.loc 1 187 1 is_stmt 0 view .LVU1067
 3343 0000 08B5     		push	{r3, lr}
 3344              	.LCFI24:
 3345              		.cfi_def_cfa_offset 8
 3346              		.cfi_offset 3, -8
 3347              		.cfi_offset 14, -4
 3348 0002 0A46     		mov	r2, r1
 188:Middlewares/lvgl/src/extra/layouts/grid/lv_grid.c ****         .num = value
 3349              		.loc 1 188 5 is_stmt 1 view .LVU1068
 191:Middlewares/lvgl/src/extra/layouts/grid/lv_grid.c **** }
 3350              		.loc 1 191 5 view .LVU1069
 3351 0004 024B     		ldr	r3, .L176
 3352 0006 1988     		ldrh	r1, [r3]
 3353              	.LVL392:
 191:Middlewares/lvgl/src/extra/layouts/grid/lv_grid.c **** }
 3354              		.loc 1 191 5 is_stmt 0 view .LVU1070
 3355 0008 FFF7FEFF 		bl	lv_style_set_prop
 3356              	.LVL393:
 192:Middlewares/lvgl/src/extra/layouts/grid/lv_grid.c **** 
 3357              		.loc 1 192 1 view .LVU1071
 3358 000c 08BD     		pop	{r3, pc}
 3359              	.L177:
 3360 000e 00BF     		.align	2
 3361              	.L176:
 3362 0010 00000000 		.word	.LANCHOR0
 3363              		.cfi_endproc
 3364              	.LFE182:
 3366              		.section	.text.lv_style_set_grid_cell_row_pos,"ax",%progbits
 3367              		.align	1
 3368              		.global	lv_style_set_grid_cell_row_pos
 3369              		.syntax unified
 3370              		.thumb
 3371              		.thumb_func
 3373              	lv_style_set_grid_cell_row_pos:
 3374              	.LVL394:
 3375              	.LFB183:
 195:Middlewares/lvgl/src/extra/layouts/grid/lv_grid.c ****     lv_style_value_t v = {
 3376              		.loc 1 195 1 is_stmt 1 view -0
 3377              		.cfi_startproc
 3378              		@ args = 0, pretend = 0, frame = 0
 3379              		@ frame_needed = 0, uses_anonymous_args = 0
 195:Middlewares/lvgl/src/extra/layouts/grid/lv_grid.c ****     lv_style_value_t v = {
 3380              		.loc 1 195 1 is_stmt 0 view .LVU1073
 3381 0000 08B5     		push	{r3, lr}
 3382              	.LCFI25:
 3383              		.cfi_def_cfa_offset 8
 3384              		.cfi_offset 3, -8
 3385              		.cfi_offset 14, -4
 3386 0002 0A46     		mov	r2, r1
 196:Middlewares/lvgl/src/extra/layouts/grid/lv_grid.c ****         .num = value
 3387              		.loc 1 196 5 is_stmt 1 view .LVU1074
 199:Middlewares/lvgl/src/extra/layouts/grid/lv_grid.c **** }
 3388              		.loc 1 199 5 view .LVU1075
 3389 0004 024B     		ldr	r3, .L180
 3390 0006 1988     		ldrh	r1, [r3]
 3391              	.LVL395:
ARM GAS  /tmp/cc3I9fWq.s 			page 101


 199:Middlewares/lvgl/src/extra/layouts/grid/lv_grid.c **** }
 3392              		.loc 1 199 5 is_stmt 0 view .LVU1076
 3393 0008 FFF7FEFF 		bl	lv_style_set_prop
 3394              	.LVL396:
 200:Middlewares/lvgl/src/extra/layouts/grid/lv_grid.c **** 
 3395              		.loc 1 200 1 view .LVU1077
 3396 000c 08BD     		pop	{r3, pc}
 3397              	.L181:
 3398 000e 00BF     		.align	2
 3399              	.L180:
 3400 0010 00000000 		.word	.LANCHOR3
 3401              		.cfi_endproc
 3402              	.LFE183:
 3404              		.section	.text.lv_style_set_grid_cell_row_span,"ax",%progbits
 3405              		.align	1
 3406              		.global	lv_style_set_grid_cell_row_span
 3407              		.syntax unified
 3408              		.thumb
 3409              		.thumb_func
 3411              	lv_style_set_grid_cell_row_span:
 3412              	.LVL397:
 3413              	.LFB184:
 203:Middlewares/lvgl/src/extra/layouts/grid/lv_grid.c ****     lv_style_value_t v = {
 3414              		.loc 1 203 1 is_stmt 1 view -0
 3415              		.cfi_startproc
 3416              		@ args = 0, pretend = 0, frame = 0
 3417              		@ frame_needed = 0, uses_anonymous_args = 0
 203:Middlewares/lvgl/src/extra/layouts/grid/lv_grid.c ****     lv_style_value_t v = {
 3418              		.loc 1 203 1 is_stmt 0 view .LVU1079
 3419 0000 08B5     		push	{r3, lr}
 3420              	.LCFI26:
 3421              		.cfi_def_cfa_offset 8
 3422              		.cfi_offset 3, -8
 3423              		.cfi_offset 14, -4
 3424 0002 0A46     		mov	r2, r1
 204:Middlewares/lvgl/src/extra/layouts/grid/lv_grid.c ****         .num = value
 3425              		.loc 1 204 5 is_stmt 1 view .LVU1080
 207:Middlewares/lvgl/src/extra/layouts/grid/lv_grid.c **** }
 3426              		.loc 1 207 5 view .LVU1081
 3427 0004 024B     		ldr	r3, .L184
 3428 0006 1988     		ldrh	r1, [r3]
 3429              	.LVL398:
 207:Middlewares/lvgl/src/extra/layouts/grid/lv_grid.c **** }
 3430              		.loc 1 207 5 is_stmt 0 view .LVU1082
 3431 0008 FFF7FEFF 		bl	lv_style_set_prop
 3432              	.LVL399:
 208:Middlewares/lvgl/src/extra/layouts/grid/lv_grid.c **** 
 3433              		.loc 1 208 1 view .LVU1083
 3434 000c 08BD     		pop	{r3, pc}
 3435              	.L185:
 3436 000e 00BF     		.align	2
 3437              	.L184:
 3438 0010 00000000 		.word	.LANCHOR1
 3439              		.cfi_endproc
 3440              	.LFE184:
 3442              		.section	.text.lv_style_set_grid_cell_x_align,"ax",%progbits
 3443              		.align	1
ARM GAS  /tmp/cc3I9fWq.s 			page 102


 3444              		.global	lv_style_set_grid_cell_x_align
 3445              		.syntax unified
 3446              		.thumb
 3447              		.thumb_func
 3449              	lv_style_set_grid_cell_x_align:
 3450              	.LVL400:
 3451              	.LFB185:
 211:Middlewares/lvgl/src/extra/layouts/grid/lv_grid.c ****     lv_style_value_t v = {
 3452              		.loc 1 211 1 is_stmt 1 view -0
 3453              		.cfi_startproc
 3454              		@ args = 0, pretend = 0, frame = 0
 3455              		@ frame_needed = 0, uses_anonymous_args = 0
 211:Middlewares/lvgl/src/extra/layouts/grid/lv_grid.c ****     lv_style_value_t v = {
 3456              		.loc 1 211 1 is_stmt 0 view .LVU1085
 3457 0000 08B5     		push	{r3, lr}
 3458              	.LCFI27:
 3459              		.cfi_def_cfa_offset 8
 3460              		.cfi_offset 3, -8
 3461              		.cfi_offset 14, -4
 3462 0002 0A46     		mov	r2, r1
 212:Middlewares/lvgl/src/extra/layouts/grid/lv_grid.c ****         .num = value
 3463              		.loc 1 212 5 is_stmt 1 view .LVU1086
 215:Middlewares/lvgl/src/extra/layouts/grid/lv_grid.c **** }
 3464              		.loc 1 215 5 view .LVU1087
 3465 0004 024B     		ldr	r3, .L188
 3466 0006 1988     		ldrh	r1, [r3]
 3467              	.LVL401:
 215:Middlewares/lvgl/src/extra/layouts/grid/lv_grid.c **** }
 3468              		.loc 1 215 5 is_stmt 0 view .LVU1088
 3469 0008 FFF7FEFF 		bl	lv_style_set_prop
 3470              	.LVL402:
 216:Middlewares/lvgl/src/extra/layouts/grid/lv_grid.c **** 
 3471              		.loc 1 216 1 view .LVU1089
 3472 000c 08BD     		pop	{r3, pc}
 3473              	.L189:
 3474 000e 00BF     		.align	2
 3475              	.L188:
 3476 0010 00000000 		.word	.LANCHOR4
 3477              		.cfi_endproc
 3478              	.LFE185:
 3480              		.section	.text.lv_style_set_grid_cell_y_align,"ax",%progbits
 3481              		.align	1
 3482              		.global	lv_style_set_grid_cell_y_align
 3483              		.syntax unified
 3484              		.thumb
 3485              		.thumb_func
 3487              	lv_style_set_grid_cell_y_align:
 3488              	.LVL403:
 3489              	.LFB186:
 219:Middlewares/lvgl/src/extra/layouts/grid/lv_grid.c ****     lv_style_value_t v = {
 3490              		.loc 1 219 1 is_stmt 1 view -0
 3491              		.cfi_startproc
 3492              		@ args = 0, pretend = 0, frame = 0
 3493              		@ frame_needed = 0, uses_anonymous_args = 0
 219:Middlewares/lvgl/src/extra/layouts/grid/lv_grid.c ****     lv_style_value_t v = {
 3494              		.loc 1 219 1 is_stmt 0 view .LVU1091
 3495 0000 08B5     		push	{r3, lr}
ARM GAS  /tmp/cc3I9fWq.s 			page 103


 3496              	.LCFI28:
 3497              		.cfi_def_cfa_offset 8
 3498              		.cfi_offset 3, -8
 3499              		.cfi_offset 14, -4
 3500 0002 0A46     		mov	r2, r1
 220:Middlewares/lvgl/src/extra/layouts/grid/lv_grid.c ****         .num = value
 3501              		.loc 1 220 5 is_stmt 1 view .LVU1092
 223:Middlewares/lvgl/src/extra/layouts/grid/lv_grid.c **** }
 3502              		.loc 1 223 5 view .LVU1093
 3503 0004 024B     		ldr	r3, .L192
 3504 0006 1988     		ldrh	r1, [r3]
 3505              	.LVL404:
 223:Middlewares/lvgl/src/extra/layouts/grid/lv_grid.c **** }
 3506              		.loc 1 223 5 is_stmt 0 view .LVU1094
 3507 0008 FFF7FEFF 		bl	lv_style_set_prop
 3508              	.LVL405:
 224:Middlewares/lvgl/src/extra/layouts/grid/lv_grid.c **** 
 3509              		.loc 1 224 1 view .LVU1095
 3510 000c 08BD     		pop	{r3, pc}
 3511              	.L193:
 3512 000e 00BF     		.align	2
 3513              	.L192:
 3514 0010 00000000 		.word	.LANCHOR5
 3515              		.cfi_endproc
 3516              	.LFE186:
 3518              		.section	.text.lv_obj_set_style_grid_row_dsc_array,"ax",%progbits
 3519              		.align	1
 3520              		.global	lv_obj_set_style_grid_row_dsc_array
 3521              		.syntax unified
 3522              		.thumb
 3523              		.thumb_func
 3525              	lv_obj_set_style_grid_row_dsc_array:
 3526              	.LVL406:
 3527              	.LFB187:
 227:Middlewares/lvgl/src/extra/layouts/grid/lv_grid.c ****     lv_style_value_t v = {
 3528              		.loc 1 227 1 is_stmt 1 view -0
 3529              		.cfi_startproc
 3530              		@ args = 0, pretend = 0, frame = 0
 3531              		@ frame_needed = 0, uses_anonymous_args = 0
 227:Middlewares/lvgl/src/extra/layouts/grid/lv_grid.c ****     lv_style_value_t v = {
 3532              		.loc 1 227 1 is_stmt 0 view .LVU1097
 3533 0000 08B5     		push	{r3, lr}
 3534              	.LCFI29:
 3535              		.cfi_def_cfa_offset 8
 3536              		.cfi_offset 3, -8
 3537              		.cfi_offset 14, -4
 3538 0002 1346     		mov	r3, r2
 228:Middlewares/lvgl/src/extra/layouts/grid/lv_grid.c ****         .ptr = (const void *)value
 3539              		.loc 1 228 5 is_stmt 1 view .LVU1098
 231:Middlewares/lvgl/src/extra/layouts/grid/lv_grid.c **** }
 3540              		.loc 1 231 5 view .LVU1099
 3541 0004 0A46     		mov	r2, r1
 3542              	.LVL407:
 231:Middlewares/lvgl/src/extra/layouts/grid/lv_grid.c **** }
 3543              		.loc 1 231 5 is_stmt 0 view .LVU1100
 3544 0006 0249     		ldr	r1, .L196
 3545              	.LVL408:
ARM GAS  /tmp/cc3I9fWq.s 			page 104


 231:Middlewares/lvgl/src/extra/layouts/grid/lv_grid.c **** }
 3546              		.loc 1 231 5 view .LVU1101
 3547 0008 0988     		ldrh	r1, [r1]
 3548 000a FFF7FEFF 		bl	lv_obj_set_local_style_prop
 3549              	.LVL409:
 232:Middlewares/lvgl/src/extra/layouts/grid/lv_grid.c **** 
 3550              		.loc 1 232 1 view .LVU1102
 3551 000e 08BD     		pop	{r3, pc}
 3552              	.L197:
 3553              		.align	2
 3554              	.L196:
 3555 0010 00000000 		.word	.LANCHOR6
 3556              		.cfi_endproc
 3557              	.LFE187:
 3559              		.section	.text.lv_obj_set_style_grid_column_dsc_array,"ax",%progbits
 3560              		.align	1
 3561              		.global	lv_obj_set_style_grid_column_dsc_array
 3562              		.syntax unified
 3563              		.thumb
 3564              		.thumb_func
 3566              	lv_obj_set_style_grid_column_dsc_array:
 3567              	.LVL410:
 3568              	.LFB188:
 235:Middlewares/lvgl/src/extra/layouts/grid/lv_grid.c ****     lv_style_value_t v = {
 3569              		.loc 1 235 1 is_stmt 1 view -0
 3570              		.cfi_startproc
 3571              		@ args = 0, pretend = 0, frame = 0
 3572              		@ frame_needed = 0, uses_anonymous_args = 0
 235:Middlewares/lvgl/src/extra/layouts/grid/lv_grid.c ****     lv_style_value_t v = {
 3573              		.loc 1 235 1 is_stmt 0 view .LVU1104
 3574 0000 08B5     		push	{r3, lr}
 3575              	.LCFI30:
 3576              		.cfi_def_cfa_offset 8
 3577              		.cfi_offset 3, -8
 3578              		.cfi_offset 14, -4
 3579 0002 1346     		mov	r3, r2
 236:Middlewares/lvgl/src/extra/layouts/grid/lv_grid.c ****         .ptr = (const void *)value
 3580              		.loc 1 236 5 is_stmt 1 view .LVU1105
 239:Middlewares/lvgl/src/extra/layouts/grid/lv_grid.c **** }
 3581              		.loc 1 239 5 view .LVU1106
 3582 0004 0A46     		mov	r2, r1
 3583              	.LVL411:
 239:Middlewares/lvgl/src/extra/layouts/grid/lv_grid.c **** }
 3584              		.loc 1 239 5 is_stmt 0 view .LVU1107
 3585 0006 0249     		ldr	r1, .L200
 3586              	.LVL412:
 239:Middlewares/lvgl/src/extra/layouts/grid/lv_grid.c **** }
 3587              		.loc 1 239 5 view .LVU1108
 3588 0008 0988     		ldrh	r1, [r1]
 3589 000a FFF7FEFF 		bl	lv_obj_set_local_style_prop
 3590              	.LVL413:
 240:Middlewares/lvgl/src/extra/layouts/grid/lv_grid.c **** 
 3591              		.loc 1 240 1 view .LVU1109
 3592 000e 08BD     		pop	{r3, pc}
 3593              	.L201:
 3594              		.align	2
 3595              	.L200:
ARM GAS  /tmp/cc3I9fWq.s 			page 105


 3596 0010 00000000 		.word	.LANCHOR7
 3597              		.cfi_endproc
 3598              	.LFE188:
 3600              		.section	.text.lv_obj_set_grid_dsc_array,"ax",%progbits
 3601              		.align	1
 3602              		.global	lv_obj_set_grid_dsc_array
 3603              		.syntax unified
 3604              		.thumb
 3605              		.thumb_func
 3607              	lv_obj_set_grid_dsc_array:
 3608              	.LVL414:
 3609              	.LFB174:
 117:Middlewares/lvgl/src/extra/layouts/grid/lv_grid.c ****     lv_obj_set_style_grid_column_dsc_array(obj, col_dsc, 0);
 3610              		.loc 1 117 1 is_stmt 1 view -0
 3611              		.cfi_startproc
 3612              		@ args = 0, pretend = 0, frame = 0
 3613              		@ frame_needed = 0, uses_anonymous_args = 0
 117:Middlewares/lvgl/src/extra/layouts/grid/lv_grid.c ****     lv_obj_set_style_grid_column_dsc_array(obj, col_dsc, 0);
 3614              		.loc 1 117 1 is_stmt 0 view .LVU1111
 3615 0000 38B5     		push	{r3, r4, r5, lr}
 3616              	.LCFI31:
 3617              		.cfi_def_cfa_offset 16
 3618              		.cfi_offset 3, -16
 3619              		.cfi_offset 4, -12
 3620              		.cfi_offset 5, -8
 3621              		.cfi_offset 14, -4
 3622 0002 0446     		mov	r4, r0
 3623 0004 1546     		mov	r5, r2
 118:Middlewares/lvgl/src/extra/layouts/grid/lv_grid.c ****     lv_obj_set_style_grid_row_dsc_array(obj, row_dsc, 0);
 3624              		.loc 1 118 5 is_stmt 1 view .LVU1112
 3625 0006 0022     		movs	r2, #0
 3626              	.LVL415:
 118:Middlewares/lvgl/src/extra/layouts/grid/lv_grid.c ****     lv_obj_set_style_grid_row_dsc_array(obj, row_dsc, 0);
 3627              		.loc 1 118 5 is_stmt 0 view .LVU1113
 3628 0008 FFF7FEFF 		bl	lv_obj_set_style_grid_column_dsc_array
 3629              	.LVL416:
 119:Middlewares/lvgl/src/extra/layouts/grid/lv_grid.c ****     lv_obj_set_style_layout(obj, LV_LAYOUT_GRID, 0);
 3630              		.loc 1 119 5 is_stmt 1 view .LVU1114
 3631 000c 0022     		movs	r2, #0
 3632 000e 2946     		mov	r1, r5
 3633 0010 2046     		mov	r0, r4
 3634 0012 FFF7FEFF 		bl	lv_obj_set_style_grid_row_dsc_array
 3635              	.LVL417:
 120:Middlewares/lvgl/src/extra/layouts/grid/lv_grid.c **** }
 3636              		.loc 1 120 5 view .LVU1115
 3637 0016 0022     		movs	r2, #0
 3638 0018 024B     		ldr	r3, .L204
 3639 001a 1988     		ldrh	r1, [r3]
 3640 001c 2046     		mov	r0, r4
 3641 001e FFF7FEFF 		bl	lv_obj_set_style_layout
 3642              	.LVL418:
 121:Middlewares/lvgl/src/extra/layouts/grid/lv_grid.c **** 
 3643              		.loc 1 121 1 is_stmt 0 view .LVU1116
 3644 0022 38BD     		pop	{r3, r4, r5, pc}
 3645              	.LVL419:
 3646              	.L205:
 121:Middlewares/lvgl/src/extra/layouts/grid/lv_grid.c **** 
ARM GAS  /tmp/cc3I9fWq.s 			page 106


 3647              		.loc 1 121 1 view .LVU1117
 3648              		.align	2
 3649              	.L204:
 3650 0024 00000000 		.word	.LANCHOR10
 3651              		.cfi_endproc
 3652              	.LFE174:
 3654              		.section	.text.lv_obj_set_style_grid_row_align,"ax",%progbits
 3655              		.align	1
 3656              		.global	lv_obj_set_style_grid_row_align
 3657              		.syntax unified
 3658              		.thumb
 3659              		.thumb_func
 3661              	lv_obj_set_style_grid_row_align:
 3662              	.LVL420:
 3663              	.LFB189:
 244:Middlewares/lvgl/src/extra/layouts/grid/lv_grid.c ****     lv_style_value_t v = {
 3664              		.loc 1 244 1 is_stmt 1 view -0
 3665              		.cfi_startproc
 3666              		@ args = 0, pretend = 0, frame = 0
 3667              		@ frame_needed = 0, uses_anonymous_args = 0
 244:Middlewares/lvgl/src/extra/layouts/grid/lv_grid.c ****     lv_style_value_t v = {
 3668              		.loc 1 244 1 is_stmt 0 view .LVU1119
 3669 0000 08B5     		push	{r3, lr}
 3670              	.LCFI32:
 3671              		.cfi_def_cfa_offset 8
 3672              		.cfi_offset 3, -8
 3673              		.cfi_offset 14, -4
 3674 0002 1346     		mov	r3, r2
 245:Middlewares/lvgl/src/extra/layouts/grid/lv_grid.c ****         .num = (int32_t) value
 3675              		.loc 1 245 5 is_stmt 1 view .LVU1120
 248:Middlewares/lvgl/src/extra/layouts/grid/lv_grid.c **** }
 3676              		.loc 1 248 5 view .LVU1121
 3677 0004 0A46     		mov	r2, r1
 3678              	.LVL421:
 248:Middlewares/lvgl/src/extra/layouts/grid/lv_grid.c **** }
 3679              		.loc 1 248 5 is_stmt 0 view .LVU1122
 3680 0006 0249     		ldr	r1, .L208
 3681              	.LVL422:
 248:Middlewares/lvgl/src/extra/layouts/grid/lv_grid.c **** }
 3682              		.loc 1 248 5 view .LVU1123
 3683 0008 0988     		ldrh	r1, [r1]
 3684 000a FFF7FEFF 		bl	lv_obj_set_local_style_prop
 3685              	.LVL423:
 249:Middlewares/lvgl/src/extra/layouts/grid/lv_grid.c **** 
 3686              		.loc 1 249 1 view .LVU1124
 3687 000e 08BD     		pop	{r3, pc}
 3688              	.L209:
 3689              		.align	2
 3690              	.L208:
 3691 0010 00000000 		.word	.LANCHOR9
 3692              		.cfi_endproc
 3693              	.LFE189:
 3695              		.section	.text.lv_obj_set_style_grid_column_align,"ax",%progbits
 3696              		.align	1
 3697              		.global	lv_obj_set_style_grid_column_align
 3698              		.syntax unified
 3699              		.thumb
ARM GAS  /tmp/cc3I9fWq.s 			page 107


 3700              		.thumb_func
 3702              	lv_obj_set_style_grid_column_align:
 3703              	.LVL424:
 3704              	.LFB190:
 252:Middlewares/lvgl/src/extra/layouts/grid/lv_grid.c ****     lv_style_value_t v = {
 3705              		.loc 1 252 1 is_stmt 1 view -0
 3706              		.cfi_startproc
 3707              		@ args = 0, pretend = 0, frame = 0
 3708              		@ frame_needed = 0, uses_anonymous_args = 0
 252:Middlewares/lvgl/src/extra/layouts/grid/lv_grid.c ****     lv_style_value_t v = {
 3709              		.loc 1 252 1 is_stmt 0 view .LVU1126
 3710 0000 08B5     		push	{r3, lr}
 3711              	.LCFI33:
 3712              		.cfi_def_cfa_offset 8
 3713              		.cfi_offset 3, -8
 3714              		.cfi_offset 14, -4
 3715 0002 1346     		mov	r3, r2
 253:Middlewares/lvgl/src/extra/layouts/grid/lv_grid.c ****         .num = (int32_t) value
 3716              		.loc 1 253 5 is_stmt 1 view .LVU1127
 256:Middlewares/lvgl/src/extra/layouts/grid/lv_grid.c **** }
 3717              		.loc 1 256 5 view .LVU1128
 3718 0004 0A46     		mov	r2, r1
 3719              	.LVL425:
 256:Middlewares/lvgl/src/extra/layouts/grid/lv_grid.c **** }
 3720              		.loc 1 256 5 is_stmt 0 view .LVU1129
 3721 0006 0249     		ldr	r1, .L212
 3722              	.LVL426:
 256:Middlewares/lvgl/src/extra/layouts/grid/lv_grid.c **** }
 3723              		.loc 1 256 5 view .LVU1130
 3724 0008 0988     		ldrh	r1, [r1]
 3725 000a FFF7FEFF 		bl	lv_obj_set_local_style_prop
 3726              	.LVL427:
 257:Middlewares/lvgl/src/extra/layouts/grid/lv_grid.c **** 
 3727              		.loc 1 257 1 view .LVU1131
 3728 000e 08BD     		pop	{r3, pc}
 3729              	.L213:
 3730              		.align	2
 3731              	.L212:
 3732 0010 00000000 		.word	.LANCHOR8
 3733              		.cfi_endproc
 3734              	.LFE190:
 3736              		.section	.text.lv_obj_set_grid_align,"ax",%progbits
 3737              		.align	1
 3738              		.global	lv_obj_set_grid_align
 3739              		.syntax unified
 3740              		.thumb
 3741              		.thumb_func
 3743              	lv_obj_set_grid_align:
 3744              	.LVL428:
 3745              	.LFB175:
 124:Middlewares/lvgl/src/extra/layouts/grid/lv_grid.c ****     lv_obj_set_style_grid_column_align(obj, column_align, 0);
 3746              		.loc 1 124 1 is_stmt 1 view -0
 3747              		.cfi_startproc
 3748              		@ args = 0, pretend = 0, frame = 0
 3749              		@ frame_needed = 0, uses_anonymous_args = 0
 124:Middlewares/lvgl/src/extra/layouts/grid/lv_grid.c ****     lv_obj_set_style_grid_column_align(obj, column_align, 0);
 3750              		.loc 1 124 1 is_stmt 0 view .LVU1133
ARM GAS  /tmp/cc3I9fWq.s 			page 108


 3751 0000 38B5     		push	{r3, r4, r5, lr}
 3752              	.LCFI34:
 3753              		.cfi_def_cfa_offset 16
 3754              		.cfi_offset 3, -16
 3755              		.cfi_offset 4, -12
 3756              		.cfi_offset 5, -8
 3757              		.cfi_offset 14, -4
 3758 0002 0446     		mov	r4, r0
 3759 0004 1546     		mov	r5, r2
 125:Middlewares/lvgl/src/extra/layouts/grid/lv_grid.c ****     lv_obj_set_style_grid_row_align(obj, row_align, 0);
 3760              		.loc 1 125 5 is_stmt 1 view .LVU1134
 3761 0006 0022     		movs	r2, #0
 3762              	.LVL429:
 125:Middlewares/lvgl/src/extra/layouts/grid/lv_grid.c ****     lv_obj_set_style_grid_row_align(obj, row_align, 0);
 3763              		.loc 1 125 5 is_stmt 0 view .LVU1135
 3764 0008 FFF7FEFF 		bl	lv_obj_set_style_grid_column_align
 3765              	.LVL430:
 126:Middlewares/lvgl/src/extra/layouts/grid/lv_grid.c **** 
 3766              		.loc 1 126 5 is_stmt 1 view .LVU1136
 3767 000c 0022     		movs	r2, #0
 3768 000e 2946     		mov	r1, r5
 3769 0010 2046     		mov	r0, r4
 3770 0012 FFF7FEFF 		bl	lv_obj_set_style_grid_row_align
 3771              	.LVL431:
 128:Middlewares/lvgl/src/extra/layouts/grid/lv_grid.c **** 
 3772              		.loc 1 128 1 is_stmt 0 view .LVU1137
 3773 0016 38BD     		pop	{r3, r4, r5, pc}
 128:Middlewares/lvgl/src/extra/layouts/grid/lv_grid.c **** 
 3774              		.loc 1 128 1 view .LVU1138
 3775              		.cfi_endproc
 3776              	.LFE175:
 3778              		.section	.text.lv_obj_set_style_grid_cell_column_pos,"ax",%progbits
 3779              		.align	1
 3780              		.global	lv_obj_set_style_grid_cell_column_pos
 3781              		.syntax unified
 3782              		.thumb
 3783              		.thumb_func
 3785              	lv_obj_set_style_grid_cell_column_pos:
 3786              	.LVL432:
 3787              	.LFB191:
 261:Middlewares/lvgl/src/extra/layouts/grid/lv_grid.c ****     lv_style_value_t v = {
 3788              		.loc 1 261 1 is_stmt 1 view -0
 3789              		.cfi_startproc
 3790              		@ args = 0, pretend = 0, frame = 0
 3791              		@ frame_needed = 0, uses_anonymous_args = 0
 261:Middlewares/lvgl/src/extra/layouts/grid/lv_grid.c ****     lv_style_value_t v = {
 3792              		.loc 1 261 1 is_stmt 0 view .LVU1140
 3793 0000 08B5     		push	{r3, lr}
 3794              	.LCFI35:
 3795              		.cfi_def_cfa_offset 8
 3796              		.cfi_offset 3, -8
 3797              		.cfi_offset 14, -4
 3798 0002 1346     		mov	r3, r2
 262:Middlewares/lvgl/src/extra/layouts/grid/lv_grid.c ****         .num = value
 3799              		.loc 1 262 5 is_stmt 1 view .LVU1141
 265:Middlewares/lvgl/src/extra/layouts/grid/lv_grid.c **** }
 3800              		.loc 1 265 5 view .LVU1142
ARM GAS  /tmp/cc3I9fWq.s 			page 109


 3801 0004 0A46     		mov	r2, r1
 3802              	.LVL433:
 265:Middlewares/lvgl/src/extra/layouts/grid/lv_grid.c **** }
 3803              		.loc 1 265 5 is_stmt 0 view .LVU1143
 3804 0006 0249     		ldr	r1, .L218
 3805              	.LVL434:
 265:Middlewares/lvgl/src/extra/layouts/grid/lv_grid.c **** }
 3806              		.loc 1 265 5 view .LVU1144
 3807 0008 0988     		ldrh	r1, [r1]
 3808 000a FFF7FEFF 		bl	lv_obj_set_local_style_prop
 3809              	.LVL435:
 266:Middlewares/lvgl/src/extra/layouts/grid/lv_grid.c **** 
 3810              		.loc 1 266 1 view .LVU1145
 3811 000e 08BD     		pop	{r3, pc}
 3812              	.L219:
 3813              		.align	2
 3814              	.L218:
 3815 0010 00000000 		.word	.LANCHOR2
 3816              		.cfi_endproc
 3817              	.LFE191:
 3819              		.section	.text.lv_obj_set_style_grid_cell_column_span,"ax",%progbits
 3820              		.align	1
 3821              		.global	lv_obj_set_style_grid_cell_column_span
 3822              		.syntax unified
 3823              		.thumb
 3824              		.thumb_func
 3826              	lv_obj_set_style_grid_cell_column_span:
 3827              	.LVL436:
 3828              	.LFB192:
 269:Middlewares/lvgl/src/extra/layouts/grid/lv_grid.c ****     lv_style_value_t v = {
 3829              		.loc 1 269 1 is_stmt 1 view -0
 3830              		.cfi_startproc
 3831              		@ args = 0, pretend = 0, frame = 0
 3832              		@ frame_needed = 0, uses_anonymous_args = 0
 269:Middlewares/lvgl/src/extra/layouts/grid/lv_grid.c ****     lv_style_value_t v = {
 3833              		.loc 1 269 1 is_stmt 0 view .LVU1147
 3834 0000 08B5     		push	{r3, lr}
 3835              	.LCFI36:
 3836              		.cfi_def_cfa_offset 8
 3837              		.cfi_offset 3, -8
 3838              		.cfi_offset 14, -4
 3839 0002 1346     		mov	r3, r2
 270:Middlewares/lvgl/src/extra/layouts/grid/lv_grid.c ****         .num = value
 3840              		.loc 1 270 5 is_stmt 1 view .LVU1148
 273:Middlewares/lvgl/src/extra/layouts/grid/lv_grid.c **** }
 3841              		.loc 1 273 5 view .LVU1149
 3842 0004 0A46     		mov	r2, r1
 3843              	.LVL437:
 273:Middlewares/lvgl/src/extra/layouts/grid/lv_grid.c **** }
 3844              		.loc 1 273 5 is_stmt 0 view .LVU1150
 3845 0006 0249     		ldr	r1, .L222
 3846              	.LVL438:
 273:Middlewares/lvgl/src/extra/layouts/grid/lv_grid.c **** }
 3847              		.loc 1 273 5 view .LVU1151
 3848 0008 0988     		ldrh	r1, [r1]
 3849 000a FFF7FEFF 		bl	lv_obj_set_local_style_prop
 3850              	.LVL439:
ARM GAS  /tmp/cc3I9fWq.s 			page 110


 274:Middlewares/lvgl/src/extra/layouts/grid/lv_grid.c **** 
 3851              		.loc 1 274 1 view .LVU1152
 3852 000e 08BD     		pop	{r3, pc}
 3853              	.L223:
 3854              		.align	2
 3855              	.L222:
 3856 0010 00000000 		.word	.LANCHOR0
 3857              		.cfi_endproc
 3858              	.LFE192:
 3860              		.section	.text.lv_obj_set_style_grid_cell_row_pos,"ax",%progbits
 3861              		.align	1
 3862              		.global	lv_obj_set_style_grid_cell_row_pos
 3863              		.syntax unified
 3864              		.thumb
 3865              		.thumb_func
 3867              	lv_obj_set_style_grid_cell_row_pos:
 3868              	.LVL440:
 3869              	.LFB193:
 277:Middlewares/lvgl/src/extra/layouts/grid/lv_grid.c ****     lv_style_value_t v = {
 3870              		.loc 1 277 1 is_stmt 1 view -0
 3871              		.cfi_startproc
 3872              		@ args = 0, pretend = 0, frame = 0
 3873              		@ frame_needed = 0, uses_anonymous_args = 0
 277:Middlewares/lvgl/src/extra/layouts/grid/lv_grid.c ****     lv_style_value_t v = {
 3874              		.loc 1 277 1 is_stmt 0 view .LVU1154
 3875 0000 08B5     		push	{r3, lr}
 3876              	.LCFI37:
 3877              		.cfi_def_cfa_offset 8
 3878              		.cfi_offset 3, -8
 3879              		.cfi_offset 14, -4
 3880 0002 1346     		mov	r3, r2
 278:Middlewares/lvgl/src/extra/layouts/grid/lv_grid.c ****         .num = value
 3881              		.loc 1 278 5 is_stmt 1 view .LVU1155
 281:Middlewares/lvgl/src/extra/layouts/grid/lv_grid.c **** }
 3882              		.loc 1 281 5 view .LVU1156
 3883 0004 0A46     		mov	r2, r1
 3884              	.LVL441:
 281:Middlewares/lvgl/src/extra/layouts/grid/lv_grid.c **** }
 3885              		.loc 1 281 5 is_stmt 0 view .LVU1157
 3886 0006 0249     		ldr	r1, .L226
 3887              	.LVL442:
 281:Middlewares/lvgl/src/extra/layouts/grid/lv_grid.c **** }
 3888              		.loc 1 281 5 view .LVU1158
 3889 0008 0988     		ldrh	r1, [r1]
 3890 000a FFF7FEFF 		bl	lv_obj_set_local_style_prop
 3891              	.LVL443:
 282:Middlewares/lvgl/src/extra/layouts/grid/lv_grid.c **** 
 3892              		.loc 1 282 1 view .LVU1159
 3893 000e 08BD     		pop	{r3, pc}
 3894              	.L227:
 3895              		.align	2
 3896              	.L226:
 3897 0010 00000000 		.word	.LANCHOR3
 3898              		.cfi_endproc
 3899              	.LFE193:
 3901              		.section	.text.lv_obj_set_style_grid_cell_row_span,"ax",%progbits
 3902              		.align	1
ARM GAS  /tmp/cc3I9fWq.s 			page 111


 3903              		.global	lv_obj_set_style_grid_cell_row_span
 3904              		.syntax unified
 3905              		.thumb
 3906              		.thumb_func
 3908              	lv_obj_set_style_grid_cell_row_span:
 3909              	.LVL444:
 3910              	.LFB194:
 285:Middlewares/lvgl/src/extra/layouts/grid/lv_grid.c ****     lv_style_value_t v = {
 3911              		.loc 1 285 1 is_stmt 1 view -0
 3912              		.cfi_startproc
 3913              		@ args = 0, pretend = 0, frame = 0
 3914              		@ frame_needed = 0, uses_anonymous_args = 0
 285:Middlewares/lvgl/src/extra/layouts/grid/lv_grid.c ****     lv_style_value_t v = {
 3915              		.loc 1 285 1 is_stmt 0 view .LVU1161
 3916 0000 08B5     		push	{r3, lr}
 3917              	.LCFI38:
 3918              		.cfi_def_cfa_offset 8
 3919              		.cfi_offset 3, -8
 3920              		.cfi_offset 14, -4
 3921 0002 1346     		mov	r3, r2
 286:Middlewares/lvgl/src/extra/layouts/grid/lv_grid.c ****         .num = value
 3922              		.loc 1 286 5 is_stmt 1 view .LVU1162
 289:Middlewares/lvgl/src/extra/layouts/grid/lv_grid.c **** }
 3923              		.loc 1 289 5 view .LVU1163
 3924 0004 0A46     		mov	r2, r1
 3925              	.LVL445:
 289:Middlewares/lvgl/src/extra/layouts/grid/lv_grid.c **** }
 3926              		.loc 1 289 5 is_stmt 0 view .LVU1164
 3927 0006 0249     		ldr	r1, .L230
 3928              	.LVL446:
 289:Middlewares/lvgl/src/extra/layouts/grid/lv_grid.c **** }
 3929              		.loc 1 289 5 view .LVU1165
 3930 0008 0988     		ldrh	r1, [r1]
 3931 000a FFF7FEFF 		bl	lv_obj_set_local_style_prop
 3932              	.LVL447:
 290:Middlewares/lvgl/src/extra/layouts/grid/lv_grid.c **** 
 3933              		.loc 1 290 1 view .LVU1166
 3934 000e 08BD     		pop	{r3, pc}
 3935              	.L231:
 3936              		.align	2
 3937              	.L230:
 3938 0010 00000000 		.word	.LANCHOR1
 3939              		.cfi_endproc
 3940              	.LFE194:
 3942              		.section	.text.lv_obj_set_style_grid_cell_x_align,"ax",%progbits
 3943              		.align	1
 3944              		.global	lv_obj_set_style_grid_cell_x_align
 3945              		.syntax unified
 3946              		.thumb
 3947              		.thumb_func
 3949              	lv_obj_set_style_grid_cell_x_align:
 3950              	.LVL448:
 3951              	.LFB195:
 293:Middlewares/lvgl/src/extra/layouts/grid/lv_grid.c ****     lv_style_value_t v = {
 3952              		.loc 1 293 1 is_stmt 1 view -0
 3953              		.cfi_startproc
 3954              		@ args = 0, pretend = 0, frame = 0
ARM GAS  /tmp/cc3I9fWq.s 			page 112


 3955              		@ frame_needed = 0, uses_anonymous_args = 0
 293:Middlewares/lvgl/src/extra/layouts/grid/lv_grid.c ****     lv_style_value_t v = {
 3956              		.loc 1 293 1 is_stmt 0 view .LVU1168
 3957 0000 08B5     		push	{r3, lr}
 3958              	.LCFI39:
 3959              		.cfi_def_cfa_offset 8
 3960              		.cfi_offset 3, -8
 3961              		.cfi_offset 14, -4
 3962 0002 1346     		mov	r3, r2
 294:Middlewares/lvgl/src/extra/layouts/grid/lv_grid.c ****         .num = value
 3963              		.loc 1 294 5 is_stmt 1 view .LVU1169
 297:Middlewares/lvgl/src/extra/layouts/grid/lv_grid.c **** }
 3964              		.loc 1 297 5 view .LVU1170
 3965 0004 0A46     		mov	r2, r1
 3966              	.LVL449:
 297:Middlewares/lvgl/src/extra/layouts/grid/lv_grid.c **** }
 3967              		.loc 1 297 5 is_stmt 0 view .LVU1171
 3968 0006 0249     		ldr	r1, .L234
 3969              	.LVL450:
 297:Middlewares/lvgl/src/extra/layouts/grid/lv_grid.c **** }
 3970              		.loc 1 297 5 view .LVU1172
 3971 0008 0988     		ldrh	r1, [r1]
 3972 000a FFF7FEFF 		bl	lv_obj_set_local_style_prop
 3973              	.LVL451:
 298:Middlewares/lvgl/src/extra/layouts/grid/lv_grid.c **** 
 3974              		.loc 1 298 1 view .LVU1173
 3975 000e 08BD     		pop	{r3, pc}
 3976              	.L235:
 3977              		.align	2
 3978              	.L234:
 3979 0010 00000000 		.word	.LANCHOR4
 3980              		.cfi_endproc
 3981              	.LFE195:
 3983              		.section	.text.lv_obj_set_style_grid_cell_y_align,"ax",%progbits
 3984              		.align	1
 3985              		.global	lv_obj_set_style_grid_cell_y_align
 3986              		.syntax unified
 3987              		.thumb
 3988              		.thumb_func
 3990              	lv_obj_set_style_grid_cell_y_align:
 3991              	.LVL452:
 3992              	.LFB196:
 301:Middlewares/lvgl/src/extra/layouts/grid/lv_grid.c ****     lv_style_value_t v = {
 3993              		.loc 1 301 1 is_stmt 1 view -0
 3994              		.cfi_startproc
 3995              		@ args = 0, pretend = 0, frame = 0
 3996              		@ frame_needed = 0, uses_anonymous_args = 0
 301:Middlewares/lvgl/src/extra/layouts/grid/lv_grid.c ****     lv_style_value_t v = {
 3997              		.loc 1 301 1 is_stmt 0 view .LVU1175
 3998 0000 08B5     		push	{r3, lr}
 3999              	.LCFI40:
 4000              		.cfi_def_cfa_offset 8
 4001              		.cfi_offset 3, -8
 4002              		.cfi_offset 14, -4
 4003 0002 1346     		mov	r3, r2
 302:Middlewares/lvgl/src/extra/layouts/grid/lv_grid.c ****         .num = value
 4004              		.loc 1 302 5 is_stmt 1 view .LVU1176
ARM GAS  /tmp/cc3I9fWq.s 			page 113


 305:Middlewares/lvgl/src/extra/layouts/grid/lv_grid.c **** }
 4005              		.loc 1 305 5 view .LVU1177
 4006 0004 0A46     		mov	r2, r1
 4007              	.LVL453:
 305:Middlewares/lvgl/src/extra/layouts/grid/lv_grid.c **** }
 4008              		.loc 1 305 5 is_stmt 0 view .LVU1178
 4009 0006 0249     		ldr	r1, .L238
 4010              	.LVL454:
 305:Middlewares/lvgl/src/extra/layouts/grid/lv_grid.c **** }
 4011              		.loc 1 305 5 view .LVU1179
 4012 0008 0988     		ldrh	r1, [r1]
 4013 000a FFF7FEFF 		bl	lv_obj_set_local_style_prop
 4014              	.LVL455:
 306:Middlewares/lvgl/src/extra/layouts/grid/lv_grid.c **** 
 4015              		.loc 1 306 1 view .LVU1180
 4016 000e 08BD     		pop	{r3, pc}
 4017              	.L239:
 4018              		.align	2
 4019              	.L238:
 4020 0010 00000000 		.word	.LANCHOR5
 4021              		.cfi_endproc
 4022              	.LFE196:
 4024              		.section	.text.lv_obj_set_grid_cell,"ax",%progbits
 4025              		.align	1
 4026              		.global	lv_obj_set_grid_cell
 4027              		.syntax unified
 4028              		.thumb
 4029              		.thumb_func
 4031              	lv_obj_set_grid_cell:
 4032              	.LVL456:
 4033              	.LFB176:
 133:Middlewares/lvgl/src/extra/layouts/grid/lv_grid.c ****     lv_obj_set_style_grid_cell_column_pos(obj, col_pos, 0);
 4034              		.loc 1 133 1 is_stmt 1 view -0
 4035              		.cfi_startproc
 4036              		@ args = 12, pretend = 0, frame = 0
 4037              		@ frame_needed = 0, uses_anonymous_args = 0
 133:Middlewares/lvgl/src/extra/layouts/grid/lv_grid.c ****     lv_obj_set_style_grid_cell_column_pos(obj, col_pos, 0);
 4038              		.loc 1 133 1 is_stmt 0 view .LVU1182
 4039 0000 70B5     		push	{r4, r5, r6, lr}
 4040              	.LCFI41:
 4041              		.cfi_def_cfa_offset 16
 4042              		.cfi_offset 4, -16
 4043              		.cfi_offset 5, -12
 4044              		.cfi_offset 6, -8
 4045              		.cfi_offset 14, -4
 4046 0002 0446     		mov	r4, r0
 4047 0004 0E46     		mov	r6, r1
 4048 0006 1146     		mov	r1, r2
 4049              	.LVL457:
 133:Middlewares/lvgl/src/extra/layouts/grid/lv_grid.c ****     lv_obj_set_style_grid_cell_column_pos(obj, col_pos, 0);
 4050              		.loc 1 133 1 view .LVU1183
 4051 0008 1D46     		mov	r5, r3
 134:Middlewares/lvgl/src/extra/layouts/grid/lv_grid.c ****     lv_obj_set_style_grid_cell_row_pos(obj, row_pos, 0);
 4052              		.loc 1 134 5 is_stmt 1 view .LVU1184
 4053 000a 0022     		movs	r2, #0
 4054              	.LVL458:
 134:Middlewares/lvgl/src/extra/layouts/grid/lv_grid.c ****     lv_obj_set_style_grid_cell_row_pos(obj, row_pos, 0);
ARM GAS  /tmp/cc3I9fWq.s 			page 114


 4055              		.loc 1 134 5 is_stmt 0 view .LVU1185
 4056 000c FFF7FEFF 		bl	lv_obj_set_style_grid_cell_column_pos
 4057              	.LVL459:
 135:Middlewares/lvgl/src/extra/layouts/grid/lv_grid.c ****     lv_obj_set_style_grid_cell_x_align(obj, x_align, 0);
 4058              		.loc 1 135 5 is_stmt 1 view .LVU1186
 4059 0010 0022     		movs	r2, #0
 4060 0012 9DF81410 		ldrb	r1, [sp, #20]	@ zero_extendqisi2
 4061 0016 2046     		mov	r0, r4
 4062 0018 FFF7FEFF 		bl	lv_obj_set_style_grid_cell_row_pos
 4063              	.LVL460:
 136:Middlewares/lvgl/src/extra/layouts/grid/lv_grid.c ****     lv_obj_set_style_grid_cell_column_span(obj, col_span, 0);
 4064              		.loc 1 136 5 view .LVU1187
 4065 001c 0022     		movs	r2, #0
 4066 001e 3146     		mov	r1, r6
 4067 0020 2046     		mov	r0, r4
 4068 0022 FFF7FEFF 		bl	lv_obj_set_style_grid_cell_x_align
 4069              	.LVL461:
 137:Middlewares/lvgl/src/extra/layouts/grid/lv_grid.c ****     lv_obj_set_style_grid_cell_row_span(obj, row_span, 0);
 4070              		.loc 1 137 5 view .LVU1188
 4071 0026 0022     		movs	r2, #0
 4072 0028 2946     		mov	r1, r5
 4073 002a 2046     		mov	r0, r4
 4074 002c FFF7FEFF 		bl	lv_obj_set_style_grid_cell_column_span
 4075              	.LVL462:
 138:Middlewares/lvgl/src/extra/layouts/grid/lv_grid.c ****     lv_obj_set_style_grid_cell_y_align(obj, y_align, 0);
 4076              		.loc 1 138 5 view .LVU1189
 4077 0030 0022     		movs	r2, #0
 4078 0032 9DF81810 		ldrb	r1, [sp, #24]	@ zero_extendqisi2
 4079 0036 2046     		mov	r0, r4
 4080 0038 FFF7FEFF 		bl	lv_obj_set_style_grid_cell_row_span
 4081              	.LVL463:
 139:Middlewares/lvgl/src/extra/layouts/grid/lv_grid.c **** 
 4082              		.loc 1 139 5 view .LVU1190
 4083 003c 0022     		movs	r2, #0
 4084 003e 9DF81010 		ldrb	r1, [sp, #16]	@ zero_extendqisi2
 4085 0042 2046     		mov	r0, r4
 4086 0044 FFF7FEFF 		bl	lv_obj_set_style_grid_cell_y_align
 4087              	.LVL464:
 141:Middlewares/lvgl/src/extra/layouts/grid/lv_grid.c **** }
 4088              		.loc 1 141 5 view .LVU1191
 4089 0048 2046     		mov	r0, r4
 4090 004a FFF7FEFF 		bl	lv_obj_get_parent
 4091              	.LVL465:
 4092 004e FFF7FEFF 		bl	lv_obj_mark_layout_as_dirty
 4093              	.LVL466:
 142:Middlewares/lvgl/src/extra/layouts/grid/lv_grid.c **** 
 4094              		.loc 1 142 1 is_stmt 0 view .LVU1192
 4095 0052 70BD     		pop	{r4, r5, r6, pc}
 142:Middlewares/lvgl/src/extra/layouts/grid/lv_grid.c **** 
 4096              		.loc 1 142 1 view .LVU1193
 4097              		.cfi_endproc
 4098              	.LFE176:
 4100              		.global	LV_STYLE_GRID_CELL_Y_ALIGN
 4101              		.global	LV_STYLE_GRID_CELL_ROW_SPAN
 4102              		.global	LV_STYLE_GRID_CELL_ROW_POS
 4103              		.global	LV_STYLE_GRID_CELL_X_ALIGN
 4104              		.global	LV_STYLE_GRID_CELL_COLUMN_SPAN
ARM GAS  /tmp/cc3I9fWq.s 			page 115


 4105              		.global	LV_STYLE_GRID_CELL_COLUMN_POS
 4106              		.global	LV_STYLE_GRID_ROW_ALIGN
 4107              		.global	LV_STYLE_GRID_ROW_DSC_ARRAY
 4108              		.global	LV_STYLE_GRID_COLUMN_ALIGN
 4109              		.global	LV_STYLE_GRID_COLUMN_DSC_ARRAY
 4110              		.global	LV_LAYOUT_GRID
 4111              		.section	.bss.LV_LAYOUT_GRID,"aw",%nobits
 4112              		.align	2
 4113              		.set	.LANCHOR10,. + 0
 4116              	LV_LAYOUT_GRID:
 4117 0000 00000000 		.space	4
 4118              		.section	.bss.LV_STYLE_GRID_CELL_COLUMN_POS,"aw",%nobits
 4119              		.align	1
 4120              		.set	.LANCHOR2,. + 0
 4123              	LV_STYLE_GRID_CELL_COLUMN_POS:
 4124 0000 0000     		.space	2
 4125              		.section	.bss.LV_STYLE_GRID_CELL_COLUMN_SPAN,"aw",%nobits
 4126              		.align	1
 4127              		.set	.LANCHOR0,. + 0
 4130              	LV_STYLE_GRID_CELL_COLUMN_SPAN:
 4131 0000 0000     		.space	2
 4132              		.section	.bss.LV_STYLE_GRID_CELL_ROW_POS,"aw",%nobits
 4133              		.align	1
 4134              		.set	.LANCHOR3,. + 0
 4137              	LV_STYLE_GRID_CELL_ROW_POS:
 4138 0000 0000     		.space	2
 4139              		.section	.bss.LV_STYLE_GRID_CELL_ROW_SPAN,"aw",%nobits
 4140              		.align	1
 4141              		.set	.LANCHOR1,. + 0
 4144              	LV_STYLE_GRID_CELL_ROW_SPAN:
 4145 0000 0000     		.space	2
 4146              		.section	.bss.LV_STYLE_GRID_CELL_X_ALIGN,"aw",%nobits
 4147              		.align	1
 4148              		.set	.LANCHOR4,. + 0
 4151              	LV_STYLE_GRID_CELL_X_ALIGN:
 4152 0000 0000     		.space	2
 4153              		.section	.bss.LV_STYLE_GRID_CELL_Y_ALIGN,"aw",%nobits
 4154              		.align	1
 4155              		.set	.LANCHOR5,. + 0
 4158              	LV_STYLE_GRID_CELL_Y_ALIGN:
 4159 0000 0000     		.space	2
 4160              		.section	.bss.LV_STYLE_GRID_COLUMN_ALIGN,"aw",%nobits
 4161              		.align	1
 4162              		.set	.LANCHOR8,. + 0
 4165              	LV_STYLE_GRID_COLUMN_ALIGN:
 4166 0000 0000     		.space	2
 4167              		.section	.bss.LV_STYLE_GRID_COLUMN_DSC_ARRAY,"aw",%nobits
 4168              		.align	1
 4169              		.set	.LANCHOR7,. + 0
 4172              	LV_STYLE_GRID_COLUMN_DSC_ARRAY:
 4173 0000 0000     		.space	2
 4174              		.section	.bss.LV_STYLE_GRID_ROW_ALIGN,"aw",%nobits
 4175              		.align	1
 4176              		.set	.LANCHOR9,. + 0
 4179              	LV_STYLE_GRID_ROW_ALIGN:
 4180 0000 0000     		.space	2
 4181              		.section	.bss.LV_STYLE_GRID_ROW_DSC_ARRAY,"aw",%nobits
ARM GAS  /tmp/cc3I9fWq.s 			page 116


 4182              		.align	1
 4183              		.set	.LANCHOR6,. + 0
 4186              	LV_STYLE_GRID_ROW_DSC_ARRAY:
 4187 0000 0000     		.space	2
 4188              		.text
 4189              	.Letext0:
 4190              		.file 5 "/home/akinya/gcc-arm-none-eabi/arm-none-eabi/include/machine/_default_types.h"
 4191              		.file 6 "/home/akinya/gcc-arm-none-eabi/arm-none-eabi/include/sys/_stdint.h"
 4192              		.file 7 "Middlewares/lvgl/src/extra/layouts/grid/../flex/../../../core/../misc/lv_color.h"
 4193              		.file 8 "Middlewares/lvgl/src/extra/layouts/grid/../flex/../../../core/../misc/lv_bidi.h"
 4194              		.file 9 "Middlewares/lvgl/src/extra/layouts/grid/../flex/../../../core/../misc/lv_style.h"
 4195              		.file 10 "Middlewares/lvgl/src/extra/layouts/grid/../flex/../../../core/../hal/../misc/lv_ll.h"
 4196              		.file 11 "Middlewares/lvgl/src/extra/layouts/grid/../flex/../../../core/lv_obj.h"
 4197              		.file 12 "Middlewares/lvgl/src/extra/layouts/grid/../flex/../../../core/lv_group.h"
 4198              		.file 13 "Middlewares/lvgl/src/extra/layouts/grid/../flex/../../../core/lv_obj_scroll.h"
 4199              		.file 14 "Middlewares/lvgl/src/extra/layouts/grid/../flex/../../../core/lv_obj_style.h"
 4200              		.file 15 "Middlewares/lvgl/src/extra/layouts/grid/../flex/../../../core/lv_obj_class.h"
 4201              		.file 16 "Middlewares/lvgl/src/extra/layouts/grid/../flex/../../../core/lv_event.h"
 4202              		.file 17 "Middlewares/lvgl/src/extra/layouts/grid/../flex/../../../core/lv_obj_pos.h"
 4203              		.file 18 "Middlewares/lvgl/src/extra/layouts/grid/../flex/../../../core/lv_obj_tree.h"
 4204              		.file 19 "Middlewares/lvgl/src/extra/layouts/grid/../flex/../../../core/../hal/../misc/lv_mem.h"
ARM GAS  /tmp/cc3I9fWq.s 			page 117


DEFINED SYMBOLS
                            *ABS*:0000000000000000 lv_grid.c
     /tmp/cc3I9fWq.s:19     .text.grid_align:0000000000000000 $t
     /tmp/cc3I9fWq.s:24     .text.grid_align:0000000000000000 grid_align
     /tmp/cc3I9fWq.s:144    .text.grid_align:0000000000000060 $d
     /tmp/cc3I9fWq.s:151    .text.grid_align:000000000000007c $t
     /tmp/cc3I9fWq.s:356    .text.count_tracks:0000000000000000 $t
     /tmp/cc3I9fWq.s:361    .text.count_tracks:0000000000000000 count_tracks
     /tmp/cc3I9fWq.s:400    .text.item_repos:0000000000000000 $t
     /tmp/cc3I9fWq.s:405    .text.item_repos:0000000000000000 item_repos
     /tmp/cc3I9fWq.s:1208   .text.item_repos:0000000000000328 $d
     /tmp/cc3I9fWq.s:1219   .text.item_repos:0000000000000344 $t
     /tmp/cc3I9fWq.s:1310   .text.item_repos:00000000000003d4 $d
     /tmp/cc3I9fWq.s:1315   .text.calc_free:0000000000000000 $t
     /tmp/cc3I9fWq.s:1320   .text.calc_free:0000000000000000 calc_free
     /tmp/cc3I9fWq.s:1359   .text.calc_rows:0000000000000000 $t
     /tmp/cc3I9fWq.s:1364   .text.calc_rows:0000000000000000 calc_rows
     /tmp/cc3I9fWq.s:1832   .text.calc_rows:0000000000000164 $d
     /tmp/cc3I9fWq.s:1842   .text.calc_cols:0000000000000000 $t
     /tmp/cc3I9fWq.s:1847   .text.calc_cols:0000000000000000 calc_cols
     /tmp/cc3I9fWq.s:2354   .text.calc_cols:0000000000000184 $d
     /tmp/cc3I9fWq.s:2364   .text.calc:0000000000000000 $t
     /tmp/cc3I9fWq.s:2369   .text.calc:0000000000000000 calc
     /tmp/cc3I9fWq.s:2683   .text.calc:0000000000000130 $d
     /tmp/cc3I9fWq.s:2689   .text.grid_update:0000000000000000 $t
     /tmp/cc3I9fWq.s:2694   .text.grid_update:0000000000000000 grid_update
     /tmp/cc3I9fWq.s:3006   .text.grid_update:00000000000000f4 $d
     /tmp/cc3I9fWq.s:3012   .text.lv_grid_init:0000000000000000 $t
     /tmp/cc3I9fWq.s:3018   .text.lv_grid_init:0000000000000000 lv_grid_init
     /tmp/cc3I9fWq.s:3123   .text.lv_grid_init:0000000000000088 $d
     /tmp/cc3I9fWq.s:3139   .text.lv_style_set_grid_row_dsc_array:0000000000000000 $t
     /tmp/cc3I9fWq.s:3145   .text.lv_style_set_grid_row_dsc_array:0000000000000000 lv_style_set_grid_row_dsc_array
     /tmp/cc3I9fWq.s:3172   .text.lv_style_set_grid_row_dsc_array:0000000000000010 $d
     /tmp/cc3I9fWq.s:3177   .text.lv_style_set_grid_column_dsc_array:0000000000000000 $t
     /tmp/cc3I9fWq.s:3183   .text.lv_style_set_grid_column_dsc_array:0000000000000000 lv_style_set_grid_column_dsc_array
     /tmp/cc3I9fWq.s:3210   .text.lv_style_set_grid_column_dsc_array:0000000000000010 $d
     /tmp/cc3I9fWq.s:3215   .text.lv_style_set_grid_row_align:0000000000000000 $t
     /tmp/cc3I9fWq.s:3221   .text.lv_style_set_grid_row_align:0000000000000000 lv_style_set_grid_row_align
     /tmp/cc3I9fWq.s:3248   .text.lv_style_set_grid_row_align:0000000000000010 $d
     /tmp/cc3I9fWq.s:3253   .text.lv_style_set_grid_column_align:0000000000000000 $t
     /tmp/cc3I9fWq.s:3259   .text.lv_style_set_grid_column_align:0000000000000000 lv_style_set_grid_column_align
     /tmp/cc3I9fWq.s:3286   .text.lv_style_set_grid_column_align:0000000000000010 $d
     /tmp/cc3I9fWq.s:3291   .text.lv_style_set_grid_cell_column_pos:0000000000000000 $t
     /tmp/cc3I9fWq.s:3297   .text.lv_style_set_grid_cell_column_pos:0000000000000000 lv_style_set_grid_cell_column_pos
     /tmp/cc3I9fWq.s:3324   .text.lv_style_set_grid_cell_column_pos:0000000000000010 $d
     /tmp/cc3I9fWq.s:3329   .text.lv_style_set_grid_cell_column_span:0000000000000000 $t
     /tmp/cc3I9fWq.s:3335   .text.lv_style_set_grid_cell_column_span:0000000000000000 lv_style_set_grid_cell_column_span
     /tmp/cc3I9fWq.s:3362   .text.lv_style_set_grid_cell_column_span:0000000000000010 $d
     /tmp/cc3I9fWq.s:3367   .text.lv_style_set_grid_cell_row_pos:0000000000000000 $t
     /tmp/cc3I9fWq.s:3373   .text.lv_style_set_grid_cell_row_pos:0000000000000000 lv_style_set_grid_cell_row_pos
     /tmp/cc3I9fWq.s:3400   .text.lv_style_set_grid_cell_row_pos:0000000000000010 $d
     /tmp/cc3I9fWq.s:3405   .text.lv_style_set_grid_cell_row_span:0000000000000000 $t
     /tmp/cc3I9fWq.s:3411   .text.lv_style_set_grid_cell_row_span:0000000000000000 lv_style_set_grid_cell_row_span
     /tmp/cc3I9fWq.s:3438   .text.lv_style_set_grid_cell_row_span:0000000000000010 $d
     /tmp/cc3I9fWq.s:3443   .text.lv_style_set_grid_cell_x_align:0000000000000000 $t
     /tmp/cc3I9fWq.s:3449   .text.lv_style_set_grid_cell_x_align:0000000000000000 lv_style_set_grid_cell_x_align
     /tmp/cc3I9fWq.s:3476   .text.lv_style_set_grid_cell_x_align:0000000000000010 $d
ARM GAS  /tmp/cc3I9fWq.s 			page 118


     /tmp/cc3I9fWq.s:3481   .text.lv_style_set_grid_cell_y_align:0000000000000000 $t
     /tmp/cc3I9fWq.s:3487   .text.lv_style_set_grid_cell_y_align:0000000000000000 lv_style_set_grid_cell_y_align
     /tmp/cc3I9fWq.s:3514   .text.lv_style_set_grid_cell_y_align:0000000000000010 $d
     /tmp/cc3I9fWq.s:3519   .text.lv_obj_set_style_grid_row_dsc_array:0000000000000000 $t
     /tmp/cc3I9fWq.s:3525   .text.lv_obj_set_style_grid_row_dsc_array:0000000000000000 lv_obj_set_style_grid_row_dsc_array
     /tmp/cc3I9fWq.s:3555   .text.lv_obj_set_style_grid_row_dsc_array:0000000000000010 $d
     /tmp/cc3I9fWq.s:3560   .text.lv_obj_set_style_grid_column_dsc_array:0000000000000000 $t
     /tmp/cc3I9fWq.s:3566   .text.lv_obj_set_style_grid_column_dsc_array:0000000000000000 lv_obj_set_style_grid_column_dsc_array
     /tmp/cc3I9fWq.s:3596   .text.lv_obj_set_style_grid_column_dsc_array:0000000000000010 $d
     /tmp/cc3I9fWq.s:3601   .text.lv_obj_set_grid_dsc_array:0000000000000000 $t
     /tmp/cc3I9fWq.s:3607   .text.lv_obj_set_grid_dsc_array:0000000000000000 lv_obj_set_grid_dsc_array
     /tmp/cc3I9fWq.s:3650   .text.lv_obj_set_grid_dsc_array:0000000000000024 $d
     /tmp/cc3I9fWq.s:3655   .text.lv_obj_set_style_grid_row_align:0000000000000000 $t
     /tmp/cc3I9fWq.s:3661   .text.lv_obj_set_style_grid_row_align:0000000000000000 lv_obj_set_style_grid_row_align
     /tmp/cc3I9fWq.s:3691   .text.lv_obj_set_style_grid_row_align:0000000000000010 $d
     /tmp/cc3I9fWq.s:3696   .text.lv_obj_set_style_grid_column_align:0000000000000000 $t
     /tmp/cc3I9fWq.s:3702   .text.lv_obj_set_style_grid_column_align:0000000000000000 lv_obj_set_style_grid_column_align
     /tmp/cc3I9fWq.s:3732   .text.lv_obj_set_style_grid_column_align:0000000000000010 $d
     /tmp/cc3I9fWq.s:3737   .text.lv_obj_set_grid_align:0000000000000000 $t
     /tmp/cc3I9fWq.s:3743   .text.lv_obj_set_grid_align:0000000000000000 lv_obj_set_grid_align
     /tmp/cc3I9fWq.s:3779   .text.lv_obj_set_style_grid_cell_column_pos:0000000000000000 $t
     /tmp/cc3I9fWq.s:3785   .text.lv_obj_set_style_grid_cell_column_pos:0000000000000000 lv_obj_set_style_grid_cell_column_pos
     /tmp/cc3I9fWq.s:3815   .text.lv_obj_set_style_grid_cell_column_pos:0000000000000010 $d
     /tmp/cc3I9fWq.s:3820   .text.lv_obj_set_style_grid_cell_column_span:0000000000000000 $t
     /tmp/cc3I9fWq.s:3826   .text.lv_obj_set_style_grid_cell_column_span:0000000000000000 lv_obj_set_style_grid_cell_column_span
     /tmp/cc3I9fWq.s:3856   .text.lv_obj_set_style_grid_cell_column_span:0000000000000010 $d
     /tmp/cc3I9fWq.s:3861   .text.lv_obj_set_style_grid_cell_row_pos:0000000000000000 $t
     /tmp/cc3I9fWq.s:3867   .text.lv_obj_set_style_grid_cell_row_pos:0000000000000000 lv_obj_set_style_grid_cell_row_pos
     /tmp/cc3I9fWq.s:3897   .text.lv_obj_set_style_grid_cell_row_pos:0000000000000010 $d
     /tmp/cc3I9fWq.s:3902   .text.lv_obj_set_style_grid_cell_row_span:0000000000000000 $t
     /tmp/cc3I9fWq.s:3908   .text.lv_obj_set_style_grid_cell_row_span:0000000000000000 lv_obj_set_style_grid_cell_row_span
     /tmp/cc3I9fWq.s:3938   .text.lv_obj_set_style_grid_cell_row_span:0000000000000010 $d
     /tmp/cc3I9fWq.s:3943   .text.lv_obj_set_style_grid_cell_x_align:0000000000000000 $t
     /tmp/cc3I9fWq.s:3949   .text.lv_obj_set_style_grid_cell_x_align:0000000000000000 lv_obj_set_style_grid_cell_x_align
     /tmp/cc3I9fWq.s:3979   .text.lv_obj_set_style_grid_cell_x_align:0000000000000010 $d
     /tmp/cc3I9fWq.s:3984   .text.lv_obj_set_style_grid_cell_y_align:0000000000000000 $t
     /tmp/cc3I9fWq.s:3990   .text.lv_obj_set_style_grid_cell_y_align:0000000000000000 lv_obj_set_style_grid_cell_y_align
     /tmp/cc3I9fWq.s:4020   .text.lv_obj_set_style_grid_cell_y_align:0000000000000010 $d
     /tmp/cc3I9fWq.s:4025   .text.lv_obj_set_grid_cell:0000000000000000 $t
     /tmp/cc3I9fWq.s:4031   .text.lv_obj_set_grid_cell:0000000000000000 lv_obj_set_grid_cell
     /tmp/cc3I9fWq.s:4158   .bss.LV_STYLE_GRID_CELL_Y_ALIGN:0000000000000000 LV_STYLE_GRID_CELL_Y_ALIGN
     /tmp/cc3I9fWq.s:4144   .bss.LV_STYLE_GRID_CELL_ROW_SPAN:0000000000000000 LV_STYLE_GRID_CELL_ROW_SPAN
     /tmp/cc3I9fWq.s:4137   .bss.LV_STYLE_GRID_CELL_ROW_POS:0000000000000000 LV_STYLE_GRID_CELL_ROW_POS
     /tmp/cc3I9fWq.s:4151   .bss.LV_STYLE_GRID_CELL_X_ALIGN:0000000000000000 LV_STYLE_GRID_CELL_X_ALIGN
     /tmp/cc3I9fWq.s:4130   .bss.LV_STYLE_GRID_CELL_COLUMN_SPAN:0000000000000000 LV_STYLE_GRID_CELL_COLUMN_SPAN
     /tmp/cc3I9fWq.s:4123   .bss.LV_STYLE_GRID_CELL_COLUMN_POS:0000000000000000 LV_STYLE_GRID_CELL_COLUMN_POS
     /tmp/cc3I9fWq.s:4179   .bss.LV_STYLE_GRID_ROW_ALIGN:0000000000000000 LV_STYLE_GRID_ROW_ALIGN
     /tmp/cc3I9fWq.s:4186   .bss.LV_STYLE_GRID_ROW_DSC_ARRAY:0000000000000000 LV_STYLE_GRID_ROW_DSC_ARRAY
     /tmp/cc3I9fWq.s:4165   .bss.LV_STYLE_GRID_COLUMN_ALIGN:0000000000000000 LV_STYLE_GRID_COLUMN_ALIGN
     /tmp/cc3I9fWq.s:4172   .bss.LV_STYLE_GRID_COLUMN_DSC_ARRAY:0000000000000000 LV_STYLE_GRID_COLUMN_DSC_ARRAY
     /tmp/cc3I9fWq.s:4116   .bss.LV_LAYOUT_GRID:0000000000000000 LV_LAYOUT_GRID
     /tmp/cc3I9fWq.s:4112   .bss.LV_LAYOUT_GRID:0000000000000000 $d
     /tmp/cc3I9fWq.s:4119   .bss.LV_STYLE_GRID_CELL_COLUMN_POS:0000000000000000 $d
     /tmp/cc3I9fWq.s:4126   .bss.LV_STYLE_GRID_CELL_COLUMN_SPAN:0000000000000000 $d
     /tmp/cc3I9fWq.s:4133   .bss.LV_STYLE_GRID_CELL_ROW_POS:0000000000000000 $d
     /tmp/cc3I9fWq.s:4140   .bss.LV_STYLE_GRID_CELL_ROW_SPAN:0000000000000000 $d
     /tmp/cc3I9fWq.s:4147   .bss.LV_STYLE_GRID_CELL_X_ALIGN:0000000000000000 $d
ARM GAS  /tmp/cc3I9fWq.s 			page 119


     /tmp/cc3I9fWq.s:4154   .bss.LV_STYLE_GRID_CELL_Y_ALIGN:0000000000000000 $d
     /tmp/cc3I9fWq.s:4161   .bss.LV_STYLE_GRID_COLUMN_ALIGN:0000000000000000 $d
     /tmp/cc3I9fWq.s:4168   .bss.LV_STYLE_GRID_COLUMN_DSC_ARRAY:0000000000000000 $d
     /tmp/cc3I9fWq.s:4175   .bss.LV_STYLE_GRID_ROW_ALIGN:0000000000000000 $d
     /tmp/cc3I9fWq.s:4182   .bss.LV_STYLE_GRID_ROW_DSC_ARRAY:0000000000000000 $d

UNDEFINED SYMBOLS
lv_obj_has_flag_any
lv_obj_get_style_prop
lv_obj_get_width
lv_obj_invalidate
lv_area_set_width
lv_area_set_height
lv_event_send
lv_obj_get_parent
lv_obj_get_height
lv_obj_move_children_by
lv_mem_buf_release
lv_mem_buf_get
lv_obj_get_child_cnt
lv_obj_get_child
lv_obj_get_content_height
lv_obj_get_content_width
lv_memset_00
lv_obj_get_scroll_x
lv_obj_get_scroll_y
lv_obj_refr_size
lv_layout_register
lv_style_register_prop
lv_style_set_prop
lv_obj_set_local_style_prop
lv_obj_set_style_layout
lv_obj_mark_layout_as_dirty
