ARM GAS  /tmp/ccSOg2Ft.s 			page 1


   1              		.cpu cortex-m7
   2              		.eabi_attribute 28, 1
   3              		.eabi_attribute 20, 1
   4              		.eabi_attribute 21, 1
   5              		.eabi_attribute 23, 3
   6              		.eabi_attribute 24, 1
   7              		.eabi_attribute 25, 1
   8              		.eabi_attribute 26, 1
   9              		.eabi_attribute 30, 1
  10              		.eabi_attribute 34, 1
  11              		.eabi_attribute 18, 4
  12              		.file	"lv_gc.c"
  13              		.text
  14              	.Ltext0:
  15              		.cfi_sections	.debug_frame
  16              		.section	.text._lv_gc_clear_roots,"ax",%progbits
  17              		.align	1
  18              		.global	_lv_gc_clear_roots
  19              		.arch armv7e-m
  20              		.syntax unified
  21              		.thumb
  22              		.thumb_func
  23              		.fpu fpv5-d16
  25              	_lv_gc_clear_roots:
  26              	.LFB23:
  27              		.file 1 "Middlewares/lvgl/src/misc/lv_gc.c"
   1:Middlewares/lvgl/src/misc/lv_gc.c **** /**
   2:Middlewares/lvgl/src/misc/lv_gc.c ****  * @file lv_gc.c
   3:Middlewares/lvgl/src/misc/lv_gc.c ****  *
   4:Middlewares/lvgl/src/misc/lv_gc.c ****  */
   5:Middlewares/lvgl/src/misc/lv_gc.c **** 
   6:Middlewares/lvgl/src/misc/lv_gc.c **** /*********************
   7:Middlewares/lvgl/src/misc/lv_gc.c ****  *      INCLUDES
   8:Middlewares/lvgl/src/misc/lv_gc.c ****  *********************/
   9:Middlewares/lvgl/src/misc/lv_gc.c **** 
  10:Middlewares/lvgl/src/misc/lv_gc.c **** #include "lv_gc.h"
  11:Middlewares/lvgl/src/misc/lv_gc.c **** #include "string.h"
  12:Middlewares/lvgl/src/misc/lv_gc.c **** 
  13:Middlewares/lvgl/src/misc/lv_gc.c **** /*********************
  14:Middlewares/lvgl/src/misc/lv_gc.c ****  *      DEFINES
  15:Middlewares/lvgl/src/misc/lv_gc.c ****  *********************/
  16:Middlewares/lvgl/src/misc/lv_gc.c **** 
  17:Middlewares/lvgl/src/misc/lv_gc.c **** /**********************
  18:Middlewares/lvgl/src/misc/lv_gc.c ****  *      TYPEDEFS
  19:Middlewares/lvgl/src/misc/lv_gc.c ****  **********************/
  20:Middlewares/lvgl/src/misc/lv_gc.c **** 
  21:Middlewares/lvgl/src/misc/lv_gc.c **** /**********************
  22:Middlewares/lvgl/src/misc/lv_gc.c ****  *  STATIC PROTOTYPES
  23:Middlewares/lvgl/src/misc/lv_gc.c ****  **********************/
  24:Middlewares/lvgl/src/misc/lv_gc.c **** 
  25:Middlewares/lvgl/src/misc/lv_gc.c **** /**********************
  26:Middlewares/lvgl/src/misc/lv_gc.c ****  *  STATIC VARIABLES
  27:Middlewares/lvgl/src/misc/lv_gc.c ****  **********************/
  28:Middlewares/lvgl/src/misc/lv_gc.c **** 
  29:Middlewares/lvgl/src/misc/lv_gc.c **** #if(!defined(LV_ENABLE_GC)) || LV_ENABLE_GC == 0
  30:Middlewares/lvgl/src/misc/lv_gc.c ****     LV_ROOTS
  31:Middlewares/lvgl/src/misc/lv_gc.c **** #endif /*LV_ENABLE_GC*/
ARM GAS  /tmp/ccSOg2Ft.s 			page 2


  32:Middlewares/lvgl/src/misc/lv_gc.c **** 
  33:Middlewares/lvgl/src/misc/lv_gc.c **** /**********************
  34:Middlewares/lvgl/src/misc/lv_gc.c ****  *      MACROS
  35:Middlewares/lvgl/src/misc/lv_gc.c ****  **********************/
  36:Middlewares/lvgl/src/misc/lv_gc.c **** 
  37:Middlewares/lvgl/src/misc/lv_gc.c **** /**********************
  38:Middlewares/lvgl/src/misc/lv_gc.c ****  *   GLOBAL FUNCTIONS
  39:Middlewares/lvgl/src/misc/lv_gc.c ****  **********************/
  40:Middlewares/lvgl/src/misc/lv_gc.c **** 
  41:Middlewares/lvgl/src/misc/lv_gc.c **** void _lv_gc_clear_roots(void)
  42:Middlewares/lvgl/src/misc/lv_gc.c **** {
  28              		.loc 1 42 1 view -0
  29              		.cfi_startproc
  30              		@ args = 0, pretend = 0, frame = 0
  31              		@ frame_needed = 0, uses_anonymous_args = 0
  32 0000 08B5     		push	{r3, lr}
  33              	.LCFI0:
  34              		.cfi_def_cfa_offset 8
  35              		.cfi_offset 3, -8
  36              		.cfi_offset 14, -4
  43:Middlewares/lvgl/src/misc/lv_gc.c **** #define LV_CLEAR_ROOT(root_type, root_name) lv_memset_00(&LV_GC_ROOT(root_name), sizeof(LV_GC_ROOT(
  44:Middlewares/lvgl/src/misc/lv_gc.c ****     LV_ITERATE_ROOTS(LV_CLEAR_ROOT)
  37              		.loc 1 44 5 view .LVU1
  38 0002 0C21     		movs	r1, #12
  39 0004 1B48     		ldr	r0, .L3
  40 0006 FFF7FEFF 		bl	lv_memset_00
  41              	.LVL0:
  42              		.loc 1 44 5 view .LVU2
  43 000a 0C21     		movs	r1, #12
  44 000c 1A48     		ldr	r0, .L3+4
  45 000e FFF7FEFF 		bl	lv_memset_00
  46              	.LVL1:
  47              		.loc 1 44 5 view .LVU3
  48 0012 0C21     		movs	r1, #12
  49 0014 1948     		ldr	r0, .L3+8
  50 0016 FFF7FEFF 		bl	lv_memset_00
  51              	.LVL2:
  52              		.loc 1 44 5 view .LVU4
  53 001a 0C21     		movs	r1, #12
  54 001c 1848     		ldr	r0, .L3+12
  55 001e FFF7FEFF 		bl	lv_memset_00
  56              	.LVL3:
  57              		.loc 1 44 5 view .LVU5
  58 0022 0C21     		movs	r1, #12
  59 0024 1748     		ldr	r0, .L3+16
  60 0026 FFF7FEFF 		bl	lv_memset_00
  61              	.LVL4:
  62              		.loc 1 44 5 view .LVU6
  63 002a 0C21     		movs	r1, #12
  64 002c 1648     		ldr	r0, .L3+20
  65 002e FFF7FEFF 		bl	lv_memset_00
  66              	.LVL5:
  67              		.loc 1 44 5 view .LVU7
  68 0032 0C21     		movs	r1, #12
  69 0034 1548     		ldr	r0, .L3+24
  70 0036 FFF7FEFF 		bl	lv_memset_00
  71              	.LVL6:
ARM GAS  /tmp/ccSOg2Ft.s 			page 3


  72              		.loc 1 44 5 view .LVU8
  73 003a 0C21     		movs	r1, #12
  74 003c 1448     		ldr	r0, .L3+28
  75 003e FFF7FEFF 		bl	lv_memset_00
  76              	.LVL7:
  77              		.loc 1 44 5 view .LVU9
  78 0042 0421     		movs	r1, #4
  79 0044 1348     		ldr	r0, .L3+32
  80 0046 FFF7FEFF 		bl	lv_memset_00
  81              	.LVL8:
  82              		.loc 1 44 5 view .LVU10
  83 004a 2C21     		movs	r1, #44
  84 004c 1248     		ldr	r0, .L3+36
  85 004e FFF7FEFF 		bl	lv_memset_00
  86              	.LVL9:
  87              		.loc 1 44 5 view .LVU11
  88 0052 0421     		movs	r1, #4
  89 0054 1148     		ldr	r0, .L3+40
  90 0056 FFF7FEFF 		bl	lv_memset_00
  91              	.LVL10:
  92              		.loc 1 44 5 view .LVU12
  93 005a 8021     		movs	r1, #128
  94 005c 1048     		ldr	r0, .L3+44
  95 005e FFF7FEFF 		bl	lv_memset_00
  96              	.LVL11:
  97              		.loc 1 44 5 view .LVU13
  98 0062 8021     		movs	r1, #128
  99 0064 0F48     		ldr	r0, .L3+48
 100 0066 FFF7FEFF 		bl	lv_memset_00
 101              	.LVL12:
 102              		.loc 1 44 5 view .LVU14
 103 006a 0421     		movs	r1, #4
 104 006c 0E48     		ldr	r0, .L3+52
 105 006e FFF7FEFF 		bl	lv_memset_00
 106              	.LVL13:
  45:Middlewares/lvgl/src/misc/lv_gc.c **** }
 107              		.loc 1 45 1 is_stmt 0 view .LVU15
 108 0072 08BD     		pop	{r3, pc}
 109              	.L4:
 110              		.align	2
 111              	.L3:
 112 0074 00000000 		.word	.LANCHOR0
 113 0078 00000000 		.word	.LANCHOR1
 114 007c 00000000 		.word	.LANCHOR2
 115 0080 00000000 		.word	.LANCHOR3
 116 0084 00000000 		.word	.LANCHOR4
 117 0088 00000000 		.word	.LANCHOR5
 118 008c 00000000 		.word	.LANCHOR6
 119 0090 00000000 		.word	.LANCHOR7
 120 0094 00000000 		.word	.LANCHOR8
 121 0098 00000000 		.word	.LANCHOR9
 122 009c 00000000 		.word	.LANCHOR10
 123 00a0 00000000 		.word	.LANCHOR11
 124 00a4 00000000 		.word	.LANCHOR12
 125 00a8 00000000 		.word	.LANCHOR13
 126              		.cfi_endproc
 127              	.LFE23:
ARM GAS  /tmp/ccSOg2Ft.s 			page 4


 129              		.global	_lv_theme_default_styles
 130              		.global	_lv_draw_mask_list
 131              		.global	lv_mem_buf
 132              		.global	_lv_timer_act
 133              		.global	_lv_img_cache_single
 134              		.global	_lv_layout_list
 135              		.global	_lv_obj_style_trans_ll
 136              		.global	_lv_img_decoder_ll
 137              		.global	_lv_group_ll
 138              		.global	_lv_anim_ll
 139              		.global	_lv_fsdrv_ll
 140              		.global	_lv_indev_ll
 141              		.global	_lv_disp_ll
 142              		.global	_lv_timer_ll
 143              		.section	.bss._lv_anim_ll,"aw",%nobits
 144              		.align	2
 145              		.set	.LANCHOR4,. + 0
 148              	_lv_anim_ll:
 149 0000 00000000 		.space	12
 149      00000000 
 149      00000000 
 150              		.section	.bss._lv_disp_ll,"aw",%nobits
 151              		.align	2
 152              		.set	.LANCHOR1,. + 0
 155              	_lv_disp_ll:
 156 0000 00000000 		.space	12
 156      00000000 
 156      00000000 
 157              		.section	.bss._lv_draw_mask_list,"aw",%nobits
 158              		.align	2
 159              		.set	.LANCHOR12,. + 0
 162              	_lv_draw_mask_list:
 163 0000 00000000 		.space	128
 163      00000000 
 163      00000000 
 163      00000000 
 163      00000000 
 164              		.section	.bss._lv_fsdrv_ll,"aw",%nobits
 165              		.align	2
 166              		.set	.LANCHOR3,. + 0
 169              	_lv_fsdrv_ll:
 170 0000 00000000 		.space	12
 170      00000000 
 170      00000000 
 171              		.section	.bss._lv_group_ll,"aw",%nobits
 172              		.align	2
 173              		.set	.LANCHOR5,. + 0
 176              	_lv_group_ll:
 177 0000 00000000 		.space	12
 177      00000000 
 177      00000000 
 178              		.section	.bss._lv_img_cache_single,"aw",%nobits
 179              		.align	2
 180              		.set	.LANCHOR9,. + 0
 183              	_lv_img_cache_single:
 184 0000 00000000 		.space	44
 184      00000000 
ARM GAS  /tmp/ccSOg2Ft.s 			page 5


 184      00000000 
 184      00000000 
 184      00000000 
 185              		.section	.bss._lv_img_decoder_ll,"aw",%nobits
 186              		.align	2
 187              		.set	.LANCHOR6,. + 0
 190              	_lv_img_decoder_ll:
 191 0000 00000000 		.space	12
 191      00000000 
 191      00000000 
 192              		.section	.bss._lv_indev_ll,"aw",%nobits
 193              		.align	2
 194              		.set	.LANCHOR2,. + 0
 197              	_lv_indev_ll:
 198 0000 00000000 		.space	12
 198      00000000 
 198      00000000 
 199              		.section	.bss._lv_layout_list,"aw",%nobits
 200              		.align	2
 201              		.set	.LANCHOR8,. + 0
 204              	_lv_layout_list:
 205 0000 00000000 		.space	4
 206              		.section	.bss._lv_obj_style_trans_ll,"aw",%nobits
 207              		.align	2
 208              		.set	.LANCHOR7,. + 0
 211              	_lv_obj_style_trans_ll:
 212 0000 00000000 		.space	12
 212      00000000 
 212      00000000 
 213              		.section	.bss._lv_theme_default_styles,"aw",%nobits
 214              		.align	2
 215              		.set	.LANCHOR13,. + 0
 218              	_lv_theme_default_styles:
 219 0000 00000000 		.space	4
 220              		.section	.bss._lv_timer_act,"aw",%nobits
 221              		.align	2
 222              		.set	.LANCHOR10,. + 0
 225              	_lv_timer_act:
 226 0000 00000000 		.space	4
 227              		.section	.bss._lv_timer_ll,"aw",%nobits
 228              		.align	2
 229              		.set	.LANCHOR0,. + 0
 232              	_lv_timer_ll:
 233 0000 00000000 		.space	12
 233      00000000 
 233      00000000 
 234              		.section	.bss.lv_mem_buf,"aw",%nobits
 235              		.align	2
 236              		.set	.LANCHOR11,. + 0
 239              	lv_mem_buf:
 240 0000 00000000 		.space	128
 240      00000000 
 240      00000000 
 240      00000000 
 240      00000000 
 241              		.text
 242              	.Letext0:
ARM GAS  /tmp/ccSOg2Ft.s 			page 6


 243              		.file 2 "/home/akinya/gcc-arm-none-eabi/arm-none-eabi/include/machine/_default_types.h"
 244              		.file 3 "/home/akinya/gcc-arm-none-eabi/arm-none-eabi/include/sys/_stdint.h"
 245              		.file 4 "Middlewares/lvgl/src/misc/lv_types.h"
 246              		.file 5 "Middlewares/lvgl/src/misc/lv_mem.h"
 247              		.file 6 "Middlewares/lvgl/src/misc/lv_ll.h"
 248              		.file 7 "Middlewares/lvgl/src/misc/lv_timer.h"
 249              		.file 8 "Middlewares/lvgl/src/misc/../draw/../misc/lv_color.h"
 250              		.file 9 "Middlewares/lvgl/src/misc/../draw/../misc/lv_area.h"
 251              		.file 10 "Middlewares/lvgl/src/misc/../draw/lv_img_buf.h"
 252              		.file 11 "Middlewares/lvgl/src/misc/../draw/lv_img_decoder.h"
 253              		.file 12 "Middlewares/lvgl/src/misc/../draw/lv_img_cache.h"
 254              		.file 13 "Middlewares/lvgl/src/misc/../draw/lv_draw_mask.h"
 255              		.file 14 "Middlewares/lvgl/src/misc/../core/lv_obj_pos.h"
 256              		.file 15 "Middlewares/lvgl/src/misc/lv_gc.h"
ARM GAS  /tmp/ccSOg2Ft.s 			page 7


DEFINED SYMBOLS
                            *ABS*:0000000000000000 lv_gc.c
     /tmp/ccSOg2Ft.s:17     .text._lv_gc_clear_roots:0000000000000000 $t
     /tmp/ccSOg2Ft.s:25     .text._lv_gc_clear_roots:0000000000000000 _lv_gc_clear_roots
     /tmp/ccSOg2Ft.s:112    .text._lv_gc_clear_roots:0000000000000074 $d
     /tmp/ccSOg2Ft.s:218    .bss._lv_theme_default_styles:0000000000000000 _lv_theme_default_styles
     /tmp/ccSOg2Ft.s:162    .bss._lv_draw_mask_list:0000000000000000 _lv_draw_mask_list
     /tmp/ccSOg2Ft.s:239    .bss.lv_mem_buf:0000000000000000 lv_mem_buf
     /tmp/ccSOg2Ft.s:225    .bss._lv_timer_act:0000000000000000 _lv_timer_act
     /tmp/ccSOg2Ft.s:183    .bss._lv_img_cache_single:0000000000000000 _lv_img_cache_single
     /tmp/ccSOg2Ft.s:204    .bss._lv_layout_list:0000000000000000 _lv_layout_list
     /tmp/ccSOg2Ft.s:211    .bss._lv_obj_style_trans_ll:0000000000000000 _lv_obj_style_trans_ll
     /tmp/ccSOg2Ft.s:190    .bss._lv_img_decoder_ll:0000000000000000 _lv_img_decoder_ll
     /tmp/ccSOg2Ft.s:176    .bss._lv_group_ll:0000000000000000 _lv_group_ll
     /tmp/ccSOg2Ft.s:148    .bss._lv_anim_ll:0000000000000000 _lv_anim_ll
     /tmp/ccSOg2Ft.s:169    .bss._lv_fsdrv_ll:0000000000000000 _lv_fsdrv_ll
     /tmp/ccSOg2Ft.s:197    .bss._lv_indev_ll:0000000000000000 _lv_indev_ll
     /tmp/ccSOg2Ft.s:155    .bss._lv_disp_ll:0000000000000000 _lv_disp_ll
     /tmp/ccSOg2Ft.s:232    .bss._lv_timer_ll:0000000000000000 _lv_timer_ll
     /tmp/ccSOg2Ft.s:144    .bss._lv_anim_ll:0000000000000000 $d
     /tmp/ccSOg2Ft.s:151    .bss._lv_disp_ll:0000000000000000 $d
     /tmp/ccSOg2Ft.s:158    .bss._lv_draw_mask_list:0000000000000000 $d
     /tmp/ccSOg2Ft.s:165    .bss._lv_fsdrv_ll:0000000000000000 $d
     /tmp/ccSOg2Ft.s:172    .bss._lv_group_ll:0000000000000000 $d
     /tmp/ccSOg2Ft.s:179    .bss._lv_img_cache_single:0000000000000000 $d
     /tmp/ccSOg2Ft.s:186    .bss._lv_img_decoder_ll:0000000000000000 $d
     /tmp/ccSOg2Ft.s:193    .bss._lv_indev_ll:0000000000000000 $d
     /tmp/ccSOg2Ft.s:200    .bss._lv_layout_list:0000000000000000 $d
     /tmp/ccSOg2Ft.s:207    .bss._lv_obj_style_trans_ll:0000000000000000 $d
     /tmp/ccSOg2Ft.s:214    .bss._lv_theme_default_styles:0000000000000000 $d
     /tmp/ccSOg2Ft.s:221    .bss._lv_timer_act:0000000000000000 $d
     /tmp/ccSOg2Ft.s:228    .bss._lv_timer_ll:0000000000000000 $d
     /tmp/ccSOg2Ft.s:235    .bss.lv_mem_buf:0000000000000000 $d

UNDEFINED SYMBOLS
lv_memset_00
