ARM GAS  /tmp/ccRzkyyJ.s 			page 1


   1              		.cpu cortex-m7
   2              		.eabi_attribute 28, 1
   3              		.eabi_attribute 20, 1
   4              		.eabi_attribute 21, 1
   5              		.eabi_attribute 23, 3
   6              		.eabi_attribute 24, 1
   7              		.eabi_attribute 25, 1
   8              		.eabi_attribute 26, 1
   9              		.eabi_attribute 30, 1
  10              		.eabi_attribute 34, 1
  11              		.eabi_attribute 18, 4
  12              		.file	"lv_grid.c"
  13              		.text
  14              	.Ltext0:
  15              		.cfi_sections	.debug_frame
  16              		.section	.text.grid_align,"ax",%progbits
  17              		.align	1
  18              		.arch armv7e-m
  19              		.syntax unified
  20              		.thumb
  21              		.thumb_func
  22              		.fpu fpv5-d16
  24              	grid_align:
  25              	.LVL0:
  26              	.LFB203:
  27              		.file 1 "Middlewares/lvgl/src/extra/layouts/grid/lv_grid.c"
   1:Middlewares/lvgl/src/extra/layouts/grid/lv_grid.c **** /**
   2:Middlewares/lvgl/src/extra/layouts/grid/lv_grid.c ****  * @file lv_grid.c
   3:Middlewares/lvgl/src/extra/layouts/grid/lv_grid.c ****  *
   4:Middlewares/lvgl/src/extra/layouts/grid/lv_grid.c ****  */
   5:Middlewares/lvgl/src/extra/layouts/grid/lv_grid.c **** 
   6:Middlewares/lvgl/src/extra/layouts/grid/lv_grid.c **** /*********************
   7:Middlewares/lvgl/src/extra/layouts/grid/lv_grid.c ****  *      INCLUDES
   8:Middlewares/lvgl/src/extra/layouts/grid/lv_grid.c ****  *********************/
   9:Middlewares/lvgl/src/extra/layouts/grid/lv_grid.c **** #include "../lv_layouts.h"
  10:Middlewares/lvgl/src/extra/layouts/grid/lv_grid.c **** 
  11:Middlewares/lvgl/src/extra/layouts/grid/lv_grid.c **** #if LV_USE_GRID
  12:Middlewares/lvgl/src/extra/layouts/grid/lv_grid.c **** 
  13:Middlewares/lvgl/src/extra/layouts/grid/lv_grid.c **** /*********************
  14:Middlewares/lvgl/src/extra/layouts/grid/lv_grid.c ****  *      DEFINES
  15:Middlewares/lvgl/src/extra/layouts/grid/lv_grid.c ****  *********************/
  16:Middlewares/lvgl/src/extra/layouts/grid/lv_grid.c **** /**
  17:Middlewares/lvgl/src/extra/layouts/grid/lv_grid.c ****  * Some helper defines
  18:Middlewares/lvgl/src/extra/layouts/grid/lv_grid.c ****  */
  19:Middlewares/lvgl/src/extra/layouts/grid/lv_grid.c **** #define IS_FR(x)       (x >= LV_COORD_MAX - 100)
  20:Middlewares/lvgl/src/extra/layouts/grid/lv_grid.c **** #define IS_CONTENT(x)  (x == LV_COORD_MAX - 101)
  21:Middlewares/lvgl/src/extra/layouts/grid/lv_grid.c **** #define GET_FR(x)      (x - (LV_COORD_MAX - 100))
  22:Middlewares/lvgl/src/extra/layouts/grid/lv_grid.c **** 
  23:Middlewares/lvgl/src/extra/layouts/grid/lv_grid.c **** /**********************
  24:Middlewares/lvgl/src/extra/layouts/grid/lv_grid.c ****  *      TYPEDEFS
  25:Middlewares/lvgl/src/extra/layouts/grid/lv_grid.c ****  **********************/
  26:Middlewares/lvgl/src/extra/layouts/grid/lv_grid.c **** typedef struct {
  27:Middlewares/lvgl/src/extra/layouts/grid/lv_grid.c ****     uint32_t col;
  28:Middlewares/lvgl/src/extra/layouts/grid/lv_grid.c ****     uint32_t row;
  29:Middlewares/lvgl/src/extra/layouts/grid/lv_grid.c ****     lv_point_t grid_abs;
  30:Middlewares/lvgl/src/extra/layouts/grid/lv_grid.c **** }item_repos_hint_t;
  31:Middlewares/lvgl/src/extra/layouts/grid/lv_grid.c **** 
ARM GAS  /tmp/ccRzkyyJ.s 			page 2


  32:Middlewares/lvgl/src/extra/layouts/grid/lv_grid.c **** typedef struct {
  33:Middlewares/lvgl/src/extra/layouts/grid/lv_grid.c ****     lv_coord_t * x;
  34:Middlewares/lvgl/src/extra/layouts/grid/lv_grid.c ****     lv_coord_t * y;
  35:Middlewares/lvgl/src/extra/layouts/grid/lv_grid.c ****     lv_coord_t * w;
  36:Middlewares/lvgl/src/extra/layouts/grid/lv_grid.c ****     lv_coord_t * h;
  37:Middlewares/lvgl/src/extra/layouts/grid/lv_grid.c ****     uint32_t col_num;
  38:Middlewares/lvgl/src/extra/layouts/grid/lv_grid.c ****     uint32_t row_num;
  39:Middlewares/lvgl/src/extra/layouts/grid/lv_grid.c ****     lv_coord_t grid_w;
  40:Middlewares/lvgl/src/extra/layouts/grid/lv_grid.c ****     lv_coord_t grid_h;
  41:Middlewares/lvgl/src/extra/layouts/grid/lv_grid.c **** }_lv_grid_calc_t;
  42:Middlewares/lvgl/src/extra/layouts/grid/lv_grid.c **** 
  43:Middlewares/lvgl/src/extra/layouts/grid/lv_grid.c **** 
  44:Middlewares/lvgl/src/extra/layouts/grid/lv_grid.c **** /**********************
  45:Middlewares/lvgl/src/extra/layouts/grid/lv_grid.c ****  *  GLOBAL PROTOTYPES
  46:Middlewares/lvgl/src/extra/layouts/grid/lv_grid.c ****  **********************/
  47:Middlewares/lvgl/src/extra/layouts/grid/lv_grid.c **** 
  48:Middlewares/lvgl/src/extra/layouts/grid/lv_grid.c **** /**********************
  49:Middlewares/lvgl/src/extra/layouts/grid/lv_grid.c ****  *  STATIC PROTOTYPES
  50:Middlewares/lvgl/src/extra/layouts/grid/lv_grid.c ****  **********************/
  51:Middlewares/lvgl/src/extra/layouts/grid/lv_grid.c **** static void grid_update(lv_obj_t * cont, void * user_data);
  52:Middlewares/lvgl/src/extra/layouts/grid/lv_grid.c **** static void calc(lv_obj_t * obj, _lv_grid_calc_t * calc);
  53:Middlewares/lvgl/src/extra/layouts/grid/lv_grid.c **** static void calc_free(_lv_grid_calc_t * calc);
  54:Middlewares/lvgl/src/extra/layouts/grid/lv_grid.c **** static void calc_cols(lv_obj_t * cont, _lv_grid_calc_t * c);
  55:Middlewares/lvgl/src/extra/layouts/grid/lv_grid.c **** static void calc_rows(lv_obj_t * cont, _lv_grid_calc_t * c);
  56:Middlewares/lvgl/src/extra/layouts/grid/lv_grid.c **** static void item_repos(lv_obj_t * item, _lv_grid_calc_t * c, item_repos_hint_t * hint);
  57:Middlewares/lvgl/src/extra/layouts/grid/lv_grid.c **** static lv_coord_t grid_align(lv_coord_t cont_size,  bool auto_size, uint8_t align, lv_coord_t gap, 
  58:Middlewares/lvgl/src/extra/layouts/grid/lv_grid.c **** static uint32_t count_tracks(const lv_coord_t * templ);
  59:Middlewares/lvgl/src/extra/layouts/grid/lv_grid.c **** 
  60:Middlewares/lvgl/src/extra/layouts/grid/lv_grid.c **** static inline const lv_coord_t * get_col_dsc(lv_obj_t * obj) {return lv_obj_get_style_grid_column_d
  61:Middlewares/lvgl/src/extra/layouts/grid/lv_grid.c **** static inline const lv_coord_t * get_row_dsc(lv_obj_t * obj) {return lv_obj_get_style_grid_row_dsc_
  62:Middlewares/lvgl/src/extra/layouts/grid/lv_grid.c **** static inline uint8_t get_col_pos(lv_obj_t * obj) {return lv_obj_get_style_grid_cell_column_pos(obj
  63:Middlewares/lvgl/src/extra/layouts/grid/lv_grid.c **** static inline uint8_t get_row_pos(lv_obj_t * obj) {return lv_obj_get_style_grid_cell_row_pos(obj, 0
  64:Middlewares/lvgl/src/extra/layouts/grid/lv_grid.c **** static inline uint8_t get_col_span(lv_obj_t * obj) {return lv_obj_get_style_grid_cell_column_span(o
  65:Middlewares/lvgl/src/extra/layouts/grid/lv_grid.c **** static inline uint8_t get_row_span(lv_obj_t * obj) {return lv_obj_get_style_grid_cell_row_span(obj,
  66:Middlewares/lvgl/src/extra/layouts/grid/lv_grid.c **** static inline uint8_t get_cell_col_align(lv_obj_t * obj) {return lv_obj_get_style_grid_cell_x_align
  67:Middlewares/lvgl/src/extra/layouts/grid/lv_grid.c **** static inline uint8_t get_cell_row_align(lv_obj_t * obj) {return lv_obj_get_style_grid_cell_y_align
  68:Middlewares/lvgl/src/extra/layouts/grid/lv_grid.c **** static inline uint8_t get_grid_col_align(lv_obj_t * obj) {return lv_obj_get_style_grid_column_align
  69:Middlewares/lvgl/src/extra/layouts/grid/lv_grid.c **** static inline uint8_t get_grid_row_align(lv_obj_t * obj) {return lv_obj_get_style_grid_row_align(ob
  70:Middlewares/lvgl/src/extra/layouts/grid/lv_grid.c **** 
  71:Middlewares/lvgl/src/extra/layouts/grid/lv_grid.c **** /**********************
  72:Middlewares/lvgl/src/extra/layouts/grid/lv_grid.c ****  *  GLOBAL VARIABLES
  73:Middlewares/lvgl/src/extra/layouts/grid/lv_grid.c ****  **********************/
  74:Middlewares/lvgl/src/extra/layouts/grid/lv_grid.c **** uint32_t LV_LAYOUT_GRID;
  75:Middlewares/lvgl/src/extra/layouts/grid/lv_grid.c **** lv_style_prop_t LV_STYLE_GRID_COLUMN_DSC_ARRAY;
  76:Middlewares/lvgl/src/extra/layouts/grid/lv_grid.c **** lv_style_prop_t LV_STYLE_GRID_COLUMN_ALIGN;
  77:Middlewares/lvgl/src/extra/layouts/grid/lv_grid.c **** lv_style_prop_t LV_STYLE_GRID_ROW_DSC_ARRAY;
  78:Middlewares/lvgl/src/extra/layouts/grid/lv_grid.c **** lv_style_prop_t LV_STYLE_GRID_ROW_ALIGN;
  79:Middlewares/lvgl/src/extra/layouts/grid/lv_grid.c **** lv_style_prop_t LV_STYLE_GRID_CELL_COLUMN_POS;
  80:Middlewares/lvgl/src/extra/layouts/grid/lv_grid.c **** lv_style_prop_t LV_STYLE_GRID_CELL_COLUMN_SPAN;
  81:Middlewares/lvgl/src/extra/layouts/grid/lv_grid.c **** lv_style_prop_t LV_STYLE_GRID_CELL_X_ALIGN;
  82:Middlewares/lvgl/src/extra/layouts/grid/lv_grid.c **** lv_style_prop_t LV_STYLE_GRID_CELL_ROW_POS;
  83:Middlewares/lvgl/src/extra/layouts/grid/lv_grid.c **** lv_style_prop_t LV_STYLE_GRID_CELL_ROW_SPAN;
  84:Middlewares/lvgl/src/extra/layouts/grid/lv_grid.c **** lv_style_prop_t LV_STYLE_GRID_CELL_Y_ALIGN;
  85:Middlewares/lvgl/src/extra/layouts/grid/lv_grid.c **** 
  86:Middlewares/lvgl/src/extra/layouts/grid/lv_grid.c **** /**********************
  87:Middlewares/lvgl/src/extra/layouts/grid/lv_grid.c ****  *  STATIC VARIABLES
  88:Middlewares/lvgl/src/extra/layouts/grid/lv_grid.c ****  **********************/
ARM GAS  /tmp/ccRzkyyJ.s 			page 3


  89:Middlewares/lvgl/src/extra/layouts/grid/lv_grid.c **** 
  90:Middlewares/lvgl/src/extra/layouts/grid/lv_grid.c **** /**********************
  91:Middlewares/lvgl/src/extra/layouts/grid/lv_grid.c ****  *      MACROS
  92:Middlewares/lvgl/src/extra/layouts/grid/lv_grid.c ****  **********************/
  93:Middlewares/lvgl/src/extra/layouts/grid/lv_grid.c **** 
  94:Middlewares/lvgl/src/extra/layouts/grid/lv_grid.c **** /**********************
  95:Middlewares/lvgl/src/extra/layouts/grid/lv_grid.c ****  *   GLOBAL FUNCTIONS
  96:Middlewares/lvgl/src/extra/layouts/grid/lv_grid.c ****  **********************/
  97:Middlewares/lvgl/src/extra/layouts/grid/lv_grid.c **** 
  98:Middlewares/lvgl/src/extra/layouts/grid/lv_grid.c **** 
  99:Middlewares/lvgl/src/extra/layouts/grid/lv_grid.c **** void lv_grid_init(void)
 100:Middlewares/lvgl/src/extra/layouts/grid/lv_grid.c **** {
 101:Middlewares/lvgl/src/extra/layouts/grid/lv_grid.c ****     LV_LAYOUT_GRID = lv_layout_register(grid_update, NULL);
 102:Middlewares/lvgl/src/extra/layouts/grid/lv_grid.c **** 
 103:Middlewares/lvgl/src/extra/layouts/grid/lv_grid.c ****     LV_STYLE_GRID_COLUMN_DSC_ARRAY = lv_style_register_prop() | LV_STYLE_PROP_LAYOUT_REFR;
 104:Middlewares/lvgl/src/extra/layouts/grid/lv_grid.c ****     LV_STYLE_GRID_ROW_DSC_ARRAY = lv_style_register_prop() | LV_STYLE_PROP_LAYOUT_REFR;
 105:Middlewares/lvgl/src/extra/layouts/grid/lv_grid.c ****     LV_STYLE_GRID_COLUMN_ALIGN = lv_style_register_prop() | LV_STYLE_PROP_LAYOUT_REFR;
 106:Middlewares/lvgl/src/extra/layouts/grid/lv_grid.c ****     LV_STYLE_GRID_ROW_ALIGN = lv_style_register_prop() | LV_STYLE_PROP_LAYOUT_REFR;
 107:Middlewares/lvgl/src/extra/layouts/grid/lv_grid.c **** 
 108:Middlewares/lvgl/src/extra/layouts/grid/lv_grid.c ****     LV_STYLE_GRID_CELL_ROW_SPAN = lv_style_register_prop() | LV_STYLE_PROP_LAYOUT_REFR;
 109:Middlewares/lvgl/src/extra/layouts/grid/lv_grid.c ****     LV_STYLE_GRID_CELL_ROW_POS = lv_style_register_prop() | LV_STYLE_PROP_LAYOUT_REFR;
 110:Middlewares/lvgl/src/extra/layouts/grid/lv_grid.c ****     LV_STYLE_GRID_CELL_COLUMN_SPAN = lv_style_register_prop() | LV_STYLE_PROP_LAYOUT_REFR;
 111:Middlewares/lvgl/src/extra/layouts/grid/lv_grid.c ****     LV_STYLE_GRID_CELL_COLUMN_POS = lv_style_register_prop() | LV_STYLE_PROP_LAYOUT_REFR;
 112:Middlewares/lvgl/src/extra/layouts/grid/lv_grid.c ****     LV_STYLE_GRID_CELL_X_ALIGN = lv_style_register_prop() | LV_STYLE_PROP_LAYOUT_REFR;
 113:Middlewares/lvgl/src/extra/layouts/grid/lv_grid.c ****     LV_STYLE_GRID_CELL_Y_ALIGN = lv_style_register_prop() | LV_STYLE_PROP_LAYOUT_REFR;
 114:Middlewares/lvgl/src/extra/layouts/grid/lv_grid.c **** }
 115:Middlewares/lvgl/src/extra/layouts/grid/lv_grid.c **** 
 116:Middlewares/lvgl/src/extra/layouts/grid/lv_grid.c **** void lv_obj_set_grid_dsc_array(lv_obj_t * obj, const lv_coord_t col_dsc[], const lv_coord_t row_dsc
 117:Middlewares/lvgl/src/extra/layouts/grid/lv_grid.c **** {
 118:Middlewares/lvgl/src/extra/layouts/grid/lv_grid.c ****     lv_obj_set_style_grid_column_dsc_array(obj, col_dsc, 0);
 119:Middlewares/lvgl/src/extra/layouts/grid/lv_grid.c ****     lv_obj_set_style_grid_row_dsc_array(obj, row_dsc, 0);
 120:Middlewares/lvgl/src/extra/layouts/grid/lv_grid.c ****     lv_obj_set_style_layout(obj, LV_LAYOUT_GRID, 0);
 121:Middlewares/lvgl/src/extra/layouts/grid/lv_grid.c **** }
 122:Middlewares/lvgl/src/extra/layouts/grid/lv_grid.c **** 
 123:Middlewares/lvgl/src/extra/layouts/grid/lv_grid.c **** void lv_obj_set_grid_align(lv_obj_t * obj, lv_grid_align_t column_align, lv_grid_align_t row_align)
 124:Middlewares/lvgl/src/extra/layouts/grid/lv_grid.c **** {
 125:Middlewares/lvgl/src/extra/layouts/grid/lv_grid.c ****     lv_obj_set_style_grid_column_align(obj, column_align, 0);
 126:Middlewares/lvgl/src/extra/layouts/grid/lv_grid.c ****     lv_obj_set_style_grid_row_align(obj, row_align, 0);
 127:Middlewares/lvgl/src/extra/layouts/grid/lv_grid.c **** 
 128:Middlewares/lvgl/src/extra/layouts/grid/lv_grid.c **** }
 129:Middlewares/lvgl/src/extra/layouts/grid/lv_grid.c **** 
 130:Middlewares/lvgl/src/extra/layouts/grid/lv_grid.c **** void lv_obj_set_grid_cell(lv_obj_t * obj, lv_grid_align_t x_align, uint8_t col_pos, uint8_t col_spa
 131:Middlewares/lvgl/src/extra/layouts/grid/lv_grid.c ****                                           lv_grid_align_t y_align, uint8_t row_pos, uint8_t row_spa
 132:Middlewares/lvgl/src/extra/layouts/grid/lv_grid.c **** 
 133:Middlewares/lvgl/src/extra/layouts/grid/lv_grid.c **** {
 134:Middlewares/lvgl/src/extra/layouts/grid/lv_grid.c ****     lv_obj_set_style_grid_cell_column_pos(obj, col_pos, 0);
 135:Middlewares/lvgl/src/extra/layouts/grid/lv_grid.c ****     lv_obj_set_style_grid_cell_row_pos(obj, row_pos, 0);
 136:Middlewares/lvgl/src/extra/layouts/grid/lv_grid.c ****     lv_obj_set_style_grid_cell_x_align(obj, x_align, 0);
 137:Middlewares/lvgl/src/extra/layouts/grid/lv_grid.c ****     lv_obj_set_style_grid_cell_column_span(obj, col_span, 0);
 138:Middlewares/lvgl/src/extra/layouts/grid/lv_grid.c ****     lv_obj_set_style_grid_cell_row_span(obj, row_span, 0);
 139:Middlewares/lvgl/src/extra/layouts/grid/lv_grid.c ****     lv_obj_set_style_grid_cell_y_align(obj, y_align, 0);
 140:Middlewares/lvgl/src/extra/layouts/grid/lv_grid.c **** 
 141:Middlewares/lvgl/src/extra/layouts/grid/lv_grid.c ****     lv_obj_mark_layout_as_dirty(lv_obj_get_parent(obj));
 142:Middlewares/lvgl/src/extra/layouts/grid/lv_grid.c **** }
 143:Middlewares/lvgl/src/extra/layouts/grid/lv_grid.c **** 
 144:Middlewares/lvgl/src/extra/layouts/grid/lv_grid.c **** 
 145:Middlewares/lvgl/src/extra/layouts/grid/lv_grid.c **** void lv_style_set_grid_row_dsc_array(lv_style_t * style, const lv_coord_t value[])
ARM GAS  /tmp/ccRzkyyJ.s 			page 4


 146:Middlewares/lvgl/src/extra/layouts/grid/lv_grid.c **** {
 147:Middlewares/lvgl/src/extra/layouts/grid/lv_grid.c ****     lv_style_value_t v = {
 148:Middlewares/lvgl/src/extra/layouts/grid/lv_grid.c ****         .ptr = (const void *)value
 149:Middlewares/lvgl/src/extra/layouts/grid/lv_grid.c ****     };
 150:Middlewares/lvgl/src/extra/layouts/grid/lv_grid.c ****     lv_style_set_prop(style, LV_STYLE_GRID_ROW_DSC_ARRAY, v);
 151:Middlewares/lvgl/src/extra/layouts/grid/lv_grid.c **** }
 152:Middlewares/lvgl/src/extra/layouts/grid/lv_grid.c **** 
 153:Middlewares/lvgl/src/extra/layouts/grid/lv_grid.c **** void lv_style_set_grid_column_dsc_array(lv_style_t * style, const lv_coord_t value[])
 154:Middlewares/lvgl/src/extra/layouts/grid/lv_grid.c **** {
 155:Middlewares/lvgl/src/extra/layouts/grid/lv_grid.c ****     lv_style_value_t v = {
 156:Middlewares/lvgl/src/extra/layouts/grid/lv_grid.c ****         .ptr = (const void *)value
 157:Middlewares/lvgl/src/extra/layouts/grid/lv_grid.c ****     };
 158:Middlewares/lvgl/src/extra/layouts/grid/lv_grid.c ****     lv_style_set_prop(style, LV_STYLE_GRID_COLUMN_DSC_ARRAY, v);
 159:Middlewares/lvgl/src/extra/layouts/grid/lv_grid.c **** }
 160:Middlewares/lvgl/src/extra/layouts/grid/lv_grid.c **** 
 161:Middlewares/lvgl/src/extra/layouts/grid/lv_grid.c **** void lv_style_set_grid_row_align(lv_style_t * style, lv_grid_align_t value)
 162:Middlewares/lvgl/src/extra/layouts/grid/lv_grid.c **** {
 163:Middlewares/lvgl/src/extra/layouts/grid/lv_grid.c ****     lv_style_value_t v = {
 164:Middlewares/lvgl/src/extra/layouts/grid/lv_grid.c ****         .num = (lv_grid_align_t)value
 165:Middlewares/lvgl/src/extra/layouts/grid/lv_grid.c ****     };
 166:Middlewares/lvgl/src/extra/layouts/grid/lv_grid.c ****     lv_style_set_prop(style, LV_STYLE_GRID_ROW_ALIGN, v);
 167:Middlewares/lvgl/src/extra/layouts/grid/lv_grid.c **** }
 168:Middlewares/lvgl/src/extra/layouts/grid/lv_grid.c **** 
 169:Middlewares/lvgl/src/extra/layouts/grid/lv_grid.c **** void lv_style_set_grid_column_align(lv_style_t * style, lv_grid_align_t value)
 170:Middlewares/lvgl/src/extra/layouts/grid/lv_grid.c **** {
 171:Middlewares/lvgl/src/extra/layouts/grid/lv_grid.c ****     lv_style_value_t v = {
 172:Middlewares/lvgl/src/extra/layouts/grid/lv_grid.c ****         .num = (lv_grid_align_t)value
 173:Middlewares/lvgl/src/extra/layouts/grid/lv_grid.c ****     };
 174:Middlewares/lvgl/src/extra/layouts/grid/lv_grid.c ****     lv_style_set_prop(style, LV_STYLE_GRID_COLUMN_ALIGN, v);
 175:Middlewares/lvgl/src/extra/layouts/grid/lv_grid.c **** }
 176:Middlewares/lvgl/src/extra/layouts/grid/lv_grid.c **** 
 177:Middlewares/lvgl/src/extra/layouts/grid/lv_grid.c **** 
 178:Middlewares/lvgl/src/extra/layouts/grid/lv_grid.c **** void lv_style_set_grid_cell_column_pos(lv_style_t * style, lv_coord_t value)
 179:Middlewares/lvgl/src/extra/layouts/grid/lv_grid.c **** {
 180:Middlewares/lvgl/src/extra/layouts/grid/lv_grid.c ****     lv_style_value_t v = {
 181:Middlewares/lvgl/src/extra/layouts/grid/lv_grid.c ****         .num = value
 182:Middlewares/lvgl/src/extra/layouts/grid/lv_grid.c ****     };
 183:Middlewares/lvgl/src/extra/layouts/grid/lv_grid.c ****     lv_style_set_prop(style, LV_STYLE_GRID_CELL_COLUMN_POS, v);
 184:Middlewares/lvgl/src/extra/layouts/grid/lv_grid.c **** }
 185:Middlewares/lvgl/src/extra/layouts/grid/lv_grid.c **** 
 186:Middlewares/lvgl/src/extra/layouts/grid/lv_grid.c **** void lv_style_set_grid_cell_column_span(lv_style_t * style, lv_coord_t value)
 187:Middlewares/lvgl/src/extra/layouts/grid/lv_grid.c **** {
 188:Middlewares/lvgl/src/extra/layouts/grid/lv_grid.c ****     lv_style_value_t v = {
 189:Middlewares/lvgl/src/extra/layouts/grid/lv_grid.c ****         .num = value
 190:Middlewares/lvgl/src/extra/layouts/grid/lv_grid.c ****     };
 191:Middlewares/lvgl/src/extra/layouts/grid/lv_grid.c ****     lv_style_set_prop(style, LV_STYLE_GRID_CELL_COLUMN_SPAN, v);
 192:Middlewares/lvgl/src/extra/layouts/grid/lv_grid.c **** }
 193:Middlewares/lvgl/src/extra/layouts/grid/lv_grid.c **** 
 194:Middlewares/lvgl/src/extra/layouts/grid/lv_grid.c **** void lv_style_set_grid_cell_row_pos(lv_style_t * style, lv_coord_t value)
 195:Middlewares/lvgl/src/extra/layouts/grid/lv_grid.c **** {
 196:Middlewares/lvgl/src/extra/layouts/grid/lv_grid.c ****     lv_style_value_t v = {
 197:Middlewares/lvgl/src/extra/layouts/grid/lv_grid.c ****         .num = value
 198:Middlewares/lvgl/src/extra/layouts/grid/lv_grid.c ****     };
 199:Middlewares/lvgl/src/extra/layouts/grid/lv_grid.c ****     lv_style_set_prop(style, LV_STYLE_GRID_CELL_ROW_POS, v);
 200:Middlewares/lvgl/src/extra/layouts/grid/lv_grid.c **** }
 201:Middlewares/lvgl/src/extra/layouts/grid/lv_grid.c **** 
 202:Middlewares/lvgl/src/extra/layouts/grid/lv_grid.c **** void lv_style_set_grid_cell_row_span(lv_style_t * style, lv_coord_t value)
ARM GAS  /tmp/ccRzkyyJ.s 			page 5


 203:Middlewares/lvgl/src/extra/layouts/grid/lv_grid.c **** {
 204:Middlewares/lvgl/src/extra/layouts/grid/lv_grid.c ****     lv_style_value_t v = {
 205:Middlewares/lvgl/src/extra/layouts/grid/lv_grid.c ****         .num = value
 206:Middlewares/lvgl/src/extra/layouts/grid/lv_grid.c ****     };
 207:Middlewares/lvgl/src/extra/layouts/grid/lv_grid.c ****     lv_style_set_prop(style, LV_STYLE_GRID_CELL_ROW_SPAN, v);
 208:Middlewares/lvgl/src/extra/layouts/grid/lv_grid.c **** }
 209:Middlewares/lvgl/src/extra/layouts/grid/lv_grid.c **** 
 210:Middlewares/lvgl/src/extra/layouts/grid/lv_grid.c **** void lv_style_set_grid_cell_x_align(lv_style_t * style, lv_coord_t value)
 211:Middlewares/lvgl/src/extra/layouts/grid/lv_grid.c **** {
 212:Middlewares/lvgl/src/extra/layouts/grid/lv_grid.c ****     lv_style_value_t v = {
 213:Middlewares/lvgl/src/extra/layouts/grid/lv_grid.c ****         .num = value
 214:Middlewares/lvgl/src/extra/layouts/grid/lv_grid.c ****     };
 215:Middlewares/lvgl/src/extra/layouts/grid/lv_grid.c ****     lv_style_set_prop(style, LV_STYLE_GRID_CELL_X_ALIGN, v);
 216:Middlewares/lvgl/src/extra/layouts/grid/lv_grid.c **** }
 217:Middlewares/lvgl/src/extra/layouts/grid/lv_grid.c **** 
 218:Middlewares/lvgl/src/extra/layouts/grid/lv_grid.c **** void lv_style_set_grid_cell_y_align(lv_style_t * style, lv_coord_t value)
 219:Middlewares/lvgl/src/extra/layouts/grid/lv_grid.c **** {
 220:Middlewares/lvgl/src/extra/layouts/grid/lv_grid.c ****     lv_style_value_t v = {
 221:Middlewares/lvgl/src/extra/layouts/grid/lv_grid.c ****         .num = value
 222:Middlewares/lvgl/src/extra/layouts/grid/lv_grid.c ****     };
 223:Middlewares/lvgl/src/extra/layouts/grid/lv_grid.c ****     lv_style_set_prop(style, LV_STYLE_GRID_CELL_Y_ALIGN, v);
 224:Middlewares/lvgl/src/extra/layouts/grid/lv_grid.c **** }
 225:Middlewares/lvgl/src/extra/layouts/grid/lv_grid.c **** 
 226:Middlewares/lvgl/src/extra/layouts/grid/lv_grid.c **** void lv_obj_set_style_grid_row_dsc_array(lv_obj_t * obj, const lv_coord_t value[], lv_style_selecto
 227:Middlewares/lvgl/src/extra/layouts/grid/lv_grid.c **** {
 228:Middlewares/lvgl/src/extra/layouts/grid/lv_grid.c ****     lv_style_value_t v = {
 229:Middlewares/lvgl/src/extra/layouts/grid/lv_grid.c ****         .ptr = (const void *)value
 230:Middlewares/lvgl/src/extra/layouts/grid/lv_grid.c ****     };
 231:Middlewares/lvgl/src/extra/layouts/grid/lv_grid.c ****     lv_obj_set_local_style_prop(obj,LV_STYLE_GRID_ROW_DSC_ARRAY, v, selector);
 232:Middlewares/lvgl/src/extra/layouts/grid/lv_grid.c **** }
 233:Middlewares/lvgl/src/extra/layouts/grid/lv_grid.c **** 
 234:Middlewares/lvgl/src/extra/layouts/grid/lv_grid.c **** void lv_obj_set_style_grid_column_dsc_array(lv_obj_t * obj, const lv_coord_t value[], lv_style_sele
 235:Middlewares/lvgl/src/extra/layouts/grid/lv_grid.c **** {
 236:Middlewares/lvgl/src/extra/layouts/grid/lv_grid.c ****     lv_style_value_t v = {
 237:Middlewares/lvgl/src/extra/layouts/grid/lv_grid.c ****         .ptr = (const void *)value
 238:Middlewares/lvgl/src/extra/layouts/grid/lv_grid.c ****     };
 239:Middlewares/lvgl/src/extra/layouts/grid/lv_grid.c ****     lv_obj_set_local_style_prop(obj, LV_STYLE_GRID_COLUMN_DSC_ARRAY, v, selector);
 240:Middlewares/lvgl/src/extra/layouts/grid/lv_grid.c **** }
 241:Middlewares/lvgl/src/extra/layouts/grid/lv_grid.c **** 
 242:Middlewares/lvgl/src/extra/layouts/grid/lv_grid.c **** 
 243:Middlewares/lvgl/src/extra/layouts/grid/lv_grid.c **** void lv_obj_set_style_grid_row_align(lv_obj_t * obj, lv_grid_align_t value, lv_style_selector_t sel
 244:Middlewares/lvgl/src/extra/layouts/grid/lv_grid.c **** {
 245:Middlewares/lvgl/src/extra/layouts/grid/lv_grid.c ****     lv_style_value_t v = {
 246:Middlewares/lvgl/src/extra/layouts/grid/lv_grid.c ****         .num = (int32_t) value
 247:Middlewares/lvgl/src/extra/layouts/grid/lv_grid.c ****     };
 248:Middlewares/lvgl/src/extra/layouts/grid/lv_grid.c ****     lv_obj_set_local_style_prop(obj, LV_STYLE_GRID_ROW_ALIGN, v, selector);
 249:Middlewares/lvgl/src/extra/layouts/grid/lv_grid.c **** }
 250:Middlewares/lvgl/src/extra/layouts/grid/lv_grid.c **** 
 251:Middlewares/lvgl/src/extra/layouts/grid/lv_grid.c **** void lv_obj_set_style_grid_column_align(lv_obj_t * obj, lv_grid_align_t value, lv_style_selector_t 
 252:Middlewares/lvgl/src/extra/layouts/grid/lv_grid.c **** {
 253:Middlewares/lvgl/src/extra/layouts/grid/lv_grid.c ****     lv_style_value_t v = {
 254:Middlewares/lvgl/src/extra/layouts/grid/lv_grid.c ****         .num = (int32_t) value
 255:Middlewares/lvgl/src/extra/layouts/grid/lv_grid.c ****     };
 256:Middlewares/lvgl/src/extra/layouts/grid/lv_grid.c ****     lv_obj_set_local_style_prop(obj, LV_STYLE_GRID_COLUMN_ALIGN, v, selector);
 257:Middlewares/lvgl/src/extra/layouts/grid/lv_grid.c **** }
 258:Middlewares/lvgl/src/extra/layouts/grid/lv_grid.c **** 
 259:Middlewares/lvgl/src/extra/layouts/grid/lv_grid.c **** 
ARM GAS  /tmp/ccRzkyyJ.s 			page 6


 260:Middlewares/lvgl/src/extra/layouts/grid/lv_grid.c **** void lv_obj_set_style_grid_cell_column_pos(lv_obj_t * obj, lv_coord_t value, lv_style_selector_t se
 261:Middlewares/lvgl/src/extra/layouts/grid/lv_grid.c **** {
 262:Middlewares/lvgl/src/extra/layouts/grid/lv_grid.c ****     lv_style_value_t v = {
 263:Middlewares/lvgl/src/extra/layouts/grid/lv_grid.c ****         .num = value
 264:Middlewares/lvgl/src/extra/layouts/grid/lv_grid.c ****     };
 265:Middlewares/lvgl/src/extra/layouts/grid/lv_grid.c ****     lv_obj_set_local_style_prop(obj,LV_STYLE_GRID_CELL_COLUMN_POS, v, selector);
 266:Middlewares/lvgl/src/extra/layouts/grid/lv_grid.c **** }
 267:Middlewares/lvgl/src/extra/layouts/grid/lv_grid.c **** 
 268:Middlewares/lvgl/src/extra/layouts/grid/lv_grid.c **** void lv_obj_set_style_grid_cell_column_span(lv_obj_t * obj, lv_coord_t value, lv_style_selector_t s
 269:Middlewares/lvgl/src/extra/layouts/grid/lv_grid.c **** {
 270:Middlewares/lvgl/src/extra/layouts/grid/lv_grid.c ****     lv_style_value_t v = {
 271:Middlewares/lvgl/src/extra/layouts/grid/lv_grid.c ****         .num = value
 272:Middlewares/lvgl/src/extra/layouts/grid/lv_grid.c ****     };
 273:Middlewares/lvgl/src/extra/layouts/grid/lv_grid.c ****     lv_obj_set_local_style_prop(obj,LV_STYLE_GRID_CELL_COLUMN_SPAN, v, selector);
 274:Middlewares/lvgl/src/extra/layouts/grid/lv_grid.c **** }
 275:Middlewares/lvgl/src/extra/layouts/grid/lv_grid.c **** 
 276:Middlewares/lvgl/src/extra/layouts/grid/lv_grid.c **** void lv_obj_set_style_grid_cell_row_pos(lv_obj_t * obj, lv_coord_t value, lv_style_selector_t selec
 277:Middlewares/lvgl/src/extra/layouts/grid/lv_grid.c **** {
 278:Middlewares/lvgl/src/extra/layouts/grid/lv_grid.c ****     lv_style_value_t v = {
 279:Middlewares/lvgl/src/extra/layouts/grid/lv_grid.c ****         .num = value
 280:Middlewares/lvgl/src/extra/layouts/grid/lv_grid.c ****     };
 281:Middlewares/lvgl/src/extra/layouts/grid/lv_grid.c ****     lv_obj_set_local_style_prop(obj,LV_STYLE_GRID_CELL_ROW_POS, v, selector);
 282:Middlewares/lvgl/src/extra/layouts/grid/lv_grid.c **** }
 283:Middlewares/lvgl/src/extra/layouts/grid/lv_grid.c **** 
 284:Middlewares/lvgl/src/extra/layouts/grid/lv_grid.c **** void lv_obj_set_style_grid_cell_row_span(lv_obj_t * obj, lv_coord_t value, lv_style_selector_t sele
 285:Middlewares/lvgl/src/extra/layouts/grid/lv_grid.c **** {
 286:Middlewares/lvgl/src/extra/layouts/grid/lv_grid.c ****     lv_style_value_t v = {
 287:Middlewares/lvgl/src/extra/layouts/grid/lv_grid.c ****         .num = value
 288:Middlewares/lvgl/src/extra/layouts/grid/lv_grid.c ****     };
 289:Middlewares/lvgl/src/extra/layouts/grid/lv_grid.c ****     lv_obj_set_local_style_prop(obj, LV_STYLE_GRID_CELL_ROW_SPAN, v, selector);
 290:Middlewares/lvgl/src/extra/layouts/grid/lv_grid.c **** }
 291:Middlewares/lvgl/src/extra/layouts/grid/lv_grid.c **** 
 292:Middlewares/lvgl/src/extra/layouts/grid/lv_grid.c **** void lv_obj_set_style_grid_cell_x_align(lv_obj_t * obj, lv_coord_t value, lv_style_selector_t selec
 293:Middlewares/lvgl/src/extra/layouts/grid/lv_grid.c **** {
 294:Middlewares/lvgl/src/extra/layouts/grid/lv_grid.c ****     lv_style_value_t v = {
 295:Middlewares/lvgl/src/extra/layouts/grid/lv_grid.c ****         .num = value
 296:Middlewares/lvgl/src/extra/layouts/grid/lv_grid.c ****     };
 297:Middlewares/lvgl/src/extra/layouts/grid/lv_grid.c ****     lv_obj_set_local_style_prop(obj, LV_STYLE_GRID_CELL_X_ALIGN, v, selector);
 298:Middlewares/lvgl/src/extra/layouts/grid/lv_grid.c **** }
 299:Middlewares/lvgl/src/extra/layouts/grid/lv_grid.c **** 
 300:Middlewares/lvgl/src/extra/layouts/grid/lv_grid.c **** void lv_obj_set_style_grid_cell_y_align(lv_obj_t * obj, lv_coord_t value, lv_style_selector_t selec
 301:Middlewares/lvgl/src/extra/layouts/grid/lv_grid.c **** {
 302:Middlewares/lvgl/src/extra/layouts/grid/lv_grid.c ****     lv_style_value_t v = {
 303:Middlewares/lvgl/src/extra/layouts/grid/lv_grid.c ****         .num = value
 304:Middlewares/lvgl/src/extra/layouts/grid/lv_grid.c ****     };
 305:Middlewares/lvgl/src/extra/layouts/grid/lv_grid.c ****     lv_obj_set_local_style_prop(obj, LV_STYLE_GRID_CELL_Y_ALIGN, v, selector);
 306:Middlewares/lvgl/src/extra/layouts/grid/lv_grid.c **** }
 307:Middlewares/lvgl/src/extra/layouts/grid/lv_grid.c **** 
 308:Middlewares/lvgl/src/extra/layouts/grid/lv_grid.c **** 
 309:Middlewares/lvgl/src/extra/layouts/grid/lv_grid.c **** /**********************
 310:Middlewares/lvgl/src/extra/layouts/grid/lv_grid.c ****  *   STATIC FUNCTIONS
 311:Middlewares/lvgl/src/extra/layouts/grid/lv_grid.c ****  **********************/
 312:Middlewares/lvgl/src/extra/layouts/grid/lv_grid.c **** 
 313:Middlewares/lvgl/src/extra/layouts/grid/lv_grid.c **** static void grid_update(lv_obj_t * cont, void * user_data)
 314:Middlewares/lvgl/src/extra/layouts/grid/lv_grid.c **** {
 315:Middlewares/lvgl/src/extra/layouts/grid/lv_grid.c ****     LV_LOG_INFO("update %p container", cont);
 316:Middlewares/lvgl/src/extra/layouts/grid/lv_grid.c ****     LV_UNUSED(user_data);
ARM GAS  /tmp/ccRzkyyJ.s 			page 7


 317:Middlewares/lvgl/src/extra/layouts/grid/lv_grid.c **** 
 318:Middlewares/lvgl/src/extra/layouts/grid/lv_grid.c ****     const lv_coord_t * col_templ = get_col_dsc(cont);
 319:Middlewares/lvgl/src/extra/layouts/grid/lv_grid.c ****     const lv_coord_t * row_templ = get_row_dsc(cont);
 320:Middlewares/lvgl/src/extra/layouts/grid/lv_grid.c ****     if(col_templ == NULL || row_templ == NULL) return;
 321:Middlewares/lvgl/src/extra/layouts/grid/lv_grid.c **** 
 322:Middlewares/lvgl/src/extra/layouts/grid/lv_grid.c ****     _lv_grid_calc_t c;
 323:Middlewares/lvgl/src/extra/layouts/grid/lv_grid.c ****     calc(cont, &c);
 324:Middlewares/lvgl/src/extra/layouts/grid/lv_grid.c **** 
 325:Middlewares/lvgl/src/extra/layouts/grid/lv_grid.c ****     item_repos_hint_t hint;
 326:Middlewares/lvgl/src/extra/layouts/grid/lv_grid.c ****     lv_memset_00(&hint, sizeof(hint));
 327:Middlewares/lvgl/src/extra/layouts/grid/lv_grid.c **** 
 328:Middlewares/lvgl/src/extra/layouts/grid/lv_grid.c ****     /*Calculate the grids absolute x and y coordinates.
 329:Middlewares/lvgl/src/extra/layouts/grid/lv_grid.c ****      *It will be used as helper during item repositioning to avoid calculating this value for every
 330:Middlewares/lvgl/src/extra/layouts/grid/lv_grid.c ****     lv_coord_t border_widt = lv_obj_get_style_border_width(cont, LV_PART_MAIN);
 331:Middlewares/lvgl/src/extra/layouts/grid/lv_grid.c ****     lv_coord_t pad_left = lv_obj_get_style_pad_left(cont, LV_PART_MAIN) + border_widt;
 332:Middlewares/lvgl/src/extra/layouts/grid/lv_grid.c ****     lv_coord_t pad_top = lv_obj_get_style_pad_top(cont, LV_PART_MAIN) + border_widt;
 333:Middlewares/lvgl/src/extra/layouts/grid/lv_grid.c ****     hint.grid_abs.x = pad_left + cont->coords.x1 - lv_obj_get_scroll_x(cont);
 334:Middlewares/lvgl/src/extra/layouts/grid/lv_grid.c ****     hint.grid_abs.y = pad_top + cont->coords.y1 - lv_obj_get_scroll_y(cont);
 335:Middlewares/lvgl/src/extra/layouts/grid/lv_grid.c **** 
 336:Middlewares/lvgl/src/extra/layouts/grid/lv_grid.c ****     uint32_t i;
 337:Middlewares/lvgl/src/extra/layouts/grid/lv_grid.c ****     for(i = 0; i < cont->spec_attr->child_cnt; i++) {
 338:Middlewares/lvgl/src/extra/layouts/grid/lv_grid.c ****         lv_obj_t * item = cont->spec_attr->children[i];
 339:Middlewares/lvgl/src/extra/layouts/grid/lv_grid.c ****         item_repos(item, &c, &hint);
 340:Middlewares/lvgl/src/extra/layouts/grid/lv_grid.c ****     }
 341:Middlewares/lvgl/src/extra/layouts/grid/lv_grid.c ****     calc_free(&c);
 342:Middlewares/lvgl/src/extra/layouts/grid/lv_grid.c **** 
 343:Middlewares/lvgl/src/extra/layouts/grid/lv_grid.c ****     lv_coord_t w_set = lv_obj_get_style_width(cont, LV_PART_MAIN);
 344:Middlewares/lvgl/src/extra/layouts/grid/lv_grid.c ****     lv_coord_t h_set = lv_obj_get_style_height(cont, LV_PART_MAIN);
 345:Middlewares/lvgl/src/extra/layouts/grid/lv_grid.c ****     if(w_set == LV_SIZE_CONTENT || h_set == LV_SIZE_CONTENT) {
 346:Middlewares/lvgl/src/extra/layouts/grid/lv_grid.c ****         lv_obj_refr_size(cont);
 347:Middlewares/lvgl/src/extra/layouts/grid/lv_grid.c ****     }
 348:Middlewares/lvgl/src/extra/layouts/grid/lv_grid.c **** 
 349:Middlewares/lvgl/src/extra/layouts/grid/lv_grid.c ****     lv_event_send(cont, LV_EVENT_LAYOUT_CHANGED, NULL);
 350:Middlewares/lvgl/src/extra/layouts/grid/lv_grid.c **** 
 351:Middlewares/lvgl/src/extra/layouts/grid/lv_grid.c ****     LV_TRACE_LAYOUT("finished");
 352:Middlewares/lvgl/src/extra/layouts/grid/lv_grid.c **** }
 353:Middlewares/lvgl/src/extra/layouts/grid/lv_grid.c **** 
 354:Middlewares/lvgl/src/extra/layouts/grid/lv_grid.c **** /**
 355:Middlewares/lvgl/src/extra/layouts/grid/lv_grid.c ****  * Calculate the grid cells coordinates
 356:Middlewares/lvgl/src/extra/layouts/grid/lv_grid.c ****  * @param cont an object that has a grid
 357:Middlewares/lvgl/src/extra/layouts/grid/lv_grid.c ****  * @param calc store the calculated cells sizes here
 358:Middlewares/lvgl/src/extra/layouts/grid/lv_grid.c ****  * @note `_lv_grid_calc_free(calc_out)` needs to be called when `calc_out` is not needed anymore
 359:Middlewares/lvgl/src/extra/layouts/grid/lv_grid.c ****  */
 360:Middlewares/lvgl/src/extra/layouts/grid/lv_grid.c **** static void calc(lv_obj_t * cont, _lv_grid_calc_t * calc_out)
 361:Middlewares/lvgl/src/extra/layouts/grid/lv_grid.c **** {
 362:Middlewares/lvgl/src/extra/layouts/grid/lv_grid.c ****     if(lv_obj_get_child(cont, 0) == NULL) {
 363:Middlewares/lvgl/src/extra/layouts/grid/lv_grid.c ****         lv_memset_00(calc_out, sizeof(_lv_grid_calc_t));
 364:Middlewares/lvgl/src/extra/layouts/grid/lv_grid.c ****         return;
 365:Middlewares/lvgl/src/extra/layouts/grid/lv_grid.c ****     }
 366:Middlewares/lvgl/src/extra/layouts/grid/lv_grid.c **** 
 367:Middlewares/lvgl/src/extra/layouts/grid/lv_grid.c ****     calc_rows(cont, calc_out);
 368:Middlewares/lvgl/src/extra/layouts/grid/lv_grid.c ****     calc_cols(cont, calc_out);
 369:Middlewares/lvgl/src/extra/layouts/grid/lv_grid.c **** 
 370:Middlewares/lvgl/src/extra/layouts/grid/lv_grid.c ****     lv_coord_t col_gap = lv_obj_get_style_pad_column(cont, LV_PART_MAIN);
 371:Middlewares/lvgl/src/extra/layouts/grid/lv_grid.c ****     lv_coord_t row_gap = lv_obj_get_style_pad_row(cont, LV_PART_MAIN);
 372:Middlewares/lvgl/src/extra/layouts/grid/lv_grid.c **** 
 373:Middlewares/lvgl/src/extra/layouts/grid/lv_grid.c ****     bool rev = lv_obj_get_style_base_dir(cont, LV_PART_MAIN) == LV_BASE_DIR_RTL ? true : false;
ARM GAS  /tmp/ccRzkyyJ.s 			page 8


 374:Middlewares/lvgl/src/extra/layouts/grid/lv_grid.c **** 
 375:Middlewares/lvgl/src/extra/layouts/grid/lv_grid.c ****     lv_coord_t w_set = lv_obj_get_style_width(cont, LV_PART_MAIN);
 376:Middlewares/lvgl/src/extra/layouts/grid/lv_grid.c ****     lv_coord_t h_set = lv_obj_get_style_height(cont, LV_PART_MAIN);
 377:Middlewares/lvgl/src/extra/layouts/grid/lv_grid.c ****     bool auto_w = (w_set == LV_SIZE_CONTENT && !cont->w_layout) ? true : false;
 378:Middlewares/lvgl/src/extra/layouts/grid/lv_grid.c ****     lv_coord_t cont_w = lv_obj_get_content_width(cont);
 379:Middlewares/lvgl/src/extra/layouts/grid/lv_grid.c ****     calc_out->grid_w = grid_align(cont_w, auto_w, get_grid_col_align(cont), col_gap, calc_out->col_
 380:Middlewares/lvgl/src/extra/layouts/grid/lv_grid.c **** 
 381:Middlewares/lvgl/src/extra/layouts/grid/lv_grid.c ****     bool auto_h = (h_set == LV_SIZE_CONTENT && !cont->h_layout) ? true : false;
 382:Middlewares/lvgl/src/extra/layouts/grid/lv_grid.c ****     lv_coord_t cont_h = lv_obj_get_content_height(cont);
 383:Middlewares/lvgl/src/extra/layouts/grid/lv_grid.c ****     calc_out->grid_h = grid_align(cont_h, auto_h, get_grid_row_align(cont), row_gap, calc_out->row_
 384:Middlewares/lvgl/src/extra/layouts/grid/lv_grid.c **** 
 385:Middlewares/lvgl/src/extra/layouts/grid/lv_grid.c ****     LV_ASSERT_MEM_INTEGRITY();
 386:Middlewares/lvgl/src/extra/layouts/grid/lv_grid.c **** }
 387:Middlewares/lvgl/src/extra/layouts/grid/lv_grid.c **** 
 388:Middlewares/lvgl/src/extra/layouts/grid/lv_grid.c **** /**
 389:Middlewares/lvgl/src/extra/layouts/grid/lv_grid.c ****  * Free the a grid calculation's data
 390:Middlewares/lvgl/src/extra/layouts/grid/lv_grid.c ****  * @param calc pointer to the calculated gtrid cell coordinates
 391:Middlewares/lvgl/src/extra/layouts/grid/lv_grid.c ****  */
 392:Middlewares/lvgl/src/extra/layouts/grid/lv_grid.c **** static void calc_free(_lv_grid_calc_t * calc)
 393:Middlewares/lvgl/src/extra/layouts/grid/lv_grid.c **** {
 394:Middlewares/lvgl/src/extra/layouts/grid/lv_grid.c ****     lv_mem_buf_release(calc->x);
 395:Middlewares/lvgl/src/extra/layouts/grid/lv_grid.c ****     lv_mem_buf_release(calc->y);
 396:Middlewares/lvgl/src/extra/layouts/grid/lv_grid.c ****     lv_mem_buf_release(calc->w);
 397:Middlewares/lvgl/src/extra/layouts/grid/lv_grid.c ****     lv_mem_buf_release(calc->h);
 398:Middlewares/lvgl/src/extra/layouts/grid/lv_grid.c **** }
 399:Middlewares/lvgl/src/extra/layouts/grid/lv_grid.c **** 
 400:Middlewares/lvgl/src/extra/layouts/grid/lv_grid.c **** static void calc_cols(lv_obj_t * cont, _lv_grid_calc_t * c)
 401:Middlewares/lvgl/src/extra/layouts/grid/lv_grid.c **** {
 402:Middlewares/lvgl/src/extra/layouts/grid/lv_grid.c ****     const lv_coord_t * col_templ = get_col_dsc(cont);
 403:Middlewares/lvgl/src/extra/layouts/grid/lv_grid.c ****     lv_coord_t cont_w = lv_obj_get_content_width(cont);
 404:Middlewares/lvgl/src/extra/layouts/grid/lv_grid.c **** 
 405:Middlewares/lvgl/src/extra/layouts/grid/lv_grid.c ****     c->col_num = count_tracks(col_templ);
 406:Middlewares/lvgl/src/extra/layouts/grid/lv_grid.c ****     c->x = lv_mem_buf_get(sizeof(lv_coord_t) * c->col_num);
 407:Middlewares/lvgl/src/extra/layouts/grid/lv_grid.c ****     c->w = lv_mem_buf_get(sizeof(lv_coord_t) * c->col_num);
 408:Middlewares/lvgl/src/extra/layouts/grid/lv_grid.c **** 
 409:Middlewares/lvgl/src/extra/layouts/grid/lv_grid.c ****     /*Set sizes for CONTENT cells*/
 410:Middlewares/lvgl/src/extra/layouts/grid/lv_grid.c ****     uint32_t i;
 411:Middlewares/lvgl/src/extra/layouts/grid/lv_grid.c ****     for(i = 0; i < c->col_num; i++) {
 412:Middlewares/lvgl/src/extra/layouts/grid/lv_grid.c ****         lv_coord_t size = LV_COORD_MIN;
 413:Middlewares/lvgl/src/extra/layouts/grid/lv_grid.c ****         if(IS_CONTENT(col_templ[i])) {
 414:Middlewares/lvgl/src/extra/layouts/grid/lv_grid.c ****             /*Check the size of children of this cell*/
 415:Middlewares/lvgl/src/extra/layouts/grid/lv_grid.c ****             uint32_t ci;
 416:Middlewares/lvgl/src/extra/layouts/grid/lv_grid.c ****             for(ci = 0; ci < lv_obj_get_child_cnt(cont); ci++) {
 417:Middlewares/lvgl/src/extra/layouts/grid/lv_grid.c ****                 lv_obj_t * item = lv_obj_get_child(cont, ci);
 418:Middlewares/lvgl/src/extra/layouts/grid/lv_grid.c ****                 if(lv_obj_has_flag_any(item, LV_OBJ_FLAG_IGNORE_LAYOUT | LV_OBJ_FLAG_HIDDEN | LV_OB
 419:Middlewares/lvgl/src/extra/layouts/grid/lv_grid.c ****                 uint32_t col_span = get_col_span(item);
 420:Middlewares/lvgl/src/extra/layouts/grid/lv_grid.c ****                 if(col_span != 1) continue;
 421:Middlewares/lvgl/src/extra/layouts/grid/lv_grid.c **** 
 422:Middlewares/lvgl/src/extra/layouts/grid/lv_grid.c ****                 uint32_t col_pos = get_col_pos(item);
 423:Middlewares/lvgl/src/extra/layouts/grid/lv_grid.c ****                 if(col_pos != i) continue;
 424:Middlewares/lvgl/src/extra/layouts/grid/lv_grid.c **** 
 425:Middlewares/lvgl/src/extra/layouts/grid/lv_grid.c ****                 size = LV_MAX(size, lv_obj_get_width(item));
 426:Middlewares/lvgl/src/extra/layouts/grid/lv_grid.c ****             }
 427:Middlewares/lvgl/src/extra/layouts/grid/lv_grid.c ****             if(size >= 0) c->w[i] = size;
 428:Middlewares/lvgl/src/extra/layouts/grid/lv_grid.c ****             else c->w[i] = 0;
 429:Middlewares/lvgl/src/extra/layouts/grid/lv_grid.c ****         }
 430:Middlewares/lvgl/src/extra/layouts/grid/lv_grid.c ****     }
ARM GAS  /tmp/ccRzkyyJ.s 			page 9


 431:Middlewares/lvgl/src/extra/layouts/grid/lv_grid.c **** 
 432:Middlewares/lvgl/src/extra/layouts/grid/lv_grid.c ****     uint32_t col_fr_cnt = 0;
 433:Middlewares/lvgl/src/extra/layouts/grid/lv_grid.c ****     lv_coord_t grid_w = 0;
 434:Middlewares/lvgl/src/extra/layouts/grid/lv_grid.c **** 
 435:Middlewares/lvgl/src/extra/layouts/grid/lv_grid.c ****     for(i = 0; i < c->col_num; i++) {
 436:Middlewares/lvgl/src/extra/layouts/grid/lv_grid.c ****         lv_coord_t x = col_templ[i];
 437:Middlewares/lvgl/src/extra/layouts/grid/lv_grid.c ****         if(IS_FR(x)) {
 438:Middlewares/lvgl/src/extra/layouts/grid/lv_grid.c ****             col_fr_cnt += GET_FR(x);
 439:Middlewares/lvgl/src/extra/layouts/grid/lv_grid.c ****         }
 440:Middlewares/lvgl/src/extra/layouts/grid/lv_grid.c ****         else if (IS_CONTENT(x)) {
 441:Middlewares/lvgl/src/extra/layouts/grid/lv_grid.c ****             grid_w += c->w[i];
 442:Middlewares/lvgl/src/extra/layouts/grid/lv_grid.c ****         }
 443:Middlewares/lvgl/src/extra/layouts/grid/lv_grid.c ****         else {
 444:Middlewares/lvgl/src/extra/layouts/grid/lv_grid.c ****             c->w[i] = x;
 445:Middlewares/lvgl/src/extra/layouts/grid/lv_grid.c ****             grid_w += x;
 446:Middlewares/lvgl/src/extra/layouts/grid/lv_grid.c ****         }
 447:Middlewares/lvgl/src/extra/layouts/grid/lv_grid.c ****     }
 448:Middlewares/lvgl/src/extra/layouts/grid/lv_grid.c **** 
 449:Middlewares/lvgl/src/extra/layouts/grid/lv_grid.c ****     lv_coord_t col_gap = lv_obj_get_style_pad_column(cont, LV_PART_MAIN);
 450:Middlewares/lvgl/src/extra/layouts/grid/lv_grid.c ****     cont_w -= col_gap * (c->col_num - 1);
 451:Middlewares/lvgl/src/extra/layouts/grid/lv_grid.c ****     lv_coord_t free_w = cont_w - grid_w;
 452:Middlewares/lvgl/src/extra/layouts/grid/lv_grid.c ****     if(free_w < 0) free_w = 0;
 453:Middlewares/lvgl/src/extra/layouts/grid/lv_grid.c **** 
 454:Middlewares/lvgl/src/extra/layouts/grid/lv_grid.c ****     int32_t last_fr_i = -1;
 455:Middlewares/lvgl/src/extra/layouts/grid/lv_grid.c ****     int32_t last_fr_x = 0;
 456:Middlewares/lvgl/src/extra/layouts/grid/lv_grid.c ****     for(i = 0; i < c->col_num; i++) {
 457:Middlewares/lvgl/src/extra/layouts/grid/lv_grid.c ****         lv_coord_t x = col_templ[i];
 458:Middlewares/lvgl/src/extra/layouts/grid/lv_grid.c ****         if(IS_FR(x)) {
 459:Middlewares/lvgl/src/extra/layouts/grid/lv_grid.c ****             lv_coord_t f = GET_FR(x);
 460:Middlewares/lvgl/src/extra/layouts/grid/lv_grid.c ****             c->w[i] = (free_w * f) / col_fr_cnt;
 461:Middlewares/lvgl/src/extra/layouts/grid/lv_grid.c ****             last_fr_i = i;
 462:Middlewares/lvgl/src/extra/layouts/grid/lv_grid.c ****             last_fr_x = f;
 463:Middlewares/lvgl/src/extra/layouts/grid/lv_grid.c ****         }
 464:Middlewares/lvgl/src/extra/layouts/grid/lv_grid.c ****     }
 465:Middlewares/lvgl/src/extra/layouts/grid/lv_grid.c **** 
 466:Middlewares/lvgl/src/extra/layouts/grid/lv_grid.c ****     /*To avoid rounding errors set the last FR track to the remaining size */
 467:Middlewares/lvgl/src/extra/layouts/grid/lv_grid.c ****     if(last_fr_i >= 0) {
 468:Middlewares/lvgl/src/extra/layouts/grid/lv_grid.c ****     	c->w[last_fr_i] = free_w - ((free_w * (col_fr_cnt - last_fr_x)) / col_fr_cnt);
 469:Middlewares/lvgl/src/extra/layouts/grid/lv_grid.c ****     }
 470:Middlewares/lvgl/src/extra/layouts/grid/lv_grid.c **** }
 471:Middlewares/lvgl/src/extra/layouts/grid/lv_grid.c **** 
 472:Middlewares/lvgl/src/extra/layouts/grid/lv_grid.c **** static void calc_rows(lv_obj_t * cont, _lv_grid_calc_t * c)
 473:Middlewares/lvgl/src/extra/layouts/grid/lv_grid.c **** {
 474:Middlewares/lvgl/src/extra/layouts/grid/lv_grid.c ****     uint32_t i;
 475:Middlewares/lvgl/src/extra/layouts/grid/lv_grid.c ****     const lv_coord_t * row_templ = get_row_dsc(cont);
 476:Middlewares/lvgl/src/extra/layouts/grid/lv_grid.c ****     c->row_num = count_tracks(row_templ);
 477:Middlewares/lvgl/src/extra/layouts/grid/lv_grid.c ****     c->y = lv_mem_buf_get(sizeof(lv_coord_t) * c->row_num);
 478:Middlewares/lvgl/src/extra/layouts/grid/lv_grid.c ****     c->h = lv_mem_buf_get(sizeof(lv_coord_t) * c->row_num);
 479:Middlewares/lvgl/src/extra/layouts/grid/lv_grid.c ****     /*Set sizes for CONTENT cells*/
 480:Middlewares/lvgl/src/extra/layouts/grid/lv_grid.c ****     for(i = 0; i < c->row_num; i++) {
 481:Middlewares/lvgl/src/extra/layouts/grid/lv_grid.c ****         lv_coord_t size = LV_COORD_MIN;
 482:Middlewares/lvgl/src/extra/layouts/grid/lv_grid.c ****         if(IS_CONTENT(row_templ[i])) {
 483:Middlewares/lvgl/src/extra/layouts/grid/lv_grid.c ****             /*Check the size of children of this cell*/
 484:Middlewares/lvgl/src/extra/layouts/grid/lv_grid.c ****             uint32_t ci;
 485:Middlewares/lvgl/src/extra/layouts/grid/lv_grid.c ****             for(ci = 0; ci < lv_obj_get_child_cnt(cont); ci++) {
 486:Middlewares/lvgl/src/extra/layouts/grid/lv_grid.c ****                 lv_obj_t * item = lv_obj_get_child(cont, ci);
 487:Middlewares/lvgl/src/extra/layouts/grid/lv_grid.c ****                 if(lv_obj_has_flag_any(item, LV_OBJ_FLAG_IGNORE_LAYOUT | LV_OBJ_FLAG_HIDDEN | LV_OB
ARM GAS  /tmp/ccRzkyyJ.s 			page 10


 488:Middlewares/lvgl/src/extra/layouts/grid/lv_grid.c ****                 uint32_t row_span = get_row_span(item);
 489:Middlewares/lvgl/src/extra/layouts/grid/lv_grid.c ****                 if(row_span != 1) continue;
 490:Middlewares/lvgl/src/extra/layouts/grid/lv_grid.c **** 
 491:Middlewares/lvgl/src/extra/layouts/grid/lv_grid.c ****                 uint32_t row_pos = get_row_pos(item);
 492:Middlewares/lvgl/src/extra/layouts/grid/lv_grid.c ****                 if(row_pos != i) continue;
 493:Middlewares/lvgl/src/extra/layouts/grid/lv_grid.c **** 
 494:Middlewares/lvgl/src/extra/layouts/grid/lv_grid.c ****                 size = LV_MAX(size, lv_obj_get_height(item));
 495:Middlewares/lvgl/src/extra/layouts/grid/lv_grid.c ****             }
 496:Middlewares/lvgl/src/extra/layouts/grid/lv_grid.c ****             if(size >= 0) c->h[i] = size;
 497:Middlewares/lvgl/src/extra/layouts/grid/lv_grid.c ****             else c->h[i] = 0;
 498:Middlewares/lvgl/src/extra/layouts/grid/lv_grid.c ****         }
 499:Middlewares/lvgl/src/extra/layouts/grid/lv_grid.c ****     }
 500:Middlewares/lvgl/src/extra/layouts/grid/lv_grid.c **** 
 501:Middlewares/lvgl/src/extra/layouts/grid/lv_grid.c ****     uint32_t row_fr_cnt = 0;
 502:Middlewares/lvgl/src/extra/layouts/grid/lv_grid.c ****     lv_coord_t grid_h = 0;
 503:Middlewares/lvgl/src/extra/layouts/grid/lv_grid.c **** 
 504:Middlewares/lvgl/src/extra/layouts/grid/lv_grid.c ****     for(i = 0; i < c->row_num; i++) {
 505:Middlewares/lvgl/src/extra/layouts/grid/lv_grid.c ****         lv_coord_t x = row_templ[i];
 506:Middlewares/lvgl/src/extra/layouts/grid/lv_grid.c ****         if(IS_FR(x)) {
 507:Middlewares/lvgl/src/extra/layouts/grid/lv_grid.c ****             row_fr_cnt += GET_FR(x);
 508:Middlewares/lvgl/src/extra/layouts/grid/lv_grid.c ****         } else if (IS_CONTENT(x)) {
 509:Middlewares/lvgl/src/extra/layouts/grid/lv_grid.c ****             grid_h += c->h[i];
 510:Middlewares/lvgl/src/extra/layouts/grid/lv_grid.c ****         } else {
 511:Middlewares/lvgl/src/extra/layouts/grid/lv_grid.c ****             c->h[i] = x;
 512:Middlewares/lvgl/src/extra/layouts/grid/lv_grid.c ****             grid_h += x;
 513:Middlewares/lvgl/src/extra/layouts/grid/lv_grid.c ****         }
 514:Middlewares/lvgl/src/extra/layouts/grid/lv_grid.c ****     }
 515:Middlewares/lvgl/src/extra/layouts/grid/lv_grid.c **** 
 516:Middlewares/lvgl/src/extra/layouts/grid/lv_grid.c **** 
 517:Middlewares/lvgl/src/extra/layouts/grid/lv_grid.c ****     lv_coord_t row_gap = lv_obj_get_style_pad_row(cont, LV_PART_MAIN);
 518:Middlewares/lvgl/src/extra/layouts/grid/lv_grid.c ****     lv_coord_t cont_h = lv_obj_get_content_height(cont) - row_gap * (c->row_num - 1);
 519:Middlewares/lvgl/src/extra/layouts/grid/lv_grid.c ****     lv_coord_t free_h = cont_h - grid_h;
 520:Middlewares/lvgl/src/extra/layouts/grid/lv_grid.c ****     if(free_h < 0) free_h = 0;
 521:Middlewares/lvgl/src/extra/layouts/grid/lv_grid.c **** 
 522:Middlewares/lvgl/src/extra/layouts/grid/lv_grid.c ****     int32_t last_fr_i = -1;
 523:Middlewares/lvgl/src/extra/layouts/grid/lv_grid.c ****     int32_t last_fr_x = 0;
 524:Middlewares/lvgl/src/extra/layouts/grid/lv_grid.c ****     for(i = 0; i < c->row_num; i++) {
 525:Middlewares/lvgl/src/extra/layouts/grid/lv_grid.c ****         lv_coord_t x = row_templ[i];
 526:Middlewares/lvgl/src/extra/layouts/grid/lv_grid.c ****         if(IS_FR(x)) {
 527:Middlewares/lvgl/src/extra/layouts/grid/lv_grid.c ****             lv_coord_t f = GET_FR(x);
 528:Middlewares/lvgl/src/extra/layouts/grid/lv_grid.c ****             c->h[i] = (free_h * f) / row_fr_cnt;
 529:Middlewares/lvgl/src/extra/layouts/grid/lv_grid.c ****         }
 530:Middlewares/lvgl/src/extra/layouts/grid/lv_grid.c ****     }
 531:Middlewares/lvgl/src/extra/layouts/grid/lv_grid.c **** 
 532:Middlewares/lvgl/src/extra/layouts/grid/lv_grid.c ****     /*To avoid rounding errors set the last FR track to the remaining size */
 533:Middlewares/lvgl/src/extra/layouts/grid/lv_grid.c ****     if(last_fr_i >= 0) {
 534:Middlewares/lvgl/src/extra/layouts/grid/lv_grid.c ****     	c->h[last_fr_i] = free_h - ((free_h * (row_fr_cnt - last_fr_x)) / row_fr_cnt);
 535:Middlewares/lvgl/src/extra/layouts/grid/lv_grid.c ****     }
 536:Middlewares/lvgl/src/extra/layouts/grid/lv_grid.c **** }
 537:Middlewares/lvgl/src/extra/layouts/grid/lv_grid.c **** 
 538:Middlewares/lvgl/src/extra/layouts/grid/lv_grid.c **** /**
 539:Middlewares/lvgl/src/extra/layouts/grid/lv_grid.c ****  * Reposition a grid item in its cell
 540:Middlewares/lvgl/src/extra/layouts/grid/lv_grid.c ****  * @param item a grid item to reposition
 541:Middlewares/lvgl/src/extra/layouts/grid/lv_grid.c ****  * @param calc the calculated grid of `cont`
 542:Middlewares/lvgl/src/extra/layouts/grid/lv_grid.c ****  * @param child_id_ext helper value if the ID of the child is know (order from the oldest) else -1
 543:Middlewares/lvgl/src/extra/layouts/grid/lv_grid.c ****  * @param grid_abs helper value, the absolute position of the grid, NULL if unknown
 544:Middlewares/lvgl/src/extra/layouts/grid/lv_grid.c ****  */
ARM GAS  /tmp/ccRzkyyJ.s 			page 11


 545:Middlewares/lvgl/src/extra/layouts/grid/lv_grid.c **** static void item_repos(lv_obj_t * item, _lv_grid_calc_t * c, item_repos_hint_t * hint)
 546:Middlewares/lvgl/src/extra/layouts/grid/lv_grid.c **** {
 547:Middlewares/lvgl/src/extra/layouts/grid/lv_grid.c ****     if(lv_obj_has_flag_any(item, LV_OBJ_FLAG_IGNORE_LAYOUT | LV_OBJ_FLAG_HIDDEN | LV_OBJ_FLAG_FLOAT
 548:Middlewares/lvgl/src/extra/layouts/grid/lv_grid.c ****     uint32_t col_span = get_col_span(item);
 549:Middlewares/lvgl/src/extra/layouts/grid/lv_grid.c ****     uint32_t row_span = get_row_span(item);
 550:Middlewares/lvgl/src/extra/layouts/grid/lv_grid.c ****     if(row_span == 0 || col_span == 0) return;
 551:Middlewares/lvgl/src/extra/layouts/grid/lv_grid.c **** 
 552:Middlewares/lvgl/src/extra/layouts/grid/lv_grid.c ****     uint32_t col_pos = get_col_pos(item);
 553:Middlewares/lvgl/src/extra/layouts/grid/lv_grid.c ****     uint32_t row_pos = get_row_pos(item);
 554:Middlewares/lvgl/src/extra/layouts/grid/lv_grid.c ****     lv_grid_align_t col_align = get_cell_col_align(item);
 555:Middlewares/lvgl/src/extra/layouts/grid/lv_grid.c ****     lv_grid_align_t row_align = get_cell_row_align(item);
 556:Middlewares/lvgl/src/extra/layouts/grid/lv_grid.c **** 
 557:Middlewares/lvgl/src/extra/layouts/grid/lv_grid.c **** 
 558:Middlewares/lvgl/src/extra/layouts/grid/lv_grid.c ****     lv_coord_t col_x1 = c->x[col_pos];
 559:Middlewares/lvgl/src/extra/layouts/grid/lv_grid.c ****     lv_coord_t col_x2 = c->x[col_pos + col_span - 1] + c->w[col_pos + col_span - 1];
 560:Middlewares/lvgl/src/extra/layouts/grid/lv_grid.c ****     lv_coord_t col_w = col_x2 - col_x1;
 561:Middlewares/lvgl/src/extra/layouts/grid/lv_grid.c **** 
 562:Middlewares/lvgl/src/extra/layouts/grid/lv_grid.c ****     lv_coord_t row_y1 = c->y[row_pos];
 563:Middlewares/lvgl/src/extra/layouts/grid/lv_grid.c ****     lv_coord_t row_y2 = c->y[row_pos + row_span - 1] + c->h[row_pos + row_span - 1];
 564:Middlewares/lvgl/src/extra/layouts/grid/lv_grid.c ****     lv_coord_t row_h = row_y2 - row_y1;
 565:Middlewares/lvgl/src/extra/layouts/grid/lv_grid.c **** 
 566:Middlewares/lvgl/src/extra/layouts/grid/lv_grid.c **** 
 567:Middlewares/lvgl/src/extra/layouts/grid/lv_grid.c ****     /*If the item has RTL base dir switch start and end*/
 568:Middlewares/lvgl/src/extra/layouts/grid/lv_grid.c ****     if(lv_obj_get_style_base_dir(item, LV_PART_MAIN) == LV_BASE_DIR_RTL) {
 569:Middlewares/lvgl/src/extra/layouts/grid/lv_grid.c ****         if(col_align == LV_GRID_ALIGN_START) col_align = LV_GRID_ALIGN_END;
 570:Middlewares/lvgl/src/extra/layouts/grid/lv_grid.c ****         else if(col_align == LV_GRID_ALIGN_END) col_align = LV_GRID_ALIGN_START;
 571:Middlewares/lvgl/src/extra/layouts/grid/lv_grid.c ****     }
 572:Middlewares/lvgl/src/extra/layouts/grid/lv_grid.c **** 
 573:Middlewares/lvgl/src/extra/layouts/grid/lv_grid.c ****     lv_coord_t x;
 574:Middlewares/lvgl/src/extra/layouts/grid/lv_grid.c ****     lv_coord_t y;
 575:Middlewares/lvgl/src/extra/layouts/grid/lv_grid.c ****     lv_coord_t item_w = lv_area_get_width(&item->coords);
 576:Middlewares/lvgl/src/extra/layouts/grid/lv_grid.c ****     lv_coord_t item_h = lv_area_get_height(&item->coords);
 577:Middlewares/lvgl/src/extra/layouts/grid/lv_grid.c **** 
 578:Middlewares/lvgl/src/extra/layouts/grid/lv_grid.c ****     switch(col_align) {
 579:Middlewares/lvgl/src/extra/layouts/grid/lv_grid.c ****         default:
 580:Middlewares/lvgl/src/extra/layouts/grid/lv_grid.c ****         case LV_GRID_ALIGN_START:
 581:Middlewares/lvgl/src/extra/layouts/grid/lv_grid.c ****             x = c->x[col_pos];
 582:Middlewares/lvgl/src/extra/layouts/grid/lv_grid.c ****             item->w_layout = 0;
 583:Middlewares/lvgl/src/extra/layouts/grid/lv_grid.c ****             break;
 584:Middlewares/lvgl/src/extra/layouts/grid/lv_grid.c ****         case LV_GRID_ALIGN_STRETCH:
 585:Middlewares/lvgl/src/extra/layouts/grid/lv_grid.c ****             x = c->x[col_pos];
 586:Middlewares/lvgl/src/extra/layouts/grid/lv_grid.c ****             item_w = col_w;
 587:Middlewares/lvgl/src/extra/layouts/grid/lv_grid.c ****             item->w_layout = 1;
 588:Middlewares/lvgl/src/extra/layouts/grid/lv_grid.c ****             break;
 589:Middlewares/lvgl/src/extra/layouts/grid/lv_grid.c ****         case LV_GRID_ALIGN_CENTER:
 590:Middlewares/lvgl/src/extra/layouts/grid/lv_grid.c ****             x = c->x[col_pos] + (col_w - item_w) / 2;
 591:Middlewares/lvgl/src/extra/layouts/grid/lv_grid.c ****             item->w_layout = 0;
 592:Middlewares/lvgl/src/extra/layouts/grid/lv_grid.c ****             break;
 593:Middlewares/lvgl/src/extra/layouts/grid/lv_grid.c ****         case LV_GRID_ALIGN_END:
 594:Middlewares/lvgl/src/extra/layouts/grid/lv_grid.c ****             x = c->x[col_pos] + col_w - lv_obj_get_width(item);
 595:Middlewares/lvgl/src/extra/layouts/grid/lv_grid.c ****             item->w_layout = 0;
 596:Middlewares/lvgl/src/extra/layouts/grid/lv_grid.c ****             break;
 597:Middlewares/lvgl/src/extra/layouts/grid/lv_grid.c ****     }
 598:Middlewares/lvgl/src/extra/layouts/grid/lv_grid.c **** 
 599:Middlewares/lvgl/src/extra/layouts/grid/lv_grid.c ****     switch(row_align) {
 600:Middlewares/lvgl/src/extra/layouts/grid/lv_grid.c ****         default:
 601:Middlewares/lvgl/src/extra/layouts/grid/lv_grid.c ****         case LV_GRID_ALIGN_START:
ARM GAS  /tmp/ccRzkyyJ.s 			page 12


 602:Middlewares/lvgl/src/extra/layouts/grid/lv_grid.c ****             y = c->y[row_pos];
 603:Middlewares/lvgl/src/extra/layouts/grid/lv_grid.c ****             item->h_layout = 0;
 604:Middlewares/lvgl/src/extra/layouts/grid/lv_grid.c ****             break;
 605:Middlewares/lvgl/src/extra/layouts/grid/lv_grid.c ****         case LV_GRID_ALIGN_STRETCH:
 606:Middlewares/lvgl/src/extra/layouts/grid/lv_grid.c ****             y = c->y[row_pos];
 607:Middlewares/lvgl/src/extra/layouts/grid/lv_grid.c ****             item_h = row_h;
 608:Middlewares/lvgl/src/extra/layouts/grid/lv_grid.c ****             item->h_layout = 1;
 609:Middlewares/lvgl/src/extra/layouts/grid/lv_grid.c ****             break;
 610:Middlewares/lvgl/src/extra/layouts/grid/lv_grid.c ****         case LV_GRID_ALIGN_CENTER:
 611:Middlewares/lvgl/src/extra/layouts/grid/lv_grid.c ****             y = c->y[row_pos] + (row_h - item_h) / 2;
 612:Middlewares/lvgl/src/extra/layouts/grid/lv_grid.c ****             item->h_layout = 0;
 613:Middlewares/lvgl/src/extra/layouts/grid/lv_grid.c ****             break;
 614:Middlewares/lvgl/src/extra/layouts/grid/lv_grid.c ****         case LV_GRID_ALIGN_END:
 615:Middlewares/lvgl/src/extra/layouts/grid/lv_grid.c ****             y = c->y[row_pos] + row_h - lv_obj_get_height(item);
 616:Middlewares/lvgl/src/extra/layouts/grid/lv_grid.c ****             item->h_layout = 0;
 617:Middlewares/lvgl/src/extra/layouts/grid/lv_grid.c ****             break;
 618:Middlewares/lvgl/src/extra/layouts/grid/lv_grid.c ****     }
 619:Middlewares/lvgl/src/extra/layouts/grid/lv_grid.c **** 
 620:Middlewares/lvgl/src/extra/layouts/grid/lv_grid.c ****     /*Set a new size if required*/
 621:Middlewares/lvgl/src/extra/layouts/grid/lv_grid.c ****     if(lv_obj_get_width(item) != item_w || lv_obj_get_height(item) != item_h) {
 622:Middlewares/lvgl/src/extra/layouts/grid/lv_grid.c ****         lv_area_t old_coords;
 623:Middlewares/lvgl/src/extra/layouts/grid/lv_grid.c ****         lv_area_copy(&old_coords, &item->coords);
 624:Middlewares/lvgl/src/extra/layouts/grid/lv_grid.c ****         lv_obj_invalidate(item);
 625:Middlewares/lvgl/src/extra/layouts/grid/lv_grid.c ****         lv_area_set_width(&item->coords, item_w);
 626:Middlewares/lvgl/src/extra/layouts/grid/lv_grid.c ****         lv_area_set_height(&item->coords, item_h);
 627:Middlewares/lvgl/src/extra/layouts/grid/lv_grid.c ****         lv_obj_invalidate(item);
 628:Middlewares/lvgl/src/extra/layouts/grid/lv_grid.c ****         lv_event_send(item, LV_EVENT_SIZE_CHANGED, &old_coords);
 629:Middlewares/lvgl/src/extra/layouts/grid/lv_grid.c ****         lv_event_send(lv_obj_get_parent(item), LV_EVENT_CHILD_CHANGED, item);
 630:Middlewares/lvgl/src/extra/layouts/grid/lv_grid.c **** 
 631:Middlewares/lvgl/src/extra/layouts/grid/lv_grid.c ****     }
 632:Middlewares/lvgl/src/extra/layouts/grid/lv_grid.c **** 
 633:Middlewares/lvgl/src/extra/layouts/grid/lv_grid.c ****     /*Handle percentage value of translate*/
 634:Middlewares/lvgl/src/extra/layouts/grid/lv_grid.c ****     lv_coord_t tr_x = lv_obj_get_style_translate_x(item, LV_PART_MAIN);
 635:Middlewares/lvgl/src/extra/layouts/grid/lv_grid.c ****     lv_coord_t tr_y = lv_obj_get_style_translate_y(item, LV_PART_MAIN);
 636:Middlewares/lvgl/src/extra/layouts/grid/lv_grid.c ****     lv_coord_t w = lv_obj_get_width(item);
 637:Middlewares/lvgl/src/extra/layouts/grid/lv_grid.c ****     lv_coord_t h = lv_obj_get_height(item);
 638:Middlewares/lvgl/src/extra/layouts/grid/lv_grid.c ****     if(LV_COORD_IS_PCT(tr_x)) tr_x = (w * LV_COORD_GET_PCT(tr_x)) / 100;
 639:Middlewares/lvgl/src/extra/layouts/grid/lv_grid.c ****     if(LV_COORD_IS_PCT(tr_y)) tr_y = (h * LV_COORD_GET_PCT(tr_y)) / 100;
 640:Middlewares/lvgl/src/extra/layouts/grid/lv_grid.c **** 
 641:Middlewares/lvgl/src/extra/layouts/grid/lv_grid.c ****     x += tr_x;
 642:Middlewares/lvgl/src/extra/layouts/grid/lv_grid.c ****     y += tr_y;
 643:Middlewares/lvgl/src/extra/layouts/grid/lv_grid.c **** 
 644:Middlewares/lvgl/src/extra/layouts/grid/lv_grid.c ****     lv_coord_t diff_x = hint->grid_abs.x + x - item->coords.x1;
 645:Middlewares/lvgl/src/extra/layouts/grid/lv_grid.c ****     lv_coord_t diff_y = hint->grid_abs.y + y - item->coords.y1;
 646:Middlewares/lvgl/src/extra/layouts/grid/lv_grid.c ****     if(diff_x || diff_y) {
 647:Middlewares/lvgl/src/extra/layouts/grid/lv_grid.c ****         lv_obj_invalidate(item);
 648:Middlewares/lvgl/src/extra/layouts/grid/lv_grid.c ****         item->coords.x1 += diff_x;
 649:Middlewares/lvgl/src/extra/layouts/grid/lv_grid.c ****         item->coords.x2 += diff_x;
 650:Middlewares/lvgl/src/extra/layouts/grid/lv_grid.c ****         item->coords.y1 += diff_y;
 651:Middlewares/lvgl/src/extra/layouts/grid/lv_grid.c ****         item->coords.y2 += diff_y;
 652:Middlewares/lvgl/src/extra/layouts/grid/lv_grid.c ****         lv_obj_invalidate(item);
 653:Middlewares/lvgl/src/extra/layouts/grid/lv_grid.c ****         lv_obj_move_children_by(item, diff_x, diff_y, true);
 654:Middlewares/lvgl/src/extra/layouts/grid/lv_grid.c ****     }
 655:Middlewares/lvgl/src/extra/layouts/grid/lv_grid.c **** }
 656:Middlewares/lvgl/src/extra/layouts/grid/lv_grid.c **** 
 657:Middlewares/lvgl/src/extra/layouts/grid/lv_grid.c **** /**
 658:Middlewares/lvgl/src/extra/layouts/grid/lv_grid.c ****  * Place the grid track according to align methods. It keeps the track sizes but sets their positio
ARM GAS  /tmp/ccRzkyyJ.s 			page 13


 659:Middlewares/lvgl/src/extra/layouts/grid/lv_grid.c ****  * It can process both columns or rows according to the passed parameters.
 660:Middlewares/lvgl/src/extra/layouts/grid/lv_grid.c ****  * @param cont_size size of the containers content area (width/height)
 661:Middlewares/lvgl/src/extra/layouts/grid/lv_grid.c ****  * @param auto_size true: the container has auto size in the current direction
 662:Middlewares/lvgl/src/extra/layouts/grid/lv_grid.c ****  * @param align align method
 663:Middlewares/lvgl/src/extra/layouts/grid/lv_grid.c ****  * @param gap grid gap
 664:Middlewares/lvgl/src/extra/layouts/grid/lv_grid.c ****  * @param track_num number of tracks
 665:Middlewares/lvgl/src/extra/layouts/grid/lv_grid.c ****  * @param size_array array with the track sizes
 666:Middlewares/lvgl/src/extra/layouts/grid/lv_grid.c ****  * @param pos_array write the positions of the tracks here
 667:Middlewares/lvgl/src/extra/layouts/grid/lv_grid.c ****  * @return the total size of the grid
 668:Middlewares/lvgl/src/extra/layouts/grid/lv_grid.c ****  */
 669:Middlewares/lvgl/src/extra/layouts/grid/lv_grid.c **** static lv_coord_t grid_align(lv_coord_t cont_size,  bool auto_size, uint8_t align, lv_coord_t gap, 
 670:Middlewares/lvgl/src/extra/layouts/grid/lv_grid.c **** {
  28              		.loc 1 670 1 view -0
  29              		.cfi_startproc
  30              		@ args = 16, pretend = 0, frame = 0
  31              		@ frame_needed = 0, uses_anonymous_args = 0
  32              		.loc 1 670 1 is_stmt 0 view .LVU1
  33 0000 2DE9F041 		push	{r4, r5, r6, r7, r8, lr}
  34              	.LCFI0:
  35              		.cfi_def_cfa_offset 24
  36              		.cfi_offset 4, -24
  37              		.cfi_offset 5, -20
  38              		.cfi_offset 6, -16
  39              		.cfi_offset 7, -12
  40              		.cfi_offset 8, -8
  41              		.cfi_offset 14, -4
  42 0004 8446     		mov	ip, r0
  43 0006 069D     		ldr	r5, [sp, #24]
  44 0008 079E     		ldr	r6, [sp, #28]
  45 000a 089C     		ldr	r4, [sp, #32]
  46 000c 9DF82470 		ldrb	r7, [sp, #36]	@ zero_extendqisi2
 671:Middlewares/lvgl/src/extra/layouts/grid/lv_grid.c ****     lv_coord_t grid_size = 0;
  47              		.loc 1 671 5 is_stmt 1 view .LVU2
  48              	.LVL1:
 672:Middlewares/lvgl/src/extra/layouts/grid/lv_grid.c ****     uint32_t i;
  49              		.loc 1 672 5 view .LVU3
 673:Middlewares/lvgl/src/extra/layouts/grid/lv_grid.c **** 
 674:Middlewares/lvgl/src/extra/layouts/grid/lv_grid.c ****     if(auto_size) {
  50              		.loc 1 674 5 view .LVU4
  51              		.loc 1 674 7 is_stmt 0 view .LVU5
  52 0010 19B1     		cbz	r1, .L2
 675:Middlewares/lvgl/src/extra/layouts/grid/lv_grid.c ****         pos_array[0] = 0;
  53              		.loc 1 675 9 is_stmt 1 view .LVU6
  54              		.loc 1 675 22 is_stmt 0 view .LVU7
  55 0012 0022     		movs	r2, #0
  56              	.LVL2:
  57              		.loc 1 675 22 view .LVU8
  58 0014 2280     		strh	r2, [r4]	@ movhi
  59              	.LVL3:
  60              	.L3:
 676:Middlewares/lvgl/src/extra/layouts/grid/lv_grid.c ****     } else {
 677:Middlewares/lvgl/src/extra/layouts/grid/lv_grid.c ****         /*With spaced alignment gap will be calculated from the remaining space*/
 678:Middlewares/lvgl/src/extra/layouts/grid/lv_grid.c ****         if(align == LV_GRID_ALIGN_SPACE_AROUND || align == LV_GRID_ALIGN_SPACE_BETWEEN || align == 
 679:Middlewares/lvgl/src/extra/layouts/grid/lv_grid.c ****             gap = 0;
 680:Middlewares/lvgl/src/extra/layouts/grid/lv_grid.c ****             if(track_num == 1) align = LV_GRID_ALIGN_CENTER;
 681:Middlewares/lvgl/src/extra/layouts/grid/lv_grid.c ****         }
 682:Middlewares/lvgl/src/extra/layouts/grid/lv_grid.c **** 
ARM GAS  /tmp/ccRzkyyJ.s 			page 14


 683:Middlewares/lvgl/src/extra/layouts/grid/lv_grid.c ****         /*Get the full grid size with gap*/
 684:Middlewares/lvgl/src/extra/layouts/grid/lv_grid.c ****         for(i = 0; i < track_num; i++) {
 685:Middlewares/lvgl/src/extra/layouts/grid/lv_grid.c ****             grid_size += size_array[i] + gap;
 686:Middlewares/lvgl/src/extra/layouts/grid/lv_grid.c ****         }
 687:Middlewares/lvgl/src/extra/layouts/grid/lv_grid.c ****         grid_size -= gap;
 688:Middlewares/lvgl/src/extra/layouts/grid/lv_grid.c **** 
 689:Middlewares/lvgl/src/extra/layouts/grid/lv_grid.c ****         /*Calculate the position of the first item and set gap is necessary*/
 690:Middlewares/lvgl/src/extra/layouts/grid/lv_grid.c ****         switch(align) {
 691:Middlewares/lvgl/src/extra/layouts/grid/lv_grid.c ****         case LV_GRID_ALIGN_START:
 692:Middlewares/lvgl/src/extra/layouts/grid/lv_grid.c ****             pos_array[0] = 0;
 693:Middlewares/lvgl/src/extra/layouts/grid/lv_grid.c ****             break;
 694:Middlewares/lvgl/src/extra/layouts/grid/lv_grid.c ****         case LV_GRID_ALIGN_CENTER:
 695:Middlewares/lvgl/src/extra/layouts/grid/lv_grid.c ****             pos_array[0] = (cont_size - grid_size) / 2;
 696:Middlewares/lvgl/src/extra/layouts/grid/lv_grid.c ****             break;
 697:Middlewares/lvgl/src/extra/layouts/grid/lv_grid.c ****         case LV_GRID_ALIGN_END:
 698:Middlewares/lvgl/src/extra/layouts/grid/lv_grid.c ****             pos_array[0] = cont_size - grid_size;
 699:Middlewares/lvgl/src/extra/layouts/grid/lv_grid.c ****             break;
 700:Middlewares/lvgl/src/extra/layouts/grid/lv_grid.c ****         case LV_GRID_ALIGN_SPACE_BETWEEN:
 701:Middlewares/lvgl/src/extra/layouts/grid/lv_grid.c ****             pos_array[0] = 0;
 702:Middlewares/lvgl/src/extra/layouts/grid/lv_grid.c ****             gap = (lv_coord_t)(cont_size - grid_size) / (lv_coord_t)(track_num - 1);
 703:Middlewares/lvgl/src/extra/layouts/grid/lv_grid.c ****             break;
 704:Middlewares/lvgl/src/extra/layouts/grid/lv_grid.c ****         case LV_GRID_ALIGN_SPACE_AROUND:
 705:Middlewares/lvgl/src/extra/layouts/grid/lv_grid.c ****             gap = (lv_coord_t)(cont_size - grid_size) / (lv_coord_t)(track_num);
 706:Middlewares/lvgl/src/extra/layouts/grid/lv_grid.c ****             pos_array[0] = gap / 2;
 707:Middlewares/lvgl/src/extra/layouts/grid/lv_grid.c ****             break;
 708:Middlewares/lvgl/src/extra/layouts/grid/lv_grid.c ****         case LV_GRID_ALIGN_SPACE_EVENLY:
 709:Middlewares/lvgl/src/extra/layouts/grid/lv_grid.c ****             gap = (lv_coord_t)(cont_size - grid_size) / (lv_coord_t)(track_num + 1);
 710:Middlewares/lvgl/src/extra/layouts/grid/lv_grid.c ****             pos_array[0] = gap;
 711:Middlewares/lvgl/src/extra/layouts/grid/lv_grid.c ****             break;
 712:Middlewares/lvgl/src/extra/layouts/grid/lv_grid.c **** 
 713:Middlewares/lvgl/src/extra/layouts/grid/lv_grid.c ****         }
 714:Middlewares/lvgl/src/extra/layouts/grid/lv_grid.c ****     }
 715:Middlewares/lvgl/src/extra/layouts/grid/lv_grid.c **** 
 716:Middlewares/lvgl/src/extra/layouts/grid/lv_grid.c ****     /*Set the position of all tracks from the start position, gaps and track sizes*/
 717:Middlewares/lvgl/src/extra/layouts/grid/lv_grid.c ****     for(i = 0; i < track_num - 1; i++) {
  61              		.loc 1 717 5 is_stmt 1 view .LVU9
  62              		.loc 1 717 11 is_stmt 0 view .LVU10
  63 0016 0022     		movs	r2, #0
  64              		.loc 1 717 5 view .LVU11
  65 0018 71E0     		b	.L16
  66              	.LVL4:
  67              	.L2:
 678:Middlewares/lvgl/src/extra/layouts/grid/lv_grid.c ****             gap = 0;
  68              		.loc 1 678 9 is_stmt 1 view .LVU12
 678:Middlewares/lvgl/src/extra/layouts/grid/lv_grid.c ****             gap = 0;
  69              		.loc 1 678 88 is_stmt 0 view .LVU13
  70 001a 111F     		subs	r1, r2, #4
  71              	.LVL5:
 678:Middlewares/lvgl/src/extra/layouts/grid/lv_grid.c ****             gap = 0;
  72              		.loc 1 678 88 view .LVU14
  73 001c C9B2     		uxtb	r1, r1
 678:Middlewares/lvgl/src/extra/layouts/grid/lv_grid.c ****             gap = 0;
  74              		.loc 1 678 11 view .LVU15
  75 001e 0229     		cmp	r1, #2
  76 0020 02D8     		bhi	.L4
 679:Middlewares/lvgl/src/extra/layouts/grid/lv_grid.c ****             if(track_num == 1) align = LV_GRID_ALIGN_CENTER;
  77              		.loc 1 679 13 is_stmt 1 view .LVU16
ARM GAS  /tmp/ccRzkyyJ.s 			page 15


  78              	.LVL6:
 680:Middlewares/lvgl/src/extra/layouts/grid/lv_grid.c ****         }
  79              		.loc 1 680 13 view .LVU17
 680:Middlewares/lvgl/src/extra/layouts/grid/lv_grid.c ****         }
  80              		.loc 1 680 15 is_stmt 0 view .LVU18
  81 0022 012D     		cmp	r5, #1
  82 0024 0CD0     		beq	.L21
 679:Middlewares/lvgl/src/extra/layouts/grid/lv_grid.c ****             if(track_num == 1) align = LV_GRID_ALIGN_CENTER;
  83              		.loc 1 679 17 view .LVU19
  84 0026 0023     		movs	r3, #0
  85              	.LVL7:
  86              	.L4:
 684:Middlewares/lvgl/src/extra/layouts/grid/lv_grid.c ****             grid_size += size_array[i] + gap;
  87              		.loc 1 684 9 is_stmt 1 view .LVU20
 684:Middlewares/lvgl/src/extra/layouts/grid/lv_grid.c ****             grid_size += size_array[i] + gap;
  88              		.loc 1 684 15 is_stmt 0 view .LVU21
  89 0028 0020     		movs	r0, #0
  90              	.LVL8:
 671:Middlewares/lvgl/src/extra/layouts/grid/lv_grid.c ****     uint32_t i;
  91              		.loc 1 671 16 view .LVU22
  92 002a 0146     		mov	r1, r0
  93              	.LVL9:
  94              	.L5:
 684:Middlewares/lvgl/src/extra/layouts/grid/lv_grid.c ****             grid_size += size_array[i] + gap;
  95              		.loc 1 684 20 is_stmt 1 discriminator 1 view .LVU23
 684:Middlewares/lvgl/src/extra/layouts/grid/lv_grid.c ****             grid_size += size_array[i] + gap;
  96              		.loc 1 684 9 is_stmt 0 discriminator 1 view .LVU24
  97 002c A842     		cmp	r0, r5
  98 002e 0AD2     		bcs	.L24
 685:Middlewares/lvgl/src/extra/layouts/grid/lv_grid.c ****         }
  99              		.loc 1 685 13 is_stmt 1 discriminator 3 view .LVU25
 685:Middlewares/lvgl/src/extra/layouts/grid/lv_grid.c ****         }
 100              		.loc 1 685 36 is_stmt 0 discriminator 3 view .LVU26
 101 0030 36F810E0 		ldrh	lr, [r6, r0, lsl #1]
 685:Middlewares/lvgl/src/extra/layouts/grid/lv_grid.c ****         }
 102              		.loc 1 685 40 discriminator 3 view .LVU27
 103 0034 9E44     		add	lr, lr, r3
 685:Middlewares/lvgl/src/extra/layouts/grid/lv_grid.c ****         }
 104              		.loc 1 685 23 discriminator 3 view .LVU28
 105 0036 11FA8EF1 		uxtah	r1, r1, lr
 106              	.LVL10:
 685:Middlewares/lvgl/src/extra/layouts/grid/lv_grid.c ****         }
 107              		.loc 1 685 23 discriminator 3 view .LVU29
 108 003a 09B2     		sxth	r1, r1
 109              	.LVL11:
 684:Middlewares/lvgl/src/extra/layouts/grid/lv_grid.c ****             grid_size += size_array[i] + gap;
 110              		.loc 1 684 35 is_stmt 1 discriminator 3 view .LVU30
 684:Middlewares/lvgl/src/extra/layouts/grid/lv_grid.c ****             grid_size += size_array[i] + gap;
 111              		.loc 1 684 36 is_stmt 0 discriminator 3 view .LVU31
 112 003c 0130     		adds	r0, r0, #1
 113              	.LVL12:
 684:Middlewares/lvgl/src/extra/layouts/grid/lv_grid.c ****             grid_size += size_array[i] + gap;
 114              		.loc 1 684 36 discriminator 3 view .LVU32
 115 003e F5E7     		b	.L5
 116              	.LVL13:
 117              	.L21:
 679:Middlewares/lvgl/src/extra/layouts/grid/lv_grid.c ****             if(track_num == 1) align = LV_GRID_ALIGN_CENTER;
ARM GAS  /tmp/ccRzkyyJ.s 			page 16


 118              		.loc 1 679 17 view .LVU33
 119 0040 0023     		movs	r3, #0
 680:Middlewares/lvgl/src/extra/layouts/grid/lv_grid.c ****         }
 120              		.loc 1 680 38 view .LVU34
 121 0042 0122     		movs	r2, #1
 122              	.LVL14:
 680:Middlewares/lvgl/src/extra/layouts/grid/lv_grid.c ****         }
 123              		.loc 1 680 38 view .LVU35
 124 0044 F0E7     		b	.L4
 125              	.LVL15:
 126              	.L24:
 687:Middlewares/lvgl/src/extra/layouts/grid/lv_grid.c **** 
 127              		.loc 1 687 9 is_stmt 1 view .LVU36
 687:Middlewares/lvgl/src/extra/layouts/grid/lv_grid.c **** 
 128              		.loc 1 687 19 is_stmt 0 view .LVU37
 129 0046 89B2     		uxth	r1, r1
 687:Middlewares/lvgl/src/extra/layouts/grid/lv_grid.c **** 
 130              		.loc 1 687 19 view .LVU38
 131 0048 98B2     		uxth	r0, r3
 132              	.LVL16:
 687:Middlewares/lvgl/src/extra/layouts/grid/lv_grid.c **** 
 133              		.loc 1 687 19 view .LVU39
 134 004a A1EB000E 		sub	lr, r1, r0
 135 004e 0FFA8EFE 		sxth	lr, lr
 136              	.LVL17:
 690:Middlewares/lvgl/src/extra/layouts/grid/lv_grid.c ****         case LV_GRID_ALIGN_START:
 137              		.loc 1 690 9 is_stmt 1 view .LVU40
 138 0052 062A     		cmp	r2, #6
 139 0054 DFD8     		bhi	.L3
 140 0056 0FF20808 		adr	r8, .L8
 141 005a 58F822F0 		ldr	pc, [r8, r2, lsl #2]
 142 005e 00BF     		.p2align 2
 143              	.L8:
 144 0060 7D000000 		.word	.L13+1
 145 0064 83000000 		.word	.L12+1
 146 0068 99000000 		.word	.L11+1
 147 006c 17000000 		.word	.L3+1
 148 0070 D7000000 		.word	.L10+1
 149 0074 B9000000 		.word	.L9+1
 150 0078 A3000000 		.word	.L7+1
 151              		.p2align 1
 152              	.L13:
 692:Middlewares/lvgl/src/extra/layouts/grid/lv_grid.c ****             break;
 153              		.loc 1 692 13 view .LVU41
 692:Middlewares/lvgl/src/extra/layouts/grid/lv_grid.c ****             break;
 154              		.loc 1 692 26 is_stmt 0 view .LVU42
 155 007c 0022     		movs	r2, #0
 156              	.LVL18:
 692:Middlewares/lvgl/src/extra/layouts/grid/lv_grid.c ****             break;
 157              		.loc 1 692 26 view .LVU43
 158 007e 2280     		strh	r2, [r4]	@ movhi
 693:Middlewares/lvgl/src/extra/layouts/grid/lv_grid.c ****         case LV_GRID_ALIGN_CENTER:
 159              		.loc 1 693 13 is_stmt 1 view .LVU44
 160 0080 C9E7     		b	.L3
 161              	.LVL19:
 162              	.L12:
 695:Middlewares/lvgl/src/extra/layouts/grid/lv_grid.c ****             break;
ARM GAS  /tmp/ccRzkyyJ.s 			page 17


 163              		.loc 1 695 13 view .LVU45
 695:Middlewares/lvgl/src/extra/layouts/grid/lv_grid.c ****             break;
 164              		.loc 1 695 52 is_stmt 0 view .LVU46
 165 0082 BCEB0E0E 		subs	lr, ip, lr
 166              	.LVL20:
 695:Middlewares/lvgl/src/extra/layouts/grid/lv_grid.c ****             break;
 167              		.loc 1 695 52 view .LVU47
 168 0086 04D4     		bmi	.L25
 169              	.L14:
 170 0088 4FEA6E0E 		asr	lr, lr, #1
 695:Middlewares/lvgl/src/extra/layouts/grid/lv_grid.c ****             break;
 171              		.loc 1 695 26 view .LVU48
 172 008c A4F800E0 		strh	lr, [r4]	@ movhi
 696:Middlewares/lvgl/src/extra/layouts/grid/lv_grid.c ****         case LV_GRID_ALIGN_END:
 173              		.loc 1 696 13 is_stmt 1 view .LVU49
 174 0090 C1E7     		b	.L3
 175              	.L25:
 695:Middlewares/lvgl/src/extra/layouts/grid/lv_grid.c ****             break;
 176              		.loc 1 695 52 is_stmt 0 view .LVU50
 177 0092 0EF1010E 		add	lr, lr, #1
 178 0096 F7E7     		b	.L14
 179              	.LVL21:
 180              	.L11:
 698:Middlewares/lvgl/src/extra/layouts/grid/lv_grid.c ****             break;
 181              		.loc 1 698 13 is_stmt 1 view .LVU51
 698:Middlewares/lvgl/src/extra/layouts/grid/lv_grid.c ****             break;
 182              		.loc 1 698 38 is_stmt 0 view .LVU52
 183 0098 411A     		subs	r1, r0, r1
 184 009a 01EB0C02 		add	r2, r1, ip
 185              	.LVL22:
 698:Middlewares/lvgl/src/extra/layouts/grid/lv_grid.c ****             break;
 186              		.loc 1 698 26 view .LVU53
 187 009e 2280     		strh	r2, [r4]	@ movhi
 699:Middlewares/lvgl/src/extra/layouts/grid/lv_grid.c ****         case LV_GRID_ALIGN_SPACE_BETWEEN:
 188              		.loc 1 699 13 is_stmt 1 view .LVU54
 189 00a0 B9E7     		b	.L3
 190              	.LVL23:
 191              	.L7:
 701:Middlewares/lvgl/src/extra/layouts/grid/lv_grid.c ****             gap = (lv_coord_t)(cont_size - grid_size) / (lv_coord_t)(track_num - 1);
 192              		.loc 1 701 13 view .LVU55
 701:Middlewares/lvgl/src/extra/layouts/grid/lv_grid.c ****             gap = (lv_coord_t)(cont_size - grid_size) / (lv_coord_t)(track_num - 1);
 193              		.loc 1 701 26 is_stmt 0 view .LVU56
 194 00a2 0023     		movs	r3, #0
 195              	.LVL24:
 701:Middlewares/lvgl/src/extra/layouts/grid/lv_grid.c ****             gap = (lv_coord_t)(cont_size - grid_size) / (lv_coord_t)(track_num - 1);
 196              		.loc 1 701 26 view .LVU57
 197 00a4 2380     		strh	r3, [r4]	@ movhi
 702:Middlewares/lvgl/src/extra/layouts/grid/lv_grid.c ****             break;
 198              		.loc 1 702 13 is_stmt 1 view .LVU58
 702:Middlewares/lvgl/src/extra/layouts/grid/lv_grid.c ****             break;
 199              		.loc 1 702 42 is_stmt 0 view .LVU59
 200 00a6 431A     		subs	r3, r0, r1
 201 00a8 6344     		add	r3, r3, ip
 702:Middlewares/lvgl/src/extra/layouts/grid/lv_grid.c ****             break;
 202              		.loc 1 702 19 view .LVU60
 203 00aa 1BB2     		sxth	r3, r3
 702:Middlewares/lvgl/src/extra/layouts/grid/lv_grid.c ****             break;
ARM GAS  /tmp/ccRzkyyJ.s 			page 18


 204              		.loc 1 702 80 view .LVU61
 205 00ac 6A1E     		subs	r2, r5, #1
 206              	.LVL25:
 702:Middlewares/lvgl/src/extra/layouts/grid/lv_grid.c ****             break;
 207              		.loc 1 702 57 view .LVU62
 208 00ae 12B2     		sxth	r2, r2
 702:Middlewares/lvgl/src/extra/layouts/grid/lv_grid.c ****             break;
 209              		.loc 1 702 55 view .LVU63
 210 00b0 93FBF2F3 		sdiv	r3, r3, r2
 702:Middlewares/lvgl/src/extra/layouts/grid/lv_grid.c ****             break;
 211              		.loc 1 702 17 view .LVU64
 212 00b4 1BB2     		sxth	r3, r3
 213              	.LVL26:
 703:Middlewares/lvgl/src/extra/layouts/grid/lv_grid.c ****         case LV_GRID_ALIGN_SPACE_AROUND:
 214              		.loc 1 703 13 is_stmt 1 view .LVU65
 215 00b6 AEE7     		b	.L3
 216              	.LVL27:
 217              	.L9:
 705:Middlewares/lvgl/src/extra/layouts/grid/lv_grid.c ****             pos_array[0] = gap / 2;
 218              		.loc 1 705 13 view .LVU66
 705:Middlewares/lvgl/src/extra/layouts/grid/lv_grid.c ****             pos_array[0] = gap / 2;
 219              		.loc 1 705 42 is_stmt 0 view .LVU67
 220 00b8 431A     		subs	r3, r0, r1
 221              	.LVL28:
 705:Middlewares/lvgl/src/extra/layouts/grid/lv_grid.c ****             pos_array[0] = gap / 2;
 222              		.loc 1 705 42 view .LVU68
 223 00ba 6344     		add	r3, r3, ip
 705:Middlewares/lvgl/src/extra/layouts/grid/lv_grid.c ****             pos_array[0] = gap / 2;
 224              		.loc 1 705 19 view .LVU69
 225 00bc 1BB2     		sxth	r3, r3
 705:Middlewares/lvgl/src/extra/layouts/grid/lv_grid.c ****             pos_array[0] = gap / 2;
 226              		.loc 1 705 57 view .LVU70
 227 00be 2AB2     		sxth	r2, r5
 228              	.LVL29:
 705:Middlewares/lvgl/src/extra/layouts/grid/lv_grid.c ****             pos_array[0] = gap / 2;
 229              		.loc 1 705 55 view .LVU71
 230 00c0 93FBF2F3 		sdiv	r3, r3, r2
 705:Middlewares/lvgl/src/extra/layouts/grid/lv_grid.c ****             pos_array[0] = gap / 2;
 231              		.loc 1 705 17 view .LVU72
 232 00c4 1BB2     		sxth	r3, r3
 233              	.LVL30:
 706:Middlewares/lvgl/src/extra/layouts/grid/lv_grid.c ****             break;
 234              		.loc 1 706 13 is_stmt 1 view .LVU73
 706:Middlewares/lvgl/src/extra/layouts/grid/lv_grid.c ****             break;
 235              		.loc 1 706 26 is_stmt 0 view .LVU74
 236 00c6 1A46     		mov	r2, r3
 237 00c8 002B     		cmp	r3, #0
 238 00ca 02DB     		blt	.L26
 239              	.L15:
 240 00cc 5210     		asrs	r2, r2, #1
 241 00ce 2280     		strh	r2, [r4]	@ movhi
 707:Middlewares/lvgl/src/extra/layouts/grid/lv_grid.c ****         case LV_GRID_ALIGN_SPACE_EVENLY:
 242              		.loc 1 707 13 is_stmt 1 view .LVU75
 243 00d0 A1E7     		b	.L3
 244              	.L26:
 706:Middlewares/lvgl/src/extra/layouts/grid/lv_grid.c ****             break;
 245              		.loc 1 706 26 is_stmt 0 view .LVU76
ARM GAS  /tmp/ccRzkyyJ.s 			page 19


 246 00d2 5A1C     		adds	r2, r3, #1
 247 00d4 FAE7     		b	.L15
 248              	.LVL31:
 249              	.L10:
 709:Middlewares/lvgl/src/extra/layouts/grid/lv_grid.c ****             pos_array[0] = gap;
 250              		.loc 1 709 13 is_stmt 1 view .LVU77
 709:Middlewares/lvgl/src/extra/layouts/grid/lv_grid.c ****             pos_array[0] = gap;
 251              		.loc 1 709 42 is_stmt 0 view .LVU78
 252 00d6 431A     		subs	r3, r0, r1
 253              	.LVL32:
 709:Middlewares/lvgl/src/extra/layouts/grid/lv_grid.c ****             pos_array[0] = gap;
 254              		.loc 1 709 42 view .LVU79
 255 00d8 6344     		add	r3, r3, ip
 709:Middlewares/lvgl/src/extra/layouts/grid/lv_grid.c ****             pos_array[0] = gap;
 256              		.loc 1 709 19 view .LVU80
 257 00da 1BB2     		sxth	r3, r3
 709:Middlewares/lvgl/src/extra/layouts/grid/lv_grid.c ****             pos_array[0] = gap;
 258              		.loc 1 709 80 view .LVU81
 259 00dc 6A1C     		adds	r2, r5, #1
 260              	.LVL33:
 709:Middlewares/lvgl/src/extra/layouts/grid/lv_grid.c ****             pos_array[0] = gap;
 261              		.loc 1 709 57 view .LVU82
 262 00de 12B2     		sxth	r2, r2
 709:Middlewares/lvgl/src/extra/layouts/grid/lv_grid.c ****             pos_array[0] = gap;
 263              		.loc 1 709 55 view .LVU83
 264 00e0 93FBF2F3 		sdiv	r3, r3, r2
 709:Middlewares/lvgl/src/extra/layouts/grid/lv_grid.c ****             pos_array[0] = gap;
 265              		.loc 1 709 17 view .LVU84
 266 00e4 1BB2     		sxth	r3, r3
 267              	.LVL34:
 710:Middlewares/lvgl/src/extra/layouts/grid/lv_grid.c ****             break;
 268              		.loc 1 710 13 is_stmt 1 view .LVU85
 710:Middlewares/lvgl/src/extra/layouts/grid/lv_grid.c ****             break;
 269              		.loc 1 710 26 is_stmt 0 view .LVU86
 270 00e6 2380     		strh	r3, [r4]	@ movhi
 711:Middlewares/lvgl/src/extra/layouts/grid/lv_grid.c **** 
 271              		.loc 1 711 13 is_stmt 1 view .LVU87
 272 00e8 95E7     		b	.L3
 273              	.LVL35:
 274              	.L17:
 718:Middlewares/lvgl/src/extra/layouts/grid/lv_grid.c ****         pos_array[i + 1] = pos_array[i] + size_array[i] + gap;
 275              		.loc 1 718 9 discriminator 3 view .LVU88
 276              		.loc 1 718 37 is_stmt 0 discriminator 3 view .LVU89
 277 00ea 34F81210 		ldrh	r1, [r4, r2, lsl #1]
 278              		.loc 1 718 53 discriminator 3 view .LVU90
 279 00ee 36F81200 		ldrh	r0, [r6, r2, lsl #1]
 280              		.loc 1 718 41 discriminator 3 view .LVU91
 281 00f2 0144     		add	r1, r1, r0
 282              		.loc 1 718 18 discriminator 3 view .LVU92
 283 00f4 0132     		adds	r2, r2, #1
 284              	.LVL36:
 285              		.loc 1 718 57 discriminator 3 view .LVU93
 286 00f6 13FA81F1 		uxtah	r1, r3, r1
 287              		.loc 1 718 26 discriminator 3 view .LVU94
 288 00fa 24F81210 		strh	r1, [r4, r2, lsl #1]	@ movhi
 717:Middlewares/lvgl/src/extra/layouts/grid/lv_grid.c ****         pos_array[i + 1] = pos_array[i] + size_array[i] + gap;
 289              		.loc 1 717 35 is_stmt 1 discriminator 3 view .LVU95
ARM GAS  /tmp/ccRzkyyJ.s 			page 20


 290              	.LVL37:
 291              	.L16:
 717:Middlewares/lvgl/src/extra/layouts/grid/lv_grid.c ****         pos_array[i + 1] = pos_array[i] + size_array[i] + gap;
 292              		.loc 1 717 16 discriminator 1 view .LVU96
 717:Middlewares/lvgl/src/extra/layouts/grid/lv_grid.c ****         pos_array[i + 1] = pos_array[i] + size_array[i] + gap;
 293              		.loc 1 717 30 is_stmt 0 discriminator 1 view .LVU97
 294 00fe 691E     		subs	r1, r5, #1
 717:Middlewares/lvgl/src/extra/layouts/grid/lv_grid.c ****         pos_array[i + 1] = pos_array[i] + size_array[i] + gap;
 295              		.loc 1 717 5 discriminator 1 view .LVU98
 296 0100 9142     		cmp	r1, r2
 297 0102 F2D8     		bhi	.L17
 719:Middlewares/lvgl/src/extra/layouts/grid/lv_grid.c ****     }
 720:Middlewares/lvgl/src/extra/layouts/grid/lv_grid.c **** 
 721:Middlewares/lvgl/src/extra/layouts/grid/lv_grid.c ****     lv_coord_t total_gird_size = pos_array[track_num - 1] + size_array[track_num - 1] - pos_array[0
 298              		.loc 1 721 5 is_stmt 1 view .LVU99
 299              		.loc 1 721 43 is_stmt 0 view .LVU100
 300 0104 6FF00043 		mvn	r3, #-2147483648
 301              	.LVL38:
 302              		.loc 1 721 43 view .LVU101
 303 0108 2B44     		add	r3, r3, r5
 304 010a 34F81300 		ldrh	r0, [r4, r3, lsl #1]
 305              		.loc 1 721 71 view .LVU102
 306 010e 36F81330 		ldrh	r3, [r6, r3, lsl #1]
 307              		.loc 1 721 59 view .LVU103
 308 0112 1844     		add	r0, r0, r3
 309 0114 80B2     		uxth	r0, r0
 310              		.loc 1 721 98 view .LVU104
 311 0116 2388     		ldrh	r3, [r4]
 312              		.loc 1 721 87 view .LVU105
 313 0118 C01A     		subs	r0, r0, r3
 314              		.loc 1 721 16 view .LVU106
 315 011a 00B2     		sxth	r0, r0
 316              	.LVL39:
 722:Middlewares/lvgl/src/extra/layouts/grid/lv_grid.c **** 
 723:Middlewares/lvgl/src/extra/layouts/grid/lv_grid.c ****     if(reverse) {
 317              		.loc 1 723 5 is_stmt 1 view .LVU107
 318              		.loc 1 723 7 is_stmt 0 view .LVU108
 319 011c 0FB9     		cbnz	r7, .L22
 320              	.L19:
 724:Middlewares/lvgl/src/extra/layouts/grid/lv_grid.c ****         for(i = 0; i < track_num; i++) {
 725:Middlewares/lvgl/src/extra/layouts/grid/lv_grid.c ****             pos_array[i] = cont_size - pos_array[i] - size_array[i];
 726:Middlewares/lvgl/src/extra/layouts/grid/lv_grid.c ****         }
 727:Middlewares/lvgl/src/extra/layouts/grid/lv_grid.c **** 
 728:Middlewares/lvgl/src/extra/layouts/grid/lv_grid.c ****     }
 729:Middlewares/lvgl/src/extra/layouts/grid/lv_grid.c **** 
 730:Middlewares/lvgl/src/extra/layouts/grid/lv_grid.c ****     /*Return the full size of the grid*/
 731:Middlewares/lvgl/src/extra/layouts/grid/lv_grid.c ****     return total_gird_size;
 321              		.loc 1 731 5 is_stmt 1 view .LVU109
 732:Middlewares/lvgl/src/extra/layouts/grid/lv_grid.c **** }
 322              		.loc 1 732 1 is_stmt 0 view .LVU110
 323 011e BDE8F081 		pop	{r4, r5, r6, r7, r8, pc}
 324              	.LVL40:
 325              	.L22:
 724:Middlewares/lvgl/src/extra/layouts/grid/lv_grid.c ****         for(i = 0; i < track_num; i++) {
 326              		.loc 1 724 15 view .LVU111
 327 0122 0022     		movs	r2, #0
 328              	.LVL41:
ARM GAS  /tmp/ccRzkyyJ.s 			page 21


 329              	.L18:
 724:Middlewares/lvgl/src/extra/layouts/grid/lv_grid.c ****         for(i = 0; i < track_num; i++) {
 330              		.loc 1 724 20 is_stmt 1 discriminator 1 view .LVU112
 724:Middlewares/lvgl/src/extra/layouts/grid/lv_grid.c ****         for(i = 0; i < track_num; i++) {
 331              		.loc 1 724 9 is_stmt 0 discriminator 1 view .LVU113
 332 0124 AA42     		cmp	r2, r5
 333 0126 FAD2     		bcs	.L19
 725:Middlewares/lvgl/src/extra/layouts/grid/lv_grid.c ****         }
 334              		.loc 1 725 13 is_stmt 1 discriminator 3 view .LVU114
 725:Middlewares/lvgl/src/extra/layouts/grid/lv_grid.c ****         }
 335              		.loc 1 725 49 is_stmt 0 discriminator 3 view .LVU115
 336 0128 34F81230 		ldrh	r3, [r4, r2, lsl #1]
 725:Middlewares/lvgl/src/extra/layouts/grid/lv_grid.c ****         }
 337              		.loc 1 725 38 discriminator 3 view .LVU116
 338 012c ACEB0303 		sub	r3, ip, r3
 339 0130 9BB2     		uxth	r3, r3
 725:Middlewares/lvgl/src/extra/layouts/grid/lv_grid.c ****         }
 340              		.loc 1 725 65 discriminator 3 view .LVU117
 341 0132 36F81210 		ldrh	r1, [r6, r2, lsl #1]
 725:Middlewares/lvgl/src/extra/layouts/grid/lv_grid.c ****         }
 342              		.loc 1 725 53 discriminator 3 view .LVU118
 343 0136 5B1A     		subs	r3, r3, r1
 725:Middlewares/lvgl/src/extra/layouts/grid/lv_grid.c ****         }
 344              		.loc 1 725 26 discriminator 3 view .LVU119
 345 0138 24F81230 		strh	r3, [r4, r2, lsl #1]	@ movhi
 724:Middlewares/lvgl/src/extra/layouts/grid/lv_grid.c ****         for(i = 0; i < track_num; i++) {
 346              		.loc 1 724 35 is_stmt 1 discriminator 3 view .LVU120
 724:Middlewares/lvgl/src/extra/layouts/grid/lv_grid.c ****         for(i = 0; i < track_num; i++) {
 347              		.loc 1 724 36 is_stmt 0 discriminator 3 view .LVU121
 348 013c 0132     		adds	r2, r2, #1
 349              	.LVL42:
 724:Middlewares/lvgl/src/extra/layouts/grid/lv_grid.c ****         for(i = 0; i < track_num; i++) {
 350              		.loc 1 724 36 discriminator 3 view .LVU122
 351 013e F1E7     		b	.L18
 352              		.cfi_endproc
 353              	.LFE203:
 355              		.section	.text.count_tracks,"ax",%progbits
 356              		.align	1
 357              		.syntax unified
 358              		.thumb
 359              		.thumb_func
 360              		.fpu fpv5-d16
 362              	count_tracks:
 363              	.LVL43:
 364              	.LFB204:
 733:Middlewares/lvgl/src/extra/layouts/grid/lv_grid.c **** 
 734:Middlewares/lvgl/src/extra/layouts/grid/lv_grid.c **** static uint32_t count_tracks(const lv_coord_t * templ)
 735:Middlewares/lvgl/src/extra/layouts/grid/lv_grid.c **** {
 365              		.loc 1 735 1 is_stmt 1 view -0
 366              		.cfi_startproc
 367              		@ args = 0, pretend = 0, frame = 0
 368              		@ frame_needed = 0, uses_anonymous_args = 0
 369              		@ link register save eliminated.
 370              		.loc 1 735 1 is_stmt 0 view .LVU124
 371 0000 0246     		mov	r2, r0
 736:Middlewares/lvgl/src/extra/layouts/grid/lv_grid.c ****     uint32_t i;
 372              		.loc 1 736 5 is_stmt 1 view .LVU125
ARM GAS  /tmp/ccRzkyyJ.s 			page 22


 737:Middlewares/lvgl/src/extra/layouts/grid/lv_grid.c ****     for(i = 0; templ[i] != LV_COORD_MAX; i++);
 373              		.loc 1 737 5 view .LVU126
 374              	.LVL44:
 375              		.loc 1 737 11 is_stmt 0 view .LVU127
 376 0002 0020     		movs	r0, #0
 377              	.LVL45:
 378              		.loc 1 737 5 view .LVU128
 379 0004 00E0     		b	.L28
 380              	.LVL46:
 381              	.L29:
 382              		.loc 1 737 46 is_stmt 1 discriminator 3 view .LVU129
 383              		.loc 1 737 42 discriminator 3 view .LVU130
 384              		.loc 1 737 43 is_stmt 0 discriminator 3 view .LVU131
 385 0006 0130     		adds	r0, r0, #1
 386              	.LVL47:
 387              	.L28:
 388              		.loc 1 737 16 is_stmt 1 discriminator 1 view .LVU132
 389              		.loc 1 737 21 is_stmt 0 discriminator 1 view .LVU133
 390 0008 32F91030 		ldrsh	r3, [r2, r0, lsl #1]
 391              		.loc 1 737 5 discriminator 1 view .LVU134
 392 000c B3F5C04F 		cmp	r3, #24576
 393 0010 F9D1     		bne	.L29
 738:Middlewares/lvgl/src/extra/layouts/grid/lv_grid.c **** 
 739:Middlewares/lvgl/src/extra/layouts/grid/lv_grid.c ****     return i;
 394              		.loc 1 739 5 is_stmt 1 view .LVU135
 740:Middlewares/lvgl/src/extra/layouts/grid/lv_grid.c **** }
 395              		.loc 1 740 1 is_stmt 0 view .LVU136
 396 0012 7047     		bx	lr
 397              		.cfi_endproc
 398              	.LFE204:
 400              		.section	.text.item_repos,"ax",%progbits
 401              		.align	1
 402              		.syntax unified
 403              		.thumb
 404              		.thumb_func
 405              		.fpu fpv5-d16
 407              	item_repos:
 408              	.LVL48:
 409              	.LFB202:
 546:Middlewares/lvgl/src/extra/layouts/grid/lv_grid.c ****     if(lv_obj_has_flag_any(item, LV_OBJ_FLAG_IGNORE_LAYOUT | LV_OBJ_FLAG_HIDDEN | LV_OBJ_FLAG_FLOAT
 410              		.loc 1 546 1 is_stmt 1 view -0
 411              		.cfi_startproc
 412              		@ args = 0, pretend = 0, frame = 32
 413              		@ frame_needed = 0, uses_anonymous_args = 0
 546:Middlewares/lvgl/src/extra/layouts/grid/lv_grid.c ****     if(lv_obj_has_flag_any(item, LV_OBJ_FLAG_IGNORE_LAYOUT | LV_OBJ_FLAG_HIDDEN | LV_OBJ_FLAG_FLOAT
 414              		.loc 1 546 1 is_stmt 0 view .LVU138
 415 0000 2DE9F04F 		push	{r4, r5, r6, r7, r8, r9, r10, fp, lr}
 416              	.LCFI1:
 417              		.cfi_def_cfa_offset 36
 418              		.cfi_offset 4, -36
 419              		.cfi_offset 5, -32
 420              		.cfi_offset 6, -28
 421              		.cfi_offset 7, -24
 422              		.cfi_offset 8, -20
 423              		.cfi_offset 9, -16
 424              		.cfi_offset 10, -12
 425              		.cfi_offset 11, -8
ARM GAS  /tmp/ccRzkyyJ.s 			page 23


 426              		.cfi_offset 14, -4
 427 0004 89B0     		sub	sp, sp, #36
 428              	.LCFI2:
 429              		.cfi_def_cfa_offset 72
 430 0006 0446     		mov	r4, r0
 431 0008 0D46     		mov	r5, r1
 432 000a 0192     		str	r2, [sp, #4]
 547:Middlewares/lvgl/src/extra/layouts/grid/lv_grid.c ****     uint32_t col_span = get_col_span(item);
 433              		.loc 1 547 5 is_stmt 1 view .LVU139
 547:Middlewares/lvgl/src/extra/layouts/grid/lv_grid.c ****     uint32_t col_span = get_col_span(item);
 434              		.loc 1 547 8 is_stmt 0 view .LVU140
 435 000c C649     		ldr	r1, .L61
 436              	.LVL49:
 547:Middlewares/lvgl/src/extra/layouts/grid/lv_grid.c ****     uint32_t col_span = get_col_span(item);
 437              		.loc 1 547 8 view .LVU141
 438 000e FFF7FEFF 		bl	lv_obj_has_flag_any
 439              	.LVL50:
 547:Middlewares/lvgl/src/extra/layouts/grid/lv_grid.c ****     uint32_t col_span = get_col_span(item);
 440              		.loc 1 547 7 view .LVU142
 441 0012 10B1     		cbz	r0, .L54
 442              	.LVL51:
 443              	.L30:
 655:Middlewares/lvgl/src/extra/layouts/grid/lv_grid.c **** 
 444              		.loc 1 655 1 view .LVU143
 445 0014 09B0     		add	sp, sp, #36
 446              	.LCFI3:
 447              		.cfi_remember_state
 448              		.cfi_def_cfa_offset 36
 449              		@ sp needed
 450 0016 BDE8F08F 		pop	{r4, r5, r6, r7, r8, r9, r10, fp, pc}
 451              	.LVL52:
 452              	.L54:
 453              	.LCFI4:
 454              		.cfi_restore_state
 548:Middlewares/lvgl/src/extra/layouts/grid/lv_grid.c ****     uint32_t row_span = get_row_span(item);
 455              		.loc 1 548 5 is_stmt 1 view .LVU144
 456              	.LBB109:
 457              	.LBI109:
  64:Middlewares/lvgl/src/extra/layouts/grid/lv_grid.c **** static inline uint8_t get_row_span(lv_obj_t * obj) {return lv_obj_get_style_grid_cell_row_span(obj,
 458              		.loc 1 64 23 view .LVU145
 459              	.LBB110:
  64:Middlewares/lvgl/src/extra/layouts/grid/lv_grid.c **** static inline uint8_t get_row_span(lv_obj_t * obj) {return lv_obj_get_style_grid_cell_row_span(obj,
 460              		.loc 1 64 53 view .LVU146
 461              	.LBB111:
 462              	.LBI111:
 463              		.file 2 "Middlewares/lvgl/src/extra/layouts/grid/../grid/lv_grid.h"
   1:Middlewares/lvgl/src/extra/layouts/grid/../grid/lv_grid.h **** /**
   2:Middlewares/lvgl/src/extra/layouts/grid/../grid/lv_grid.h ****  * @file lv_grid.h
   3:Middlewares/lvgl/src/extra/layouts/grid/../grid/lv_grid.h ****  *
   4:Middlewares/lvgl/src/extra/layouts/grid/../grid/lv_grid.h ****  */
   5:Middlewares/lvgl/src/extra/layouts/grid/../grid/lv_grid.h **** 
   6:Middlewares/lvgl/src/extra/layouts/grid/../grid/lv_grid.h **** #ifndef LV_GRID_H
   7:Middlewares/lvgl/src/extra/layouts/grid/../grid/lv_grid.h **** #define LV_GRID_H
   8:Middlewares/lvgl/src/extra/layouts/grid/../grid/lv_grid.h **** 
   9:Middlewares/lvgl/src/extra/layouts/grid/../grid/lv_grid.h **** #ifdef __cplusplus
  10:Middlewares/lvgl/src/extra/layouts/grid/../grid/lv_grid.h **** extern "C" {
  11:Middlewares/lvgl/src/extra/layouts/grid/../grid/lv_grid.h **** #endif
ARM GAS  /tmp/ccRzkyyJ.s 			page 24


  12:Middlewares/lvgl/src/extra/layouts/grid/../grid/lv_grid.h **** 
  13:Middlewares/lvgl/src/extra/layouts/grid/../grid/lv_grid.h **** /*********************
  14:Middlewares/lvgl/src/extra/layouts/grid/../grid/lv_grid.h ****  *      INCLUDES
  15:Middlewares/lvgl/src/extra/layouts/grid/../grid/lv_grid.h ****  *********************/
  16:Middlewares/lvgl/src/extra/layouts/grid/../grid/lv_grid.h **** #include "../../../core/lv_obj.h"
  17:Middlewares/lvgl/src/extra/layouts/grid/../grid/lv_grid.h **** #if LV_USE_GRID
  18:Middlewares/lvgl/src/extra/layouts/grid/../grid/lv_grid.h **** 
  19:Middlewares/lvgl/src/extra/layouts/grid/../grid/lv_grid.h **** /*********************
  20:Middlewares/lvgl/src/extra/layouts/grid/../grid/lv_grid.h ****  *      DEFINES
  21:Middlewares/lvgl/src/extra/layouts/grid/../grid/lv_grid.h ****  *********************/
  22:Middlewares/lvgl/src/extra/layouts/grid/../grid/lv_grid.h **** /**
  23:Middlewares/lvgl/src/extra/layouts/grid/../grid/lv_grid.h ****  * Can be used track size to make the track fill the free space.
  24:Middlewares/lvgl/src/extra/layouts/grid/../grid/lv_grid.h ****  * @param x how much space to take proportionally to other FR tracks
  25:Middlewares/lvgl/src/extra/layouts/grid/../grid/lv_grid.h ****  * @return a special track size
  26:Middlewares/lvgl/src/extra/layouts/grid/../grid/lv_grid.h ****  */
  27:Middlewares/lvgl/src/extra/layouts/grid/../grid/lv_grid.h **** #define LV_GRID_FR(x)          (LV_COORD_MAX - 100 + x)
  28:Middlewares/lvgl/src/extra/layouts/grid/../grid/lv_grid.h **** 
  29:Middlewares/lvgl/src/extra/layouts/grid/../grid/lv_grid.h **** #define LV_GRID_CONTENT        (LV_COORD_MAX - 101)
  30:Middlewares/lvgl/src/extra/layouts/grid/../grid/lv_grid.h **** LV_EXPORT_CONST_INT(LV_GRID_CONTENT);
  31:Middlewares/lvgl/src/extra/layouts/grid/../grid/lv_grid.h **** 
  32:Middlewares/lvgl/src/extra/layouts/grid/../grid/lv_grid.h **** #define LV_GRID_TEMPLATE_LAST  (LV_COORD_MAX)
  33:Middlewares/lvgl/src/extra/layouts/grid/../grid/lv_grid.h **** LV_EXPORT_CONST_INT(LV_GRID_TEMPLATE_LAST);
  34:Middlewares/lvgl/src/extra/layouts/grid/../grid/lv_grid.h **** 
  35:Middlewares/lvgl/src/extra/layouts/grid/../grid/lv_grid.h **** /**********************
  36:Middlewares/lvgl/src/extra/layouts/grid/../grid/lv_grid.h ****  *      TYPEDEFS
  37:Middlewares/lvgl/src/extra/layouts/grid/../grid/lv_grid.h ****  **********************/
  38:Middlewares/lvgl/src/extra/layouts/grid/../grid/lv_grid.h **** 
  39:Middlewares/lvgl/src/extra/layouts/grid/../grid/lv_grid.h **** /*Can't include lv_obj.h because it includes this header file*/
  40:Middlewares/lvgl/src/extra/layouts/grid/../grid/lv_grid.h **** struct _lv_obj_t;
  41:Middlewares/lvgl/src/extra/layouts/grid/../grid/lv_grid.h **** 
  42:Middlewares/lvgl/src/extra/layouts/grid/../grid/lv_grid.h **** typedef enum {
  43:Middlewares/lvgl/src/extra/layouts/grid/../grid/lv_grid.h ****     LV_GRID_ALIGN_START,
  44:Middlewares/lvgl/src/extra/layouts/grid/../grid/lv_grid.h ****     LV_GRID_ALIGN_CENTER,
  45:Middlewares/lvgl/src/extra/layouts/grid/../grid/lv_grid.h ****     LV_GRID_ALIGN_END,
  46:Middlewares/lvgl/src/extra/layouts/grid/../grid/lv_grid.h ****     LV_GRID_ALIGN_STRETCH,
  47:Middlewares/lvgl/src/extra/layouts/grid/../grid/lv_grid.h ****     LV_GRID_ALIGN_SPACE_EVENLY,
  48:Middlewares/lvgl/src/extra/layouts/grid/../grid/lv_grid.h ****     LV_GRID_ALIGN_SPACE_AROUND,
  49:Middlewares/lvgl/src/extra/layouts/grid/../grid/lv_grid.h ****     LV_GRID_ALIGN_SPACE_BETWEEN,
  50:Middlewares/lvgl/src/extra/layouts/grid/../grid/lv_grid.h **** }lv_grid_align_t;
  51:Middlewares/lvgl/src/extra/layouts/grid/../grid/lv_grid.h **** 
  52:Middlewares/lvgl/src/extra/layouts/grid/../grid/lv_grid.h **** /**********************
  53:Middlewares/lvgl/src/extra/layouts/grid/../grid/lv_grid.h ****  * GLOBAL VARIABLES
  54:Middlewares/lvgl/src/extra/layouts/grid/../grid/lv_grid.h ****  **********************/
  55:Middlewares/lvgl/src/extra/layouts/grid/../grid/lv_grid.h **** 
  56:Middlewares/lvgl/src/extra/layouts/grid/../grid/lv_grid.h **** extern uint32_t LV_LAYOUT_GRID;
  57:Middlewares/lvgl/src/extra/layouts/grid/../grid/lv_grid.h **** extern lv_style_prop_t LV_STYLE_GRID_COLUMN_DSC_ARRAY;
  58:Middlewares/lvgl/src/extra/layouts/grid/../grid/lv_grid.h **** extern lv_style_prop_t LV_STYLE_GRID_COLUMN_ALIGN;
  59:Middlewares/lvgl/src/extra/layouts/grid/../grid/lv_grid.h **** extern lv_style_prop_t LV_STYLE_GRID_ROW_DSC_ARRAY;
  60:Middlewares/lvgl/src/extra/layouts/grid/../grid/lv_grid.h **** extern lv_style_prop_t LV_STYLE_GRID_ROW_ALIGN;
  61:Middlewares/lvgl/src/extra/layouts/grid/../grid/lv_grid.h **** extern lv_style_prop_t LV_STYLE_GRID_CELL_COLUMN_POS;
  62:Middlewares/lvgl/src/extra/layouts/grid/../grid/lv_grid.h **** extern lv_style_prop_t LV_STYLE_GRID_CELL_COLUMN_SPAN;
  63:Middlewares/lvgl/src/extra/layouts/grid/../grid/lv_grid.h **** extern lv_style_prop_t LV_STYLE_GRID_CELL_X_ALIGN;
  64:Middlewares/lvgl/src/extra/layouts/grid/../grid/lv_grid.h **** extern lv_style_prop_t LV_STYLE_GRID_CELL_ROW_POS;
  65:Middlewares/lvgl/src/extra/layouts/grid/../grid/lv_grid.h **** extern lv_style_prop_t LV_STYLE_GRID_CELL_ROW_SPAN;
  66:Middlewares/lvgl/src/extra/layouts/grid/../grid/lv_grid.h **** extern lv_style_prop_t LV_STYLE_GRID_CELL_Y_ALIGN;
  67:Middlewares/lvgl/src/extra/layouts/grid/../grid/lv_grid.h **** 
  68:Middlewares/lvgl/src/extra/layouts/grid/../grid/lv_grid.h **** /**********************
ARM GAS  /tmp/ccRzkyyJ.s 			page 25


  69:Middlewares/lvgl/src/extra/layouts/grid/../grid/lv_grid.h ****  * GLOBAL PROTOTYPES
  70:Middlewares/lvgl/src/extra/layouts/grid/../grid/lv_grid.h ****  **********************/
  71:Middlewares/lvgl/src/extra/layouts/grid/../grid/lv_grid.h **** 
  72:Middlewares/lvgl/src/extra/layouts/grid/../grid/lv_grid.h **** void lv_grid_init(void);
  73:Middlewares/lvgl/src/extra/layouts/grid/../grid/lv_grid.h **** 
  74:Middlewares/lvgl/src/extra/layouts/grid/../grid/lv_grid.h **** void lv_obj_set_grid_dsc_array(lv_obj_t * obj, const lv_coord_t col_dsc[], const lv_coord_t row_dsc
  75:Middlewares/lvgl/src/extra/layouts/grid/../grid/lv_grid.h **** 
  76:Middlewares/lvgl/src/extra/layouts/grid/../grid/lv_grid.h **** void lv_obj_set_grid_align(lv_obj_t * obj, lv_grid_align_t column_align, lv_grid_align_t row_align)
  77:Middlewares/lvgl/src/extra/layouts/grid/../grid/lv_grid.h **** 
  78:Middlewares/lvgl/src/extra/layouts/grid/../grid/lv_grid.h **** /**
  79:Middlewares/lvgl/src/extra/layouts/grid/../grid/lv_grid.h ****  * Set the cell of an object. The object's parent needs to have grid layout, else nothing will happ
  80:Middlewares/lvgl/src/extra/layouts/grid/../grid/lv_grid.h ****  * @param obj pointer to an object
  81:Middlewares/lvgl/src/extra/layouts/grid/../grid/lv_grid.h ****  * @param hor_place the vertical alignment in the cell. `LV_GRID_START/END/CENTER/STRETCH`
  82:Middlewares/lvgl/src/extra/layouts/grid/../grid/lv_grid.h ****  * @param col_pos column ID
  83:Middlewares/lvgl/src/extra/layouts/grid/../grid/lv_grid.h ****  * @param col_span number of columns to take (>= 1)
  84:Middlewares/lvgl/src/extra/layouts/grid/../grid/lv_grid.h ****  * @param ver_place the horizontal alignment in the cell. `LV_GRID_START/END/CENTER/STRETCH`
  85:Middlewares/lvgl/src/extra/layouts/grid/../grid/lv_grid.h ****  * @param row_pos row ID
  86:Middlewares/lvgl/src/extra/layouts/grid/../grid/lv_grid.h ****  * @param row_span number of rows to take (>= 1)
  87:Middlewares/lvgl/src/extra/layouts/grid/../grid/lv_grid.h ****  */
  88:Middlewares/lvgl/src/extra/layouts/grid/../grid/lv_grid.h **** void lv_obj_set_grid_cell(lv_obj_t * obj, lv_grid_align_t column_align, uint8_t col_pos, uint8_t co
  89:Middlewares/lvgl/src/extra/layouts/grid/../grid/lv_grid.h ****                                           lv_grid_align_t row_align, uint8_t row_pos, uint8_t row_s
  90:Middlewares/lvgl/src/extra/layouts/grid/../grid/lv_grid.h **** 
  91:Middlewares/lvgl/src/extra/layouts/grid/../grid/lv_grid.h **** /**
  92:Middlewares/lvgl/src/extra/layouts/grid/../grid/lv_grid.h ****  * Just a wrapper to `LV_GRID_FR` for bindings.
  93:Middlewares/lvgl/src/extra/layouts/grid/../grid/lv_grid.h ****  */
  94:Middlewares/lvgl/src/extra/layouts/grid/../grid/lv_grid.h **** static inline lv_coord_t lv_grid_fr(uint8_t x)
  95:Middlewares/lvgl/src/extra/layouts/grid/../grid/lv_grid.h **** {
  96:Middlewares/lvgl/src/extra/layouts/grid/../grid/lv_grid.h ****     return LV_GRID_FR(x);
  97:Middlewares/lvgl/src/extra/layouts/grid/../grid/lv_grid.h **** }
  98:Middlewares/lvgl/src/extra/layouts/grid/../grid/lv_grid.h **** 
  99:Middlewares/lvgl/src/extra/layouts/grid/../grid/lv_grid.h **** void lv_style_set_grid_row_dsc_array(lv_style_t * style, const lv_coord_t value[]);
 100:Middlewares/lvgl/src/extra/layouts/grid/../grid/lv_grid.h **** void lv_style_set_grid_column_dsc_array(lv_style_t * style, const lv_coord_t value[]);
 101:Middlewares/lvgl/src/extra/layouts/grid/../grid/lv_grid.h **** void lv_style_set_grid_row_align(lv_style_t * style, lv_grid_align_t value);
 102:Middlewares/lvgl/src/extra/layouts/grid/../grid/lv_grid.h **** void lv_style_set_grid_column_align(lv_style_t * style, lv_grid_align_t value);
 103:Middlewares/lvgl/src/extra/layouts/grid/../grid/lv_grid.h **** void lv_style_set_grid_cell_column_pos(lv_style_t * style, lv_coord_t value);
 104:Middlewares/lvgl/src/extra/layouts/grid/../grid/lv_grid.h **** void lv_style_set_grid_cell_column_span(lv_style_t * style, lv_coord_t value);
 105:Middlewares/lvgl/src/extra/layouts/grid/../grid/lv_grid.h **** void lv_style_set_grid_cell_row_pos(lv_style_t * style, lv_coord_t value);
 106:Middlewares/lvgl/src/extra/layouts/grid/../grid/lv_grid.h **** void lv_style_set_grid_cell_row_span(lv_style_t * style, lv_coord_t value);
 107:Middlewares/lvgl/src/extra/layouts/grid/../grid/lv_grid.h **** void lv_style_set_grid_cell_x_align(lv_style_t * style, lv_coord_t value);
 108:Middlewares/lvgl/src/extra/layouts/grid/../grid/lv_grid.h **** void lv_style_set_grid_cell_y_align(lv_style_t * style, lv_coord_t value);
 109:Middlewares/lvgl/src/extra/layouts/grid/../grid/lv_grid.h **** 
 110:Middlewares/lvgl/src/extra/layouts/grid/../grid/lv_grid.h **** void lv_obj_set_style_grid_row_dsc_array(lv_obj_t * obj, const lv_coord_t value[], lv_style_selecto
 111:Middlewares/lvgl/src/extra/layouts/grid/../grid/lv_grid.h **** void lv_obj_set_style_grid_column_dsc_array(lv_obj_t * obj, const lv_coord_t value[], lv_style_sele
 112:Middlewares/lvgl/src/extra/layouts/grid/../grid/lv_grid.h **** void lv_obj_set_style_grid_row_align(lv_obj_t * obj, lv_grid_align_t value, lv_style_selector_t sel
 113:Middlewares/lvgl/src/extra/layouts/grid/../grid/lv_grid.h **** void lv_obj_set_style_grid_column_align(lv_obj_t * obj, lv_grid_align_t value, lv_style_selector_t 
 114:Middlewares/lvgl/src/extra/layouts/grid/../grid/lv_grid.h **** void lv_obj_set_style_grid_cell_column_pos(lv_obj_t * obj, lv_coord_t value, lv_style_selector_t se
 115:Middlewares/lvgl/src/extra/layouts/grid/../grid/lv_grid.h **** void lv_obj_set_style_grid_cell_column_span(lv_obj_t * obj, lv_coord_t value, lv_style_selector_t s
 116:Middlewares/lvgl/src/extra/layouts/grid/../grid/lv_grid.h **** void lv_obj_set_style_grid_cell_row_pos(lv_obj_t * obj, lv_coord_t value, lv_style_selector_t selec
 117:Middlewares/lvgl/src/extra/layouts/grid/../grid/lv_grid.h **** void lv_obj_set_style_grid_cell_row_span(lv_obj_t * obj, lv_coord_t value, lv_style_selector_t sele
 118:Middlewares/lvgl/src/extra/layouts/grid/../grid/lv_grid.h **** void lv_obj_set_style_grid_cell_x_align(lv_obj_t * obj, lv_coord_t value, lv_style_selector_t selec
 119:Middlewares/lvgl/src/extra/layouts/grid/../grid/lv_grid.h **** void lv_obj_set_style_grid_cell_y_align(lv_obj_t * obj, lv_coord_t value, lv_style_selector_t selec
 120:Middlewares/lvgl/src/extra/layouts/grid/../grid/lv_grid.h **** 
 121:Middlewares/lvgl/src/extra/layouts/grid/../grid/lv_grid.h **** static inline const lv_coord_t * lv_obj_get_style_grid_row_dsc_array(const lv_obj_t * obj, uint32_t
 122:Middlewares/lvgl/src/extra/layouts/grid/../grid/lv_grid.h **** {
 123:Middlewares/lvgl/src/extra/layouts/grid/../grid/lv_grid.h ****     lv_style_value_t v = lv_obj_get_style_prop(obj, part, LV_STYLE_GRID_ROW_DSC_ARRAY);
 124:Middlewares/lvgl/src/extra/layouts/grid/../grid/lv_grid.h ****     return (const lv_coord_t *)v.ptr;
 125:Middlewares/lvgl/src/extra/layouts/grid/../grid/lv_grid.h **** }
ARM GAS  /tmp/ccRzkyyJ.s 			page 26


 126:Middlewares/lvgl/src/extra/layouts/grid/../grid/lv_grid.h **** 
 127:Middlewares/lvgl/src/extra/layouts/grid/../grid/lv_grid.h **** static inline const lv_coord_t * lv_obj_get_style_grid_column_dsc_array(const lv_obj_t * obj, uint3
 128:Middlewares/lvgl/src/extra/layouts/grid/../grid/lv_grid.h **** {
 129:Middlewares/lvgl/src/extra/layouts/grid/../grid/lv_grid.h ****     lv_style_value_t v = lv_obj_get_style_prop(obj, part, LV_STYLE_GRID_COLUMN_DSC_ARRAY);
 130:Middlewares/lvgl/src/extra/layouts/grid/../grid/lv_grid.h ****     return (const lv_coord_t *)v.ptr;
 131:Middlewares/lvgl/src/extra/layouts/grid/../grid/lv_grid.h **** }
 132:Middlewares/lvgl/src/extra/layouts/grid/../grid/lv_grid.h **** 
 133:Middlewares/lvgl/src/extra/layouts/grid/../grid/lv_grid.h **** static inline lv_grid_align_t lv_obj_get_style_grid_row_align(const lv_obj_t * obj, uint32_t part)
 134:Middlewares/lvgl/src/extra/layouts/grid/../grid/lv_grid.h **** {
 135:Middlewares/lvgl/src/extra/layouts/grid/../grid/lv_grid.h ****     lv_style_value_t v = lv_obj_get_style_prop(obj, part, LV_STYLE_GRID_ROW_ALIGN);
 136:Middlewares/lvgl/src/extra/layouts/grid/../grid/lv_grid.h ****     return (lv_grid_align_t)v.num;
 137:Middlewares/lvgl/src/extra/layouts/grid/../grid/lv_grid.h **** }
 138:Middlewares/lvgl/src/extra/layouts/grid/../grid/lv_grid.h **** 
 139:Middlewares/lvgl/src/extra/layouts/grid/../grid/lv_grid.h **** static inline lv_grid_align_t lv_obj_get_style_grid_column_align(const lv_obj_t * obj, uint32_t par
 140:Middlewares/lvgl/src/extra/layouts/grid/../grid/lv_grid.h **** {
 141:Middlewares/lvgl/src/extra/layouts/grid/../grid/lv_grid.h ****     lv_style_value_t v = lv_obj_get_style_prop(obj, part, LV_STYLE_GRID_COLUMN_ALIGN);
 142:Middlewares/lvgl/src/extra/layouts/grid/../grid/lv_grid.h ****     return (lv_grid_align_t)v.num;
 143:Middlewares/lvgl/src/extra/layouts/grid/../grid/lv_grid.h **** }
 144:Middlewares/lvgl/src/extra/layouts/grid/../grid/lv_grid.h **** 
 145:Middlewares/lvgl/src/extra/layouts/grid/../grid/lv_grid.h **** static inline lv_coord_t lv_obj_get_style_grid_cell_column_pos(const lv_obj_t * obj, uint32_t part)
 146:Middlewares/lvgl/src/extra/layouts/grid/../grid/lv_grid.h **** {
 147:Middlewares/lvgl/src/extra/layouts/grid/../grid/lv_grid.h ****     lv_style_value_t v = lv_obj_get_style_prop(obj, part, LV_STYLE_GRID_CELL_COLUMN_POS);
 148:Middlewares/lvgl/src/extra/layouts/grid/../grid/lv_grid.h ****     return (lv_coord_t)v.num;
 149:Middlewares/lvgl/src/extra/layouts/grid/../grid/lv_grid.h **** }
 150:Middlewares/lvgl/src/extra/layouts/grid/../grid/lv_grid.h **** 
 151:Middlewares/lvgl/src/extra/layouts/grid/../grid/lv_grid.h **** static inline lv_coord_t lv_obj_get_style_grid_cell_column_span(const lv_obj_t * obj, uint32_t part
 464              		.loc 2 151 26 view .LVU147
 465              	.LBB112:
 152:Middlewares/lvgl/src/extra/layouts/grid/../grid/lv_grid.h **** {
 153:Middlewares/lvgl/src/extra/layouts/grid/../grid/lv_grid.h ****     lv_style_value_t v = lv_obj_get_style_prop(obj, part, LV_STYLE_GRID_CELL_COLUMN_SPAN);
 466              		.loc 2 153 5 view .LVU148
 467              		.loc 2 153 26 is_stmt 0 view .LVU149
 468 001a C44B     		ldr	r3, .L61+4
 469 001c 1A88     		ldrh	r2, [r3]
 470 001e 0021     		movs	r1, #0
 471 0020 2046     		mov	r0, r4
 472 0022 FFF7FEFF 		bl	lv_obj_get_style_prop
 473              	.LVL53:
 154:Middlewares/lvgl/src/extra/layouts/grid/../grid/lv_grid.h ****     return (lv_coord_t)v.num;
 474              		.loc 2 154 5 is_stmt 1 view .LVU150
 475              		.loc 2 154 5 is_stmt 0 view .LVU151
 476              	.LBE112:
 477              	.LBE111:
  64:Middlewares/lvgl/src/extra/layouts/grid/lv_grid.c **** static inline uint8_t get_row_span(lv_obj_t * obj) {return lv_obj_get_style_grid_cell_row_span(obj,
 478              		.loc 1 64 60 view .LVU152
 479 0026 C7B2     		uxtb	r7, r0
 480              	.LVL54:
  64:Middlewares/lvgl/src/extra/layouts/grid/lv_grid.c **** static inline uint8_t get_row_span(lv_obj_t * obj) {return lv_obj_get_style_grid_cell_row_span(obj,
 481              		.loc 1 64 60 view .LVU153
 482              	.LBE110:
 483              	.LBE109:
 549:Middlewares/lvgl/src/extra/layouts/grid/lv_grid.c ****     if(row_span == 0 || col_span == 0) return;
 484              		.loc 1 549 5 is_stmt 1 view .LVU154
 485              	.LBB113:
 486              	.LBI113:
  65:Middlewares/lvgl/src/extra/layouts/grid/lv_grid.c **** static inline uint8_t get_cell_col_align(lv_obj_t * obj) {return lv_obj_get_style_grid_cell_x_align
 487              		.loc 1 65 23 view .LVU155
ARM GAS  /tmp/ccRzkyyJ.s 			page 27


 488              	.LBB114:
  65:Middlewares/lvgl/src/extra/layouts/grid/lv_grid.c **** static inline uint8_t get_cell_col_align(lv_obj_t * obj) {return lv_obj_get_style_grid_cell_x_align
 489              		.loc 1 65 53 view .LVU156
 490              	.LBB115:
 491              	.LBI115:
 155:Middlewares/lvgl/src/extra/layouts/grid/../grid/lv_grid.h **** }
 156:Middlewares/lvgl/src/extra/layouts/grid/../grid/lv_grid.h **** 
 157:Middlewares/lvgl/src/extra/layouts/grid/../grid/lv_grid.h **** static inline lv_coord_t lv_obj_get_style_grid_cell_row_pos(const lv_obj_t * obj, uint32_t part)
 158:Middlewares/lvgl/src/extra/layouts/grid/../grid/lv_grid.h **** {
 159:Middlewares/lvgl/src/extra/layouts/grid/../grid/lv_grid.h ****     lv_style_value_t v = lv_obj_get_style_prop(obj, part, LV_STYLE_GRID_CELL_ROW_POS);
 160:Middlewares/lvgl/src/extra/layouts/grid/../grid/lv_grid.h ****     return (lv_coord_t)v.num;
 161:Middlewares/lvgl/src/extra/layouts/grid/../grid/lv_grid.h **** }
 162:Middlewares/lvgl/src/extra/layouts/grid/../grid/lv_grid.h **** 
 163:Middlewares/lvgl/src/extra/layouts/grid/../grid/lv_grid.h **** static inline lv_coord_t lv_obj_get_style_grid_cell_row_span(const lv_obj_t * obj, uint32_t part)
 492              		.loc 2 163 26 view .LVU157
 493              	.LBB116:
 164:Middlewares/lvgl/src/extra/layouts/grid/../grid/lv_grid.h **** {
 165:Middlewares/lvgl/src/extra/layouts/grid/../grid/lv_grid.h ****     lv_style_value_t v = lv_obj_get_style_prop(obj, part, LV_STYLE_GRID_CELL_ROW_SPAN);
 494              		.loc 2 165 5 view .LVU158
 495              		.loc 2 165 26 is_stmt 0 view .LVU159
 496 0028 C14B     		ldr	r3, .L61+8
 497 002a 1A88     		ldrh	r2, [r3]
 498 002c 0021     		movs	r1, #0
 499 002e 2046     		mov	r0, r4
 500 0030 FFF7FEFF 		bl	lv_obj_get_style_prop
 501              	.LVL55:
 166:Middlewares/lvgl/src/extra/layouts/grid/../grid/lv_grid.h ****     return (lv_coord_t)v.num;
 502              		.loc 2 166 5 is_stmt 1 view .LVU160
 503              		.loc 2 166 5 is_stmt 0 view .LVU161
 504              	.LBE116:
 505              	.LBE115:
 506              	.LBE114:
 507              	.LBE113:
 550:Middlewares/lvgl/src/extra/layouts/grid/lv_grid.c **** 
 508              		.loc 1 550 5 is_stmt 1 view .LVU162
 550:Middlewares/lvgl/src/extra/layouts/grid/lv_grid.c **** 
 509              		.loc 1 550 17 is_stmt 0 view .LVU163
 510 0034 10F0FF06 		ands	r6, r0, #255
 511 0038 0CBF     		ite	eq
 512 003a 0123     		moveq	r3, #1
 513 003c 0023     		movne	r3, #0
 550:Middlewares/lvgl/src/extra/layouts/grid/lv_grid.c **** 
 514              		.loc 1 550 22 view .LVU164
 515 003e 002F     		cmp	r7, #0
 516 0040 08BF     		it	eq
 517 0042 43F00103 		orreq	r3, r3, #1
 550:Middlewares/lvgl/src/extra/layouts/grid/lv_grid.c **** 
 518              		.loc 1 550 7 view .LVU165
 519 0046 002B     		cmp	r3, #0
 520 0048 E4D1     		bne	.L30
 552:Middlewares/lvgl/src/extra/layouts/grid/lv_grid.c ****     uint32_t row_pos = get_row_pos(item);
 521              		.loc 1 552 5 is_stmt 1 view .LVU166
 522              	.LVL56:
 523              	.LBB117:
 524              	.LBI117:
  62:Middlewares/lvgl/src/extra/layouts/grid/lv_grid.c **** static inline uint8_t get_row_pos(lv_obj_t * obj) {return lv_obj_get_style_grid_cell_row_pos(obj, 0
 525              		.loc 1 62 23 view .LVU167
ARM GAS  /tmp/ccRzkyyJ.s 			page 28


 526              	.LBB118:
  62:Middlewares/lvgl/src/extra/layouts/grid/lv_grid.c **** static inline uint8_t get_row_pos(lv_obj_t * obj) {return lv_obj_get_style_grid_cell_row_pos(obj, 0
 527              		.loc 1 62 52 view .LVU168
 528              	.LBB119:
 529              	.LBI119:
 145:Middlewares/lvgl/src/extra/layouts/grid/../grid/lv_grid.h **** {
 530              		.loc 2 145 26 view .LVU169
 531              	.LBB120:
 147:Middlewares/lvgl/src/extra/layouts/grid/../grid/lv_grid.h ****     return (lv_coord_t)v.num;
 532              		.loc 2 147 5 view .LVU170
 147:Middlewares/lvgl/src/extra/layouts/grid/../grid/lv_grid.h ****     return (lv_coord_t)v.num;
 533              		.loc 2 147 26 is_stmt 0 view .LVU171
 534 004a BA4B     		ldr	r3, .L61+12
 535 004c 1A88     		ldrh	r2, [r3]
 536 004e 0021     		movs	r1, #0
 537 0050 2046     		mov	r0, r4
 538              	.LVL57:
 147:Middlewares/lvgl/src/extra/layouts/grid/../grid/lv_grid.h ****     return (lv_coord_t)v.num;
 539              		.loc 2 147 26 view .LVU172
 540 0052 FFF7FEFF 		bl	lv_obj_get_style_prop
 541              	.LVL58:
 148:Middlewares/lvgl/src/extra/layouts/grid/../grid/lv_grid.h **** }
 542              		.loc 2 148 5 is_stmt 1 view .LVU173
 148:Middlewares/lvgl/src/extra/layouts/grid/../grid/lv_grid.h **** }
 543              		.loc 2 148 5 is_stmt 0 view .LVU174
 544              	.LBE120:
 545              	.LBE119:
  62:Middlewares/lvgl/src/extra/layouts/grid/lv_grid.c **** static inline uint8_t get_row_pos(lv_obj_t * obj) {return lv_obj_get_style_grid_cell_row_pos(obj, 0
 546              		.loc 1 62 59 view .LVU175
 547 0056 5FFA80FB 		uxtb	fp, r0
 548              	.LVL59:
  62:Middlewares/lvgl/src/extra/layouts/grid/lv_grid.c **** static inline uint8_t get_row_pos(lv_obj_t * obj) {return lv_obj_get_style_grid_cell_row_pos(obj, 0
 549              		.loc 1 62 59 view .LVU176
 550              	.LBE118:
 551              	.LBE117:
 553:Middlewares/lvgl/src/extra/layouts/grid/lv_grid.c ****     lv_grid_align_t col_align = get_cell_col_align(item);
 552              		.loc 1 553 5 is_stmt 1 view .LVU177
 553              	.LBB121:
 554              	.LBI121:
  63:Middlewares/lvgl/src/extra/layouts/grid/lv_grid.c **** static inline uint8_t get_col_span(lv_obj_t * obj) {return lv_obj_get_style_grid_cell_column_span(o
 555              		.loc 1 63 23 view .LVU178
 556              	.LBB122:
  63:Middlewares/lvgl/src/extra/layouts/grid/lv_grid.c **** static inline uint8_t get_col_span(lv_obj_t * obj) {return lv_obj_get_style_grid_cell_column_span(o
 557              		.loc 1 63 52 view .LVU179
 558              	.LBB123:
 559              	.LBI123:
 157:Middlewares/lvgl/src/extra/layouts/grid/../grid/lv_grid.h **** {
 560              		.loc 2 157 26 view .LVU180
 561              	.LBB124:
 159:Middlewares/lvgl/src/extra/layouts/grid/../grid/lv_grid.h ****     return (lv_coord_t)v.num;
 562              		.loc 2 159 5 view .LVU181
 159:Middlewares/lvgl/src/extra/layouts/grid/../grid/lv_grid.h ****     return (lv_coord_t)v.num;
 563              		.loc 2 159 26 is_stmt 0 view .LVU182
 564 005a B74B     		ldr	r3, .L61+16
 565 005c 1A88     		ldrh	r2, [r3]
 566 005e 0021     		movs	r1, #0
 567 0060 2046     		mov	r0, r4
ARM GAS  /tmp/ccRzkyyJ.s 			page 29


 568 0062 FFF7FEFF 		bl	lv_obj_get_style_prop
 569              	.LVL60:
 160:Middlewares/lvgl/src/extra/layouts/grid/../grid/lv_grid.h **** }
 570              		.loc 2 160 5 is_stmt 1 view .LVU183
 160:Middlewares/lvgl/src/extra/layouts/grid/../grid/lv_grid.h **** }
 571              		.loc 2 160 5 is_stmt 0 view .LVU184
 572              	.LBE124:
 573              	.LBE123:
  63:Middlewares/lvgl/src/extra/layouts/grid/lv_grid.c **** static inline uint8_t get_col_span(lv_obj_t * obj) {return lv_obj_get_style_grid_cell_column_span(o
 574              		.loc 1 63 59 view .LVU185
 575 0066 5FFA80FA 		uxtb	r10, r0
 576              	.LVL61:
  63:Middlewares/lvgl/src/extra/layouts/grid/lv_grid.c **** static inline uint8_t get_col_span(lv_obj_t * obj) {return lv_obj_get_style_grid_cell_column_span(o
 577              		.loc 1 63 59 view .LVU186
 578              	.LBE122:
 579              	.LBE121:
 554:Middlewares/lvgl/src/extra/layouts/grid/lv_grid.c ****     lv_grid_align_t row_align = get_cell_row_align(item);
 580              		.loc 1 554 5 is_stmt 1 view .LVU187
 581              	.LBB125:
 582              	.LBI125:
  66:Middlewares/lvgl/src/extra/layouts/grid/lv_grid.c **** static inline uint8_t get_cell_row_align(lv_obj_t * obj) {return lv_obj_get_style_grid_cell_y_align
 583              		.loc 1 66 23 view .LVU188
 584              	.LBB126:
  66:Middlewares/lvgl/src/extra/layouts/grid/lv_grid.c **** static inline uint8_t get_cell_row_align(lv_obj_t * obj) {return lv_obj_get_style_grid_cell_y_align
 585              		.loc 1 66 59 view .LVU189
 586              	.LBB127:
 587              	.LBI127:
 167:Middlewares/lvgl/src/extra/layouts/grid/../grid/lv_grid.h **** }
 168:Middlewares/lvgl/src/extra/layouts/grid/../grid/lv_grid.h **** 
 169:Middlewares/lvgl/src/extra/layouts/grid/../grid/lv_grid.h **** static inline lv_coord_t lv_obj_get_style_grid_cell_x_align(const lv_obj_t * obj, uint32_t part)
 588              		.loc 2 169 26 view .LVU190
 589              	.LBB128:
 170:Middlewares/lvgl/src/extra/layouts/grid/../grid/lv_grid.h **** {
 171:Middlewares/lvgl/src/extra/layouts/grid/../grid/lv_grid.h ****     lv_style_value_t v = lv_obj_get_style_prop(obj, part, LV_STYLE_GRID_CELL_X_ALIGN);
 590              		.loc 2 171 5 view .LVU191
 591              		.loc 2 171 26 is_stmt 0 view .LVU192
 592 006a B44B     		ldr	r3, .L61+20
 593 006c 1A88     		ldrh	r2, [r3]
 594 006e 0021     		movs	r1, #0
 595 0070 2046     		mov	r0, r4
 596 0072 FFF7FEFF 		bl	lv_obj_get_style_prop
 597              	.LVL62:
 172:Middlewares/lvgl/src/extra/layouts/grid/../grid/lv_grid.h ****     return (lv_coord_t)v.num;
 598              		.loc 2 172 5 is_stmt 1 view .LVU193
 599              		.loc 2 172 5 is_stmt 0 view .LVU194
 600              	.LBE128:
 601              	.LBE127:
  66:Middlewares/lvgl/src/extra/layouts/grid/lv_grid.c **** static inline uint8_t get_cell_row_align(lv_obj_t * obj) {return lv_obj_get_style_grid_cell_y_align
 602              		.loc 1 66 66 view .LVU195
 603 0076 5FFA80F8 		uxtb	r8, r0
 604              	.LVL63:
  66:Middlewares/lvgl/src/extra/layouts/grid/lv_grid.c **** static inline uint8_t get_cell_row_align(lv_obj_t * obj) {return lv_obj_get_style_grid_cell_y_align
 605              		.loc 1 66 66 view .LVU196
 606              	.LBE126:
 607              	.LBE125:
 555:Middlewares/lvgl/src/extra/layouts/grid/lv_grid.c **** 
 608              		.loc 1 555 5 is_stmt 1 view .LVU197
ARM GAS  /tmp/ccRzkyyJ.s 			page 30


 609              	.LBB129:
 610              	.LBI129:
  67:Middlewares/lvgl/src/extra/layouts/grid/lv_grid.c **** static inline uint8_t get_grid_col_align(lv_obj_t * obj) {return lv_obj_get_style_grid_column_align
 611              		.loc 1 67 23 view .LVU198
 612              	.LBB130:
  67:Middlewares/lvgl/src/extra/layouts/grid/lv_grid.c **** static inline uint8_t get_grid_col_align(lv_obj_t * obj) {return lv_obj_get_style_grid_column_align
 613              		.loc 1 67 59 view .LVU199
 614              	.LBB131:
 615              	.LBI131:
 173:Middlewares/lvgl/src/extra/layouts/grid/../grid/lv_grid.h **** }
 174:Middlewares/lvgl/src/extra/layouts/grid/../grid/lv_grid.h **** 
 175:Middlewares/lvgl/src/extra/layouts/grid/../grid/lv_grid.h **** static inline lv_coord_t lv_obj_get_style_grid_cell_y_align(const lv_obj_t * obj, uint32_t part)
 616              		.loc 2 175 26 view .LVU200
 617              	.LBB132:
 176:Middlewares/lvgl/src/extra/layouts/grid/../grid/lv_grid.h **** {
 177:Middlewares/lvgl/src/extra/layouts/grid/../grid/lv_grid.h ****     lv_style_value_t v = lv_obj_get_style_prop(obj, part, LV_STYLE_GRID_CELL_Y_ALIGN);
 618              		.loc 2 177 5 view .LVU201
 619              		.loc 2 177 26 is_stmt 0 view .LVU202
 620 007a B14B     		ldr	r3, .L61+24
 621 007c 1A88     		ldrh	r2, [r3]
 622 007e 0021     		movs	r1, #0
 623 0080 2046     		mov	r0, r4
 624 0082 FFF7FEFF 		bl	lv_obj_get_style_prop
 625              	.LVL64:
 178:Middlewares/lvgl/src/extra/layouts/grid/../grid/lv_grid.h ****     return (lv_coord_t)v.num;
 626              		.loc 2 178 5 is_stmt 1 view .LVU203
 627              		.loc 2 178 5 is_stmt 0 view .LVU204
 628              	.LBE132:
 629              	.LBE131:
  67:Middlewares/lvgl/src/extra/layouts/grid/lv_grid.c **** static inline uint8_t get_grid_col_align(lv_obj_t * obj) {return lv_obj_get_style_grid_column_align
 630              		.loc 1 67 66 view .LVU205
 631 0086 5FFA80F9 		uxtb	r9, r0
 632              	.LVL65:
  67:Middlewares/lvgl/src/extra/layouts/grid/lv_grid.c **** static inline uint8_t get_grid_col_align(lv_obj_t * obj) {return lv_obj_get_style_grid_column_align
 633              		.loc 1 67 66 view .LVU206
 634              	.LBE130:
 635              	.LBE129:
 558:Middlewares/lvgl/src/extra/layouts/grid/lv_grid.c ****     lv_coord_t col_x2 = c->x[col_pos + col_span - 1] + c->w[col_pos + col_span - 1];
 636              		.loc 1 558 5 is_stmt 1 view .LVU207
 558:Middlewares/lvgl/src/extra/layouts/grid/lv_grid.c ****     lv_coord_t col_x2 = c->x[col_pos + col_span - 1] + c->w[col_pos + col_span - 1];
 637              		.loc 1 558 26 is_stmt 0 view .LVU208
 638 008a 2B68     		ldr	r3, [r5]
 558:Middlewares/lvgl/src/extra/layouts/grid/lv_grid.c ****     lv_coord_t col_x2 = c->x[col_pos + col_span - 1] + c->w[col_pos + col_span - 1];
 639              		.loc 1 558 16 view .LVU209
 640 008c 33F91B10 		ldrsh	r1, [r3, fp, lsl #1]
 641              	.LVL66:
 559:Middlewares/lvgl/src/extra/layouts/grid/lv_grid.c ****     lv_coord_t col_w = col_x2 - col_x1;
 642              		.loc 1 559 5 is_stmt 1 view .LVU210
 559:Middlewares/lvgl/src/extra/layouts/grid/lv_grid.c ****     lv_coord_t col_w = col_x2 - col_x1;
 643              		.loc 1 559 38 is_stmt 0 view .LVU211
 644 0090 5F44     		add	r7, r7, fp
 645              	.LVL67:
 559:Middlewares/lvgl/src/extra/layouts/grid/lv_grid.c ****     lv_coord_t col_w = col_x2 - col_x1;
 646              		.loc 1 559 29 view .LVU212
 647 0092 6FF00042 		mvn	r2, #-2147483648
 648 0096 1744     		add	r7, r7, r2
 649 0098 33F81730 		ldrh	r3, [r3, r7, lsl #1]
ARM GAS  /tmp/ccRzkyyJ.s 			page 31


 559:Middlewares/lvgl/src/extra/layouts/grid/lv_grid.c ****     lv_coord_t col_w = col_x2 - col_x1;
 650              		.loc 1 559 57 view .LVU213
 651 009c A868     		ldr	r0, [r5, #8]
 559:Middlewares/lvgl/src/extra/layouts/grid/lv_grid.c ****     lv_coord_t col_w = col_x2 - col_x1;
 652              		.loc 1 559 60 view .LVU214
 653 009e 30F81700 		ldrh	r0, [r0, r7, lsl #1]
 559:Middlewares/lvgl/src/extra/layouts/grid/lv_grid.c ****     lv_coord_t col_w = col_x2 - col_x1;
 654              		.loc 1 559 54 view .LVU215
 655 00a2 0344     		add	r3, r3, r0
 656 00a4 9BB2     		uxth	r3, r3
 657              	.LVL68:
 560:Middlewares/lvgl/src/extra/layouts/grid/lv_grid.c **** 
 658              		.loc 1 560 5 is_stmt 1 view .LVU216
 560:Middlewares/lvgl/src/extra/layouts/grid/lv_grid.c **** 
 659              		.loc 1 560 31 is_stmt 0 view .LVU217
 660 00a6 5B1A     		subs	r3, r3, r1
 661              	.LVL69:
 560:Middlewares/lvgl/src/extra/layouts/grid/lv_grid.c **** 
 662              		.loc 1 560 31 view .LVU218
 663 00a8 99B2     		uxth	r1, r3
 664              	.LVL70:
 560:Middlewares/lvgl/src/extra/layouts/grid/lv_grid.c **** 
 665              		.loc 1 560 31 view .LVU219
 666 00aa 0491     		str	r1, [sp, #16]
 560:Middlewares/lvgl/src/extra/layouts/grid/lv_grid.c **** 
 667              		.loc 1 560 16 view .LVU220
 668 00ac 1BB2     		sxth	r3, r3
 669 00ae 0293     		str	r3, [sp, #8]
 670              	.LVL71:
 562:Middlewares/lvgl/src/extra/layouts/grid/lv_grid.c ****     lv_coord_t row_y2 = c->y[row_pos + row_span - 1] + c->h[row_pos + row_span - 1];
 671              		.loc 1 562 5 is_stmt 1 view .LVU221
 562:Middlewares/lvgl/src/extra/layouts/grid/lv_grid.c ****     lv_coord_t row_y2 = c->y[row_pos + row_span - 1] + c->h[row_pos + row_span - 1];
 672              		.loc 1 562 26 is_stmt 0 view .LVU222
 673 00b0 6B68     		ldr	r3, [r5, #4]
 562:Middlewares/lvgl/src/extra/layouts/grid/lv_grid.c ****     lv_coord_t row_y2 = c->y[row_pos + row_span - 1] + c->h[row_pos + row_span - 1];
 674              		.loc 1 562 16 view .LVU223
 675 00b2 33F91A10 		ldrsh	r1, [r3, r10, lsl #1]
 676              	.LVL72:
 563:Middlewares/lvgl/src/extra/layouts/grid/lv_grid.c ****     lv_coord_t row_h = row_y2 - row_y1;
 677              		.loc 1 563 5 is_stmt 1 view .LVU224
 563:Middlewares/lvgl/src/extra/layouts/grid/lv_grid.c ****     lv_coord_t row_h = row_y2 - row_y1;
 678              		.loc 1 563 38 is_stmt 0 view .LVU225
 679 00b6 5644     		add	r6, r6, r10
 563:Middlewares/lvgl/src/extra/layouts/grid/lv_grid.c ****     lv_coord_t row_h = row_y2 - row_y1;
 680              		.loc 1 563 29 view .LVU226
 681 00b8 3244     		add	r2, r2, r6
 682 00ba 33F81230 		ldrh	r3, [r3, r2, lsl #1]
 563:Middlewares/lvgl/src/extra/layouts/grid/lv_grid.c ****     lv_coord_t row_h = row_y2 - row_y1;
 683              		.loc 1 563 57 view .LVU227
 684 00be E868     		ldr	r0, [r5, #12]
 685              	.LVL73:
 563:Middlewares/lvgl/src/extra/layouts/grid/lv_grid.c ****     lv_coord_t row_h = row_y2 - row_y1;
 686              		.loc 1 563 60 view .LVU228
 687 00c0 30F81220 		ldrh	r2, [r0, r2, lsl #1]
 563:Middlewares/lvgl/src/extra/layouts/grid/lv_grid.c ****     lv_coord_t row_h = row_y2 - row_y1;
 688              		.loc 1 563 54 view .LVU229
 689 00c4 1344     		add	r3, r3, r2
ARM GAS  /tmp/ccRzkyyJ.s 			page 32


 690 00c6 9BB2     		uxth	r3, r3
 691              	.LVL74:
 564:Middlewares/lvgl/src/extra/layouts/grid/lv_grid.c **** 
 692              		.loc 1 564 5 is_stmt 1 view .LVU230
 564:Middlewares/lvgl/src/extra/layouts/grid/lv_grid.c **** 
 693              		.loc 1 564 31 is_stmt 0 view .LVU231
 694 00c8 5B1A     		subs	r3, r3, r1
 695              	.LVL75:
 564:Middlewares/lvgl/src/extra/layouts/grid/lv_grid.c **** 
 696              		.loc 1 564 31 view .LVU232
 697 00ca 9AB2     		uxth	r2, r3
 698              	.LVL76:
 564:Middlewares/lvgl/src/extra/layouts/grid/lv_grid.c **** 
 699              		.loc 1 564 31 view .LVU233
 700 00cc 0592     		str	r2, [sp, #20]
 564:Middlewares/lvgl/src/extra/layouts/grid/lv_grid.c **** 
 701              		.loc 1 564 16 view .LVU234
 702 00ce 1BB2     		sxth	r3, r3
 703 00d0 0393     		str	r3, [sp, #12]
 704              	.LVL77:
 568:Middlewares/lvgl/src/extra/layouts/grid/lv_grid.c ****         if(col_align == LV_GRID_ALIGN_START) col_align = LV_GRID_ALIGN_END;
 705              		.loc 1 568 5 is_stmt 1 view .LVU235
 706              	.LBB133:
 707              	.LBI133:
 708              		.file 3 "Middlewares/lvgl/src/extra/layouts/grid/../flex/../../../core/lv_obj_style_gen.h"
   1:Middlewares/lvgl/src/extra/layouts/grid/../flex/../../../core/lv_obj_style_gen.h **** static inline lv_coord_t lv_obj_get_style_width(const struct _lv_obj_t * obj, uint32_t part)
   2:Middlewares/lvgl/src/extra/layouts/grid/../flex/../../../core/lv_obj_style_gen.h **** {
   3:Middlewares/lvgl/src/extra/layouts/grid/../flex/../../../core/lv_obj_style_gen.h ****     lv_style_value_t v = lv_obj_get_style_prop(obj, part, LV_STYLE_WIDTH);
   4:Middlewares/lvgl/src/extra/layouts/grid/../flex/../../../core/lv_obj_style_gen.h ****     return (lv_coord_t)v.num;
   5:Middlewares/lvgl/src/extra/layouts/grid/../flex/../../../core/lv_obj_style_gen.h **** }
   6:Middlewares/lvgl/src/extra/layouts/grid/../flex/../../../core/lv_obj_style_gen.h **** 
   7:Middlewares/lvgl/src/extra/layouts/grid/../flex/../../../core/lv_obj_style_gen.h **** static inline lv_coord_t lv_obj_get_style_min_width(const struct _lv_obj_t * obj, uint32_t part)
   8:Middlewares/lvgl/src/extra/layouts/grid/../flex/../../../core/lv_obj_style_gen.h **** {
   9:Middlewares/lvgl/src/extra/layouts/grid/../flex/../../../core/lv_obj_style_gen.h ****     lv_style_value_t v = lv_obj_get_style_prop(obj, part, LV_STYLE_MIN_WIDTH);
  10:Middlewares/lvgl/src/extra/layouts/grid/../flex/../../../core/lv_obj_style_gen.h ****     return (lv_coord_t)v.num;
  11:Middlewares/lvgl/src/extra/layouts/grid/../flex/../../../core/lv_obj_style_gen.h **** }
  12:Middlewares/lvgl/src/extra/layouts/grid/../flex/../../../core/lv_obj_style_gen.h **** 
  13:Middlewares/lvgl/src/extra/layouts/grid/../flex/../../../core/lv_obj_style_gen.h **** static inline lv_coord_t lv_obj_get_style_max_width(const struct _lv_obj_t * obj, uint32_t part)
  14:Middlewares/lvgl/src/extra/layouts/grid/../flex/../../../core/lv_obj_style_gen.h **** {
  15:Middlewares/lvgl/src/extra/layouts/grid/../flex/../../../core/lv_obj_style_gen.h ****     lv_style_value_t v = lv_obj_get_style_prop(obj, part, LV_STYLE_MAX_WIDTH);
  16:Middlewares/lvgl/src/extra/layouts/grid/../flex/../../../core/lv_obj_style_gen.h ****     return (lv_coord_t)v.num;
  17:Middlewares/lvgl/src/extra/layouts/grid/../flex/../../../core/lv_obj_style_gen.h **** }
  18:Middlewares/lvgl/src/extra/layouts/grid/../flex/../../../core/lv_obj_style_gen.h **** 
  19:Middlewares/lvgl/src/extra/layouts/grid/../flex/../../../core/lv_obj_style_gen.h **** static inline lv_coord_t lv_obj_get_style_height(const struct _lv_obj_t * obj, uint32_t part)
  20:Middlewares/lvgl/src/extra/layouts/grid/../flex/../../../core/lv_obj_style_gen.h **** {
  21:Middlewares/lvgl/src/extra/layouts/grid/../flex/../../../core/lv_obj_style_gen.h ****     lv_style_value_t v = lv_obj_get_style_prop(obj, part, LV_STYLE_HEIGHT);
  22:Middlewares/lvgl/src/extra/layouts/grid/../flex/../../../core/lv_obj_style_gen.h ****     return (lv_coord_t)v.num;
  23:Middlewares/lvgl/src/extra/layouts/grid/../flex/../../../core/lv_obj_style_gen.h **** }
  24:Middlewares/lvgl/src/extra/layouts/grid/../flex/../../../core/lv_obj_style_gen.h **** 
  25:Middlewares/lvgl/src/extra/layouts/grid/../flex/../../../core/lv_obj_style_gen.h **** static inline lv_coord_t lv_obj_get_style_min_height(const struct _lv_obj_t * obj, uint32_t part)
  26:Middlewares/lvgl/src/extra/layouts/grid/../flex/../../../core/lv_obj_style_gen.h **** {
  27:Middlewares/lvgl/src/extra/layouts/grid/../flex/../../../core/lv_obj_style_gen.h ****     lv_style_value_t v = lv_obj_get_style_prop(obj, part, LV_STYLE_MIN_HEIGHT);
  28:Middlewares/lvgl/src/extra/layouts/grid/../flex/../../../core/lv_obj_style_gen.h ****     return (lv_coord_t)v.num;
  29:Middlewares/lvgl/src/extra/layouts/grid/../flex/../../../core/lv_obj_style_gen.h **** }
  30:Middlewares/lvgl/src/extra/layouts/grid/../flex/../../../core/lv_obj_style_gen.h **** 
  31:Middlewares/lvgl/src/extra/layouts/grid/../flex/../../../core/lv_obj_style_gen.h **** static inline lv_coord_t lv_obj_get_style_max_height(const struct _lv_obj_t * obj, uint32_t part)
  32:Middlewares/lvgl/src/extra/layouts/grid/../flex/../../../core/lv_obj_style_gen.h **** {
ARM GAS  /tmp/ccRzkyyJ.s 			page 33


  33:Middlewares/lvgl/src/extra/layouts/grid/../flex/../../../core/lv_obj_style_gen.h ****     lv_style_value_t v = lv_obj_get_style_prop(obj, part, LV_STYLE_MAX_HEIGHT);
  34:Middlewares/lvgl/src/extra/layouts/grid/../flex/../../../core/lv_obj_style_gen.h ****     return (lv_coord_t)v.num;
  35:Middlewares/lvgl/src/extra/layouts/grid/../flex/../../../core/lv_obj_style_gen.h **** }
  36:Middlewares/lvgl/src/extra/layouts/grid/../flex/../../../core/lv_obj_style_gen.h **** 
  37:Middlewares/lvgl/src/extra/layouts/grid/../flex/../../../core/lv_obj_style_gen.h **** static inline lv_coord_t lv_obj_get_style_x(const struct _lv_obj_t * obj, uint32_t part)
  38:Middlewares/lvgl/src/extra/layouts/grid/../flex/../../../core/lv_obj_style_gen.h **** {
  39:Middlewares/lvgl/src/extra/layouts/grid/../flex/../../../core/lv_obj_style_gen.h ****     lv_style_value_t v = lv_obj_get_style_prop(obj, part, LV_STYLE_X);
  40:Middlewares/lvgl/src/extra/layouts/grid/../flex/../../../core/lv_obj_style_gen.h ****     return (lv_coord_t)v.num;
  41:Middlewares/lvgl/src/extra/layouts/grid/../flex/../../../core/lv_obj_style_gen.h **** }
  42:Middlewares/lvgl/src/extra/layouts/grid/../flex/../../../core/lv_obj_style_gen.h **** 
  43:Middlewares/lvgl/src/extra/layouts/grid/../flex/../../../core/lv_obj_style_gen.h **** static inline lv_coord_t lv_obj_get_style_y(const struct _lv_obj_t * obj, uint32_t part)
  44:Middlewares/lvgl/src/extra/layouts/grid/../flex/../../../core/lv_obj_style_gen.h **** {
  45:Middlewares/lvgl/src/extra/layouts/grid/../flex/../../../core/lv_obj_style_gen.h ****     lv_style_value_t v = lv_obj_get_style_prop(obj, part, LV_STYLE_Y);
  46:Middlewares/lvgl/src/extra/layouts/grid/../flex/../../../core/lv_obj_style_gen.h ****     return (lv_coord_t)v.num;
  47:Middlewares/lvgl/src/extra/layouts/grid/../flex/../../../core/lv_obj_style_gen.h **** }
  48:Middlewares/lvgl/src/extra/layouts/grid/../flex/../../../core/lv_obj_style_gen.h **** 
  49:Middlewares/lvgl/src/extra/layouts/grid/../flex/../../../core/lv_obj_style_gen.h **** static inline lv_align_t lv_obj_get_style_align(const struct _lv_obj_t * obj, uint32_t part)
  50:Middlewares/lvgl/src/extra/layouts/grid/../flex/../../../core/lv_obj_style_gen.h **** {
  51:Middlewares/lvgl/src/extra/layouts/grid/../flex/../../../core/lv_obj_style_gen.h ****     lv_style_value_t v = lv_obj_get_style_prop(obj, part, LV_STYLE_ALIGN);
  52:Middlewares/lvgl/src/extra/layouts/grid/../flex/../../../core/lv_obj_style_gen.h ****     return (lv_align_t)v.num;
  53:Middlewares/lvgl/src/extra/layouts/grid/../flex/../../../core/lv_obj_style_gen.h **** }
  54:Middlewares/lvgl/src/extra/layouts/grid/../flex/../../../core/lv_obj_style_gen.h **** 
  55:Middlewares/lvgl/src/extra/layouts/grid/../flex/../../../core/lv_obj_style_gen.h **** static inline lv_coord_t lv_obj_get_style_transform_width(const struct _lv_obj_t * obj, uint32_t pa
  56:Middlewares/lvgl/src/extra/layouts/grid/../flex/../../../core/lv_obj_style_gen.h **** {
  57:Middlewares/lvgl/src/extra/layouts/grid/../flex/../../../core/lv_obj_style_gen.h ****     lv_style_value_t v = lv_obj_get_style_prop(obj, part, LV_STYLE_TRANSFORM_WIDTH);
  58:Middlewares/lvgl/src/extra/layouts/grid/../flex/../../../core/lv_obj_style_gen.h ****     return (lv_coord_t)v.num;
  59:Middlewares/lvgl/src/extra/layouts/grid/../flex/../../../core/lv_obj_style_gen.h **** }
  60:Middlewares/lvgl/src/extra/layouts/grid/../flex/../../../core/lv_obj_style_gen.h **** 
  61:Middlewares/lvgl/src/extra/layouts/grid/../flex/../../../core/lv_obj_style_gen.h **** static inline lv_coord_t lv_obj_get_style_transform_height(const struct _lv_obj_t * obj, uint32_t p
  62:Middlewares/lvgl/src/extra/layouts/grid/../flex/../../../core/lv_obj_style_gen.h **** {
  63:Middlewares/lvgl/src/extra/layouts/grid/../flex/../../../core/lv_obj_style_gen.h ****     lv_style_value_t v = lv_obj_get_style_prop(obj, part, LV_STYLE_TRANSFORM_HEIGHT);
  64:Middlewares/lvgl/src/extra/layouts/grid/../flex/../../../core/lv_obj_style_gen.h ****     return (lv_coord_t)v.num;
  65:Middlewares/lvgl/src/extra/layouts/grid/../flex/../../../core/lv_obj_style_gen.h **** }
  66:Middlewares/lvgl/src/extra/layouts/grid/../flex/../../../core/lv_obj_style_gen.h **** 
  67:Middlewares/lvgl/src/extra/layouts/grid/../flex/../../../core/lv_obj_style_gen.h **** static inline lv_coord_t lv_obj_get_style_translate_x(const struct _lv_obj_t * obj, uint32_t part)
  68:Middlewares/lvgl/src/extra/layouts/grid/../flex/../../../core/lv_obj_style_gen.h **** {
  69:Middlewares/lvgl/src/extra/layouts/grid/../flex/../../../core/lv_obj_style_gen.h ****     lv_style_value_t v = lv_obj_get_style_prop(obj, part, LV_STYLE_TRANSLATE_X);
  70:Middlewares/lvgl/src/extra/layouts/grid/../flex/../../../core/lv_obj_style_gen.h ****     return (lv_coord_t)v.num;
  71:Middlewares/lvgl/src/extra/layouts/grid/../flex/../../../core/lv_obj_style_gen.h **** }
  72:Middlewares/lvgl/src/extra/layouts/grid/../flex/../../../core/lv_obj_style_gen.h **** 
  73:Middlewares/lvgl/src/extra/layouts/grid/../flex/../../../core/lv_obj_style_gen.h **** static inline lv_coord_t lv_obj_get_style_translate_y(const struct _lv_obj_t * obj, uint32_t part)
  74:Middlewares/lvgl/src/extra/layouts/grid/../flex/../../../core/lv_obj_style_gen.h **** {
  75:Middlewares/lvgl/src/extra/layouts/grid/../flex/../../../core/lv_obj_style_gen.h ****     lv_style_value_t v = lv_obj_get_style_prop(obj, part, LV_STYLE_TRANSLATE_Y);
  76:Middlewares/lvgl/src/extra/layouts/grid/../flex/../../../core/lv_obj_style_gen.h ****     return (lv_coord_t)v.num;
  77:Middlewares/lvgl/src/extra/layouts/grid/../flex/../../../core/lv_obj_style_gen.h **** }
  78:Middlewares/lvgl/src/extra/layouts/grid/../flex/../../../core/lv_obj_style_gen.h **** 
  79:Middlewares/lvgl/src/extra/layouts/grid/../flex/../../../core/lv_obj_style_gen.h **** static inline lv_coord_t lv_obj_get_style_transform_zoom(const struct _lv_obj_t * obj, uint32_t par
  80:Middlewares/lvgl/src/extra/layouts/grid/../flex/../../../core/lv_obj_style_gen.h **** {
  81:Middlewares/lvgl/src/extra/layouts/grid/../flex/../../../core/lv_obj_style_gen.h ****     lv_style_value_t v = lv_obj_get_style_prop(obj, part, LV_STYLE_TRANSFORM_ZOOM);
  82:Middlewares/lvgl/src/extra/layouts/grid/../flex/../../../core/lv_obj_style_gen.h ****     return (lv_coord_t)v.num;
  83:Middlewares/lvgl/src/extra/layouts/grid/../flex/../../../core/lv_obj_style_gen.h **** }
  84:Middlewares/lvgl/src/extra/layouts/grid/../flex/../../../core/lv_obj_style_gen.h **** 
  85:Middlewares/lvgl/src/extra/layouts/grid/../flex/../../../core/lv_obj_style_gen.h **** static inline lv_coord_t lv_obj_get_style_transform_angle(const struct _lv_obj_t * obj, uint32_t pa
  86:Middlewares/lvgl/src/extra/layouts/grid/../flex/../../../core/lv_obj_style_gen.h **** {
  87:Middlewares/lvgl/src/extra/layouts/grid/../flex/../../../core/lv_obj_style_gen.h ****     lv_style_value_t v = lv_obj_get_style_prop(obj, part, LV_STYLE_TRANSFORM_ANGLE);
  88:Middlewares/lvgl/src/extra/layouts/grid/../flex/../../../core/lv_obj_style_gen.h ****     return (lv_coord_t)v.num;
  89:Middlewares/lvgl/src/extra/layouts/grid/../flex/../../../core/lv_obj_style_gen.h **** }
ARM GAS  /tmp/ccRzkyyJ.s 			page 34


  90:Middlewares/lvgl/src/extra/layouts/grid/../flex/../../../core/lv_obj_style_gen.h **** 
  91:Middlewares/lvgl/src/extra/layouts/grid/../flex/../../../core/lv_obj_style_gen.h **** static inline lv_coord_t lv_obj_get_style_pad_top(const struct _lv_obj_t * obj, uint32_t part)
  92:Middlewares/lvgl/src/extra/layouts/grid/../flex/../../../core/lv_obj_style_gen.h **** {
  93:Middlewares/lvgl/src/extra/layouts/grid/../flex/../../../core/lv_obj_style_gen.h ****     lv_style_value_t v = lv_obj_get_style_prop(obj, part, LV_STYLE_PAD_TOP);
  94:Middlewares/lvgl/src/extra/layouts/grid/../flex/../../../core/lv_obj_style_gen.h ****     return (lv_coord_t)v.num;
  95:Middlewares/lvgl/src/extra/layouts/grid/../flex/../../../core/lv_obj_style_gen.h **** }
  96:Middlewares/lvgl/src/extra/layouts/grid/../flex/../../../core/lv_obj_style_gen.h **** 
  97:Middlewares/lvgl/src/extra/layouts/grid/../flex/../../../core/lv_obj_style_gen.h **** static inline lv_coord_t lv_obj_get_style_pad_bottom(const struct _lv_obj_t * obj, uint32_t part)
  98:Middlewares/lvgl/src/extra/layouts/grid/../flex/../../../core/lv_obj_style_gen.h **** {
  99:Middlewares/lvgl/src/extra/layouts/grid/../flex/../../../core/lv_obj_style_gen.h ****     lv_style_value_t v = lv_obj_get_style_prop(obj, part, LV_STYLE_PAD_BOTTOM);
 100:Middlewares/lvgl/src/extra/layouts/grid/../flex/../../../core/lv_obj_style_gen.h ****     return (lv_coord_t)v.num;
 101:Middlewares/lvgl/src/extra/layouts/grid/../flex/../../../core/lv_obj_style_gen.h **** }
 102:Middlewares/lvgl/src/extra/layouts/grid/../flex/../../../core/lv_obj_style_gen.h **** 
 103:Middlewares/lvgl/src/extra/layouts/grid/../flex/../../../core/lv_obj_style_gen.h **** static inline lv_coord_t lv_obj_get_style_pad_left(const struct _lv_obj_t * obj, uint32_t part)
 104:Middlewares/lvgl/src/extra/layouts/grid/../flex/../../../core/lv_obj_style_gen.h **** {
 105:Middlewares/lvgl/src/extra/layouts/grid/../flex/../../../core/lv_obj_style_gen.h ****     lv_style_value_t v = lv_obj_get_style_prop(obj, part, LV_STYLE_PAD_LEFT);
 106:Middlewares/lvgl/src/extra/layouts/grid/../flex/../../../core/lv_obj_style_gen.h ****     return (lv_coord_t)v.num;
 107:Middlewares/lvgl/src/extra/layouts/grid/../flex/../../../core/lv_obj_style_gen.h **** }
 108:Middlewares/lvgl/src/extra/layouts/grid/../flex/../../../core/lv_obj_style_gen.h **** 
 109:Middlewares/lvgl/src/extra/layouts/grid/../flex/../../../core/lv_obj_style_gen.h **** static inline lv_coord_t lv_obj_get_style_pad_right(const struct _lv_obj_t * obj, uint32_t part)
 110:Middlewares/lvgl/src/extra/layouts/grid/../flex/../../../core/lv_obj_style_gen.h **** {
 111:Middlewares/lvgl/src/extra/layouts/grid/../flex/../../../core/lv_obj_style_gen.h ****     lv_style_value_t v = lv_obj_get_style_prop(obj, part, LV_STYLE_PAD_RIGHT);
 112:Middlewares/lvgl/src/extra/layouts/grid/../flex/../../../core/lv_obj_style_gen.h ****     return (lv_coord_t)v.num;
 113:Middlewares/lvgl/src/extra/layouts/grid/../flex/../../../core/lv_obj_style_gen.h **** }
 114:Middlewares/lvgl/src/extra/layouts/grid/../flex/../../../core/lv_obj_style_gen.h **** 
 115:Middlewares/lvgl/src/extra/layouts/grid/../flex/../../../core/lv_obj_style_gen.h **** static inline lv_coord_t lv_obj_get_style_pad_row(const struct _lv_obj_t * obj, uint32_t part)
 116:Middlewares/lvgl/src/extra/layouts/grid/../flex/../../../core/lv_obj_style_gen.h **** {
 117:Middlewares/lvgl/src/extra/layouts/grid/../flex/../../../core/lv_obj_style_gen.h ****     lv_style_value_t v = lv_obj_get_style_prop(obj, part, LV_STYLE_PAD_ROW);
 118:Middlewares/lvgl/src/extra/layouts/grid/../flex/../../../core/lv_obj_style_gen.h ****     return (lv_coord_t)v.num;
 119:Middlewares/lvgl/src/extra/layouts/grid/../flex/../../../core/lv_obj_style_gen.h **** }
 120:Middlewares/lvgl/src/extra/layouts/grid/../flex/../../../core/lv_obj_style_gen.h **** 
 121:Middlewares/lvgl/src/extra/layouts/grid/../flex/../../../core/lv_obj_style_gen.h **** static inline lv_coord_t lv_obj_get_style_pad_column(const struct _lv_obj_t * obj, uint32_t part)
 122:Middlewares/lvgl/src/extra/layouts/grid/../flex/../../../core/lv_obj_style_gen.h **** {
 123:Middlewares/lvgl/src/extra/layouts/grid/../flex/../../../core/lv_obj_style_gen.h ****     lv_style_value_t v = lv_obj_get_style_prop(obj, part, LV_STYLE_PAD_COLUMN);
 124:Middlewares/lvgl/src/extra/layouts/grid/../flex/../../../core/lv_obj_style_gen.h ****     return (lv_coord_t)v.num;
 125:Middlewares/lvgl/src/extra/layouts/grid/../flex/../../../core/lv_obj_style_gen.h **** }
 126:Middlewares/lvgl/src/extra/layouts/grid/../flex/../../../core/lv_obj_style_gen.h **** 
 127:Middlewares/lvgl/src/extra/layouts/grid/../flex/../../../core/lv_obj_style_gen.h **** static inline lv_coord_t lv_obj_get_style_radius(const struct _lv_obj_t * obj, uint32_t part)
 128:Middlewares/lvgl/src/extra/layouts/grid/../flex/../../../core/lv_obj_style_gen.h **** {
 129:Middlewares/lvgl/src/extra/layouts/grid/../flex/../../../core/lv_obj_style_gen.h ****     lv_style_value_t v = lv_obj_get_style_prop(obj, part, LV_STYLE_RADIUS);
 130:Middlewares/lvgl/src/extra/layouts/grid/../flex/../../../core/lv_obj_style_gen.h ****     return (lv_coord_t)v.num;
 131:Middlewares/lvgl/src/extra/layouts/grid/../flex/../../../core/lv_obj_style_gen.h **** }
 132:Middlewares/lvgl/src/extra/layouts/grid/../flex/../../../core/lv_obj_style_gen.h **** 
 133:Middlewares/lvgl/src/extra/layouts/grid/../flex/../../../core/lv_obj_style_gen.h **** static inline bool lv_obj_get_style_clip_corner(const struct _lv_obj_t * obj, uint32_t part)
 134:Middlewares/lvgl/src/extra/layouts/grid/../flex/../../../core/lv_obj_style_gen.h **** {
 135:Middlewares/lvgl/src/extra/layouts/grid/../flex/../../../core/lv_obj_style_gen.h ****     lv_style_value_t v = lv_obj_get_style_prop(obj, part, LV_STYLE_CLIP_CORNER);
 136:Middlewares/lvgl/src/extra/layouts/grid/../flex/../../../core/lv_obj_style_gen.h ****     return (bool)v.num;
 137:Middlewares/lvgl/src/extra/layouts/grid/../flex/../../../core/lv_obj_style_gen.h **** }
 138:Middlewares/lvgl/src/extra/layouts/grid/../flex/../../../core/lv_obj_style_gen.h **** 
 139:Middlewares/lvgl/src/extra/layouts/grid/../flex/../../../core/lv_obj_style_gen.h **** static inline lv_opa_t lv_obj_get_style_opa(const struct _lv_obj_t * obj, uint32_t part)
 140:Middlewares/lvgl/src/extra/layouts/grid/../flex/../../../core/lv_obj_style_gen.h **** {
 141:Middlewares/lvgl/src/extra/layouts/grid/../flex/../../../core/lv_obj_style_gen.h ****     lv_style_value_t v = lv_obj_get_style_prop(obj, part, LV_STYLE_OPA);
 142:Middlewares/lvgl/src/extra/layouts/grid/../flex/../../../core/lv_obj_style_gen.h ****     return (lv_opa_t)v.num;
 143:Middlewares/lvgl/src/extra/layouts/grid/../flex/../../../core/lv_obj_style_gen.h **** }
 144:Middlewares/lvgl/src/extra/layouts/grid/../flex/../../../core/lv_obj_style_gen.h **** 
 145:Middlewares/lvgl/src/extra/layouts/grid/../flex/../../../core/lv_obj_style_gen.h **** static inline const lv_color_filter_dsc_t * lv_obj_get_style_color_filter_dsc(const struct _lv_obj_
 146:Middlewares/lvgl/src/extra/layouts/grid/../flex/../../../core/lv_obj_style_gen.h **** {
ARM GAS  /tmp/ccRzkyyJ.s 			page 35


 147:Middlewares/lvgl/src/extra/layouts/grid/../flex/../../../core/lv_obj_style_gen.h ****     lv_style_value_t v = lv_obj_get_style_prop(obj, part, LV_STYLE_COLOR_FILTER_DSC);
 148:Middlewares/lvgl/src/extra/layouts/grid/../flex/../../../core/lv_obj_style_gen.h ****     return (const lv_color_filter_dsc_t *)v.ptr;
 149:Middlewares/lvgl/src/extra/layouts/grid/../flex/../../../core/lv_obj_style_gen.h **** }
 150:Middlewares/lvgl/src/extra/layouts/grid/../flex/../../../core/lv_obj_style_gen.h **** 
 151:Middlewares/lvgl/src/extra/layouts/grid/../flex/../../../core/lv_obj_style_gen.h **** static inline lv_opa_t lv_obj_get_style_color_filter_opa(const struct _lv_obj_t * obj, uint32_t par
 152:Middlewares/lvgl/src/extra/layouts/grid/../flex/../../../core/lv_obj_style_gen.h **** {
 153:Middlewares/lvgl/src/extra/layouts/grid/../flex/../../../core/lv_obj_style_gen.h ****     lv_style_value_t v = lv_obj_get_style_prop(obj, part, LV_STYLE_COLOR_FILTER_OPA);
 154:Middlewares/lvgl/src/extra/layouts/grid/../flex/../../../core/lv_obj_style_gen.h ****     return (lv_opa_t)v.num;
 155:Middlewares/lvgl/src/extra/layouts/grid/../flex/../../../core/lv_obj_style_gen.h **** }
 156:Middlewares/lvgl/src/extra/layouts/grid/../flex/../../../core/lv_obj_style_gen.h **** 
 157:Middlewares/lvgl/src/extra/layouts/grid/../flex/../../../core/lv_obj_style_gen.h **** static inline uint32_t lv_obj_get_style_anim_time(const struct _lv_obj_t * obj, uint32_t part)
 158:Middlewares/lvgl/src/extra/layouts/grid/../flex/../../../core/lv_obj_style_gen.h **** {
 159:Middlewares/lvgl/src/extra/layouts/grid/../flex/../../../core/lv_obj_style_gen.h ****     lv_style_value_t v = lv_obj_get_style_prop(obj, part, LV_STYLE_ANIM_TIME);
 160:Middlewares/lvgl/src/extra/layouts/grid/../flex/../../../core/lv_obj_style_gen.h ****     return (uint32_t)v.num;
 161:Middlewares/lvgl/src/extra/layouts/grid/../flex/../../../core/lv_obj_style_gen.h **** }
 162:Middlewares/lvgl/src/extra/layouts/grid/../flex/../../../core/lv_obj_style_gen.h **** 
 163:Middlewares/lvgl/src/extra/layouts/grid/../flex/../../../core/lv_obj_style_gen.h **** static inline uint32_t lv_obj_get_style_anim_speed(const struct _lv_obj_t * obj, uint32_t part)
 164:Middlewares/lvgl/src/extra/layouts/grid/../flex/../../../core/lv_obj_style_gen.h **** {
 165:Middlewares/lvgl/src/extra/layouts/grid/../flex/../../../core/lv_obj_style_gen.h ****     lv_style_value_t v = lv_obj_get_style_prop(obj, part, LV_STYLE_ANIM_SPEED);
 166:Middlewares/lvgl/src/extra/layouts/grid/../flex/../../../core/lv_obj_style_gen.h ****     return (uint32_t)v.num;
 167:Middlewares/lvgl/src/extra/layouts/grid/../flex/../../../core/lv_obj_style_gen.h **** }
 168:Middlewares/lvgl/src/extra/layouts/grid/../flex/../../../core/lv_obj_style_gen.h **** 
 169:Middlewares/lvgl/src/extra/layouts/grid/../flex/../../../core/lv_obj_style_gen.h **** static inline const lv_style_transition_dsc_t * lv_obj_get_style_transition(const struct _lv_obj_t 
 170:Middlewares/lvgl/src/extra/layouts/grid/../flex/../../../core/lv_obj_style_gen.h **** {
 171:Middlewares/lvgl/src/extra/layouts/grid/../flex/../../../core/lv_obj_style_gen.h ****     lv_style_value_t v = lv_obj_get_style_prop(obj, part, LV_STYLE_TRANSITION);
 172:Middlewares/lvgl/src/extra/layouts/grid/../flex/../../../core/lv_obj_style_gen.h ****     return (const lv_style_transition_dsc_t *)v.ptr;
 173:Middlewares/lvgl/src/extra/layouts/grid/../flex/../../../core/lv_obj_style_gen.h **** }
 174:Middlewares/lvgl/src/extra/layouts/grid/../flex/../../../core/lv_obj_style_gen.h **** 
 175:Middlewares/lvgl/src/extra/layouts/grid/../flex/../../../core/lv_obj_style_gen.h **** static inline lv_blend_mode_t lv_obj_get_style_blend_mode(const struct _lv_obj_t * obj, uint32_t pa
 176:Middlewares/lvgl/src/extra/layouts/grid/../flex/../../../core/lv_obj_style_gen.h **** {
 177:Middlewares/lvgl/src/extra/layouts/grid/../flex/../../../core/lv_obj_style_gen.h ****     lv_style_value_t v = lv_obj_get_style_prop(obj, part, LV_STYLE_BLEND_MODE);
 178:Middlewares/lvgl/src/extra/layouts/grid/../flex/../../../core/lv_obj_style_gen.h ****     return (lv_blend_mode_t)v.num;
 179:Middlewares/lvgl/src/extra/layouts/grid/../flex/../../../core/lv_obj_style_gen.h **** }
 180:Middlewares/lvgl/src/extra/layouts/grid/../flex/../../../core/lv_obj_style_gen.h **** 
 181:Middlewares/lvgl/src/extra/layouts/grid/../flex/../../../core/lv_obj_style_gen.h **** static inline uint16_t lv_obj_get_style_layout(const struct _lv_obj_t * obj, uint32_t part)
 182:Middlewares/lvgl/src/extra/layouts/grid/../flex/../../../core/lv_obj_style_gen.h **** {
 183:Middlewares/lvgl/src/extra/layouts/grid/../flex/../../../core/lv_obj_style_gen.h ****     lv_style_value_t v = lv_obj_get_style_prop(obj, part, LV_STYLE_LAYOUT);
 184:Middlewares/lvgl/src/extra/layouts/grid/../flex/../../../core/lv_obj_style_gen.h ****     return (uint16_t)v.num;
 185:Middlewares/lvgl/src/extra/layouts/grid/../flex/../../../core/lv_obj_style_gen.h **** }
 186:Middlewares/lvgl/src/extra/layouts/grid/../flex/../../../core/lv_obj_style_gen.h **** 
 187:Middlewares/lvgl/src/extra/layouts/grid/../flex/../../../core/lv_obj_style_gen.h **** static inline lv_base_dir_t lv_obj_get_style_base_dir(const struct _lv_obj_t * obj, uint32_t part)
 709              		.loc 3 187 29 view .LVU236
 710              	.LBB134:
 188:Middlewares/lvgl/src/extra/layouts/grid/../flex/../../../core/lv_obj_style_gen.h **** {
 189:Middlewares/lvgl/src/extra/layouts/grid/../flex/../../../core/lv_obj_style_gen.h ****     lv_style_value_t v = lv_obj_get_style_prop(obj, part, LV_STYLE_BASE_DIR);
 711              		.loc 3 189 5 view .LVU237
 712              		.loc 3 189 26 is_stmt 0 view .LVU238
 713 00d2 41F26A42 		movw	r2, #5226
 714 00d6 0021     		movs	r1, #0
 715              	.LVL78:
 716              		.loc 3 189 26 view .LVU239
 717 00d8 2046     		mov	r0, r4
 718              	.LVL79:
 719              		.loc 3 189 26 view .LVU240
 720 00da FFF7FEFF 		bl	lv_obj_get_style_prop
 721              	.LVL80:
 190:Middlewares/lvgl/src/extra/layouts/grid/../flex/../../../core/lv_obj_style_gen.h ****     return (lv_base_dir_t)v.num;
ARM GAS  /tmp/ccRzkyyJ.s 			page 36


 722              		.loc 3 190 5 is_stmt 1 view .LVU241
 723              		.loc 3 190 12 is_stmt 0 view .LVU242
 724 00de C0B2     		uxtb	r0, r0
 725              	.LVL81:
 726              		.loc 3 190 12 view .LVU243
 727              	.LBE134:
 728              	.LBE133:
 568:Middlewares/lvgl/src/extra/layouts/grid/lv_grid.c ****         if(col_align == LV_GRID_ALIGN_START) col_align = LV_GRID_ALIGN_END;
 729              		.loc 1 568 7 view .LVU244
 730 00e0 0128     		cmp	r0, #1
 731 00e2 00F0C380 		beq	.L55
 732              	.LVL82:
 733              	.L32:
 573:Middlewares/lvgl/src/extra/layouts/grid/lv_grid.c ****     lv_coord_t y;
 734              		.loc 1 573 5 is_stmt 1 view .LVU245
 574:Middlewares/lvgl/src/extra/layouts/grid/lv_grid.c ****     lv_coord_t item_w = lv_area_get_width(&item->coords);
 735              		.loc 1 574 5 view .LVU246
 575:Middlewares/lvgl/src/extra/layouts/grid/lv_grid.c ****     lv_coord_t item_h = lv_area_get_height(&item->coords);
 736              		.loc 1 575 5 view .LVU247
 737              	.LBB135:
 738              	.LBI135:
 739              		.file 4 "Middlewares/lvgl/src/extra/layouts/grid/../flex/../../../core/../misc/../font/../misc/lv_
   1:Middlewares/lvgl/src/extra/layouts/grid/../flex/../../../core/../misc/../font/../misc/lv_area.h **** /**
   2:Middlewares/lvgl/src/extra/layouts/grid/../flex/../../../core/../misc/../font/../misc/lv_area.h ****  * @file lv_area.h
   3:Middlewares/lvgl/src/extra/layouts/grid/../flex/../../../core/../misc/../font/../misc/lv_area.h ****  *
   4:Middlewares/lvgl/src/extra/layouts/grid/../flex/../../../core/../misc/../font/../misc/lv_area.h ****  */
   5:Middlewares/lvgl/src/extra/layouts/grid/../flex/../../../core/../misc/../font/../misc/lv_area.h **** 
   6:Middlewares/lvgl/src/extra/layouts/grid/../flex/../../../core/../misc/../font/../misc/lv_area.h **** #ifndef LV_AREA_H
   7:Middlewares/lvgl/src/extra/layouts/grid/../flex/../../../core/../misc/../font/../misc/lv_area.h **** #define LV_AREA_H
   8:Middlewares/lvgl/src/extra/layouts/grid/../flex/../../../core/../misc/../font/../misc/lv_area.h **** 
   9:Middlewares/lvgl/src/extra/layouts/grid/../flex/../../../core/../misc/../font/../misc/lv_area.h **** #ifdef __cplusplus
  10:Middlewares/lvgl/src/extra/layouts/grid/../flex/../../../core/../misc/../font/../misc/lv_area.h **** extern "C" {
  11:Middlewares/lvgl/src/extra/layouts/grid/../flex/../../../core/../misc/../font/../misc/lv_area.h **** #endif
  12:Middlewares/lvgl/src/extra/layouts/grid/../flex/../../../core/../misc/../font/../misc/lv_area.h **** 
  13:Middlewares/lvgl/src/extra/layouts/grid/../flex/../../../core/../misc/../font/../misc/lv_area.h **** /*********************
  14:Middlewares/lvgl/src/extra/layouts/grid/../flex/../../../core/../misc/../font/../misc/lv_area.h ****  *      INCLUDES
  15:Middlewares/lvgl/src/extra/layouts/grid/../flex/../../../core/../misc/../font/../misc/lv_area.h ****  *********************/
  16:Middlewares/lvgl/src/extra/layouts/grid/../flex/../../../core/../misc/../font/../misc/lv_area.h **** #include "../lv_conf_internal.h"
  17:Middlewares/lvgl/src/extra/layouts/grid/../flex/../../../core/../misc/../font/../misc/lv_area.h **** #include <string.h>
  18:Middlewares/lvgl/src/extra/layouts/grid/../flex/../../../core/../misc/../font/../misc/lv_area.h **** #include <stdbool.h>
  19:Middlewares/lvgl/src/extra/layouts/grid/../flex/../../../core/../misc/../font/../misc/lv_area.h **** #include <stdint.h>
  20:Middlewares/lvgl/src/extra/layouts/grid/../flex/../../../core/../misc/../font/../misc/lv_area.h **** 
  21:Middlewares/lvgl/src/extra/layouts/grid/../flex/../../../core/../misc/../font/../misc/lv_area.h **** /*********************
  22:Middlewares/lvgl/src/extra/layouts/grid/../flex/../../../core/../misc/../font/../misc/lv_area.h ****  *      DEFINES
  23:Middlewares/lvgl/src/extra/layouts/grid/../flex/../../../core/../misc/../font/../misc/lv_area.h ****  *********************/
  24:Middlewares/lvgl/src/extra/layouts/grid/../flex/../../../core/../misc/../font/../misc/lv_area.h **** 
  25:Middlewares/lvgl/src/extra/layouts/grid/../flex/../../../core/../misc/../font/../misc/lv_area.h **** #define _LV_COORD_MAX_REDUCE    8192
  26:Middlewares/lvgl/src/extra/layouts/grid/../flex/../../../core/../misc/../font/../misc/lv_area.h **** 
  27:Middlewares/lvgl/src/extra/layouts/grid/../flex/../../../core/../misc/../font/../misc/lv_area.h **** #if LV_USE_LARGE_COORD
  28:Middlewares/lvgl/src/extra/layouts/grid/../flex/../../../core/../misc/../font/../misc/lv_area.h **** typedef int32_t lv_coord_t;
  29:Middlewares/lvgl/src/extra/layouts/grid/../flex/../../../core/../misc/../font/../misc/lv_area.h **** #else
  30:Middlewares/lvgl/src/extra/layouts/grid/../flex/../../../core/../misc/../font/../misc/lv_area.h **** typedef int16_t lv_coord_t;
  31:Middlewares/lvgl/src/extra/layouts/grid/../flex/../../../core/../misc/../font/../misc/lv_area.h **** #endif
  32:Middlewares/lvgl/src/extra/layouts/grid/../flex/../../../core/../misc/../font/../misc/lv_area.h **** 
  33:Middlewares/lvgl/src/extra/layouts/grid/../flex/../../../core/../misc/../font/../misc/lv_area.h **** /*To allow some special values in the end reduce the max value*/
  34:Middlewares/lvgl/src/extra/layouts/grid/../flex/../../../core/../misc/../font/../misc/lv_area.h **** #define LV_COORD_MAX ((lv_coord_t)((uint32_t)((uint32_t)1 << (8 * sizeof(lv_coord_t) - 1)) - _LV_CO
  35:Middlewares/lvgl/src/extra/layouts/grid/../flex/../../../core/../misc/../font/../misc/lv_area.h **** #define LV_COORD_MIN (-LV_COORD_MAX)
ARM GAS  /tmp/ccRzkyyJ.s 			page 37


  36:Middlewares/lvgl/src/extra/layouts/grid/../flex/../../../core/../misc/../font/../misc/lv_area.h **** 
  37:Middlewares/lvgl/src/extra/layouts/grid/../flex/../../../core/../misc/../font/../misc/lv_area.h **** LV_EXPORT_CONST_INT(LV_COORD_MAX);
  38:Middlewares/lvgl/src/extra/layouts/grid/../flex/../../../core/../misc/../font/../misc/lv_area.h **** LV_EXPORT_CONST_INT(LV_COORD_MIN);
  39:Middlewares/lvgl/src/extra/layouts/grid/../flex/../../../core/../misc/../font/../misc/lv_area.h **** 
  40:Middlewares/lvgl/src/extra/layouts/grid/../flex/../../../core/../misc/../font/../misc/lv_area.h **** /**********************
  41:Middlewares/lvgl/src/extra/layouts/grid/../flex/../../../core/../misc/../font/../misc/lv_area.h ****  *      TYPEDEFS
  42:Middlewares/lvgl/src/extra/layouts/grid/../flex/../../../core/../misc/../font/../misc/lv_area.h ****  **********************/
  43:Middlewares/lvgl/src/extra/layouts/grid/../flex/../../../core/../misc/../font/../misc/lv_area.h **** 
  44:Middlewares/lvgl/src/extra/layouts/grid/../flex/../../../core/../misc/../font/../misc/lv_area.h **** /**
  45:Middlewares/lvgl/src/extra/layouts/grid/../flex/../../../core/../misc/../font/../misc/lv_area.h ****  * Represents a point on the screen.
  46:Middlewares/lvgl/src/extra/layouts/grid/../flex/../../../core/../misc/../font/../misc/lv_area.h ****  */
  47:Middlewares/lvgl/src/extra/layouts/grid/../flex/../../../core/../misc/../font/../misc/lv_area.h **** typedef struct {
  48:Middlewares/lvgl/src/extra/layouts/grid/../flex/../../../core/../misc/../font/../misc/lv_area.h ****     lv_coord_t x;
  49:Middlewares/lvgl/src/extra/layouts/grid/../flex/../../../core/../misc/../font/../misc/lv_area.h ****     lv_coord_t y;
  50:Middlewares/lvgl/src/extra/layouts/grid/../flex/../../../core/../misc/../font/../misc/lv_area.h **** } lv_point_t;
  51:Middlewares/lvgl/src/extra/layouts/grid/../flex/../../../core/../misc/../font/../misc/lv_area.h **** 
  52:Middlewares/lvgl/src/extra/layouts/grid/../flex/../../../core/../misc/../font/../misc/lv_area.h **** /** Represents an area of the screen.*/
  53:Middlewares/lvgl/src/extra/layouts/grid/../flex/../../../core/../misc/../font/../misc/lv_area.h **** typedef struct {
  54:Middlewares/lvgl/src/extra/layouts/grid/../flex/../../../core/../misc/../font/../misc/lv_area.h ****     lv_coord_t x1;
  55:Middlewares/lvgl/src/extra/layouts/grid/../flex/../../../core/../misc/../font/../misc/lv_area.h ****     lv_coord_t y1;
  56:Middlewares/lvgl/src/extra/layouts/grid/../flex/../../../core/../misc/../font/../misc/lv_area.h ****     lv_coord_t x2;
  57:Middlewares/lvgl/src/extra/layouts/grid/../flex/../../../core/../misc/../font/../misc/lv_area.h ****     lv_coord_t y2;
  58:Middlewares/lvgl/src/extra/layouts/grid/../flex/../../../core/../misc/../font/../misc/lv_area.h **** } lv_area_t;
  59:Middlewares/lvgl/src/extra/layouts/grid/../flex/../../../core/../misc/../font/../misc/lv_area.h **** 
  60:Middlewares/lvgl/src/extra/layouts/grid/../flex/../../../core/../misc/../font/../misc/lv_area.h **** /** Alignments*/
  61:Middlewares/lvgl/src/extra/layouts/grid/../flex/../../../core/../misc/../font/../misc/lv_area.h **** enum {
  62:Middlewares/lvgl/src/extra/layouts/grid/../flex/../../../core/../misc/../font/../misc/lv_area.h ****     LV_ALIGN_DEFAULT = 0,
  63:Middlewares/lvgl/src/extra/layouts/grid/../flex/../../../core/../misc/../font/../misc/lv_area.h ****     LV_ALIGN_TOP_LEFT,
  64:Middlewares/lvgl/src/extra/layouts/grid/../flex/../../../core/../misc/../font/../misc/lv_area.h ****     LV_ALIGN_TOP_MID,
  65:Middlewares/lvgl/src/extra/layouts/grid/../flex/../../../core/../misc/../font/../misc/lv_area.h ****     LV_ALIGN_TOP_RIGHT,
  66:Middlewares/lvgl/src/extra/layouts/grid/../flex/../../../core/../misc/../font/../misc/lv_area.h ****     LV_ALIGN_BOTTOM_LEFT,
  67:Middlewares/lvgl/src/extra/layouts/grid/../flex/../../../core/../misc/../font/../misc/lv_area.h ****     LV_ALIGN_BOTTOM_MID,
  68:Middlewares/lvgl/src/extra/layouts/grid/../flex/../../../core/../misc/../font/../misc/lv_area.h ****     LV_ALIGN_BOTTOM_RIGHT,
  69:Middlewares/lvgl/src/extra/layouts/grid/../flex/../../../core/../misc/../font/../misc/lv_area.h ****     LV_ALIGN_LEFT_MID,
  70:Middlewares/lvgl/src/extra/layouts/grid/../flex/../../../core/../misc/../font/../misc/lv_area.h ****     LV_ALIGN_RIGHT_MID,
  71:Middlewares/lvgl/src/extra/layouts/grid/../flex/../../../core/../misc/../font/../misc/lv_area.h ****     LV_ALIGN_CENTER,
  72:Middlewares/lvgl/src/extra/layouts/grid/../flex/../../../core/../misc/../font/../misc/lv_area.h **** 
  73:Middlewares/lvgl/src/extra/layouts/grid/../flex/../../../core/../misc/../font/../misc/lv_area.h ****     LV_ALIGN_OUT_TOP_LEFT,
  74:Middlewares/lvgl/src/extra/layouts/grid/../flex/../../../core/../misc/../font/../misc/lv_area.h ****     LV_ALIGN_OUT_TOP_MID,
  75:Middlewares/lvgl/src/extra/layouts/grid/../flex/../../../core/../misc/../font/../misc/lv_area.h ****     LV_ALIGN_OUT_TOP_RIGHT,
  76:Middlewares/lvgl/src/extra/layouts/grid/../flex/../../../core/../misc/../font/../misc/lv_area.h ****     LV_ALIGN_OUT_BOTTOM_LEFT,
  77:Middlewares/lvgl/src/extra/layouts/grid/../flex/../../../core/../misc/../font/../misc/lv_area.h ****     LV_ALIGN_OUT_BOTTOM_MID,
  78:Middlewares/lvgl/src/extra/layouts/grid/../flex/../../../core/../misc/../font/../misc/lv_area.h ****     LV_ALIGN_OUT_BOTTOM_RIGHT,
  79:Middlewares/lvgl/src/extra/layouts/grid/../flex/../../../core/../misc/../font/../misc/lv_area.h ****     LV_ALIGN_OUT_LEFT_TOP,
  80:Middlewares/lvgl/src/extra/layouts/grid/../flex/../../../core/../misc/../font/../misc/lv_area.h ****     LV_ALIGN_OUT_LEFT_MID,
  81:Middlewares/lvgl/src/extra/layouts/grid/../flex/../../../core/../misc/../font/../misc/lv_area.h ****     LV_ALIGN_OUT_LEFT_BOTTOM,
  82:Middlewares/lvgl/src/extra/layouts/grid/../flex/../../../core/../misc/../font/../misc/lv_area.h ****     LV_ALIGN_OUT_RIGHT_TOP,
  83:Middlewares/lvgl/src/extra/layouts/grid/../flex/../../../core/../misc/../font/../misc/lv_area.h ****     LV_ALIGN_OUT_RIGHT_MID,
  84:Middlewares/lvgl/src/extra/layouts/grid/../flex/../../../core/../misc/../font/../misc/lv_area.h ****     LV_ALIGN_OUT_RIGHT_BOTTOM,
  85:Middlewares/lvgl/src/extra/layouts/grid/../flex/../../../core/../misc/../font/../misc/lv_area.h **** };
  86:Middlewares/lvgl/src/extra/layouts/grid/../flex/../../../core/../misc/../font/../misc/lv_area.h **** typedef uint8_t lv_align_t;
  87:Middlewares/lvgl/src/extra/layouts/grid/../flex/../../../core/../misc/../font/../misc/lv_area.h **** 
  88:Middlewares/lvgl/src/extra/layouts/grid/../flex/../../../core/../misc/../font/../misc/lv_area.h **** enum {
  89:Middlewares/lvgl/src/extra/layouts/grid/../flex/../../../core/../misc/../font/../misc/lv_area.h ****     LV_DIR_NONE     = 0x00,
  90:Middlewares/lvgl/src/extra/layouts/grid/../flex/../../../core/../misc/../font/../misc/lv_area.h ****     LV_DIR_LEFT     = (1 << 0),
  91:Middlewares/lvgl/src/extra/layouts/grid/../flex/../../../core/../misc/../font/../misc/lv_area.h ****     LV_DIR_RIGHT    = (1 << 1),
  92:Middlewares/lvgl/src/extra/layouts/grid/../flex/../../../core/../misc/../font/../misc/lv_area.h ****     LV_DIR_TOP      = (1 << 2),
ARM GAS  /tmp/ccRzkyyJ.s 			page 38


  93:Middlewares/lvgl/src/extra/layouts/grid/../flex/../../../core/../misc/../font/../misc/lv_area.h ****     LV_DIR_BOTTOM   = (1 << 3),
  94:Middlewares/lvgl/src/extra/layouts/grid/../flex/../../../core/../misc/../font/../misc/lv_area.h ****     LV_DIR_HOR      = LV_DIR_LEFT | LV_DIR_RIGHT,
  95:Middlewares/lvgl/src/extra/layouts/grid/../flex/../../../core/../misc/../font/../misc/lv_area.h ****     LV_DIR_VER      = LV_DIR_TOP | LV_DIR_BOTTOM,
  96:Middlewares/lvgl/src/extra/layouts/grid/../flex/../../../core/../misc/../font/../misc/lv_area.h ****     LV_DIR_ALL      = LV_DIR_HOR | LV_DIR_VER,
  97:Middlewares/lvgl/src/extra/layouts/grid/../flex/../../../core/../misc/../font/../misc/lv_area.h **** };
  98:Middlewares/lvgl/src/extra/layouts/grid/../flex/../../../core/../misc/../font/../misc/lv_area.h **** 
  99:Middlewares/lvgl/src/extra/layouts/grid/../flex/../../../core/../misc/../font/../misc/lv_area.h **** typedef uint8_t lv_dir_t;
 100:Middlewares/lvgl/src/extra/layouts/grid/../flex/../../../core/../misc/../font/../misc/lv_area.h **** 
 101:Middlewares/lvgl/src/extra/layouts/grid/../flex/../../../core/../misc/../font/../misc/lv_area.h **** /**********************
 102:Middlewares/lvgl/src/extra/layouts/grid/../flex/../../../core/../misc/../font/../misc/lv_area.h ****  * GLOBAL PROTOTYPES
 103:Middlewares/lvgl/src/extra/layouts/grid/../flex/../../../core/../misc/../font/../misc/lv_area.h ****  **********************/
 104:Middlewares/lvgl/src/extra/layouts/grid/../flex/../../../core/../misc/../font/../misc/lv_area.h **** 
 105:Middlewares/lvgl/src/extra/layouts/grid/../flex/../../../core/../misc/../font/../misc/lv_area.h **** /**
 106:Middlewares/lvgl/src/extra/layouts/grid/../flex/../../../core/../misc/../font/../misc/lv_area.h ****  * Initialize an area
 107:Middlewares/lvgl/src/extra/layouts/grid/../flex/../../../core/../misc/../font/../misc/lv_area.h ****  * @param area_p pointer to an area
 108:Middlewares/lvgl/src/extra/layouts/grid/../flex/../../../core/../misc/../font/../misc/lv_area.h ****  * @param x1 left coordinate of the area
 109:Middlewares/lvgl/src/extra/layouts/grid/../flex/../../../core/../misc/../font/../misc/lv_area.h ****  * @param y1 top coordinate of the area
 110:Middlewares/lvgl/src/extra/layouts/grid/../flex/../../../core/../misc/../font/../misc/lv_area.h ****  * @param x2 right coordinate of the area
 111:Middlewares/lvgl/src/extra/layouts/grid/../flex/../../../core/../misc/../font/../misc/lv_area.h ****  * @param y2 bottom coordinate of the area
 112:Middlewares/lvgl/src/extra/layouts/grid/../flex/../../../core/../misc/../font/../misc/lv_area.h ****  */
 113:Middlewares/lvgl/src/extra/layouts/grid/../flex/../../../core/../misc/../font/../misc/lv_area.h **** void lv_area_set(lv_area_t * area_p, lv_coord_t x1, lv_coord_t y1, lv_coord_t x2, lv_coord_t y2);
 114:Middlewares/lvgl/src/extra/layouts/grid/../flex/../../../core/../misc/../font/../misc/lv_area.h **** 
 115:Middlewares/lvgl/src/extra/layouts/grid/../flex/../../../core/../misc/../font/../misc/lv_area.h **** /**
 116:Middlewares/lvgl/src/extra/layouts/grid/../flex/../../../core/../misc/../font/../misc/lv_area.h ****  * Copy an area
 117:Middlewares/lvgl/src/extra/layouts/grid/../flex/../../../core/../misc/../font/../misc/lv_area.h ****  * @param dest pointer to the destination area
 118:Middlewares/lvgl/src/extra/layouts/grid/../flex/../../../core/../misc/../font/../misc/lv_area.h ****  * @param src pointer to the source area
 119:Middlewares/lvgl/src/extra/layouts/grid/../flex/../../../core/../misc/../font/../misc/lv_area.h ****  */
 120:Middlewares/lvgl/src/extra/layouts/grid/../flex/../../../core/../misc/../font/../misc/lv_area.h **** inline static void lv_area_copy(lv_area_t * dest, const lv_area_t * src)
 121:Middlewares/lvgl/src/extra/layouts/grid/../flex/../../../core/../misc/../font/../misc/lv_area.h **** {
 122:Middlewares/lvgl/src/extra/layouts/grid/../flex/../../../core/../misc/../font/../misc/lv_area.h ****     dest->x1 = src->x1;
 123:Middlewares/lvgl/src/extra/layouts/grid/../flex/../../../core/../misc/../font/../misc/lv_area.h ****     dest->y1 = src->y1;
 124:Middlewares/lvgl/src/extra/layouts/grid/../flex/../../../core/../misc/../font/../misc/lv_area.h ****     dest->x2 = src->x2;
 125:Middlewares/lvgl/src/extra/layouts/grid/../flex/../../../core/../misc/../font/../misc/lv_area.h ****     dest->y2 = src->y2;
 126:Middlewares/lvgl/src/extra/layouts/grid/../flex/../../../core/../misc/../font/../misc/lv_area.h **** }
 127:Middlewares/lvgl/src/extra/layouts/grid/../flex/../../../core/../misc/../font/../misc/lv_area.h **** 
 128:Middlewares/lvgl/src/extra/layouts/grid/../flex/../../../core/../misc/../font/../misc/lv_area.h **** /**
 129:Middlewares/lvgl/src/extra/layouts/grid/../flex/../../../core/../misc/../font/../misc/lv_area.h ****  * Get the width of an area
 130:Middlewares/lvgl/src/extra/layouts/grid/../flex/../../../core/../misc/../font/../misc/lv_area.h ****  * @param area_p pointer to an area
 131:Middlewares/lvgl/src/extra/layouts/grid/../flex/../../../core/../misc/../font/../misc/lv_area.h ****  * @return the width of the area (if x1 == x2 -> width = 1)
 132:Middlewares/lvgl/src/extra/layouts/grid/../flex/../../../core/../misc/../font/../misc/lv_area.h ****  */
 133:Middlewares/lvgl/src/extra/layouts/grid/../flex/../../../core/../misc/../font/../misc/lv_area.h **** static inline lv_coord_t lv_area_get_width(const lv_area_t * area_p)
 740              		.loc 4 133 26 view .LVU248
 741              	.LBB136:
 134:Middlewares/lvgl/src/extra/layouts/grid/../flex/../../../core/../misc/../font/../misc/lv_area.h **** {
 135:Middlewares/lvgl/src/extra/layouts/grid/../flex/../../../core/../misc/../font/../misc/lv_area.h ****     return (lv_coord_t)(area_p->x2 - area_p->x1 + 1);
 742              		.loc 4 135 5 view .LVU249
 743              		.loc 4 135 31 is_stmt 0 view .LVU250
 744 00e6 268B     		ldrh	r6, [r4, #24]
 745              		.loc 4 135 44 view .LVU251
 746 00e8 A38A     		ldrh	r3, [r4, #20]
 747              		.loc 4 135 36 view .LVU252
 748 00ea F61A     		subs	r6, r6, r3
 749 00ec B6B2     		uxth	r6, r6
 750              		.loc 4 135 49 view .LVU253
 751 00ee 0136     		adds	r6, r6, #1
 752              		.loc 4 135 12 view .LVU254
 753 00f0 36B2     		sxth	r6, r6
ARM GAS  /tmp/ccRzkyyJ.s 			page 39


 754              	.LVL83:
 755              		.loc 4 135 12 view .LVU255
 756              	.LBE136:
 757              	.LBE135:
 576:Middlewares/lvgl/src/extra/layouts/grid/lv_grid.c **** 
 758              		.loc 1 576 5 is_stmt 1 view .LVU256
 759              	.LBB137:
 760              	.LBI137:
 136:Middlewares/lvgl/src/extra/layouts/grid/../flex/../../../core/../misc/../font/../misc/lv_area.h **** }
 137:Middlewares/lvgl/src/extra/layouts/grid/../flex/../../../core/../misc/../font/../misc/lv_area.h **** 
 138:Middlewares/lvgl/src/extra/layouts/grid/../flex/../../../core/../misc/../font/../misc/lv_area.h **** /**
 139:Middlewares/lvgl/src/extra/layouts/grid/../flex/../../../core/../misc/../font/../misc/lv_area.h ****  * Get the height of an area
 140:Middlewares/lvgl/src/extra/layouts/grid/../flex/../../../core/../misc/../font/../misc/lv_area.h ****  * @param area_p pointer to an area
 141:Middlewares/lvgl/src/extra/layouts/grid/../flex/../../../core/../misc/../font/../misc/lv_area.h ****  * @return the height of the area (if y1 == y2 -> height = 1)
 142:Middlewares/lvgl/src/extra/layouts/grid/../flex/../../../core/../misc/../font/../misc/lv_area.h ****  */
 143:Middlewares/lvgl/src/extra/layouts/grid/../flex/../../../core/../misc/../font/../misc/lv_area.h **** static inline lv_coord_t lv_area_get_height(const lv_area_t * area_p)
 761              		.loc 4 143 26 view .LVU257
 762              	.LBB138:
 144:Middlewares/lvgl/src/extra/layouts/grid/../flex/../../../core/../misc/../font/../misc/lv_area.h **** {
 145:Middlewares/lvgl/src/extra/layouts/grid/../flex/../../../core/../misc/../font/../misc/lv_area.h ****     return (lv_coord_t)(area_p->y2 - area_p->y1 + 1);
 763              		.loc 4 145 5 view .LVU258
 764              		.loc 4 145 31 is_stmt 0 view .LVU259
 765 00f2 678B     		ldrh	r7, [r4, #26]
 766              		.loc 4 145 44 view .LVU260
 767 00f4 E38A     		ldrh	r3, [r4, #22]
 768              		.loc 4 145 36 view .LVU261
 769 00f6 FF1A     		subs	r7, r7, r3
 770 00f8 BFB2     		uxth	r7, r7
 771              		.loc 4 145 49 view .LVU262
 772 00fa 0137     		adds	r7, r7, #1
 773              		.loc 4 145 12 view .LVU263
 774 00fc 3FB2     		sxth	r7, r7
 775              	.LVL84:
 776              		.loc 4 145 12 view .LVU264
 777              	.LBE138:
 778              	.LBE137:
 578:Middlewares/lvgl/src/extra/layouts/grid/lv_grid.c ****         default:
 779              		.loc 1 578 5 is_stmt 1 view .LVU265
 780 00fe B8F1020F 		cmp	r8, #2
 781 0102 00F0DE80 		beq	.L33
 782 0106 B8F1030F 		cmp	r8, #3
 783 010a 00F0BC80 		beq	.L34
 784 010e B8F1010F 		cmp	r8, #1
 785 0112 00F0C380 		beq	.L35
 581:Middlewares/lvgl/src/extra/layouts/grid/lv_grid.c ****             item->w_layout = 0;
 786              		.loc 1 581 13 view .LVU266
 581:Middlewares/lvgl/src/extra/layouts/grid/lv_grid.c ****             item->w_layout = 0;
 787              		.loc 1 581 18 is_stmt 0 view .LVU267
 788 0116 2B68     		ldr	r3, [r5]
 581:Middlewares/lvgl/src/extra/layouts/grid/lv_grid.c ****             item->w_layout = 0;
 789              		.loc 1 581 15 view .LVU268
 790 0118 33F91B80 		ldrsh	r8, [r3, fp, lsl #1]
 791              	.LVL85:
 582:Middlewares/lvgl/src/extra/layouts/grid/lv_grid.c ****             break;
 792              		.loc 1 582 13 is_stmt 1 view .LVU269
 582:Middlewares/lvgl/src/extra/layouts/grid/lv_grid.c ****             break;
 793              		.loc 1 582 28 is_stmt 0 view .LVU270
ARM GAS  /tmp/ccRzkyyJ.s 			page 40


 794 011c 94F82330 		ldrb	r3, [r4, #35]	@ zero_extendqisi2
 795 0120 6FF38203 		bfc	r3, #2, #1
 796 0124 84F82330 		strb	r3, [r4, #35]
 797              	.LVL86:
 583:Middlewares/lvgl/src/extra/layouts/grid/lv_grid.c ****         case LV_GRID_ALIGN_STRETCH:
 798              		.loc 1 583 13 is_stmt 1 view .LVU271
 799              	.L36:
 599:Middlewares/lvgl/src/extra/layouts/grid/lv_grid.c ****         default:
 800              		.loc 1 599 5 view .LVU272
 801 0128 B9F1020F 		cmp	r9, #2
 802 012c 00F00A81 		beq	.L38
 599:Middlewares/lvgl/src/extra/layouts/grid/lv_grid.c ****         default:
 803              		.loc 1 599 5 is_stmt 0 view .LVU273
 804 0130 B9F1030F 		cmp	r9, #3
 805 0134 00F0DB80 		beq	.L39
 806 0138 B9F1010F 		cmp	r9, #1
 807 013c 00F0E280 		beq	.L40
 602:Middlewares/lvgl/src/extra/layouts/grid/lv_grid.c ****             item->h_layout = 0;
 808              		.loc 1 602 13 is_stmt 1 view .LVU274
 602:Middlewares/lvgl/src/extra/layouts/grid/lv_grid.c ****             item->h_layout = 0;
 809              		.loc 1 602 18 is_stmt 0 view .LVU275
 810 0140 6B68     		ldr	r3, [r5, #4]
 602:Middlewares/lvgl/src/extra/layouts/grid/lv_grid.c ****             item->h_layout = 0;
 811              		.loc 1 602 15 view .LVU276
 812 0142 33F91A50 		ldrsh	r5, [r3, r10, lsl #1]
 813              	.LVL87:
 603:Middlewares/lvgl/src/extra/layouts/grid/lv_grid.c ****             break;
 814              		.loc 1 603 13 is_stmt 1 view .LVU277
 603:Middlewares/lvgl/src/extra/layouts/grid/lv_grid.c ****             break;
 815              		.loc 1 603 28 is_stmt 0 view .LVU278
 816 0146 94F82330 		ldrb	r3, [r4, #35]	@ zero_extendqisi2
 817 014a 6FF34103 		bfc	r3, #1, #1
 818 014e 84F82330 		strb	r3, [r4, #35]
 604:Middlewares/lvgl/src/extra/layouts/grid/lv_grid.c ****         case LV_GRID_ALIGN_STRETCH:
 819              		.loc 1 604 13 is_stmt 1 view .LVU279
 820              	.LVL88:
 821              	.L41:
 621:Middlewares/lvgl/src/extra/layouts/grid/lv_grid.c ****         lv_area_t old_coords;
 822              		.loc 1 621 5 view .LVU280
 621:Middlewares/lvgl/src/extra/layouts/grid/lv_grid.c ****         lv_area_t old_coords;
 823              		.loc 1 621 8 is_stmt 0 view .LVU281
 824 0152 2046     		mov	r0, r4
 825 0154 FFF7FEFF 		bl	lv_obj_get_width
 826              	.LVL89:
 621:Middlewares/lvgl/src/extra/layouts/grid/lv_grid.c ****         lv_area_t old_coords;
 827              		.loc 1 621 7 view .LVU282
 828 0158 B042     		cmp	r0, r6
 829 015a 00F00681 		beq	.L56
 830              	.L43:
 831              	.LBB139:
 622:Middlewares/lvgl/src/extra/layouts/grid/lv_grid.c ****         lv_area_copy(&old_coords, &item->coords);
 832              		.loc 1 622 9 is_stmt 1 view .LVU283
 623:Middlewares/lvgl/src/extra/layouts/grid/lv_grid.c ****         lv_obj_invalidate(item);
 833              		.loc 1 623 9 view .LVU284
 834              	.LVL90:
 835              	.LBB140:
 836              	.LBI140:
ARM GAS  /tmp/ccRzkyyJ.s 			page 41


 120:Middlewares/lvgl/src/extra/layouts/grid/../flex/../../../core/../misc/../font/../misc/lv_area.h **** {
 837              		.loc 4 120 20 view .LVU285
 838              	.LBB141:
 122:Middlewares/lvgl/src/extra/layouts/grid/../flex/../../../core/../misc/../font/../misc/lv_area.h ****     dest->y1 = src->y1;
 839              		.loc 4 122 5 view .LVU286
 122:Middlewares/lvgl/src/extra/layouts/grid/../flex/../../../core/../misc/../font/../misc/lv_area.h ****     dest->y1 = src->y1;
 840              		.loc 4 122 19 is_stmt 0 view .LVU287
 841 015e B4F91430 		ldrsh	r3, [r4, #20]
 122:Middlewares/lvgl/src/extra/layouts/grid/../flex/../../../core/../misc/../font/../misc/lv_area.h ****     dest->y1 = src->y1;
 842              		.loc 4 122 14 view .LVU288
 843 0162 ADF81830 		strh	r3, [sp, #24]	@ movhi
 123:Middlewares/lvgl/src/extra/layouts/grid/../flex/../../../core/../misc/../font/../misc/lv_area.h ****     dest->x2 = src->x2;
 844              		.loc 4 123 5 is_stmt 1 view .LVU289
 123:Middlewares/lvgl/src/extra/layouts/grid/../flex/../../../core/../misc/../font/../misc/lv_area.h ****     dest->x2 = src->x2;
 845              		.loc 4 123 19 is_stmt 0 view .LVU290
 846 0166 B4F91630 		ldrsh	r3, [r4, #22]
 123:Middlewares/lvgl/src/extra/layouts/grid/../flex/../../../core/../misc/../font/../misc/lv_area.h ****     dest->x2 = src->x2;
 847              		.loc 4 123 14 view .LVU291
 848 016a ADF81A30 		strh	r3, [sp, #26]	@ movhi
 124:Middlewares/lvgl/src/extra/layouts/grid/../flex/../../../core/../misc/../font/../misc/lv_area.h ****     dest->y2 = src->y2;
 849              		.loc 4 124 5 is_stmt 1 view .LVU292
 124:Middlewares/lvgl/src/extra/layouts/grid/../flex/../../../core/../misc/../font/../misc/lv_area.h ****     dest->y2 = src->y2;
 850              		.loc 4 124 19 is_stmt 0 view .LVU293
 851 016e B4F91830 		ldrsh	r3, [r4, #24]
 124:Middlewares/lvgl/src/extra/layouts/grid/../flex/../../../core/../misc/../font/../misc/lv_area.h ****     dest->y2 = src->y2;
 852              		.loc 4 124 14 view .LVU294
 853 0172 ADF81C30 		strh	r3, [sp, #28]	@ movhi
 125:Middlewares/lvgl/src/extra/layouts/grid/../flex/../../../core/../misc/../font/../misc/lv_area.h **** }
 854              		.loc 4 125 5 is_stmt 1 view .LVU295
 125:Middlewares/lvgl/src/extra/layouts/grid/../flex/../../../core/../misc/../font/../misc/lv_area.h **** }
 855              		.loc 4 125 19 is_stmt 0 view .LVU296
 856 0176 B4F91A30 		ldrsh	r3, [r4, #26]
 125:Middlewares/lvgl/src/extra/layouts/grid/../flex/../../../core/../misc/../font/../misc/lv_area.h **** }
 857              		.loc 4 125 14 view .LVU297
 858 017a ADF81E30 		strh	r3, [sp, #30]	@ movhi
 859              	.LVL91:
 125:Middlewares/lvgl/src/extra/layouts/grid/../flex/../../../core/../misc/../font/../misc/lv_area.h **** }
 860              		.loc 4 125 14 view .LVU298
 861              	.LBE141:
 862              	.LBE140:
 624:Middlewares/lvgl/src/extra/layouts/grid/lv_grid.c ****         lv_area_set_width(&item->coords, item_w);
 863              		.loc 1 624 9 is_stmt 1 view .LVU299
 864 017e 2046     		mov	r0, r4
 865 0180 FFF7FEFF 		bl	lv_obj_invalidate
 866              	.LVL92:
 625:Middlewares/lvgl/src/extra/layouts/grid/lv_grid.c ****         lv_area_set_height(&item->coords, item_h);
 867              		.loc 1 625 9 view .LVU300
 868 0184 04F11403 		add	r3, r4, #20
 869 0188 3146     		mov	r1, r6
 870 018a 1E46     		mov	r6, r3
 871              	.LVL93:
 625:Middlewares/lvgl/src/extra/layouts/grid/lv_grid.c ****         lv_area_set_height(&item->coords, item_h);
 872              		.loc 1 625 9 is_stmt 0 view .LVU301
 873 018c 1846     		mov	r0, r3
 874 018e FFF7FEFF 		bl	lv_area_set_width
 875              	.LVL94:
 626:Middlewares/lvgl/src/extra/layouts/grid/lv_grid.c ****         lv_obj_invalidate(item);
ARM GAS  /tmp/ccRzkyyJ.s 			page 42


 876              		.loc 1 626 9 is_stmt 1 view .LVU302
 877 0192 3946     		mov	r1, r7
 878 0194 3046     		mov	r0, r6
 879 0196 FFF7FEFF 		bl	lv_area_set_height
 880              	.LVL95:
 627:Middlewares/lvgl/src/extra/layouts/grid/lv_grid.c ****         lv_event_send(item, LV_EVENT_SIZE_CHANGED, &old_coords);
 881              		.loc 1 627 9 view .LVU303
 882 019a 2046     		mov	r0, r4
 883 019c FFF7FEFF 		bl	lv_obj_invalidate
 884              	.LVL96:
 628:Middlewares/lvgl/src/extra/layouts/grid/lv_grid.c ****         lv_event_send(lv_obj_get_parent(item), LV_EVENT_CHILD_CHANGED, item);
 885              		.loc 1 628 9 view .LVU304
 886 01a0 06AA     		add	r2, sp, #24
 887 01a2 2321     		movs	r1, #35
 888 01a4 2046     		mov	r0, r4
 889 01a6 FFF7FEFF 		bl	lv_event_send
 890              	.LVL97:
 629:Middlewares/lvgl/src/extra/layouts/grid/lv_grid.c **** 
 891              		.loc 1 629 9 view .LVU305
 892 01aa 2046     		mov	r0, r4
 893 01ac FFF7FEFF 		bl	lv_obj_get_parent
 894              	.LVL98:
 895 01b0 2246     		mov	r2, r4
 896 01b2 2221     		movs	r1, #34
 897 01b4 FFF7FEFF 		bl	lv_event_send
 898              	.LVL99:
 899              	.L44:
 629:Middlewares/lvgl/src/extra/layouts/grid/lv_grid.c **** 
 900              		.loc 1 629 9 is_stmt 0 view .LVU306
 901              	.LBE139:
 634:Middlewares/lvgl/src/extra/layouts/grid/lv_grid.c ****     lv_coord_t tr_y = lv_obj_get_style_translate_y(item, LV_PART_MAIN);
 902              		.loc 1 634 5 is_stmt 1 view .LVU307
 903              	.LBB142:
 904              	.LBI142:
  67:Middlewares/lvgl/src/extra/layouts/grid/../flex/../../../core/lv_obj_style_gen.h **** {
 905              		.loc 3 67 26 view .LVU308
 906              	.LBB143:
  69:Middlewares/lvgl/src/extra/layouts/grid/../flex/../../../core/lv_obj_style_gen.h ****     return (lv_coord_t)v.num;
 907              		.loc 3 69 5 view .LVU309
  69:Middlewares/lvgl/src/extra/layouts/grid/../flex/../../../core/lv_obj_style_gen.h ****     return (lv_coord_t)v.num;
 908              		.loc 3 69 26 is_stmt 0 view .LVU310
 909 01b8 43F20C02 		movw	r2, #12300
 910 01bc 0021     		movs	r1, #0
 911 01be 2046     		mov	r0, r4
 912 01c0 FFF7FEFF 		bl	lv_obj_get_style_prop
 913              	.LVL100:
 914 01c4 0746     		mov	r7, r0
 915              	.LVL101:
  70:Middlewares/lvgl/src/extra/layouts/grid/../flex/../../../core/lv_obj_style_gen.h **** }
 916              		.loc 3 70 5 is_stmt 1 view .LVU311
  70:Middlewares/lvgl/src/extra/layouts/grid/../flex/../../../core/lv_obj_style_gen.h **** }
 917              		.loc 3 70 12 is_stmt 0 view .LVU312
 918 01c6 0FFA80FA 		sxth	r10, r0
 919              	.LVL102:
  70:Middlewares/lvgl/src/extra/layouts/grid/../flex/../../../core/lv_obj_style_gen.h **** }
 920              		.loc 3 70 12 view .LVU313
 921              	.LBE143:
ARM GAS  /tmp/ccRzkyyJ.s 			page 43


 922              	.LBE142:
 635:Middlewares/lvgl/src/extra/layouts/grid/lv_grid.c ****     lv_coord_t w = lv_obj_get_width(item);
 923              		.loc 1 635 5 is_stmt 1 view .LVU314
 924              	.LBB144:
 925              	.LBI144:
  73:Middlewares/lvgl/src/extra/layouts/grid/../flex/../../../core/lv_obj_style_gen.h **** {
 926              		.loc 3 73 26 view .LVU315
 927              	.LBB145:
  75:Middlewares/lvgl/src/extra/layouts/grid/../flex/../../../core/lv_obj_style_gen.h ****     return (lv_coord_t)v.num;
 928              		.loc 3 75 5 view .LVU316
  75:Middlewares/lvgl/src/extra/layouts/grid/../flex/../../../core/lv_obj_style_gen.h ****     return (lv_coord_t)v.num;
 929              		.loc 3 75 26 is_stmt 0 view .LVU317
 930 01ca 43F20D02 		movw	r2, #12301
 931 01ce 0021     		movs	r1, #0
 932 01d0 2046     		mov	r0, r4
  75:Middlewares/lvgl/src/extra/layouts/grid/../flex/../../../core/lv_obj_style_gen.h ****     return (lv_coord_t)v.num;
 933              		.loc 3 75 26 view .LVU318
 934 01d2 FFF7FEFF 		bl	lv_obj_get_style_prop
 935              	.LVL103:
 936 01d6 0646     		mov	r6, r0
  76:Middlewares/lvgl/src/extra/layouts/grid/../flex/../../../core/lv_obj_style_gen.h **** }
 937              		.loc 3 76 5 is_stmt 1 view .LVU319
  76:Middlewares/lvgl/src/extra/layouts/grid/../flex/../../../core/lv_obj_style_gen.h **** }
 938              		.loc 3 76 12 is_stmt 0 view .LVU320
 939 01d8 0FFA80F9 		sxth	r9, r0
 940              	.LVL104:
  76:Middlewares/lvgl/src/extra/layouts/grid/../flex/../../../core/lv_obj_style_gen.h **** }
 941              		.loc 3 76 12 view .LVU321
 942              	.LBE145:
 943              	.LBE144:
 636:Middlewares/lvgl/src/extra/layouts/grid/lv_grid.c ****     lv_coord_t h = lv_obj_get_height(item);
 944              		.loc 1 636 5 is_stmt 1 view .LVU322
 636:Middlewares/lvgl/src/extra/layouts/grid/lv_grid.c ****     lv_coord_t h = lv_obj_get_height(item);
 945              		.loc 1 636 20 is_stmt 0 view .LVU323
 946 01dc 2046     		mov	r0, r4
 947 01de FFF7FEFF 		bl	lv_obj_get_width
 948              	.LVL105:
 949 01e2 8346     		mov	fp, r0
 950              	.LVL106:
 637:Middlewares/lvgl/src/extra/layouts/grid/lv_grid.c ****     if(LV_COORD_IS_PCT(tr_x)) tr_x = (w * LV_COORD_GET_PCT(tr_x)) / 100;
 951              		.loc 1 637 5 is_stmt 1 view .LVU324
 637:Middlewares/lvgl/src/extra/layouts/grid/lv_grid.c ****     if(LV_COORD_IS_PCT(tr_x)) tr_x = (w * LV_COORD_GET_PCT(tr_x)) / 100;
 952              		.loc 1 637 20 is_stmt 0 view .LVU325
 953 01e4 2046     		mov	r0, r4
 954 01e6 FFF7FEFF 		bl	lv_obj_get_height
 955              	.LVL107:
 638:Middlewares/lvgl/src/extra/layouts/grid/lv_grid.c ****     if(LV_COORD_IS_PCT(tr_y)) tr_y = (h * LV_COORD_GET_PCT(tr_y)) / 100;
 956              		.loc 1 638 5 is_stmt 1 view .LVU326
 638:Middlewares/lvgl/src/extra/layouts/grid/lv_grid.c ****     if(LV_COORD_IS_PCT(tr_y)) tr_y = (h * LV_COORD_GET_PCT(tr_y)) / 100;
 957              		.loc 1 638 8 is_stmt 0 view .LVU327
 958 01ea 07F4C047 		and	r7, r7, #24576
 959              	.LVL108:
 638:Middlewares/lvgl/src/extra/layouts/grid/lv_grid.c ****     if(LV_COORD_IS_PCT(tr_y)) tr_y = (h * LV_COORD_GET_PCT(tr_y)) / 100;
 960              		.loc 1 638 7 view .LVU328
 961 01ee B7F5005F 		cmp	r7, #8192
 962 01f2 00F0C180 		beq	.L57
 963              	.LVL109:
ARM GAS  /tmp/ccRzkyyJ.s 			page 44


 964              	.L45:
 639:Middlewares/lvgl/src/extra/layouts/grid/lv_grid.c **** 
 965              		.loc 1 639 5 is_stmt 1 view .LVU329
 639:Middlewares/lvgl/src/extra/layouts/grid/lv_grid.c **** 
 966              		.loc 1 639 8 is_stmt 0 view .LVU330
 967 01f6 06F4C046 		and	r6, r6, #24576
 639:Middlewares/lvgl/src/extra/layouts/grid/lv_grid.c **** 
 968              		.loc 1 639 7 view .LVU331
 969 01fa B6F5005F 		cmp	r6, #8192
 970 01fe 00F0D280 		beq	.L58
 971              	.L48:
 641:Middlewares/lvgl/src/extra/layouts/grid/lv_grid.c ****     y += tr_y;
 972              		.loc 1 641 5 is_stmt 1 view .LVU332
 641:Middlewares/lvgl/src/extra/layouts/grid/lv_grid.c ****     y += tr_y;
 973              		.loc 1 641 7 is_stmt 0 view .LVU333
 974 0202 08EB0A06 		add	r6, r8, r10
 975              	.LVL110:
 642:Middlewares/lvgl/src/extra/layouts/grid/lv_grid.c **** 
 976              		.loc 1 642 5 is_stmt 1 view .LVU334
 642:Middlewares/lvgl/src/extra/layouts/grid/lv_grid.c **** 
 977              		.loc 1 642 7 is_stmt 0 view .LVU335
 978 0206 05EB0902 		add	r2, r5, r9
 979              	.LVL111:
 644:Middlewares/lvgl/src/extra/layouts/grid/lv_grid.c ****     lv_coord_t diff_y = hint->grid_abs.y + y - item->coords.y1;
 980              		.loc 1 644 5 is_stmt 1 view .LVU336
 644:Middlewares/lvgl/src/extra/layouts/grid/lv_grid.c ****     lv_coord_t diff_y = hint->grid_abs.y + y - item->coords.y1;
 981              		.loc 1 644 39 is_stmt 0 view .LVU337
 982 020a 0199     		ldr	r1, [sp, #4]
 983 020c B1F80880 		ldrh	r8, [r1, #8]
 644:Middlewares/lvgl/src/extra/layouts/grid/lv_grid.c ****     lv_coord_t diff_y = hint->grid_abs.y + y - item->coords.y1;
 984              		.loc 1 644 42 view .LVU338
 985 0210 18FA86F6 		uxtah	r6, r8, r6
 986              	.LVL112:
 644:Middlewares/lvgl/src/extra/layouts/grid/lv_grid.c ****     lv_coord_t diff_y = hint->grid_abs.y + y - item->coords.y1;
 987              		.loc 1 644 42 view .LVU339
 988 0214 B6B2     		uxth	r6, r6
 644:Middlewares/lvgl/src/extra/layouts/grid/lv_grid.c ****     lv_coord_t diff_y = hint->grid_abs.y + y - item->coords.y1;
 989              		.loc 1 644 60 view .LVU340
 990 0216 A38A     		ldrh	r3, [r4, #20]
 644:Middlewares/lvgl/src/extra/layouts/grid/lv_grid.c ****     lv_coord_t diff_y = hint->grid_abs.y + y - item->coords.y1;
 991              		.loc 1 644 46 view .LVU341
 992 0218 F61A     		subs	r6, r6, r3
 993 021a B7B2     		uxth	r7, r6
 644:Middlewares/lvgl/src/extra/layouts/grid/lv_grid.c ****     lv_coord_t diff_y = hint->grid_abs.y + y - item->coords.y1;
 994              		.loc 1 644 16 view .LVU342
 995 021c 36B2     		sxth	r6, r6
 996              	.LVL113:
 645:Middlewares/lvgl/src/extra/layouts/grid/lv_grid.c ****     if(diff_x || diff_y) {
 997              		.loc 1 645 5 is_stmt 1 view .LVU343
 645:Middlewares/lvgl/src/extra/layouts/grid/lv_grid.c ****     if(diff_x || diff_y) {
 998              		.loc 1 645 39 is_stmt 0 view .LVU344
 999 021e 4D89     		ldrh	r5, [r1, #10]
 645:Middlewares/lvgl/src/extra/layouts/grid/lv_grid.c ****     if(diff_x || diff_y) {
 1000              		.loc 1 645 42 view .LVU345
 1001 0220 15FA82F2 		uxtah	r2, r5, r2
 1002              	.LVL114:
 645:Middlewares/lvgl/src/extra/layouts/grid/lv_grid.c ****     if(diff_x || diff_y) {
ARM GAS  /tmp/ccRzkyyJ.s 			page 45


 1003              		.loc 1 645 42 view .LVU346
 1004 0224 92B2     		uxth	r2, r2
 645:Middlewares/lvgl/src/extra/layouts/grid/lv_grid.c ****     if(diff_x || diff_y) {
 1005              		.loc 1 645 60 view .LVU347
 1006 0226 E38A     		ldrh	r3, [r4, #22]
 645:Middlewares/lvgl/src/extra/layouts/grid/lv_grid.c ****     if(diff_x || diff_y) {
 1007              		.loc 1 645 46 view .LVU348
 1008 0228 D21A     		subs	r2, r2, r3
 1009 022a 1FFA82F8 		uxth	r8, r2
 645:Middlewares/lvgl/src/extra/layouts/grid/lv_grid.c ****     if(diff_x || diff_y) {
 1010              		.loc 1 645 16 view .LVU349
 1011 022e 15B2     		sxth	r5, r2
 1012              	.LVL115:
 646:Middlewares/lvgl/src/extra/layouts/grid/lv_grid.c ****         lv_obj_invalidate(item);
 1013              		.loc 1 646 5 is_stmt 1 view .LVU350
 646:Middlewares/lvgl/src/extra/layouts/grid/lv_grid.c ****         lv_obj_invalidate(item);
 1014              		.loc 1 646 7 is_stmt 0 view .LVU351
 1015 0230 56EA0503 		orrs	r3, r6, r5
 1016 0234 3FF4EEAE 		beq	.L30
 647:Middlewares/lvgl/src/extra/layouts/grid/lv_grid.c ****         item->coords.x1 += diff_x;
 1017              		.loc 1 647 9 is_stmt 1 view .LVU352
 1018 0238 2046     		mov	r0, r4
 1019              	.LVL116:
 647:Middlewares/lvgl/src/extra/layouts/grid/lv_grid.c ****         item->coords.x1 += diff_x;
 1020              		.loc 1 647 9 is_stmt 0 view .LVU353
 1021 023a FFF7FEFF 		bl	lv_obj_invalidate
 1022              	.LVL117:
 648:Middlewares/lvgl/src/extra/layouts/grid/lv_grid.c ****         item->coords.x2 += diff_x;
 1023              		.loc 1 648 9 is_stmt 1 view .LVU354
 648:Middlewares/lvgl/src/extra/layouts/grid/lv_grid.c ****         item->coords.x2 += diff_x;
 1024              		.loc 1 648 25 is_stmt 0 view .LVU355
 1025 023e A38A     		ldrh	r3, [r4, #20]
 1026 0240 3B44     		add	r3, r3, r7
 1027 0242 A382     		strh	r3, [r4, #20]	@ movhi
 649:Middlewares/lvgl/src/extra/layouts/grid/lv_grid.c ****         item->coords.y1 += diff_y;
 1028              		.loc 1 649 9 is_stmt 1 view .LVU356
 649:Middlewares/lvgl/src/extra/layouts/grid/lv_grid.c ****         item->coords.y1 += diff_y;
 1029              		.loc 1 649 25 is_stmt 0 view .LVU357
 1030 0244 238B     		ldrh	r3, [r4, #24]
 1031 0246 1F44     		add	r7, r7, r3
 1032 0248 2783     		strh	r7, [r4, #24]	@ movhi
 650:Middlewares/lvgl/src/extra/layouts/grid/lv_grid.c ****         item->coords.y2 += diff_y;
 1033              		.loc 1 650 9 is_stmt 1 view .LVU358
 650:Middlewares/lvgl/src/extra/layouts/grid/lv_grid.c ****         item->coords.y2 += diff_y;
 1034              		.loc 1 650 25 is_stmt 0 view .LVU359
 1035 024a E38A     		ldrh	r3, [r4, #22]
 1036 024c 4344     		add	r3, r3, r8
 1037 024e E382     		strh	r3, [r4, #22]	@ movhi
 651:Middlewares/lvgl/src/extra/layouts/grid/lv_grid.c ****         lv_obj_invalidate(item);
 1038              		.loc 1 651 9 is_stmt 1 view .LVU360
 651:Middlewares/lvgl/src/extra/layouts/grid/lv_grid.c ****         lv_obj_invalidate(item);
 1039              		.loc 1 651 25 is_stmt 0 view .LVU361
 1040 0250 638B     		ldrh	r3, [r4, #26]
 1041 0252 9844     		add	r8, r8, r3
 1042 0254 A4F81A80 		strh	r8, [r4, #26]	@ movhi
 652:Middlewares/lvgl/src/extra/layouts/grid/lv_grid.c ****         lv_obj_move_children_by(item, diff_x, diff_y, true);
 1043              		.loc 1 652 9 is_stmt 1 view .LVU362
ARM GAS  /tmp/ccRzkyyJ.s 			page 46


 1044 0258 2046     		mov	r0, r4
 1045 025a FFF7FEFF 		bl	lv_obj_invalidate
 1046              	.LVL118:
 653:Middlewares/lvgl/src/extra/layouts/grid/lv_grid.c ****     }
 1047              		.loc 1 653 9 view .LVU363
 1048 025e 0123     		movs	r3, #1
 1049 0260 2A46     		mov	r2, r5
 1050 0262 3146     		mov	r1, r6
 1051 0264 2046     		mov	r0, r4
 1052 0266 FFF7FEFF 		bl	lv_obj_move_children_by
 1053              	.LVL119:
 1054 026a D3E6     		b	.L30
 1055              	.LVL120:
 1056              	.L55:
 569:Middlewares/lvgl/src/extra/layouts/grid/lv_grid.c ****         else if(col_align == LV_GRID_ALIGN_END) col_align = LV_GRID_ALIGN_START;
 1057              		.loc 1 569 9 view .LVU364
 569:Middlewares/lvgl/src/extra/layouts/grid/lv_grid.c ****         else if(col_align == LV_GRID_ALIGN_END) col_align = LV_GRID_ALIGN_START;
 1058              		.loc 1 569 11 is_stmt 0 view .LVU365
 1059 026c B8F1000F 		cmp	r8, #0
 1060 0270 06D0     		beq	.L51
 570:Middlewares/lvgl/src/extra/layouts/grid/lv_grid.c ****     }
 1061              		.loc 1 570 14 is_stmt 1 view .LVU366
 570:Middlewares/lvgl/src/extra/layouts/grid/lv_grid.c ****     }
 1062              		.loc 1 570 16 is_stmt 0 view .LVU367
 1063 0272 B8F1020F 		cmp	r8, #2
 1064 0276 7FF436AF 		bne	.L32
 570:Middlewares/lvgl/src/extra/layouts/grid/lv_grid.c ****     }
 1065              		.loc 1 570 59 view .LVU368
 1066 027a 4FF00008 		mov	r8, #0
 1067              	.LVL121:
 570:Middlewares/lvgl/src/extra/layouts/grid/lv_grid.c ****     }
 1068              		.loc 1 570 59 view .LVU369
 1069 027e 32E7     		b	.L32
 1070              	.LVL122:
 1071              	.L51:
 569:Middlewares/lvgl/src/extra/layouts/grid/lv_grid.c ****         else if(col_align == LV_GRID_ALIGN_END) col_align = LV_GRID_ALIGN_START;
 1072              		.loc 1 569 56 view .LVU370
 1073 0280 4FF00208 		mov	r8, #2
 1074              	.LVL123:
 569:Middlewares/lvgl/src/extra/layouts/grid/lv_grid.c ****         else if(col_align == LV_GRID_ALIGN_END) col_align = LV_GRID_ALIGN_START;
 1075              		.loc 1 569 56 view .LVU371
 1076 0284 2FE7     		b	.L32
 1077              	.LVL124:
 1078              	.L34:
 585:Middlewares/lvgl/src/extra/layouts/grid/lv_grid.c ****             item_w = col_w;
 1079              		.loc 1 585 13 is_stmt 1 view .LVU372
 585:Middlewares/lvgl/src/extra/layouts/grid/lv_grid.c ****             item_w = col_w;
 1080              		.loc 1 585 18 is_stmt 0 view .LVU373
 1081 0286 2B68     		ldr	r3, [r5]
 585:Middlewares/lvgl/src/extra/layouts/grid/lv_grid.c ****             item_w = col_w;
 1082              		.loc 1 585 15 view .LVU374
 1083 0288 33F91B80 		ldrsh	r8, [r3, fp, lsl #1]
 1084              	.LVL125:
 586:Middlewares/lvgl/src/extra/layouts/grid/lv_grid.c ****             item->w_layout = 1;
 1085              		.loc 1 586 13 is_stmt 1 view .LVU375
 587:Middlewares/lvgl/src/extra/layouts/grid/lv_grid.c ****             break;
 1086              		.loc 1 587 13 view .LVU376
ARM GAS  /tmp/ccRzkyyJ.s 			page 47


 587:Middlewares/lvgl/src/extra/layouts/grid/lv_grid.c ****             break;
 1087              		.loc 1 587 28 is_stmt 0 view .LVU377
 1088 028c 94F82330 		ldrb	r3, [r4, #35]	@ zero_extendqisi2
 1089 0290 43F00403 		orr	r3, r3, #4
 1090 0294 84F82330 		strb	r3, [r4, #35]
 1091              	.LVL126:
 588:Middlewares/lvgl/src/extra/layouts/grid/lv_grid.c ****         case LV_GRID_ALIGN_CENTER:
 1092              		.loc 1 588 13 is_stmt 1 view .LVU378
 586:Middlewares/lvgl/src/extra/layouts/grid/lv_grid.c ****             item->w_layout = 1;
 1093              		.loc 1 586 20 is_stmt 0 view .LVU379
 1094 0298 029E     		ldr	r6, [sp, #8]
 588:Middlewares/lvgl/src/extra/layouts/grid/lv_grid.c ****         case LV_GRID_ALIGN_CENTER:
 1095              		.loc 1 588 13 view .LVU380
 1096 029a 45E7     		b	.L36
 1097              	.LVL127:
 1098              	.L35:
 590:Middlewares/lvgl/src/extra/layouts/grid/lv_grid.c ****             item->w_layout = 0;
 1099              		.loc 1 590 13 is_stmt 1 view .LVU381
 590:Middlewares/lvgl/src/extra/layouts/grid/lv_grid.c ****             item->w_layout = 0;
 1100              		.loc 1 590 18 is_stmt 0 view .LVU382
 1101 029c 2B68     		ldr	r3, [r5]
 590:Middlewares/lvgl/src/extra/layouts/grid/lv_grid.c ****             item->w_layout = 0;
 1102              		.loc 1 590 21 view .LVU383
 1103 029e 33F81B80 		ldrh	r8, [r3, fp, lsl #1]
 1104              	.LVL128:
 590:Middlewares/lvgl/src/extra/layouts/grid/lv_grid.c ****             item->w_layout = 0;
 1105              		.loc 1 590 50 view .LVU384
 1106 02a2 029B     		ldr	r3, [sp, #8]
 1107 02a4 9B1B     		subs	r3, r3, r6
 1108 02a6 0AD4     		bmi	.L59
 1109              	.L37:
 590:Middlewares/lvgl/src/extra/layouts/grid/lv_grid.c ****             item->w_layout = 0;
 1110              		.loc 1 590 31 view .LVU385
 1111 02a8 08EB6308 		add	r8, r8, r3, asr #1
 590:Middlewares/lvgl/src/extra/layouts/grid/lv_grid.c ****             item->w_layout = 0;
 1112              		.loc 1 590 15 view .LVU386
 1113 02ac 0FFA88F8 		sxth	r8, r8
 1114              	.LVL129:
 591:Middlewares/lvgl/src/extra/layouts/grid/lv_grid.c ****             break;
 1115              		.loc 1 591 13 is_stmt 1 view .LVU387
 591:Middlewares/lvgl/src/extra/layouts/grid/lv_grid.c ****             break;
 1116              		.loc 1 591 28 is_stmt 0 view .LVU388
 1117 02b0 94F82330 		ldrb	r3, [r4, #35]	@ zero_extendqisi2
 1118 02b4 6FF38203 		bfc	r3, #2, #1
 1119 02b8 84F82330 		strb	r3, [r4, #35]
 1120              	.LVL130:
 592:Middlewares/lvgl/src/extra/layouts/grid/lv_grid.c ****         case LV_GRID_ALIGN_END:
 1121              		.loc 1 592 13 is_stmt 1 view .LVU389
 1122 02bc 34E7     		b	.L36
 1123              	.LVL131:
 1124              	.L59:
 590:Middlewares/lvgl/src/extra/layouts/grid/lv_grid.c ****             item->w_layout = 0;
 1125              		.loc 1 590 50 is_stmt 0 view .LVU390
 1126 02be 0133     		adds	r3, r3, #1
 1127 02c0 F2E7     		b	.L37
 1128              	.LVL132:
 1129              	.L33:
ARM GAS  /tmp/ccRzkyyJ.s 			page 48


 594:Middlewares/lvgl/src/extra/layouts/grid/lv_grid.c ****             item->w_layout = 0;
 1130              		.loc 1 594 13 is_stmt 1 view .LVU391
 594:Middlewares/lvgl/src/extra/layouts/grid/lv_grid.c ****             item->w_layout = 0;
 1131              		.loc 1 594 18 is_stmt 0 view .LVU392
 1132 02c2 2B68     		ldr	r3, [r5]
 594:Middlewares/lvgl/src/extra/layouts/grid/lv_grid.c ****             item->w_layout = 0;
 1133              		.loc 1 594 21 view .LVU393
 1134 02c4 33F81B80 		ldrh	r8, [r3, fp, lsl #1]
 1135              	.LVL133:
 594:Middlewares/lvgl/src/extra/layouts/grid/lv_grid.c ****             item->w_layout = 0;
 1136              		.loc 1 594 31 view .LVU394
 1137 02c8 049B     		ldr	r3, [sp, #16]
 1138 02ca 4344     		add	r3, r3, r8
 1139 02cc 1FFA83F8 		uxth	r8, r3
 594:Middlewares/lvgl/src/extra/layouts/grid/lv_grid.c ****             item->w_layout = 0;
 1140              		.loc 1 594 41 view .LVU395
 1141 02d0 2046     		mov	r0, r4
 1142 02d2 FFF7FEFF 		bl	lv_obj_get_width
 1143              	.LVL134:
 1144 02d6 80B2     		uxth	r0, r0
 594:Middlewares/lvgl/src/extra/layouts/grid/lv_grid.c ****             item->w_layout = 0;
 1145              		.loc 1 594 39 view .LVU396
 1146 02d8 A8EB0008 		sub	r8, r8, r0
 594:Middlewares/lvgl/src/extra/layouts/grid/lv_grid.c ****             item->w_layout = 0;
 1147              		.loc 1 594 15 view .LVU397
 1148 02dc 0FFA88F8 		sxth	r8, r8
 1149              	.LVL135:
 595:Middlewares/lvgl/src/extra/layouts/grid/lv_grid.c ****             break;
 1150              		.loc 1 595 13 is_stmt 1 view .LVU398
 595:Middlewares/lvgl/src/extra/layouts/grid/lv_grid.c ****             break;
 1151              		.loc 1 595 28 is_stmt 0 view .LVU399
 1152 02e0 94F82330 		ldrb	r3, [r4, #35]	@ zero_extendqisi2
 1153 02e4 6FF38203 		bfc	r3, #2, #1
 1154 02e8 84F82330 		strb	r3, [r4, #35]
 1155              	.LVL136:
 596:Middlewares/lvgl/src/extra/layouts/grid/lv_grid.c ****     }
 1156              		.loc 1 596 13 is_stmt 1 view .LVU400
 1157 02ec 1CE7     		b	.L36
 1158              	.L39:
 606:Middlewares/lvgl/src/extra/layouts/grid/lv_grid.c ****             item_h = row_h;
 1159              		.loc 1 606 13 view .LVU401
 606:Middlewares/lvgl/src/extra/layouts/grid/lv_grid.c ****             item_h = row_h;
 1160              		.loc 1 606 18 is_stmt 0 view .LVU402
 1161 02ee 6B68     		ldr	r3, [r5, #4]
 606:Middlewares/lvgl/src/extra/layouts/grid/lv_grid.c ****             item_h = row_h;
 1162              		.loc 1 606 15 view .LVU403
 1163 02f0 33F91A50 		ldrsh	r5, [r3, r10, lsl #1]
 1164              	.LVL137:
 607:Middlewares/lvgl/src/extra/layouts/grid/lv_grid.c ****             item->h_layout = 1;
 1165              		.loc 1 607 13 is_stmt 1 view .LVU404
 608:Middlewares/lvgl/src/extra/layouts/grid/lv_grid.c ****             break;
 1166              		.loc 1 608 13 view .LVU405
 608:Middlewares/lvgl/src/extra/layouts/grid/lv_grid.c ****             break;
 1167              		.loc 1 608 28 is_stmt 0 view .LVU406
 1168 02f4 94F82330 		ldrb	r3, [r4, #35]	@ zero_extendqisi2
 1169 02f8 43F00203 		orr	r3, r3, #2
 1170 02fc 84F82330 		strb	r3, [r4, #35]
ARM GAS  /tmp/ccRzkyyJ.s 			page 49


 1171              	.LVL138:
 609:Middlewares/lvgl/src/extra/layouts/grid/lv_grid.c ****         case LV_GRID_ALIGN_CENTER:
 1172              		.loc 1 609 13 is_stmt 1 view .LVU407
 607:Middlewares/lvgl/src/extra/layouts/grid/lv_grid.c ****             item->h_layout = 1;
 1173              		.loc 1 607 20 is_stmt 0 view .LVU408
 1174 0300 039F     		ldr	r7, [sp, #12]
 609:Middlewares/lvgl/src/extra/layouts/grid/lv_grid.c ****         case LV_GRID_ALIGN_CENTER:
 1175              		.loc 1 609 13 view .LVU409
 1176 0302 26E7     		b	.L41
 1177              	.LVL139:
 1178              	.L40:
 611:Middlewares/lvgl/src/extra/layouts/grid/lv_grid.c ****             item->h_layout = 0;
 1179              		.loc 1 611 13 is_stmt 1 view .LVU410
 611:Middlewares/lvgl/src/extra/layouts/grid/lv_grid.c ****             item->h_layout = 0;
 1180              		.loc 1 611 18 is_stmt 0 view .LVU411
 1181 0304 6B68     		ldr	r3, [r5, #4]
 611:Middlewares/lvgl/src/extra/layouts/grid/lv_grid.c ****             item->h_layout = 0;
 1182              		.loc 1 611 21 view .LVU412
 1183 0306 33F81A50 		ldrh	r5, [r3, r10, lsl #1]
 1184              	.LVL140:
 611:Middlewares/lvgl/src/extra/layouts/grid/lv_grid.c ****             item->h_layout = 0;
 1185              		.loc 1 611 50 view .LVU413
 1186 030a 039B     		ldr	r3, [sp, #12]
 1187 030c DB1B     		subs	r3, r3, r7
 1188 030e 09D4     		bmi	.L60
 1189              	.L42:
 611:Middlewares/lvgl/src/extra/layouts/grid/lv_grid.c ****             item->h_layout = 0;
 1190              		.loc 1 611 31 view .LVU414
 1191 0310 05EB6305 		add	r5, r5, r3, asr #1
 611:Middlewares/lvgl/src/extra/layouts/grid/lv_grid.c ****             item->h_layout = 0;
 1192              		.loc 1 611 15 view .LVU415
 1193 0314 2DB2     		sxth	r5, r5
 1194              	.LVL141:
 612:Middlewares/lvgl/src/extra/layouts/grid/lv_grid.c ****             break;
 1195              		.loc 1 612 13 is_stmt 1 view .LVU416
 612:Middlewares/lvgl/src/extra/layouts/grid/lv_grid.c ****             break;
 1196              		.loc 1 612 28 is_stmt 0 view .LVU417
 1197 0316 94F82330 		ldrb	r3, [r4, #35]	@ zero_extendqisi2
 1198 031a 6FF34103 		bfc	r3, #1, #1
 1199 031e 84F82330 		strb	r3, [r4, #35]
 613:Middlewares/lvgl/src/extra/layouts/grid/lv_grid.c ****         case LV_GRID_ALIGN_END:
 1200              		.loc 1 613 13 is_stmt 1 view .LVU418
 1201 0322 16E7     		b	.L41
 1202              	.LVL142:
 1203              	.L60:
 611:Middlewares/lvgl/src/extra/layouts/grid/lv_grid.c ****             item->h_layout = 0;
 1204              		.loc 1 611 50 is_stmt 0 view .LVU419
 1205 0324 0133     		adds	r3, r3, #1
 1206 0326 F3E7     		b	.L42
 1207              	.L62:
 1208              		.align	2
 1209              	.L61:
 1210 0328 01800100 		.word	98305
 1211 032c 00000000 		.word	.LANCHOR0
 1212 0330 00000000 		.word	.LANCHOR1
 1213 0334 00000000 		.word	.LANCHOR2
 1214 0338 00000000 		.word	.LANCHOR3
ARM GAS  /tmp/ccRzkyyJ.s 			page 50


 1215 033c 00000000 		.word	.LANCHOR4
 1216 0340 00000000 		.word	.LANCHOR5
 1217              	.LVL143:
 1218              	.L38:
 615:Middlewares/lvgl/src/extra/layouts/grid/lv_grid.c ****             item->h_layout = 0;
 1219              		.loc 1 615 13 is_stmt 1 view .LVU420
 615:Middlewares/lvgl/src/extra/layouts/grid/lv_grid.c ****             item->h_layout = 0;
 1220              		.loc 1 615 18 is_stmt 0 view .LVU421
 1221 0344 6B68     		ldr	r3, [r5, #4]
 615:Middlewares/lvgl/src/extra/layouts/grid/lv_grid.c ****             item->h_layout = 0;
 1222              		.loc 1 615 21 view .LVU422
 1223 0346 33F81A50 		ldrh	r5, [r3, r10, lsl #1]
 1224              	.LVL144:
 615:Middlewares/lvgl/src/extra/layouts/grid/lv_grid.c ****             item->h_layout = 0;
 1225              		.loc 1 615 31 view .LVU423
 1226 034a 059B     		ldr	r3, [sp, #20]
 1227 034c 2B44     		add	r3, r3, r5
 1228 034e 9DB2     		uxth	r5, r3
 615:Middlewares/lvgl/src/extra/layouts/grid/lv_grid.c ****             item->h_layout = 0;
 1229              		.loc 1 615 41 view .LVU424
 1230 0350 2046     		mov	r0, r4
 1231 0352 FFF7FEFF 		bl	lv_obj_get_height
 1232              	.LVL145:
 1233 0356 80B2     		uxth	r0, r0
 615:Middlewares/lvgl/src/extra/layouts/grid/lv_grid.c ****             item->h_layout = 0;
 1234              		.loc 1 615 39 view .LVU425
 1235 0358 2D1A     		subs	r5, r5, r0
 615:Middlewares/lvgl/src/extra/layouts/grid/lv_grid.c ****             item->h_layout = 0;
 1236              		.loc 1 615 15 view .LVU426
 1237 035a 2DB2     		sxth	r5, r5
 1238              	.LVL146:
 616:Middlewares/lvgl/src/extra/layouts/grid/lv_grid.c ****             break;
 1239              		.loc 1 616 13 is_stmt 1 view .LVU427
 616:Middlewares/lvgl/src/extra/layouts/grid/lv_grid.c ****             break;
 1240              		.loc 1 616 28 is_stmt 0 view .LVU428
 1241 035c 94F82330 		ldrb	r3, [r4, #35]	@ zero_extendqisi2
 1242 0360 6FF34103 		bfc	r3, #1, #1
 1243 0364 84F82330 		strb	r3, [r4, #35]
 617:Middlewares/lvgl/src/extra/layouts/grid/lv_grid.c ****     }
 1244              		.loc 1 617 13 is_stmt 1 view .LVU429
 1245 0368 F3E6     		b	.L41
 1246              	.L56:
 621:Middlewares/lvgl/src/extra/layouts/grid/lv_grid.c ****         lv_area_t old_coords;
 1247              		.loc 1 621 44 is_stmt 0 discriminator 1 view .LVU430
 1248 036a 2046     		mov	r0, r4
 1249 036c FFF7FEFF 		bl	lv_obj_get_height
 1250              	.LVL147:
 621:Middlewares/lvgl/src/extra/layouts/grid/lv_grid.c ****         lv_area_t old_coords;
 1251              		.loc 1 621 41 discriminator 1 view .LVU431
 1252 0370 B842     		cmp	r0, r7
 1253 0372 7FF4F4AE 		bne	.L43
 1254 0376 1FE7     		b	.L44
 1255              	.LVL148:
 1256              	.L57:
 638:Middlewares/lvgl/src/extra/layouts/grid/lv_grid.c ****     if(LV_COORD_IS_PCT(tr_y)) tr_y = (h * LV_COORD_GET_PCT(tr_y)) / 100;
 1257              		.loc 1 638 8 discriminator 1 view .LVU432
 1258 0378 2AF4C043 		bic	r3, r10, #24576
ARM GAS  /tmp/ccRzkyyJ.s 			page 51


 1259 037c B3F5FA6F 		cmp	r3, #2000
 1260 0380 3FF739AF 		bgt	.L45
 638:Middlewares/lvgl/src/extra/layouts/grid/lv_grid.c ****     if(LV_COORD_IS_PCT(tr_y)) tr_y = (h * LV_COORD_GET_PCT(tr_y)) / 100;
 1261              		.loc 1 638 31 is_stmt 1 discriminator 2 view .LVU433
 638:Middlewares/lvgl/src/extra/layouts/grid/lv_grid.c ****     if(LV_COORD_IS_PCT(tr_y)) tr_y = (h * LV_COORD_GET_PCT(tr_y)) / 100;
 1262              		.loc 1 638 43 is_stmt 0 discriminator 2 view .LVU434
 1263 0384 B3F57A7F 		cmp	r3, #1000
 1264 0388 01DD     		ble	.L47
 638:Middlewares/lvgl/src/extra/layouts/grid/lv_grid.c ****     if(LV_COORD_IS_PCT(tr_y)) tr_y = (h * LV_COORD_GET_PCT(tr_y)) / 100;
 1265              		.loc 1 638 43 discriminator 3 view .LVU435
 1266 038a C3F57A73 		rsb	r3, r3, #1000
 1267              	.L47:
 638:Middlewares/lvgl/src/extra/layouts/grid/lv_grid.c ****     if(LV_COORD_IS_PCT(tr_y)) tr_y = (h * LV_COORD_GET_PCT(tr_y)) / 100;
 1268              		.loc 1 638 41 discriminator 6 view .LVU436
 1269 038e 03FB0BFB 		mul	fp, r3, fp
 1270              	.LVL149:
 638:Middlewares/lvgl/src/extra/layouts/grid/lv_grid.c ****     if(LV_COORD_IS_PCT(tr_y)) tr_y = (h * LV_COORD_GET_PCT(tr_y)) / 100;
 1271              		.loc 1 638 67 discriminator 6 view .LVU437
 1272 0392 104B     		ldr	r3, .L63
 1273 0394 83FB0B3A 		smull	r3, r10, r3, fp
 1274              	.LVL150:
 638:Middlewares/lvgl/src/extra/layouts/grid/lv_grid.c ****     if(LV_COORD_IS_PCT(tr_y)) tr_y = (h * LV_COORD_GET_PCT(tr_y)) / 100;
 1275              		.loc 1 638 67 discriminator 6 view .LVU438
 1276 0398 4FEAEB7B 		asr	fp, fp, #31
 1277 039c CBEB6A1A 		rsb	r10, fp, r10, asr #5
 638:Middlewares/lvgl/src/extra/layouts/grid/lv_grid.c ****     if(LV_COORD_IS_PCT(tr_y)) tr_y = (h * LV_COORD_GET_PCT(tr_y)) / 100;
 1278              		.loc 1 638 36 discriminator 6 view .LVU439
 1279 03a0 0FFA8AFA 		sxth	r10, r10
 1280              	.LVL151:
 638:Middlewares/lvgl/src/extra/layouts/grid/lv_grid.c ****     if(LV_COORD_IS_PCT(tr_y)) tr_y = (h * LV_COORD_GET_PCT(tr_y)) / 100;
 1281              		.loc 1 638 36 discriminator 6 view .LVU440
 1282 03a4 27E7     		b	.L45
 1283              	.L58:
 639:Middlewares/lvgl/src/extra/layouts/grid/lv_grid.c **** 
 1284              		.loc 1 639 8 discriminator 1 view .LVU441
 1285 03a6 29F4C043 		bic	r3, r9, #24576
 1286 03aa B3F5FA6F 		cmp	r3, #2000
 1287 03ae 3FF728AF 		bgt	.L48
 639:Middlewares/lvgl/src/extra/layouts/grid/lv_grid.c **** 
 1288              		.loc 1 639 31 is_stmt 1 discriminator 2 view .LVU442
 639:Middlewares/lvgl/src/extra/layouts/grid/lv_grid.c **** 
 1289              		.loc 1 639 43 is_stmt 0 discriminator 2 view .LVU443
 1290 03b2 B3F57A7F 		cmp	r3, #1000
 1291 03b6 01DD     		ble	.L50
 639:Middlewares/lvgl/src/extra/layouts/grid/lv_grid.c **** 
 1292              		.loc 1 639 43 discriminator 3 view .LVU444
 1293 03b8 C3F57A73 		rsb	r3, r3, #1000
 1294              	.L50:
 639:Middlewares/lvgl/src/extra/layouts/grid/lv_grid.c **** 
 1295              		.loc 1 639 41 discriminator 6 view .LVU445
 1296 03bc 00FB03F3 		mul	r3, r0, r3
 639:Middlewares/lvgl/src/extra/layouts/grid/lv_grid.c **** 
 1297              		.loc 1 639 67 discriminator 6 view .LVU446
 1298 03c0 044A     		ldr	r2, .L63
 1299 03c2 82FB0312 		smull	r1, r2, r2, r3
 1300 03c6 4FEAE379 		asr	r9, r3, #31
 1301              	.LVL152:
ARM GAS  /tmp/ccRzkyyJ.s 			page 52


 639:Middlewares/lvgl/src/extra/layouts/grid/lv_grid.c **** 
 1302              		.loc 1 639 67 discriminator 6 view .LVU447
 1303 03ca C9EB6219 		rsb	r9, r9, r2, asr #5
 639:Middlewares/lvgl/src/extra/layouts/grid/lv_grid.c **** 
 1304              		.loc 1 639 36 discriminator 6 view .LVU448
 1305 03ce 0FFA89F9 		sxth	r9, r9
 1306              	.LVL153:
 639:Middlewares/lvgl/src/extra/layouts/grid/lv_grid.c **** 
 1307              		.loc 1 639 36 discriminator 6 view .LVU449
 1308 03d2 16E7     		b	.L48
 1309              	.L64:
 1310              		.align	2
 1311              	.L63:
 1312 03d4 1F85EB51 		.word	1374389535
 1313              		.cfi_endproc
 1314              	.LFE202:
 1316              		.section	.text.calc_free,"ax",%progbits
 1317              		.align	1
 1318              		.syntax unified
 1319              		.thumb
 1320              		.thumb_func
 1321              		.fpu fpv5-d16
 1323              	calc_free:
 1324              	.LVL154:
 1325              	.LFB199:
 393:Middlewares/lvgl/src/extra/layouts/grid/lv_grid.c ****     lv_mem_buf_release(calc->x);
 1326              		.loc 1 393 1 is_stmt 1 view -0
 1327              		.cfi_startproc
 1328              		@ args = 0, pretend = 0, frame = 0
 1329              		@ frame_needed = 0, uses_anonymous_args = 0
 393:Middlewares/lvgl/src/extra/layouts/grid/lv_grid.c ****     lv_mem_buf_release(calc->x);
 1330              		.loc 1 393 1 is_stmt 0 view .LVU451
 1331 0000 10B5     		push	{r4, lr}
 1332              	.LCFI5:
 1333              		.cfi_def_cfa_offset 8
 1334              		.cfi_offset 4, -8
 1335              		.cfi_offset 14, -4
 1336 0002 0446     		mov	r4, r0
 394:Middlewares/lvgl/src/extra/layouts/grid/lv_grid.c ****     lv_mem_buf_release(calc->y);
 1337              		.loc 1 394 5 is_stmt 1 view .LVU452
 1338 0004 0068     		ldr	r0, [r0]
 1339              	.LVL155:
 394:Middlewares/lvgl/src/extra/layouts/grid/lv_grid.c ****     lv_mem_buf_release(calc->y);
 1340              		.loc 1 394 5 is_stmt 0 view .LVU453
 1341 0006 FFF7FEFF 		bl	lv_mem_buf_release
 1342              	.LVL156:
 395:Middlewares/lvgl/src/extra/layouts/grid/lv_grid.c ****     lv_mem_buf_release(calc->w);
 1343              		.loc 1 395 5 is_stmt 1 view .LVU454
 1344 000a 6068     		ldr	r0, [r4, #4]
 1345 000c FFF7FEFF 		bl	lv_mem_buf_release
 1346              	.LVL157:
 396:Middlewares/lvgl/src/extra/layouts/grid/lv_grid.c ****     lv_mem_buf_release(calc->h);
 1347              		.loc 1 396 5 view .LVU455
 1348 0010 A068     		ldr	r0, [r4, #8]
 1349 0012 FFF7FEFF 		bl	lv_mem_buf_release
 1350              	.LVL158:
 397:Middlewares/lvgl/src/extra/layouts/grid/lv_grid.c **** }
ARM GAS  /tmp/ccRzkyyJ.s 			page 53


 1351              		.loc 1 397 5 view .LVU456
 1352 0016 E068     		ldr	r0, [r4, #12]
 1353 0018 FFF7FEFF 		bl	lv_mem_buf_release
 1354              	.LVL159:
 398:Middlewares/lvgl/src/extra/layouts/grid/lv_grid.c **** 
 1355              		.loc 1 398 1 is_stmt 0 view .LVU457
 1356 001c 10BD     		pop	{r4, pc}
 398:Middlewares/lvgl/src/extra/layouts/grid/lv_grid.c **** 
 1357              		.loc 1 398 1 view .LVU458
 1358              		.cfi_endproc
 1359              	.LFE199:
 1361              		.section	.text.calc_rows,"ax",%progbits
 1362              		.align	1
 1363              		.syntax unified
 1364              		.thumb
 1365              		.thumb_func
 1366              		.fpu fpv5-d16
 1368              	calc_rows:
 1369              	.LVL160:
 1370              	.LFB201:
 473:Middlewares/lvgl/src/extra/layouts/grid/lv_grid.c ****     uint32_t i;
 1371              		.loc 1 473 1 is_stmt 1 view -0
 1372              		.cfi_startproc
 1373              		@ args = 0, pretend = 0, frame = 0
 1374              		@ frame_needed = 0, uses_anonymous_args = 0
 473:Middlewares/lvgl/src/extra/layouts/grid/lv_grid.c ****     uint32_t i;
 1375              		.loc 1 473 1 is_stmt 0 view .LVU460
 1376 0000 2DE9F84F 		push	{r3, r4, r5, r6, r7, r8, r9, r10, fp, lr}
 1377              	.LCFI6:
 1378              		.cfi_def_cfa_offset 40
 1379              		.cfi_offset 3, -40
 1380              		.cfi_offset 4, -36
 1381              		.cfi_offset 5, -32
 1382              		.cfi_offset 6, -28
 1383              		.cfi_offset 7, -24
 1384              		.cfi_offset 8, -20
 1385              		.cfi_offset 9, -16
 1386              		.cfi_offset 10, -12
 1387              		.cfi_offset 11, -8
 1388              		.cfi_offset 14, -4
 1389 0004 8046     		mov	r8, r0
 1390 0006 0C46     		mov	r4, r1
 474:Middlewares/lvgl/src/extra/layouts/grid/lv_grid.c ****     const lv_coord_t * row_templ = get_row_dsc(cont);
 1391              		.loc 1 474 5 is_stmt 1 view .LVU461
 475:Middlewares/lvgl/src/extra/layouts/grid/lv_grid.c ****     c->row_num = count_tracks(row_templ);
 1392              		.loc 1 475 5 view .LVU462
 1393              	.LVL161:
 1394              	.LBB166:
 1395              	.LBI166:
  61:Middlewares/lvgl/src/extra/layouts/grid/lv_grid.c **** static inline uint8_t get_col_pos(lv_obj_t * obj) {return lv_obj_get_style_grid_cell_column_pos(obj
 1396              		.loc 1 61 34 view .LVU463
 1397              	.LBE166:
  61:Middlewares/lvgl/src/extra/layouts/grid/lv_grid.c **** static inline uint8_t get_col_pos(lv_obj_t * obj) {return lv_obj_get_style_grid_cell_column_pos(obj
 1398              		.loc 1 61 63 view .LVU464
 1399              	.LBB169:
 1400              	.LBB167:
 1401              	.LBI167:
ARM GAS  /tmp/ccRzkyyJ.s 			page 54


 121:Middlewares/lvgl/src/extra/layouts/grid/../grid/lv_grid.h **** {
 1402              		.loc 2 121 34 view .LVU465
 1403              	.LBB168:
 123:Middlewares/lvgl/src/extra/layouts/grid/../grid/lv_grid.h ****     return (const lv_coord_t *)v.ptr;
 1404              		.loc 2 123 5 view .LVU466
 123:Middlewares/lvgl/src/extra/layouts/grid/../grid/lv_grid.h ****     return (const lv_coord_t *)v.ptr;
 1405              		.loc 2 123 26 is_stmt 0 view .LVU467
 1406 0008 564B     		ldr	r3, .L93
 1407 000a 1A88     		ldrh	r2, [r3]
 1408 000c 0021     		movs	r1, #0
 1409              	.LVL162:
 123:Middlewares/lvgl/src/extra/layouts/grid/../grid/lv_grid.h ****     return (const lv_coord_t *)v.ptr;
 1410              		.loc 2 123 26 view .LVU468
 1411 000e FFF7FEFF 		bl	lv_obj_get_style_prop
 1412              	.LVL163:
 123:Middlewares/lvgl/src/extra/layouts/grid/../grid/lv_grid.h ****     return (const lv_coord_t *)v.ptr;
 1413              		.loc 2 123 26 view .LVU469
 1414 0012 0746     		mov	r7, r0
 124:Middlewares/lvgl/src/extra/layouts/grid/../grid/lv_grid.h **** }
 1415              		.loc 2 124 5 is_stmt 1 view .LVU470
 1416              	.LVL164:
 124:Middlewares/lvgl/src/extra/layouts/grid/../grid/lv_grid.h **** }
 1417              		.loc 2 124 5 is_stmt 0 view .LVU471
 1418              	.LBE168:
 1419              	.LBE167:
 1420              	.LBE169:
 476:Middlewares/lvgl/src/extra/layouts/grid/lv_grid.c ****     c->y = lv_mem_buf_get(sizeof(lv_coord_t) * c->row_num);
 1421              		.loc 1 476 5 is_stmt 1 view .LVU472
 476:Middlewares/lvgl/src/extra/layouts/grid/lv_grid.c ****     c->y = lv_mem_buf_get(sizeof(lv_coord_t) * c->row_num);
 1422              		.loc 1 476 18 is_stmt 0 view .LVU473
 1423 0014 FFF7FEFF 		bl	count_tracks
 1424              	.LVL165:
 476:Middlewares/lvgl/src/extra/layouts/grid/lv_grid.c ****     c->y = lv_mem_buf_get(sizeof(lv_coord_t) * c->row_num);
 1425              		.loc 1 476 16 view .LVU474
 1426 0018 6061     		str	r0, [r4, #20]
 477:Middlewares/lvgl/src/extra/layouts/grid/lv_grid.c ****     c->h = lv_mem_buf_get(sizeof(lv_coord_t) * c->row_num);
 1427              		.loc 1 477 5 is_stmt 1 view .LVU475
 477:Middlewares/lvgl/src/extra/layouts/grid/lv_grid.c ****     c->h = lv_mem_buf_get(sizeof(lv_coord_t) * c->row_num);
 1428              		.loc 1 477 12 is_stmt 0 view .LVU476
 1429 001a 4000     		lsls	r0, r0, #1
 1430 001c FFF7FEFF 		bl	lv_mem_buf_get
 1431              	.LVL166:
 477:Middlewares/lvgl/src/extra/layouts/grid/lv_grid.c ****     c->h = lv_mem_buf_get(sizeof(lv_coord_t) * c->row_num);
 1432              		.loc 1 477 10 view .LVU477
 1433 0020 6060     		str	r0, [r4, #4]
 478:Middlewares/lvgl/src/extra/layouts/grid/lv_grid.c ****     /*Set sizes for CONTENT cells*/
 1434              		.loc 1 478 5 is_stmt 1 view .LVU478
 478:Middlewares/lvgl/src/extra/layouts/grid/lv_grid.c ****     /*Set sizes for CONTENT cells*/
 1435              		.loc 1 478 49 is_stmt 0 view .LVU479
 1436 0022 6069     		ldr	r0, [r4, #20]
 478:Middlewares/lvgl/src/extra/layouts/grid/lv_grid.c ****     /*Set sizes for CONTENT cells*/
 1437              		.loc 1 478 12 view .LVU480
 1438 0024 4000     		lsls	r0, r0, #1
 1439 0026 FFF7FEFF 		bl	lv_mem_buf_get
 1440              	.LVL167:
 478:Middlewares/lvgl/src/extra/layouts/grid/lv_grid.c ****     /*Set sizes for CONTENT cells*/
 1441              		.loc 1 478 10 view .LVU481
ARM GAS  /tmp/ccRzkyyJ.s 			page 55


 1442 002a E060     		str	r0, [r4, #12]
 480:Middlewares/lvgl/src/extra/layouts/grid/lv_grid.c ****         lv_coord_t size = LV_COORD_MIN;
 1443              		.loc 1 480 5 is_stmt 1 view .LVU482
 1444              	.LVL168:
 480:Middlewares/lvgl/src/extra/layouts/grid/lv_grid.c ****         lv_coord_t size = LV_COORD_MIN;
 1445              		.loc 1 480 11 is_stmt 0 view .LVU483
 1446 002c 0026     		movs	r6, #0
 480:Middlewares/lvgl/src/extra/layouts/grid/lv_grid.c ****         lv_coord_t size = LV_COORD_MIN;
 1447              		.loc 1 480 5 view .LVU484
 1448 002e 32E0     		b	.L68
 1449              	.LVL169:
 1450              	.L71:
 1451              	.LBB170:
 1452              	.LBB171:
 485:Middlewares/lvgl/src/extra/layouts/grid/lv_grid.c ****                 lv_obj_t * item = lv_obj_get_child(cont, ci);
 1453              		.loc 1 485 58 is_stmt 1 discriminator 2 view .LVU485
 485:Middlewares/lvgl/src/extra/layouts/grid/lv_grid.c ****                 lv_obj_t * item = lv_obj_get_child(cont, ci);
 1454              		.loc 1 485 60 is_stmt 0 discriminator 2 view .LVU486
 1455 0030 0135     		adds	r5, r5, #1
 1456              	.LVL170:
 1457              	.L69:
 485:Middlewares/lvgl/src/extra/layouts/grid/lv_grid.c ****                 lv_obj_t * item = lv_obj_get_child(cont, ci);
 1458              		.loc 1 485 25 is_stmt 1 discriminator 1 view .LVU487
 485:Middlewares/lvgl/src/extra/layouts/grid/lv_grid.c ****                 lv_obj_t * item = lv_obj_get_child(cont, ci);
 1459              		.loc 1 485 30 is_stmt 0 discriminator 1 view .LVU488
 1460 0032 4046     		mov	r0, r8
 1461 0034 FFF7FEFF 		bl	lv_obj_get_child_cnt
 1462              	.LVL171:
 485:Middlewares/lvgl/src/extra/layouts/grid/lv_grid.c ****                 lv_obj_t * item = lv_obj_get_child(cont, ci);
 1463              		.loc 1 485 13 discriminator 1 view .LVU489
 1464 0038 A842     		cmp	r0, r5
 1465 003a 25D9     		bls	.L87
 1466              	.LBB172:
 486:Middlewares/lvgl/src/extra/layouts/grid/lv_grid.c ****                 if(lv_obj_has_flag_any(item, LV_OBJ_FLAG_IGNORE_LAYOUT | LV_OBJ_FLAG_HIDDEN | LV_OB
 1467              		.loc 1 486 17 is_stmt 1 view .LVU490
 486:Middlewares/lvgl/src/extra/layouts/grid/lv_grid.c ****                 if(lv_obj_has_flag_any(item, LV_OBJ_FLAG_IGNORE_LAYOUT | LV_OBJ_FLAG_HIDDEN | LV_OB
 1468              		.loc 1 486 35 is_stmt 0 view .LVU491
 1469 003c 2946     		mov	r1, r5
 1470 003e 4046     		mov	r0, r8
 1471 0040 FFF7FEFF 		bl	lv_obj_get_child
 1472              	.LVL172:
 1473 0044 8146     		mov	r9, r0
 1474              	.LVL173:
 487:Middlewares/lvgl/src/extra/layouts/grid/lv_grid.c ****                 uint32_t row_span = get_row_span(item);
 1475              		.loc 1 487 17 is_stmt 1 view .LVU492
 487:Middlewares/lvgl/src/extra/layouts/grid/lv_grid.c ****                 uint32_t row_span = get_row_span(item);
 1476              		.loc 1 487 20 is_stmt 0 view .LVU493
 1477 0046 4849     		ldr	r1, .L93+4
 1478 0048 FFF7FEFF 		bl	lv_obj_has_flag_any
 1479              	.LVL174:
 487:Middlewares/lvgl/src/extra/layouts/grid/lv_grid.c ****                 uint32_t row_span = get_row_span(item);
 1480              		.loc 1 487 19 view .LVU494
 1481 004c 0028     		cmp	r0, #0
 1482 004e EFD1     		bne	.L71
 488:Middlewares/lvgl/src/extra/layouts/grid/lv_grid.c ****                 if(row_span != 1) continue;
 1483              		.loc 1 488 17 is_stmt 1 view .LVU495
 1484              	.LVL175:
ARM GAS  /tmp/ccRzkyyJ.s 			page 56


 1485              	.LBB173:
 1486              	.LBI173:
  65:Middlewares/lvgl/src/extra/layouts/grid/lv_grid.c **** static inline uint8_t get_cell_col_align(lv_obj_t * obj) {return lv_obj_get_style_grid_cell_x_align
 1487              		.loc 1 65 23 view .LVU496
 1488              	.LBB174:
  65:Middlewares/lvgl/src/extra/layouts/grid/lv_grid.c **** static inline uint8_t get_cell_col_align(lv_obj_t * obj) {return lv_obj_get_style_grid_cell_x_align
 1489              		.loc 1 65 53 view .LVU497
 1490              	.LBB175:
 1491              	.LBI175:
 163:Middlewares/lvgl/src/extra/layouts/grid/../grid/lv_grid.h **** {
 1492              		.loc 2 163 26 view .LVU498
 1493              	.LBB176:
 165:Middlewares/lvgl/src/extra/layouts/grid/../grid/lv_grid.h ****     return (lv_coord_t)v.num;
 1494              		.loc 2 165 5 view .LVU499
 165:Middlewares/lvgl/src/extra/layouts/grid/../grid/lv_grid.h ****     return (lv_coord_t)v.num;
 1495              		.loc 2 165 26 is_stmt 0 view .LVU500
 1496 0050 464B     		ldr	r3, .L93+8
 1497 0052 1A88     		ldrh	r2, [r3]
 1498 0054 0021     		movs	r1, #0
 1499 0056 4846     		mov	r0, r9
 1500 0058 FFF7FEFF 		bl	lv_obj_get_style_prop
 1501              	.LVL176:
 166:Middlewares/lvgl/src/extra/layouts/grid/../grid/lv_grid.h **** }
 1502              		.loc 2 166 5 is_stmt 1 view .LVU501
 166:Middlewares/lvgl/src/extra/layouts/grid/../grid/lv_grid.h **** }
 1503              		.loc 2 166 5 is_stmt 0 view .LVU502
 1504              	.LBE176:
 1505              	.LBE175:
  65:Middlewares/lvgl/src/extra/layouts/grid/lv_grid.c **** static inline uint8_t get_cell_col_align(lv_obj_t * obj) {return lv_obj_get_style_grid_cell_x_align
 1506              		.loc 1 65 60 view .LVU503
 1507 005c C0B2     		uxtb	r0, r0
 1508              	.LVL177:
  65:Middlewares/lvgl/src/extra/layouts/grid/lv_grid.c **** static inline uint8_t get_cell_col_align(lv_obj_t * obj) {return lv_obj_get_style_grid_cell_x_align
 1509              		.loc 1 65 60 view .LVU504
 1510              	.LBE174:
 1511              	.LBE173:
 489:Middlewares/lvgl/src/extra/layouts/grid/lv_grid.c **** 
 1512              		.loc 1 489 17 is_stmt 1 view .LVU505
 489:Middlewares/lvgl/src/extra/layouts/grid/lv_grid.c **** 
 1513              		.loc 1 489 19 is_stmt 0 view .LVU506
 1514 005e 0128     		cmp	r0, #1
 1515 0060 E6D1     		bne	.L71
 491:Middlewares/lvgl/src/extra/layouts/grid/lv_grid.c ****                 if(row_pos != i) continue;
 1516              		.loc 1 491 17 is_stmt 1 view .LVU507
 1517              	.LVL178:
 1518              	.LBB177:
 1519              	.LBI177:
  63:Middlewares/lvgl/src/extra/layouts/grid/lv_grid.c **** static inline uint8_t get_col_span(lv_obj_t * obj) {return lv_obj_get_style_grid_cell_column_span(o
 1520              		.loc 1 63 23 view .LVU508
 1521              	.LBB178:
  63:Middlewares/lvgl/src/extra/layouts/grid/lv_grid.c **** static inline uint8_t get_col_span(lv_obj_t * obj) {return lv_obj_get_style_grid_cell_column_span(o
 1522              		.loc 1 63 52 view .LVU509
 1523              	.LBB179:
 1524              	.LBI179:
 157:Middlewares/lvgl/src/extra/layouts/grid/../grid/lv_grid.h **** {
 1525              		.loc 2 157 26 view .LVU510
 1526              	.LBB180:
ARM GAS  /tmp/ccRzkyyJ.s 			page 57


 159:Middlewares/lvgl/src/extra/layouts/grid/../grid/lv_grid.h ****     return (lv_coord_t)v.num;
 1527              		.loc 2 159 5 view .LVU511
 159:Middlewares/lvgl/src/extra/layouts/grid/../grid/lv_grid.h ****     return (lv_coord_t)v.num;
 1528              		.loc 2 159 26 is_stmt 0 view .LVU512
 1529 0062 434B     		ldr	r3, .L93+12
 1530 0064 1A88     		ldrh	r2, [r3]
 1531 0066 0021     		movs	r1, #0
 1532 0068 4846     		mov	r0, r9
 1533              	.LVL179:
 159:Middlewares/lvgl/src/extra/layouts/grid/../grid/lv_grid.h ****     return (lv_coord_t)v.num;
 1534              		.loc 2 159 26 view .LVU513
 1535 006a FFF7FEFF 		bl	lv_obj_get_style_prop
 1536              	.LVL180:
 160:Middlewares/lvgl/src/extra/layouts/grid/../grid/lv_grid.h **** }
 1537              		.loc 2 160 5 is_stmt 1 view .LVU514
 160:Middlewares/lvgl/src/extra/layouts/grid/../grid/lv_grid.h **** }
 1538              		.loc 2 160 5 is_stmt 0 view .LVU515
 1539              	.LBE180:
 1540              	.LBE179:
  63:Middlewares/lvgl/src/extra/layouts/grid/lv_grid.c **** static inline uint8_t get_col_span(lv_obj_t * obj) {return lv_obj_get_style_grid_cell_column_span(o
 1541              		.loc 1 63 59 view .LVU516
 1542 006e C0B2     		uxtb	r0, r0
 1543              	.LVL181:
  63:Middlewares/lvgl/src/extra/layouts/grid/lv_grid.c **** static inline uint8_t get_col_span(lv_obj_t * obj) {return lv_obj_get_style_grid_cell_column_span(o
 1544              		.loc 1 63 59 view .LVU517
 1545              	.LBE178:
 1546              	.LBE177:
 492:Middlewares/lvgl/src/extra/layouts/grid/lv_grid.c **** 
 1547              		.loc 1 492 17 is_stmt 1 view .LVU518
 492:Middlewares/lvgl/src/extra/layouts/grid/lv_grid.c **** 
 1548              		.loc 1 492 19 is_stmt 0 view .LVU519
 1549 0070 8642     		cmp	r6, r0
 1550 0072 DDD1     		bne	.L71
 494:Middlewares/lvgl/src/extra/layouts/grid/lv_grid.c ****             }
 1551              		.loc 1 494 17 is_stmt 1 view .LVU520
 494:Middlewares/lvgl/src/extra/layouts/grid/lv_grid.c ****             }
 1552              		.loc 1 494 24 is_stmt 0 view .LVU521
 1553 0074 4846     		mov	r0, r9
 1554              	.LVL182:
 494:Middlewares/lvgl/src/extra/layouts/grid/lv_grid.c ****             }
 1555              		.loc 1 494 24 view .LVU522
 1556 0076 FFF7FEFF 		bl	lv_obj_get_height
 1557              	.LVL183:
 494:Middlewares/lvgl/src/extra/layouts/grid/lv_grid.c ****             }
 1558              		.loc 1 494 22 view .LVU523
 1559 007a 5845     		cmp	r0, fp
 1560 007c D8DB     		blt	.L71
 494:Middlewares/lvgl/src/extra/layouts/grid/lv_grid.c ****             }
 1561              		.loc 1 494 24 discriminator 1 view .LVU524
 1562 007e 4846     		mov	r0, r9
 1563 0080 FFF7FEFF 		bl	lv_obj_get_height
 1564              	.LVL184:
 1565 0084 8346     		mov	fp, r0
 1566              	.LVL185:
 494:Middlewares/lvgl/src/extra/layouts/grid/lv_grid.c ****             }
 1567              		.loc 1 494 24 discriminator 1 view .LVU525
 1568 0086 D3E7     		b	.L71
ARM GAS  /tmp/ccRzkyyJ.s 			page 58


 1569              	.LVL186:
 1570              	.L87:
 494:Middlewares/lvgl/src/extra/layouts/grid/lv_grid.c ****             }
 1571              		.loc 1 494 24 discriminator 1 view .LVU526
 1572              	.LBE172:
 496:Middlewares/lvgl/src/extra/layouts/grid/lv_grid.c ****             else c->h[i] = 0;
 1573              		.loc 1 496 13 is_stmt 1 view .LVU527
 496:Middlewares/lvgl/src/extra/layouts/grid/lv_grid.c ****             else c->h[i] = 0;
 1574              		.loc 1 496 15 is_stmt 0 view .LVU528
 1575 0088 BBF1000F 		cmp	fp, #0
 1576 008c 12DB     		blt	.L73
 496:Middlewares/lvgl/src/extra/layouts/grid/lv_grid.c ****             else c->h[i] = 0;
 1577              		.loc 1 496 27 is_stmt 1 discriminator 1 view .LVU529
 496:Middlewares/lvgl/src/extra/layouts/grid/lv_grid.c ****             else c->h[i] = 0;
 1578              		.loc 1 496 28 is_stmt 0 discriminator 1 view .LVU530
 1579 008e E368     		ldr	r3, [r4, #12]
 496:Middlewares/lvgl/src/extra/layouts/grid/lv_grid.c ****             else c->h[i] = 0;
 1580              		.loc 1 496 35 discriminator 1 view .LVU531
 1581 0090 23F80AB0 		strh	fp, [r3, r10]	@ movhi
 1582              	.LVL187:
 1583              	.L70:
 496:Middlewares/lvgl/src/extra/layouts/grid/lv_grid.c ****             else c->h[i] = 0;
 1584              		.loc 1 496 35 discriminator 1 view .LVU532
 1585              	.LBE171:
 1586              	.LBE170:
 480:Middlewares/lvgl/src/extra/layouts/grid/lv_grid.c ****         lv_coord_t size = LV_COORD_MIN;
 1587              		.loc 1 480 32 is_stmt 1 discriminator 2 view .LVU533
 480:Middlewares/lvgl/src/extra/layouts/grid/lv_grid.c ****         lv_coord_t size = LV_COORD_MIN;
 1588              		.loc 1 480 33 is_stmt 0 discriminator 2 view .LVU534
 1589 0094 0136     		adds	r6, r6, #1
 1590              	.LVL188:
 1591              	.L68:
 480:Middlewares/lvgl/src/extra/layouts/grid/lv_grid.c ****         lv_coord_t size = LV_COORD_MIN;
 1592              		.loc 1 480 16 is_stmt 1 discriminator 1 view .LVU535
 480:Middlewares/lvgl/src/extra/layouts/grid/lv_grid.c ****         lv_coord_t size = LV_COORD_MIN;
 1593              		.loc 1 480 21 is_stmt 0 discriminator 1 view .LVU536
 1594 0096 6369     		ldr	r3, [r4, #20]
 480:Middlewares/lvgl/src/extra/layouts/grid/lv_grid.c ****         lv_coord_t size = LV_COORD_MIN;
 1595              		.loc 1 480 5 discriminator 1 view .LVU537
 1596 0098 B342     		cmp	r3, r6
 1597 009a 10D9     		bls	.L88
 1598              	.LBB183:
 481:Middlewares/lvgl/src/extra/layouts/grid/lv_grid.c ****         if(IS_CONTENT(row_templ[i])) {
 1599              		.loc 1 481 9 is_stmt 1 view .LVU538
 1600              	.LVL189:
 482:Middlewares/lvgl/src/extra/layouts/grid/lv_grid.c ****             /*Check the size of children of this cell*/
 1601              		.loc 1 482 9 view .LVU539
 482:Middlewares/lvgl/src/extra/layouts/grid/lv_grid.c ****             /*Check the size of children of this cell*/
 1602              		.loc 1 482 12 is_stmt 0 view .LVU540
 1603 009c 4FEA460A 		lsl	r10, r6, #1
 1604 00a0 37F91620 		ldrsh	r2, [r7, r6, lsl #1]
 482:Middlewares/lvgl/src/extra/layouts/grid/lv_grid.c ****             /*Check the size of children of this cell*/
 1605              		.loc 1 482 11 view .LVU541
 1606 00a4 45F69B73 		movw	r3, #24475
 1607 00a8 9A42     		cmp	r2, r3
 1608 00aa F3D1     		bne	.L70
 1609              	.LBB181:
ARM GAS  /tmp/ccRzkyyJ.s 			page 59


 485:Middlewares/lvgl/src/extra/layouts/grid/lv_grid.c ****                 lv_obj_t * item = lv_obj_get_child(cont, ci);
 1610              		.loc 1 485 20 view .LVU542
 1611 00ac 0025     		movs	r5, #0
 1612              	.LBE181:
 481:Middlewares/lvgl/src/extra/layouts/grid/lv_grid.c ****         if(IS_CONTENT(row_templ[i])) {
 1613              		.loc 1 481 20 view .LVU543
 1614 00ae DFF8C8B0 		ldr	fp, .L93+20
 1615 00b2 BEE7     		b	.L69
 1616              	.LVL190:
 1617              	.L73:
 1618              	.LBB182:
 497:Middlewares/lvgl/src/extra/layouts/grid/lv_grid.c ****         }
 1619              		.loc 1 497 18 is_stmt 1 view .LVU544
 497:Middlewares/lvgl/src/extra/layouts/grid/lv_grid.c ****         }
 1620              		.loc 1 497 19 is_stmt 0 view .LVU545
 1621 00b4 E368     		ldr	r3, [r4, #12]
 497:Middlewares/lvgl/src/extra/layouts/grid/lv_grid.c ****         }
 1622              		.loc 1 497 26 view .LVU546
 1623 00b6 0022     		movs	r2, #0
 1624 00b8 23F80A20 		strh	r2, [r3, r10]	@ movhi
 1625 00bc EAE7     		b	.L70
 1626              	.LVL191:
 1627              	.L88:
 497:Middlewares/lvgl/src/extra/layouts/grid/lv_grid.c ****         }
 1628              		.loc 1 497 26 view .LVU547
 1629              	.LBE182:
 1630              	.LBE183:
 502:Middlewares/lvgl/src/extra/layouts/grid/lv_grid.c **** 
 1631              		.loc 1 502 16 view .LVU548
 1632 00be 0026     		movs	r6, #0
 1633              	.LVL192:
 501:Middlewares/lvgl/src/extra/layouts/grid/lv_grid.c ****     lv_coord_t grid_h = 0;
 1634              		.loc 1 501 14 view .LVU549
 1635 00c0 3546     		mov	r5, r6
 504:Middlewares/lvgl/src/extra/layouts/grid/lv_grid.c ****         lv_coord_t x = row_templ[i];
 1636              		.loc 1 504 11 view .LVU550
 1637 00c2 3246     		mov	r2, r6
 1638 00c4 08E0     		b	.L75
 1639              	.LVL193:
 1640              	.L76:
 1641              	.LBB184:
 508:Middlewares/lvgl/src/extra/layouts/grid/lv_grid.c ****             grid_h += c->h[i];
 1642              		.loc 1 508 16 is_stmt 1 view .LVU551
 508:Middlewares/lvgl/src/extra/layouts/grid/lv_grid.c ****             grid_h += c->h[i];
 1643              		.loc 1 508 19 is_stmt 0 view .LVU552
 1644 00c6 45F69B71 		movw	r1, #24475
 1645 00ca 8B42     		cmp	r3, r1
 1646 00cc 12D0     		beq	.L89
 511:Middlewares/lvgl/src/extra/layouts/grid/lv_grid.c ****             grid_h += x;
 1647              		.loc 1 511 13 is_stmt 1 view .LVU553
 511:Middlewares/lvgl/src/extra/layouts/grid/lv_grid.c ****             grid_h += x;
 1648              		.loc 1 511 14 is_stmt 0 view .LVU554
 1649 00ce E168     		ldr	r1, [r4, #12]
 511:Middlewares/lvgl/src/extra/layouts/grid/lv_grid.c ****             grid_h += x;
 1650              		.loc 1 511 21 view .LVU555
 1651 00d0 0B52     		strh	r3, [r1, r0]	@ movhi
 512:Middlewares/lvgl/src/extra/layouts/grid/lv_grid.c ****         }
ARM GAS  /tmp/ccRzkyyJ.s 			page 60


 1652              		.loc 1 512 13 is_stmt 1 view .LVU556
 512:Middlewares/lvgl/src/extra/layouts/grid/lv_grid.c ****         }
 1653              		.loc 1 512 20 is_stmt 0 view .LVU557
 1654 00d2 3344     		add	r3, r3, r6
 1655              	.LVL194:
 512:Middlewares/lvgl/src/extra/layouts/grid/lv_grid.c ****         }
 1656              		.loc 1 512 20 view .LVU558
 1657 00d4 1EB2     		sxth	r6, r3
 1658              	.LVL195:
 1659              	.L77:
 512:Middlewares/lvgl/src/extra/layouts/grid/lv_grid.c ****         }
 1660              		.loc 1 512 20 view .LVU559
 1661              	.LBE184:
 504:Middlewares/lvgl/src/extra/layouts/grid/lv_grid.c ****         lv_coord_t x = row_templ[i];
 1662              		.loc 1 504 32 is_stmt 1 discriminator 2 view .LVU560
 504:Middlewares/lvgl/src/extra/layouts/grid/lv_grid.c ****         lv_coord_t x = row_templ[i];
 1663              		.loc 1 504 33 is_stmt 0 discriminator 2 view .LVU561
 1664 00d6 0132     		adds	r2, r2, #1
 1665              	.LVL196:
 1666              	.L75:
 504:Middlewares/lvgl/src/extra/layouts/grid/lv_grid.c ****         lv_coord_t x = row_templ[i];
 1667              		.loc 1 504 16 is_stmt 1 discriminator 1 view .LVU562
 504:Middlewares/lvgl/src/extra/layouts/grid/lv_grid.c ****         lv_coord_t x = row_templ[i];
 1668              		.loc 1 504 21 is_stmt 0 discriminator 1 view .LVU563
 1669 00d8 6369     		ldr	r3, [r4, #20]
 504:Middlewares/lvgl/src/extra/layouts/grid/lv_grid.c ****         lv_coord_t x = row_templ[i];
 1670              		.loc 1 504 5 discriminator 1 view .LVU564
 1671 00da 9342     		cmp	r3, r2
 1672 00dc 0FD9     		bls	.L90
 1673              	.LBB185:
 505:Middlewares/lvgl/src/extra/layouts/grid/lv_grid.c ****         if(IS_FR(x)) {
 1674              		.loc 1 505 9 is_stmt 1 view .LVU565
 505:Middlewares/lvgl/src/extra/layouts/grid/lv_grid.c ****         if(IS_FR(x)) {
 1675              		.loc 1 505 33 is_stmt 0 view .LVU566
 1676 00de 5000     		lsls	r0, r2, #1
 505:Middlewares/lvgl/src/extra/layouts/grid/lv_grid.c ****         if(IS_FR(x)) {
 1677              		.loc 1 505 20 view .LVU567
 1678 00e0 37F91230 		ldrsh	r3, [r7, r2, lsl #1]
 1679              	.LVL197:
 506:Middlewares/lvgl/src/extra/layouts/grid/lv_grid.c ****             row_fr_cnt += GET_FR(x);
 1680              		.loc 1 506 9 is_stmt 1 view .LVU568
 506:Middlewares/lvgl/src/extra/layouts/grid/lv_grid.c ****             row_fr_cnt += GET_FR(x);
 1681              		.loc 1 506 11 is_stmt 0 view .LVU569
 1682 00e4 45F69B71 		movw	r1, #24475
 1683 00e8 8B42     		cmp	r3, r1
 1684 00ea ECDD     		ble	.L76
 507:Middlewares/lvgl/src/extra/layouts/grid/lv_grid.c ****         } else if (IS_CONTENT(x)) {
 1685              		.loc 1 507 13 is_stmt 1 view .LVU570
 507:Middlewares/lvgl/src/extra/layouts/grid/lv_grid.c ****         } else if (IS_CONTENT(x)) {
 1686              		.loc 1 507 24 is_stmt 0 view .LVU571
 1687 00ec 2B44     		add	r3, r3, r5
 1688              	.LVL198:
 507:Middlewares/lvgl/src/extra/layouts/grid/lv_grid.c ****         } else if (IS_CONTENT(x)) {
 1689              		.loc 1 507 24 view .LVU572
 1690 00ee 214D     		ldr	r5, .L93+16
 1691              	.LVL199:
 507:Middlewares/lvgl/src/extra/layouts/grid/lv_grid.c ****         } else if (IS_CONTENT(x)) {
ARM GAS  /tmp/ccRzkyyJ.s 			page 61


 1692              		.loc 1 507 24 view .LVU573
 1693 00f0 1D44     		add	r5, r5, r3
 1694              	.LVL200:
 507:Middlewares/lvgl/src/extra/layouts/grid/lv_grid.c ****         } else if (IS_CONTENT(x)) {
 1695              		.loc 1 507 24 view .LVU574
 1696 00f2 F0E7     		b	.L77
 1697              	.LVL201:
 1698              	.L89:
 509:Middlewares/lvgl/src/extra/layouts/grid/lv_grid.c ****         } else {
 1699              		.loc 1 509 13 is_stmt 1 view .LVU575
 509:Middlewares/lvgl/src/extra/layouts/grid/lv_grid.c ****         } else {
 1700              		.loc 1 509 24 is_stmt 0 view .LVU576
 1701 00f4 E368     		ldr	r3, [r4, #12]
 1702              	.LVL202:
 509:Middlewares/lvgl/src/extra/layouts/grid/lv_grid.c ****         } else {
 1703              		.loc 1 509 27 view .LVU577
 1704 00f6 1B5A     		ldrh	r3, [r3, r0]
