ARM GAS  /tmp/ccCqaXuz.s 			page 1


   1              		.cpu cortex-m7
   2              		.eabi_attribute 28, 1
   3              		.eabi_attribute 20, 1
   4              		.eabi_attribute 21, 1
   5              		.eabi_attribute 23, 3
   6              		.eabi_attribute 24, 1
   7              		.eabi_attribute 25, 1
   8              		.eabi_attribute 26, 1
   9              		.eabi_attribute 30, 1
  10              		.eabi_attribute 34, 1
  11              		.eabi_attribute 18, 4
  12              		.file	"lv_img.c"
  13              		.text
  14              	.Ltext0:
  15              		.cfi_sections	.debug_frame
  16              		.section	.text.draw_img,"ax",%progbits
  17              		.align	1
  18              		.arch armv7e-m
  19              		.syntax unified
  20              		.thumb
  21              		.thumb_func
  22              		.fpu fpv5-d16
  24              	draw_img:
  25              	.LVL0:
  26              	.LFB165:
  27              		.file 1 "Middlewares/lvgl/src/widgets/lv_img.c"
   1:Middlewares/lvgl/src/widgets/lv_img.c **** /**
   2:Middlewares/lvgl/src/widgets/lv_img.c ****  * @file lv_img.c
   3:Middlewares/lvgl/src/widgets/lv_img.c ****  *
   4:Middlewares/lvgl/src/widgets/lv_img.c ****  */
   5:Middlewares/lvgl/src/widgets/lv_img.c **** 
   6:Middlewares/lvgl/src/widgets/lv_img.c **** /*********************
   7:Middlewares/lvgl/src/widgets/lv_img.c ****  *      INCLUDES
   8:Middlewares/lvgl/src/widgets/lv_img.c ****  *********************/
   9:Middlewares/lvgl/src/widgets/lv_img.c **** #include "lv_img.h"
  10:Middlewares/lvgl/src/widgets/lv_img.c **** #if LV_USE_IMG != 0
  11:Middlewares/lvgl/src/widgets/lv_img.c **** 
  12:Middlewares/lvgl/src/widgets/lv_img.c **** #include "../misc/lv_assert.h"
  13:Middlewares/lvgl/src/widgets/lv_img.c **** #include "../draw/lv_img_decoder.h"
  14:Middlewares/lvgl/src/widgets/lv_img.c **** #include "../misc/lv_fs.h"
  15:Middlewares/lvgl/src/widgets/lv_img.c **** #include "../misc/lv_txt.h"
  16:Middlewares/lvgl/src/widgets/lv_img.c **** #include "../misc/lv_math.h"
  17:Middlewares/lvgl/src/widgets/lv_img.c **** #include "../misc/lv_log.h"
  18:Middlewares/lvgl/src/widgets/lv_img.c **** 
  19:Middlewares/lvgl/src/widgets/lv_img.c **** /*********************
  20:Middlewares/lvgl/src/widgets/lv_img.c ****  *      DEFINES
  21:Middlewares/lvgl/src/widgets/lv_img.c ****  *********************/
  22:Middlewares/lvgl/src/widgets/lv_img.c **** #define MY_CLASS &lv_img_class
  23:Middlewares/lvgl/src/widgets/lv_img.c **** 
  24:Middlewares/lvgl/src/widgets/lv_img.c **** /**********************
  25:Middlewares/lvgl/src/widgets/lv_img.c ****  *      TYPEDEFS
  26:Middlewares/lvgl/src/widgets/lv_img.c ****  **********************/
  27:Middlewares/lvgl/src/widgets/lv_img.c **** 
  28:Middlewares/lvgl/src/widgets/lv_img.c **** /**********************
  29:Middlewares/lvgl/src/widgets/lv_img.c ****  *  STATIC PROTOTYPES
  30:Middlewares/lvgl/src/widgets/lv_img.c ****  **********************/
  31:Middlewares/lvgl/src/widgets/lv_img.c **** static void lv_img_constructor(const lv_obj_class_t * class_p, lv_obj_t * obj);
ARM GAS  /tmp/ccCqaXuz.s 			page 2


  32:Middlewares/lvgl/src/widgets/lv_img.c **** static void lv_img_destructor(const lv_obj_class_t * class_p, lv_obj_t * obj);
  33:Middlewares/lvgl/src/widgets/lv_img.c **** static void lv_img_event(const lv_obj_class_t * class_p, lv_event_t * e);
  34:Middlewares/lvgl/src/widgets/lv_img.c **** static void draw_img(lv_event_t * e);
  35:Middlewares/lvgl/src/widgets/lv_img.c **** 
  36:Middlewares/lvgl/src/widgets/lv_img.c **** /**********************
  37:Middlewares/lvgl/src/widgets/lv_img.c ****  *  STATIC VARIABLES
  38:Middlewares/lvgl/src/widgets/lv_img.c ****  **********************/
  39:Middlewares/lvgl/src/widgets/lv_img.c **** const lv_obj_class_t lv_img_class = {
  40:Middlewares/lvgl/src/widgets/lv_img.c ****          .constructor_cb = lv_img_constructor,
  41:Middlewares/lvgl/src/widgets/lv_img.c ****          .destructor_cb = lv_img_destructor,
  42:Middlewares/lvgl/src/widgets/lv_img.c ****          .event_cb = lv_img_event,
  43:Middlewares/lvgl/src/widgets/lv_img.c ****          .width_def = LV_SIZE_CONTENT,
  44:Middlewares/lvgl/src/widgets/lv_img.c ****          .height_def = LV_SIZE_CONTENT,
  45:Middlewares/lvgl/src/widgets/lv_img.c ****          .instance_size = sizeof(lv_img_t),
  46:Middlewares/lvgl/src/widgets/lv_img.c ****          .base_class = &lv_obj_class
  47:Middlewares/lvgl/src/widgets/lv_img.c ****      };
  48:Middlewares/lvgl/src/widgets/lv_img.c **** 
  49:Middlewares/lvgl/src/widgets/lv_img.c **** /**********************
  50:Middlewares/lvgl/src/widgets/lv_img.c ****  *      MACROS
  51:Middlewares/lvgl/src/widgets/lv_img.c ****  **********************/
  52:Middlewares/lvgl/src/widgets/lv_img.c **** 
  53:Middlewares/lvgl/src/widgets/lv_img.c **** /**********************
  54:Middlewares/lvgl/src/widgets/lv_img.c ****  *   GLOBAL FUNCTIONS
  55:Middlewares/lvgl/src/widgets/lv_img.c ****  **********************/
  56:Middlewares/lvgl/src/widgets/lv_img.c **** 
  57:Middlewares/lvgl/src/widgets/lv_img.c **** lv_obj_t * lv_img_create(lv_obj_t * parent)
  58:Middlewares/lvgl/src/widgets/lv_img.c **** {
  59:Middlewares/lvgl/src/widgets/lv_img.c ****     LV_LOG_INFO("begin")
  60:Middlewares/lvgl/src/widgets/lv_img.c ****     lv_obj_t * obj = lv_obj_class_create_obj(MY_CLASS, parent);
  61:Middlewares/lvgl/src/widgets/lv_img.c ****     lv_obj_class_init_obj(obj);
  62:Middlewares/lvgl/src/widgets/lv_img.c ****     return obj;
  63:Middlewares/lvgl/src/widgets/lv_img.c **** }
  64:Middlewares/lvgl/src/widgets/lv_img.c **** 
  65:Middlewares/lvgl/src/widgets/lv_img.c **** /*=====================
  66:Middlewares/lvgl/src/widgets/lv_img.c ****  * Setter functions
  67:Middlewares/lvgl/src/widgets/lv_img.c ****  *====================*/
  68:Middlewares/lvgl/src/widgets/lv_img.c **** 
  69:Middlewares/lvgl/src/widgets/lv_img.c **** void lv_img_set_src(lv_obj_t * obj, const void * src)
  70:Middlewares/lvgl/src/widgets/lv_img.c **** {
  71:Middlewares/lvgl/src/widgets/lv_img.c ****     LV_ASSERT_OBJ(obj, MY_CLASS);
  72:Middlewares/lvgl/src/widgets/lv_img.c **** 
  73:Middlewares/lvgl/src/widgets/lv_img.c ****     lv_obj_invalidate(obj);
  74:Middlewares/lvgl/src/widgets/lv_img.c **** 
  75:Middlewares/lvgl/src/widgets/lv_img.c ****     lv_img_src_t src_type = lv_img_src_get_type(src);
  76:Middlewares/lvgl/src/widgets/lv_img.c ****     lv_img_t * img = (lv_img_t *)obj;
  77:Middlewares/lvgl/src/widgets/lv_img.c **** 
  78:Middlewares/lvgl/src/widgets/lv_img.c **** #if LV_USE_LOG && LV_LOG_LEVEL >= LV_LOG_LEVEL_INFO
  79:Middlewares/lvgl/src/widgets/lv_img.c ****     switch(src_type) {
  80:Middlewares/lvgl/src/widgets/lv_img.c ****         case LV_IMG_SRC_FILE:
  81:Middlewares/lvgl/src/widgets/lv_img.c ****             LV_LOG_TRACE("lv_img_set_src: `LV_IMG_SRC_FILE` type found");
  82:Middlewares/lvgl/src/widgets/lv_img.c ****             break;
  83:Middlewares/lvgl/src/widgets/lv_img.c ****         case LV_IMG_SRC_VARIABLE:
  84:Middlewares/lvgl/src/widgets/lv_img.c ****             LV_LOG_TRACE("lv_img_set_src: `LV_IMG_SRC_VARIABLE` type found");
  85:Middlewares/lvgl/src/widgets/lv_img.c ****             break;
  86:Middlewares/lvgl/src/widgets/lv_img.c ****         case LV_IMG_SRC_SYMBOL:
  87:Middlewares/lvgl/src/widgets/lv_img.c ****             LV_LOG_TRACE("lv_img_set_src: `LV_IMG_SRC_SYMBOL` type found");
  88:Middlewares/lvgl/src/widgets/lv_img.c ****             break;
ARM GAS  /tmp/ccCqaXuz.s 			page 3


  89:Middlewares/lvgl/src/widgets/lv_img.c ****         default:
  90:Middlewares/lvgl/src/widgets/lv_img.c ****             LV_LOG_WARN("lv_img_set_src: unknown type");
  91:Middlewares/lvgl/src/widgets/lv_img.c ****     }
  92:Middlewares/lvgl/src/widgets/lv_img.c **** #endif
  93:Middlewares/lvgl/src/widgets/lv_img.c **** 
  94:Middlewares/lvgl/src/widgets/lv_img.c ****     /*If the new source type is unknown free the memories of the old source*/
  95:Middlewares/lvgl/src/widgets/lv_img.c ****     if(src_type == LV_IMG_SRC_UNKNOWN) {
  96:Middlewares/lvgl/src/widgets/lv_img.c ****         LV_LOG_WARN("lv_img_set_src: unknown image type");
  97:Middlewares/lvgl/src/widgets/lv_img.c ****         if(img->src_type == LV_IMG_SRC_SYMBOL || img->src_type == LV_IMG_SRC_FILE) {
  98:Middlewares/lvgl/src/widgets/lv_img.c ****             lv_mem_free((void*)img->src);
  99:Middlewares/lvgl/src/widgets/lv_img.c ****         }
 100:Middlewares/lvgl/src/widgets/lv_img.c ****         img->src      = NULL;
 101:Middlewares/lvgl/src/widgets/lv_img.c ****         img->src_type = LV_IMG_SRC_UNKNOWN;
 102:Middlewares/lvgl/src/widgets/lv_img.c ****         return;
 103:Middlewares/lvgl/src/widgets/lv_img.c ****     }
 104:Middlewares/lvgl/src/widgets/lv_img.c **** 
 105:Middlewares/lvgl/src/widgets/lv_img.c ****     lv_img_header_t header;
 106:Middlewares/lvgl/src/widgets/lv_img.c ****     lv_img_decoder_get_info(src, &header);
 107:Middlewares/lvgl/src/widgets/lv_img.c **** 
 108:Middlewares/lvgl/src/widgets/lv_img.c ****     /*Save the source*/
 109:Middlewares/lvgl/src/widgets/lv_img.c ****     if(src_type == LV_IMG_SRC_VARIABLE) {
 110:Middlewares/lvgl/src/widgets/lv_img.c ****         /*If memory was allocated because of the previous `src_type` then free it*/
 111:Middlewares/lvgl/src/widgets/lv_img.c ****         if(img->src_type == LV_IMG_SRC_FILE || img->src_type == LV_IMG_SRC_SYMBOL) {
 112:Middlewares/lvgl/src/widgets/lv_img.c ****             lv_mem_free((void*)img->src);
 113:Middlewares/lvgl/src/widgets/lv_img.c ****         }
 114:Middlewares/lvgl/src/widgets/lv_img.c ****         img->src = src;
 115:Middlewares/lvgl/src/widgets/lv_img.c ****     }
 116:Middlewares/lvgl/src/widgets/lv_img.c ****     else if(src_type == LV_IMG_SRC_FILE || src_type == LV_IMG_SRC_SYMBOL) {
 117:Middlewares/lvgl/src/widgets/lv_img.c ****         /*If the new and the old src are the same then it was only a refresh.*/
 118:Middlewares/lvgl/src/widgets/lv_img.c ****         if(img->src != src) {
 119:Middlewares/lvgl/src/widgets/lv_img.c ****             const void * old_src = NULL;
 120:Middlewares/lvgl/src/widgets/lv_img.c ****             /*If memory was allocated because of the previous `src_type` then save its pointer and 
 121:Middlewares/lvgl/src/widgets/lv_img.c ****              *It's important to allocate first to be sure the new data will be on a new address.
 122:Middlewares/lvgl/src/widgets/lv_img.c ****              *Else `img_cache` wouldn't see the change in source.*/
 123:Middlewares/lvgl/src/widgets/lv_img.c ****             if(img->src_type == LV_IMG_SRC_FILE || img->src_type == LV_IMG_SRC_SYMBOL) {
 124:Middlewares/lvgl/src/widgets/lv_img.c ****                 old_src = img->src;
 125:Middlewares/lvgl/src/widgets/lv_img.c ****             }
 126:Middlewares/lvgl/src/widgets/lv_img.c ****             char * new_str = lv_mem_alloc(strlen(src) + 1);
 127:Middlewares/lvgl/src/widgets/lv_img.c ****             LV_ASSERT_MALLOC(new_str);
 128:Middlewares/lvgl/src/widgets/lv_img.c ****             if(new_str == NULL) return;
 129:Middlewares/lvgl/src/widgets/lv_img.c ****             strcpy(new_str, src);
 130:Middlewares/lvgl/src/widgets/lv_img.c ****             img->src = new_str;
 131:Middlewares/lvgl/src/widgets/lv_img.c **** 
 132:Middlewares/lvgl/src/widgets/lv_img.c ****             if(old_src) lv_mem_free((void*)old_src);
 133:Middlewares/lvgl/src/widgets/lv_img.c ****         }
 134:Middlewares/lvgl/src/widgets/lv_img.c ****     }
 135:Middlewares/lvgl/src/widgets/lv_img.c **** 
 136:Middlewares/lvgl/src/widgets/lv_img.c ****     if(src_type == LV_IMG_SRC_SYMBOL) {
 137:Middlewares/lvgl/src/widgets/lv_img.c ****         /*`lv_img_dsc_get_info` couldn't set the with and height of a font so set it here*/
 138:Middlewares/lvgl/src/widgets/lv_img.c ****         const lv_font_t * font = lv_obj_get_style_text_font(obj, LV_PART_MAIN);
 139:Middlewares/lvgl/src/widgets/lv_img.c ****         lv_coord_t letter_space = lv_obj_get_style_text_letter_space(obj, LV_PART_MAIN);
 140:Middlewares/lvgl/src/widgets/lv_img.c ****         lv_coord_t line_space = lv_obj_get_style_text_line_space(obj, LV_PART_MAIN);
 141:Middlewares/lvgl/src/widgets/lv_img.c ****         lv_point_t size;
 142:Middlewares/lvgl/src/widgets/lv_img.c ****         lv_txt_get_size(&size, src, font, letter_space, line_space, LV_COORD_MAX, LV_TEXT_FLAG_NONE
 143:Middlewares/lvgl/src/widgets/lv_img.c ****         header.w = size.x;
 144:Middlewares/lvgl/src/widgets/lv_img.c ****         header.h = size.y;
 145:Middlewares/lvgl/src/widgets/lv_img.c ****     }
ARM GAS  /tmp/ccCqaXuz.s 			page 4


 146:Middlewares/lvgl/src/widgets/lv_img.c **** 
 147:Middlewares/lvgl/src/widgets/lv_img.c ****     img->src_type = src_type;
 148:Middlewares/lvgl/src/widgets/lv_img.c ****     img->w        = header.w;
 149:Middlewares/lvgl/src/widgets/lv_img.c ****     img->h        = header.h;
 150:Middlewares/lvgl/src/widgets/lv_img.c ****     img->cf       = header.cf;
 151:Middlewares/lvgl/src/widgets/lv_img.c ****     img->pivot.x = header.w / 2;
 152:Middlewares/lvgl/src/widgets/lv_img.c ****     img->pivot.y = header.h / 2;
 153:Middlewares/lvgl/src/widgets/lv_img.c **** 
 154:Middlewares/lvgl/src/widgets/lv_img.c ****     lv_obj_refresh_self_size(obj);
 155:Middlewares/lvgl/src/widgets/lv_img.c **** 
 156:Middlewares/lvgl/src/widgets/lv_img.c ****     /*Provide enough room for the rotated corners*/
 157:Middlewares/lvgl/src/widgets/lv_img.c ****     if(img->angle || img->zoom != LV_IMG_ZOOM_NONE) lv_obj_refresh_ext_draw_size(obj);
 158:Middlewares/lvgl/src/widgets/lv_img.c **** 
 159:Middlewares/lvgl/src/widgets/lv_img.c ****     lv_obj_invalidate(obj);
 160:Middlewares/lvgl/src/widgets/lv_img.c **** }
 161:Middlewares/lvgl/src/widgets/lv_img.c **** 
 162:Middlewares/lvgl/src/widgets/lv_img.c **** void lv_img_set_offset_x(lv_obj_t * obj, lv_coord_t x)
 163:Middlewares/lvgl/src/widgets/lv_img.c **** {
 164:Middlewares/lvgl/src/widgets/lv_img.c ****     LV_ASSERT_OBJ(obj, MY_CLASS);
 165:Middlewares/lvgl/src/widgets/lv_img.c **** 
 166:Middlewares/lvgl/src/widgets/lv_img.c ****    lv_img_t * img = (lv_img_t *)obj;
 167:Middlewares/lvgl/src/widgets/lv_img.c **** 
 168:Middlewares/lvgl/src/widgets/lv_img.c ****     x = x % img->w;
 169:Middlewares/lvgl/src/widgets/lv_img.c **** 
 170:Middlewares/lvgl/src/widgets/lv_img.c ****     img->offset.x = x;
 171:Middlewares/lvgl/src/widgets/lv_img.c ****     lv_obj_invalidate(obj);
 172:Middlewares/lvgl/src/widgets/lv_img.c **** }
 173:Middlewares/lvgl/src/widgets/lv_img.c **** 
 174:Middlewares/lvgl/src/widgets/lv_img.c **** void lv_img_set_offset_y(lv_obj_t * obj, lv_coord_t y)
 175:Middlewares/lvgl/src/widgets/lv_img.c **** {
 176:Middlewares/lvgl/src/widgets/lv_img.c ****     LV_ASSERT_OBJ(obj, MY_CLASS);
 177:Middlewares/lvgl/src/widgets/lv_img.c **** 
 178:Middlewares/lvgl/src/widgets/lv_img.c ****    lv_img_t * img = (lv_img_t *)obj;
 179:Middlewares/lvgl/src/widgets/lv_img.c **** 
 180:Middlewares/lvgl/src/widgets/lv_img.c ****     y = y % img->h;
 181:Middlewares/lvgl/src/widgets/lv_img.c **** 
 182:Middlewares/lvgl/src/widgets/lv_img.c ****     img->offset.y = y;
 183:Middlewares/lvgl/src/widgets/lv_img.c ****     lv_obj_invalidate(obj);
 184:Middlewares/lvgl/src/widgets/lv_img.c **** }
 185:Middlewares/lvgl/src/widgets/lv_img.c **** 
 186:Middlewares/lvgl/src/widgets/lv_img.c **** void lv_img_set_angle(lv_obj_t * obj, int16_t angle)
 187:Middlewares/lvgl/src/widgets/lv_img.c **** {
 188:Middlewares/lvgl/src/widgets/lv_img.c ****     if(angle < 0 || angle >= 3600) angle = angle % 3600;
 189:Middlewares/lvgl/src/widgets/lv_img.c **** 
 190:Middlewares/lvgl/src/widgets/lv_img.c ****    lv_img_t * img = (lv_img_t *)obj;
 191:Middlewares/lvgl/src/widgets/lv_img.c ****     if(angle == img->angle) return;
 192:Middlewares/lvgl/src/widgets/lv_img.c **** 
 193:Middlewares/lvgl/src/widgets/lv_img.c ****     lv_coord_t transf_zoom = lv_obj_get_style_transform_zoom(obj, LV_PART_MAIN);
 194:Middlewares/lvgl/src/widgets/lv_img.c ****     transf_zoom = (transf_zoom * img->zoom) >> 8;
 195:Middlewares/lvgl/src/widgets/lv_img.c **** 
 196:Middlewares/lvgl/src/widgets/lv_img.c ****     lv_coord_t transf_angle = lv_obj_get_style_transform_angle(obj, LV_PART_MAIN);
 197:Middlewares/lvgl/src/widgets/lv_img.c **** 
 198:Middlewares/lvgl/src/widgets/lv_img.c ****     lv_coord_t w = lv_obj_get_width(obj);
 199:Middlewares/lvgl/src/widgets/lv_img.c ****     lv_coord_t h = lv_obj_get_height(obj);
 200:Middlewares/lvgl/src/widgets/lv_img.c ****     lv_area_t a;
 201:Middlewares/lvgl/src/widgets/lv_img.c ****     _lv_img_buf_get_transformed_area(&a, w, h, transf_angle + img->angle, transf_zoom, &img->pivot)
 202:Middlewares/lvgl/src/widgets/lv_img.c ****     a.x1 += obj->coords.x1;
ARM GAS  /tmp/ccCqaXuz.s 			page 5


 203:Middlewares/lvgl/src/widgets/lv_img.c ****     a.y1 += obj->coords.y1;
 204:Middlewares/lvgl/src/widgets/lv_img.c ****     a.x2 += obj->coords.x1;
 205:Middlewares/lvgl/src/widgets/lv_img.c ****     a.y2 += obj->coords.y1;
 206:Middlewares/lvgl/src/widgets/lv_img.c ****     lv_obj_invalidate_area(obj, &a);
 207:Middlewares/lvgl/src/widgets/lv_img.c **** 
 208:Middlewares/lvgl/src/widgets/lv_img.c ****     img->angle = angle;
 209:Middlewares/lvgl/src/widgets/lv_img.c ****     lv_obj_refresh_ext_draw_size(obj);
 210:Middlewares/lvgl/src/widgets/lv_img.c **** 
 211:Middlewares/lvgl/src/widgets/lv_img.c ****     _lv_img_buf_get_transformed_area(&a, w, h, transf_angle + img->angle, transf_zoom, &img->pivot)
 212:Middlewares/lvgl/src/widgets/lv_img.c ****     a.x1 += obj->coords.x1;
 213:Middlewares/lvgl/src/widgets/lv_img.c ****     a.y1 += obj->coords.y1;
 214:Middlewares/lvgl/src/widgets/lv_img.c ****     a.x2 += obj->coords.x1;
 215:Middlewares/lvgl/src/widgets/lv_img.c ****     a.y2 += obj->coords.y1;
 216:Middlewares/lvgl/src/widgets/lv_img.c ****     lv_obj_invalidate_area(obj, &a);
 217:Middlewares/lvgl/src/widgets/lv_img.c **** }
 218:Middlewares/lvgl/src/widgets/lv_img.c **** 
 219:Middlewares/lvgl/src/widgets/lv_img.c **** void lv_img_set_pivot(lv_obj_t * obj, lv_coord_t x, lv_coord_t y)
 220:Middlewares/lvgl/src/widgets/lv_img.c **** {
 221:Middlewares/lvgl/src/widgets/lv_img.c ****     lv_img_t * img = (lv_img_t *)obj;
 222:Middlewares/lvgl/src/widgets/lv_img.c ****     if(img->pivot.x == x && img->pivot.y == y) return;
 223:Middlewares/lvgl/src/widgets/lv_img.c **** 
 224:Middlewares/lvgl/src/widgets/lv_img.c ****     lv_coord_t transf_zoom = lv_obj_get_style_transform_zoom(obj, LV_PART_MAIN);
 225:Middlewares/lvgl/src/widgets/lv_img.c ****     transf_zoom = (transf_zoom * img->zoom) >> 8;
 226:Middlewares/lvgl/src/widgets/lv_img.c **** 
 227:Middlewares/lvgl/src/widgets/lv_img.c ****     lv_coord_t transf_angle = lv_obj_get_style_transform_angle(obj, LV_PART_MAIN);
 228:Middlewares/lvgl/src/widgets/lv_img.c ****     transf_angle += img->angle;
 229:Middlewares/lvgl/src/widgets/lv_img.c **** 
 230:Middlewares/lvgl/src/widgets/lv_img.c ****     lv_coord_t w = lv_obj_get_width(obj);
 231:Middlewares/lvgl/src/widgets/lv_img.c ****     lv_coord_t h = lv_obj_get_height(obj);
 232:Middlewares/lvgl/src/widgets/lv_img.c ****     lv_area_t a;
 233:Middlewares/lvgl/src/widgets/lv_img.c ****     _lv_img_buf_get_transformed_area(&a, w, h, transf_angle, transf_zoom, &img->pivot);
 234:Middlewares/lvgl/src/widgets/lv_img.c ****     a.x1 += obj->coords.x1;
 235:Middlewares/lvgl/src/widgets/lv_img.c ****     a.y1 += obj->coords.y1;
 236:Middlewares/lvgl/src/widgets/lv_img.c ****     a.x2 += obj->coords.x1;
 237:Middlewares/lvgl/src/widgets/lv_img.c ****     a.y2 += obj->coords.y1;
 238:Middlewares/lvgl/src/widgets/lv_img.c ****     lv_obj_invalidate_area(obj, &a);
 239:Middlewares/lvgl/src/widgets/lv_img.c **** 
 240:Middlewares/lvgl/src/widgets/lv_img.c ****     img->pivot.x = x;
 241:Middlewares/lvgl/src/widgets/lv_img.c ****     img->pivot.y = y;
 242:Middlewares/lvgl/src/widgets/lv_img.c ****     lv_obj_refresh_ext_draw_size(obj);
 243:Middlewares/lvgl/src/widgets/lv_img.c **** 
 244:Middlewares/lvgl/src/widgets/lv_img.c ****     _lv_img_buf_get_transformed_area(&a, w, h, transf_angle, transf_zoom, &img->pivot);
 245:Middlewares/lvgl/src/widgets/lv_img.c ****     a.x1 += obj->coords.x1;
 246:Middlewares/lvgl/src/widgets/lv_img.c ****     a.y1 += obj->coords.y1;
 247:Middlewares/lvgl/src/widgets/lv_img.c ****     a.x2 += obj->coords.x1;
 248:Middlewares/lvgl/src/widgets/lv_img.c ****     a.y2 += obj->coords.y1;
 249:Middlewares/lvgl/src/widgets/lv_img.c ****     lv_obj_invalidate_area(obj, &a);
 250:Middlewares/lvgl/src/widgets/lv_img.c **** }
 251:Middlewares/lvgl/src/widgets/lv_img.c **** 
 252:Middlewares/lvgl/src/widgets/lv_img.c **** void lv_img_set_zoom(lv_obj_t * obj, uint16_t zoom)
 253:Middlewares/lvgl/src/widgets/lv_img.c **** {
 254:Middlewares/lvgl/src/widgets/lv_img.c ****    lv_img_t * img = (lv_img_t *)obj;
 255:Middlewares/lvgl/src/widgets/lv_img.c ****     if(zoom == img->zoom) return;
 256:Middlewares/lvgl/src/widgets/lv_img.c **** 
 257:Middlewares/lvgl/src/widgets/lv_img.c ****     if(zoom == 0) zoom = 1;
 258:Middlewares/lvgl/src/widgets/lv_img.c **** 
 259:Middlewares/lvgl/src/widgets/lv_img.c ****     lv_coord_t transf_zoom = lv_obj_get_style_transform_zoom(obj, LV_PART_MAIN);
ARM GAS  /tmp/ccCqaXuz.s 			page 6


 260:Middlewares/lvgl/src/widgets/lv_img.c **** 
 261:Middlewares/lvgl/src/widgets/lv_img.c ****     lv_coord_t transf_angle = lv_obj_get_style_transform_angle(obj, LV_PART_MAIN);
 262:Middlewares/lvgl/src/widgets/lv_img.c ****     transf_angle += img->angle;
 263:Middlewares/lvgl/src/widgets/lv_img.c **** 
 264:Middlewares/lvgl/src/widgets/lv_img.c ****     lv_coord_t w = lv_obj_get_width(obj);
 265:Middlewares/lvgl/src/widgets/lv_img.c ****     lv_coord_t h = lv_obj_get_height(obj);
 266:Middlewares/lvgl/src/widgets/lv_img.c ****     lv_area_t a;
 267:Middlewares/lvgl/src/widgets/lv_img.c ****     _lv_img_buf_get_transformed_area(&a, w, h, transf_angle, (transf_zoom * img->zoom) >> 8, &img->
 268:Middlewares/lvgl/src/widgets/lv_img.c ****     a.x1 += obj->coords.x1 - 1;
 269:Middlewares/lvgl/src/widgets/lv_img.c ****     a.y1 += obj->coords.y1 - 1;
 270:Middlewares/lvgl/src/widgets/lv_img.c ****     a.x2 += obj->coords.x1 + 1;
 271:Middlewares/lvgl/src/widgets/lv_img.c ****     a.y2 += obj->coords.y1 + 1;
 272:Middlewares/lvgl/src/widgets/lv_img.c ****     lv_obj_invalidate_area(obj, &a);
 273:Middlewares/lvgl/src/widgets/lv_img.c **** 
 274:Middlewares/lvgl/src/widgets/lv_img.c ****     img->zoom = zoom;
 275:Middlewares/lvgl/src/widgets/lv_img.c ****     lv_obj_refresh_ext_draw_size(obj);
 276:Middlewares/lvgl/src/widgets/lv_img.c **** 
 277:Middlewares/lvgl/src/widgets/lv_img.c ****     _lv_img_buf_get_transformed_area(&a, w, h, transf_angle, (transf_zoom * img->zoom) >> 8, &img->
 278:Middlewares/lvgl/src/widgets/lv_img.c ****     a.x1 += obj->coords.x1 - 1;
 279:Middlewares/lvgl/src/widgets/lv_img.c ****     a.y1 += obj->coords.y1 - 1;
 280:Middlewares/lvgl/src/widgets/lv_img.c ****     a.x2 += obj->coords.x1 + 1;
 281:Middlewares/lvgl/src/widgets/lv_img.c ****     a.y2 += obj->coords.y1 + 1;
 282:Middlewares/lvgl/src/widgets/lv_img.c ****     lv_obj_invalidate_area(obj, &a);
 283:Middlewares/lvgl/src/widgets/lv_img.c **** }
 284:Middlewares/lvgl/src/widgets/lv_img.c **** 
 285:Middlewares/lvgl/src/widgets/lv_img.c **** void lv_img_set_antialias(lv_obj_t * obj, bool antialias)
 286:Middlewares/lvgl/src/widgets/lv_img.c **** {
 287:Middlewares/lvgl/src/widgets/lv_img.c ****    lv_img_t * img = (lv_img_t *)obj;
 288:Middlewares/lvgl/src/widgets/lv_img.c ****     if(antialias == img->antialias) return;
 289:Middlewares/lvgl/src/widgets/lv_img.c **** 
 290:Middlewares/lvgl/src/widgets/lv_img.c ****     img->antialias = antialias;
 291:Middlewares/lvgl/src/widgets/lv_img.c ****     lv_obj_invalidate(obj);
 292:Middlewares/lvgl/src/widgets/lv_img.c **** }
 293:Middlewares/lvgl/src/widgets/lv_img.c **** 
 294:Middlewares/lvgl/src/widgets/lv_img.c **** /*=====================
 295:Middlewares/lvgl/src/widgets/lv_img.c ****  * Getter functions
 296:Middlewares/lvgl/src/widgets/lv_img.c ****  *====================*/
 297:Middlewares/lvgl/src/widgets/lv_img.c **** 
 298:Middlewares/lvgl/src/widgets/lv_img.c **** const void * lv_img_get_src(lv_obj_t * obj)
 299:Middlewares/lvgl/src/widgets/lv_img.c **** {
 300:Middlewares/lvgl/src/widgets/lv_img.c ****     LV_ASSERT_OBJ(obj, MY_CLASS);
 301:Middlewares/lvgl/src/widgets/lv_img.c **** 
 302:Middlewares/lvgl/src/widgets/lv_img.c ****    lv_img_t * img = (lv_img_t *)obj;
 303:Middlewares/lvgl/src/widgets/lv_img.c **** 
 304:Middlewares/lvgl/src/widgets/lv_img.c ****     return img->src;
 305:Middlewares/lvgl/src/widgets/lv_img.c **** }
 306:Middlewares/lvgl/src/widgets/lv_img.c **** 
 307:Middlewares/lvgl/src/widgets/lv_img.c **** lv_coord_t lv_img_get_offset_x(lv_obj_t * obj)
 308:Middlewares/lvgl/src/widgets/lv_img.c **** {
 309:Middlewares/lvgl/src/widgets/lv_img.c ****     LV_ASSERT_OBJ(obj, MY_CLASS);
 310:Middlewares/lvgl/src/widgets/lv_img.c **** 
 311:Middlewares/lvgl/src/widgets/lv_img.c ****    lv_img_t * img = (lv_img_t *)obj;
 312:Middlewares/lvgl/src/widgets/lv_img.c **** 
 313:Middlewares/lvgl/src/widgets/lv_img.c ****     return img->offset.x;
 314:Middlewares/lvgl/src/widgets/lv_img.c **** }
 315:Middlewares/lvgl/src/widgets/lv_img.c **** 
 316:Middlewares/lvgl/src/widgets/lv_img.c **** lv_coord_t lv_img_get_offset_y(lv_obj_t * obj)
ARM GAS  /tmp/ccCqaXuz.s 			page 7


 317:Middlewares/lvgl/src/widgets/lv_img.c **** {
 318:Middlewares/lvgl/src/widgets/lv_img.c ****     LV_ASSERT_OBJ(obj, MY_CLASS);
 319:Middlewares/lvgl/src/widgets/lv_img.c **** 
 320:Middlewares/lvgl/src/widgets/lv_img.c ****    lv_img_t * img = (lv_img_t *)obj;
 321:Middlewares/lvgl/src/widgets/lv_img.c **** 
 322:Middlewares/lvgl/src/widgets/lv_img.c ****     return img->offset.y;
 323:Middlewares/lvgl/src/widgets/lv_img.c **** }
 324:Middlewares/lvgl/src/widgets/lv_img.c **** 
 325:Middlewares/lvgl/src/widgets/lv_img.c **** uint16_t lv_img_get_angle(lv_obj_t * obj)
 326:Middlewares/lvgl/src/widgets/lv_img.c **** {
 327:Middlewares/lvgl/src/widgets/lv_img.c ****     LV_ASSERT_OBJ(obj, MY_CLASS);
 328:Middlewares/lvgl/src/widgets/lv_img.c **** 
 329:Middlewares/lvgl/src/widgets/lv_img.c ****    lv_img_t * img = (lv_img_t *)obj;
 330:Middlewares/lvgl/src/widgets/lv_img.c **** 
 331:Middlewares/lvgl/src/widgets/lv_img.c ****     return img->angle;
 332:Middlewares/lvgl/src/widgets/lv_img.c **** }
 333:Middlewares/lvgl/src/widgets/lv_img.c **** 
 334:Middlewares/lvgl/src/widgets/lv_img.c **** void lv_img_get_pivot(lv_obj_t * obj, lv_point_t * pivot)
 335:Middlewares/lvgl/src/widgets/lv_img.c **** {
 336:Middlewares/lvgl/src/widgets/lv_img.c ****     LV_ASSERT_OBJ(obj, MY_CLASS);
 337:Middlewares/lvgl/src/widgets/lv_img.c **** 
 338:Middlewares/lvgl/src/widgets/lv_img.c ****    lv_img_t * img = (lv_img_t *)obj;
 339:Middlewares/lvgl/src/widgets/lv_img.c **** 
 340:Middlewares/lvgl/src/widgets/lv_img.c ****     *pivot = img->pivot;
 341:Middlewares/lvgl/src/widgets/lv_img.c **** }
 342:Middlewares/lvgl/src/widgets/lv_img.c **** 
 343:Middlewares/lvgl/src/widgets/lv_img.c **** uint16_t lv_img_get_zoom(lv_obj_t * obj)
 344:Middlewares/lvgl/src/widgets/lv_img.c **** {
 345:Middlewares/lvgl/src/widgets/lv_img.c ****     LV_ASSERT_OBJ(obj, MY_CLASS);
 346:Middlewares/lvgl/src/widgets/lv_img.c **** 
 347:Middlewares/lvgl/src/widgets/lv_img.c ****    lv_img_t * img = (lv_img_t *)obj;
 348:Middlewares/lvgl/src/widgets/lv_img.c **** 
 349:Middlewares/lvgl/src/widgets/lv_img.c ****     return img->zoom;
 350:Middlewares/lvgl/src/widgets/lv_img.c **** }
 351:Middlewares/lvgl/src/widgets/lv_img.c **** 
 352:Middlewares/lvgl/src/widgets/lv_img.c **** bool lv_img_get_antialias(lv_obj_t * obj)
 353:Middlewares/lvgl/src/widgets/lv_img.c **** {
 354:Middlewares/lvgl/src/widgets/lv_img.c ****     LV_ASSERT_OBJ(obj, MY_CLASS);
 355:Middlewares/lvgl/src/widgets/lv_img.c **** 
 356:Middlewares/lvgl/src/widgets/lv_img.c ****    lv_img_t * img = (lv_img_t *)obj;
 357:Middlewares/lvgl/src/widgets/lv_img.c **** 
 358:Middlewares/lvgl/src/widgets/lv_img.c ****     return img->antialias ? true : false;
 359:Middlewares/lvgl/src/widgets/lv_img.c **** }
 360:Middlewares/lvgl/src/widgets/lv_img.c **** 
 361:Middlewares/lvgl/src/widgets/lv_img.c **** /**********************
 362:Middlewares/lvgl/src/widgets/lv_img.c ****  *   STATIC FUNCTIONS
 363:Middlewares/lvgl/src/widgets/lv_img.c ****  **********************/
 364:Middlewares/lvgl/src/widgets/lv_img.c **** 
 365:Middlewares/lvgl/src/widgets/lv_img.c **** static void lv_img_constructor(const lv_obj_class_t * class_p, lv_obj_t * obj)
 366:Middlewares/lvgl/src/widgets/lv_img.c **** {
 367:Middlewares/lvgl/src/widgets/lv_img.c ****     LV_UNUSED(class_p);
 368:Middlewares/lvgl/src/widgets/lv_img.c ****     LV_TRACE_OBJ_CREATE("begin");
 369:Middlewares/lvgl/src/widgets/lv_img.c **** 
 370:Middlewares/lvgl/src/widgets/lv_img.c ****     lv_img_t * img = (lv_img_t *)obj;
 371:Middlewares/lvgl/src/widgets/lv_img.c **** 
 372:Middlewares/lvgl/src/widgets/lv_img.c ****     img->src       = NULL;
 373:Middlewares/lvgl/src/widgets/lv_img.c ****     img->src_type  = LV_IMG_SRC_UNKNOWN;
ARM GAS  /tmp/ccCqaXuz.s 			page 8


 374:Middlewares/lvgl/src/widgets/lv_img.c ****     img->cf        = LV_IMG_CF_UNKNOWN;
 375:Middlewares/lvgl/src/widgets/lv_img.c ****     img->w         = lv_obj_get_width(obj);
 376:Middlewares/lvgl/src/widgets/lv_img.c ****     img->h         = lv_obj_get_height(obj);
 377:Middlewares/lvgl/src/widgets/lv_img.c ****     img->angle = 0;
 378:Middlewares/lvgl/src/widgets/lv_img.c ****     img->zoom = LV_IMG_ZOOM_NONE;
 379:Middlewares/lvgl/src/widgets/lv_img.c ****     img->antialias = LV_COLOR_DEPTH > 8 ? 1 : 0;
 380:Middlewares/lvgl/src/widgets/lv_img.c ****     img->offset.x  = 0;
 381:Middlewares/lvgl/src/widgets/lv_img.c ****     img->offset.y  = 0;
 382:Middlewares/lvgl/src/widgets/lv_img.c ****     img->pivot.x = 0;
 383:Middlewares/lvgl/src/widgets/lv_img.c ****     img->pivot.y = 0;
 384:Middlewares/lvgl/src/widgets/lv_img.c **** 
 385:Middlewares/lvgl/src/widgets/lv_img.c ****     lv_obj_clear_flag(obj, LV_OBJ_FLAG_CLICKABLE);
 386:Middlewares/lvgl/src/widgets/lv_img.c ****     lv_obj_add_flag(obj, LV_OBJ_FLAG_ADV_HITTEST);
 387:Middlewares/lvgl/src/widgets/lv_img.c **** 
 388:Middlewares/lvgl/src/widgets/lv_img.c ****     LV_TRACE_OBJ_CREATE("finished");
 389:Middlewares/lvgl/src/widgets/lv_img.c **** }
 390:Middlewares/lvgl/src/widgets/lv_img.c **** 
 391:Middlewares/lvgl/src/widgets/lv_img.c **** static void lv_img_destructor(const lv_obj_class_t * class_p, lv_obj_t * obj)
 392:Middlewares/lvgl/src/widgets/lv_img.c **** {
 393:Middlewares/lvgl/src/widgets/lv_img.c ****     LV_UNUSED(class_p);
 394:Middlewares/lvgl/src/widgets/lv_img.c ****     lv_img_t * img = (lv_img_t *)obj;
 395:Middlewares/lvgl/src/widgets/lv_img.c ****     if(img->src_type == LV_IMG_SRC_FILE || img->src_type == LV_IMG_SRC_SYMBOL) {
 396:Middlewares/lvgl/src/widgets/lv_img.c ****         lv_mem_free((void*)img->src);
 397:Middlewares/lvgl/src/widgets/lv_img.c ****         img->src      = NULL;
 398:Middlewares/lvgl/src/widgets/lv_img.c ****         img->src_type = LV_IMG_SRC_UNKNOWN;
 399:Middlewares/lvgl/src/widgets/lv_img.c ****     }
 400:Middlewares/lvgl/src/widgets/lv_img.c **** }
 401:Middlewares/lvgl/src/widgets/lv_img.c **** 
 402:Middlewares/lvgl/src/widgets/lv_img.c **** static void lv_img_event(const lv_obj_class_t * class_p, lv_event_t * e)
 403:Middlewares/lvgl/src/widgets/lv_img.c **** {
 404:Middlewares/lvgl/src/widgets/lv_img.c ****     LV_UNUSED(class_p);
 405:Middlewares/lvgl/src/widgets/lv_img.c **** 
 406:Middlewares/lvgl/src/widgets/lv_img.c ****     lv_event_code_t code = lv_event_get_code(e);
 407:Middlewares/lvgl/src/widgets/lv_img.c **** 
 408:Middlewares/lvgl/src/widgets/lv_img.c ****     /*Ancestor events will be called during drawing*/
 409:Middlewares/lvgl/src/widgets/lv_img.c ****     if(code != LV_EVENT_DRAW_MAIN && code != LV_EVENT_DRAW_POST) {
 410:Middlewares/lvgl/src/widgets/lv_img.c ****         /*Call the ancestor's event handler*/
 411:Middlewares/lvgl/src/widgets/lv_img.c ****         lv_res_t res = lv_obj_event_base(MY_CLASS, e);
 412:Middlewares/lvgl/src/widgets/lv_img.c ****         if(res != LV_RES_OK) return;
 413:Middlewares/lvgl/src/widgets/lv_img.c ****     }
 414:Middlewares/lvgl/src/widgets/lv_img.c **** 
 415:Middlewares/lvgl/src/widgets/lv_img.c ****     lv_obj_t * obj = lv_event_get_target(e);
 416:Middlewares/lvgl/src/widgets/lv_img.c ****     lv_img_t * img = (lv_img_t *)obj;
 417:Middlewares/lvgl/src/widgets/lv_img.c **** 
 418:Middlewares/lvgl/src/widgets/lv_img.c ****     if(code == LV_EVENT_STYLE_CHANGED) {
 419:Middlewares/lvgl/src/widgets/lv_img.c ****         /*Refresh the file name to refresh the symbol text size*/
 420:Middlewares/lvgl/src/widgets/lv_img.c ****         if(img->src_type == LV_IMG_SRC_SYMBOL) {
 421:Middlewares/lvgl/src/widgets/lv_img.c ****             lv_img_set_src(obj, img->src);
 422:Middlewares/lvgl/src/widgets/lv_img.c ****         } else {
 423:Middlewares/lvgl/src/widgets/lv_img.c ****             /*With transformation it might change*/
 424:Middlewares/lvgl/src/widgets/lv_img.c ****             lv_obj_refresh_ext_draw_size(obj);
 425:Middlewares/lvgl/src/widgets/lv_img.c ****         }
 426:Middlewares/lvgl/src/widgets/lv_img.c ****     }
 427:Middlewares/lvgl/src/widgets/lv_img.c ****     else if(code == LV_EVENT_REFR_EXT_DRAW_SIZE) {
 428:Middlewares/lvgl/src/widgets/lv_img.c **** 
 429:Middlewares/lvgl/src/widgets/lv_img.c ****         lv_coord_t * s = lv_event_get_param(e);
 430:Middlewares/lvgl/src/widgets/lv_img.c ****         lv_coord_t transf_zoom = lv_obj_get_style_transform_zoom(obj, LV_PART_MAIN);
ARM GAS  /tmp/ccCqaXuz.s 			page 9


 431:Middlewares/lvgl/src/widgets/lv_img.c ****         transf_zoom = (transf_zoom * img->zoom) >> 8;
 432:Middlewares/lvgl/src/widgets/lv_img.c **** 
 433:Middlewares/lvgl/src/widgets/lv_img.c ****         lv_coord_t transf_angle = lv_obj_get_style_transform_angle(obj, LV_PART_MAIN);
 434:Middlewares/lvgl/src/widgets/lv_img.c ****         transf_angle += img->angle;
 435:Middlewares/lvgl/src/widgets/lv_img.c **** 
 436:Middlewares/lvgl/src/widgets/lv_img.c ****         /*If the image has angle provide enough room for the rotated corners*/
 437:Middlewares/lvgl/src/widgets/lv_img.c ****         if(transf_angle || transf_zoom != LV_IMG_ZOOM_NONE) {
 438:Middlewares/lvgl/src/widgets/lv_img.c ****             lv_area_t a;
 439:Middlewares/lvgl/src/widgets/lv_img.c ****             lv_coord_t w = lv_obj_get_width(obj);
 440:Middlewares/lvgl/src/widgets/lv_img.c ****             lv_coord_t h = lv_obj_get_height(obj);
 441:Middlewares/lvgl/src/widgets/lv_img.c ****             _lv_img_buf_get_transformed_area(&a, w, h, transf_angle, transf_zoom, &img->pivot);
 442:Middlewares/lvgl/src/widgets/lv_img.c ****             lv_coord_t pad_ori = *s;
 443:Middlewares/lvgl/src/widgets/lv_img.c ****             *s = LV_MAX(*s, pad_ori - a.x1);
 444:Middlewares/lvgl/src/widgets/lv_img.c ****             *s = LV_MAX(*s, pad_ori - a.y1);
 445:Middlewares/lvgl/src/widgets/lv_img.c ****             *s = LV_MAX(*s, pad_ori + a.x2 - w);
 446:Middlewares/lvgl/src/widgets/lv_img.c ****             *s = LV_MAX(*s, pad_ori + a.y2 - h);
 447:Middlewares/lvgl/src/widgets/lv_img.c ****         }
 448:Middlewares/lvgl/src/widgets/lv_img.c ****     }
 449:Middlewares/lvgl/src/widgets/lv_img.c ****     else if(code == LV_EVENT_HIT_TEST) {
 450:Middlewares/lvgl/src/widgets/lv_img.c ****         lv_hit_test_info_t * info = lv_event_get_param(e);
 451:Middlewares/lvgl/src/widgets/lv_img.c ****         lv_coord_t zoom = lv_obj_get_style_transform_zoom(obj, LV_PART_MAIN);
 452:Middlewares/lvgl/src/widgets/lv_img.c ****         zoom = (zoom * img->zoom) >> 8;
 453:Middlewares/lvgl/src/widgets/lv_img.c **** 
 454:Middlewares/lvgl/src/widgets/lv_img.c ****         lv_coord_t angle = lv_obj_get_style_transform_angle(obj, LV_PART_MAIN);
 455:Middlewares/lvgl/src/widgets/lv_img.c ****         angle += img->angle;
 456:Middlewares/lvgl/src/widgets/lv_img.c **** 
 457:Middlewares/lvgl/src/widgets/lv_img.c ****         /*If the object is exactly image sized (not cropped, not mosaic) and transformed
 458:Middlewares/lvgl/src/widgets/lv_img.c ****          *perform hit test on it's transformed area*/
 459:Middlewares/lvgl/src/widgets/lv_img.c ****         if(img->w == lv_obj_get_width(obj) && img->h == lv_obj_get_height(obj) &&
 460:Middlewares/lvgl/src/widgets/lv_img.c ****                 (zoom != LV_IMG_ZOOM_NONE || angle != 0 || img->pivot.x != img->w / 2 || img->pivot
 461:Middlewares/lvgl/src/widgets/lv_img.c **** 
 462:Middlewares/lvgl/src/widgets/lv_img.c ****             lv_coord_t w = lv_obj_get_width(obj);
 463:Middlewares/lvgl/src/widgets/lv_img.c ****             lv_coord_t h = lv_obj_get_height(obj);
 464:Middlewares/lvgl/src/widgets/lv_img.c ****             lv_area_t coords;
 465:Middlewares/lvgl/src/widgets/lv_img.c ****             _lv_img_buf_get_transformed_area(&coords, w, h, angle, zoom, &img->pivot);
 466:Middlewares/lvgl/src/widgets/lv_img.c ****             coords.x1 += obj->coords.x1;
 467:Middlewares/lvgl/src/widgets/lv_img.c ****             coords.y1 += obj->coords.y1;
 468:Middlewares/lvgl/src/widgets/lv_img.c ****             coords.x2 += obj->coords.x1;
 469:Middlewares/lvgl/src/widgets/lv_img.c ****             coords.y2 += obj->coords.y1;
 470:Middlewares/lvgl/src/widgets/lv_img.c **** 
 471:Middlewares/lvgl/src/widgets/lv_img.c ****             info->res = _lv_area_is_point_on(&coords, info->point, 0);
 472:Middlewares/lvgl/src/widgets/lv_img.c ****         }
 473:Middlewares/lvgl/src/widgets/lv_img.c ****         else {
 474:Middlewares/lvgl/src/widgets/lv_img.c ****             lv_area_t a;
 475:Middlewares/lvgl/src/widgets/lv_img.c ****             lv_obj_get_click_area(obj, &a);
 476:Middlewares/lvgl/src/widgets/lv_img.c ****             info->res = _lv_area_is_point_on(&a, info->point, 0);
 477:Middlewares/lvgl/src/widgets/lv_img.c ****         }
 478:Middlewares/lvgl/src/widgets/lv_img.c ****     }
 479:Middlewares/lvgl/src/widgets/lv_img.c ****     else if(code == LV_EVENT_GET_SELF_SIZE) {
 480:Middlewares/lvgl/src/widgets/lv_img.c ****         lv_point_t * p = lv_event_get_param(e);;
 481:Middlewares/lvgl/src/widgets/lv_img.c ****         p->x = img->w;
 482:Middlewares/lvgl/src/widgets/lv_img.c ****         p->y = img->h;
 483:Middlewares/lvgl/src/widgets/lv_img.c ****     }
 484:Middlewares/lvgl/src/widgets/lv_img.c ****     else if(code == LV_EVENT_DRAW_MAIN || code == LV_EVENT_DRAW_POST || code == LV_EVENT_COVER_CHEC
 485:Middlewares/lvgl/src/widgets/lv_img.c ****         draw_img(e);
 486:Middlewares/lvgl/src/widgets/lv_img.c ****     }
 487:Middlewares/lvgl/src/widgets/lv_img.c **** }
ARM GAS  /tmp/ccCqaXuz.s 			page 10


 488:Middlewares/lvgl/src/widgets/lv_img.c **** 
 489:Middlewares/lvgl/src/widgets/lv_img.c **** static void draw_img(lv_event_t * e)
 490:Middlewares/lvgl/src/widgets/lv_img.c **** {
  28              		.loc 1 490 1 view -0
  29              		.cfi_startproc
  30              		@ args = 0, pretend = 0, frame = 112
  31              		@ frame_needed = 0, uses_anonymous_args = 0
  32              		.loc 1 490 1 is_stmt 0 view .LVU1
  33 0000 2DE9F04F 		push	{r4, r5, r6, r7, r8, r9, r10, fp, lr}
  34              	.LCFI0:
  35              		.cfi_def_cfa_offset 36
  36              		.cfi_offset 4, -36
  37              		.cfi_offset 5, -32
  38              		.cfi_offset 6, -28
  39              		.cfi_offset 7, -24
  40              		.cfi_offset 8, -20
  41              		.cfi_offset 9, -16
  42              		.cfi_offset 10, -12
  43              		.cfi_offset 11, -8
  44              		.cfi_offset 14, -4
  45 0004 9FB0     		sub	sp, sp, #124
  46              	.LCFI1:
  47              		.cfi_def_cfa_offset 160
  48 0006 0646     		mov	r6, r0
 491:Middlewares/lvgl/src/widgets/lv_img.c ****     lv_event_code_t code = lv_event_get_code(e);
  49              		.loc 1 491 5 is_stmt 1 view .LVU2
  50              		.loc 1 491 28 is_stmt 0 view .LVU3
  51 0008 FFF7FEFF 		bl	lv_event_get_code
  52              	.LVL1:
  53              		.loc 1 491 28 view .LVU4
  54 000c 0546     		mov	r5, r0
  55              	.LVL2:
 492:Middlewares/lvgl/src/widgets/lv_img.c ****     lv_obj_t * obj = lv_event_get_target(e);
  56              		.loc 1 492 5 is_stmt 1 view .LVU5
  57              		.loc 1 492 22 is_stmt 0 view .LVU6
  58 000e 3046     		mov	r0, r6
  59 0010 FFF7FEFF 		bl	lv_event_get_target
  60              	.LVL3:
  61 0014 0446     		mov	r4, r0
  62              	.LVL4:
 493:Middlewares/lvgl/src/widgets/lv_img.c ****     lv_img_t * img = (lv_img_t *)obj;
  63              		.loc 1 493 5 is_stmt 1 view .LVU7
 494:Middlewares/lvgl/src/widgets/lv_img.c ****     if(code == LV_EVENT_COVER_CHECK) {
  64              		.loc 1 494 5 view .LVU8
  65              		.loc 1 494 7 is_stmt 0 view .LVU9
  66 0016 122D     		cmp	r5, #18
  67 0018 07D0     		beq	.L23
 495:Middlewares/lvgl/src/widgets/lv_img.c ****         lv_cover_check_info_t * info = lv_event_get_param(e);
 496:Middlewares/lvgl/src/widgets/lv_img.c ****         if(info->res == LV_COVER_RES_MASKED) return;
 497:Middlewares/lvgl/src/widgets/lv_img.c ****         if(img->src_type == LV_IMG_SRC_UNKNOWN || img->src_type == LV_IMG_SRC_SYMBOL) {
 498:Middlewares/lvgl/src/widgets/lv_img.c ****             info->res = LV_COVER_RES_NOT_COVER;
 499:Middlewares/lvgl/src/widgets/lv_img.c ****             return;
 500:Middlewares/lvgl/src/widgets/lv_img.c ****         }
 501:Middlewares/lvgl/src/widgets/lv_img.c **** 
 502:Middlewares/lvgl/src/widgets/lv_img.c ****         /*Non true color format might have "holes"*/
 503:Middlewares/lvgl/src/widgets/lv_img.c ****         if(img->cf != LV_IMG_CF_TRUE_COLOR && img->cf != LV_IMG_CF_RAW) {
 504:Middlewares/lvgl/src/widgets/lv_img.c ****             info->res = LV_COVER_RES_NOT_COVER;
ARM GAS  /tmp/ccCqaXuz.s 			page 11


 505:Middlewares/lvgl/src/widgets/lv_img.c ****             return;
 506:Middlewares/lvgl/src/widgets/lv_img.c ****         }
 507:Middlewares/lvgl/src/widgets/lv_img.c **** 
 508:Middlewares/lvgl/src/widgets/lv_img.c ****         /*With not LV_OPA_COVER images can't cover an area */
 509:Middlewares/lvgl/src/widgets/lv_img.c ****         if(lv_obj_get_style_img_opa(obj, LV_PART_MAIN) != LV_OPA_COVER) {
 510:Middlewares/lvgl/src/widgets/lv_img.c ****             info->res = LV_COVER_RES_NOT_COVER;
 511:Middlewares/lvgl/src/widgets/lv_img.c ****             return;
 512:Middlewares/lvgl/src/widgets/lv_img.c ****         }
 513:Middlewares/lvgl/src/widgets/lv_img.c **** 
 514:Middlewares/lvgl/src/widgets/lv_img.c ****         int32_t angle_final = lv_obj_get_style_transform_angle(obj, LV_PART_MAIN);
 515:Middlewares/lvgl/src/widgets/lv_img.c ****         angle_final += img->angle;
 516:Middlewares/lvgl/src/widgets/lv_img.c **** 
 517:Middlewares/lvgl/src/widgets/lv_img.c ****         if(angle_final != 0) {
 518:Middlewares/lvgl/src/widgets/lv_img.c ****             info->res = LV_COVER_RES_NOT_COVER;
 519:Middlewares/lvgl/src/widgets/lv_img.c ****             return;
 520:Middlewares/lvgl/src/widgets/lv_img.c ****         }
 521:Middlewares/lvgl/src/widgets/lv_img.c **** 
 522:Middlewares/lvgl/src/widgets/lv_img.c ****         int32_t zoom_final = lv_obj_get_style_transform_zoom(obj, LV_PART_MAIN);
 523:Middlewares/lvgl/src/widgets/lv_img.c ****         zoom_final = (zoom_final * img->zoom) >> 8;
 524:Middlewares/lvgl/src/widgets/lv_img.c **** 
 525:Middlewares/lvgl/src/widgets/lv_img.c ****         const lv_area_t * clip_area = lv_event_get_param(e);
 526:Middlewares/lvgl/src/widgets/lv_img.c ****         if(zoom_final == LV_IMG_ZOOM_NONE) {
 527:Middlewares/lvgl/src/widgets/lv_img.c ****             if(_lv_area_is_in(clip_area, &obj->coords, 0) == false) {
 528:Middlewares/lvgl/src/widgets/lv_img.c ****                 info->res = LV_COVER_RES_NOT_COVER;
 529:Middlewares/lvgl/src/widgets/lv_img.c ****                 return;
 530:Middlewares/lvgl/src/widgets/lv_img.c ****             }
 531:Middlewares/lvgl/src/widgets/lv_img.c ****         }
 532:Middlewares/lvgl/src/widgets/lv_img.c ****         else {
 533:Middlewares/lvgl/src/widgets/lv_img.c ****             lv_area_t a;
 534:Middlewares/lvgl/src/widgets/lv_img.c ****             _lv_img_buf_get_transformed_area(&a, lv_obj_get_width(obj), lv_obj_get_height(obj), 0, 
 535:Middlewares/lvgl/src/widgets/lv_img.c ****             a.x1 += obj->coords.x1;
 536:Middlewares/lvgl/src/widgets/lv_img.c ****             a.y1 += obj->coords.y1;
 537:Middlewares/lvgl/src/widgets/lv_img.c ****             a.x2 += obj->coords.x1;
 538:Middlewares/lvgl/src/widgets/lv_img.c ****             a.y2 += obj->coords.y1;
 539:Middlewares/lvgl/src/widgets/lv_img.c **** 
 540:Middlewares/lvgl/src/widgets/lv_img.c ****             if(_lv_area_is_in(clip_area, &a, 0) == false) {
 541:Middlewares/lvgl/src/widgets/lv_img.c ****                 info->res = LV_COVER_RES_NOT_COVER;
 542:Middlewares/lvgl/src/widgets/lv_img.c ****                 return;
 543:Middlewares/lvgl/src/widgets/lv_img.c ****             }
 544:Middlewares/lvgl/src/widgets/lv_img.c ****         }
 545:Middlewares/lvgl/src/widgets/lv_img.c ****     }
 546:Middlewares/lvgl/src/widgets/lv_img.c ****     else if(code == LV_EVENT_DRAW_MAIN || code == LV_EVENT_DRAW_POST) {
  68              		.loc 1 546 10 is_stmt 1 view .LVU10
  69              		.loc 1 546 12 is_stmt 0 view .LVU11
  70 001a 182D     		cmp	r5, #24
  71 001c 18BF     		it	ne
  72 001e 152D     		cmpne	r5, #21
  73 0020 00F08180 		beq	.L24
  74              	.LVL5:
  75              	.L1:
 547:Middlewares/lvgl/src/widgets/lv_img.c **** 
 548:Middlewares/lvgl/src/widgets/lv_img.c ****         int32_t zoom_final = lv_obj_get_style_transform_zoom(obj, LV_PART_MAIN);
 549:Middlewares/lvgl/src/widgets/lv_img.c ****         zoom_final = (zoom_final * img->zoom) >> 8;
 550:Middlewares/lvgl/src/widgets/lv_img.c **** 
 551:Middlewares/lvgl/src/widgets/lv_img.c ****         int32_t angle_final = lv_obj_get_style_transform_angle(obj, LV_PART_MAIN);
 552:Middlewares/lvgl/src/widgets/lv_img.c ****         angle_final += img->angle;
 553:Middlewares/lvgl/src/widgets/lv_img.c **** 
ARM GAS  /tmp/ccCqaXuz.s 			page 12


 554:Middlewares/lvgl/src/widgets/lv_img.c ****         lv_coord_t obj_w = lv_obj_get_width(obj);
 555:Middlewares/lvgl/src/widgets/lv_img.c ****         lv_coord_t obj_h = lv_obj_get_height(obj);
 556:Middlewares/lvgl/src/widgets/lv_img.c **** 
 557:Middlewares/lvgl/src/widgets/lv_img.c ****         lv_coord_t border_width = lv_obj_get_style_border_width(obj, LV_PART_MAIN);
 558:Middlewares/lvgl/src/widgets/lv_img.c ****         lv_coord_t pleft = lv_obj_get_style_pad_left(obj, LV_PART_MAIN) + border_width;
 559:Middlewares/lvgl/src/widgets/lv_img.c ****         lv_coord_t pright = lv_obj_get_style_pad_right(obj, LV_PART_MAIN) + border_width;
 560:Middlewares/lvgl/src/widgets/lv_img.c ****         lv_coord_t ptop = lv_obj_get_style_pad_top(obj, LV_PART_MAIN) + border_width;
 561:Middlewares/lvgl/src/widgets/lv_img.c ****         lv_coord_t pbottom = lv_obj_get_style_pad_bottom(obj, LV_PART_MAIN) + border_width;
 562:Middlewares/lvgl/src/widgets/lv_img.c **** 
 563:Middlewares/lvgl/src/widgets/lv_img.c ****         lv_point_t bg_pivot;
 564:Middlewares/lvgl/src/widgets/lv_img.c ****         bg_pivot.x = img->pivot.x + pleft;
 565:Middlewares/lvgl/src/widgets/lv_img.c ****         bg_pivot.y = img->pivot.y + ptop;
 566:Middlewares/lvgl/src/widgets/lv_img.c ****         lv_area_t bg_coords;
 567:Middlewares/lvgl/src/widgets/lv_img.c ****         _lv_img_buf_get_transformed_area(&bg_coords, obj_w, obj_h,
 568:Middlewares/lvgl/src/widgets/lv_img.c ****                 angle_final, zoom_final, &bg_pivot);
 569:Middlewares/lvgl/src/widgets/lv_img.c **** 
 570:Middlewares/lvgl/src/widgets/lv_img.c ****         /*Modify the coordinates to draw the background for the rotated and scaled coordinates*/
 571:Middlewares/lvgl/src/widgets/lv_img.c ****         bg_coords.x1 += obj->coords.x1;
 572:Middlewares/lvgl/src/widgets/lv_img.c ****         bg_coords.y1 += obj->coords.y1;
 573:Middlewares/lvgl/src/widgets/lv_img.c ****         bg_coords.x2 += obj->coords.x1;
 574:Middlewares/lvgl/src/widgets/lv_img.c ****         bg_coords.y2 += obj->coords.y1;
 575:Middlewares/lvgl/src/widgets/lv_img.c **** 
 576:Middlewares/lvgl/src/widgets/lv_img.c ****         lv_area_t ori_coords;
 577:Middlewares/lvgl/src/widgets/lv_img.c ****         lv_area_copy(&ori_coords, &obj->coords);
 578:Middlewares/lvgl/src/widgets/lv_img.c ****         lv_area_copy(&obj->coords, &bg_coords);
 579:Middlewares/lvgl/src/widgets/lv_img.c **** 
 580:Middlewares/lvgl/src/widgets/lv_img.c ****         lv_res_t res = lv_obj_event_base(MY_CLASS, e);
 581:Middlewares/lvgl/src/widgets/lv_img.c ****         if(res != LV_RES_OK) return;
 582:Middlewares/lvgl/src/widgets/lv_img.c **** 
 583:Middlewares/lvgl/src/widgets/lv_img.c ****         lv_area_copy(&obj->coords, &ori_coords);
 584:Middlewares/lvgl/src/widgets/lv_img.c **** 
 585:Middlewares/lvgl/src/widgets/lv_img.c ****         if(code == LV_EVENT_DRAW_MAIN) {
 586:Middlewares/lvgl/src/widgets/lv_img.c ****             if(img->h == 0 || img->w == 0) return;
 587:Middlewares/lvgl/src/widgets/lv_img.c ****             if(zoom_final == 0) return;
 588:Middlewares/lvgl/src/widgets/lv_img.c **** 
 589:Middlewares/lvgl/src/widgets/lv_img.c ****             const lv_area_t * clip_area = lv_event_get_param(e);
 590:Middlewares/lvgl/src/widgets/lv_img.c **** 
 591:Middlewares/lvgl/src/widgets/lv_img.c ****             lv_area_t img_max_area;
 592:Middlewares/lvgl/src/widgets/lv_img.c ****             lv_area_copy(&img_max_area, &obj->coords);
 593:Middlewares/lvgl/src/widgets/lv_img.c ****             img_max_area.x1 += pleft;
 594:Middlewares/lvgl/src/widgets/lv_img.c ****             img_max_area.y1 += ptop;
 595:Middlewares/lvgl/src/widgets/lv_img.c ****             img_max_area.x2 -= pright;
 596:Middlewares/lvgl/src/widgets/lv_img.c ****             img_max_area.y2 -= pbottom;
 597:Middlewares/lvgl/src/widgets/lv_img.c **** 
 598:Middlewares/lvgl/src/widgets/lv_img.c ****             if(img->src_type == LV_IMG_SRC_FILE || img->src_type == LV_IMG_SRC_VARIABLE) {
 599:Middlewares/lvgl/src/widgets/lv_img.c ****                 lv_draw_img_dsc_t img_dsc;
 600:Middlewares/lvgl/src/widgets/lv_img.c ****                 lv_draw_img_dsc_init(&img_dsc);
 601:Middlewares/lvgl/src/widgets/lv_img.c ****                 lv_obj_init_draw_img_dsc(obj, LV_PART_MAIN, &img_dsc);
 602:Middlewares/lvgl/src/widgets/lv_img.c **** 
 603:Middlewares/lvgl/src/widgets/lv_img.c ****                 img_dsc.zoom = zoom_final;
 604:Middlewares/lvgl/src/widgets/lv_img.c ****                 img_dsc.angle = angle_final;
 605:Middlewares/lvgl/src/widgets/lv_img.c ****                 img_dsc.pivot.x = img->pivot.x;
 606:Middlewares/lvgl/src/widgets/lv_img.c ****                 img_dsc.pivot.y = img->pivot.y;
 607:Middlewares/lvgl/src/widgets/lv_img.c ****                 img_dsc.antialias = img->antialias;
 608:Middlewares/lvgl/src/widgets/lv_img.c **** 
 609:Middlewares/lvgl/src/widgets/lv_img.c ****                 lv_area_t img_clip_area;
 610:Middlewares/lvgl/src/widgets/lv_img.c ****                 img_clip_area.x1 = bg_coords.x1 + pleft;
ARM GAS  /tmp/ccCqaXuz.s 			page 13


 611:Middlewares/lvgl/src/widgets/lv_img.c ****                 img_clip_area.y1 = bg_coords.y1 + ptop;
 612:Middlewares/lvgl/src/widgets/lv_img.c ****                 img_clip_area.x2 = bg_coords.x2 - pright;
 613:Middlewares/lvgl/src/widgets/lv_img.c ****                 img_clip_area.y2 = bg_coords.y2 - pbottom;
 614:Middlewares/lvgl/src/widgets/lv_img.c **** 
 615:Middlewares/lvgl/src/widgets/lv_img.c ****                 _lv_area_intersect(&img_clip_area, clip_area, &img_clip_area);
 616:Middlewares/lvgl/src/widgets/lv_img.c **** 
 617:Middlewares/lvgl/src/widgets/lv_img.c ****                 lv_area_t coords_tmp;
 618:Middlewares/lvgl/src/widgets/lv_img.c ****                 coords_tmp.y1 = img_max_area.y1 + img->offset.y;
 619:Middlewares/lvgl/src/widgets/lv_img.c ****                 if(coords_tmp.y1 > img_max_area.y1) coords_tmp.y1 -= img->h;
 620:Middlewares/lvgl/src/widgets/lv_img.c ****                 coords_tmp.y2 = coords_tmp.y1 + img->h - 1;
 621:Middlewares/lvgl/src/widgets/lv_img.c **** 
 622:Middlewares/lvgl/src/widgets/lv_img.c ****                 for(; coords_tmp.y1 < img_max_area.y2; coords_tmp.y1 += img->h, coords_tmp.y2 += im
 623:Middlewares/lvgl/src/widgets/lv_img.c ****                     coords_tmp.x1 = img_max_area.x1 + img->offset.x;
 624:Middlewares/lvgl/src/widgets/lv_img.c ****                     if(coords_tmp.x1 > img_max_area.x1) coords_tmp.x1 -= img->w;
 625:Middlewares/lvgl/src/widgets/lv_img.c ****                     coords_tmp.x2 = coords_tmp.x1 + img->w - 1;
 626:Middlewares/lvgl/src/widgets/lv_img.c **** 
 627:Middlewares/lvgl/src/widgets/lv_img.c ****                     for(; coords_tmp.x1 < img_max_area.x2; coords_tmp.x1 += img->w, coords_tmp.x2 +
 628:Middlewares/lvgl/src/widgets/lv_img.c ****                         lv_draw_img(&coords_tmp, &img_clip_area, img->src, &img_dsc);
 629:Middlewares/lvgl/src/widgets/lv_img.c ****                     }
 630:Middlewares/lvgl/src/widgets/lv_img.c ****                 }
 631:Middlewares/lvgl/src/widgets/lv_img.c ****             }
 632:Middlewares/lvgl/src/widgets/lv_img.c ****             else if(img->src_type == LV_IMG_SRC_SYMBOL) {
 633:Middlewares/lvgl/src/widgets/lv_img.c ****                 lv_draw_label_dsc_t label_dsc;
 634:Middlewares/lvgl/src/widgets/lv_img.c ****                 lv_draw_label_dsc_init(&label_dsc);
 635:Middlewares/lvgl/src/widgets/lv_img.c ****                 lv_obj_init_draw_label_dsc(obj, LV_PART_MAIN, &label_dsc);
 636:Middlewares/lvgl/src/widgets/lv_img.c **** 
 637:Middlewares/lvgl/src/widgets/lv_img.c ****                 lv_draw_label(&obj->coords, clip_area, &label_dsc, img->src, NULL);
 638:Middlewares/lvgl/src/widgets/lv_img.c ****             }
 639:Middlewares/lvgl/src/widgets/lv_img.c ****             else {
 640:Middlewares/lvgl/src/widgets/lv_img.c ****                 /*Trigger the error handler of image draw*/
 641:Middlewares/lvgl/src/widgets/lv_img.c ****                 LV_LOG_WARN("draw_img: image source type is unknown");
 642:Middlewares/lvgl/src/widgets/lv_img.c ****                 lv_draw_img(&obj->coords, clip_area, NULL, NULL);
 643:Middlewares/lvgl/src/widgets/lv_img.c ****             }
 644:Middlewares/lvgl/src/widgets/lv_img.c ****         }
 645:Middlewares/lvgl/src/widgets/lv_img.c ****     }
 646:Middlewares/lvgl/src/widgets/lv_img.c **** }
  76              		.loc 1 646 1 view .LVU12
  77 0024 1FB0     		add	sp, sp, #124
  78              	.LCFI2:
  79              		.cfi_remember_state
  80              		.cfi_def_cfa_offset 36
  81              		@ sp needed
  82 0026 BDE8F08F 		pop	{r4, r5, r6, r7, r8, r9, r10, fp, pc}
  83              	.LVL6:
  84              	.L23:
  85              	.LCFI3:
  86              		.cfi_restore_state
  87              	.LBB71:
 495:Middlewares/lvgl/src/widgets/lv_img.c ****         lv_cover_check_info_t * info = lv_event_get_param(e);
  88              		.loc 1 495 9 is_stmt 1 view .LVU13
 495:Middlewares/lvgl/src/widgets/lv_img.c ****         lv_cover_check_info_t * info = lv_event_get_param(e);
  89              		.loc 1 495 40 is_stmt 0 view .LVU14
  90 002a 3046     		mov	r0, r6
  91              	.LVL7:
 495:Middlewares/lvgl/src/widgets/lv_img.c ****         lv_cover_check_info_t * info = lv_event_get_param(e);
  92              		.loc 1 495 40 view .LVU15
  93 002c FFF7FEFF 		bl	lv_event_get_param
ARM GAS  /tmp/ccCqaXuz.s 			page 14


  94              	.LVL8:
  95 0030 0546     		mov	r5, r0
  96              	.LVL9:
 496:Middlewares/lvgl/src/widgets/lv_img.c ****         if(img->src_type == LV_IMG_SRC_UNKNOWN || img->src_type == LV_IMG_SRC_SYMBOL) {
  97              		.loc 1 496 9 is_stmt 1 view .LVU16
 496:Middlewares/lvgl/src/widgets/lv_img.c ****         if(img->src_type == LV_IMG_SRC_UNKNOWN || img->src_type == LV_IMG_SRC_SYMBOL) {
  98              		.loc 1 496 16 is_stmt 0 view .LVU17
  99 0032 0378     		ldrb	r3, [r0]	@ zero_extendqisi2
 496:Middlewares/lvgl/src/widgets/lv_img.c ****         if(img->src_type == LV_IMG_SRC_UNKNOWN || img->src_type == LV_IMG_SRC_SYMBOL) {
 100              		.loc 1 496 11 view .LVU18
 101 0034 022B     		cmp	r3, #2
 102 0036 F5D0     		beq	.L1
 497:Middlewares/lvgl/src/widgets/lv_img.c ****             info->res = LV_COVER_RES_NOT_COVER;
 103              		.loc 1 497 9 is_stmt 1 view .LVU19
 497:Middlewares/lvgl/src/widgets/lv_img.c ****             info->res = LV_COVER_RES_NOT_COVER;
 104              		.loc 1 497 26 is_stmt 0 view .LVU20
 105 0038 94F83830 		ldrb	r3, [r4, #56]	@ zero_extendqisi2
 497:Middlewares/lvgl/src/widgets/lv_img.c ****             info->res = LV_COVER_RES_NOT_COVER;
 106              		.loc 1 497 11 view .LVU21
 107 003c 13F0020F 		tst	r3, #2
 108 0040 08D1     		bne	.L25
 503:Middlewares/lvgl/src/widgets/lv_img.c ****             info->res = LV_COVER_RES_NOT_COVER;
 109              		.loc 1 503 9 is_stmt 1 view .LVU22
 503:Middlewares/lvgl/src/widgets/lv_img.c ****             info->res = LV_COVER_RES_NOT_COVER;
 110              		.loc 1 503 44 is_stmt 0 view .LVU23
 111 0042 03F07C03 		and	r3, r3, #124
 503:Middlewares/lvgl/src/widgets/lv_img.c ****             info->res = LV_COVER_RES_NOT_COVER;
 112              		.loc 1 503 11 view .LVU24
 113 0046 102B     		cmp	r3, #16
 114 0048 18BF     		it	ne
 115 004a 042B     		cmpne	r3, #4
 116 004c 05D0     		beq	.L5
 504:Middlewares/lvgl/src/widgets/lv_img.c ****             return;
 117              		.loc 1 504 13 is_stmt 1 view .LVU25
 504:Middlewares/lvgl/src/widgets/lv_img.c ****             return;
 118              		.loc 1 504 23 is_stmt 0 view .LVU26
 119 004e 0123     		movs	r3, #1
 120 0050 0370     		strb	r3, [r0]
 505:Middlewares/lvgl/src/widgets/lv_img.c ****         }
 121              		.loc 1 505 13 is_stmt 1 view .LVU27
 122 0052 E7E7     		b	.L1
 123              	.L25:
 498:Middlewares/lvgl/src/widgets/lv_img.c ****             return;
 124              		.loc 1 498 13 view .LVU28
 498:Middlewares/lvgl/src/widgets/lv_img.c ****             return;
 125              		.loc 1 498 23 is_stmt 0 view .LVU29
 126 0054 0123     		movs	r3, #1
 127 0056 0370     		strb	r3, [r0]
 499:Middlewares/lvgl/src/widgets/lv_img.c ****         }
 128              		.loc 1 499 13 is_stmt 1 view .LVU30
 129 0058 E4E7     		b	.L1
 130              	.L5:
 509:Middlewares/lvgl/src/widgets/lv_img.c ****             info->res = LV_COVER_RES_NOT_COVER;
 131              		.loc 1 509 9 view .LVU31
 132              	.LVL10:
 133              	.LBB72:
 134              	.LBI72:
ARM GAS  /tmp/ccCqaXuz.s 			page 15


 135              		.file 2 "Middlewares/lvgl/src/widgets/../core/lv_obj_style_gen.h"
   1:Middlewares/lvgl/src/widgets/../core/lv_obj_style_gen.h **** static inline lv_coord_t lv_obj_get_style_width(const struct _lv_obj_t * obj, uint32_t part)
   2:Middlewares/lvgl/src/widgets/../core/lv_obj_style_gen.h **** {
   3:Middlewares/lvgl/src/widgets/../core/lv_obj_style_gen.h ****     lv_style_value_t v = lv_obj_get_style_prop(obj, part, LV_STYLE_WIDTH);
   4:Middlewares/lvgl/src/widgets/../core/lv_obj_style_gen.h ****     return (lv_coord_t)v.num;
   5:Middlewares/lvgl/src/widgets/../core/lv_obj_style_gen.h **** }
   6:Middlewares/lvgl/src/widgets/../core/lv_obj_style_gen.h **** 
   7:Middlewares/lvgl/src/widgets/../core/lv_obj_style_gen.h **** static inline lv_coord_t lv_obj_get_style_min_width(const struct _lv_obj_t * obj, uint32_t part)
   8:Middlewares/lvgl/src/widgets/../core/lv_obj_style_gen.h **** {
   9:Middlewares/lvgl/src/widgets/../core/lv_obj_style_gen.h ****     lv_style_value_t v = lv_obj_get_style_prop(obj, part, LV_STYLE_MIN_WIDTH);
  10:Middlewares/lvgl/src/widgets/../core/lv_obj_style_gen.h ****     return (lv_coord_t)v.num;
  11:Middlewares/lvgl/src/widgets/../core/lv_obj_style_gen.h **** }
  12:Middlewares/lvgl/src/widgets/../core/lv_obj_style_gen.h **** 
  13:Middlewares/lvgl/src/widgets/../core/lv_obj_style_gen.h **** static inline lv_coord_t lv_obj_get_style_max_width(const struct _lv_obj_t * obj, uint32_t part)
  14:Middlewares/lvgl/src/widgets/../core/lv_obj_style_gen.h **** {
  15:Middlewares/lvgl/src/widgets/../core/lv_obj_style_gen.h ****     lv_style_value_t v = lv_obj_get_style_prop(obj, part, LV_STYLE_MAX_WIDTH);
  16:Middlewares/lvgl/src/widgets/../core/lv_obj_style_gen.h ****     return (lv_coord_t)v.num;
  17:Middlewares/lvgl/src/widgets/../core/lv_obj_style_gen.h **** }
  18:Middlewares/lvgl/src/widgets/../core/lv_obj_style_gen.h **** 
  19:Middlewares/lvgl/src/widgets/../core/lv_obj_style_gen.h **** static inline lv_coord_t lv_obj_get_style_height(const struct _lv_obj_t * obj, uint32_t part)
  20:Middlewares/lvgl/src/widgets/../core/lv_obj_style_gen.h **** {
  21:Middlewares/lvgl/src/widgets/../core/lv_obj_style_gen.h ****     lv_style_value_t v = lv_obj_get_style_prop(obj, part, LV_STYLE_HEIGHT);
  22:Middlewares/lvgl/src/widgets/../core/lv_obj_style_gen.h ****     return (lv_coord_t)v.num;
  23:Middlewares/lvgl/src/widgets/../core/lv_obj_style_gen.h **** }
  24:Middlewares/lvgl/src/widgets/../core/lv_obj_style_gen.h **** 
  25:Middlewares/lvgl/src/widgets/../core/lv_obj_style_gen.h **** static inline lv_coord_t lv_obj_get_style_min_height(const struct _lv_obj_t * obj, uint32_t part)
  26:Middlewares/lvgl/src/widgets/../core/lv_obj_style_gen.h **** {
  27:Middlewares/lvgl/src/widgets/../core/lv_obj_style_gen.h ****     lv_style_value_t v = lv_obj_get_style_prop(obj, part, LV_STYLE_MIN_HEIGHT);
  28:Middlewares/lvgl/src/widgets/../core/lv_obj_style_gen.h ****     return (lv_coord_t)v.num;
  29:Middlewares/lvgl/src/widgets/../core/lv_obj_style_gen.h **** }
  30:Middlewares/lvgl/src/widgets/../core/lv_obj_style_gen.h **** 
  31:Middlewares/lvgl/src/widgets/../core/lv_obj_style_gen.h **** static inline lv_coord_t lv_obj_get_style_max_height(const struct _lv_obj_t * obj, uint32_t part)
  32:Middlewares/lvgl/src/widgets/../core/lv_obj_style_gen.h **** {
  33:Middlewares/lvgl/src/widgets/../core/lv_obj_style_gen.h ****     lv_style_value_t v = lv_obj_get_style_prop(obj, part, LV_STYLE_MAX_HEIGHT);
  34:Middlewares/lvgl/src/widgets/../core/lv_obj_style_gen.h ****     return (lv_coord_t)v.num;
  35:Middlewares/lvgl/src/widgets/../core/lv_obj_style_gen.h **** }
  36:Middlewares/lvgl/src/widgets/../core/lv_obj_style_gen.h **** 
  37:Middlewares/lvgl/src/widgets/../core/lv_obj_style_gen.h **** static inline lv_coord_t lv_obj_get_style_x(const struct _lv_obj_t * obj, uint32_t part)
  38:Middlewares/lvgl/src/widgets/../core/lv_obj_style_gen.h **** {
  39:Middlewares/lvgl/src/widgets/../core/lv_obj_style_gen.h ****     lv_style_value_t v = lv_obj_get_style_prop(obj, part, LV_STYLE_X);
  40:Middlewares/lvgl/src/widgets/../core/lv_obj_style_gen.h ****     return (lv_coord_t)v.num;
  41:Middlewares/lvgl/src/widgets/../core/lv_obj_style_gen.h **** }
  42:Middlewares/lvgl/src/widgets/../core/lv_obj_style_gen.h **** 
  43:Middlewares/lvgl/src/widgets/../core/lv_obj_style_gen.h **** static inline lv_coord_t lv_obj_get_style_y(const struct _lv_obj_t * obj, uint32_t part)
  44:Middlewares/lvgl/src/widgets/../core/lv_obj_style_gen.h **** {
  45:Middlewares/lvgl/src/widgets/../core/lv_obj_style_gen.h ****     lv_style_value_t v = lv_obj_get_style_prop(obj, part, LV_STYLE_Y);
  46:Middlewares/lvgl/src/widgets/../core/lv_obj_style_gen.h ****     return (lv_coord_t)v.num;
  47:Middlewares/lvgl/src/widgets/../core/lv_obj_style_gen.h **** }
  48:Middlewares/lvgl/src/widgets/../core/lv_obj_style_gen.h **** 
  49:Middlewares/lvgl/src/widgets/../core/lv_obj_style_gen.h **** static inline lv_align_t lv_obj_get_style_align(const struct _lv_obj_t * obj, uint32_t part)
  50:Middlewares/lvgl/src/widgets/../core/lv_obj_style_gen.h **** {
  51:Middlewares/lvgl/src/widgets/../core/lv_obj_style_gen.h ****     lv_style_value_t v = lv_obj_get_style_prop(obj, part, LV_STYLE_ALIGN);
  52:Middlewares/lvgl/src/widgets/../core/lv_obj_style_gen.h ****     return (lv_align_t)v.num;
  53:Middlewares/lvgl/src/widgets/../core/lv_obj_style_gen.h **** }
  54:Middlewares/lvgl/src/widgets/../core/lv_obj_style_gen.h **** 
  55:Middlewares/lvgl/src/widgets/../core/lv_obj_style_gen.h **** static inline lv_coord_t lv_obj_get_style_transform_width(const struct _lv_obj_t * obj, uint32_t pa
  56:Middlewares/lvgl/src/widgets/../core/lv_obj_style_gen.h **** {
ARM GAS  /tmp/ccCqaXuz.s 			page 16


  57:Middlewares/lvgl/src/widgets/../core/lv_obj_style_gen.h ****     lv_style_value_t v = lv_obj_get_style_prop(obj, part, LV_STYLE_TRANSFORM_WIDTH);
  58:Middlewares/lvgl/src/widgets/../core/lv_obj_style_gen.h ****     return (lv_coord_t)v.num;
  59:Middlewares/lvgl/src/widgets/../core/lv_obj_style_gen.h **** }
  60:Middlewares/lvgl/src/widgets/../core/lv_obj_style_gen.h **** 
  61:Middlewares/lvgl/src/widgets/../core/lv_obj_style_gen.h **** static inline lv_coord_t lv_obj_get_style_transform_height(const struct _lv_obj_t * obj, uint32_t p
  62:Middlewares/lvgl/src/widgets/../core/lv_obj_style_gen.h **** {
  63:Middlewares/lvgl/src/widgets/../core/lv_obj_style_gen.h ****     lv_style_value_t v = lv_obj_get_style_prop(obj, part, LV_STYLE_TRANSFORM_HEIGHT);
  64:Middlewares/lvgl/src/widgets/../core/lv_obj_style_gen.h ****     return (lv_coord_t)v.num;
  65:Middlewares/lvgl/src/widgets/../core/lv_obj_style_gen.h **** }
  66:Middlewares/lvgl/src/widgets/../core/lv_obj_style_gen.h **** 
  67:Middlewares/lvgl/src/widgets/../core/lv_obj_style_gen.h **** static inline lv_coord_t lv_obj_get_style_translate_x(const struct _lv_obj_t * obj, uint32_t part)
  68:Middlewares/lvgl/src/widgets/../core/lv_obj_style_gen.h **** {
  69:Middlewares/lvgl/src/widgets/../core/lv_obj_style_gen.h ****     lv_style_value_t v = lv_obj_get_style_prop(obj, part, LV_STYLE_TRANSLATE_X);
  70:Middlewares/lvgl/src/widgets/../core/lv_obj_style_gen.h ****     return (lv_coord_t)v.num;
  71:Middlewares/lvgl/src/widgets/../core/lv_obj_style_gen.h **** }
  72:Middlewares/lvgl/src/widgets/../core/lv_obj_style_gen.h **** 
  73:Middlewares/lvgl/src/widgets/../core/lv_obj_style_gen.h **** static inline lv_coord_t lv_obj_get_style_translate_y(const struct _lv_obj_t * obj, uint32_t part)
  74:Middlewares/lvgl/src/widgets/../core/lv_obj_style_gen.h **** {
  75:Middlewares/lvgl/src/widgets/../core/lv_obj_style_gen.h ****     lv_style_value_t v = lv_obj_get_style_prop(obj, part, LV_STYLE_TRANSLATE_Y);
  76:Middlewares/lvgl/src/widgets/../core/lv_obj_style_gen.h ****     return (lv_coord_t)v.num;
  77:Middlewares/lvgl/src/widgets/../core/lv_obj_style_gen.h **** }
  78:Middlewares/lvgl/src/widgets/../core/lv_obj_style_gen.h **** 
  79:Middlewares/lvgl/src/widgets/../core/lv_obj_style_gen.h **** static inline lv_coord_t lv_obj_get_style_transform_zoom(const struct _lv_obj_t * obj, uint32_t par
  80:Middlewares/lvgl/src/widgets/../core/lv_obj_style_gen.h **** {
  81:Middlewares/lvgl/src/widgets/../core/lv_obj_style_gen.h ****     lv_style_value_t v = lv_obj_get_style_prop(obj, part, LV_STYLE_TRANSFORM_ZOOM);
  82:Middlewares/lvgl/src/widgets/../core/lv_obj_style_gen.h ****     return (lv_coord_t)v.num;
  83:Middlewares/lvgl/src/widgets/../core/lv_obj_style_gen.h **** }
  84:Middlewares/lvgl/src/widgets/../core/lv_obj_style_gen.h **** 
  85:Middlewares/lvgl/src/widgets/../core/lv_obj_style_gen.h **** static inline lv_coord_t lv_obj_get_style_transform_angle(const struct _lv_obj_t * obj, uint32_t pa
  86:Middlewares/lvgl/src/widgets/../core/lv_obj_style_gen.h **** {
  87:Middlewares/lvgl/src/widgets/../core/lv_obj_style_gen.h ****     lv_style_value_t v = lv_obj_get_style_prop(obj, part, LV_STYLE_TRANSFORM_ANGLE);
  88:Middlewares/lvgl/src/widgets/../core/lv_obj_style_gen.h ****     return (lv_coord_t)v.num;
  89:Middlewares/lvgl/src/widgets/../core/lv_obj_style_gen.h **** }
  90:Middlewares/lvgl/src/widgets/../core/lv_obj_style_gen.h **** 
  91:Middlewares/lvgl/src/widgets/../core/lv_obj_style_gen.h **** static inline lv_coord_t lv_obj_get_style_pad_top(const struct _lv_obj_t * obj, uint32_t part)
  92:Middlewares/lvgl/src/widgets/../core/lv_obj_style_gen.h **** {
  93:Middlewares/lvgl/src/widgets/../core/lv_obj_style_gen.h ****     lv_style_value_t v = lv_obj_get_style_prop(obj, part, LV_STYLE_PAD_TOP);
  94:Middlewares/lvgl/src/widgets/../core/lv_obj_style_gen.h ****     return (lv_coord_t)v.num;
  95:Middlewares/lvgl/src/widgets/../core/lv_obj_style_gen.h **** }
  96:Middlewares/lvgl/src/widgets/../core/lv_obj_style_gen.h **** 
  97:Middlewares/lvgl/src/widgets/../core/lv_obj_style_gen.h **** static inline lv_coord_t lv_obj_get_style_pad_bottom(const struct _lv_obj_t * obj, uint32_t part)
  98:Middlewares/lvgl/src/widgets/../core/lv_obj_style_gen.h **** {
  99:Middlewares/lvgl/src/widgets/../core/lv_obj_style_gen.h ****     lv_style_value_t v = lv_obj_get_style_prop(obj, part, LV_STYLE_PAD_BOTTOM);
 100:Middlewares/lvgl/src/widgets/../core/lv_obj_style_gen.h ****     return (lv_coord_t)v.num;
 101:Middlewares/lvgl/src/widgets/../core/lv_obj_style_gen.h **** }
 102:Middlewares/lvgl/src/widgets/../core/lv_obj_style_gen.h **** 
 103:Middlewares/lvgl/src/widgets/../core/lv_obj_style_gen.h **** static inline lv_coord_t lv_obj_get_style_pad_left(const struct _lv_obj_t * obj, uint32_t part)
 104:Middlewares/lvgl/src/widgets/../core/lv_obj_style_gen.h **** {
 105:Middlewares/lvgl/src/widgets/../core/lv_obj_style_gen.h ****     lv_style_value_t v = lv_obj_get_style_prop(obj, part, LV_STYLE_PAD_LEFT);
 106:Middlewares/lvgl/src/widgets/../core/lv_obj_style_gen.h ****     return (lv_coord_t)v.num;
 107:Middlewares/lvgl/src/widgets/../core/lv_obj_style_gen.h **** }
 108:Middlewares/lvgl/src/widgets/../core/lv_obj_style_gen.h **** 
 109:Middlewares/lvgl/src/widgets/../core/lv_obj_style_gen.h **** static inline lv_coord_t lv_obj_get_style_pad_right(const struct _lv_obj_t * obj, uint32_t part)
 110:Middlewares/lvgl/src/widgets/../core/lv_obj_style_gen.h **** {
 111:Middlewares/lvgl/src/widgets/../core/lv_obj_style_gen.h ****     lv_style_value_t v = lv_obj_get_style_prop(obj, part, LV_STYLE_PAD_RIGHT);
 112:Middlewares/lvgl/src/widgets/../core/lv_obj_style_gen.h ****     return (lv_coord_t)v.num;
 113:Middlewares/lvgl/src/widgets/../core/lv_obj_style_gen.h **** }
ARM GAS  /tmp/ccCqaXuz.s 			page 17


 114:Middlewares/lvgl/src/widgets/../core/lv_obj_style_gen.h **** 
 115:Middlewares/lvgl/src/widgets/../core/lv_obj_style_gen.h **** static inline lv_coord_t lv_obj_get_style_pad_row(const struct _lv_obj_t * obj, uint32_t part)
 116:Middlewares/lvgl/src/widgets/../core/lv_obj_style_gen.h **** {
 117:Middlewares/lvgl/src/widgets/../core/lv_obj_style_gen.h ****     lv_style_value_t v = lv_obj_get_style_prop(obj, part, LV_STYLE_PAD_ROW);
 118:Middlewares/lvgl/src/widgets/../core/lv_obj_style_gen.h ****     return (lv_coord_t)v.num;
 119:Middlewares/lvgl/src/widgets/../core/lv_obj_style_gen.h **** }
 120:Middlewares/lvgl/src/widgets/../core/lv_obj_style_gen.h **** 
 121:Middlewares/lvgl/src/widgets/../core/lv_obj_style_gen.h **** static inline lv_coord_t lv_obj_get_style_pad_column(const struct _lv_obj_t * obj, uint32_t part)
 122:Middlewares/lvgl/src/widgets/../core/lv_obj_style_gen.h **** {
 123:Middlewares/lvgl/src/widgets/../core/lv_obj_style_gen.h ****     lv_style_value_t v = lv_obj_get_style_prop(obj, part, LV_STYLE_PAD_COLUMN);
 124:Middlewares/lvgl/src/widgets/../core/lv_obj_style_gen.h ****     return (lv_coord_t)v.num;
 125:Middlewares/lvgl/src/widgets/../core/lv_obj_style_gen.h **** }
 126:Middlewares/lvgl/src/widgets/../core/lv_obj_style_gen.h **** 
 127:Middlewares/lvgl/src/widgets/../core/lv_obj_style_gen.h **** static inline lv_coord_t lv_obj_get_style_radius(const struct _lv_obj_t * obj, uint32_t part)
 128:Middlewares/lvgl/src/widgets/../core/lv_obj_style_gen.h **** {
 129:Middlewares/lvgl/src/widgets/../core/lv_obj_style_gen.h ****     lv_style_value_t v = lv_obj_get_style_prop(obj, part, LV_STYLE_RADIUS);
 130:Middlewares/lvgl/src/widgets/../core/lv_obj_style_gen.h ****     return (lv_coord_t)v.num;
 131:Middlewares/lvgl/src/widgets/../core/lv_obj_style_gen.h **** }
 132:Middlewares/lvgl/src/widgets/../core/lv_obj_style_gen.h **** 
 133:Middlewares/lvgl/src/widgets/../core/lv_obj_style_gen.h **** static inline bool lv_obj_get_style_clip_corner(const struct _lv_obj_t * obj, uint32_t part)
 134:Middlewares/lvgl/src/widgets/../core/lv_obj_style_gen.h **** {
 135:Middlewares/lvgl/src/widgets/../core/lv_obj_style_gen.h ****     lv_style_value_t v = lv_obj_get_style_prop(obj, part, LV_STYLE_CLIP_CORNER);
 136:Middlewares/lvgl/src/widgets/../core/lv_obj_style_gen.h ****     return (bool)v.num;
 137:Middlewares/lvgl/src/widgets/../core/lv_obj_style_gen.h **** }
 138:Middlewares/lvgl/src/widgets/../core/lv_obj_style_gen.h **** 
 139:Middlewares/lvgl/src/widgets/../core/lv_obj_style_gen.h **** static inline lv_opa_t lv_obj_get_style_opa(const struct _lv_obj_t * obj, uint32_t part)
 140:Middlewares/lvgl/src/widgets/../core/lv_obj_style_gen.h **** {
 141:Middlewares/lvgl/src/widgets/../core/lv_obj_style_gen.h ****     lv_style_value_t v = lv_obj_get_style_prop(obj, part, LV_STYLE_OPA);
 142:Middlewares/lvgl/src/widgets/../core/lv_obj_style_gen.h ****     return (lv_opa_t)v.num;
 143:Middlewares/lvgl/src/widgets/../core/lv_obj_style_gen.h **** }
 144:Middlewares/lvgl/src/widgets/../core/lv_obj_style_gen.h **** 
 145:Middlewares/lvgl/src/widgets/../core/lv_obj_style_gen.h **** static inline const lv_color_filter_dsc_t * lv_obj_get_style_color_filter_dsc(const struct _lv_obj_
 146:Middlewares/lvgl/src/widgets/../core/lv_obj_style_gen.h **** {
 147:Middlewares/lvgl/src/widgets/../core/lv_obj_style_gen.h ****     lv_style_value_t v = lv_obj_get_style_prop(obj, part, LV_STYLE_COLOR_FILTER_DSC);
 148:Middlewares/lvgl/src/widgets/../core/lv_obj_style_gen.h ****     return (const lv_color_filter_dsc_t *)v.ptr;
 149:Middlewares/lvgl/src/widgets/../core/lv_obj_style_gen.h **** }
 150:Middlewares/lvgl/src/widgets/../core/lv_obj_style_gen.h **** 
 151:Middlewares/lvgl/src/widgets/../core/lv_obj_style_gen.h **** static inline lv_opa_t lv_obj_get_style_color_filter_opa(const struct _lv_obj_t * obj, uint32_t par
 152:Middlewares/lvgl/src/widgets/../core/lv_obj_style_gen.h **** {
 153:Middlewares/lvgl/src/widgets/../core/lv_obj_style_gen.h ****     lv_style_value_t v = lv_obj_get_style_prop(obj, part, LV_STYLE_COLOR_FILTER_OPA);
 154:Middlewares/lvgl/src/widgets/../core/lv_obj_style_gen.h ****     return (lv_opa_t)v.num;
 155:Middlewares/lvgl/src/widgets/../core/lv_obj_style_gen.h **** }
 156:Middlewares/lvgl/src/widgets/../core/lv_obj_style_gen.h **** 
 157:Middlewares/lvgl/src/widgets/../core/lv_obj_style_gen.h **** static inline uint32_t lv_obj_get_style_anim_time(const struct _lv_obj_t * obj, uint32_t part)
 158:Middlewares/lvgl/src/widgets/../core/lv_obj_style_gen.h **** {
 159:Middlewares/lvgl/src/widgets/../core/lv_obj_style_gen.h ****     lv_style_value_t v = lv_obj_get_style_prop(obj, part, LV_STYLE_ANIM_TIME);
 160:Middlewares/lvgl/src/widgets/../core/lv_obj_style_gen.h ****     return (uint32_t)v.num;
 161:Middlewares/lvgl/src/widgets/../core/lv_obj_style_gen.h **** }
 162:Middlewares/lvgl/src/widgets/../core/lv_obj_style_gen.h **** 
 163:Middlewares/lvgl/src/widgets/../core/lv_obj_style_gen.h **** static inline uint32_t lv_obj_get_style_anim_speed(const struct _lv_obj_t * obj, uint32_t part)
 164:Middlewares/lvgl/src/widgets/../core/lv_obj_style_gen.h **** {
 165:Middlewares/lvgl/src/widgets/../core/lv_obj_style_gen.h ****     lv_style_value_t v = lv_obj_get_style_prop(obj, part, LV_STYLE_ANIM_SPEED);
 166:Middlewares/lvgl/src/widgets/../core/lv_obj_style_gen.h ****     return (uint32_t)v.num;
 167:Middlewares/lvgl/src/widgets/../core/lv_obj_style_gen.h **** }
 168:Middlewares/lvgl/src/widgets/../core/lv_obj_style_gen.h **** 
 169:Middlewares/lvgl/src/widgets/../core/lv_obj_style_gen.h **** static inline const lv_style_transition_dsc_t * lv_obj_get_style_transition(const struct _lv_obj_t 
 170:Middlewares/lvgl/src/widgets/../core/lv_obj_style_gen.h **** {
ARM GAS  /tmp/ccCqaXuz.s 			page 18


 171:Middlewares/lvgl/src/widgets/../core/lv_obj_style_gen.h ****     lv_style_value_t v = lv_obj_get_style_prop(obj, part, LV_STYLE_TRANSITION);
 172:Middlewares/lvgl/src/widgets/../core/lv_obj_style_gen.h ****     return (const lv_style_transition_dsc_t *)v.ptr;
 173:Middlewares/lvgl/src/widgets/../core/lv_obj_style_gen.h **** }
 174:Middlewares/lvgl/src/widgets/../core/lv_obj_style_gen.h **** 
 175:Middlewares/lvgl/src/widgets/../core/lv_obj_style_gen.h **** static inline lv_blend_mode_t lv_obj_get_style_blend_mode(const struct _lv_obj_t * obj, uint32_t pa
 176:Middlewares/lvgl/src/widgets/../core/lv_obj_style_gen.h **** {
 177:Middlewares/lvgl/src/widgets/../core/lv_obj_style_gen.h ****     lv_style_value_t v = lv_obj_get_style_prop(obj, part, LV_STYLE_BLEND_MODE);
 178:Middlewares/lvgl/src/widgets/../core/lv_obj_style_gen.h ****     return (lv_blend_mode_t)v.num;
 179:Middlewares/lvgl/src/widgets/../core/lv_obj_style_gen.h **** }
 180:Middlewares/lvgl/src/widgets/../core/lv_obj_style_gen.h **** 
 181:Middlewares/lvgl/src/widgets/../core/lv_obj_style_gen.h **** static inline uint16_t lv_obj_get_style_layout(const struct _lv_obj_t * obj, uint32_t part)
 182:Middlewares/lvgl/src/widgets/../core/lv_obj_style_gen.h **** {
 183:Middlewares/lvgl/src/widgets/../core/lv_obj_style_gen.h ****     lv_style_value_t v = lv_obj_get_style_prop(obj, part, LV_STYLE_LAYOUT);
 184:Middlewares/lvgl/src/widgets/../core/lv_obj_style_gen.h ****     return (uint16_t)v.num;
 185:Middlewares/lvgl/src/widgets/../core/lv_obj_style_gen.h **** }
 186:Middlewares/lvgl/src/widgets/../core/lv_obj_style_gen.h **** 
 187:Middlewares/lvgl/src/widgets/../core/lv_obj_style_gen.h **** static inline lv_base_dir_t lv_obj_get_style_base_dir(const struct _lv_obj_t * obj, uint32_t part)
 188:Middlewares/lvgl/src/widgets/../core/lv_obj_style_gen.h **** {
 189:Middlewares/lvgl/src/widgets/../core/lv_obj_style_gen.h ****     lv_style_value_t v = lv_obj_get_style_prop(obj, part, LV_STYLE_BASE_DIR);
 190:Middlewares/lvgl/src/widgets/../core/lv_obj_style_gen.h ****     return (lv_base_dir_t)v.num;
 191:Middlewares/lvgl/src/widgets/../core/lv_obj_style_gen.h **** }
 192:Middlewares/lvgl/src/widgets/../core/lv_obj_style_gen.h **** 
 193:Middlewares/lvgl/src/widgets/../core/lv_obj_style_gen.h **** static inline lv_color_t lv_obj_get_style_bg_color(const struct _lv_obj_t * obj, uint32_t part)
 194:Middlewares/lvgl/src/widgets/../core/lv_obj_style_gen.h **** {
 195:Middlewares/lvgl/src/widgets/../core/lv_obj_style_gen.h ****     lv_style_value_t v = lv_obj_get_style_prop(obj, part, LV_STYLE_BG_COLOR);
 196:Middlewares/lvgl/src/widgets/../core/lv_obj_style_gen.h ****     return v.color;
 197:Middlewares/lvgl/src/widgets/../core/lv_obj_style_gen.h **** }
 198:Middlewares/lvgl/src/widgets/../core/lv_obj_style_gen.h **** 
 199:Middlewares/lvgl/src/widgets/../core/lv_obj_style_gen.h **** static inline lv_color_t lv_obj_get_style_bg_color_filtered(const struct _lv_obj_t * obj, uint32_t 
 200:Middlewares/lvgl/src/widgets/../core/lv_obj_style_gen.h **** {
 201:Middlewares/lvgl/src/widgets/../core/lv_obj_style_gen.h ****     lv_style_value_t v = lv_obj_get_style_prop(obj, part, LV_STYLE_BG_COLOR_FILTERED);
 202:Middlewares/lvgl/src/widgets/../core/lv_obj_style_gen.h ****     return v.color;
 203:Middlewares/lvgl/src/widgets/../core/lv_obj_style_gen.h **** }
 204:Middlewares/lvgl/src/widgets/../core/lv_obj_style_gen.h **** 
 205:Middlewares/lvgl/src/widgets/../core/lv_obj_style_gen.h **** static inline lv_opa_t lv_obj_get_style_bg_opa(const struct _lv_obj_t * obj, uint32_t part)
 206:Middlewares/lvgl/src/widgets/../core/lv_obj_style_gen.h **** {
 207:Middlewares/lvgl/src/widgets/../core/lv_obj_style_gen.h ****     lv_style_value_t v = lv_obj_get_style_prop(obj, part, LV_STYLE_BG_OPA);
 208:Middlewares/lvgl/src/widgets/../core/lv_obj_style_gen.h ****     return (lv_opa_t)v.num;
 209:Middlewares/lvgl/src/widgets/../core/lv_obj_style_gen.h **** }
 210:Middlewares/lvgl/src/widgets/../core/lv_obj_style_gen.h **** 
 211:Middlewares/lvgl/src/widgets/../core/lv_obj_style_gen.h **** static inline lv_color_t lv_obj_get_style_bg_grad_color(const struct _lv_obj_t * obj, uint32_t part
 212:Middlewares/lvgl/src/widgets/../core/lv_obj_style_gen.h **** {
 213:Middlewares/lvgl/src/widgets/../core/lv_obj_style_gen.h ****     lv_style_value_t v = lv_obj_get_style_prop(obj, part, LV_STYLE_BG_GRAD_COLOR);
 214:Middlewares/lvgl/src/widgets/../core/lv_obj_style_gen.h ****     return v.color;
 215:Middlewares/lvgl/src/widgets/../core/lv_obj_style_gen.h **** }
 216:Middlewares/lvgl/src/widgets/../core/lv_obj_style_gen.h **** 
 217:Middlewares/lvgl/src/widgets/../core/lv_obj_style_gen.h **** static inline lv_color_t lv_obj_get_style_bg_grad_color_filtered(const struct _lv_obj_t * obj, uint
 218:Middlewares/lvgl/src/widgets/../core/lv_obj_style_gen.h **** {
 219:Middlewares/lvgl/src/widgets/../core/lv_obj_style_gen.h ****     lv_style_value_t v = lv_obj_get_style_prop(obj, part, LV_STYLE_BG_GRAD_COLOR_FILTERED);
 220:Middlewares/lvgl/src/widgets/../core/lv_obj_style_gen.h ****     return v.color;
 221:Middlewares/lvgl/src/widgets/../core/lv_obj_style_gen.h **** }
 222:Middlewares/lvgl/src/widgets/../core/lv_obj_style_gen.h **** 
 223:Middlewares/lvgl/src/widgets/../core/lv_obj_style_gen.h **** static inline lv_grad_dir_t lv_obj_get_style_bg_grad_dir(const struct _lv_obj_t * obj, uint32_t par
 224:Middlewares/lvgl/src/widgets/../core/lv_obj_style_gen.h **** {
 225:Middlewares/lvgl/src/widgets/../core/lv_obj_style_gen.h ****     lv_style_value_t v = lv_obj_get_style_prop(obj, part, LV_STYLE_BG_GRAD_DIR);
 226:Middlewares/lvgl/src/widgets/../core/lv_obj_style_gen.h ****     return (lv_grad_dir_t)v.num;
 227:Middlewares/lvgl/src/widgets/../core/lv_obj_style_gen.h **** }
ARM GAS  /tmp/ccCqaXuz.s 			page 19


 228:Middlewares/lvgl/src/widgets/../core/lv_obj_style_gen.h **** 
 229:Middlewares/lvgl/src/widgets/../core/lv_obj_style_gen.h **** static inline lv_coord_t lv_obj_get_style_bg_main_stop(const struct _lv_obj_t * obj, uint32_t part)
 230:Middlewares/lvgl/src/widgets/../core/lv_obj_style_gen.h **** {
 231:Middlewares/lvgl/src/widgets/../core/lv_obj_style_gen.h ****     lv_style_value_t v = lv_obj_get_style_prop(obj, part, LV_STYLE_BG_MAIN_STOP);
 232:Middlewares/lvgl/src/widgets/../core/lv_obj_style_gen.h ****     return (lv_coord_t)v.num;
 233:Middlewares/lvgl/src/widgets/../core/lv_obj_style_gen.h **** }
 234:Middlewares/lvgl/src/widgets/../core/lv_obj_style_gen.h **** 
 235:Middlewares/lvgl/src/widgets/../core/lv_obj_style_gen.h **** static inline lv_coord_t lv_obj_get_style_bg_grad_stop(const struct _lv_obj_t * obj, uint32_t part)
 236:Middlewares/lvgl/src/widgets/../core/lv_obj_style_gen.h **** {
 237:Middlewares/lvgl/src/widgets/../core/lv_obj_style_gen.h ****     lv_style_value_t v = lv_obj_get_style_prop(obj, part, LV_STYLE_BG_GRAD_STOP);
 238:Middlewares/lvgl/src/widgets/../core/lv_obj_style_gen.h ****     return (lv_coord_t)v.num;
 239:Middlewares/lvgl/src/widgets/../core/lv_obj_style_gen.h **** }
 240:Middlewares/lvgl/src/widgets/../core/lv_obj_style_gen.h **** 
 241:Middlewares/lvgl/src/widgets/../core/lv_obj_style_gen.h **** static inline const void * lv_obj_get_style_bg_img_src(const struct _lv_obj_t * obj, uint32_t part)
 242:Middlewares/lvgl/src/widgets/../core/lv_obj_style_gen.h **** {
 243:Middlewares/lvgl/src/widgets/../core/lv_obj_style_gen.h ****     lv_style_value_t v = lv_obj_get_style_prop(obj, part, LV_STYLE_BG_IMG_SRC);
 244:Middlewares/lvgl/src/widgets/../core/lv_obj_style_gen.h ****     return (const void *)v.ptr;
 245:Middlewares/lvgl/src/widgets/../core/lv_obj_style_gen.h **** }
 246:Middlewares/lvgl/src/widgets/../core/lv_obj_style_gen.h **** 
 247:Middlewares/lvgl/src/widgets/../core/lv_obj_style_gen.h **** static inline lv_opa_t lv_obj_get_style_bg_img_opa(const struct _lv_obj_t * obj, uint32_t part)
 248:Middlewares/lvgl/src/widgets/../core/lv_obj_style_gen.h **** {
 249:Middlewares/lvgl/src/widgets/../core/lv_obj_style_gen.h ****     lv_style_value_t v = lv_obj_get_style_prop(obj, part, LV_STYLE_BG_IMG_OPA);
 250:Middlewares/lvgl/src/widgets/../core/lv_obj_style_gen.h ****     return (lv_opa_t)v.num;
 251:Middlewares/lvgl/src/widgets/../core/lv_obj_style_gen.h **** }
 252:Middlewares/lvgl/src/widgets/../core/lv_obj_style_gen.h **** 
 253:Middlewares/lvgl/src/widgets/../core/lv_obj_style_gen.h **** static inline lv_color_t lv_obj_get_style_bg_img_recolor(const struct _lv_obj_t * obj, uint32_t par
 254:Middlewares/lvgl/src/widgets/../core/lv_obj_style_gen.h **** {
 255:Middlewares/lvgl/src/widgets/../core/lv_obj_style_gen.h ****     lv_style_value_t v = lv_obj_get_style_prop(obj, part, LV_STYLE_BG_IMG_RECOLOR);
 256:Middlewares/lvgl/src/widgets/../core/lv_obj_style_gen.h ****     return v.color;
 257:Middlewares/lvgl/src/widgets/../core/lv_obj_style_gen.h **** }
 258:Middlewares/lvgl/src/widgets/../core/lv_obj_style_gen.h **** 
 259:Middlewares/lvgl/src/widgets/../core/lv_obj_style_gen.h **** static inline lv_color_t lv_obj_get_style_bg_img_recolor_filtered(const struct _lv_obj_t * obj, uin
 260:Middlewares/lvgl/src/widgets/../core/lv_obj_style_gen.h **** {
 261:Middlewares/lvgl/src/widgets/../core/lv_obj_style_gen.h ****     lv_style_value_t v = lv_obj_get_style_prop(obj, part, LV_STYLE_BG_IMG_RECOLOR_FILTERED);
 262:Middlewares/lvgl/src/widgets/../core/lv_obj_style_gen.h ****     return v.color;
 263:Middlewares/lvgl/src/widgets/../core/lv_obj_style_gen.h **** }
 264:Middlewares/lvgl/src/widgets/../core/lv_obj_style_gen.h **** 
 265:Middlewares/lvgl/src/widgets/../core/lv_obj_style_gen.h **** static inline lv_opa_t lv_obj_get_style_bg_img_recolor_opa(const struct _lv_obj_t * obj, uint32_t p
 266:Middlewares/lvgl/src/widgets/../core/lv_obj_style_gen.h **** {
 267:Middlewares/lvgl/src/widgets/../core/lv_obj_style_gen.h ****     lv_style_value_t v = lv_obj_get_style_prop(obj, part, LV_STYLE_BG_IMG_RECOLOR_OPA);
 268:Middlewares/lvgl/src/widgets/../core/lv_obj_style_gen.h ****     return (lv_opa_t)v.num;
 269:Middlewares/lvgl/src/widgets/../core/lv_obj_style_gen.h **** }
 270:Middlewares/lvgl/src/widgets/../core/lv_obj_style_gen.h **** 
 271:Middlewares/lvgl/src/widgets/../core/lv_obj_style_gen.h **** static inline bool lv_obj_get_style_bg_img_tiled(const struct _lv_obj_t * obj, uint32_t part)
 272:Middlewares/lvgl/src/widgets/../core/lv_obj_style_gen.h **** {
 273:Middlewares/lvgl/src/widgets/../core/lv_obj_style_gen.h ****     lv_style_value_t v = lv_obj_get_style_prop(obj, part, LV_STYLE_BG_IMG_TILED);
 274:Middlewares/lvgl/src/widgets/../core/lv_obj_style_gen.h ****     return (bool)v.num;
 275:Middlewares/lvgl/src/widgets/../core/lv_obj_style_gen.h **** }
 276:Middlewares/lvgl/src/widgets/../core/lv_obj_style_gen.h **** 
 277:Middlewares/lvgl/src/widgets/../core/lv_obj_style_gen.h **** static inline lv_color_t lv_obj_get_style_border_color(const struct _lv_obj_t * obj, uint32_t part)
 278:Middlewares/lvgl/src/widgets/../core/lv_obj_style_gen.h **** {
 279:Middlewares/lvgl/src/widgets/../core/lv_obj_style_gen.h ****     lv_style_value_t v = lv_obj_get_style_prop(obj, part, LV_STYLE_BORDER_COLOR);
 280:Middlewares/lvgl/src/widgets/../core/lv_obj_style_gen.h ****     return v.color;
 281:Middlewares/lvgl/src/widgets/../core/lv_obj_style_gen.h **** }
 282:Middlewares/lvgl/src/widgets/../core/lv_obj_style_gen.h **** 
 283:Middlewares/lvgl/src/widgets/../core/lv_obj_style_gen.h **** static inline lv_color_t lv_obj_get_style_border_color_filtered(const struct _lv_obj_t * obj, uint3
 284:Middlewares/lvgl/src/widgets/../core/lv_obj_style_gen.h **** {
ARM GAS  /tmp/ccCqaXuz.s 			page 20


 285:Middlewares/lvgl/src/widgets/../core/lv_obj_style_gen.h ****     lv_style_value_t v = lv_obj_get_style_prop(obj, part, LV_STYLE_BORDER_COLOR_FILTERED);
 286:Middlewares/lvgl/src/widgets/../core/lv_obj_style_gen.h ****     return v.color;
 287:Middlewares/lvgl/src/widgets/../core/lv_obj_style_gen.h **** }
 288:Middlewares/lvgl/src/widgets/../core/lv_obj_style_gen.h **** 
 289:Middlewares/lvgl/src/widgets/../core/lv_obj_style_gen.h **** static inline lv_opa_t lv_obj_get_style_border_opa(const struct _lv_obj_t * obj, uint32_t part)
 290:Middlewares/lvgl/src/widgets/../core/lv_obj_style_gen.h **** {
 291:Middlewares/lvgl/src/widgets/../core/lv_obj_style_gen.h ****     lv_style_value_t v = lv_obj_get_style_prop(obj, part, LV_STYLE_BORDER_OPA);
 292:Middlewares/lvgl/src/widgets/../core/lv_obj_style_gen.h ****     return (lv_opa_t)v.num;
 293:Middlewares/lvgl/src/widgets/../core/lv_obj_style_gen.h **** }
 294:Middlewares/lvgl/src/widgets/../core/lv_obj_style_gen.h **** 
 295:Middlewares/lvgl/src/widgets/../core/lv_obj_style_gen.h **** static inline lv_coord_t lv_obj_get_style_border_width(const struct _lv_obj_t * obj, uint32_t part)
 296:Middlewares/lvgl/src/widgets/../core/lv_obj_style_gen.h **** {
 297:Middlewares/lvgl/src/widgets/../core/lv_obj_style_gen.h ****     lv_style_value_t v = lv_obj_get_style_prop(obj, part, LV_STYLE_BORDER_WIDTH);
 298:Middlewares/lvgl/src/widgets/../core/lv_obj_style_gen.h ****     return (lv_coord_t)v.num;
 299:Middlewares/lvgl/src/widgets/../core/lv_obj_style_gen.h **** }
 300:Middlewares/lvgl/src/widgets/../core/lv_obj_style_gen.h **** 
 301:Middlewares/lvgl/src/widgets/../core/lv_obj_style_gen.h **** static inline lv_border_side_t lv_obj_get_style_border_side(const struct _lv_obj_t * obj, uint32_t 
 302:Middlewares/lvgl/src/widgets/../core/lv_obj_style_gen.h **** {
 303:Middlewares/lvgl/src/widgets/../core/lv_obj_style_gen.h ****     lv_style_value_t v = lv_obj_get_style_prop(obj, part, LV_STYLE_BORDER_SIDE);
 304:Middlewares/lvgl/src/widgets/../core/lv_obj_style_gen.h ****     return (lv_border_side_t)v.num;
 305:Middlewares/lvgl/src/widgets/../core/lv_obj_style_gen.h **** }
 306:Middlewares/lvgl/src/widgets/../core/lv_obj_style_gen.h **** 
 307:Middlewares/lvgl/src/widgets/../core/lv_obj_style_gen.h **** static inline bool lv_obj_get_style_border_post(const struct _lv_obj_t * obj, uint32_t part)
 308:Middlewares/lvgl/src/widgets/../core/lv_obj_style_gen.h **** {
 309:Middlewares/lvgl/src/widgets/../core/lv_obj_style_gen.h ****     lv_style_value_t v = lv_obj_get_style_prop(obj, part, LV_STYLE_BORDER_POST);
 310:Middlewares/lvgl/src/widgets/../core/lv_obj_style_gen.h ****     return (bool)v.num;
 311:Middlewares/lvgl/src/widgets/../core/lv_obj_style_gen.h **** }
 312:Middlewares/lvgl/src/widgets/../core/lv_obj_style_gen.h **** 
 313:Middlewares/lvgl/src/widgets/../core/lv_obj_style_gen.h **** static inline lv_color_t lv_obj_get_style_text_color(const struct _lv_obj_t * obj, uint32_t part)
 314:Middlewares/lvgl/src/widgets/../core/lv_obj_style_gen.h **** {
 315:Middlewares/lvgl/src/widgets/../core/lv_obj_style_gen.h ****     lv_style_value_t v = lv_obj_get_style_prop(obj, part, LV_STYLE_TEXT_COLOR);
 316:Middlewares/lvgl/src/widgets/../core/lv_obj_style_gen.h ****     return v.color;
 317:Middlewares/lvgl/src/widgets/../core/lv_obj_style_gen.h **** }
 318:Middlewares/lvgl/src/widgets/../core/lv_obj_style_gen.h **** 
 319:Middlewares/lvgl/src/widgets/../core/lv_obj_style_gen.h **** static inline lv_color_t lv_obj_get_style_text_color_filtered(const struct _lv_obj_t * obj, uint32_
 320:Middlewares/lvgl/src/widgets/../core/lv_obj_style_gen.h **** {
 321:Middlewares/lvgl/src/widgets/../core/lv_obj_style_gen.h ****     lv_style_value_t v = lv_obj_get_style_prop(obj, part, LV_STYLE_TEXT_COLOR_FILTERED);
 322:Middlewares/lvgl/src/widgets/../core/lv_obj_style_gen.h ****     return v.color;
 323:Middlewares/lvgl/src/widgets/../core/lv_obj_style_gen.h **** }
 324:Middlewares/lvgl/src/widgets/../core/lv_obj_style_gen.h **** 
 325:Middlewares/lvgl/src/widgets/../core/lv_obj_style_gen.h **** static inline lv_opa_t lv_obj_get_style_text_opa(const struct _lv_obj_t * obj, uint32_t part)
 326:Middlewares/lvgl/src/widgets/../core/lv_obj_style_gen.h **** {
 327:Middlewares/lvgl/src/widgets/../core/lv_obj_style_gen.h ****     lv_style_value_t v = lv_obj_get_style_prop(obj, part, LV_STYLE_TEXT_OPA);
 328:Middlewares/lvgl/src/widgets/../core/lv_obj_style_gen.h ****     return (lv_opa_t)v.num;
 329:Middlewares/lvgl/src/widgets/../core/lv_obj_style_gen.h **** }
 330:Middlewares/lvgl/src/widgets/../core/lv_obj_style_gen.h **** 
 331:Middlewares/lvgl/src/widgets/../core/lv_obj_style_gen.h **** static inline const lv_font_t * lv_obj_get_style_text_font(const struct _lv_obj_t * obj, uint32_t p
 332:Middlewares/lvgl/src/widgets/../core/lv_obj_style_gen.h **** {
 333:Middlewares/lvgl/src/widgets/../core/lv_obj_style_gen.h ****     lv_style_value_t v = lv_obj_get_style_prop(obj, part, LV_STYLE_TEXT_FONT);
 334:Middlewares/lvgl/src/widgets/../core/lv_obj_style_gen.h ****     return (const lv_font_t *)v.ptr;
 335:Middlewares/lvgl/src/widgets/../core/lv_obj_style_gen.h **** }
 336:Middlewares/lvgl/src/widgets/../core/lv_obj_style_gen.h **** 
 337:Middlewares/lvgl/src/widgets/../core/lv_obj_style_gen.h **** static inline lv_coord_t lv_obj_get_style_text_letter_space(const struct _lv_obj_t * obj, uint32_t 
 338:Middlewares/lvgl/src/widgets/../core/lv_obj_style_gen.h **** {
 339:Middlewares/lvgl/src/widgets/../core/lv_obj_style_gen.h ****     lv_style_value_t v = lv_obj_get_style_prop(obj, part, LV_STYLE_TEXT_LETTER_SPACE);
 340:Middlewares/lvgl/src/widgets/../core/lv_obj_style_gen.h ****     return (lv_coord_t)v.num;
 341:Middlewares/lvgl/src/widgets/../core/lv_obj_style_gen.h **** }
ARM GAS  /tmp/ccCqaXuz.s 			page 21


 342:Middlewares/lvgl/src/widgets/../core/lv_obj_style_gen.h **** 
 343:Middlewares/lvgl/src/widgets/../core/lv_obj_style_gen.h **** static inline lv_coord_t lv_obj_get_style_text_line_space(const struct _lv_obj_t * obj, uint32_t pa
 344:Middlewares/lvgl/src/widgets/../core/lv_obj_style_gen.h **** {
 345:Middlewares/lvgl/src/widgets/../core/lv_obj_style_gen.h ****     lv_style_value_t v = lv_obj_get_style_prop(obj, part, LV_STYLE_TEXT_LINE_SPACE);
 346:Middlewares/lvgl/src/widgets/../core/lv_obj_style_gen.h ****     return (lv_coord_t)v.num;
 347:Middlewares/lvgl/src/widgets/../core/lv_obj_style_gen.h **** }
 348:Middlewares/lvgl/src/widgets/../core/lv_obj_style_gen.h **** 
 349:Middlewares/lvgl/src/widgets/../core/lv_obj_style_gen.h **** static inline lv_text_decor_t lv_obj_get_style_text_decor(const struct _lv_obj_t * obj, uint32_t pa
 350:Middlewares/lvgl/src/widgets/../core/lv_obj_style_gen.h **** {
 351:Middlewares/lvgl/src/widgets/../core/lv_obj_style_gen.h ****     lv_style_value_t v = lv_obj_get_style_prop(obj, part, LV_STYLE_TEXT_DECOR);
 352:Middlewares/lvgl/src/widgets/../core/lv_obj_style_gen.h ****     return (lv_text_decor_t)v.num;
 353:Middlewares/lvgl/src/widgets/../core/lv_obj_style_gen.h **** }
 354:Middlewares/lvgl/src/widgets/../core/lv_obj_style_gen.h **** 
 355:Middlewares/lvgl/src/widgets/../core/lv_obj_style_gen.h **** static inline lv_text_align_t lv_obj_get_style_text_align(const struct _lv_obj_t * obj, uint32_t pa
 356:Middlewares/lvgl/src/widgets/../core/lv_obj_style_gen.h **** {
 357:Middlewares/lvgl/src/widgets/../core/lv_obj_style_gen.h ****     lv_style_value_t v = lv_obj_get_style_prop(obj, part, LV_STYLE_TEXT_ALIGN);
 358:Middlewares/lvgl/src/widgets/../core/lv_obj_style_gen.h ****     return (lv_text_align_t)v.num;
 359:Middlewares/lvgl/src/widgets/../core/lv_obj_style_gen.h **** }
 360:Middlewares/lvgl/src/widgets/../core/lv_obj_style_gen.h **** 
 361:Middlewares/lvgl/src/widgets/../core/lv_obj_style_gen.h **** static inline lv_opa_t lv_obj_get_style_img_opa(const struct _lv_obj_t * obj, uint32_t part)
 136              		.loc 2 361 24 view .LVU32
 137              	.LBB73:
 362:Middlewares/lvgl/src/widgets/../core/lv_obj_style_gen.h **** {
 363:Middlewares/lvgl/src/widgets/../core/lv_obj_style_gen.h ****     lv_style_value_t v = lv_obj_get_style_prop(obj, part, LV_STYLE_IMG_OPA);
 138              		.loc 2 363 5 view .LVU33
 139              		.loc 2 363 26 is_stmt 0 view .LVU34
 140 005a 4622     		movs	r2, #70
 141 005c 0021     		movs	r1, #0
 142 005e 2046     		mov	r0, r4
 143              	.LVL11:
 144              		.loc 2 363 26 view .LVU35
 145 0060 FFF7FEFF 		bl	lv_obj_get_style_prop
 146              	.LVL12:
 364:Middlewares/lvgl/src/widgets/../core/lv_obj_style_gen.h ****     return (lv_opa_t)v.num;
 147              		.loc 2 364 5 is_stmt 1 view .LVU36
 148              		.loc 2 364 12 is_stmt 0 view .LVU37
 149 0064 C0B2     		uxtb	r0, r0
 150              	.LVL13:
 151              		.loc 2 364 12 view .LVU38
 152              	.LBE73:
 153              	.LBE72:
 509:Middlewares/lvgl/src/widgets/lv_img.c ****             info->res = LV_COVER_RES_NOT_COVER;
 154              		.loc 1 509 11 view .LVU39
 155 0066 FF28     		cmp	r0, #255
 156 0068 02D0     		beq	.L6
 510:Middlewares/lvgl/src/widgets/lv_img.c ****             return;
 157              		.loc 1 510 13 is_stmt 1 view .LVU40
 510:Middlewares/lvgl/src/widgets/lv_img.c ****             return;
 158              		.loc 1 510 23 is_stmt 0 view .LVU41
 159 006a 0123     		movs	r3, #1
 160 006c 2B70     		strb	r3, [r5]
 511:Middlewares/lvgl/src/widgets/lv_img.c ****         }
 161              		.loc 1 511 13 is_stmt 1 view .LVU42
 162 006e D9E7     		b	.L1
 163              	.L6:
 514:Middlewares/lvgl/src/widgets/lv_img.c ****         angle_final += img->angle;
 164              		.loc 1 514 9 view .LVU43
ARM GAS  /tmp/ccCqaXuz.s 			page 22


 165              	.LVL14:
 166              	.LBB74:
 167              	.LBI74:
  85:Middlewares/lvgl/src/widgets/../core/lv_obj_style_gen.h **** {
 168              		.loc 2 85 26 view .LVU44
 169              	.LBB75:
  87:Middlewares/lvgl/src/widgets/../core/lv_obj_style_gen.h ****     return (lv_coord_t)v.num;
 170              		.loc 2 87 5 view .LVU45
  87:Middlewares/lvgl/src/widgets/../core/lv_obj_style_gen.h ****     return (lv_coord_t)v.num;
 171              		.loc 2 87 26 is_stmt 0 view .LVU46
 172 0070 40F60F02 		movw	r2, #2063
 173 0074 0021     		movs	r1, #0
 174 0076 2046     		mov	r0, r4
 175 0078 FFF7FEFF 		bl	lv_obj_get_style_prop
 176              	.LVL15:
  88:Middlewares/lvgl/src/widgets/../core/lv_obj_style_gen.h **** }
 177              		.loc 2 88 5 is_stmt 1 view .LVU47
  88:Middlewares/lvgl/src/widgets/../core/lv_obj_style_gen.h **** }
 178              		.loc 2 88 5 is_stmt 0 view .LVU48
 179              	.LBE75:
 180              	.LBE74:
 515:Middlewares/lvgl/src/widgets/lv_img.c **** 
 181              		.loc 1 515 9 is_stmt 1 view .LVU49
 515:Middlewares/lvgl/src/widgets/lv_img.c **** 
 182              		.loc 1 515 27 is_stmt 0 view .LVU50
 183 007c 238E     		ldrh	r3, [r4, #48]
 515:Middlewares/lvgl/src/widgets/lv_img.c **** 
 184              		.loc 1 515 21 view .LVU51
 185 007e 03FA80F0 		sxtah	r0, r3, r0
 186              	.LVL16:
 517:Middlewares/lvgl/src/widgets/lv_img.c ****             info->res = LV_COVER_RES_NOT_COVER;
 187              		.loc 1 517 9 is_stmt 1 view .LVU52
 517:Middlewares/lvgl/src/widgets/lv_img.c ****             info->res = LV_COVER_RES_NOT_COVER;
 188              		.loc 1 517 11 is_stmt 0 view .LVU53
 189 0082 10B1     		cbz	r0, .L7
 518:Middlewares/lvgl/src/widgets/lv_img.c ****             return;
 190              		.loc 1 518 13 is_stmt 1 view .LVU54
 518:Middlewares/lvgl/src/widgets/lv_img.c ****             return;
 191              		.loc 1 518 23 is_stmt 0 view .LVU55
 192 0084 0123     		movs	r3, #1
 193 0086 2B70     		strb	r3, [r5]
 519:Middlewares/lvgl/src/widgets/lv_img.c ****         }
 194              		.loc 1 519 13 is_stmt 1 view .LVU56
 195 0088 CCE7     		b	.L1
 196              	.L7:
 522:Middlewares/lvgl/src/widgets/lv_img.c ****         zoom_final = (zoom_final * img->zoom) >> 8;
 197              		.loc 1 522 9 view .LVU57
 198              	.LVL17:
 199              	.LBB76:
 200              	.LBI76:
  79:Middlewares/lvgl/src/widgets/../core/lv_obj_style_gen.h **** {
 201              		.loc 2 79 26 view .LVU58
 202              	.LBB77:
  81:Middlewares/lvgl/src/widgets/../core/lv_obj_style_gen.h ****     return (lv_coord_t)v.num;
 203              		.loc 2 81 5 view .LVU59
  81:Middlewares/lvgl/src/widgets/../core/lv_obj_style_gen.h ****     return (lv_coord_t)v.num;
 204              		.loc 2 81 26 is_stmt 0 view .LVU60
ARM GAS  /tmp/ccCqaXuz.s 			page 23


 205 008a 40F60E02 		movw	r2, #2062
 206 008e 0021     		movs	r1, #0
 207 0090 2046     		mov	r0, r4
 208              	.LVL18:
  81:Middlewares/lvgl/src/widgets/../core/lv_obj_style_gen.h ****     return (lv_coord_t)v.num;
 209              		.loc 2 81 26 view .LVU61
 210 0092 FFF7FEFF 		bl	lv_obj_get_style_prop
 211              	.LVL19:
  82:Middlewares/lvgl/src/widgets/../core/lv_obj_style_gen.h **** }
 212              		.loc 2 82 5 is_stmt 1 view .LVU62
  82:Middlewares/lvgl/src/widgets/../core/lv_obj_style_gen.h **** }
 213              		.loc 2 82 12 is_stmt 0 view .LVU63
 214 0096 03B2     		sxth	r3, r0
 215              	.LVL20:
  82:Middlewares/lvgl/src/widgets/../core/lv_obj_style_gen.h **** }
 216              		.loc 2 82 12 view .LVU64
 217              	.LBE77:
 218              	.LBE76:
 523:Middlewares/lvgl/src/widgets/lv_img.c **** 
 219              		.loc 1 523 9 is_stmt 1 view .LVU65
 523:Middlewares/lvgl/src/widgets/lv_img.c **** 
 220              		.loc 1 523 39 is_stmt 0 view .LVU66
 221 0098 E78E     		ldrh	r7, [r4, #54]
 523:Middlewares/lvgl/src/widgets/lv_img.c **** 
 222              		.loc 1 523 34 view .LVU67
 223 009a 03FB07F7 		mul	r7, r3, r7
 523:Middlewares/lvgl/src/widgets/lv_img.c **** 
 224              		.loc 1 523 20 view .LVU68
 225 009e 3F12     		asrs	r7, r7, #8
 226              	.LVL21:
 525:Middlewares/lvgl/src/widgets/lv_img.c ****         if(zoom_final == LV_IMG_ZOOM_NONE) {
 227              		.loc 1 525 9 is_stmt 1 view .LVU69
 525:Middlewares/lvgl/src/widgets/lv_img.c ****         if(zoom_final == LV_IMG_ZOOM_NONE) {
 228              		.loc 1 525 39 is_stmt 0 view .LVU70
 229 00a0 3046     		mov	r0, r6
 230 00a2 FFF7FEFF 		bl	lv_event_get_param
 231              	.LVL22:
 232 00a6 0646     		mov	r6, r0
 233              	.LVL23:
 526:Middlewares/lvgl/src/widgets/lv_img.c ****             if(_lv_area_is_in(clip_area, &obj->coords, 0) == false) {
 234              		.loc 1 526 9 is_stmt 1 view .LVU71
 526:Middlewares/lvgl/src/widgets/lv_img.c ****             if(_lv_area_is_in(clip_area, &obj->coords, 0) == false) {
 235              		.loc 1 526 11 is_stmt 0 view .LVU72
 236 00a8 B7F5807F 		cmp	r7, #256
 237 00ac 31D0     		beq	.L26
 238              	.LBB78:
 533:Middlewares/lvgl/src/widgets/lv_img.c ****             _lv_img_buf_get_transformed_area(&a, lv_obj_get_width(obj), lv_obj_get_height(obj), 0, 
 239              		.loc 1 533 13 is_stmt 1 view .LVU73
 534:Middlewares/lvgl/src/widgets/lv_img.c ****             a.x1 += obj->coords.x1;
 240              		.loc 1 534 13 view .LVU74
 241 00ae 2046     		mov	r0, r4
 242              	.LVL24:
 534:Middlewares/lvgl/src/widgets/lv_img.c ****             a.x1 += obj->coords.x1;
 243              		.loc 1 534 13 is_stmt 0 view .LVU75
 244 00b0 FFF7FEFF 		bl	lv_obj_get_width
 245              	.LVL25:
 246 00b4 8046     		mov	r8, r0
ARM GAS  /tmp/ccCqaXuz.s 			page 24


 247 00b6 2046     		mov	r0, r4
 248 00b8 FFF7FEFF 		bl	lv_obj_get_height
 249              	.LVL26:
 250 00bc 0246     		mov	r2, r0
 534:Middlewares/lvgl/src/widgets/lv_img.c ****             a.x1 += obj->coords.x1;
 251              		.loc 1 534 112 view .LVU76
 252 00be 04F13203 		add	r3, r4, #50
 534:Middlewares/lvgl/src/widgets/lv_img.c ****             a.x1 += obj->coords.x1;
 253              		.loc 1 534 13 view .LVU77
 254 00c2 0193     		str	r3, [sp, #4]
 255 00c4 BFB2     		uxth	r7, r7
 256              	.LVL27:
 534:Middlewares/lvgl/src/widgets/lv_img.c ****             a.x1 += obj->coords.x1;
 257              		.loc 1 534 13 view .LVU78
 258 00c6 0097     		str	r7, [sp]
 259 00c8 0023     		movs	r3, #0
 260 00ca 4146     		mov	r1, r8
 261 00cc 16A8     		add	r0, sp, #88
 262 00ce FFF7FEFF 		bl	_lv_img_buf_get_transformed_area
 263              	.LVL28:
 535:Middlewares/lvgl/src/widgets/lv_img.c ****             a.y1 += obj->coords.y1;
 264              		.loc 1 535 13 is_stmt 1 view .LVU79
 535:Middlewares/lvgl/src/widgets/lv_img.c ****             a.y1 += obj->coords.y1;
 265              		.loc 1 535 32 is_stmt 0 view .LVU80
 266 00d2 A28A     		ldrh	r2, [r4, #20]
 535:Middlewares/lvgl/src/widgets/lv_img.c ****             a.y1 += obj->coords.y1;
 267              		.loc 1 535 18 view .LVU81
 268 00d4 BDF85830 		ldrh	r3, [sp, #88]
 269 00d8 1344     		add	r3, r3, r2
 270 00da ADF85830 		strh	r3, [sp, #88]	@ movhi
 536:Middlewares/lvgl/src/widgets/lv_img.c ****             a.x2 += obj->coords.x1;
 271              		.loc 1 536 13 is_stmt 1 view .LVU82
 536:Middlewares/lvgl/src/widgets/lv_img.c ****             a.x2 += obj->coords.x1;
 272              		.loc 1 536 32 is_stmt 0 view .LVU83
 273 00de E38A     		ldrh	r3, [r4, #22]
 536:Middlewares/lvgl/src/widgets/lv_img.c ****             a.x2 += obj->coords.x1;
 274              		.loc 1 536 18 view .LVU84
 275 00e0 BDF85A10 		ldrh	r1, [sp, #90]
 276 00e4 1944     		add	r1, r1, r3
 277 00e6 ADF85A10 		strh	r1, [sp, #90]	@ movhi
 537:Middlewares/lvgl/src/widgets/lv_img.c ****             a.y2 += obj->coords.y1;
 278              		.loc 1 537 13 is_stmt 1 view .LVU85
 537:Middlewares/lvgl/src/widgets/lv_img.c ****             a.y2 += obj->coords.y1;
 279              		.loc 1 537 18 is_stmt 0 view .LVU86
 280 00ea BDF85C10 		ldrh	r1, [sp, #92]
 281 00ee 0A44     		add	r2, r2, r1
 282 00f0 ADF85C20 		strh	r2, [sp, #92]	@ movhi
 538:Middlewares/lvgl/src/widgets/lv_img.c **** 
 283              		.loc 1 538 13 is_stmt 1 view .LVU87
 538:Middlewares/lvgl/src/widgets/lv_img.c **** 
 284              		.loc 1 538 18 is_stmt 0 view .LVU88
 285 00f4 BDF85E20 		ldrh	r2, [sp, #94]
 286 00f8 1344     		add	r3, r3, r2
 287 00fa ADF85E30 		strh	r3, [sp, #94]	@ movhi
 540:Middlewares/lvgl/src/widgets/lv_img.c ****                 info->res = LV_COVER_RES_NOT_COVER;
 288              		.loc 1 540 13 is_stmt 1 view .LVU89
 540:Middlewares/lvgl/src/widgets/lv_img.c ****                 info->res = LV_COVER_RES_NOT_COVER;
ARM GAS  /tmp/ccCqaXuz.s 			page 25


 289              		.loc 1 540 16 is_stmt 0 view .LVU90
 290 00fe 0022     		movs	r2, #0
 291 0100 16A9     		add	r1, sp, #88
 292 0102 3046     		mov	r0, r6
 293 0104 FFF7FEFF 		bl	_lv_area_is_in
 294              	.LVL29:
 540:Middlewares/lvgl/src/widgets/lv_img.c ****                 info->res = LV_COVER_RES_NOT_COVER;
 295              		.loc 1 540 15 view .LVU91
 296 0108 0028     		cmp	r0, #0
 297 010a 8BD1     		bne	.L1
 541:Middlewares/lvgl/src/widgets/lv_img.c ****                 return;
 298              		.loc 1 541 17 is_stmt 1 view .LVU92
 541:Middlewares/lvgl/src/widgets/lv_img.c ****                 return;
 299              		.loc 1 541 27 is_stmt 0 view .LVU93
 300 010c 0123     		movs	r3, #1
 301 010e 2B70     		strb	r3, [r5]
 542:Middlewares/lvgl/src/widgets/lv_img.c ****             }
 302              		.loc 1 542 17 is_stmt 1 view .LVU94
 303 0110 88E7     		b	.L1
 304              	.LVL30:
 305              	.L26:
 542:Middlewares/lvgl/src/widgets/lv_img.c ****             }
 306              		.loc 1 542 17 is_stmt 0 view .LVU95
 307              	.LBE78:
 527:Middlewares/lvgl/src/widgets/lv_img.c ****                 info->res = LV_COVER_RES_NOT_COVER;
 308              		.loc 1 527 13 is_stmt 1 view .LVU96
 527:Middlewares/lvgl/src/widgets/lv_img.c ****                 info->res = LV_COVER_RES_NOT_COVER;
 309              		.loc 1 527 16 is_stmt 0 view .LVU97
 310 0112 0022     		movs	r2, #0
 311 0114 04F11401 		add	r1, r4, #20
 312 0118 FFF7FEFF 		bl	_lv_area_is_in
 313              	.LVL31:
 527:Middlewares/lvgl/src/widgets/lv_img.c ****                 info->res = LV_COVER_RES_NOT_COVER;
 314              		.loc 1 527 15 view .LVU98
 315 011c 0028     		cmp	r0, #0
 316 011e 81D1     		bne	.L1
 528:Middlewares/lvgl/src/widgets/lv_img.c ****                 return;
 317              		.loc 1 528 17 is_stmt 1 view .LVU99
 528:Middlewares/lvgl/src/widgets/lv_img.c ****                 return;
 318              		.loc 1 528 27 is_stmt 0 view .LVU100
 319 0120 0123     		movs	r3, #1
 320 0122 2B70     		strb	r3, [r5]
 529:Middlewares/lvgl/src/widgets/lv_img.c ****             }
 321              		.loc 1 529 17 is_stmt 1 view .LVU101
 322 0124 7EE7     		b	.L1
 323              	.LVL32:
 324              	.L24:
 529:Middlewares/lvgl/src/widgets/lv_img.c ****             }
 325              		.loc 1 529 17 is_stmt 0 view .LVU102
 326              	.LBE71:
 327              	.LBB79:
 548:Middlewares/lvgl/src/widgets/lv_img.c ****         zoom_final = (zoom_final * img->zoom) >> 8;
 328              		.loc 1 548 9 is_stmt 1 view .LVU103
 329              	.LBB80:
 330              	.LBI80:
  79:Middlewares/lvgl/src/widgets/../core/lv_obj_style_gen.h **** {
 331              		.loc 2 79 26 view .LVU104
ARM GAS  /tmp/ccCqaXuz.s 			page 26


 332              	.LBB81:
  81:Middlewares/lvgl/src/widgets/../core/lv_obj_style_gen.h ****     return (lv_coord_t)v.num;
 333              		.loc 2 81 5 view .LVU105
  81:Middlewares/lvgl/src/widgets/../core/lv_obj_style_gen.h ****     return (lv_coord_t)v.num;
 334              		.loc 2 81 26 is_stmt 0 view .LVU106
 335 0126 40F60E02 		movw	r2, #2062
 336 012a 0021     		movs	r1, #0
 337 012c FFF7FEFF 		bl	lv_obj_get_style_prop
 338              	.LVL33:
  82:Middlewares/lvgl/src/widgets/../core/lv_obj_style_gen.h **** }
 339              		.loc 2 82 5 is_stmt 1 view .LVU107
  82:Middlewares/lvgl/src/widgets/../core/lv_obj_style_gen.h **** }
 340              		.loc 2 82 12 is_stmt 0 view .LVU108
 341 0130 03B2     		sxth	r3, r0
 342              	.LVL34:
  82:Middlewares/lvgl/src/widgets/../core/lv_obj_style_gen.h **** }
 343              		.loc 2 82 12 view .LVU109
 344              	.LBE81:
 345              	.LBE80:
 549:Middlewares/lvgl/src/widgets/lv_img.c **** 
 346              		.loc 1 549 9 is_stmt 1 view .LVU110
 549:Middlewares/lvgl/src/widgets/lv_img.c **** 
 347              		.loc 1 549 39 is_stmt 0 view .LVU111
 348 0132 E08E     		ldrh	r0, [r4, #54]
 549:Middlewares/lvgl/src/widgets/lv_img.c **** 
 349              		.loc 1 549 34 view .LVU112
 350 0134 03FB00F0 		mul	r0, r3, r0
 549:Middlewares/lvgl/src/widgets/lv_img.c **** 
 351              		.loc 1 549 20 view .LVU113
 352 0138 0312     		asrs	r3, r0, #8
 353              	.LVL35:
 549:Middlewares/lvgl/src/widgets/lv_img.c **** 
 354              		.loc 1 549 20 view .LVU114
 355 013a 0393     		str	r3, [sp, #12]
 356              	.LVL36:
 551:Middlewares/lvgl/src/widgets/lv_img.c ****         angle_final += img->angle;
 357              		.loc 1 551 9 is_stmt 1 view .LVU115
 358              	.LBB82:
 359              	.LBI82:
  85:Middlewares/lvgl/src/widgets/../core/lv_obj_style_gen.h **** {
 360              		.loc 2 85 26 view .LVU116
 361              	.LBB83:
  87:Middlewares/lvgl/src/widgets/../core/lv_obj_style_gen.h ****     return (lv_coord_t)v.num;
 362              		.loc 2 87 5 view .LVU117
  87:Middlewares/lvgl/src/widgets/../core/lv_obj_style_gen.h ****     return (lv_coord_t)v.num;
 363              		.loc 2 87 26 is_stmt 0 view .LVU118
 364 013c 40F60F02 		movw	r2, #2063
 365 0140 0021     		movs	r1, #0
 366 0142 2046     		mov	r0, r4
 367 0144 FFF7FEFF 		bl	lv_obj_get_style_prop
 368              	.LVL37:
  88:Middlewares/lvgl/src/widgets/../core/lv_obj_style_gen.h **** }
 369              		.loc 2 88 5 is_stmt 1 view .LVU119
  88:Middlewares/lvgl/src/widgets/../core/lv_obj_style_gen.h **** }
 370              		.loc 2 88 5 is_stmt 0 view .LVU120
 371              	.LBE83:
 372              	.LBE82:
ARM GAS  /tmp/ccCqaXuz.s 			page 27


 552:Middlewares/lvgl/src/widgets/lv_img.c **** 
 373              		.loc 1 552 9 is_stmt 1 view .LVU121
 552:Middlewares/lvgl/src/widgets/lv_img.c **** 
 374              		.loc 1 552 27 is_stmt 0 view .LVU122
 375 0148 238E     		ldrh	r3, [r4, #48]
 552:Middlewares/lvgl/src/widgets/lv_img.c **** 
 376              		.loc 1 552 21 view .LVU123
 377 014a 03FA80F2 		sxtah	r2, r3, r0
 378 014e 0592     		str	r2, [sp, #20]
 379              	.LVL38:
 554:Middlewares/lvgl/src/widgets/lv_img.c ****         lv_coord_t obj_h = lv_obj_get_height(obj);
 380              		.loc 1 554 9 is_stmt 1 view .LVU124
 554:Middlewares/lvgl/src/widgets/lv_img.c ****         lv_coord_t obj_h = lv_obj_get_height(obj);
 381              		.loc 1 554 28 is_stmt 0 view .LVU125
 382 0150 2046     		mov	r0, r4
 383 0152 FFF7FEFF 		bl	lv_obj_get_width
 384              	.LVL39:
 554:Middlewares/lvgl/src/widgets/lv_img.c ****         lv_coord_t obj_h = lv_obj_get_height(obj);
 385              		.loc 1 554 28 view .LVU126
 386 0156 0746     		mov	r7, r0
 387              	.LVL40:
 555:Middlewares/lvgl/src/widgets/lv_img.c **** 
 388              		.loc 1 555 9 is_stmt 1 view .LVU127
 555:Middlewares/lvgl/src/widgets/lv_img.c **** 
 389              		.loc 1 555 28 is_stmt 0 view .LVU128
 390 0158 2046     		mov	r0, r4
 391 015a FFF7FEFF 		bl	lv_obj_get_height
 392              	.LVL41:
 393 015e 8046     		mov	r8, r0
 394              	.LVL42:
 557:Middlewares/lvgl/src/widgets/lv_img.c ****         lv_coord_t pleft = lv_obj_get_style_pad_left(obj, LV_PART_MAIN) + border_width;
 395              		.loc 1 557 9 is_stmt 1 view .LVU129
 396              	.LBB84:
 397              	.LBI84:
 295:Middlewares/lvgl/src/widgets/../core/lv_obj_style_gen.h **** {
 398              		.loc 2 295 26 view .LVU130
 399              	.LBB85:
 297:Middlewares/lvgl/src/widgets/../core/lv_obj_style_gen.h ****     return (lv_coord_t)v.num;
 400              		.loc 2 297 5 view .LVU131
 297:Middlewares/lvgl/src/widgets/../core/lv_obj_style_gen.h ****     return (lv_coord_t)v.num;
 401              		.loc 2 297 26 is_stmt 0 view .LVU132
 402 0160 41F23202 		movw	r2, #4146
 403 0164 0021     		movs	r1, #0
 404 0166 2046     		mov	r0, r4
 405 0168 FFF7FEFF 		bl	lv_obj_get_style_prop
 406              	.LVL43:
 407 016c 8146     		mov	r9, r0
 408              	.LVL44:
 298:Middlewares/lvgl/src/widgets/../core/lv_obj_style_gen.h **** }
 409              		.loc 2 298 5 is_stmt 1 view .LVU133
 298:Middlewares/lvgl/src/widgets/../core/lv_obj_style_gen.h **** }
 410              		.loc 2 298 5 is_stmt 0 view .LVU134
 411              	.LBE85:
 412              	.LBE84:
 558:Middlewares/lvgl/src/widgets/lv_img.c ****         lv_coord_t pright = lv_obj_get_style_pad_right(obj, LV_PART_MAIN) + border_width;
 413              		.loc 1 558 9 is_stmt 1 view .LVU135
 414              	.LBB86:
ARM GAS  /tmp/ccCqaXuz.s 			page 28


 415              	.LBI86:
 103:Middlewares/lvgl/src/widgets/../core/lv_obj_style_gen.h **** {
 416              		.loc 2 103 26 view .LVU136
 417              	.LBB87:
 105:Middlewares/lvgl/src/widgets/../core/lv_obj_style_gen.h ****     return (lv_coord_t)v.num;
 418              		.loc 2 105 5 view .LVU137
 105:Middlewares/lvgl/src/widgets/../core/lv_obj_style_gen.h ****     return (lv_coord_t)v.num;
 419              		.loc 2 105 26 is_stmt 0 view .LVU138
 420 016e 41F21202 		movw	r2, #4114
 421 0172 0021     		movs	r1, #0
 422 0174 2046     		mov	r0, r4
 423 0176 FFF7FEFF 		bl	lv_obj_get_style_prop
 424              	.LVL45:
 106:Middlewares/lvgl/src/widgets/../core/lv_obj_style_gen.h **** }
 425              		.loc 2 106 5 is_stmt 1 view .LVU139
 106:Middlewares/lvgl/src/widgets/../core/lv_obj_style_gen.h **** }
 426              		.loc 2 106 5 is_stmt 0 view .LVU140
 427              	.LBE87:
 428              	.LBE86:
 558:Middlewares/lvgl/src/widgets/lv_img.c ****         lv_coord_t pright = lv_obj_get_style_pad_right(obj, LV_PART_MAIN) + border_width;
 429              		.loc 1 558 73 view .LVU141
 430 017a 1FFA89F9 		uxth	r9, r9
 558:Middlewares/lvgl/src/widgets/lv_img.c ****         lv_coord_t pright = lv_obj_get_style_pad_right(obj, LV_PART_MAIN) + border_width;
 431              		.loc 1 558 73 view .LVU142
 432 017e 19FA80F0 		uxtah	r0, r9, r0
 433 0182 81B2     		uxth	r1, r0
 434 0184 0491     		str	r1, [sp, #16]
 435              	.LVL46:
 559:Middlewares/lvgl/src/widgets/lv_img.c ****         lv_coord_t ptop = lv_obj_get_style_pad_top(obj, LV_PART_MAIN) + border_width;
 436              		.loc 1 559 9 is_stmt 1 view .LVU143
 437              	.LBB88:
 438              	.LBI88:
 109:Middlewares/lvgl/src/widgets/../core/lv_obj_style_gen.h **** {
 439              		.loc 2 109 26 view .LVU144
 440              	.LBB89:
 111:Middlewares/lvgl/src/widgets/../core/lv_obj_style_gen.h ****     return (lv_coord_t)v.num;
 441              		.loc 2 111 5 view .LVU145
 111:Middlewares/lvgl/src/widgets/../core/lv_obj_style_gen.h ****     return (lv_coord_t)v.num;
 442              		.loc 2 111 26 is_stmt 0 view .LVU146
 443 0186 41F21302 		movw	r2, #4115
 444 018a 0021     		movs	r1, #0
 445 018c 2046     		mov	r0, r4
 446 018e FFF7FEFF 		bl	lv_obj_get_style_prop
 447              	.LVL47:
 112:Middlewares/lvgl/src/widgets/../core/lv_obj_style_gen.h **** }
 448              		.loc 2 112 5 is_stmt 1 view .LVU147
 112:Middlewares/lvgl/src/widgets/../core/lv_obj_style_gen.h **** }
 449              		.loc 2 112 5 is_stmt 0 view .LVU148
 450              	.LBE89:
 451              	.LBE88:
 559:Middlewares/lvgl/src/widgets/lv_img.c ****         lv_coord_t ptop = lv_obj_get_style_pad_top(obj, LV_PART_MAIN) + border_width;
 452              		.loc 1 559 75 view .LVU149
 453 0192 19FA80F0 		uxtah	r0, r9, r0
 454 0196 80B2     		uxth	r0, r0
 455 0198 0690     		str	r0, [sp, #24]
 456              	.LVL48:
 560:Middlewares/lvgl/src/widgets/lv_img.c ****         lv_coord_t pbottom = lv_obj_get_style_pad_bottom(obj, LV_PART_MAIN) + border_width;
ARM GAS  /tmp/ccCqaXuz.s 			page 29


 457              		.loc 1 560 9 is_stmt 1 view .LVU150
 458              	.LBB90:
 459              	.LBI90:
  91:Middlewares/lvgl/src/widgets/../core/lv_obj_style_gen.h **** {
 460              		.loc 2 91 26 view .LVU151
 461              	.LBB91:
  93:Middlewares/lvgl/src/widgets/../core/lv_obj_style_gen.h ****     return (lv_coord_t)v.num;
 462              		.loc 2 93 5 view .LVU152
  93:Middlewares/lvgl/src/widgets/../core/lv_obj_style_gen.h ****     return (lv_coord_t)v.num;
 463              		.loc 2 93 26 is_stmt 0 view .LVU153
 464 019a 41F21002 		movw	r2, #4112
 465 019e 0021     		movs	r1, #0
 466 01a0 2046     		mov	r0, r4
 467 01a2 FFF7FEFF 		bl	lv_obj_get_style_prop
 468              	.LVL49:
  94:Middlewares/lvgl/src/widgets/../core/lv_obj_style_gen.h **** }
 469              		.loc 2 94 5 is_stmt 1 view .LVU154
  94:Middlewares/lvgl/src/widgets/../core/lv_obj_style_gen.h **** }
 470              		.loc 2 94 5 is_stmt 0 view .LVU155
 471              	.LBE91:
 472              	.LBE90:
 560:Middlewares/lvgl/src/widgets/lv_img.c ****         lv_coord_t pbottom = lv_obj_get_style_pad_bottom(obj, LV_PART_MAIN) + border_width;
 473              		.loc 1 560 71 view .LVU156
 474 01a6 19FA80F0 		uxtah	r0, r9, r0
 475 01aa 1FFA80FB 		uxth	fp, r0
 476              	.LVL50:
 561:Middlewares/lvgl/src/widgets/lv_img.c **** 
 477              		.loc 1 561 9 is_stmt 1 view .LVU157
 478              	.LBB92:
 479              	.LBI92:
  97:Middlewares/lvgl/src/widgets/../core/lv_obj_style_gen.h **** {
 480              		.loc 2 97 26 view .LVU158
 481              	.LBB93:
  99:Middlewares/lvgl/src/widgets/../core/lv_obj_style_gen.h ****     return (lv_coord_t)v.num;
 482              		.loc 2 99 5 view .LVU159
  99:Middlewares/lvgl/src/widgets/../core/lv_obj_style_gen.h ****     return (lv_coord_t)v.num;
 483              		.loc 2 99 26 is_stmt 0 view .LVU160
 484 01ae 41F21102 		movw	r2, #4113
 485 01b2 0021     		movs	r1, #0
 486 01b4 2046     		mov	r0, r4
 487 01b6 FFF7FEFF 		bl	lv_obj_get_style_prop
 488              	.LVL51:
 100:Middlewares/lvgl/src/widgets/../core/lv_obj_style_gen.h **** }
 489              		.loc 2 100 5 is_stmt 1 view .LVU161
 100:Middlewares/lvgl/src/widgets/../core/lv_obj_style_gen.h **** }
 490              		.loc 2 100 5 is_stmt 0 view .LVU162
 491              	.LBE93:
 492              	.LBE92:
 561:Middlewares/lvgl/src/widgets/lv_img.c **** 
 493              		.loc 1 561 77 view .LVU163
 494 01ba 19FA80F9 		uxtah	r9, r9, r0
 495              	.LVL52:
 561:Middlewares/lvgl/src/widgets/lv_img.c **** 
 496              		.loc 1 561 77 view .LVU164
 497 01be 1FFA89F0 		uxth	r0, r9
 498 01c2 0790     		str	r0, [sp, #28]
 499              	.LVL53:
ARM GAS  /tmp/ccCqaXuz.s 			page 30


 563:Middlewares/lvgl/src/widgets/lv_img.c ****         bg_pivot.x = img->pivot.x + pleft;
 500              		.loc 1 563 9 is_stmt 1 view .LVU165
 564:Middlewares/lvgl/src/widgets/lv_img.c ****         bg_pivot.y = img->pivot.y + ptop;
 501              		.loc 1 564 9 view .LVU166
 564:Middlewares/lvgl/src/widgets/lv_img.c ****         bg_pivot.y = img->pivot.y + ptop;
 502              		.loc 1 564 32 is_stmt 0 view .LVU167
 503 01c4 638E     		ldrh	r3, [r4, #50]
 564:Middlewares/lvgl/src/widgets/lv_img.c ****         bg_pivot.y = img->pivot.y + ptop;
 504              		.loc 1 564 35 view .LVU168
 505 01c6 0499     		ldr	r1, [sp, #16]
 506 01c8 0B44     		add	r3, r3, r1
 564:Middlewares/lvgl/src/widgets/lv_img.c ****         bg_pivot.y = img->pivot.y + ptop;
 507              		.loc 1 564 20 view .LVU169
 508 01ca ADF82C30 		strh	r3, [sp, #44]	@ movhi
 565:Middlewares/lvgl/src/widgets/lv_img.c ****         lv_area_t bg_coords;
 509              		.loc 1 565 9 is_stmt 1 view .LVU170
 565:Middlewares/lvgl/src/widgets/lv_img.c ****         lv_area_t bg_coords;
 510              		.loc 1 565 32 is_stmt 0 view .LVU171
 511 01ce A38E     		ldrh	r3, [r4, #52]
 565:Middlewares/lvgl/src/widgets/lv_img.c ****         lv_area_t bg_coords;
 512              		.loc 1 565 35 view .LVU172
 513 01d0 5B44     		add	r3, r3, fp
 565:Middlewares/lvgl/src/widgets/lv_img.c ****         lv_area_t bg_coords;
 514              		.loc 1 565 20 view .LVU173
 515 01d2 ADF82E30 		strh	r3, [sp, #46]	@ movhi
 566:Middlewares/lvgl/src/widgets/lv_img.c ****         _lv_img_buf_get_transformed_area(&bg_coords, obj_w, obj_h,
 516              		.loc 1 566 9 is_stmt 1 view .LVU174
 567:Middlewares/lvgl/src/widgets/lv_img.c ****                 angle_final, zoom_final, &bg_pivot);
 517              		.loc 1 567 9 view .LVU175
 518 01d6 BDF80C30 		ldrh	r3, [sp, #12]
 519 01da 1946     		mov	r1, r3
 520 01dc 0993     		str	r3, [sp, #36]
 521 01de 0BAB     		add	r3, sp, #44
 522 01e0 0193     		str	r3, [sp, #4]
 523 01e2 0091     		str	r1, [sp]
 524 01e4 BDF91430 		ldrsh	r3, [sp, #20]
 525 01e8 4246     		mov	r2, r8
 526 01ea 3946     		mov	r1, r7
 527 01ec 0CA8     		add	r0, sp, #48
 528 01ee FFF7FEFF 		bl	_lv_img_buf_get_transformed_area
 529              	.LVL54:
 571:Middlewares/lvgl/src/widgets/lv_img.c ****         bg_coords.y1 += obj->coords.y1;
 530              		.loc 1 571 9 view .LVU176
 571:Middlewares/lvgl/src/widgets/lv_img.c ****         bg_coords.y1 += obj->coords.y1;
 531              		.loc 1 571 36 is_stmt 0 view .LVU177
 532 01f2 B4F91480 		ldrsh	r8, [r4, #20]
 533              	.LVL55:
 571:Middlewares/lvgl/src/widgets/lv_img.c ****         bg_coords.y1 += obj->coords.y1;
 534              		.loc 1 571 36 view .LVU178
 535 01f6 1FFA88F2 		uxth	r2, r8
 571:Middlewares/lvgl/src/widgets/lv_img.c ****         bg_coords.y1 += obj->coords.y1;
 536              		.loc 1 571 22 view .LVU179
 537 01fa BDF83000 		ldrh	r0, [sp, #48]
 538 01fe 1044     		add	r0, r0, r2
 539 0200 00B2     		sxth	r0, r0
 540 0202 ADF83000 		strh	r0, [sp, #48]	@ movhi
 572:Middlewares/lvgl/src/widgets/lv_img.c ****         bg_coords.x2 += obj->coords.x1;
ARM GAS  /tmp/ccCqaXuz.s 			page 31


 541              		.loc 1 572 9 is_stmt 1 view .LVU180
 572:Middlewares/lvgl/src/widgets/lv_img.c ****         bg_coords.x2 += obj->coords.x1;
 542              		.loc 1 572 36 is_stmt 0 view .LVU181
 543 0206 B4F91670 		ldrsh	r7, [r4, #22]
 544              	.LVL56:
 572:Middlewares/lvgl/src/widgets/lv_img.c ****         bg_coords.x2 += obj->coords.x1;
 545              		.loc 1 572 36 view .LVU182
 546 020a BBB2     		uxth	r3, r7
 572:Middlewares/lvgl/src/widgets/lv_img.c ****         bg_coords.x2 += obj->coords.x1;
 547              		.loc 1 572 22 view .LVU183
 548 020c BDF83210 		ldrh	r1, [sp, #50]
 549 0210 1944     		add	r1, r1, r3
 550 0212 09B2     		sxth	r1, r1
 551 0214 ADF83210 		strh	r1, [sp, #50]	@ movhi
 573:Middlewares/lvgl/src/widgets/lv_img.c ****         bg_coords.y2 += obj->coords.y1;
 552              		.loc 1 573 9 is_stmt 1 view .LVU184
 573:Middlewares/lvgl/src/widgets/lv_img.c ****         bg_coords.y2 += obj->coords.y1;
 553              		.loc 1 573 22 is_stmt 0 view .LVU185
 554 0218 BDF834C0 		ldrh	ip, [sp, #52]
 555 021c 6244     		add	r2, r2, ip
 556 021e 12B2     		sxth	r2, r2
 557 0220 ADF83420 		strh	r2, [sp, #52]	@ movhi
 574:Middlewares/lvgl/src/widgets/lv_img.c **** 
 558              		.loc 1 574 9 is_stmt 1 view .LVU186
 574:Middlewares/lvgl/src/widgets/lv_img.c **** 
 559              		.loc 1 574 22 is_stmt 0 view .LVU187
 560 0224 BDF836C0 		ldrh	ip, [sp, #54]
 561 0228 6344     		add	r3, r3, ip
 562 022a 0FFA83FC 		sxth	ip, r3
 563 022e ADF836C0 		strh	ip, [sp, #54]	@ movhi
 576:Middlewares/lvgl/src/widgets/lv_img.c ****         lv_area_copy(&ori_coords, &obj->coords);
 564              		.loc 1 576 9 is_stmt 1 view .LVU188
 577:Middlewares/lvgl/src/widgets/lv_img.c ****         lv_area_copy(&obj->coords, &bg_coords);
 565              		.loc 1 577 9 view .LVU189
 566              	.LVL57:
 567              	.LBB94:
 568              	.LBI94:
 569              		.file 3 "Middlewares/lvgl/src/widgets/../core/../misc/../font/../misc/lv_area.h"
   1:Middlewares/lvgl/src/widgets/../core/../misc/../font/../misc/lv_area.h **** /**
   2:Middlewares/lvgl/src/widgets/../core/../misc/../font/../misc/lv_area.h ****  * @file lv_area.h
   3:Middlewares/lvgl/src/widgets/../core/../misc/../font/../misc/lv_area.h ****  *
   4:Middlewares/lvgl/src/widgets/../core/../misc/../font/../misc/lv_area.h ****  */
   5:Middlewares/lvgl/src/widgets/../core/../misc/../font/../misc/lv_area.h **** 
   6:Middlewares/lvgl/src/widgets/../core/../misc/../font/../misc/lv_area.h **** #ifndef LV_AREA_H
   7:Middlewares/lvgl/src/widgets/../core/../misc/../font/../misc/lv_area.h **** #define LV_AREA_H
   8:Middlewares/lvgl/src/widgets/../core/../misc/../font/../misc/lv_area.h **** 
   9:Middlewares/lvgl/src/widgets/../core/../misc/../font/../misc/lv_area.h **** #ifdef __cplusplus
  10:Middlewares/lvgl/src/widgets/../core/../misc/../font/../misc/lv_area.h **** extern "C" {
  11:Middlewares/lvgl/src/widgets/../core/../misc/../font/../misc/lv_area.h **** #endif
  12:Middlewares/lvgl/src/widgets/../core/../misc/../font/../misc/lv_area.h **** 
  13:Middlewares/lvgl/src/widgets/../core/../misc/../font/../misc/lv_area.h **** /*********************
  14:Middlewares/lvgl/src/widgets/../core/../misc/../font/../misc/lv_area.h ****  *      INCLUDES
  15:Middlewares/lvgl/src/widgets/../core/../misc/../font/../misc/lv_area.h ****  *********************/
  16:Middlewares/lvgl/src/widgets/../core/../misc/../font/../misc/lv_area.h **** #include "../lv_conf_internal.h"
  17:Middlewares/lvgl/src/widgets/../core/../misc/../font/../misc/lv_area.h **** #include <string.h>
  18:Middlewares/lvgl/src/widgets/../core/../misc/../font/../misc/lv_area.h **** #include <stdbool.h>
  19:Middlewares/lvgl/src/widgets/../core/../misc/../font/../misc/lv_area.h **** #include <stdint.h>
ARM GAS  /tmp/ccCqaXuz.s 			page 32


  20:Middlewares/lvgl/src/widgets/../core/../misc/../font/../misc/lv_area.h **** 
  21:Middlewares/lvgl/src/widgets/../core/../misc/../font/../misc/lv_area.h **** /*********************
  22:Middlewares/lvgl/src/widgets/../core/../misc/../font/../misc/lv_area.h ****  *      DEFINES
  23:Middlewares/lvgl/src/widgets/../core/../misc/../font/../misc/lv_area.h ****  *********************/
  24:Middlewares/lvgl/src/widgets/../core/../misc/../font/../misc/lv_area.h **** 
  25:Middlewares/lvgl/src/widgets/../core/../misc/../font/../misc/lv_area.h **** #define _LV_COORD_MAX_REDUCE    8192
  26:Middlewares/lvgl/src/widgets/../core/../misc/../font/../misc/lv_area.h **** 
  27:Middlewares/lvgl/src/widgets/../core/../misc/../font/../misc/lv_area.h **** #if LV_USE_LARGE_COORD
  28:Middlewares/lvgl/src/widgets/../core/../misc/../font/../misc/lv_area.h **** typedef int32_t lv_coord_t;
  29:Middlewares/lvgl/src/widgets/../core/../misc/../font/../misc/lv_area.h **** #else
  30:Middlewares/lvgl/src/widgets/../core/../misc/../font/../misc/lv_area.h **** typedef int16_t lv_coord_t;
  31:Middlewares/lvgl/src/widgets/../core/../misc/../font/../misc/lv_area.h **** #endif
  32:Middlewares/lvgl/src/widgets/../core/../misc/../font/../misc/lv_area.h **** 
  33:Middlewares/lvgl/src/widgets/../core/../misc/../font/../misc/lv_area.h **** /*To allow some special values in the end reduce the max value*/
  34:Middlewares/lvgl/src/widgets/../core/../misc/../font/../misc/lv_area.h **** #define LV_COORD_MAX ((lv_coord_t)((uint32_t)((uint32_t)1 << (8 * sizeof(lv_coord_t) - 1)) - _LV_CO
  35:Middlewares/lvgl/src/widgets/../core/../misc/../font/../misc/lv_area.h **** #define LV_COORD_MIN (-LV_COORD_MAX)
  36:Middlewares/lvgl/src/widgets/../core/../misc/../font/../misc/lv_area.h **** 
  37:Middlewares/lvgl/src/widgets/../core/../misc/../font/../misc/lv_area.h **** LV_EXPORT_CONST_INT(LV_COORD_MAX);
  38:Middlewares/lvgl/src/widgets/../core/../misc/../font/../misc/lv_area.h **** LV_EXPORT_CONST_INT(LV_COORD_MIN);
  39:Middlewares/lvgl/src/widgets/../core/../misc/../font/../misc/lv_area.h **** 
  40:Middlewares/lvgl/src/widgets/../core/../misc/../font/../misc/lv_area.h **** /**********************
  41:Middlewares/lvgl/src/widgets/../core/../misc/../font/../misc/lv_area.h ****  *      TYPEDEFS
  42:Middlewares/lvgl/src/widgets/../core/../misc/../font/../misc/lv_area.h ****  **********************/
  43:Middlewares/lvgl/src/widgets/../core/../misc/../font/../misc/lv_area.h **** 
  44:Middlewares/lvgl/src/widgets/../core/../misc/../font/../misc/lv_area.h **** /**
  45:Middlewares/lvgl/src/widgets/../core/../misc/../font/../misc/lv_area.h ****  * Represents a point on the screen.
  46:Middlewares/lvgl/src/widgets/../core/../misc/../font/../misc/lv_area.h ****  */
  47:Middlewares/lvgl/src/widgets/../core/../misc/../font/../misc/lv_area.h **** typedef struct {
  48:Middlewares/lvgl/src/widgets/../core/../misc/../font/../misc/lv_area.h ****     lv_coord_t x;
  49:Middlewares/lvgl/src/widgets/../core/../misc/../font/../misc/lv_area.h ****     lv_coord_t y;
  50:Middlewares/lvgl/src/widgets/../core/../misc/../font/../misc/lv_area.h **** } lv_point_t;
  51:Middlewares/lvgl/src/widgets/../core/../misc/../font/../misc/lv_area.h **** 
  52:Middlewares/lvgl/src/widgets/../core/../misc/../font/../misc/lv_area.h **** /** Represents an area of the screen.*/
  53:Middlewares/lvgl/src/widgets/../core/../misc/../font/../misc/lv_area.h **** typedef struct {
  54:Middlewares/lvgl/src/widgets/../core/../misc/../font/../misc/lv_area.h ****     lv_coord_t x1;
  55:Middlewares/lvgl/src/widgets/../core/../misc/../font/../misc/lv_area.h ****     lv_coord_t y1;
  56:Middlewares/lvgl/src/widgets/../core/../misc/../font/../misc/lv_area.h ****     lv_coord_t x2;
  57:Middlewares/lvgl/src/widgets/../core/../misc/../font/../misc/lv_area.h ****     lv_coord_t y2;
  58:Middlewares/lvgl/src/widgets/../core/../misc/../font/../misc/lv_area.h **** } lv_area_t;
  59:Middlewares/lvgl/src/widgets/../core/../misc/../font/../misc/lv_area.h **** 
  60:Middlewares/lvgl/src/widgets/../core/../misc/../font/../misc/lv_area.h **** /** Alignments*/
  61:Middlewares/lvgl/src/widgets/../core/../misc/../font/../misc/lv_area.h **** enum {
  62:Middlewares/lvgl/src/widgets/../core/../misc/../font/../misc/lv_area.h ****     LV_ALIGN_DEFAULT = 0,
  63:Middlewares/lvgl/src/widgets/../core/../misc/../font/../misc/lv_area.h ****     LV_ALIGN_TOP_LEFT,
  64:Middlewares/lvgl/src/widgets/../core/../misc/../font/../misc/lv_area.h ****     LV_ALIGN_TOP_MID,
  65:Middlewares/lvgl/src/widgets/../core/../misc/../font/../misc/lv_area.h ****     LV_ALIGN_TOP_RIGHT,
  66:Middlewares/lvgl/src/widgets/../core/../misc/../font/../misc/lv_area.h ****     LV_ALIGN_BOTTOM_LEFT,
  67:Middlewares/lvgl/src/widgets/../core/../misc/../font/../misc/lv_area.h ****     LV_ALIGN_BOTTOM_MID,
  68:Middlewares/lvgl/src/widgets/../core/../misc/../font/../misc/lv_area.h ****     LV_ALIGN_BOTTOM_RIGHT,
  69:Middlewares/lvgl/src/widgets/../core/../misc/../font/../misc/lv_area.h ****     LV_ALIGN_LEFT_MID,
  70:Middlewares/lvgl/src/widgets/../core/../misc/../font/../misc/lv_area.h ****     LV_ALIGN_RIGHT_MID,
  71:Middlewares/lvgl/src/widgets/../core/../misc/../font/../misc/lv_area.h ****     LV_ALIGN_CENTER,
  72:Middlewares/lvgl/src/widgets/../core/../misc/../font/../misc/lv_area.h **** 
  73:Middlewares/lvgl/src/widgets/../core/../misc/../font/../misc/lv_area.h ****     LV_ALIGN_OUT_TOP_LEFT,
  74:Middlewares/lvgl/src/widgets/../core/../misc/../font/../misc/lv_area.h ****     LV_ALIGN_OUT_TOP_MID,
  75:Middlewares/lvgl/src/widgets/../core/../misc/../font/../misc/lv_area.h ****     LV_ALIGN_OUT_TOP_RIGHT,
  76:Middlewares/lvgl/src/widgets/../core/../misc/../font/../misc/lv_area.h ****     LV_ALIGN_OUT_BOTTOM_LEFT,
ARM GAS  /tmp/ccCqaXuz.s 			page 33


  77:Middlewares/lvgl/src/widgets/../core/../misc/../font/../misc/lv_area.h ****     LV_ALIGN_OUT_BOTTOM_MID,
  78:Middlewares/lvgl/src/widgets/../core/../misc/../font/../misc/lv_area.h ****     LV_ALIGN_OUT_BOTTOM_RIGHT,
  79:Middlewares/lvgl/src/widgets/../core/../misc/../font/../misc/lv_area.h ****     LV_ALIGN_OUT_LEFT_TOP,
  80:Middlewares/lvgl/src/widgets/../core/../misc/../font/../misc/lv_area.h ****     LV_ALIGN_OUT_LEFT_MID,
  81:Middlewares/lvgl/src/widgets/../core/../misc/../font/../misc/lv_area.h ****     LV_ALIGN_OUT_LEFT_BOTTOM,
  82:Middlewares/lvgl/src/widgets/../core/../misc/../font/../misc/lv_area.h ****     LV_ALIGN_OUT_RIGHT_TOP,
  83:Middlewares/lvgl/src/widgets/../core/../misc/../font/../misc/lv_area.h ****     LV_ALIGN_OUT_RIGHT_MID,
  84:Middlewares/lvgl/src/widgets/../core/../misc/../font/../misc/lv_area.h ****     LV_ALIGN_OUT_RIGHT_BOTTOM,
  85:Middlewares/lvgl/src/widgets/../core/../misc/../font/../misc/lv_area.h **** };
  86:Middlewares/lvgl/src/widgets/../core/../misc/../font/../misc/lv_area.h **** typedef uint8_t lv_align_t;
  87:Middlewares/lvgl/src/widgets/../core/../misc/../font/../misc/lv_area.h **** 
  88:Middlewares/lvgl/src/widgets/../core/../misc/../font/../misc/lv_area.h **** enum {
  89:Middlewares/lvgl/src/widgets/../core/../misc/../font/../misc/lv_area.h ****     LV_DIR_NONE     = 0x00,
  90:Middlewares/lvgl/src/widgets/../core/../misc/../font/../misc/lv_area.h ****     LV_DIR_LEFT     = (1 << 0),
  91:Middlewares/lvgl/src/widgets/../core/../misc/../font/../misc/lv_area.h ****     LV_DIR_RIGHT    = (1 << 1),
  92:Middlewares/lvgl/src/widgets/../core/../misc/../font/../misc/lv_area.h ****     LV_DIR_TOP      = (1 << 2),
  93:Middlewares/lvgl/src/widgets/../core/../misc/../font/../misc/lv_area.h ****     LV_DIR_BOTTOM   = (1 << 3),
  94:Middlewares/lvgl/src/widgets/../core/../misc/../font/../misc/lv_area.h ****     LV_DIR_HOR      = LV_DIR_LEFT | LV_DIR_RIGHT,
  95:Middlewares/lvgl/src/widgets/../core/../misc/../font/../misc/lv_area.h ****     LV_DIR_VER      = LV_DIR_TOP | LV_DIR_BOTTOM,
  96:Middlewares/lvgl/src/widgets/../core/../misc/../font/../misc/lv_area.h ****     LV_DIR_ALL      = LV_DIR_HOR | LV_DIR_VER,
  97:Middlewares/lvgl/src/widgets/../core/../misc/../font/../misc/lv_area.h **** };
  98:Middlewares/lvgl/src/widgets/../core/../misc/../font/../misc/lv_area.h **** 
  99:Middlewares/lvgl/src/widgets/../core/../misc/../font/../misc/lv_area.h **** typedef uint8_t lv_dir_t;
 100:Middlewares/lvgl/src/widgets/../core/../misc/../font/../misc/lv_area.h **** 
 101:Middlewares/lvgl/src/widgets/../core/../misc/../font/../misc/lv_area.h **** /**********************
 102:Middlewares/lvgl/src/widgets/../core/../misc/../font/../misc/lv_area.h ****  * GLOBAL PROTOTYPES
 103:Middlewares/lvgl/src/widgets/../core/../misc/../font/../misc/lv_area.h ****  **********************/
 104:Middlewares/lvgl/src/widgets/../core/../misc/../font/../misc/lv_area.h **** 
 105:Middlewares/lvgl/src/widgets/../core/../misc/../font/../misc/lv_area.h **** /**
 106:Middlewares/lvgl/src/widgets/../core/../misc/../font/../misc/lv_area.h ****  * Initialize an area
 107:Middlewares/lvgl/src/widgets/../core/../misc/../font/../misc/lv_area.h ****  * @param area_p pointer to an area
 108:Middlewares/lvgl/src/widgets/../core/../misc/../font/../misc/lv_area.h ****  * @param x1 left coordinate of the area
 109:Middlewares/lvgl/src/widgets/../core/../misc/../font/../misc/lv_area.h ****  * @param y1 top coordinate of the area
 110:Middlewares/lvgl/src/widgets/../core/../misc/../font/../misc/lv_area.h ****  * @param x2 right coordinate of the area
 111:Middlewares/lvgl/src/widgets/../core/../misc/../font/../misc/lv_area.h ****  * @param y2 bottom coordinate of the area
 112:Middlewares/lvgl/src/widgets/../core/../misc/../font/../misc/lv_area.h ****  */
 113:Middlewares/lvgl/src/widgets/../core/../misc/../font/../misc/lv_area.h **** void lv_area_set(lv_area_t * area_p, lv_coord_t x1, lv_coord_t y1, lv_coord_t x2, lv_coord_t y2);
 114:Middlewares/lvgl/src/widgets/../core/../misc/../font/../misc/lv_area.h **** 
 115:Middlewares/lvgl/src/widgets/../core/../misc/../font/../misc/lv_area.h **** /**
 116:Middlewares/lvgl/src/widgets/../core/../misc/../font/../misc/lv_area.h ****  * Copy an area
 117:Middlewares/lvgl/src/widgets/../core/../misc/../font/../misc/lv_area.h ****  * @param dest pointer to the destination area
 118:Middlewares/lvgl/src/widgets/../core/../misc/../font/../misc/lv_area.h ****  * @param src pointer to the source area
 119:Middlewares/lvgl/src/widgets/../core/../misc/../font/../misc/lv_area.h ****  */
 120:Middlewares/lvgl/src/widgets/../core/../misc/../font/../misc/lv_area.h **** inline static void lv_area_copy(lv_area_t * dest, const lv_area_t * src)
 570              		.loc 3 120 20 view .LVU190
 571              	.LBB95:
 121:Middlewares/lvgl/src/widgets/../core/../misc/../font/../misc/lv_area.h **** {
 122:Middlewares/lvgl/src/widgets/../core/../misc/../font/../misc/lv_area.h ****     dest->x1 = src->x1;
 572              		.loc 3 122 5 view .LVU191
 573              		.loc 3 122 14 is_stmt 0 view .LVU192
 574 0232 ADF83880 		strh	r8, [sp, #56]	@ movhi
 123:Middlewares/lvgl/src/widgets/../core/../misc/../font/../misc/lv_area.h ****     dest->y1 = src->y1;
 575              		.loc 3 123 5 is_stmt 1 view .LVU193
 576              		.loc 3 123 14 is_stmt 0 view .LVU194
 577 0236 ADF83A70 		strh	r7, [sp, #58]	@ movhi
 124:Middlewares/lvgl/src/widgets/../core/../misc/../font/../misc/lv_area.h ****     dest->x2 = src->x2;
 578              		.loc 3 124 5 is_stmt 1 view .LVU195
ARM GAS  /tmp/ccCqaXuz.s 			page 34


 579              		.loc 3 124 19 is_stmt 0 view .LVU196
 580 023a B4F918A0 		ldrsh	r10, [r4, #24]
 581              		.loc 3 124 14 view .LVU197
 582 023e ADF83CA0 		strh	r10, [sp, #60]	@ movhi
 125:Middlewares/lvgl/src/widgets/../core/../misc/../font/../misc/lv_area.h ****     dest->y2 = src->y2;
 583              		.loc 3 125 5 is_stmt 1 view .LVU198
 584              		.loc 3 125 19 is_stmt 0 view .LVU199
 585 0242 B4F91A90 		ldrsh	r9, [r4, #26]
 586              		.loc 3 125 14 view .LVU200
 587 0246 ADF83E90 		strh	r9, [sp, #62]	@ movhi
 588              	.LVL58:
 589              		.loc 3 125 14 view .LVU201
 590              	.LBE95:
 591              	.LBE94:
 578:Middlewares/lvgl/src/widgets/lv_img.c **** 
 592              		.loc 1 578 9 is_stmt 1 view .LVU202
 593 024a 04F11403 		add	r3, r4, #20
 594 024e 0893     		str	r3, [sp, #32]
 595              	.LVL59:
 596              	.LBB96:
 597              	.LBI96:
 120:Middlewares/lvgl/src/widgets/../core/../misc/../font/../misc/lv_area.h **** {
 598              		.loc 3 120 20 view .LVU203
 599              	.LBB97:
 122:Middlewares/lvgl/src/widgets/../core/../misc/../font/../misc/lv_area.h ****     dest->y1 = src->y1;
 600              		.loc 3 122 5 view .LVU204
 122:Middlewares/lvgl/src/widgets/../core/../misc/../font/../misc/lv_area.h ****     dest->y1 = src->y1;
 601              		.loc 3 122 14 is_stmt 0 view .LVU205
 602 0250 A082     		strh	r0, [r4, #20]	@ movhi
 123:Middlewares/lvgl/src/widgets/../core/../misc/../font/../misc/lv_area.h ****     dest->x2 = src->x2;
 603              		.loc 3 123 5 is_stmt 1 view .LVU206
 123:Middlewares/lvgl/src/widgets/../core/../misc/../font/../misc/lv_area.h ****     dest->x2 = src->x2;
 604              		.loc 3 123 14 is_stmt 0 view .LVU207
 605 0252 E182     		strh	r1, [r4, #22]	@ movhi
 124:Middlewares/lvgl/src/widgets/../core/../misc/../font/../misc/lv_area.h ****     dest->y2 = src->y2;
 606              		.loc 3 124 5 is_stmt 1 view .LVU208
 124:Middlewares/lvgl/src/widgets/../core/../misc/../font/../misc/lv_area.h ****     dest->y2 = src->y2;
 607              		.loc 3 124 14 is_stmt 0 view .LVU209
 608 0254 2283     		strh	r2, [r4, #24]	@ movhi
 609              		.loc 3 125 5 is_stmt 1 view .LVU210
 610              		.loc 3 125 14 is_stmt 0 view .LVU211
 611 0256 A4F81AC0 		strh	ip, [r4, #26]	@ movhi
 612              	.LVL60:
 613              		.loc 3 125 14 view .LVU212
 614              	.LBE97:
 615              	.LBE96:
 580:Middlewares/lvgl/src/widgets/lv_img.c ****         if(res != LV_RES_OK) return;
 616              		.loc 1 580 9 is_stmt 1 view .LVU213
 580:Middlewares/lvgl/src/widgets/lv_img.c ****         if(res != LV_RES_OK) return;
 617              		.loc 1 580 24 is_stmt 0 view .LVU214
 618 025a 3146     		mov	r1, r6
 619 025c 7A48     		ldr	r0, .L29
 620 025e FFF7FEFF 		bl	lv_obj_event_base
 621              	.LVL61:
 581:Middlewares/lvgl/src/widgets/lv_img.c **** 
 622              		.loc 1 581 9 is_stmt 1 view .LVU215
 581:Middlewares/lvgl/src/widgets/lv_img.c **** 
ARM GAS  /tmp/ccCqaXuz.s 			page 35


 623              		.loc 1 581 11 is_stmt 0 view .LVU216
 624 0262 0128     		cmp	r0, #1
 625 0264 7FF4DEAE 		bne	.L1
 583:Middlewares/lvgl/src/widgets/lv_img.c **** 
 626              		.loc 1 583 9 is_stmt 1 view .LVU217
 627              	.LVL62:
 628              	.LBB98:
 629              	.LBI98:
 120:Middlewares/lvgl/src/widgets/../core/../misc/../font/../misc/lv_area.h **** {
 630              		.loc 3 120 20 view .LVU218
 631              	.LBB99:
 122:Middlewares/lvgl/src/widgets/../core/../misc/../font/../misc/lv_area.h ****     dest->y1 = src->y1;
 632              		.loc 3 122 5 view .LVU219
 122:Middlewares/lvgl/src/widgets/../core/../misc/../font/../misc/lv_area.h ****     dest->y1 = src->y1;
 633              		.loc 3 122 14 is_stmt 0 view .LVU220
 634 0268 A4F81480 		strh	r8, [r4, #20]	@ movhi
 123:Middlewares/lvgl/src/widgets/../core/../misc/../font/../misc/lv_area.h ****     dest->x2 = src->x2;
 635              		.loc 3 123 5 is_stmt 1 view .LVU221
 123:Middlewares/lvgl/src/widgets/../core/../misc/../font/../misc/lv_area.h ****     dest->x2 = src->x2;
 636              		.loc 3 123 14 is_stmt 0 view .LVU222
 637 026c E782     		strh	r7, [r4, #22]	@ movhi
 124:Middlewares/lvgl/src/widgets/../core/../misc/../font/../misc/lv_area.h ****     dest->y2 = src->y2;
 638              		.loc 3 124 5 is_stmt 1 view .LVU223
 124:Middlewares/lvgl/src/widgets/../core/../misc/../font/../misc/lv_area.h ****     dest->y2 = src->y2;
 639              		.loc 3 124 14 is_stmt 0 view .LVU224
 640 026e A4F818A0 		strh	r10, [r4, #24]	@ movhi
 641              		.loc 3 125 5 is_stmt 1 view .LVU225
 642              		.loc 3 125 14 is_stmt 0 view .LVU226
 643 0272 A4F81A90 		strh	r9, [r4, #26]	@ movhi
 644              	.LVL63:
 645              		.loc 3 125 14 view .LVU227
 646              	.LBE99:
 647              	.LBE98:
 585:Middlewares/lvgl/src/widgets/lv_img.c ****             if(img->h == 0 || img->w == 0) return;
 648              		.loc 1 585 9 is_stmt 1 view .LVU228
 585:Middlewares/lvgl/src/widgets/lv_img.c ****             if(img->h == 0 || img->w == 0) return;
 649              		.loc 1 585 11 is_stmt 0 view .LVU229
 650 0276 152D     		cmp	r5, #21
 651 0278 7FF4D4AE 		bne	.L1
 652              	.LBB100:
 586:Middlewares/lvgl/src/widgets/lv_img.c ****             if(zoom_final == 0) return;
 653              		.loc 1 586 13 is_stmt 1 view .LVU230
 586:Middlewares/lvgl/src/widgets/lv_img.c ****             if(zoom_final == 0) return;
 654              		.loc 1 586 19 is_stmt 0 view .LVU231
 655 027c B4F92E30 		ldrsh	r3, [r4, #46]
 586:Middlewares/lvgl/src/widgets/lv_img.c ****             if(zoom_final == 0) return;
 656              		.loc 1 586 15 view .LVU232
 657 0280 002B     		cmp	r3, #0
 658 0282 3FF4CFAE 		beq	.L1
 586:Middlewares/lvgl/src/widgets/lv_img.c ****             if(zoom_final == 0) return;
 659              		.loc 1 586 34 discriminator 2 view .LVU233
 660 0286 B4F92C30 		ldrsh	r3, [r4, #44]
 586:Middlewares/lvgl/src/widgets/lv_img.c ****             if(zoom_final == 0) return;
 661              		.loc 1 586 28 discriminator 2 view .LVU234
 662 028a 002B     		cmp	r3, #0
 663 028c 3FF4CAAE 		beq	.L1
 587:Middlewares/lvgl/src/widgets/lv_img.c **** 
ARM GAS  /tmp/ccCqaXuz.s 			page 36


 664              		.loc 1 587 13 is_stmt 1 view .LVU235
 587:Middlewares/lvgl/src/widgets/lv_img.c **** 
 665              		.loc 1 587 15 is_stmt 0 view .LVU236
 666 0290 039B     		ldr	r3, [sp, #12]
 667 0292 002B     		cmp	r3, #0
 668 0294 3FF4C6AE 		beq	.L1
 589:Middlewares/lvgl/src/widgets/lv_img.c **** 
 669              		.loc 1 589 13 is_stmt 1 view .LVU237
 589:Middlewares/lvgl/src/widgets/lv_img.c **** 
 670              		.loc 1 589 43 is_stmt 0 view .LVU238
 671 0298 3046     		mov	r0, r6
 672              	.LVL64:
 589:Middlewares/lvgl/src/widgets/lv_img.c **** 
 673              		.loc 1 589 43 view .LVU239
 674 029a FFF7FEFF 		bl	lv_event_get_param
 675              	.LVL65:
 676 029e 0390     		str	r0, [sp, #12]
 677              	.LVL66:
 591:Middlewares/lvgl/src/widgets/lv_img.c ****             lv_area_copy(&img_max_area, &obj->coords);
 678              		.loc 1 591 13 is_stmt 1 view .LVU240
 592:Middlewares/lvgl/src/widgets/lv_img.c ****             img_max_area.x1 += pleft;
 679              		.loc 1 592 13 view .LVU241
 680              	.LBB101:
 681              	.LBI101:
 120:Middlewares/lvgl/src/widgets/../core/../misc/../font/../misc/lv_area.h **** {
 682              		.loc 3 120 20 view .LVU242
 683              	.LBB102:
 122:Middlewares/lvgl/src/widgets/../core/../misc/../font/../misc/lv_area.h ****     dest->y1 = src->y1;
 684              		.loc 3 122 5 view .LVU243
 122:Middlewares/lvgl/src/widgets/../core/../misc/../font/../misc/lv_area.h ****     dest->y1 = src->y1;
 685              		.loc 3 122 19 is_stmt 0 view .LVU244
 686 02a0 B4F91470 		ldrsh	r7, [r4, #20]
 122:Middlewares/lvgl/src/widgets/../core/../misc/../font/../misc/lv_area.h ****     dest->y1 = src->y1;
 687              		.loc 3 122 14 view .LVU245
 688 02a4 ADF84070 		strh	r7, [sp, #64]	@ movhi
 123:Middlewares/lvgl/src/widgets/../core/../misc/../font/../misc/lv_area.h ****     dest->x2 = src->x2;
 689              		.loc 3 123 5 is_stmt 1 view .LVU246
 123:Middlewares/lvgl/src/widgets/../core/../misc/../font/../misc/lv_area.h ****     dest->x2 = src->x2;
 690              		.loc 3 123 19 is_stmt 0 view .LVU247
 691 02a8 B4F91690 		ldrsh	r9, [r4, #22]
 123:Middlewares/lvgl/src/widgets/../core/../misc/../font/../misc/lv_area.h ****     dest->x2 = src->x2;
 692              		.loc 3 123 14 view .LVU248
 693 02ac ADF84290 		strh	r9, [sp, #66]	@ movhi
 124:Middlewares/lvgl/src/widgets/../core/../misc/../font/../misc/lv_area.h ****     dest->y2 = src->y2;
 694              		.loc 3 124 5 is_stmt 1 view .LVU249
 124:Middlewares/lvgl/src/widgets/../core/../misc/../font/../misc/lv_area.h ****     dest->y2 = src->y2;
 695              		.loc 3 124 19 is_stmt 0 view .LVU250
 696 02b0 B4F91820 		ldrsh	r2, [r4, #24]
 124:Middlewares/lvgl/src/widgets/../core/../misc/../font/../misc/lv_area.h ****     dest->y2 = src->y2;
 697              		.loc 3 124 14 view .LVU251
 698 02b4 ADF84420 		strh	r2, [sp, #68]	@ movhi
 699              		.loc 3 125 5 is_stmt 1 view .LVU252
 700              		.loc 3 125 19 is_stmt 0 view .LVU253
 701 02b8 B4F91A30 		ldrsh	r3, [r4, #26]
 702              		.loc 3 125 14 view .LVU254
 703 02bc ADF84630 		strh	r3, [sp, #70]	@ movhi
 704              	.LVL67:
ARM GAS  /tmp/ccCqaXuz.s 			page 37


 705              		.loc 3 125 14 view .LVU255
 706              	.LBE102:
 707              	.LBE101:
 593:Middlewares/lvgl/src/widgets/lv_img.c ****             img_max_area.y1 += ptop;
 708              		.loc 1 593 13 is_stmt 1 view .LVU256
 593:Middlewares/lvgl/src/widgets/lv_img.c ****             img_max_area.y1 += ptop;
 709              		.loc 1 593 29 is_stmt 0 view .LVU257
 710 02c0 0499     		ldr	r1, [sp, #16]
 711 02c2 0F44     		add	r7, r7, r1
 712 02c4 1FFA87F8 		uxth	r8, r7
 713 02c8 3FB2     		sxth	r7, r7
 714 02ca ADF84070 		strh	r7, [sp, #64]	@ movhi
 594:Middlewares/lvgl/src/widgets/lv_img.c ****             img_max_area.x2 -= pright;
 715              		.loc 1 594 13 is_stmt 1 view .LVU258
 594:Middlewares/lvgl/src/widgets/lv_img.c ****             img_max_area.x2 -= pright;
 716              		.loc 1 594 29 is_stmt 0 view .LVU259
 717 02ce D944     		add	r9, r9, fp
 718 02d0 1FFA89FA 		uxth	r10, r9
 719 02d4 0FFA89F9 		sxth	r9, r9
 720 02d8 ADF84290 		strh	r9, [sp, #66]	@ movhi
 595:Middlewares/lvgl/src/widgets/lv_img.c ****             img_max_area.y2 -= pbottom;
 721              		.loc 1 595 13 is_stmt 1 view .LVU260
 595:Middlewares/lvgl/src/widgets/lv_img.c ****             img_max_area.y2 -= pbottom;
 722              		.loc 1 595 29 is_stmt 0 view .LVU261
 723 02dc 0699     		ldr	r1, [sp, #24]
 724 02de 521A     		subs	r2, r2, r1
 725 02e0 15B2     		sxth	r5, r2
 726              	.LVL68:
 595:Middlewares/lvgl/src/widgets/lv_img.c ****             img_max_area.y2 -= pbottom;
 727              		.loc 1 595 29 view .LVU262
 728 02e2 ADF84450 		strh	r5, [sp, #68]	@ movhi
 596:Middlewares/lvgl/src/widgets/lv_img.c **** 
 729              		.loc 1 596 13 is_stmt 1 view .LVU263
 596:Middlewares/lvgl/src/widgets/lv_img.c **** 
 730              		.loc 1 596 29 is_stmt 0 view .LVU264
 731 02e6 079A     		ldr	r2, [sp, #28]
 732 02e8 9B1A     		subs	r3, r3, r2
 733 02ea 1EB2     		sxth	r6, r3
 734              	.LVL69:
 596:Middlewares/lvgl/src/widgets/lv_img.c **** 
 735              		.loc 1 596 29 view .LVU265
 736 02ec ADF84660 		strh	r6, [sp, #70]	@ movhi
 598:Middlewares/lvgl/src/widgets/lv_img.c ****                 lv_draw_img_dsc_t img_dsc;
 737              		.loc 1 598 13 is_stmt 1 view .LVU266
 598:Middlewares/lvgl/src/widgets/lv_img.c ****                 lv_draw_img_dsc_t img_dsc;
 738              		.loc 1 598 30 is_stmt 0 view .LVU267
 739 02f0 94F83830 		ldrb	r3, [r4, #56]	@ zero_extendqisi2
 598:Middlewares/lvgl/src/widgets/lv_img.c ****                 lv_draw_img_dsc_t img_dsc;
 740              		.loc 1 598 15 view .LVU268
 741 02f4 13F0020F 		tst	r3, #2
 742 02f8 0BD0     		beq	.L27
 632:Middlewares/lvgl/src/widgets/lv_img.c ****                 lv_draw_label_dsc_t label_dsc;
 743              		.loc 1 632 18 is_stmt 1 view .LVU269
 632:Middlewares/lvgl/src/widgets/lv_img.c ****                 lv_draw_label_dsc_t label_dsc;
 744              		.loc 1 632 35 is_stmt 0 view .LVU270
 745 02fa 03F00303 		and	r3, r3, #3
 632:Middlewares/lvgl/src/widgets/lv_img.c ****                 lv_draw_label_dsc_t label_dsc;
ARM GAS  /tmp/ccCqaXuz.s 			page 38


 746              		.loc 1 632 20 view .LVU271
 747 02fe 022B     		cmp	r3, #2
 748 0300 00F09180 		beq	.L28
 641:Middlewares/lvgl/src/widgets/lv_img.c ****                 lv_draw_img(&obj->coords, clip_area, NULL, NULL);
 749              		.loc 1 641 70 is_stmt 1 view .LVU272
 642:Middlewares/lvgl/src/widgets/lv_img.c ****             }
 750              		.loc 1 642 17 view .LVU273
 751 0304 0023     		movs	r3, #0
 752 0306 1A46     		mov	r2, r3
 753 0308 0399     		ldr	r1, [sp, #12]
 754 030a 0898     		ldr	r0, [sp, #32]
 755              	.LVL70:
 642:Middlewares/lvgl/src/widgets/lv_img.c ****             }
 756              		.loc 1 642 17 is_stmt 0 view .LVU274
 757 030c FFF7FEFF 		bl	lv_draw_img
 758              	.LVL71:
 642:Middlewares/lvgl/src/widgets/lv_img.c ****             }
 759              		.loc 1 642 17 view .LVU275
 760 0310 88E6     		b	.L1
 761              	.LVL72:
 762              	.L27:
 763              	.LBB103:
 599:Middlewares/lvgl/src/widgets/lv_img.c ****                 lv_draw_img_dsc_init(&img_dsc);
 764              		.loc 1 599 17 is_stmt 1 view .LVU276
 600:Middlewares/lvgl/src/widgets/lv_img.c ****                 lv_obj_init_draw_img_dsc(obj, LV_PART_MAIN, &img_dsc);
 765              		.loc 1 600 17 view .LVU277
 766 0312 16A8     		add	r0, sp, #88
 767              	.LVL73:
 600:Middlewares/lvgl/src/widgets/lv_img.c ****                 lv_obj_init_draw_img_dsc(obj, LV_PART_MAIN, &img_dsc);
 768              		.loc 1 600 17 is_stmt 0 view .LVU278
 769 0314 FFF7FEFF 		bl	lv_draw_img_dsc_init
 770              	.LVL74:
 601:Middlewares/lvgl/src/widgets/lv_img.c **** 
 771              		.loc 1 601 17 is_stmt 1 view .LVU279
 772 0318 16AA     		add	r2, sp, #88
 773 031a 0021     		movs	r1, #0
 774 031c 2046     		mov	r0, r4
 775 031e FFF7FEFF 		bl	lv_obj_init_draw_img_dsc
 776              	.LVL75:
 603:Middlewares/lvgl/src/widgets/lv_img.c ****                 img_dsc.angle = angle_final;
 777              		.loc 1 603 17 view .LVU280
 603:Middlewares/lvgl/src/widgets/lv_img.c ****                 img_dsc.angle = angle_final;
 778              		.loc 1 603 30 is_stmt 0 view .LVU281
 779 0322 099B     		ldr	r3, [sp, #36]
 780 0324 ADF85A30 		strh	r3, [sp, #90]	@ movhi
 604:Middlewares/lvgl/src/widgets/lv_img.c ****                 img_dsc.pivot.x = img->pivot.x;
 781              		.loc 1 604 17 is_stmt 1 view .LVU282
 604:Middlewares/lvgl/src/widgets/lv_img.c ****                 img_dsc.pivot.x = img->pivot.x;
 782              		.loc 1 604 31 is_stmt 0 view .LVU283
 783 0328 059B     		ldr	r3, [sp, #20]
 784 032a ADF85830 		strh	r3, [sp, #88]	@ movhi
 605:Middlewares/lvgl/src/widgets/lv_img.c ****                 img_dsc.pivot.y = img->pivot.y;
 785              		.loc 1 605 17 is_stmt 1 view .LVU284
 605:Middlewares/lvgl/src/widgets/lv_img.c ****                 img_dsc.pivot.y = img->pivot.y;
 786              		.loc 1 605 45 is_stmt 0 view .LVU285
 787 032e B4F93230 		ldrsh	r3, [r4, #50]
 605:Middlewares/lvgl/src/widgets/lv_img.c ****                 img_dsc.pivot.y = img->pivot.y;
ARM GAS  /tmp/ccCqaXuz.s 			page 39


 788              		.loc 1 605 33 view .LVU286
 789 0332 ADF85C30 		strh	r3, [sp, #92]	@ movhi
 606:Middlewares/lvgl/src/widgets/lv_img.c ****                 img_dsc.antialias = img->antialias;
 790              		.loc 1 606 17 is_stmt 1 view .LVU287
 606:Middlewares/lvgl/src/widgets/lv_img.c ****                 img_dsc.antialias = img->antialias;
 791              		.loc 1 606 45 is_stmt 0 view .LVU288
 792 0336 B4F93430 		ldrsh	r3, [r4, #52]
 606:Middlewares/lvgl/src/widgets/lv_img.c ****                 img_dsc.antialias = img->antialias;
 793              		.loc 1 606 33 view .LVU289
 794 033a ADF85E30 		strh	r3, [sp, #94]	@ movhi
 607:Middlewares/lvgl/src/widgets/lv_img.c **** 
 795              		.loc 1 607 17 is_stmt 1 view .LVU290
 607:Middlewares/lvgl/src/widgets/lv_img.c **** 
 796              		.loc 1 607 40 is_stmt 0 view .LVU291
 797 033e 94F83830 		ldrb	r3, [r4, #56]	@ zero_extendqisi2
 798 0342 DB09     		lsrs	r3, r3, #7
 607:Middlewares/lvgl/src/widgets/lv_img.c **** 
 799              		.loc 1 607 35 view .LVU292
 800 0344 9DF86C20 		ldrb	r2, [sp, #108]	@ zero_extendqisi2
 801 0348 63F30002 		bfi	r2, r3, #0, #1
 802 034c 8DF86C20 		strb	r2, [sp, #108]
 609:Middlewares/lvgl/src/widgets/lv_img.c ****                 img_clip_area.x1 = bg_coords.x1 + pleft;
 803              		.loc 1 609 17 is_stmt 1 view .LVU293
 610:Middlewares/lvgl/src/widgets/lv_img.c ****                 img_clip_area.y1 = bg_coords.y1 + ptop;
 804              		.loc 1 610 17 view .LVU294
 610:Middlewares/lvgl/src/widgets/lv_img.c ****                 img_clip_area.y1 = bg_coords.y1 + ptop;
 805              		.loc 1 610 45 is_stmt 0 view .LVU295
 806 0350 BDF83030 		ldrh	r3, [sp, #48]
 610:Middlewares/lvgl/src/widgets/lv_img.c ****                 img_clip_area.y1 = bg_coords.y1 + ptop;
 807              		.loc 1 610 49 view .LVU296
 808 0354 049A     		ldr	r2, [sp, #16]
 809 0356 1A44     		add	r2, r2, r3
 610:Middlewares/lvgl/src/widgets/lv_img.c ****                 img_clip_area.y1 = bg_coords.y1 + ptop;
 810              		.loc 1 610 34 view .LVU297
 811 0358 ADF84820 		strh	r2, [sp, #72]	@ movhi
 611:Middlewares/lvgl/src/widgets/lv_img.c ****                 img_clip_area.x2 = bg_coords.x2 - pright;
 812              		.loc 1 611 17 is_stmt 1 view .LVU298
 611:Middlewares/lvgl/src/widgets/lv_img.c ****                 img_clip_area.x2 = bg_coords.x2 - pright;
 813              		.loc 1 611 45 is_stmt 0 view .LVU299
 814 035c BDF83230 		ldrh	r3, [sp, #50]
 611:Middlewares/lvgl/src/widgets/lv_img.c ****                 img_clip_area.x2 = bg_coords.x2 - pright;
 815              		.loc 1 611 49 view .LVU300
 816 0360 5B44     		add	r3, r3, fp
 611:Middlewares/lvgl/src/widgets/lv_img.c ****                 img_clip_area.x2 = bg_coords.x2 - pright;
 817              		.loc 1 611 34 view .LVU301
 818 0362 ADF84A30 		strh	r3, [sp, #74]	@ movhi
 612:Middlewares/lvgl/src/widgets/lv_img.c ****                 img_clip_area.y2 = bg_coords.y2 - pbottom;
 819              		.loc 1 612 17 is_stmt 1 view .LVU302
 612:Middlewares/lvgl/src/widgets/lv_img.c ****                 img_clip_area.y2 = bg_coords.y2 - pbottom;
 820              		.loc 1 612 45 is_stmt 0 view .LVU303
 821 0366 BDF83430 		ldrh	r3, [sp, #52]
 612:Middlewares/lvgl/src/widgets/lv_img.c ****                 img_clip_area.y2 = bg_coords.y2 - pbottom;
 822              		.loc 1 612 49 view .LVU304
 823 036a 069A     		ldr	r2, [sp, #24]
 824 036c 9B1A     		subs	r3, r3, r2
 612:Middlewares/lvgl/src/widgets/lv_img.c ****                 img_clip_area.y2 = bg_coords.y2 - pbottom;
 825              		.loc 1 612 34 view .LVU305
ARM GAS  /tmp/ccCqaXuz.s 			page 40


 826 036e ADF84C30 		strh	r3, [sp, #76]	@ movhi
 613:Middlewares/lvgl/src/widgets/lv_img.c **** 
 827              		.loc 1 613 17 is_stmt 1 view .LVU306
 613:Middlewares/lvgl/src/widgets/lv_img.c **** 
 828              		.loc 1 613 45 is_stmt 0 view .LVU307
 829 0372 BDF83630 		ldrh	r3, [sp, #54]
 613:Middlewares/lvgl/src/widgets/lv_img.c **** 
 830              		.loc 1 613 49 view .LVU308
 831 0376 079A     		ldr	r2, [sp, #28]
 832 0378 9B1A     		subs	r3, r3, r2
 613:Middlewares/lvgl/src/widgets/lv_img.c **** 
 833              		.loc 1 613 34 view .LVU309
 834 037a ADF84E30 		strh	r3, [sp, #78]	@ movhi
 615:Middlewares/lvgl/src/widgets/lv_img.c **** 
 835              		.loc 1 615 17 is_stmt 1 view .LVU310
 836 037e 12AA     		add	r2, sp, #72
 837 0380 0399     		ldr	r1, [sp, #12]
 838 0382 1046     		mov	r0, r2
 839 0384 FFF7FEFF 		bl	_lv_area_intersect
 840              	.LVL76:
 617:Middlewares/lvgl/src/widgets/lv_img.c ****                 coords_tmp.y1 = img_max_area.y1 + img->offset.y;
 841              		.loc 1 617 17 view .LVU311
 618:Middlewares/lvgl/src/widgets/lv_img.c ****                 if(coords_tmp.y1 > img_max_area.y1) coords_tmp.y1 -= img->h;
 842              		.loc 1 618 17 view .LVU312
 618:Middlewares/lvgl/src/widgets/lv_img.c ****                 if(coords_tmp.y1 > img_max_area.y1) coords_tmp.y1 -= img->h;
 843              		.loc 1 618 62 is_stmt 0 view .LVU313
 844 0388 638D     		ldrh	r3, [r4, #42]
 618:Middlewares/lvgl/src/widgets/lv_img.c ****                 if(coords_tmp.y1 > img_max_area.y1) coords_tmp.y1 -= img->h;
 845              		.loc 1 618 49 view .LVU314
 846 038a 5344     		add	r3, r3, r10
 847 038c 9AB2     		uxth	r2, r3
 848 038e 1BB2     		sxth	r3, r3
 618:Middlewares/lvgl/src/widgets/lv_img.c ****                 if(coords_tmp.y1 > img_max_area.y1) coords_tmp.y1 -= img->h;
 849              		.loc 1 618 31 view .LVU315
 850 0390 ADF85230 		strh	r3, [sp, #82]	@ movhi
 619:Middlewares/lvgl/src/widgets/lv_img.c ****                 coords_tmp.y2 = coords_tmp.y1 + img->h - 1;
 851              		.loc 1 619 17 is_stmt 1 view .LVU316
 619:Middlewares/lvgl/src/widgets/lv_img.c ****                 coords_tmp.y2 = coords_tmp.y1 + img->h - 1;
 852              		.loc 1 619 19 is_stmt 0 view .LVU317
 853 0394 9945     		cmp	r9, r3
 854 0396 03DA     		bge	.L14
 619:Middlewares/lvgl/src/widgets/lv_img.c ****                 coords_tmp.y2 = coords_tmp.y1 + img->h - 1;
 855              		.loc 1 619 53 is_stmt 1 discriminator 1 view .LVU318
 619:Middlewares/lvgl/src/widgets/lv_img.c ****                 coords_tmp.y2 = coords_tmp.y1 + img->h - 1;
 856              		.loc 1 619 73 is_stmt 0 discriminator 1 view .LVU319
 857 0398 E38D     		ldrh	r3, [r4, #46]
 619:Middlewares/lvgl/src/widgets/lv_img.c ****                 coords_tmp.y2 = coords_tmp.y1 + img->h - 1;
 858              		.loc 1 619 67 discriminator 1 view .LVU320
 859 039a D21A     		subs	r2, r2, r3
 860 039c ADF85220 		strh	r2, [sp, #82]	@ movhi
 861              	.L14:
 620:Middlewares/lvgl/src/widgets/lv_img.c **** 
 862              		.loc 1 620 17 is_stmt 1 view .LVU321
 620:Middlewares/lvgl/src/widgets/lv_img.c **** 
 863              		.loc 1 620 43 is_stmt 0 view .LVU322
 864 03a0 BDF85230 		ldrh	r3, [sp, #82]
 620:Middlewares/lvgl/src/widgets/lv_img.c **** 
ARM GAS  /tmp/ccCqaXuz.s 			page 41


 865              		.loc 1 620 52 view .LVU323
 866 03a4 E28D     		ldrh	r2, [r4, #46]
 620:Middlewares/lvgl/src/widgets/lv_img.c **** 
 867              		.loc 1 620 47 view .LVU324
 868 03a6 1344     		add	r3, r3, r2
 869 03a8 9BB2     		uxth	r3, r3
 620:Middlewares/lvgl/src/widgets/lv_img.c **** 
 870              		.loc 1 620 56 view .LVU325
 871 03aa 013B     		subs	r3, r3, #1
 620:Middlewares/lvgl/src/widgets/lv_img.c **** 
 872              		.loc 1 620 31 view .LVU326
 873 03ac ADF85630 		strh	r3, [sp, #86]	@ movhi
 622:Middlewares/lvgl/src/widgets/lv_img.c ****                     coords_tmp.x1 = img_max_area.x1 + img->offset.x;
 874              		.loc 1 622 17 is_stmt 1 view .LVU327
 875 03b0 1FE0     		b	.L15
 876              	.L18:
 628:Middlewares/lvgl/src/widgets/lv_img.c ****                     }
 877              		.loc 1 628 25 discriminator 2 view .LVU328
 878 03b2 16AB     		add	r3, sp, #88
 879 03b4 626A     		ldr	r2, [r4, #36]
 880 03b6 12A9     		add	r1, sp, #72
 881 03b8 14A8     		add	r0, sp, #80
 882 03ba FFF7FEFF 		bl	lv_draw_img
 883              	.LVL77:
 627:Middlewares/lvgl/src/widgets/lv_img.c ****                         lv_draw_img(&coords_tmp, &img_clip_area, img->src, &img_dsc);
 884              		.loc 1 627 60 discriminator 2 view .LVU329
 627:Middlewares/lvgl/src/widgets/lv_img.c ****                         lv_draw_img(&coords_tmp, &img_clip_area, img->src, &img_dsc);
 885              		.loc 1 627 80 is_stmt 0 discriminator 2 view .LVU330
 886 03be A38D     		ldrh	r3, [r4, #44]
 627:Middlewares/lvgl/src/widgets/lv_img.c ****                         lv_draw_img(&coords_tmp, &img_clip_area, img->src, &img_dsc);
 887              		.loc 1 627 74 discriminator 2 view .LVU331
 888 03c0 BDF85020 		ldrh	r2, [sp, #80]
 889 03c4 1A44     		add	r2, r2, r3
 890 03c6 ADF85020 		strh	r2, [sp, #80]	@ movhi
 627:Middlewares/lvgl/src/widgets/lv_img.c ****                         lv_draw_img(&coords_tmp, &img_clip_area, img->src, &img_dsc);
 891              		.loc 1 627 99 discriminator 2 view .LVU332
 892 03ca BDF85420 		ldrh	r2, [sp, #84]
 893 03ce 1344     		add	r3, r3, r2
 894 03d0 ADF85430 		strh	r3, [sp, #84]	@ movhi
 895              	.L17:
 627:Middlewares/lvgl/src/widgets/lv_img.c ****                         lv_draw_img(&coords_tmp, &img_clip_area, img->src, &img_dsc);
 896              		.loc 1 627 27 is_stmt 1 discriminator 1 view .LVU333
 627:Middlewares/lvgl/src/widgets/lv_img.c ****                         lv_draw_img(&coords_tmp, &img_clip_area, img->src, &img_dsc);
 897              		.loc 1 627 37 is_stmt 0 discriminator 1 view .LVU334
 898 03d4 BDF95030 		ldrsh	r3, [sp, #80]
 627:Middlewares/lvgl/src/widgets/lv_img.c ****                         lv_draw_img(&coords_tmp, &img_clip_area, img->src, &img_dsc);
 899              		.loc 1 627 21 discriminator 1 view .LVU335
 900 03d8 9D42     		cmp	r5, r3
 901 03da EADC     		bgt	.L18
 622:Middlewares/lvgl/src/widgets/lv_img.c ****                     coords_tmp.x1 = img_max_area.x1 + img->offset.x;
 902              		.loc 1 622 56 is_stmt 1 view .LVU336
 622:Middlewares/lvgl/src/widgets/lv_img.c ****                     coords_tmp.x1 = img_max_area.x1 + img->offset.x;
 903              		.loc 1 622 76 is_stmt 0 view .LVU337
 904 03dc E38D     		ldrh	r3, [r4, #46]
 622:Middlewares/lvgl/src/widgets/lv_img.c ****                     coords_tmp.x1 = img_max_area.x1 + img->offset.x;
 905              		.loc 1 622 70 view .LVU338
 906 03de BDF85220 		ldrh	r2, [sp, #82]
ARM GAS  /tmp/ccCqaXuz.s 			page 42


 907 03e2 1A44     		add	r2, r2, r3
 908 03e4 ADF85220 		strh	r2, [sp, #82]	@ movhi
 622:Middlewares/lvgl/src/widgets/lv_img.c ****                     coords_tmp.x1 = img_max_area.x1 + img->offset.x;
 909              		.loc 1 622 95 view .LVU339
 910 03e8 BDF85620 		ldrh	r2, [sp, #86]
 911 03ec 1344     		add	r3, r3, r2
 912 03ee ADF85630 		strh	r3, [sp, #86]	@ movhi
 913              	.L15:
 622:Middlewares/lvgl/src/widgets/lv_img.c ****                     coords_tmp.x1 = img_max_area.x1 + img->offset.x;
 914              		.loc 1 622 23 is_stmt 1 discriminator 1 view .LVU340
 622:Middlewares/lvgl/src/widgets/lv_img.c ****                     coords_tmp.x1 = img_max_area.x1 + img->offset.x;
 915              		.loc 1 622 33 is_stmt 0 discriminator 1 view .LVU341
 916 03f2 BDF95230 		ldrsh	r3, [sp, #82]
 622:Middlewares/lvgl/src/widgets/lv_img.c ****                     coords_tmp.x1 = img_max_area.x1 + img->offset.x;
 917              		.loc 1 622 17 discriminator 1 view .LVU342
 918 03f6 9E42     		cmp	r6, r3
 919 03f8 7FF714AE 		ble	.L1
 623:Middlewares/lvgl/src/widgets/lv_img.c ****                     if(coords_tmp.x1 > img_max_area.x1) coords_tmp.x1 -= img->w;
 920              		.loc 1 623 21 is_stmt 1 view .LVU343
 623:Middlewares/lvgl/src/widgets/lv_img.c ****                     if(coords_tmp.x1 > img_max_area.x1) coords_tmp.x1 -= img->w;
 921              		.loc 1 623 66 is_stmt 0 view .LVU344
 922 03fc 238D     		ldrh	r3, [r4, #40]
 623:Middlewares/lvgl/src/widgets/lv_img.c ****                     if(coords_tmp.x1 > img_max_area.x1) coords_tmp.x1 -= img->w;
 923              		.loc 1 623 53 view .LVU345
 924 03fe 4344     		add	r3, r3, r8
 925 0400 9AB2     		uxth	r2, r3
 926 0402 1BB2     		sxth	r3, r3
 623:Middlewares/lvgl/src/widgets/lv_img.c ****                     if(coords_tmp.x1 > img_max_area.x1) coords_tmp.x1 -= img->w;
 927              		.loc 1 623 35 view .LVU346
 928 0404 ADF85030 		strh	r3, [sp, #80]	@ movhi
 624:Middlewares/lvgl/src/widgets/lv_img.c ****                     coords_tmp.x2 = coords_tmp.x1 + img->w - 1;
 929              		.loc 1 624 21 is_stmt 1 view .LVU347
 624:Middlewares/lvgl/src/widgets/lv_img.c ****                     coords_tmp.x2 = coords_tmp.x1 + img->w - 1;
 930              		.loc 1 624 23 is_stmt 0 view .LVU348
 931 0408 9F42     		cmp	r7, r3
 932 040a 03DA     		bge	.L16
 624:Middlewares/lvgl/src/widgets/lv_img.c ****                     coords_tmp.x2 = coords_tmp.x1 + img->w - 1;
 933              		.loc 1 624 57 is_stmt 1 discriminator 1 view .LVU349
 624:Middlewares/lvgl/src/widgets/lv_img.c ****                     coords_tmp.x2 = coords_tmp.x1 + img->w - 1;
 934              		.loc 1 624 77 is_stmt 0 discriminator 1 view .LVU350
 935 040c A38D     		ldrh	r3, [r4, #44]
 624:Middlewares/lvgl/src/widgets/lv_img.c ****                     coords_tmp.x2 = coords_tmp.x1 + img->w - 1;
 936              		.loc 1 624 71 discriminator 1 view .LVU351
 937 040e D21A     		subs	r2, r2, r3
 938 0410 ADF85020 		strh	r2, [sp, #80]	@ movhi
 939              	.L16:
 625:Middlewares/lvgl/src/widgets/lv_img.c **** 
 940              		.loc 1 625 21 is_stmt 1 view .LVU352
 625:Middlewares/lvgl/src/widgets/lv_img.c **** 
 941              		.loc 1 625 47 is_stmt 0 view .LVU353
 942 0414 BDF85030 		ldrh	r3, [sp, #80]
 625:Middlewares/lvgl/src/widgets/lv_img.c **** 
 943              		.loc 1 625 56 view .LVU354
 944 0418 A28D     		ldrh	r2, [r4, #44]
 625:Middlewares/lvgl/src/widgets/lv_img.c **** 
 945              		.loc 1 625 51 view .LVU355
 946 041a 1344     		add	r3, r3, r2
ARM GAS  /tmp/ccCqaXuz.s 			page 43


 947 041c 9BB2     		uxth	r3, r3
 625:Middlewares/lvgl/src/widgets/lv_img.c **** 
 948              		.loc 1 625 60 view .LVU356
 949 041e 013B     		subs	r3, r3, #1
 625:Middlewares/lvgl/src/widgets/lv_img.c **** 
 950              		.loc 1 625 35 view .LVU357
 951 0420 ADF85430 		strh	r3, [sp, #84]	@ movhi
 627:Middlewares/lvgl/src/widgets/lv_img.c ****                         lv_draw_img(&coords_tmp, &img_clip_area, img->src, &img_dsc);
 952              		.loc 1 627 21 is_stmt 1 view .LVU358
 953 0424 D6E7     		b	.L17
 954              	.LVL78:
 955              	.L28:
 627:Middlewares/lvgl/src/widgets/lv_img.c ****                         lv_draw_img(&coords_tmp, &img_clip_area, img->src, &img_dsc);
 956              		.loc 1 627 21 is_stmt 0 view .LVU359
 957              	.LBE103:
 958              	.LBB104:
 633:Middlewares/lvgl/src/widgets/lv_img.c ****                 lv_draw_label_dsc_init(&label_dsc);
 959              		.loc 1 633 17 is_stmt 1 discriminator 4 view .LVU360
 634:Middlewares/lvgl/src/widgets/lv_img.c ****                 lv_obj_init_draw_label_dsc(obj, LV_PART_MAIN, &label_dsc);
 960              		.loc 1 634 17 discriminator 4 view .LVU361
 961 0426 16A8     		add	r0, sp, #88
 962              	.LVL79:
 634:Middlewares/lvgl/src/widgets/lv_img.c ****                 lv_obj_init_draw_label_dsc(obj, LV_PART_MAIN, &label_dsc);
 963              		.loc 1 634 17 is_stmt 0 discriminator 4 view .LVU362
 964 0428 FFF7FEFF 		bl	lv_draw_label_dsc_init
 965              	.LVL80:
 635:Middlewares/lvgl/src/widgets/lv_img.c **** 
 966              		.loc 1 635 17 is_stmt 1 discriminator 4 view .LVU363
 967 042c 16AA     		add	r2, sp, #88
 968 042e 0021     		movs	r1, #0
 969 0430 2046     		mov	r0, r4
 970 0432 FFF7FEFF 		bl	lv_obj_init_draw_label_dsc
 971              	.LVL81:
 637:Middlewares/lvgl/src/widgets/lv_img.c ****             }
 972              		.loc 1 637 17 discriminator 4 view .LVU364
 637:Middlewares/lvgl/src/widgets/lv_img.c ****             }
 973              		.loc 1 637 71 is_stmt 0 discriminator 4 view .LVU365
 974 0436 636A     		ldr	r3, [r4, #36]
 637:Middlewares/lvgl/src/widgets/lv_img.c ****             }
 975              		.loc 1 637 17 discriminator 4 view .LVU366
 976 0438 0022     		movs	r2, #0
 977 043a 0092     		str	r2, [sp]
 978 043c 16AA     		add	r2, sp, #88
 979 043e 0399     		ldr	r1, [sp, #12]
 980 0440 0898     		ldr	r0, [sp, #32]
 981 0442 FFF7FEFF 		bl	lv_draw_label
 982              	.LVL82:
 983              	.LBE104:
 984 0446 EDE5     		b	.L1
 985              	.L30:
 986              		.align	2
 987              	.L29:
 988 0448 00000000 		.word	.LANCHOR0
 989              	.LBE100:
 990              	.LBE79:
 991              		.cfi_endproc
 992              	.LFE165:
ARM GAS  /tmp/ccCqaXuz.s 			page 44


 994              		.section	.text.lv_img_destructor,"ax",%progbits
 995              		.align	1
 996              		.syntax unified
 997              		.thumb
 998              		.thumb_func
 999              		.fpu fpv5-d16
 1001              	lv_img_destructor:
 1002              	.LVL83:
 1003              	.LFB163:
 392:Middlewares/lvgl/src/widgets/lv_img.c ****     LV_UNUSED(class_p);
 1004              		.loc 1 392 1 is_stmt 1 view -0
 1005              		.cfi_startproc
 1006              		@ args = 0, pretend = 0, frame = 0
 1007              		@ frame_needed = 0, uses_anonymous_args = 0
 393:Middlewares/lvgl/src/widgets/lv_img.c ****     lv_img_t * img = (lv_img_t *)obj;
 1008              		.loc 1 393 5 view .LVU368
 394:Middlewares/lvgl/src/widgets/lv_img.c ****     if(img->src_type == LV_IMG_SRC_FILE || img->src_type == LV_IMG_SRC_SYMBOL) {
 1009              		.loc 1 394 5 view .LVU369
 395:Middlewares/lvgl/src/widgets/lv_img.c ****         lv_mem_free((void*)img->src);
 1010              		.loc 1 395 5 view .LVU370
 395:Middlewares/lvgl/src/widgets/lv_img.c ****         lv_mem_free((void*)img->src);
 1011              		.loc 1 395 22 is_stmt 0 view .LVU371
 1012 0000 91F83830 		ldrb	r3, [r1, #56]	@ zero_extendqisi2
 395:Middlewares/lvgl/src/widgets/lv_img.c ****         lv_mem_free((void*)img->src);
 1013              		.loc 1 395 41 view .LVU372
 1014 0004 03F00303 		and	r3, r3, #3
 1015 0008 013B     		subs	r3, r3, #1
 1016 000a DBB2     		uxtb	r3, r3
 395:Middlewares/lvgl/src/widgets/lv_img.c ****         lv_mem_free((void*)img->src);
 1017              		.loc 1 395 7 view .LVU373
 1018 000c 012B     		cmp	r3, #1
 1019 000e 00D9     		bls	.L37
 1020 0010 7047     		bx	lr
 1021              	.L37:
 392:Middlewares/lvgl/src/widgets/lv_img.c ****     LV_UNUSED(class_p);
 1022              		.loc 1 392 1 view .LVU374
 1023 0012 10B5     		push	{r4, lr}
 1024              	.LCFI4:
 1025              		.cfi_def_cfa_offset 8
 1026              		.cfi_offset 4, -8
 1027              		.cfi_offset 14, -4
 1028 0014 0C46     		mov	r4, r1
 396:Middlewares/lvgl/src/widgets/lv_img.c ****         img->src      = NULL;
 1029              		.loc 1 396 9 is_stmt 1 view .LVU375
 1030 0016 486A     		ldr	r0, [r1, #36]
 1031              	.LVL84:
 396:Middlewares/lvgl/src/widgets/lv_img.c ****         img->src      = NULL;
 1032              		.loc 1 396 9 is_stmt 0 view .LVU376
 1033 0018 FFF7FEFF 		bl	lv_mem_free
 1034              	.LVL85:
 397:Middlewares/lvgl/src/widgets/lv_img.c ****         img->src_type = LV_IMG_SRC_UNKNOWN;
 1035              		.loc 1 397 9 is_stmt 1 view .LVU377
 397:Middlewares/lvgl/src/widgets/lv_img.c ****         img->src_type = LV_IMG_SRC_UNKNOWN;
 1036              		.loc 1 397 23 is_stmt 0 view .LVU378
 1037 001c 0023     		movs	r3, #0
 1038 001e 6362     		str	r3, [r4, #36]
 398:Middlewares/lvgl/src/widgets/lv_img.c ****     }
ARM GAS  /tmp/ccCqaXuz.s 			page 45


 1039              		.loc 1 398 9 is_stmt 1 view .LVU379
 398:Middlewares/lvgl/src/widgets/lv_img.c ****     }
 1040              		.loc 1 398 23 is_stmt 0 view .LVU380
 1041 0020 94F83830 		ldrb	r3, [r4, #56]	@ zero_extendqisi2
 1042 0024 43F00303 		orr	r3, r3, #3
 1043 0028 84F83830 		strb	r3, [r4, #56]
 400:Middlewares/lvgl/src/widgets/lv_img.c **** 
 1044              		.loc 1 400 1 view .LVU381
 1045 002c 10BD     		pop	{r4, pc}
 400:Middlewares/lvgl/src/widgets/lv_img.c **** 
 1046              		.loc 1 400 1 view .LVU382
 1047              		.cfi_endproc
 1048              	.LFE163:
 1050              		.section	.text.lv_img_constructor,"ax",%progbits
 1051              		.align	1
 1052              		.syntax unified
 1053              		.thumb
 1054              		.thumb_func
 1055              		.fpu fpv5-d16
 1057              	lv_img_constructor:
 1058              	.LVL86:
 1059              	.LFB162:
 366:Middlewares/lvgl/src/widgets/lv_img.c ****     LV_UNUSED(class_p);
 1060              		.loc 1 366 1 is_stmt 1 view -0
 1061              		.cfi_startproc
 1062              		@ args = 0, pretend = 0, frame = 0
 1063              		@ frame_needed = 0, uses_anonymous_args = 0
 366:Middlewares/lvgl/src/widgets/lv_img.c ****     LV_UNUSED(class_p);
 1064              		.loc 1 366 1 is_stmt 0 view .LVU384
 1065 0000 38B5     		push	{r3, r4, r5, lr}
 1066              	.LCFI5:
 1067              		.cfi_def_cfa_offset 16
 1068              		.cfi_offset 3, -16
 1069              		.cfi_offset 4, -12
 1070              		.cfi_offset 5, -8
 1071              		.cfi_offset 14, -4
 1072 0002 0C46     		mov	r4, r1
 367:Middlewares/lvgl/src/widgets/lv_img.c ****     LV_TRACE_OBJ_CREATE("begin");
 1073              		.loc 1 367 5 is_stmt 1 view .LVU385
 368:Middlewares/lvgl/src/widgets/lv_img.c **** 
 1074              		.loc 1 368 33 view .LVU386
 370:Middlewares/lvgl/src/widgets/lv_img.c **** 
 1075              		.loc 1 370 5 view .LVU387
 1076              	.LVL87:
 372:Middlewares/lvgl/src/widgets/lv_img.c ****     img->src_type  = LV_IMG_SRC_UNKNOWN;
 1077              		.loc 1 372 5 view .LVU388
 372:Middlewares/lvgl/src/widgets/lv_img.c ****     img->src_type  = LV_IMG_SRC_UNKNOWN;
 1078              		.loc 1 372 20 is_stmt 0 view .LVU389
 1079 0004 0025     		movs	r5, #0
 1080 0006 4D62     		str	r5, [r1, #36]
 373:Middlewares/lvgl/src/widgets/lv_img.c ****     img->cf        = LV_IMG_CF_UNKNOWN;
 1081              		.loc 1 373 5 is_stmt 1 view .LVU390
 373:Middlewares/lvgl/src/widgets/lv_img.c ****     img->cf        = LV_IMG_CF_UNKNOWN;
 1082              		.loc 1 373 20 is_stmt 0 view .LVU391
 1083 0008 91F83830 		ldrb	r3, [r1, #56]	@ zero_extendqisi2
 1084 000c 43F00303 		orr	r3, r3, #3
 1085 0010 81F83830 		strb	r3, [r1, #56]
ARM GAS  /tmp/ccCqaXuz.s 			page 46


 374:Middlewares/lvgl/src/widgets/lv_img.c ****     img->w         = lv_obj_get_width(obj);
 1086              		.loc 1 374 5 is_stmt 1 view .LVU392
 374:Middlewares/lvgl/src/widgets/lv_img.c ****     img->w         = lv_obj_get_width(obj);
 1087              		.loc 1 374 20 is_stmt 0 view .LVU393
 1088 0014 DBB2     		uxtb	r3, r3
 1089 0016 65F38603 		bfi	r3, r5, #2, #5
 1090 001a 81F83830 		strb	r3, [r1, #56]
 375:Middlewares/lvgl/src/widgets/lv_img.c ****     img->h         = lv_obj_get_height(obj);
 1091              		.loc 1 375 5 is_stmt 1 view .LVU394
 375:Middlewares/lvgl/src/widgets/lv_img.c ****     img->h         = lv_obj_get_height(obj);
 1092              		.loc 1 375 22 is_stmt 0 view .LVU395
 1093 001e 0846     		mov	r0, r1
 1094              	.LVL88:
 375:Middlewares/lvgl/src/widgets/lv_img.c ****     img->h         = lv_obj_get_height(obj);
 1095              		.loc 1 375 22 view .LVU396
 1096 0020 FFF7FEFF 		bl	lv_obj_get_width
 1097              	.LVL89:
 375:Middlewares/lvgl/src/widgets/lv_img.c ****     img->h         = lv_obj_get_height(obj);
 1098              		.loc 1 375 20 view .LVU397
 1099 0024 A085     		strh	r0, [r4, #44]	@ movhi
 376:Middlewares/lvgl/src/widgets/lv_img.c ****     img->angle = 0;
 1100              		.loc 1 376 5 is_stmt 1 view .LVU398
 376:Middlewares/lvgl/src/widgets/lv_img.c ****     img->angle = 0;
 1101              		.loc 1 376 22 is_stmt 0 view .LVU399
 1102 0026 2046     		mov	r0, r4
 1103 0028 FFF7FEFF 		bl	lv_obj_get_height
 1104              	.LVL90:
 376:Middlewares/lvgl/src/widgets/lv_img.c ****     img->angle = 0;
 1105              		.loc 1 376 20 view .LVU400
 1106 002c E085     		strh	r0, [r4, #46]	@ movhi
 377:Middlewares/lvgl/src/widgets/lv_img.c ****     img->zoom = LV_IMG_ZOOM_NONE;
 1107              		.loc 1 377 5 is_stmt 1 view .LVU401
 377:Middlewares/lvgl/src/widgets/lv_img.c ****     img->zoom = LV_IMG_ZOOM_NONE;
 1108              		.loc 1 377 16 is_stmt 0 view .LVU402
 1109 002e 2586     		strh	r5, [r4, #48]	@ movhi
 378:Middlewares/lvgl/src/widgets/lv_img.c ****     img->antialias = LV_COLOR_DEPTH > 8 ? 1 : 0;
 1110              		.loc 1 378 5 is_stmt 1 view .LVU403
 378:Middlewares/lvgl/src/widgets/lv_img.c ****     img->antialias = LV_COLOR_DEPTH > 8 ? 1 : 0;
 1111              		.loc 1 378 15 is_stmt 0 view .LVU404
 1112 0030 4FF48073 		mov	r3, #256
 1113 0034 E386     		strh	r3, [r4, #54]	@ movhi
 379:Middlewares/lvgl/src/widgets/lv_img.c ****     img->offset.x  = 0;
 1114              		.loc 1 379 5 is_stmt 1 view .LVU405
 379:Middlewares/lvgl/src/widgets/lv_img.c ****     img->offset.x  = 0;
 1115              		.loc 1 379 20 is_stmt 0 view .LVU406
 1116 0036 94F83830 		ldrb	r3, [r4, #56]	@ zero_extendqisi2
 1117 003a 43F08003 		orr	r3, r3, #128
 1118 003e 84F83830 		strb	r3, [r4, #56]
 380:Middlewares/lvgl/src/widgets/lv_img.c ****     img->offset.y  = 0;
 1119              		.loc 1 380 5 is_stmt 1 view .LVU407
 380:Middlewares/lvgl/src/widgets/lv_img.c ****     img->offset.y  = 0;
 1120              		.loc 1 380 20 is_stmt 0 view .LVU408
 1121 0042 2585     		strh	r5, [r4, #40]	@ movhi
 381:Middlewares/lvgl/src/widgets/lv_img.c ****     img->pivot.x = 0;
 1122              		.loc 1 381 5 is_stmt 1 view .LVU409
 381:Middlewares/lvgl/src/widgets/lv_img.c ****     img->pivot.x = 0;
 1123              		.loc 1 381 20 is_stmt 0 view .LVU410
ARM GAS  /tmp/ccCqaXuz.s 			page 47


 1124 0044 6585     		strh	r5, [r4, #42]	@ movhi
 382:Middlewares/lvgl/src/widgets/lv_img.c ****     img->pivot.y = 0;
 1125              		.loc 1 382 5 is_stmt 1 view .LVU411
 382:Middlewares/lvgl/src/widgets/lv_img.c ****     img->pivot.y = 0;
 1126              		.loc 1 382 18 is_stmt 0 view .LVU412
 1127 0046 6586     		strh	r5, [r4, #50]	@ movhi
 383:Middlewares/lvgl/src/widgets/lv_img.c **** 
 1128              		.loc 1 383 5 is_stmt 1 view .LVU413
 383:Middlewares/lvgl/src/widgets/lv_img.c **** 
 1129              		.loc 1 383 18 is_stmt 0 view .LVU414
 1130 0048 A586     		strh	r5, [r4, #52]	@ movhi
 385:Middlewares/lvgl/src/widgets/lv_img.c ****     lv_obj_add_flag(obj, LV_OBJ_FLAG_ADV_HITTEST);
 1131              		.loc 1 385 5 is_stmt 1 view .LVU415
 1132 004a 0221     		movs	r1, #2
 1133 004c 2046     		mov	r0, r4
 1134 004e FFF7FEFF 		bl	lv_obj_clear_flag
 1135              	.LVL91:
 386:Middlewares/lvgl/src/widgets/lv_img.c **** 
 1136              		.loc 1 386 5 view .LVU416
 1137 0052 4FF48041 		mov	r1, #16384
 1138 0056 2046     		mov	r0, r4
 1139 0058 FFF7FEFF 		bl	lv_obj_add_flag
 1140              	.LVL92:
 388:Middlewares/lvgl/src/widgets/lv_img.c **** }
 1141              		.loc 1 388 36 view .LVU417
 389:Middlewares/lvgl/src/widgets/lv_img.c **** 
 1142              		.loc 1 389 1 is_stmt 0 view .LVU418
 1143 005c 38BD     		pop	{r3, r4, r5, pc}
 389:Middlewares/lvgl/src/widgets/lv_img.c **** 
 1144              		.loc 1 389 1 view .LVU419
 1145              		.cfi_endproc
 1146              	.LFE162:
 1148              		.section	.text.lv_img_create,"ax",%progbits
 1149              		.align	1
 1150              		.global	lv_img_create
 1151              		.syntax unified
 1152              		.thumb
 1153              		.thumb_func
 1154              		.fpu fpv5-d16
 1156              	lv_img_create:
 1157              	.LVL93:
 1158              	.LFB147:
  58:Middlewares/lvgl/src/widgets/lv_img.c ****     LV_LOG_INFO("begin")
 1159              		.loc 1 58 1 is_stmt 1 view -0
 1160              		.cfi_startproc
 1161              		@ args = 0, pretend = 0, frame = 0
 1162              		@ frame_needed = 0, uses_anonymous_args = 0
  58:Middlewares/lvgl/src/widgets/lv_img.c ****     LV_LOG_INFO("begin")
 1163              		.loc 1 58 1 is_stmt 0 view .LVU421
 1164 0000 10B5     		push	{r4, lr}
 1165              	.LCFI6:
 1166              		.cfi_def_cfa_offset 8
 1167              		.cfi_offset 4, -8
 1168              		.cfi_offset 14, -4
 1169 0002 0146     		mov	r1, r0
  60:Middlewares/lvgl/src/widgets/lv_img.c ****     lv_obj_class_init_obj(obj);
 1170              		.loc 1 60 5 is_stmt 1 view .LVU422
ARM GAS  /tmp/ccCqaXuz.s 			page 48


  60:Middlewares/lvgl/src/widgets/lv_img.c ****     lv_obj_class_init_obj(obj);
 1171              		.loc 1 60 22 is_stmt 0 view .LVU423
 1172 0004 0348     		ldr	r0, .L42
 1173              	.LVL94:
  60:Middlewares/lvgl/src/widgets/lv_img.c ****     lv_obj_class_init_obj(obj);
 1174              		.loc 1 60 22 view .LVU424
 1175 0006 FFF7FEFF 		bl	lv_obj_class_create_obj
 1176              	.LVL95:
  60:Middlewares/lvgl/src/widgets/lv_img.c ****     lv_obj_class_init_obj(obj);
 1177              		.loc 1 60 22 view .LVU425
 1178 000a 0446     		mov	r4, r0
 1179              	.LVL96:
  61:Middlewares/lvgl/src/widgets/lv_img.c ****     return obj;
 1180              		.loc 1 61 5 is_stmt 1 view .LVU426
 1181 000c FFF7FEFF 		bl	lv_obj_class_init_obj
 1182              	.LVL97:
  62:Middlewares/lvgl/src/widgets/lv_img.c **** }
 1183              		.loc 1 62 5 view .LVU427
  63:Middlewares/lvgl/src/widgets/lv_img.c **** 
 1184              		.loc 1 63 1 is_stmt 0 view .LVU428
 1185 0010 2046     		mov	r0, r4
 1186 0012 10BD     		pop	{r4, pc}
 1187              	.LVL98:
 1188              	.L43:
  63:Middlewares/lvgl/src/widgets/lv_img.c **** 
 1189              		.loc 1 63 1 view .LVU429
 1190              		.align	2
 1191              	.L42:
 1192 0014 00000000 		.word	.LANCHOR0
 1193              		.cfi_endproc
 1194              	.LFE147:
 1196              		.section	.text.lv_img_set_src,"ax",%progbits
 1197              		.align	1
 1198              		.global	lv_img_set_src
 1199              		.syntax unified
 1200              		.thumb
 1201              		.thumb_func
 1202              		.fpu fpv5-d16
 1204              	lv_img_set_src:
 1205              	.LVL99:
 1206              	.LFB148:
  70:Middlewares/lvgl/src/widgets/lv_img.c ****     LV_ASSERT_OBJ(obj, MY_CLASS);
 1207              		.loc 1 70 1 is_stmt 1 view -0
 1208              		.cfi_startproc
 1209              		@ args = 0, pretend = 0, frame = 8
 1210              		@ frame_needed = 0, uses_anonymous_args = 0
  70:Middlewares/lvgl/src/widgets/lv_img.c ****     LV_ASSERT_OBJ(obj, MY_CLASS);
 1211              		.loc 1 70 1 is_stmt 0 view .LVU431
 1212 0000 2DE9F041 		push	{r4, r5, r6, r7, r8, lr}
 1213              	.LCFI7:
 1214              		.cfi_def_cfa_offset 24
 1215              		.cfi_offset 4, -24
 1216              		.cfi_offset 5, -20
 1217              		.cfi_offset 6, -16
 1218              		.cfi_offset 7, -12
 1219              		.cfi_offset 8, -8
 1220              		.cfi_offset 14, -4
ARM GAS  /tmp/ccCqaXuz.s 			page 49


 1221 0004 86B0     		sub	sp, sp, #24
 1222              	.LCFI8:
 1223              		.cfi_def_cfa_offset 48
 1224 0006 0446     		mov	r4, r0
 1225 0008 0E46     		mov	r6, r1
  71:Middlewares/lvgl/src/widgets/lv_img.c **** 
 1226              		.loc 1 71 5 is_stmt 1 view .LVU432
  71:Middlewares/lvgl/src/widgets/lv_img.c **** 
 1227              		.loc 1 71 5 view .LVU433
  71:Middlewares/lvgl/src/widgets/lv_img.c **** 
 1228              		.loc 1 71 5 view .LVU434
  73:Middlewares/lvgl/src/widgets/lv_img.c **** 
 1229              		.loc 1 73 5 view .LVU435
 1230 000a FFF7FEFF 		bl	lv_obj_invalidate
 1231              	.LVL100:
  75:Middlewares/lvgl/src/widgets/lv_img.c ****     lv_img_t * img = (lv_img_t *)obj;
 1232              		.loc 1 75 5 view .LVU436
  75:Middlewares/lvgl/src/widgets/lv_img.c ****     lv_img_t * img = (lv_img_t *)obj;
 1233              		.loc 1 75 29 is_stmt 0 view .LVU437
 1234 000e 3046     		mov	r0, r6
 1235 0010 FFF7FEFF 		bl	lv_img_src_get_type
 1236              	.LVL101:
  76:Middlewares/lvgl/src/widgets/lv_img.c **** 
 1237              		.loc 1 76 5 is_stmt 1 view .LVU438
  95:Middlewares/lvgl/src/widgets/lv_img.c ****         LV_LOG_WARN("lv_img_set_src: unknown image type");
 1238              		.loc 1 95 5 view .LVU439
  95:Middlewares/lvgl/src/widgets/lv_img.c ****         LV_LOG_WARN("lv_img_set_src: unknown image type");
 1239              		.loc 1 95 7 is_stmt 0 view .LVU440
 1240 0014 0328     		cmp	r0, #3
 1241 0016 40D0     		beq	.L60
 1242 0018 0546     		mov	r5, r0
 105:Middlewares/lvgl/src/widgets/lv_img.c ****     lv_img_decoder_get_info(src, &header);
 1243              		.loc 1 105 5 is_stmt 1 view .LVU441
 106:Middlewares/lvgl/src/widgets/lv_img.c **** 
 1244              		.loc 1 106 5 view .LVU442
 1245 001a 05A9     		add	r1, sp, #20
 1246 001c 3046     		mov	r0, r6
 1247              	.LVL102:
 106:Middlewares/lvgl/src/widgets/lv_img.c **** 
 1248              		.loc 1 106 5 is_stmt 0 view .LVU443
 1249 001e FFF7FEFF 		bl	lv_img_decoder_get_info
 1250              	.LVL103:
 109:Middlewares/lvgl/src/widgets/lv_img.c ****         /*If memory was allocated because of the previous `src_type` then free it*/
 1251              		.loc 1 109 5 is_stmt 1 view .LVU444
 109:Middlewares/lvgl/src/widgets/lv_img.c ****         /*If memory was allocated because of the previous `src_type` then free it*/
 1252              		.loc 1 109 7 is_stmt 0 view .LVU445
 1253 0022 002D     		cmp	r5, #0
 1254 0024 52D1     		bne	.L48
 111:Middlewares/lvgl/src/widgets/lv_img.c ****             lv_mem_free((void*)img->src);
 1255              		.loc 1 111 9 is_stmt 1 view .LVU446
 111:Middlewares/lvgl/src/widgets/lv_img.c ****             lv_mem_free((void*)img->src);
 1256              		.loc 1 111 26 is_stmt 0 view .LVU447
 1257 0026 94F83830 		ldrb	r3, [r4, #56]	@ zero_extendqisi2
 111:Middlewares/lvgl/src/widgets/lv_img.c ****             lv_mem_free((void*)img->src);
 1258              		.loc 1 111 45 view .LVU448
 1259 002a 03F00303 		and	r3, r3, #3
 1260 002e 013B     		subs	r3, r3, #1
ARM GAS  /tmp/ccCqaXuz.s 			page 50


 1261 0030 DBB2     		uxtb	r3, r3
 111:Middlewares/lvgl/src/widgets/lv_img.c ****             lv_mem_free((void*)img->src);
 1262              		.loc 1 111 11 view .LVU449
 1263 0032 012B     		cmp	r3, #1
 1264 0034 46D9     		bls	.L61
 1265              	.L49:
 114:Middlewares/lvgl/src/widgets/lv_img.c ****     }
 1266              		.loc 1 114 9 is_stmt 1 view .LVU450
 114:Middlewares/lvgl/src/widgets/lv_img.c ****     }
 1267              		.loc 1 114 18 is_stmt 0 view .LVU451
 1268 0036 6662     		str	r6, [r4, #36]
 1269              	.L50:
 136:Middlewares/lvgl/src/widgets/lv_img.c ****         /*`lv_img_dsc_get_info` couldn't set the with and height of a font so set it here*/
 1270              		.loc 1 136 5 is_stmt 1 view .LVU452
 136:Middlewares/lvgl/src/widgets/lv_img.c ****         /*`lv_img_dsc_get_info` couldn't set the with and height of a font so set it here*/
 1271              		.loc 1 136 7 is_stmt 0 view .LVU453
 1272 0038 022D     		cmp	r5, #2
 1273 003a 6BD0     		beq	.L62
 1274              	.LVL104:
 1275              	.L54:
 147:Middlewares/lvgl/src/widgets/lv_img.c ****     img->w        = header.w;
 1276              		.loc 1 147 5 is_stmt 1 view .LVU454
 147:Middlewares/lvgl/src/widgets/lv_img.c ****     img->w        = header.w;
 1277              		.loc 1 147 19 is_stmt 0 view .LVU455
 1278 003c 94F83830 		ldrb	r3, [r4, #56]	@ zero_extendqisi2
 1279 0040 65F30103 		bfi	r3, r5, #0, #2
 1280 0044 84F83830 		strb	r3, [r4, #56]
 148:Middlewares/lvgl/src/widgets/lv_img.c ****     img->h        = header.h;
 1281              		.loc 1 148 5 is_stmt 1 view .LVU456
 148:Middlewares/lvgl/src/widgets/lv_img.c ****     img->h        = header.h;
 1282              		.loc 1 148 27 is_stmt 0 view .LVU457
 1283 0048 059A     		ldr	r2, [sp, #20]
 1284 004a C2F38A23 		ubfx	r3, r2, #10, #11
 148:Middlewares/lvgl/src/widgets/lv_img.c ****     img->h        = header.h;
 1285              		.loc 1 148 19 view .LVU458
 1286 004e A385     		strh	r3, [r4, #44]	@ movhi
 149:Middlewares/lvgl/src/widgets/lv_img.c ****     img->cf       = header.cf;
 1287              		.loc 1 149 5 is_stmt 1 view .LVU459
 149:Middlewares/lvgl/src/widgets/lv_img.c ****     img->cf       = header.cf;
 1288              		.loc 1 149 27 is_stmt 0 view .LVU460
 1289 0050 BDF81630 		ldrh	r3, [sp, #22]
 1290 0054 C3F34A11 		ubfx	r1, r3, #5, #11
 1291 0058 0B46     		mov	r3, r1
 149:Middlewares/lvgl/src/widgets/lv_img.c ****     img->cf       = header.cf;
 1292              		.loc 1 149 19 view .LVU461
 1293 005a E185     		strh	r1, [r4, #46]	@ movhi
 150:Middlewares/lvgl/src/widgets/lv_img.c ****     img->pivot.x = header.w / 2;
 1294              		.loc 1 150 5 is_stmt 1 view .LVU462
 150:Middlewares/lvgl/src/widgets/lv_img.c ****     img->pivot.x = header.w / 2;
 1295              		.loc 1 150 27 is_stmt 0 view .LVU463
 1296 005c 9DF81400 		ldrb	r0, [sp, #20]	@ zero_extendqisi2
 150:Middlewares/lvgl/src/widgets/lv_img.c ****     img->pivot.x = header.w / 2;
 1297              		.loc 1 150 19 view .LVU464
 1298 0060 94F83810 		ldrb	r1, [r4, #56]	@ zero_extendqisi2
 1299 0064 60F38601 		bfi	r1, r0, #2, #5
 1300 0068 84F83810 		strb	r1, [r4, #56]
 151:Middlewares/lvgl/src/widgets/lv_img.c ****     img->pivot.y = header.h / 2;
ARM GAS  /tmp/ccCqaXuz.s 			page 51


 1301              		.loc 1 151 5 is_stmt 1 view .LVU465
 151:Middlewares/lvgl/src/widgets/lv_img.c ****     img->pivot.y = header.h / 2;
 1302              		.loc 1 151 29 is_stmt 0 view .LVU466
 1303 006c C2F3C922 		ubfx	r2, r2, #11, #10
 151:Middlewares/lvgl/src/widgets/lv_img.c ****     img->pivot.y = header.h / 2;
 1304              		.loc 1 151 18 view .LVU467
 1305 0070 6286     		strh	r2, [r4, #50]	@ movhi
 152:Middlewares/lvgl/src/widgets/lv_img.c **** 
 1306              		.loc 1 152 5 is_stmt 1 view .LVU468
 152:Middlewares/lvgl/src/widgets/lv_img.c **** 
 1307              		.loc 1 152 29 is_stmt 0 view .LVU469
 1308 0072 5B10     		asrs	r3, r3, #1
 152:Middlewares/lvgl/src/widgets/lv_img.c **** 
 1309              		.loc 1 152 18 view .LVU470
 1310 0074 A386     		strh	r3, [r4, #52]	@ movhi
 154:Middlewares/lvgl/src/widgets/lv_img.c **** 
 1311              		.loc 1 154 5 is_stmt 1 view .LVU471
 1312 0076 2046     		mov	r0, r4
 1313 0078 FFF7FEFF 		bl	lv_obj_refresh_self_size
 1314              	.LVL105:
 157:Middlewares/lvgl/src/widgets/lv_img.c **** 
 1315              		.loc 1 157 5 view .LVU472
 157:Middlewares/lvgl/src/widgets/lv_img.c **** 
 1316              		.loc 1 157 11 is_stmt 0 view .LVU473
 1317 007c 238E     		ldrh	r3, [r4, #48]
 157:Middlewares/lvgl/src/widgets/lv_img.c **** 
 1318              		.loc 1 157 7 view .LVU474
 1319 007e 1BB9     		cbnz	r3, .L57
 157:Middlewares/lvgl/src/widgets/lv_img.c **** 
 1320              		.loc 1 157 25 discriminator 2 view .LVU475
 1321 0080 E38E     		ldrh	r3, [r4, #54]
 157:Middlewares/lvgl/src/widgets/lv_img.c **** 
 1322              		.loc 1 157 19 discriminator 2 view .LVU476
 1323 0082 B3F5807F 		cmp	r3, #256
 1324 0086 02D0     		beq	.L58
 1325              	.L57:
 157:Middlewares/lvgl/src/widgets/lv_img.c **** 
 1326              		.loc 1 157 53 is_stmt 1 discriminator 3 view .LVU477
 1327 0088 2046     		mov	r0, r4
 1328 008a FFF7FEFF 		bl	lv_obj_refresh_ext_draw_size
 1329              	.LVL106:
 1330              	.L58:
 159:Middlewares/lvgl/src/widgets/lv_img.c **** }
 1331              		.loc 1 159 5 view .LVU478
 1332 008e 2046     		mov	r0, r4
 1333 0090 FFF7FEFF 		bl	lv_obj_invalidate
 1334              	.LVL107:
 1335              	.L44:
 160:Middlewares/lvgl/src/widgets/lv_img.c **** 
 1336              		.loc 1 160 1 is_stmt 0 view .LVU479
 1337 0094 06B0     		add	sp, sp, #24
 1338              	.LCFI9:
 1339              		.cfi_remember_state
 1340              		.cfi_def_cfa_offset 24
 1341              		@ sp needed
 1342 0096 BDE8F081 		pop	{r4, r5, r6, r7, r8, pc}
 1343              	.LVL108:
ARM GAS  /tmp/ccCqaXuz.s 			page 52


 1344              	.L60:
 1345              	.LCFI10:
 1346              		.cfi_restore_state
  96:Middlewares/lvgl/src/widgets/lv_img.c ****         if(img->src_type == LV_IMG_SRC_SYMBOL || img->src_type == LV_IMG_SRC_FILE) {
 1347              		.loc 1 96 58 is_stmt 1 view .LVU480
  97:Middlewares/lvgl/src/widgets/lv_img.c ****             lv_mem_free((void*)img->src);
 1348              		.loc 1 97 9 view .LVU481
  97:Middlewares/lvgl/src/widgets/lv_img.c ****             lv_mem_free((void*)img->src);
 1349              		.loc 1 97 26 is_stmt 0 view .LVU482
 1350 009a 94F83830 		ldrb	r3, [r4, #56]	@ zero_extendqisi2
  97:Middlewares/lvgl/src/widgets/lv_img.c ****             lv_mem_free((void*)img->src);
 1351              		.loc 1 97 47 view .LVU483
 1352 009e 03F00303 		and	r3, r3, #3
 1353 00a2 013B     		subs	r3, r3, #1
 1354 00a4 DBB2     		uxtb	r3, r3
  97:Middlewares/lvgl/src/widgets/lv_img.c ****             lv_mem_free((void*)img->src);
 1355              		.loc 1 97 11 view .LVU484
 1356 00a6 012B     		cmp	r3, #1
 1357 00a8 08D9     		bls	.L63
 1358              	.LVL109:
 1359              	.L46:
 100:Middlewares/lvgl/src/widgets/lv_img.c ****         img->src_type = LV_IMG_SRC_UNKNOWN;
 1360              		.loc 1 100 9 is_stmt 1 view .LVU485
 100:Middlewares/lvgl/src/widgets/lv_img.c ****         img->src_type = LV_IMG_SRC_UNKNOWN;
 1361              		.loc 1 100 23 is_stmt 0 view .LVU486
 1362 00aa 0023     		movs	r3, #0
 1363 00ac 6362     		str	r3, [r4, #36]
 101:Middlewares/lvgl/src/widgets/lv_img.c ****         return;
 1364              		.loc 1 101 9 is_stmt 1 view .LVU487
 101:Middlewares/lvgl/src/widgets/lv_img.c ****         return;
 1365              		.loc 1 101 23 is_stmt 0 view .LVU488
 1366 00ae 94F83830 		ldrb	r3, [r4, #56]	@ zero_extendqisi2
 1367 00b2 43F00303 		orr	r3, r3, #3
 1368 00b6 84F83830 		strb	r3, [r4, #56]
 102:Middlewares/lvgl/src/widgets/lv_img.c ****     }
 1369              		.loc 1 102 9 is_stmt 1 view .LVU489
 1370 00ba EBE7     		b	.L44
 1371              	.LVL110:
 1372              	.L63:
  98:Middlewares/lvgl/src/widgets/lv_img.c ****         }
 1373              		.loc 1 98 13 view .LVU490
 1374 00bc 606A     		ldr	r0, [r4, #36]
 1375              	.LVL111:
  98:Middlewares/lvgl/src/widgets/lv_img.c ****         }
 1376              		.loc 1 98 13 is_stmt 0 view .LVU491
 1377 00be FFF7FEFF 		bl	lv_mem_free
 1378              	.LVL112:
 1379 00c2 F2E7     		b	.L46
 1380              	.L61:
 112:Middlewares/lvgl/src/widgets/lv_img.c ****         }
 1381              		.loc 1 112 13 is_stmt 1 view .LVU492
 1382 00c4 606A     		ldr	r0, [r4, #36]
 1383 00c6 FFF7FEFF 		bl	lv_mem_free
 1384              	.LVL113:
 1385 00ca B4E7     		b	.L49
 1386              	.L48:
 116:Middlewares/lvgl/src/widgets/lv_img.c ****         /*If the new and the old src are the same then it was only a refresh.*/
ARM GAS  /tmp/ccCqaXuz.s 			page 53


 1387              		.loc 1 116 10 view .LVU493
 116:Middlewares/lvgl/src/widgets/lv_img.c ****         /*If the new and the old src are the same then it was only a refresh.*/
 1388              		.loc 1 116 41 is_stmt 0 view .LVU494
 1389 00cc 6B1E     		subs	r3, r5, #1
 1390 00ce DBB2     		uxtb	r3, r3
 116:Middlewares/lvgl/src/widgets/lv_img.c ****         /*If the new and the old src are the same then it was only a refresh.*/
 1391              		.loc 1 116 12 view .LVU495
 1392 00d0 012B     		cmp	r3, #1
 1393 00d2 B1D8     		bhi	.L50
 118:Middlewares/lvgl/src/widgets/lv_img.c ****             const void * old_src = NULL;
 1394              		.loc 1 118 9 is_stmt 1 view .LVU496
 118:Middlewares/lvgl/src/widgets/lv_img.c ****             const void * old_src = NULL;
 1395              		.loc 1 118 15 is_stmt 0 view .LVU497
 1396 00d4 676A     		ldr	r7, [r4, #36]
 118:Middlewares/lvgl/src/widgets/lv_img.c ****             const void * old_src = NULL;
 1397              		.loc 1 118 11 view .LVU498
 1398 00d6 B742     		cmp	r7, r6
 1399 00d8 AED0     		beq	.L50
 1400              	.LBB105:
 119:Middlewares/lvgl/src/widgets/lv_img.c ****             /*If memory was allocated because of the previous `src_type` then save its pointer and 
 1401              		.loc 1 119 13 is_stmt 1 view .LVU499
 1402              	.LVL114:
 123:Middlewares/lvgl/src/widgets/lv_img.c ****                 old_src = img->src;
 1403              		.loc 1 123 13 view .LVU500
 123:Middlewares/lvgl/src/widgets/lv_img.c ****                 old_src = img->src;
 1404              		.loc 1 123 30 is_stmt 0 view .LVU501
 1405 00da 94F83830 		ldrb	r3, [r4, #56]	@ zero_extendqisi2
 123:Middlewares/lvgl/src/widgets/lv_img.c ****                 old_src = img->src;
 1406              		.loc 1 123 49 view .LVU502
 1407 00de 03F00303 		and	r3, r3, #3
 1408 00e2 013B     		subs	r3, r3, #1
 1409 00e4 DBB2     		uxtb	r3, r3
 123:Middlewares/lvgl/src/widgets/lv_img.c ****                 old_src = img->src;
 1410              		.loc 1 123 15 view .LVU503
 1411 00e6 012B     		cmp	r3, #1
 1412 00e8 00D9     		bls	.L51
 119:Middlewares/lvgl/src/widgets/lv_img.c ****             /*If memory was allocated because of the previous `src_type` then save its pointer and 
 1413              		.loc 1 119 26 view .LVU504
 1414 00ea 0027     		movs	r7, #0
 1415              	.L51:
 1416              	.LVL115:
 126:Middlewares/lvgl/src/widgets/lv_img.c ****             LV_ASSERT_MALLOC(new_str);
 1417              		.loc 1 126 13 is_stmt 1 view .LVU505
 126:Middlewares/lvgl/src/widgets/lv_img.c ****             LV_ASSERT_MALLOC(new_str);
 1418              		.loc 1 126 43 is_stmt 0 view .LVU506
 1419 00ec 3046     		mov	r0, r6
 1420 00ee FFF7FEFF 		bl	strlen
 1421              	.LVL116:
 126:Middlewares/lvgl/src/widgets/lv_img.c ****             LV_ASSERT_MALLOC(new_str);
 1422              		.loc 1 126 30 view .LVU507
 1423 00f2 0130     		adds	r0, r0, #1
 1424 00f4 FFF7FEFF 		bl	lv_mem_alloc
 1425              	.LVL117:
 127:Middlewares/lvgl/src/widgets/lv_img.c ****             if(new_str == NULL) return;
 1426              		.loc 1 127 13 is_stmt 1 view .LVU508
 127:Middlewares/lvgl/src/widgets/lv_img.c ****             if(new_str == NULL) return;
 1427              		.loc 1 127 13 view .LVU509
ARM GAS  /tmp/ccCqaXuz.s 			page 54


 1428 00f8 8046     		mov	r8, r0
 1429 00fa 50B1     		cbz	r0, .L53
 127:Middlewares/lvgl/src/widgets/lv_img.c ****             if(new_str == NULL) return;
 1430              		.loc 1 127 13 view .LVU510
 127:Middlewares/lvgl/src/widgets/lv_img.c ****             if(new_str == NULL) return;
 1431              		.loc 1 127 38 view .LVU511
 128:Middlewares/lvgl/src/widgets/lv_img.c ****             strcpy(new_str, src);
 1432              		.loc 1 128 13 view .LVU512
 129:Middlewares/lvgl/src/widgets/lv_img.c ****             img->src = new_str;
 1433              		.loc 1 129 13 view .LVU513
 1434 00fc 3146     		mov	r1, r6
 1435 00fe FFF7FEFF 		bl	strcpy
 1436              	.LVL118:
 130:Middlewares/lvgl/src/widgets/lv_img.c **** 
 1437              		.loc 1 130 13 view .LVU514
 130:Middlewares/lvgl/src/widgets/lv_img.c **** 
 1438              		.loc 1 130 22 is_stmt 0 view .LVU515
 1439 0102 C4F82480 		str	r8, [r4, #36]
 132:Middlewares/lvgl/src/widgets/lv_img.c ****         }
 1440              		.loc 1 132 13 is_stmt 1 view .LVU516
 132:Middlewares/lvgl/src/widgets/lv_img.c ****         }
 1441              		.loc 1 132 15 is_stmt 0 view .LVU517
 1442 0106 002F     		cmp	r7, #0
 1443 0108 96D0     		beq	.L50
 132:Middlewares/lvgl/src/widgets/lv_img.c ****         }
 1444              		.loc 1 132 25 is_stmt 1 discriminator 1 view .LVU518
 1445 010a 3846     		mov	r0, r7
 1446 010c FFF7FEFF 		bl	lv_mem_free
 1447              	.LVL119:
 1448 0110 92E7     		b	.L50
 1449              	.LVL120:
 1450              	.L53:
 127:Middlewares/lvgl/src/widgets/lv_img.c ****             if(new_str == NULL) return;
 1451              		.loc 1 127 13 discriminator 1 view .LVU519
 127:Middlewares/lvgl/src/widgets/lv_img.c ****             if(new_str == NULL) return;
 1452              		.loc 1 127 13 discriminator 1 view .LVU520
 127:Middlewares/lvgl/src/widgets/lv_img.c ****             if(new_str == NULL) return;
 1453              		.loc 1 127 13 discriminator 1 view .LVU521
 127:Middlewares/lvgl/src/widgets/lv_img.c ****             if(new_str == NULL) return;
 1454              		.loc 1 127 13 discriminator 1 view .LVU522
 1455 0112 FEE7     		b	.L53
 1456              	.LVL121:
 1457              	.L62:
 127:Middlewares/lvgl/src/widgets/lv_img.c ****             if(new_str == NULL) return;
 1458              		.loc 1 127 13 is_stmt 0 discriminator 1 view .LVU523
 1459              	.LBE105:
 1460              	.LBB106:
 138:Middlewares/lvgl/src/widgets/lv_img.c ****         lv_coord_t letter_space = lv_obj_get_style_text_letter_space(obj, LV_PART_MAIN);
 1461              		.loc 1 138 9 is_stmt 1 view .LVU524
 1462              	.LBB107:
 1463              	.LBI107:
 331:Middlewares/lvgl/src/widgets/../core/lv_obj_style_gen.h **** {
 1464              		.loc 2 331 33 view .LVU525
 1465              	.LBB108:
 333:Middlewares/lvgl/src/widgets/../core/lv_obj_style_gen.h ****     return (const lv_font_t *)v.ptr;
 1466              		.loc 2 333 5 view .LVU526
 333:Middlewares/lvgl/src/widgets/../core/lv_obj_style_gen.h ****     return (const lv_font_t *)v.ptr;
ARM GAS  /tmp/ccCqaXuz.s 			page 55


 1467              		.loc 2 333 26 is_stmt 0 view .LVU527
 1468 0114 41F25942 		movw	r2, #5209
 1469 0118 0021     		movs	r1, #0
 1470 011a 2046     		mov	r0, r4
 1471 011c FFF7FEFF 		bl	lv_obj_get_style_prop
 1472              	.LVL122:
 1473 0120 0746     		mov	r7, r0
 334:Middlewares/lvgl/src/widgets/../core/lv_obj_style_gen.h **** }
 1474              		.loc 2 334 5 is_stmt 1 view .LVU528
 1475              	.LVL123:
 334:Middlewares/lvgl/src/widgets/../core/lv_obj_style_gen.h **** }
 1476              		.loc 2 334 5 is_stmt 0 view .LVU529
 1477              	.LBE108:
 1478              	.LBE107:
 139:Middlewares/lvgl/src/widgets/lv_img.c ****         lv_coord_t line_space = lv_obj_get_style_text_line_space(obj, LV_PART_MAIN);
 1479              		.loc 1 139 9 is_stmt 1 view .LVU530
 1480              	.LBB109:
 1481              	.LBI109:
 337:Middlewares/lvgl/src/widgets/../core/lv_obj_style_gen.h **** {
 1482              		.loc 2 337 26 view .LVU531
 1483              	.LBB110:
 339:Middlewares/lvgl/src/widgets/../core/lv_obj_style_gen.h ****     return (lv_coord_t)v.num;
 1484              		.loc 2 339 5 view .LVU532
 339:Middlewares/lvgl/src/widgets/../core/lv_obj_style_gen.h ****     return (lv_coord_t)v.num;
 1485              		.loc 2 339 26 is_stmt 0 view .LVU533
 1486 0122 41F25A42 		movw	r2, #5210
 1487 0126 0021     		movs	r1, #0
 1488 0128 2046     		mov	r0, r4
 1489              	.LVL124:
 339:Middlewares/lvgl/src/widgets/../core/lv_obj_style_gen.h ****     return (lv_coord_t)v.num;
 1490              		.loc 2 339 26 view .LVU534
 1491 012a FFF7FEFF 		bl	lv_obj_get_style_prop
 1492              	.LVL125:
 340:Middlewares/lvgl/src/widgets/../core/lv_obj_style_gen.h **** }
 1493              		.loc 2 340 5 is_stmt 1 view .LVU535
 340:Middlewares/lvgl/src/widgets/../core/lv_obj_style_gen.h **** }
 1494              		.loc 2 340 12 is_stmt 0 view .LVU536
 1495 012e 0FFA80F8 		sxth	r8, r0
 1496              	.LVL126:
 340:Middlewares/lvgl/src/widgets/../core/lv_obj_style_gen.h **** }
 1497              		.loc 2 340 12 view .LVU537
 1498              	.LBE110:
 1499              	.LBE109:
 140:Middlewares/lvgl/src/widgets/lv_img.c ****         lv_point_t size;
 1500              		.loc 1 140 9 is_stmt 1 view .LVU538
 1501              	.LBB111:
 1502              	.LBI111:
 343:Middlewares/lvgl/src/widgets/../core/lv_obj_style_gen.h **** {
 1503              		.loc 2 343 26 view .LVU539
 1504              	.LBB112:
 345:Middlewares/lvgl/src/widgets/../core/lv_obj_style_gen.h ****     return (lv_coord_t)v.num;
 1505              		.loc 2 345 5 view .LVU540
 345:Middlewares/lvgl/src/widgets/../core/lv_obj_style_gen.h ****     return (lv_coord_t)v.num;
 1506              		.loc 2 345 26 is_stmt 0 view .LVU541
 1507 0132 41F25B42 		movw	r2, #5211
 1508 0136 0021     		movs	r1, #0
 1509 0138 2046     		mov	r0, r4
ARM GAS  /tmp/ccCqaXuz.s 			page 56


 1510 013a FFF7FEFF 		bl	lv_obj_get_style_prop
 1511              	.LVL127:
 346:Middlewares/lvgl/src/widgets/../core/lv_obj_style_gen.h **** }
 1512              		.loc 2 346 5 is_stmt 1 view .LVU542
 346:Middlewares/lvgl/src/widgets/../core/lv_obj_style_gen.h **** }
 1513              		.loc 2 346 12 is_stmt 0 view .LVU543
 1514 013e 00B2     		sxth	r0, r0
 1515              	.LVL128:
 346:Middlewares/lvgl/src/widgets/../core/lv_obj_style_gen.h **** }
 1516              		.loc 2 346 12 view .LVU544
 1517              	.LBE112:
 1518              	.LBE111:
 141:Middlewares/lvgl/src/widgets/lv_img.c ****         lv_txt_get_size(&size, src, font, letter_space, line_space, LV_COORD_MAX, LV_TEXT_FLAG_NONE
 1519              		.loc 1 141 9 is_stmt 1 view .LVU545
 142:Middlewares/lvgl/src/widgets/lv_img.c ****         header.w = size.x;
 1520              		.loc 1 142 9 view .LVU546
 1521 0140 0023     		movs	r3, #0
 1522 0142 0293     		str	r3, [sp, #8]
 1523 0144 4FF4C043 		mov	r3, #24576
 1524 0148 0193     		str	r3, [sp, #4]
 1525 014a 0090     		str	r0, [sp]
 1526 014c 4346     		mov	r3, r8
 1527 014e 3A46     		mov	r2, r7
 1528 0150 3146     		mov	r1, r6
 1529 0152 04A8     		add	r0, sp, #16
 1530              	.LVL129:
 142:Middlewares/lvgl/src/widgets/lv_img.c ****         header.w = size.x;
 1531              		.loc 1 142 9 is_stmt 0 view .LVU547
 1532 0154 FFF7FEFF 		bl	lv_txt_get_size
 1533              	.LVL130:
 143:Middlewares/lvgl/src/widgets/lv_img.c ****         header.h = size.y;
 1534              		.loc 1 143 9 is_stmt 1 view .LVU548
 143:Middlewares/lvgl/src/widgets/lv_img.c ****         header.h = size.y;
 1535              		.loc 1 143 24 is_stmt 0 view .LVU549
 1536 0158 BDF81020 		ldrh	r2, [sp, #16]
 143:Middlewares/lvgl/src/widgets/lv_img.c ****         header.h = size.y;
 1537              		.loc 1 143 18 view .LVU550
 1538 015c 059B     		ldr	r3, [sp, #20]
 1539 015e 62F39423 		bfi	r3, r2, #10, #11
 1540 0162 0593     		str	r3, [sp, #20]
 144:Middlewares/lvgl/src/widgets/lv_img.c ****     }
 1541              		.loc 1 144 9 is_stmt 1 view .LVU551
 144:Middlewares/lvgl/src/widgets/lv_img.c ****     }
 1542              		.loc 1 144 24 is_stmt 0 view .LVU552
 1543 0164 BDF81220 		ldrh	r2, [sp, #18]
 144:Middlewares/lvgl/src/widgets/lv_img.c ****     }
 1544              		.loc 1 144 18 view .LVU553
 1545 0168 BDF81630 		ldrh	r3, [sp, #22]
 1546 016c 62F34F13 		bfi	r3, r2, #5, #11
 1547 0170 ADF81630 		strh	r3, [sp, #22]	@ movhi
 1548 0174 62E7     		b	.L54
 1549              	.LBE106:
 1550              		.cfi_endproc
 1551              	.LFE148:
 1553              		.section	.text.lv_img_event,"ax",%progbits
 1554              		.align	1
 1555              		.syntax unified
ARM GAS  /tmp/ccCqaXuz.s 			page 57


 1556              		.thumb
 1557              		.thumb_func
 1558              		.fpu fpv5-d16
 1560              	lv_img_event:
 1561              	.LVL131:
 1562              	.LFB164:
 403:Middlewares/lvgl/src/widgets/lv_img.c ****     LV_UNUSED(class_p);
 1563              		.loc 1 403 1 is_stmt 1 view -0
 1564              		.cfi_startproc
 1565              		@ args = 0, pretend = 0, frame = 8
 1566              		@ frame_needed = 0, uses_anonymous_args = 0
 403:Middlewares/lvgl/src/widgets/lv_img.c ****     LV_UNUSED(class_p);
 1567              		.loc 1 403 1 is_stmt 0 view .LVU555
 1568 0000 2DE9F047 		push	{r4, r5, r6, r7, r8, r9, r10, lr}
 1569              	.LCFI11:
 1570              		.cfi_def_cfa_offset 32
 1571              		.cfi_offset 4, -32
 1572              		.cfi_offset 5, -28
 1573              		.cfi_offset 6, -24
 1574              		.cfi_offset 7, -20
 1575              		.cfi_offset 8, -16
 1576              		.cfi_offset 9, -12
 1577              		.cfi_offset 10, -8
 1578              		.cfi_offset 14, -4
 1579 0004 84B0     		sub	sp, sp, #16
 1580              	.LCFI12:
 1581              		.cfi_def_cfa_offset 48
 1582 0006 0D46     		mov	r5, r1
 404:Middlewares/lvgl/src/widgets/lv_img.c **** 
 1583              		.loc 1 404 5 is_stmt 1 view .LVU556
 406:Middlewares/lvgl/src/widgets/lv_img.c **** 
 1584              		.loc 1 406 5 view .LVU557
 406:Middlewares/lvgl/src/widgets/lv_img.c **** 
 1585              		.loc 1 406 28 is_stmt 0 view .LVU558
 1586 0008 0846     		mov	r0, r1
 1587              	.LVL132:
 406:Middlewares/lvgl/src/widgets/lv_img.c **** 
 1588              		.loc 1 406 28 view .LVU559
 1589 000a FFF7FEFF 		bl	lv_event_get_code
 1590              	.LVL133:
 406:Middlewares/lvgl/src/widgets/lv_img.c **** 
 1591              		.loc 1 406 28 view .LVU560
 1592 000e 0446     		mov	r4, r0
 1593              	.LVL134:
 409:Middlewares/lvgl/src/widgets/lv_img.c ****         /*Call the ancestor's event handler*/
 1594              		.loc 1 409 5 is_stmt 1 view .LVU561
 409:Middlewares/lvgl/src/widgets/lv_img.c ****         /*Call the ancestor's event handler*/
 1595              		.loc 1 409 7 is_stmt 0 view .LVU562
 1596 0010 1528     		cmp	r0, #21
 1597 0012 18BF     		it	ne
 1598 0014 1828     		cmpne	r0, #24
 1599 0016 05D0     		beq	.L65
 1600              	.LBB113:
 411:Middlewares/lvgl/src/widgets/lv_img.c ****         if(res != LV_RES_OK) return;
 1601              		.loc 1 411 9 is_stmt 1 view .LVU563
 411:Middlewares/lvgl/src/widgets/lv_img.c ****         if(res != LV_RES_OK) return;
 1602              		.loc 1 411 24 is_stmt 0 view .LVU564
ARM GAS  /tmp/ccCqaXuz.s 			page 58


 1603 0018 2946     		mov	r1, r5
 1604 001a 8748     		ldr	r0, .L87
 1605              	.LVL135:
 411:Middlewares/lvgl/src/widgets/lv_img.c ****         if(res != LV_RES_OK) return;
 1606              		.loc 1 411 24 view .LVU565
 1607 001c FFF7FEFF 		bl	lv_obj_event_base
 1608              	.LVL136:
 412:Middlewares/lvgl/src/widgets/lv_img.c ****     }
 1609              		.loc 1 412 9 is_stmt 1 view .LVU566
 412:Middlewares/lvgl/src/widgets/lv_img.c ****     }
 1610              		.loc 1 412 11 is_stmt 0 view .LVU567
 1611 0020 0128     		cmp	r0, #1
 1612 0022 1ED1     		bne	.L64
 1613              	.LVL137:
 1614              	.L65:
 412:Middlewares/lvgl/src/widgets/lv_img.c ****     }
 1615              		.loc 1 412 11 view .LVU568
 1616              	.LBE113:
 415:Middlewares/lvgl/src/widgets/lv_img.c ****     lv_img_t * img = (lv_img_t *)obj;
 1617              		.loc 1 415 5 is_stmt 1 view .LVU569
 415:Middlewares/lvgl/src/widgets/lv_img.c ****     lv_img_t * img = (lv_img_t *)obj;
 1618              		.loc 1 415 22 is_stmt 0 view .LVU570
 1619 0024 2846     		mov	r0, r5
 1620 0026 FFF7FEFF 		bl	lv_event_get_target
 1621              	.LVL138:
 1622 002a 0646     		mov	r6, r0
 1623              	.LVL139:
 416:Middlewares/lvgl/src/widgets/lv_img.c **** 
 1624              		.loc 1 416 5 is_stmt 1 view .LVU571
 418:Middlewares/lvgl/src/widgets/lv_img.c ****         /*Refresh the file name to refresh the symbol text size*/
 1625              		.loc 1 418 5 view .LVU572
 418:Middlewares/lvgl/src/widgets/lv_img.c ****         /*Refresh the file name to refresh the symbol text size*/
 1626              		.loc 1 418 7 is_stmt 0 view .LVU573
 1627 002c 242C     		cmp	r4, #36
 1628 002e 10D0     		beq	.L78
 427:Middlewares/lvgl/src/widgets/lv_img.c **** 
 1629              		.loc 1 427 10 is_stmt 1 view .LVU574
 427:Middlewares/lvgl/src/widgets/lv_img.c **** 
 1630              		.loc 1 427 12 is_stmt 0 view .LVU575
 1631 0030 132C     		cmp	r4, #19
 1632 0032 1DD0     		beq	.L79
 449:Middlewares/lvgl/src/widgets/lv_img.c ****         lv_hit_test_info_t * info = lv_event_get_param(e);
 1633              		.loc 1 449 10 is_stmt 1 view .LVU576
 449:Middlewares/lvgl/src/widgets/lv_img.c ****         lv_hit_test_info_t * info = lv_event_get_param(e);
 1634              		.loc 1 449 12 is_stmt 0 view .LVU577
 1635 0034 112C     		cmp	r4, #17
 1636 0036 74D0     		beq	.L80
 479:Middlewares/lvgl/src/widgets/lv_img.c ****         lv_point_t * p = lv_event_get_param(e);;
 1637              		.loc 1 479 10 is_stmt 1 view .LVU578
 479:Middlewares/lvgl/src/widgets/lv_img.c ****         lv_point_t * p = lv_event_get_param(e);;
 1638              		.loc 1 479 12 is_stmt 0 view .LVU579
 1639 0038 262C     		cmp	r4, #38
 1640 003a 00F0F280 		beq	.L81
 484:Middlewares/lvgl/src/widgets/lv_img.c ****         draw_img(e);
 1641              		.loc 1 484 10 is_stmt 1 view .LVU580
 484:Middlewares/lvgl/src/widgets/lv_img.c ****         draw_img(e);
 1642              		.loc 1 484 12 is_stmt 0 view .LVU581
ARM GAS  /tmp/ccCqaXuz.s 			page 59


 1643 003e 182C     		cmp	r4, #24
 1644 0040 18BF     		it	ne
 1645 0042 152C     		cmpne	r4, #21
 1646 0044 01D0     		beq	.L76
 484:Middlewares/lvgl/src/widgets/lv_img.c ****         draw_img(e);
 1647              		.loc 1 484 70 discriminator 1 view .LVU582
 1648 0046 122C     		cmp	r4, #18
 1649 0048 0BD1     		bne	.L64
 1650              	.L76:
 485:Middlewares/lvgl/src/widgets/lv_img.c ****     }
 1651              		.loc 1 485 9 is_stmt 1 view .LVU583
 1652 004a 2846     		mov	r0, r5
 1653              	.LVL140:
 485:Middlewares/lvgl/src/widgets/lv_img.c ****     }
 1654              		.loc 1 485 9 is_stmt 0 view .LVU584
 1655 004c FFF7FEFF 		bl	draw_img
 1656              	.LVL141:
 1657 0050 07E0     		b	.L64
 1658              	.LVL142:
 1659              	.L78:
 420:Middlewares/lvgl/src/widgets/lv_img.c ****             lv_img_set_src(obj, img->src);
 1660              		.loc 1 420 9 is_stmt 1 view .LVU585
 420:Middlewares/lvgl/src/widgets/lv_img.c ****             lv_img_set_src(obj, img->src);
 1661              		.loc 1 420 26 is_stmt 0 view .LVU586
 1662 0052 90F83830 		ldrb	r3, [r0, #56]	@ zero_extendqisi2
 1663 0056 03F00303 		and	r3, r3, #3
 420:Middlewares/lvgl/src/widgets/lv_img.c ****             lv_img_set_src(obj, img->src);
 1664              		.loc 1 420 11 view .LVU587
 1665 005a 022B     		cmp	r3, #2
 1666 005c 04D0     		beq	.L82
 424:Middlewares/lvgl/src/widgets/lv_img.c ****         }
 1667              		.loc 1 424 13 is_stmt 1 view .LVU588
 1668 005e FFF7FEFF 		bl	lv_obj_refresh_ext_draw_size
 1669              	.LVL143:
 1670              	.L64:
 487:Middlewares/lvgl/src/widgets/lv_img.c **** 
 1671              		.loc 1 487 1 is_stmt 0 view .LVU589
 1672 0062 04B0     		add	sp, sp, #16
 1673              	.LCFI13:
 1674              		.cfi_remember_state
 1675              		.cfi_def_cfa_offset 32
 1676              		@ sp needed
 1677 0064 BDE8F087 		pop	{r4, r5, r6, r7, r8, r9, r10, pc}
 1678              	.LVL144:
 1679              	.L82:
 1680              	.LCFI14:
 1681              		.cfi_restore_state
 421:Middlewares/lvgl/src/widgets/lv_img.c ****         } else {
 1682              		.loc 1 421 13 is_stmt 1 view .LVU590
 1683 0068 416A     		ldr	r1, [r0, #36]
 1684 006a FFF7FEFF 		bl	lv_img_set_src
 1685              	.LVL145:
 421:Middlewares/lvgl/src/widgets/lv_img.c ****         } else {
 1686              		.loc 1 421 13 is_stmt 0 view .LVU591
 1687 006e F8E7     		b	.L64
 1688              	.LVL146:
 1689              	.L79:
ARM GAS  /tmp/ccCqaXuz.s 			page 60


 1690              	.LBB114:
 429:Middlewares/lvgl/src/widgets/lv_img.c ****         lv_coord_t transf_zoom = lv_obj_get_style_transform_zoom(obj, LV_PART_MAIN);
 1691              		.loc 1 429 9 is_stmt 1 view .LVU592
 429:Middlewares/lvgl/src/widgets/lv_img.c ****         lv_coord_t transf_zoom = lv_obj_get_style_transform_zoom(obj, LV_PART_MAIN);
 1692              		.loc 1 429 26 is_stmt 0 view .LVU593
 1693 0070 2846     		mov	r0, r5
 1694              	.LVL147:
 429:Middlewares/lvgl/src/widgets/lv_img.c ****         lv_coord_t transf_zoom = lv_obj_get_style_transform_zoom(obj, LV_PART_MAIN);
 1695              		.loc 1 429 26 view .LVU594
 1696 0072 FFF7FEFF 		bl	lv_event_get_param
 1697              	.LVL148:
 1698 0076 0746     		mov	r7, r0
 1699              	.LVL149:
 430:Middlewares/lvgl/src/widgets/lv_img.c ****         transf_zoom = (transf_zoom * img->zoom) >> 8;
 1700              		.loc 1 430 9 is_stmt 1 view .LVU595
 1701              	.LBB115:
 1702              	.LBI115:
  79:Middlewares/lvgl/src/widgets/../core/lv_obj_style_gen.h **** {
 1703              		.loc 2 79 26 view .LVU596
 1704              	.LBB116:
  81:Middlewares/lvgl/src/widgets/../core/lv_obj_style_gen.h ****     return (lv_coord_t)v.num;
 1705              		.loc 2 81 5 view .LVU597
  81:Middlewares/lvgl/src/widgets/../core/lv_obj_style_gen.h ****     return (lv_coord_t)v.num;
 1706              		.loc 2 81 26 is_stmt 0 view .LVU598
 1707 0078 40F60E02 		movw	r2, #2062
 1708 007c 0021     		movs	r1, #0
 1709 007e 3046     		mov	r0, r6
 1710              	.LVL150:
  81:Middlewares/lvgl/src/widgets/../core/lv_obj_style_gen.h ****     return (lv_coord_t)v.num;
 1711              		.loc 2 81 26 view .LVU599
 1712 0080 FFF7FEFF 		bl	lv_obj_get_style_prop
 1713              	.LVL151:
  82:Middlewares/lvgl/src/widgets/../core/lv_obj_style_gen.h **** }
 1714              		.loc 2 82 5 is_stmt 1 view .LVU600
  82:Middlewares/lvgl/src/widgets/../core/lv_obj_style_gen.h **** }
 1715              		.loc 2 82 12 is_stmt 0 view .LVU601
 1716 0084 03B2     		sxth	r3, r0
 1717              	.LVL152:
  82:Middlewares/lvgl/src/widgets/../core/lv_obj_style_gen.h **** }
 1718              		.loc 2 82 12 view .LVU602
 1719              	.LBE116:
 1720              	.LBE115:
 431:Middlewares/lvgl/src/widgets/lv_img.c **** 
 1721              		.loc 1 431 9 is_stmt 1 view .LVU603
 431:Middlewares/lvgl/src/widgets/lv_img.c **** 
 1722              		.loc 1 431 41 is_stmt 0 view .LVU604
 1723 0086 F08E     		ldrh	r0, [r6, #54]
 431:Middlewares/lvgl/src/widgets/lv_img.c **** 
 1724              		.loc 1 431 36 view .LVU605
 1725 0088 00FB03F3 		mul	r3, r0, r3
 1726              	.LVL153:
 431:Middlewares/lvgl/src/widgets/lv_img.c **** 
 1727              		.loc 1 431 49 view .LVU606
 1728 008c 4FEA2328 		asr	r8, r3, #8
 431:Middlewares/lvgl/src/widgets/lv_img.c **** 
 1729              		.loc 1 431 21 view .LVU607
 1730 0090 43F30F24 		sbfx	r4, r3, #8, #16
ARM GAS  /tmp/ccCqaXuz.s 			page 61


 1731              	.LVL154:
 433:Middlewares/lvgl/src/widgets/lv_img.c ****         transf_angle += img->angle;
 1732              		.loc 1 433 9 is_stmt 1 view .LVU608
 1733              	.LBB117:
 1734              	.LBI117:
  85:Middlewares/lvgl/src/widgets/../core/lv_obj_style_gen.h **** {
 1735              		.loc 2 85 26 view .LVU609
 1736              	.LBB118:
  87:Middlewares/lvgl/src/widgets/../core/lv_obj_style_gen.h ****     return (lv_coord_t)v.num;
 1737              		.loc 2 87 5 view .LVU610
  87:Middlewares/lvgl/src/widgets/../core/lv_obj_style_gen.h ****     return (lv_coord_t)v.num;
 1738              		.loc 2 87 26 is_stmt 0 view .LVU611
 1739 0094 40F60F02 		movw	r2, #2063
 1740 0098 0021     		movs	r1, #0
 1741 009a 3046     		mov	r0, r6
 1742 009c FFF7FEFF 		bl	lv_obj_get_style_prop
 1743              	.LVL155:
  88:Middlewares/lvgl/src/widgets/../core/lv_obj_style_gen.h **** }
 1744              		.loc 2 88 5 is_stmt 1 view .LVU612
  88:Middlewares/lvgl/src/widgets/../core/lv_obj_style_gen.h **** }
 1745              		.loc 2 88 5 is_stmt 0 view .LVU613
 1746              	.LBE118:
 1747              	.LBE117:
 434:Middlewares/lvgl/src/widgets/lv_img.c **** 
 1748              		.loc 1 434 9 is_stmt 1 view .LVU614
 434:Middlewares/lvgl/src/widgets/lv_img.c **** 
 1749              		.loc 1 434 28 is_stmt 0 view .LVU615
 1750 00a0 358E     		ldrh	r5, [r6, #48]
 1751              	.LVL156:
 434:Middlewares/lvgl/src/widgets/lv_img.c **** 
 1752              		.loc 1 434 22 view .LVU616
 1753 00a2 0544     		add	r5, r5, r0
 1754 00a4 2DB2     		sxth	r5, r5
 1755              	.LVL157:
 437:Middlewares/lvgl/src/widgets/lv_img.c ****             lv_area_t a;
 1756              		.loc 1 437 9 is_stmt 1 view .LVU617
 437:Middlewares/lvgl/src/widgets/lv_img.c ****             lv_area_t a;
 1757              		.loc 1 437 11 is_stmt 0 view .LVU618
 1758 00a6 B4F5807F 		cmp	r4, #256
 1759 00aa 08BF     		it	eq
 1760 00ac 002D     		cmpeq	r5, #0
 1761 00ae D8D0     		beq	.L64
 1762              	.LBB119:
 438:Middlewares/lvgl/src/widgets/lv_img.c ****             lv_coord_t w = lv_obj_get_width(obj);
 1763              		.loc 1 438 13 is_stmt 1 view .LVU619
 439:Middlewares/lvgl/src/widgets/lv_img.c ****             lv_coord_t h = lv_obj_get_height(obj);
 1764              		.loc 1 439 13 view .LVU620
 439:Middlewares/lvgl/src/widgets/lv_img.c ****             lv_coord_t h = lv_obj_get_height(obj);
 1765              		.loc 1 439 28 is_stmt 0 view .LVU621
 1766 00b0 3046     		mov	r0, r6
 1767 00b2 FFF7FEFF 		bl	lv_obj_get_width
 1768              	.LVL158:
 1769 00b6 8246     		mov	r10, r0
 1770              	.LVL159:
 440:Middlewares/lvgl/src/widgets/lv_img.c ****             _lv_img_buf_get_transformed_area(&a, w, h, transf_angle, transf_zoom, &img->pivot);
 1771              		.loc 1 440 13 is_stmt 1 view .LVU622
 440:Middlewares/lvgl/src/widgets/lv_img.c ****             _lv_img_buf_get_transformed_area(&a, w, h, transf_angle, transf_zoom, &img->pivot);
ARM GAS  /tmp/ccCqaXuz.s 			page 62


 1772              		.loc 1 440 28 is_stmt 0 view .LVU623
 1773 00b8 3046     		mov	r0, r6
 1774 00ba FFF7FEFF 		bl	lv_obj_get_height
 1775              	.LVL160:
 1776 00be 8146     		mov	r9, r0
 1777              	.LVL161:
 441:Middlewares/lvgl/src/widgets/lv_img.c ****             lv_coord_t pad_ori = *s;
 1778              		.loc 1 441 13 is_stmt 1 view .LVU624
 441:Middlewares/lvgl/src/widgets/lv_img.c ****             lv_coord_t pad_ori = *s;
 1779              		.loc 1 441 83 is_stmt 0 view .LVU625
 1780 00c0 3236     		adds	r6, r6, #50
 1781              	.LVL162:
 441:Middlewares/lvgl/src/widgets/lv_img.c ****             lv_coord_t pad_ori = *s;
 1782              		.loc 1 441 13 view .LVU626
 1783 00c2 0196     		str	r6, [sp, #4]
 1784 00c4 1FFA88F3 		uxth	r3, r8
 1785 00c8 0093     		str	r3, [sp]
 1786 00ca 2B46     		mov	r3, r5
 1787 00cc 0246     		mov	r2, r0
 1788 00ce 5146     		mov	r1, r10
 1789 00d0 02A8     		add	r0, sp, #8
 1790              	.LVL163:
 441:Middlewares/lvgl/src/widgets/lv_img.c ****             lv_coord_t pad_ori = *s;
 1791              		.loc 1 441 13 view .LVU627
 1792 00d2 FFF7FEFF 		bl	_lv_img_buf_get_transformed_area
 1793              	.LVL164:
 442:Middlewares/lvgl/src/widgets/lv_img.c ****             *s = LV_MAX(*s, pad_ori - a.x1);
 1794              		.loc 1 442 13 is_stmt 1 view .LVU628
 442:Middlewares/lvgl/src/widgets/lv_img.c ****             *s = LV_MAX(*s, pad_ori - a.x1);
 1795              		.loc 1 442 24 is_stmt 0 view .LVU629
 1796 00d6 B7F90010 		ldrsh	r1, [r7]
 1797              	.LVL165:
 443:Middlewares/lvgl/src/widgets/lv_img.c ****             *s = LV_MAX(*s, pad_ori - a.y1);
 1798              		.loc 1 443 13 is_stmt 1 view .LVU630
 443:Middlewares/lvgl/src/widgets/lv_img.c ****             *s = LV_MAX(*s, pad_ori - a.y1);
 1799              		.loc 1 443 18 is_stmt 0 view .LVU631
 1800 00da BDF90830 		ldrsh	r3, [sp, #8]
 1801 00de CB1A     		subs	r3, r1, r3
 1802 00e0 8B42     		cmp	r3, r1
 1803 00e2 B8BF     		it	lt
 1804 00e4 0B46     		movlt	r3, r1
 443:Middlewares/lvgl/src/widgets/lv_img.c ****             *s = LV_MAX(*s, pad_ori - a.y1);
 1805              		.loc 1 443 16 view .LVU632
 1806 00e6 1BB2     		sxth	r3, r3
 1807 00e8 3B80     		strh	r3, [r7]	@ movhi
 444:Middlewares/lvgl/src/widgets/lv_img.c ****             *s = LV_MAX(*s, pad_ori + a.x2 - w);
 1808              		.loc 1 444 13 is_stmt 1 view .LVU633
 444:Middlewares/lvgl/src/widgets/lv_img.c ****             *s = LV_MAX(*s, pad_ori + a.x2 - w);
 1809              		.loc 1 444 18 is_stmt 0 view .LVU634
 1810 00ea BDF90A20 		ldrsh	r2, [sp, #10]
 1811 00ee 8C1A     		subs	r4, r1, r2
 1812              	.LVL166:
 444:Middlewares/lvgl/src/widgets/lv_img.c ****             *s = LV_MAX(*s, pad_ori + a.x2 - w);
 1813              		.loc 1 444 18 view .LVU635
 1814 00f0 9C42     		cmp	r4, r3
 1815 00f2 B8BF     		it	lt
 1816 00f4 1C46     		movlt	r4, r3
ARM GAS  /tmp/ccCqaXuz.s 			page 63


 444:Middlewares/lvgl/src/widgets/lv_img.c ****             *s = LV_MAX(*s, pad_ori + a.x2 - w);
 1817              		.loc 1 444 16 view .LVU636
 1818 00f6 23B2     		sxth	r3, r4
 1819 00f8 3B80     		strh	r3, [r7]	@ movhi
 445:Middlewares/lvgl/src/widgets/lv_img.c ****             *s = LV_MAX(*s, pad_ori + a.y2 - h);
 1820              		.loc 1 445 13 is_stmt 1 view .LVU637
 445:Middlewares/lvgl/src/widgets/lv_img.c ****             *s = LV_MAX(*s, pad_ori + a.y2 - h);
 1821              		.loc 1 445 18 is_stmt 0 view .LVU638
 1822 00fa BDF90C20 		ldrsh	r2, [sp, #12]
 1823 00fe 0A44     		add	r2, r2, r1
 1824 0100 A2EB0A04 		sub	r4, r2, r10
 1825 0104 9C42     		cmp	r4, r3
 1826 0106 B8BF     		it	lt
 1827 0108 1C46     		movlt	r4, r3
 445:Middlewares/lvgl/src/widgets/lv_img.c ****             *s = LV_MAX(*s, pad_ori + a.y2 - h);
 1828              		.loc 1 445 16 view .LVU639
 1829 010a 24B2     		sxth	r4, r4
 1830 010c 3C80     		strh	r4, [r7]	@ movhi
 446:Middlewares/lvgl/src/widgets/lv_img.c ****         }
 1831              		.loc 1 446 13 is_stmt 1 view .LVU640
 446:Middlewares/lvgl/src/widgets/lv_img.c ****         }
 1832              		.loc 1 446 18 is_stmt 0 view .LVU641
 1833 010e BDF90E30 		ldrsh	r3, [sp, #14]
 1834 0112 1944     		add	r1, r1, r3
 1835              	.LVL167:
 446:Middlewares/lvgl/src/widgets/lv_img.c ****         }
 1836              		.loc 1 446 18 view .LVU642
 1837 0114 A1EB0903 		sub	r3, r1, r9
 1838 0118 A342     		cmp	r3, r4
 1839 011a B8BF     		it	lt
 1840 011c 2346     		movlt	r3, r4
 446:Middlewares/lvgl/src/widgets/lv_img.c ****         }
 1841              		.loc 1 446 16 view .LVU643
 1842 011e 3B80     		strh	r3, [r7]	@ movhi
 1843 0120 9FE7     		b	.L64
 1844              	.LVL168:
 1845              	.L80:
 446:Middlewares/lvgl/src/widgets/lv_img.c ****         }
 1846              		.loc 1 446 16 view .LVU644
 1847              	.LBE119:
 1848              	.LBE114:
 1849              	.LBB120:
 450:Middlewares/lvgl/src/widgets/lv_img.c ****         lv_coord_t zoom = lv_obj_get_style_transform_zoom(obj, LV_PART_MAIN);
 1850              		.loc 1 450 9 is_stmt 1 view .LVU645
 450:Middlewares/lvgl/src/widgets/lv_img.c ****         lv_coord_t zoom = lv_obj_get_style_transform_zoom(obj, LV_PART_MAIN);
 1851              		.loc 1 450 37 is_stmt 0 view .LVU646
 1852 0122 2846     		mov	r0, r5
 1853              	.LVL169:
 450:Middlewares/lvgl/src/widgets/lv_img.c ****         lv_coord_t zoom = lv_obj_get_style_transform_zoom(obj, LV_PART_MAIN);
 1854              		.loc 1 450 37 view .LVU647
 1855 0124 FFF7FEFF 		bl	lv_event_get_param
 1856              	.LVL170:
 1857 0128 0546     		mov	r5, r0
 1858              	.LVL171:
 451:Middlewares/lvgl/src/widgets/lv_img.c ****         zoom = (zoom * img->zoom) >> 8;
 1859              		.loc 1 451 9 is_stmt 1 view .LVU648
 1860              	.LBB121:
ARM GAS  /tmp/ccCqaXuz.s 			page 64


 1861              	.LBI121:
  79:Middlewares/lvgl/src/widgets/../core/lv_obj_style_gen.h **** {
 1862              		.loc 2 79 26 view .LVU649
 1863              	.LBB122:
  81:Middlewares/lvgl/src/widgets/../core/lv_obj_style_gen.h ****     return (lv_coord_t)v.num;
 1864              		.loc 2 81 5 view .LVU650
  81:Middlewares/lvgl/src/widgets/../core/lv_obj_style_gen.h ****     return (lv_coord_t)v.num;
 1865              		.loc 2 81 26 is_stmt 0 view .LVU651
 1866 012a 40F60E02 		movw	r2, #2062
 1867 012e 0021     		movs	r1, #0
 1868 0130 3046     		mov	r0, r6
 1869              	.LVL172:
  81:Middlewares/lvgl/src/widgets/../core/lv_obj_style_gen.h ****     return (lv_coord_t)v.num;
 1870              		.loc 2 81 26 view .LVU652
 1871 0132 FFF7FEFF 		bl	lv_obj_get_style_prop
 1872              	.LVL173:
  82:Middlewares/lvgl/src/widgets/../core/lv_obj_style_gen.h **** }
 1873              		.loc 2 82 5 is_stmt 1 view .LVU653
  82:Middlewares/lvgl/src/widgets/../core/lv_obj_style_gen.h **** }
 1874              		.loc 2 82 12 is_stmt 0 view .LVU654
 1875 0136 03B2     		sxth	r3, r0
 1876              	.LVL174:
  82:Middlewares/lvgl/src/widgets/../core/lv_obj_style_gen.h **** }
 1877              		.loc 2 82 12 view .LVU655
 1878              	.LBE122:
 1879              	.LBE121:
 452:Middlewares/lvgl/src/widgets/lv_img.c **** 
 1880              		.loc 1 452 9 is_stmt 1 view .LVU656
 452:Middlewares/lvgl/src/widgets/lv_img.c **** 
 1881              		.loc 1 452 27 is_stmt 0 view .LVU657
 1882 0138 F08E     		ldrh	r0, [r6, #54]
 452:Middlewares/lvgl/src/widgets/lv_img.c **** 
 1883              		.loc 1 452 22 view .LVU658
 1884 013a 00FB03F3 		mul	r3, r0, r3
 1885              	.LVL175:
 452:Middlewares/lvgl/src/widgets/lv_img.c **** 
 1886              		.loc 1 452 35 view .LVU659
 1887 013e 4FEA2328 		asr	r8, r3, #8
 452:Middlewares/lvgl/src/widgets/lv_img.c **** 
 1888              		.loc 1 452 14 view .LVU660
 1889 0142 43F30F24 		sbfx	r4, r3, #8, #16
 1890              	.LVL176:
 454:Middlewares/lvgl/src/widgets/lv_img.c ****         angle += img->angle;
 1891              		.loc 1 454 9 is_stmt 1 view .LVU661
 1892              	.LBB123:
 1893              	.LBI123:
  85:Middlewares/lvgl/src/widgets/../core/lv_obj_style_gen.h **** {
 1894              		.loc 2 85 26 view .LVU662
 1895              	.LBB124:
  87:Middlewares/lvgl/src/widgets/../core/lv_obj_style_gen.h ****     return (lv_coord_t)v.num;
 1896              		.loc 2 87 5 view .LVU663
  87:Middlewares/lvgl/src/widgets/../core/lv_obj_style_gen.h ****     return (lv_coord_t)v.num;
 1897              		.loc 2 87 26 is_stmt 0 view .LVU664
 1898 0146 40F60F02 		movw	r2, #2063
 1899 014a 0021     		movs	r1, #0
 1900 014c 3046     		mov	r0, r6
 1901 014e FFF7FEFF 		bl	lv_obj_get_style_prop
ARM GAS  /tmp/ccCqaXuz.s 			page 65


 1902              	.LVL177:
  88:Middlewares/lvgl/src/widgets/../core/lv_obj_style_gen.h **** }
 1903              		.loc 2 88 5 is_stmt 1 view .LVU665
  88:Middlewares/lvgl/src/widgets/../core/lv_obj_style_gen.h **** }
 1904              		.loc 2 88 5 is_stmt 0 view .LVU666
 1905              	.LBE124:
 1906              	.LBE123:
 455:Middlewares/lvgl/src/widgets/lv_img.c **** 
 1907              		.loc 1 455 9 is_stmt 1 view .LVU667
 455:Middlewares/lvgl/src/widgets/lv_img.c **** 
 1908              		.loc 1 455 21 is_stmt 0 view .LVU668
 1909 0152 338E     		ldrh	r3, [r6, #48]
 455:Middlewares/lvgl/src/widgets/lv_img.c **** 
 1910              		.loc 1 455 15 view .LVU669
 1911 0154 0344     		add	r3, r3, r0
 1912 0156 1FB2     		sxth	r7, r3
 1913              	.LVL178:
 459:Middlewares/lvgl/src/widgets/lv_img.c ****                 (zoom != LV_IMG_ZOOM_NONE || angle != 0 || img->pivot.x != img->w / 2 || img->pivot
 1914              		.loc 1 459 9 is_stmt 1 view .LVU670
 459:Middlewares/lvgl/src/widgets/lv_img.c ****                 (zoom != LV_IMG_ZOOM_NONE || angle != 0 || img->pivot.x != img->w / 2 || img->pivot
 1915              		.loc 1 459 15 is_stmt 0 view .LVU671
 1916 0158 B6F92C90 		ldrsh	r9, [r6, #44]
 459:Middlewares/lvgl/src/widgets/lv_img.c ****                 (zoom != LV_IMG_ZOOM_NONE || angle != 0 || img->pivot.x != img->w / 2 || img->pivot
 1917              		.loc 1 459 22 view .LVU672
 1918 015c 3046     		mov	r0, r6
 1919 015e FFF7FEFF 		bl	lv_obj_get_width
 1920              	.LVL179:
 459:Middlewares/lvgl/src/widgets/lv_img.c ****                 (zoom != LV_IMG_ZOOM_NONE || angle != 0 || img->pivot.x != img->w / 2 || img->pivot
 1921              		.loc 1 459 11 view .LVU673
 1922 0162 8145     		cmp	r9, r0
 1923 0164 0AD0     		beq	.L83
 1924              	.L71:
 1925              	.LBB125:
 474:Middlewares/lvgl/src/widgets/lv_img.c ****             lv_obj_get_click_area(obj, &a);
 1926              		.loc 1 474 13 is_stmt 1 discriminator 5 view .LVU674
 475:Middlewares/lvgl/src/widgets/lv_img.c ****             info->res = _lv_area_is_point_on(&a, info->point, 0);
 1927              		.loc 1 475 13 discriminator 5 view .LVU675
 1928 0166 02A9     		add	r1, sp, #8
 1929 0168 3046     		mov	r0, r6
 1930 016a FFF7FEFF 		bl	lv_obj_get_click_area
 1931              	.LVL180:
 476:Middlewares/lvgl/src/widgets/lv_img.c ****         }
 1932              		.loc 1 476 13 discriminator 5 view .LVU676
 476:Middlewares/lvgl/src/widgets/lv_img.c ****         }
 1933              		.loc 1 476 25 is_stmt 0 discriminator 5 view .LVU677
 1934 016e 0022     		movs	r2, #0
 1935 0170 2968     		ldr	r1, [r5]
 1936 0172 02A8     		add	r0, sp, #8
 1937 0174 FFF7FEFF 		bl	_lv_area_is_point_on
 1938              	.LVL181:
 476:Middlewares/lvgl/src/widgets/lv_img.c ****         }
 1939              		.loc 1 476 23 discriminator 5 view .LVU678
 1940 0178 2871     		strb	r0, [r5, #4]
 1941 017a 72E7     		b	.L64
 1942              	.L83:
 476:Middlewares/lvgl/src/widgets/lv_img.c ****         }
 1943              		.loc 1 476 23 discriminator 5 view .LVU679
ARM GAS  /tmp/ccCqaXuz.s 			page 66


 1944              	.LBE125:
 459:Middlewares/lvgl/src/widgets/lv_img.c ****                 (zoom != LV_IMG_ZOOM_NONE || angle != 0 || img->pivot.x != img->w / 2 || img->pivot
 1945              		.loc 1 459 50 discriminator 1 view .LVU680
 1946 017c B6F92E90 		ldrsh	r9, [r6, #46]
 459:Middlewares/lvgl/src/widgets/lv_img.c ****                 (zoom != LV_IMG_ZOOM_NONE || angle != 0 || img->pivot.x != img->w / 2 || img->pivot
 1947              		.loc 1 459 57 discriminator 1 view .LVU681
 1948 0180 3046     		mov	r0, r6
 1949 0182 FFF7FEFF 		bl	lv_obj_get_height
 1950              	.LVL182:
 459:Middlewares/lvgl/src/widgets/lv_img.c ****                 (zoom != LV_IMG_ZOOM_NONE || angle != 0 || img->pivot.x != img->w / 2 || img->pivot
 1951              		.loc 1 459 44 discriminator 1 view .LVU682
 1952 0186 8145     		cmp	r9, r0
 1953 0188 EDD1     		bne	.L71
 459:Middlewares/lvgl/src/widgets/lv_img.c ****                 (zoom != LV_IMG_ZOOM_NONE || angle != 0 || img->pivot.x != img->w / 2 || img->pivot
 1954              		.loc 1 459 80 discriminator 2 view .LVU683
 1955 018a 002F     		cmp	r7, #0
 1956 018c 08BF     		it	eq
 1957 018e B4F5807F 		cmpeq	r4, #256
 1958 0192 08D1     		bne	.L72
 460:Middlewares/lvgl/src/widgets/lv_img.c **** 
 1959              		.loc 1 460 70 view .LVU684
 1960 0194 B6F93220 		ldrsh	r2, [r6, #50]
 460:Middlewares/lvgl/src/widgets/lv_img.c **** 
 1961              		.loc 1 460 79 view .LVU685
 1962 0198 B6F92C30 		ldrsh	r3, [r6, #44]
 460:Middlewares/lvgl/src/widgets/lv_img.c **** 
 1963              		.loc 1 460 73 view .LVU686
 1964 019c 002B     		cmp	r3, #0
 1965 019e 32DB     		blt	.L84
 1966              	.L73:
 460:Middlewares/lvgl/src/widgets/lv_img.c **** 
 1967              		.loc 1 460 57 view .LVU687
 1968 01a0 B2EB630F 		cmp	r2, r3, asr #1
 1969 01a4 31D0     		beq	.L85
 1970              	.L72:
 1971              	.LBB126:
 462:Middlewares/lvgl/src/widgets/lv_img.c ****             lv_coord_t h = lv_obj_get_height(obj);
 1972              		.loc 1 462 13 is_stmt 1 view .LVU688
 462:Middlewares/lvgl/src/widgets/lv_img.c ****             lv_coord_t h = lv_obj_get_height(obj);
 1973              		.loc 1 462 28 is_stmt 0 view .LVU689
 1974 01a6 3046     		mov	r0, r6
 1975 01a8 FFF7FEFF 		bl	lv_obj_get_width
 1976              	.LVL183:
 1977 01ac 0446     		mov	r4, r0
 1978              	.LVL184:
 463:Middlewares/lvgl/src/widgets/lv_img.c ****             lv_area_t coords;
 1979              		.loc 1 463 13 is_stmt 1 view .LVU690
 463:Middlewares/lvgl/src/widgets/lv_img.c ****             lv_area_t coords;
 1980              		.loc 1 463 28 is_stmt 0 view .LVU691
 1981 01ae 3046     		mov	r0, r6
 1982 01b0 FFF7FEFF 		bl	lv_obj_get_height
 1983              	.LVL185:
 1984 01b4 0246     		mov	r2, r0
 1985              	.LVL186:
 464:Middlewares/lvgl/src/widgets/lv_img.c ****             _lv_img_buf_get_transformed_area(&coords, w, h, angle, zoom, &img->pivot);
 1986              		.loc 1 464 13 is_stmt 1 view .LVU692
 465:Middlewares/lvgl/src/widgets/lv_img.c ****             coords.x1 += obj->coords.x1;
ARM GAS  /tmp/ccCqaXuz.s 			page 67


 1987              		.loc 1 465 13 view .LVU693
 465:Middlewares/lvgl/src/widgets/lv_img.c ****             coords.x1 += obj->coords.x1;
 1988              		.loc 1 465 74 is_stmt 0 view .LVU694
 1989 01b6 06F13203 		add	r3, r6, #50
 465:Middlewares/lvgl/src/widgets/lv_img.c ****             coords.x1 += obj->coords.x1;
 1990              		.loc 1 465 13 view .LVU695
 1991 01ba 0193     		str	r3, [sp, #4]
 1992 01bc 1FFA88F3 		uxth	r3, r8
 1993 01c0 0093     		str	r3, [sp]
 1994 01c2 3B46     		mov	r3, r7
 1995 01c4 2146     		mov	r1, r4
 1996 01c6 02A8     		add	r0, sp, #8
 1997 01c8 FFF7FEFF 		bl	_lv_img_buf_get_transformed_area
 1998              	.LVL187:
 466:Middlewares/lvgl/src/widgets/lv_img.c ****             coords.y1 += obj->coords.y1;
 1999              		.loc 1 466 13 is_stmt 1 view .LVU696
 466:Middlewares/lvgl/src/widgets/lv_img.c ****             coords.y1 += obj->coords.y1;
 2000              		.loc 1 466 37 is_stmt 0 view .LVU697
 2001 01cc B28A     		ldrh	r2, [r6, #20]
 466:Middlewares/lvgl/src/widgets/lv_img.c ****             coords.y1 += obj->coords.y1;
 2002              		.loc 1 466 23 view .LVU698
 2003 01ce BDF80830 		ldrh	r3, [sp, #8]
 2004 01d2 1344     		add	r3, r3, r2
 2005 01d4 ADF80830 		strh	r3, [sp, #8]	@ movhi
 467:Middlewares/lvgl/src/widgets/lv_img.c ****             coords.x2 += obj->coords.x1;
 2006              		.loc 1 467 13 is_stmt 1 view .LVU699
 467:Middlewares/lvgl/src/widgets/lv_img.c ****             coords.x2 += obj->coords.x1;
 2007              		.loc 1 467 37 is_stmt 0 view .LVU700
 2008 01d8 F38A     		ldrh	r3, [r6, #22]
 467:Middlewares/lvgl/src/widgets/lv_img.c ****             coords.x2 += obj->coords.x1;
 2009              		.loc 1 467 23 view .LVU701
 2010 01da BDF80A10 		ldrh	r1, [sp, #10]
 2011 01de 1944     		add	r1, r1, r3
 2012 01e0 ADF80A10 		strh	r1, [sp, #10]	@ movhi
 468:Middlewares/lvgl/src/widgets/lv_img.c ****             coords.y2 += obj->coords.y1;
 2013              		.loc 1 468 13 is_stmt 1 view .LVU702
 468:Middlewares/lvgl/src/widgets/lv_img.c ****             coords.y2 += obj->coords.y1;
 2014              		.loc 1 468 23 is_stmt 0 view .LVU703
 2015 01e4 BDF80C10 		ldrh	r1, [sp, #12]
 2016 01e8 0A44     		add	r2, r2, r1
 2017 01ea ADF80C20 		strh	r2, [sp, #12]	@ movhi
 469:Middlewares/lvgl/src/widgets/lv_img.c **** 
 2018              		.loc 1 469 13 is_stmt 1 view .LVU704
 469:Middlewares/lvgl/src/widgets/lv_img.c **** 
 2019              		.loc 1 469 23 is_stmt 0 view .LVU705
 2020 01ee BDF80E20 		ldrh	r2, [sp, #14]
 2021 01f2 1344     		add	r3, r3, r2
 2022 01f4 ADF80E30 		strh	r3, [sp, #14]	@ movhi
 471:Middlewares/lvgl/src/widgets/lv_img.c ****         }
 2023              		.loc 1 471 13 is_stmt 1 view .LVU706
 471:Middlewares/lvgl/src/widgets/lv_img.c ****         }
 2024              		.loc 1 471 25 is_stmt 0 view .LVU707
 2025 01f8 0022     		movs	r2, #0
 2026 01fa 2968     		ldr	r1, [r5]
 2027 01fc 02A8     		add	r0, sp, #8
 2028 01fe FFF7FEFF 		bl	_lv_area_is_point_on
 2029              	.LVL188:
ARM GAS  /tmp/ccCqaXuz.s 			page 68


 471:Middlewares/lvgl/src/widgets/lv_img.c ****         }
 2030              		.loc 1 471 23 view .LVU708
 2031 0202 2871     		strb	r0, [r5, #4]
 2032              	.LBE126:
 460:Middlewares/lvgl/src/widgets/lv_img.c **** 
 2033              		.loc 1 460 119 view .LVU709
 2034 0204 2DE7     		b	.L64
 2035              	.LVL189:
 2036              	.L84:
 460:Middlewares/lvgl/src/widgets/lv_img.c **** 
 2037              		.loc 1 460 73 view .LVU710
 2038 0206 0133     		adds	r3, r3, #1
 2039 0208 CAE7     		b	.L73
 2040              	.L85:
 460:Middlewares/lvgl/src/widgets/lv_img.c **** 
 2041              		.loc 1 460 100 discriminator 1 view .LVU711
 2042 020a B6F93420 		ldrsh	r2, [r6, #52]
 460:Middlewares/lvgl/src/widgets/lv_img.c **** 
 2043              		.loc 1 460 109 discriminator 1 view .LVU712
 2044 020e B6F92E30 		ldrsh	r3, [r6, #46]
 460:Middlewares/lvgl/src/widgets/lv_img.c **** 
 2045              		.loc 1 460 103 discriminator 1 view .LVU713
 2046 0212 002B     		cmp	r3, #0
 2047 0214 03DB     		blt	.L86
 2048              	.L74:
 460:Middlewares/lvgl/src/widgets/lv_img.c **** 
 2049              		.loc 1 460 87 discriminator 1 view .LVU714
 2050 0216 B2EB630F 		cmp	r2, r3, asr #1
 2051 021a C4D1     		bne	.L72
 2052 021c A3E7     		b	.L71
 2053              	.L86:
 460:Middlewares/lvgl/src/widgets/lv_img.c **** 
 2054              		.loc 1 460 103 discriminator 1 view .LVU715
 2055 021e 0133     		adds	r3, r3, #1
 2056 0220 F9E7     		b	.L74
 2057              	.LVL190:
 2058              	.L81:
 460:Middlewares/lvgl/src/widgets/lv_img.c **** 
 2059              		.loc 1 460 103 discriminator 1 view .LVU716
 2060              	.LBE120:
 2061              	.LBB127:
 480:Middlewares/lvgl/src/widgets/lv_img.c ****         p->x = img->w;
 2062              		.loc 1 480 9 is_stmt 1 view .LVU717
 480:Middlewares/lvgl/src/widgets/lv_img.c ****         p->x = img->w;
 2063              		.loc 1 480 26 is_stmt 0 view .LVU718
 2064 0222 2846     		mov	r0, r5
 2065              	.LVL191:
 480:Middlewares/lvgl/src/widgets/lv_img.c ****         p->x = img->w;
 2066              		.loc 1 480 26 view .LVU719
 2067 0224 FFF7FEFF 		bl	lv_event_get_param
 2068              	.LVL192:
 480:Middlewares/lvgl/src/widgets/lv_img.c ****         p->x = img->w;
 2069              		.loc 1 480 48 is_stmt 1 view .LVU720
 481:Middlewares/lvgl/src/widgets/lv_img.c ****         p->y = img->h;
 2070              		.loc 1 481 9 view .LVU721
 481:Middlewares/lvgl/src/widgets/lv_img.c ****         p->y = img->h;
 2071              		.loc 1 481 19 is_stmt 0 view .LVU722
ARM GAS  /tmp/ccCqaXuz.s 			page 69


 2072 0228 B6F92C30 		ldrsh	r3, [r6, #44]
 481:Middlewares/lvgl/src/widgets/lv_img.c ****         p->y = img->h;
 2073              		.loc 1 481 14 view .LVU723
 2074 022c 0380     		strh	r3, [r0]	@ movhi
 482:Middlewares/lvgl/src/widgets/lv_img.c ****     }
 2075              		.loc 1 482 9 is_stmt 1 view .LVU724
 482:Middlewares/lvgl/src/widgets/lv_img.c ****     }
 2076              		.loc 1 482 19 is_stmt 0 view .LVU725
 2077 022e B6F92E30 		ldrsh	r3, [r6, #46]
 482:Middlewares/lvgl/src/widgets/lv_img.c ****     }
 2078              		.loc 1 482 14 view .LVU726
 2079 0232 4380     		strh	r3, [r0, #2]	@ movhi
 2080              	.LBE127:
 2081 0234 15E7     		b	.L64
 2082              	.L88:
 2083 0236 00BF     		.align	2
 2084              	.L87:
 2085 0238 00000000 		.word	.LANCHOR0
 2086              		.cfi_endproc
 2087              	.LFE164:
 2089              		.section	.text.lv_img_set_offset_x,"ax",%progbits
 2090              		.align	1
 2091              		.global	lv_img_set_offset_x
 2092              		.syntax unified
 2093              		.thumb
 2094              		.thumb_func
 2095              		.fpu fpv5-d16
 2097              	lv_img_set_offset_x:
 2098              	.LVL193:
 2099              	.LFB149:
 163:Middlewares/lvgl/src/widgets/lv_img.c ****     LV_ASSERT_OBJ(obj, MY_CLASS);
 2100              		.loc 1 163 1 is_stmt 1 view -0
 2101              		.cfi_startproc
 2102              		@ args = 0, pretend = 0, frame = 0
 2103              		@ frame_needed = 0, uses_anonymous_args = 0
 163:Middlewares/lvgl/src/widgets/lv_img.c ****     LV_ASSERT_OBJ(obj, MY_CLASS);
 2104              		.loc 1 163 1 is_stmt 0 view .LVU728
 2105 0000 08B5     		push	{r3, lr}
 2106              	.LCFI15:
 2107              		.cfi_def_cfa_offset 8
 2108              		.cfi_offset 3, -8
 2109              		.cfi_offset 14, -4
 164:Middlewares/lvgl/src/widgets/lv_img.c **** 
 2110              		.loc 1 164 5 is_stmt 1 view .LVU729
 164:Middlewares/lvgl/src/widgets/lv_img.c **** 
 2111              		.loc 1 164 5 view .LVU730
 164:Middlewares/lvgl/src/widgets/lv_img.c **** 
 2112              		.loc 1 164 5 view .LVU731
 166:Middlewares/lvgl/src/widgets/lv_img.c **** 
 2113              		.loc 1 166 4 view .LVU732
 2114              	.LVL194:
 168:Middlewares/lvgl/src/widgets/lv_img.c **** 
 2115              		.loc 1 168 5 view .LVU733
 168:Middlewares/lvgl/src/widgets/lv_img.c **** 
 2116              		.loc 1 168 16 is_stmt 0 view .LVU734
 2117 0002 B0F92C20 		ldrsh	r2, [r0, #44]
 168:Middlewares/lvgl/src/widgets/lv_img.c **** 
ARM GAS  /tmp/ccCqaXuz.s 			page 70


 2118              		.loc 1 168 11 view .LVU735
 2119 0006 91FBF2FC 		sdiv	ip, r1, r2
 2120 000a 02FB1C11 		mls	r1, r2, ip, r1
 2121              	.LVL195:
 170:Middlewares/lvgl/src/widgets/lv_img.c ****     lv_obj_invalidate(obj);
 2122              		.loc 1 170 5 is_stmt 1 view .LVU736
 170:Middlewares/lvgl/src/widgets/lv_img.c ****     lv_obj_invalidate(obj);
 2123              		.loc 1 170 19 is_stmt 0 view .LVU737
 2124 000e 0185     		strh	r1, [r0, #40]	@ movhi
