ARM GAS  /tmp/ccHFTBsZ.s 			page 1


   1              		.cpu cortex-m7
   2              		.arch armv7e-m
   3              		.fpu fpv5-d16
   4              		.eabi_attribute 28, 1
   5              		.eabi_attribute 20, 1
   6              		.eabi_attribute 21, 1
   7              		.eabi_attribute 23, 3
   8              		.eabi_attribute 24, 1
   9              		.eabi_attribute 25, 1
  10              		.eabi_attribute 26, 1
  11              		.eabi_attribute 30, 1
  12              		.eabi_attribute 34, 1
  13              		.eabi_attribute 18, 4
  14              		.file	"lv_indev_scroll.c"
  15              		.text
  16              	.Ltext0:
  17              		.cfi_sections	.debug_frame
  18              		.section	.text.scroll_limit_diff,"ax",%progbits
  19              		.align	1
  20              		.syntax unified
  21              		.thumb
  22              		.thumb_func
  24              	scroll_limit_diff:
  25              	.LVL0:
  26              	.LFB155:
  27              		.file 1 "Middlewares/lvgl/src/core/lv_indev_scroll.c"
   1:Middlewares/lvgl/src/core/lv_indev_scroll.c **** /**
   2:Middlewares/lvgl/src/core/lv_indev_scroll.c ****  * @file lv_indev_scroll.c
   3:Middlewares/lvgl/src/core/lv_indev_scroll.c ****  *
   4:Middlewares/lvgl/src/core/lv_indev_scroll.c ****  */
   5:Middlewares/lvgl/src/core/lv_indev_scroll.c **** 
   6:Middlewares/lvgl/src/core/lv_indev_scroll.c **** /*********************
   7:Middlewares/lvgl/src/core/lv_indev_scroll.c ****  *      INCLUDES
   8:Middlewares/lvgl/src/core/lv_indev_scroll.c ****  *********************/
   9:Middlewares/lvgl/src/core/lv_indev_scroll.c **** #include "lv_indev.h"
  10:Middlewares/lvgl/src/core/lv_indev_scroll.c **** #include "lv_indev_scroll.h"
  11:Middlewares/lvgl/src/core/lv_indev_scroll.c **** 
  12:Middlewares/lvgl/src/core/lv_indev_scroll.c **** /*********************
  13:Middlewares/lvgl/src/core/lv_indev_scroll.c ****  *      DEFINES
  14:Middlewares/lvgl/src/core/lv_indev_scroll.c ****  *********************/
  15:Middlewares/lvgl/src/core/lv_indev_scroll.c **** #define ELASTIC_SLOWNESS_FACTOR 4   /*Scrolling on elastic parts are slower by this factor*/
  16:Middlewares/lvgl/src/core/lv_indev_scroll.c **** 
  17:Middlewares/lvgl/src/core/lv_indev_scroll.c **** /**********************
  18:Middlewares/lvgl/src/core/lv_indev_scroll.c ****  *      TYPEDEFS
  19:Middlewares/lvgl/src/core/lv_indev_scroll.c ****  **********************/
  20:Middlewares/lvgl/src/core/lv_indev_scroll.c **** 
  21:Middlewares/lvgl/src/core/lv_indev_scroll.c **** /**********************
  22:Middlewares/lvgl/src/core/lv_indev_scroll.c ****  *  STATIC PROTOTYPES
  23:Middlewares/lvgl/src/core/lv_indev_scroll.c ****  **********************/
  24:Middlewares/lvgl/src/core/lv_indev_scroll.c **** static lv_obj_t * find_scroll_obj(_lv_indev_proc_t * proc);
  25:Middlewares/lvgl/src/core/lv_indev_scroll.c **** static void init_scroll_limits(_lv_indev_proc_t * proc);
  26:Middlewares/lvgl/src/core/lv_indev_scroll.c **** static lv_coord_t find_snap_point_x(const lv_obj_t * obj, lv_coord_t min, lv_coord_t max, lv_coord_
  27:Middlewares/lvgl/src/core/lv_indev_scroll.c **** static lv_coord_t find_snap_point_y(const lv_obj_t * obj, lv_coord_t min, lv_coord_t max, lv_coord_
  28:Middlewares/lvgl/src/core/lv_indev_scroll.c **** static void scroll_limit_diff(_lv_indev_proc_t * proc, lv_coord_t * diff_x, lv_coord_t * diff_y);
  29:Middlewares/lvgl/src/core/lv_indev_scroll.c **** static lv_coord_t scroll_throw_predict_y(_lv_indev_proc_t * proc);
  30:Middlewares/lvgl/src/core/lv_indev_scroll.c **** static lv_coord_t scroll_throw_predict_x(_lv_indev_proc_t * proc);
  31:Middlewares/lvgl/src/core/lv_indev_scroll.c **** static lv_coord_t elastic_diff(lv_obj_t * scroll_obj, lv_coord_t diff, lv_coord_t scroll_start, lv_
ARM GAS  /tmp/ccHFTBsZ.s 			page 2


  32:Middlewares/lvgl/src/core/lv_indev_scroll.c **** 
  33:Middlewares/lvgl/src/core/lv_indev_scroll.c **** /**********************
  34:Middlewares/lvgl/src/core/lv_indev_scroll.c ****  *  STATIC VARIABLES
  35:Middlewares/lvgl/src/core/lv_indev_scroll.c ****  **********************/
  36:Middlewares/lvgl/src/core/lv_indev_scroll.c **** 
  37:Middlewares/lvgl/src/core/lv_indev_scroll.c **** /**********************
  38:Middlewares/lvgl/src/core/lv_indev_scroll.c ****  *      MACROS
  39:Middlewares/lvgl/src/core/lv_indev_scroll.c ****  **********************/
  40:Middlewares/lvgl/src/core/lv_indev_scroll.c **** 
  41:Middlewares/lvgl/src/core/lv_indev_scroll.c **** /**********************
  42:Middlewares/lvgl/src/core/lv_indev_scroll.c ****  *   GLOBAL FUNCTIONS
  43:Middlewares/lvgl/src/core/lv_indev_scroll.c ****  **********************/
  44:Middlewares/lvgl/src/core/lv_indev_scroll.c **** 
  45:Middlewares/lvgl/src/core/lv_indev_scroll.c **** void _lv_indev_scroll_handler(_lv_indev_proc_t * proc)
  46:Middlewares/lvgl/src/core/lv_indev_scroll.c **** {
  47:Middlewares/lvgl/src/core/lv_indev_scroll.c ****     lv_obj_t * scroll_obj = proc->types.pointer.scroll_obj;
  48:Middlewares/lvgl/src/core/lv_indev_scroll.c ****     /*If there is no scroll object yet try to find one*/
  49:Middlewares/lvgl/src/core/lv_indev_scroll.c ****     if(scroll_obj == NULL) {
  50:Middlewares/lvgl/src/core/lv_indev_scroll.c ****         proc->types.pointer.scroll_sum.x += proc->types.pointer.vect.x;
  51:Middlewares/lvgl/src/core/lv_indev_scroll.c ****         proc->types.pointer.scroll_sum.y += proc->types.pointer.vect.y;
  52:Middlewares/lvgl/src/core/lv_indev_scroll.c **** 
  53:Middlewares/lvgl/src/core/lv_indev_scroll.c ****         scroll_obj = find_scroll_obj(proc);
  54:Middlewares/lvgl/src/core/lv_indev_scroll.c ****         if(scroll_obj == NULL) return;
  55:Middlewares/lvgl/src/core/lv_indev_scroll.c **** 
  56:Middlewares/lvgl/src/core/lv_indev_scroll.c ****         init_scroll_limits(proc);
  57:Middlewares/lvgl/src/core/lv_indev_scroll.c **** 
  58:Middlewares/lvgl/src/core/lv_indev_scroll.c ****         lv_event_send(scroll_obj, LV_EVENT_SCROLL_BEGIN, NULL);
  59:Middlewares/lvgl/src/core/lv_indev_scroll.c ****         if(proc->reset_query) return;
  60:Middlewares/lvgl/src/core/lv_indev_scroll.c ****     }
  61:Middlewares/lvgl/src/core/lv_indev_scroll.c **** 
  62:Middlewares/lvgl/src/core/lv_indev_scroll.c ****     /*Set new position or scroll if the vector is not zero*/
  63:Middlewares/lvgl/src/core/lv_indev_scroll.c ****     if(proc->types.pointer.vect.x != 0 || proc->types.pointer.vect.y != 0) {
  64:Middlewares/lvgl/src/core/lv_indev_scroll.c ****         lv_coord_t diff_x = 0;
  65:Middlewares/lvgl/src/core/lv_indev_scroll.c ****         lv_coord_t diff_y = 0;
  66:Middlewares/lvgl/src/core/lv_indev_scroll.c **** 
  67:Middlewares/lvgl/src/core/lv_indev_scroll.c ****         if(proc->types.pointer.scroll_dir == LV_DIR_HOR) {
  68:Middlewares/lvgl/src/core/lv_indev_scroll.c ****             lv_coord_t sr = lv_obj_get_scroll_right(scroll_obj);
  69:Middlewares/lvgl/src/core/lv_indev_scroll.c ****             lv_coord_t sl = lv_obj_get_scroll_left(scroll_obj);
  70:Middlewares/lvgl/src/core/lv_indev_scroll.c ****             diff_x = elastic_diff(scroll_obj, proc->types.pointer.vect.x, sl, sr, LV_DIR_HOR);
  71:Middlewares/lvgl/src/core/lv_indev_scroll.c ****         } else {
  72:Middlewares/lvgl/src/core/lv_indev_scroll.c ****             lv_coord_t st = lv_obj_get_scroll_top(scroll_obj);
  73:Middlewares/lvgl/src/core/lv_indev_scroll.c ****             lv_coord_t sb = lv_obj_get_scroll_bottom(scroll_obj);
  74:Middlewares/lvgl/src/core/lv_indev_scroll.c ****             diff_y = elastic_diff(scroll_obj, proc->types.pointer.vect.y, st, sb, LV_DIR_VER);
  75:Middlewares/lvgl/src/core/lv_indev_scroll.c ****         }
  76:Middlewares/lvgl/src/core/lv_indev_scroll.c **** 
  77:Middlewares/lvgl/src/core/lv_indev_scroll.c ****         lv_dir_t scroll_dir = lv_obj_get_scroll_dir(scroll_obj);
  78:Middlewares/lvgl/src/core/lv_indev_scroll.c ****         if((scroll_dir & LV_DIR_LEFT)   == 0 && diff_x > 0) diff_x = 0;
  79:Middlewares/lvgl/src/core/lv_indev_scroll.c ****         if((scroll_dir & LV_DIR_RIGHT)  == 0 && diff_x < 0) diff_x = 0;
  80:Middlewares/lvgl/src/core/lv_indev_scroll.c ****         if((scroll_dir & LV_DIR_TOP)    == 0 && diff_y > 0) diff_y = 0;
  81:Middlewares/lvgl/src/core/lv_indev_scroll.c ****         if((scroll_dir & LV_DIR_BOTTOM) == 0 && diff_y < 0) diff_y = 0;
  82:Middlewares/lvgl/src/core/lv_indev_scroll.c **** 
  83:Middlewares/lvgl/src/core/lv_indev_scroll.c ****         /*Respect the scroll limit area*/
  84:Middlewares/lvgl/src/core/lv_indev_scroll.c ****         scroll_limit_diff(proc, &diff_x, &diff_y);
  85:Middlewares/lvgl/src/core/lv_indev_scroll.c **** 
  86:Middlewares/lvgl/src/core/lv_indev_scroll.c ****         lv_obj_scroll_by(scroll_obj, diff_x, diff_y, LV_ANIM_OFF);
  87:Middlewares/lvgl/src/core/lv_indev_scroll.c ****         proc->types.pointer.scroll_sum.x += diff_x;
  88:Middlewares/lvgl/src/core/lv_indev_scroll.c ****         proc->types.pointer.scroll_sum.y += diff_y;
ARM GAS  /tmp/ccHFTBsZ.s 			page 3


  89:Middlewares/lvgl/src/core/lv_indev_scroll.c ****     }
  90:Middlewares/lvgl/src/core/lv_indev_scroll.c **** }
  91:Middlewares/lvgl/src/core/lv_indev_scroll.c **** 
  92:Middlewares/lvgl/src/core/lv_indev_scroll.c **** 
  93:Middlewares/lvgl/src/core/lv_indev_scroll.c **** void _lv_indev_scroll_throw_handler(_lv_indev_proc_t * proc)
  94:Middlewares/lvgl/src/core/lv_indev_scroll.c **** {
  95:Middlewares/lvgl/src/core/lv_indev_scroll.c ****     lv_obj_t * scroll_obj = proc->types.pointer.scroll_obj;
  96:Middlewares/lvgl/src/core/lv_indev_scroll.c ****     if(scroll_obj == NULL) return;
  97:Middlewares/lvgl/src/core/lv_indev_scroll.c ****     if(proc->types.pointer.scroll_dir == LV_DIR_NONE) return;
  98:Middlewares/lvgl/src/core/lv_indev_scroll.c **** 
  99:Middlewares/lvgl/src/core/lv_indev_scroll.c **** 
 100:Middlewares/lvgl/src/core/lv_indev_scroll.c ****     lv_indev_t * indev_act = lv_indev_get_act();
 101:Middlewares/lvgl/src/core/lv_indev_scroll.c ****     lv_coord_t scroll_throw =  indev_act->driver->scroll_throw;
 102:Middlewares/lvgl/src/core/lv_indev_scroll.c **** 
 103:Middlewares/lvgl/src/core/lv_indev_scroll.c ****     if(lv_obj_has_flag(scroll_obj, LV_OBJ_FLAG_SCROLL_MOMENTUM) == false) {
 104:Middlewares/lvgl/src/core/lv_indev_scroll.c ****         proc->types.pointer.scroll_throw_vect.y = 0;
 105:Middlewares/lvgl/src/core/lv_indev_scroll.c ****         proc->types.pointer.scroll_throw_vect.x = 0;
 106:Middlewares/lvgl/src/core/lv_indev_scroll.c ****     }
 107:Middlewares/lvgl/src/core/lv_indev_scroll.c **** 
 108:Middlewares/lvgl/src/core/lv_indev_scroll.c ****     lv_scroll_snap_t align_x = lv_obj_get_scroll_snap_x(scroll_obj);
 109:Middlewares/lvgl/src/core/lv_indev_scroll.c ****     lv_scroll_snap_t align_y = lv_obj_get_scroll_snap_y(scroll_obj);
 110:Middlewares/lvgl/src/core/lv_indev_scroll.c **** 
 111:Middlewares/lvgl/src/core/lv_indev_scroll.c ****     if(proc->types.pointer.scroll_dir == LV_DIR_VER) {
 112:Middlewares/lvgl/src/core/lv_indev_scroll.c ****         proc->types.pointer.scroll_throw_vect.x = 0;
 113:Middlewares/lvgl/src/core/lv_indev_scroll.c ****         /*If no snapping "throw"*/
 114:Middlewares/lvgl/src/core/lv_indev_scroll.c ****         if(align_y == LV_SCROLL_SNAP_NONE) {
 115:Middlewares/lvgl/src/core/lv_indev_scroll.c ****             proc->types.pointer.scroll_throw_vect.y =
 116:Middlewares/lvgl/src/core/lv_indev_scroll.c ****                     proc->types.pointer.scroll_throw_vect.y * (100 - scroll_throw) / 100;
 117:Middlewares/lvgl/src/core/lv_indev_scroll.c **** 
 118:Middlewares/lvgl/src/core/lv_indev_scroll.c ****             lv_coord_t sb = lv_obj_get_scroll_bottom(scroll_obj);
 119:Middlewares/lvgl/src/core/lv_indev_scroll.c ****             lv_coord_t st = lv_obj_get_scroll_top(scroll_obj);
 120:Middlewares/lvgl/src/core/lv_indev_scroll.c **** 
 121:Middlewares/lvgl/src/core/lv_indev_scroll.c ****              proc->types.pointer.scroll_throw_vect.y = elastic_diff(scroll_obj, proc->types.pointer
 122:Middlewares/lvgl/src/core/lv_indev_scroll.c **** 
 123:Middlewares/lvgl/src/core/lv_indev_scroll.c ****             lv_obj_scroll_by(scroll_obj, 0, proc->types.pointer.scroll_throw_vect.y, LV_ANIM_OFF);
 124:Middlewares/lvgl/src/core/lv_indev_scroll.c ****         }
 125:Middlewares/lvgl/src/core/lv_indev_scroll.c ****         /*With snapping find the nearest snap point and scroll there*/
 126:Middlewares/lvgl/src/core/lv_indev_scroll.c ****         else {
 127:Middlewares/lvgl/src/core/lv_indev_scroll.c ****             lv_coord_t diff_y = scroll_throw_predict_y(proc);
 128:Middlewares/lvgl/src/core/lv_indev_scroll.c ****             proc->types.pointer.scroll_throw_vect.y = 0;
 129:Middlewares/lvgl/src/core/lv_indev_scroll.c ****             scroll_limit_diff(proc, NULL, &diff_y);
 130:Middlewares/lvgl/src/core/lv_indev_scroll.c ****             lv_coord_t y = find_snap_point_y(scroll_obj, LV_COORD_MIN, LV_COORD_MAX, diff_y);
 131:Middlewares/lvgl/src/core/lv_indev_scroll.c ****             lv_obj_scroll_by(scroll_obj, 0, diff_y + y, LV_ANIM_ON);
 132:Middlewares/lvgl/src/core/lv_indev_scroll.c ****         }
 133:Middlewares/lvgl/src/core/lv_indev_scroll.c ****     }
 134:Middlewares/lvgl/src/core/lv_indev_scroll.c ****     else if(proc->types.pointer.scroll_dir == LV_DIR_HOR) {
 135:Middlewares/lvgl/src/core/lv_indev_scroll.c ****         proc->types.pointer.scroll_throw_vect.y = 0;
 136:Middlewares/lvgl/src/core/lv_indev_scroll.c ****         /*If no snapping "throw"*/
 137:Middlewares/lvgl/src/core/lv_indev_scroll.c ****         if(align_x == LV_SCROLL_SNAP_NONE) {
 138:Middlewares/lvgl/src/core/lv_indev_scroll.c ****             proc->types.pointer.scroll_throw_vect.x =
 139:Middlewares/lvgl/src/core/lv_indev_scroll.c ****                     proc->types.pointer.scroll_throw_vect.x * (100 - scroll_throw) / 100;
 140:Middlewares/lvgl/src/core/lv_indev_scroll.c **** 
 141:Middlewares/lvgl/src/core/lv_indev_scroll.c ****             lv_coord_t sl = lv_obj_get_scroll_left(scroll_obj);
 142:Middlewares/lvgl/src/core/lv_indev_scroll.c ****             lv_coord_t sr = lv_obj_get_scroll_right(scroll_obj);
 143:Middlewares/lvgl/src/core/lv_indev_scroll.c **** 
 144:Middlewares/lvgl/src/core/lv_indev_scroll.c ****             proc->types.pointer.scroll_throw_vect.x = elastic_diff(scroll_obj, proc->types.pointer.
 145:Middlewares/lvgl/src/core/lv_indev_scroll.c **** 
ARM GAS  /tmp/ccHFTBsZ.s 			page 4


 146:Middlewares/lvgl/src/core/lv_indev_scroll.c ****             lv_obj_scroll_by(scroll_obj, proc->types.pointer.scroll_throw_vect.x, 0, LV_ANIM_OFF);
 147:Middlewares/lvgl/src/core/lv_indev_scroll.c ****         }
 148:Middlewares/lvgl/src/core/lv_indev_scroll.c ****         /*With snapping find the nearest snap point and scroll there*/
 149:Middlewares/lvgl/src/core/lv_indev_scroll.c ****         else {
 150:Middlewares/lvgl/src/core/lv_indev_scroll.c ****             lv_coord_t diff_x = scroll_throw_predict_x(proc);
 151:Middlewares/lvgl/src/core/lv_indev_scroll.c ****             proc->types.pointer.scroll_throw_vect.x = 0;
 152:Middlewares/lvgl/src/core/lv_indev_scroll.c ****             scroll_limit_diff(proc, &diff_x, NULL);
 153:Middlewares/lvgl/src/core/lv_indev_scroll.c ****             lv_coord_t x = find_snap_point_x(scroll_obj, LV_COORD_MIN, LV_COORD_MAX, diff_x);
 154:Middlewares/lvgl/src/core/lv_indev_scroll.c ****             lv_obj_scroll_by(scroll_obj, x + diff_x, 0, LV_ANIM_ON);
 155:Middlewares/lvgl/src/core/lv_indev_scroll.c ****         }
 156:Middlewares/lvgl/src/core/lv_indev_scroll.c ****     }
 157:Middlewares/lvgl/src/core/lv_indev_scroll.c **** 
 158:Middlewares/lvgl/src/core/lv_indev_scroll.c ****     /*Check if the scroll has finished*/
 159:Middlewares/lvgl/src/core/lv_indev_scroll.c ****     if(proc->types.pointer.scroll_throw_vect.x == 0 && proc->types.pointer.scroll_throw_vect.y == 0
 160:Middlewares/lvgl/src/core/lv_indev_scroll.c ****         /*Revert if scrolled in*/
 161:Middlewares/lvgl/src/core/lv_indev_scroll.c ****         /*If vertically scrollable and not controlled by snap*/
 162:Middlewares/lvgl/src/core/lv_indev_scroll.c ****         if(align_y == LV_SCROLL_SNAP_NONE) {
 163:Middlewares/lvgl/src/core/lv_indev_scroll.c ****             lv_coord_t st = lv_obj_get_scroll_top(scroll_obj);
 164:Middlewares/lvgl/src/core/lv_indev_scroll.c ****             lv_coord_t sb = lv_obj_get_scroll_bottom(scroll_obj);
 165:Middlewares/lvgl/src/core/lv_indev_scroll.c ****             if(st > 0 || sb > 0) {
 166:Middlewares/lvgl/src/core/lv_indev_scroll.c ****                 if(st < 0) {
 167:Middlewares/lvgl/src/core/lv_indev_scroll.c ****                     lv_obj_scroll_by(scroll_obj, 0, st, LV_ANIM_ON);
 168:Middlewares/lvgl/src/core/lv_indev_scroll.c ****                 }
 169:Middlewares/lvgl/src/core/lv_indev_scroll.c ****                 else if(sb < 0) {
 170:Middlewares/lvgl/src/core/lv_indev_scroll.c ****                     lv_obj_scroll_by(scroll_obj, 0, -sb, LV_ANIM_ON);
 171:Middlewares/lvgl/src/core/lv_indev_scroll.c ****                 }
 172:Middlewares/lvgl/src/core/lv_indev_scroll.c ****             }
 173:Middlewares/lvgl/src/core/lv_indev_scroll.c ****         }
 174:Middlewares/lvgl/src/core/lv_indev_scroll.c **** 
 175:Middlewares/lvgl/src/core/lv_indev_scroll.c ****         /*If horizontally scrollable and not controlled by snap*/
 176:Middlewares/lvgl/src/core/lv_indev_scroll.c ****         if(align_x == LV_SCROLL_SNAP_NONE) {
 177:Middlewares/lvgl/src/core/lv_indev_scroll.c ****             lv_coord_t sl = lv_obj_get_scroll_left(scroll_obj);
 178:Middlewares/lvgl/src/core/lv_indev_scroll.c ****             lv_coord_t sr = lv_obj_get_scroll_right(scroll_obj);
 179:Middlewares/lvgl/src/core/lv_indev_scroll.c ****             if (sl > 0 || sr > 0) {
 180:Middlewares/lvgl/src/core/lv_indev_scroll.c ****                 if(sl < 0) {
 181:Middlewares/lvgl/src/core/lv_indev_scroll.c ****                     lv_obj_scroll_by(scroll_obj, sl, 0, LV_ANIM_ON);
 182:Middlewares/lvgl/src/core/lv_indev_scroll.c ****                 }
 183:Middlewares/lvgl/src/core/lv_indev_scroll.c ****                 else if(sr < 0) {
 184:Middlewares/lvgl/src/core/lv_indev_scroll.c ****                     lv_obj_scroll_by(scroll_obj, -sr, 0, LV_ANIM_ON);
 185:Middlewares/lvgl/src/core/lv_indev_scroll.c ****                 }
 186:Middlewares/lvgl/src/core/lv_indev_scroll.c ****             }
 187:Middlewares/lvgl/src/core/lv_indev_scroll.c ****         }
 188:Middlewares/lvgl/src/core/lv_indev_scroll.c **** 
 189:Middlewares/lvgl/src/core/lv_indev_scroll.c ****         lv_event_send(scroll_obj, LV_EVENT_SCROLL_END, indev_act);
 190:Middlewares/lvgl/src/core/lv_indev_scroll.c ****         if(proc->reset_query) return;
 191:Middlewares/lvgl/src/core/lv_indev_scroll.c **** 
 192:Middlewares/lvgl/src/core/lv_indev_scroll.c ****         proc->types.pointer.scroll_dir = LV_DIR_NONE;
 193:Middlewares/lvgl/src/core/lv_indev_scroll.c ****         proc->types.pointer.scroll_obj = NULL;
 194:Middlewares/lvgl/src/core/lv_indev_scroll.c ****     }
 195:Middlewares/lvgl/src/core/lv_indev_scroll.c **** }
 196:Middlewares/lvgl/src/core/lv_indev_scroll.c **** 
 197:Middlewares/lvgl/src/core/lv_indev_scroll.c **** /**
 198:Middlewares/lvgl/src/core/lv_indev_scroll.c ****  * Predict where would a scroll throw end
 199:Middlewares/lvgl/src/core/lv_indev_scroll.c ****  * @param indev pointer to an input device
 200:Middlewares/lvgl/src/core/lv_indev_scroll.c ****  * @param dir `LV_DIR_VER` or `LV_DIR_HOR`
 201:Middlewares/lvgl/src/core/lv_indev_scroll.c ****  * @return the difference compared to the current position when the throw would be finished
 202:Middlewares/lvgl/src/core/lv_indev_scroll.c ****  */
ARM GAS  /tmp/ccHFTBsZ.s 			page 5


 203:Middlewares/lvgl/src/core/lv_indev_scroll.c **** lv_coord_t lv_indev_scroll_throw_predict(lv_indev_t * indev, lv_dir_t dir)
 204:Middlewares/lvgl/src/core/lv_indev_scroll.c **** {
 205:Middlewares/lvgl/src/core/lv_indev_scroll.c ****     if(indev == NULL) return 0;
 206:Middlewares/lvgl/src/core/lv_indev_scroll.c ****     lv_coord_t v;
 207:Middlewares/lvgl/src/core/lv_indev_scroll.c ****     switch(dir) {
 208:Middlewares/lvgl/src/core/lv_indev_scroll.c ****     case LV_DIR_VER:
 209:Middlewares/lvgl/src/core/lv_indev_scroll.c ****         v = indev->proc.types.pointer.scroll_throw_vect_ori.y;
 210:Middlewares/lvgl/src/core/lv_indev_scroll.c ****         break;
 211:Middlewares/lvgl/src/core/lv_indev_scroll.c ****     case LV_DIR_HOR:
 212:Middlewares/lvgl/src/core/lv_indev_scroll.c ****         v = indev->proc.types.pointer.scroll_throw_vect_ori.x;
 213:Middlewares/lvgl/src/core/lv_indev_scroll.c ****         break;
 214:Middlewares/lvgl/src/core/lv_indev_scroll.c ****     default:
 215:Middlewares/lvgl/src/core/lv_indev_scroll.c ****         return 0;
 216:Middlewares/lvgl/src/core/lv_indev_scroll.c ****     }
 217:Middlewares/lvgl/src/core/lv_indev_scroll.c **** 
 218:Middlewares/lvgl/src/core/lv_indev_scroll.c ****     lv_coord_t scroll_throw = indev->driver->scroll_throw;
 219:Middlewares/lvgl/src/core/lv_indev_scroll.c ****     lv_coord_t sum = 0;
 220:Middlewares/lvgl/src/core/lv_indev_scroll.c ****     while(v) {
 221:Middlewares/lvgl/src/core/lv_indev_scroll.c ****         sum += v;
 222:Middlewares/lvgl/src/core/lv_indev_scroll.c ****         v = v * (100 - scroll_throw) / 100;
 223:Middlewares/lvgl/src/core/lv_indev_scroll.c ****     }
 224:Middlewares/lvgl/src/core/lv_indev_scroll.c **** 
 225:Middlewares/lvgl/src/core/lv_indev_scroll.c ****     return sum;
 226:Middlewares/lvgl/src/core/lv_indev_scroll.c **** }
 227:Middlewares/lvgl/src/core/lv_indev_scroll.c **** 
 228:Middlewares/lvgl/src/core/lv_indev_scroll.c **** void lv_indev_scroll_get_snap_dist(lv_obj_t * obj, lv_point_t * p)
 229:Middlewares/lvgl/src/core/lv_indev_scroll.c **** {
 230:Middlewares/lvgl/src/core/lv_indev_scroll.c ****     p->x = find_snap_point_x(obj, obj->coords.x1, obj->coords.x2, 0);
 231:Middlewares/lvgl/src/core/lv_indev_scroll.c ****     p->y = find_snap_point_y(obj, obj->coords.y1, obj->coords.y2, 0);
 232:Middlewares/lvgl/src/core/lv_indev_scroll.c **** }
 233:Middlewares/lvgl/src/core/lv_indev_scroll.c **** 
 234:Middlewares/lvgl/src/core/lv_indev_scroll.c **** /**********************
 235:Middlewares/lvgl/src/core/lv_indev_scroll.c ****  *   STATIC FUNCTIONS
 236:Middlewares/lvgl/src/core/lv_indev_scroll.c ****  **********************/
 237:Middlewares/lvgl/src/core/lv_indev_scroll.c **** 
 238:Middlewares/lvgl/src/core/lv_indev_scroll.c **** static lv_obj_t * find_scroll_obj(_lv_indev_proc_t * proc)
 239:Middlewares/lvgl/src/core/lv_indev_scroll.c **** {
 240:Middlewares/lvgl/src/core/lv_indev_scroll.c ****     lv_obj_t * obj_candidate = NULL;
 241:Middlewares/lvgl/src/core/lv_indev_scroll.c ****     lv_dir_t dir_candidate = LV_DIR_NONE;
 242:Middlewares/lvgl/src/core/lv_indev_scroll.c ****     lv_indev_t * indev_act = lv_indev_get_act();
 243:Middlewares/lvgl/src/core/lv_indev_scroll.c ****     lv_coord_t scroll_limit =  indev_act->driver->scroll_limit;
 244:Middlewares/lvgl/src/core/lv_indev_scroll.c **** 
 245:Middlewares/lvgl/src/core/lv_indev_scroll.c ****     /*Go until find an scrollable object in the current direction
 246:Middlewares/lvgl/src/core/lv_indev_scroll.c ****      *More precisely:
 247:Middlewares/lvgl/src/core/lv_indev_scroll.c ****      * 1. Check the pressed object and all of its ancestors and try to find an object which is scro
 248:Middlewares/lvgl/src/core/lv_indev_scroll.c ****      * 2. Scrollable means it has some content out of it's area
 249:Middlewares/lvgl/src/core/lv_indev_scroll.c ****      * 3. If an object can be scrolled into the current direction then use it ("real match"")
 250:Middlewares/lvgl/src/core/lv_indev_scroll.c ****      * 4. If can be scrolled on the current axis (hor/ver) save it as candidate (at least show an e
 251:Middlewares/lvgl/src/core/lv_indev_scroll.c ****      * 5. Use the last candidate. Always the "deepest" parent or the object from point 3*/
 252:Middlewares/lvgl/src/core/lv_indev_scroll.c ****     lv_obj_t * obj_act = proc->types.pointer.act_obj;
 253:Middlewares/lvgl/src/core/lv_indev_scroll.c ****     while(obj_act) {
 254:Middlewares/lvgl/src/core/lv_indev_scroll.c ****         if(lv_obj_has_flag(obj_act, LV_OBJ_FLAG_SCROLLABLE) == false) {
 255:Middlewares/lvgl/src/core/lv_indev_scroll.c ****             /*If this object don't want to chain the scroll ot the parent stop searching*/
 256:Middlewares/lvgl/src/core/lv_indev_scroll.c ****             if(lv_obj_has_flag(obj_act, LV_OBJ_FLAG_SCROLL_CHAIN) == false) break;
 257:Middlewares/lvgl/src/core/lv_indev_scroll.c ****             obj_act = lv_obj_get_parent(obj_act);
 258:Middlewares/lvgl/src/core/lv_indev_scroll.c ****             continue;
 259:Middlewares/lvgl/src/core/lv_indev_scroll.c ****         }
ARM GAS  /tmp/ccHFTBsZ.s 			page 6


 260:Middlewares/lvgl/src/core/lv_indev_scroll.c **** 
 261:Middlewares/lvgl/src/core/lv_indev_scroll.c ****         /*Decide if it's a horizontal or vertical scroll*/
 262:Middlewares/lvgl/src/core/lv_indev_scroll.c ****         bool hor_en = false;
 263:Middlewares/lvgl/src/core/lv_indev_scroll.c ****         bool ver_en = false;
 264:Middlewares/lvgl/src/core/lv_indev_scroll.c ****         if(LV_ABS(proc->types.pointer.scroll_sum.x) > LV_ABS(proc->types.pointer.scroll_sum.y)) {
 265:Middlewares/lvgl/src/core/lv_indev_scroll.c ****             hor_en = true;
 266:Middlewares/lvgl/src/core/lv_indev_scroll.c ****         }
 267:Middlewares/lvgl/src/core/lv_indev_scroll.c ****         else {
 268:Middlewares/lvgl/src/core/lv_indev_scroll.c ****             ver_en = true;
 269:Middlewares/lvgl/src/core/lv_indev_scroll.c ****         }
 270:Middlewares/lvgl/src/core/lv_indev_scroll.c **** 
 271:Middlewares/lvgl/src/core/lv_indev_scroll.c ****         /*Consider both up-down or left/right scrollable according to the current direction*/
 272:Middlewares/lvgl/src/core/lv_indev_scroll.c ****         bool up_en = ver_en;
 273:Middlewares/lvgl/src/core/lv_indev_scroll.c ****         bool down_en = ver_en;
 274:Middlewares/lvgl/src/core/lv_indev_scroll.c ****         bool left_en = hor_en;
 275:Middlewares/lvgl/src/core/lv_indev_scroll.c ****         bool right_en = hor_en;
 276:Middlewares/lvgl/src/core/lv_indev_scroll.c **** 
 277:Middlewares/lvgl/src/core/lv_indev_scroll.c ****         /*The object might have disabled some directions.*/
 278:Middlewares/lvgl/src/core/lv_indev_scroll.c ****         lv_dir_t scroll_dir = lv_obj_get_scroll_dir(obj_act);
 279:Middlewares/lvgl/src/core/lv_indev_scroll.c ****         if((scroll_dir & LV_DIR_LEFT) == 0) left_en = false;
 280:Middlewares/lvgl/src/core/lv_indev_scroll.c ****         if((scroll_dir & LV_DIR_RIGHT) == 0) right_en = false;
 281:Middlewares/lvgl/src/core/lv_indev_scroll.c ****         if((scroll_dir & LV_DIR_TOP) == 0) up_en = false;
 282:Middlewares/lvgl/src/core/lv_indev_scroll.c ****         if((scroll_dir & LV_DIR_BOTTOM) == 0) down_en = false;
 283:Middlewares/lvgl/src/core/lv_indev_scroll.c **** 
 284:Middlewares/lvgl/src/core/lv_indev_scroll.c ****         /*The object is scrollable to a direction if its content overflow in that direction.*/
 285:Middlewares/lvgl/src/core/lv_indev_scroll.c ****         lv_coord_t st = lv_obj_get_scroll_top(obj_act);
 286:Middlewares/lvgl/src/core/lv_indev_scroll.c ****         lv_coord_t sb = lv_obj_get_scroll_bottom(obj_act);
 287:Middlewares/lvgl/src/core/lv_indev_scroll.c ****         lv_coord_t sl = lv_obj_get_scroll_left(obj_act);
 288:Middlewares/lvgl/src/core/lv_indev_scroll.c ****         lv_coord_t sr = lv_obj_get_scroll_right(obj_act);
 289:Middlewares/lvgl/src/core/lv_indev_scroll.c **** 
 290:Middlewares/lvgl/src/core/lv_indev_scroll.c ****         /*If this object is scrollable into the current scroll direction then save it as a candidat
 291:Middlewares/lvgl/src/core/lv_indev_scroll.c ****          *It's important only to be scrollable on the current axis (hor/ver) because if the scroll
 292:Middlewares/lvgl/src/core/lv_indev_scroll.c ****          *is propagated to this object it can show at least elastic scroll effect.
 293:Middlewares/lvgl/src/core/lv_indev_scroll.c ****          *But if not hor/ver scrollable do not scroll it at all (so it's not a good candidate)*/
 294:Middlewares/lvgl/src/core/lv_indev_scroll.c ****         if((st > 0 || sb > 0)  &&
 295:Middlewares/lvgl/src/core/lv_indev_scroll.c ****                 ((up_en    && proc->types.pointer.scroll_sum.y >= scroll_limit) ||
 296:Middlewares/lvgl/src/core/lv_indev_scroll.c ****                         (down_en  && proc->types.pointer.scroll_sum.y <= - scroll_limit)))
 297:Middlewares/lvgl/src/core/lv_indev_scroll.c ****         {
 298:Middlewares/lvgl/src/core/lv_indev_scroll.c ****             obj_candidate = obj_act;
 299:Middlewares/lvgl/src/core/lv_indev_scroll.c ****             dir_candidate = LV_DIR_VER;
 300:Middlewares/lvgl/src/core/lv_indev_scroll.c ****         }
 301:Middlewares/lvgl/src/core/lv_indev_scroll.c **** 
 302:Middlewares/lvgl/src/core/lv_indev_scroll.c ****         if((sl > 0 || sr > 0)  &&
 303:Middlewares/lvgl/src/core/lv_indev_scroll.c ****                 ((left_en    && proc->types.pointer.scroll_sum.x >=  scroll_limit) ||
 304:Middlewares/lvgl/src/core/lv_indev_scroll.c ****                         (right_en  && proc->types.pointer.scroll_sum.x <= - scroll_limit)))
 305:Middlewares/lvgl/src/core/lv_indev_scroll.c ****         {
 306:Middlewares/lvgl/src/core/lv_indev_scroll.c ****             obj_candidate = obj_act;
 307:Middlewares/lvgl/src/core/lv_indev_scroll.c ****             dir_candidate = LV_DIR_HOR;
 308:Middlewares/lvgl/src/core/lv_indev_scroll.c ****         }
 309:Middlewares/lvgl/src/core/lv_indev_scroll.c **** 
 310:Middlewares/lvgl/src/core/lv_indev_scroll.c ****         if(st <= 0) up_en = false;
 311:Middlewares/lvgl/src/core/lv_indev_scroll.c ****         if(sb <= 0) down_en = false;
 312:Middlewares/lvgl/src/core/lv_indev_scroll.c ****         if(sl <= 0) left_en = false;
 313:Middlewares/lvgl/src/core/lv_indev_scroll.c ****         if(sr <= 0) right_en = false;
 314:Middlewares/lvgl/src/core/lv_indev_scroll.c **** 
 315:Middlewares/lvgl/src/core/lv_indev_scroll.c ****         /*If the object really can be scrolled into the current direction the use it.*/
 316:Middlewares/lvgl/src/core/lv_indev_scroll.c ****         if((left_en  && proc->types.pointer.scroll_sum.x >=   scroll_limit) ||
ARM GAS  /tmp/ccHFTBsZ.s 			page 7


 317:Middlewares/lvgl/src/core/lv_indev_scroll.c ****                 (right_en && proc->types.pointer.scroll_sum.x <= - scroll_limit) ||
 318:Middlewares/lvgl/src/core/lv_indev_scroll.c ****                 (up_en    && proc->types.pointer.scroll_sum.y >=   scroll_limit) ||
 319:Middlewares/lvgl/src/core/lv_indev_scroll.c ****                 (down_en  && proc->types.pointer.scroll_sum.y <= - scroll_limit))
 320:Middlewares/lvgl/src/core/lv_indev_scroll.c ****         {
 321:Middlewares/lvgl/src/core/lv_indev_scroll.c ****             proc->types.pointer.scroll_dir = hor_en ? LV_DIR_HOR : LV_DIR_VER;
 322:Middlewares/lvgl/src/core/lv_indev_scroll.c ****             break;
 323:Middlewares/lvgl/src/core/lv_indev_scroll.c ****         }
 324:Middlewares/lvgl/src/core/lv_indev_scroll.c **** 
 325:Middlewares/lvgl/src/core/lv_indev_scroll.c ****         /*If this object don't want to chain the scroll ot the parent stop searching*/
 326:Middlewares/lvgl/src/core/lv_indev_scroll.c ****         if(lv_obj_has_flag(obj_act, LV_OBJ_FLAG_SCROLL_CHAIN) == false) break;
 327:Middlewares/lvgl/src/core/lv_indev_scroll.c **** 
 328:Middlewares/lvgl/src/core/lv_indev_scroll.c ****         /*Try the parent*/
 329:Middlewares/lvgl/src/core/lv_indev_scroll.c ****         obj_act = lv_obj_get_parent(obj_act);
 330:Middlewares/lvgl/src/core/lv_indev_scroll.c ****     }
 331:Middlewares/lvgl/src/core/lv_indev_scroll.c **** 
 332:Middlewares/lvgl/src/core/lv_indev_scroll.c ****     /*Use the last candidate*/
 333:Middlewares/lvgl/src/core/lv_indev_scroll.c ****     if(obj_candidate) {
 334:Middlewares/lvgl/src/core/lv_indev_scroll.c ****         proc->types.pointer.scroll_dir = dir_candidate;
 335:Middlewares/lvgl/src/core/lv_indev_scroll.c ****         proc->types.pointer.scroll_obj = obj_candidate;
 336:Middlewares/lvgl/src/core/lv_indev_scroll.c ****         proc->types.pointer.scroll_sum.x = 0;
 337:Middlewares/lvgl/src/core/lv_indev_scroll.c ****         proc->types.pointer.scroll_sum.y = 0;
 338:Middlewares/lvgl/src/core/lv_indev_scroll.c ****     }
 339:Middlewares/lvgl/src/core/lv_indev_scroll.c **** 
 340:Middlewares/lvgl/src/core/lv_indev_scroll.c ****     return obj_candidate;
 341:Middlewares/lvgl/src/core/lv_indev_scroll.c **** }
 342:Middlewares/lvgl/src/core/lv_indev_scroll.c **** 
 343:Middlewares/lvgl/src/core/lv_indev_scroll.c **** static void init_scroll_limits(_lv_indev_proc_t * proc)
 344:Middlewares/lvgl/src/core/lv_indev_scroll.c **** {
 345:Middlewares/lvgl/src/core/lv_indev_scroll.c ****     lv_obj_t * obj = proc->types.pointer.scroll_obj;
 346:Middlewares/lvgl/src/core/lv_indev_scroll.c ****     /*If there no STOP allow scrolling anywhere*/
 347:Middlewares/lvgl/src/core/lv_indev_scroll.c ****     if(lv_obj_has_flag(obj, LV_OBJ_FLAG_SCROLL_ONE) == false) {
 348:Middlewares/lvgl/src/core/lv_indev_scroll.c ****         lv_area_set(&proc->types.pointer.scroll_area, LV_COORD_MIN, LV_COORD_MIN, LV_COORD_MAX, LV_
 349:Middlewares/lvgl/src/core/lv_indev_scroll.c ****     }
 350:Middlewares/lvgl/src/core/lv_indev_scroll.c ****     /*With STOP limit the scrolling to the perv and next snap point*/
 351:Middlewares/lvgl/src/core/lv_indev_scroll.c ****     else {
 352:Middlewares/lvgl/src/core/lv_indev_scroll.c ****         switch(lv_obj_get_scroll_snap_y(obj)) {
 353:Middlewares/lvgl/src/core/lv_indev_scroll.c ****         case LV_SCROLL_SNAP_START:
 354:Middlewares/lvgl/src/core/lv_indev_scroll.c ****             proc->types.pointer.scroll_area.y1 = find_snap_point_y(obj, obj->coords.y1 + 1, LV_COOR
 355:Middlewares/lvgl/src/core/lv_indev_scroll.c ****             proc->types.pointer.scroll_area.y2 = find_snap_point_y(obj, LV_COORD_MIN, obj->coords.y
 356:Middlewares/lvgl/src/core/lv_indev_scroll.c ****             break;
 357:Middlewares/lvgl/src/core/lv_indev_scroll.c ****         case LV_SCROLL_SNAP_END:
 358:Middlewares/lvgl/src/core/lv_indev_scroll.c ****             proc->types.pointer.scroll_area.y1 = find_snap_point_y(obj, obj->coords.y2, LV_COORD_MA
 359:Middlewares/lvgl/src/core/lv_indev_scroll.c ****             proc->types.pointer.scroll_area.y2 = find_snap_point_y(obj, LV_COORD_MIN, obj->coords.y
 360:Middlewares/lvgl/src/core/lv_indev_scroll.c ****             break;
 361:Middlewares/lvgl/src/core/lv_indev_scroll.c ****         case LV_SCROLL_SNAP_CENTER: {
 362:Middlewares/lvgl/src/core/lv_indev_scroll.c ****             lv_coord_t y_mid = obj->coords.y1 + lv_area_get_height(&obj->coords) / 2;
 363:Middlewares/lvgl/src/core/lv_indev_scroll.c ****             proc->types.pointer.scroll_area.y1 = find_snap_point_y(obj, y_mid + 1, LV_COORD_MAX, 0)
 364:Middlewares/lvgl/src/core/lv_indev_scroll.c ****             proc->types.pointer.scroll_area.y2 = find_snap_point_y(obj, LV_COORD_MIN, y_mid - 1, 0)
 365:Middlewares/lvgl/src/core/lv_indev_scroll.c ****             break;
 366:Middlewares/lvgl/src/core/lv_indev_scroll.c ****         }
 367:Middlewares/lvgl/src/core/lv_indev_scroll.c ****         default:
 368:Middlewares/lvgl/src/core/lv_indev_scroll.c ****             proc->types.pointer.scroll_area.y1 = LV_COORD_MIN;
 369:Middlewares/lvgl/src/core/lv_indev_scroll.c ****             proc->types.pointer.scroll_area.y2 = LV_COORD_MAX;
 370:Middlewares/lvgl/src/core/lv_indev_scroll.c ****             break;
 371:Middlewares/lvgl/src/core/lv_indev_scroll.c ****         }
 372:Middlewares/lvgl/src/core/lv_indev_scroll.c **** 
 373:Middlewares/lvgl/src/core/lv_indev_scroll.c ****         switch(lv_obj_get_scroll_snap_x(obj)) {
ARM GAS  /tmp/ccHFTBsZ.s 			page 8


 374:Middlewares/lvgl/src/core/lv_indev_scroll.c ****         case LV_SCROLL_SNAP_START:
 375:Middlewares/lvgl/src/core/lv_indev_scroll.c ****             proc->types.pointer.scroll_area.x1 = find_snap_point_x(obj, obj->coords.x1, LV_COORD_MA
 376:Middlewares/lvgl/src/core/lv_indev_scroll.c ****             proc->types.pointer.scroll_area.x2 = find_snap_point_x(obj, LV_COORD_MIN, obj->coords.x
 377:Middlewares/lvgl/src/core/lv_indev_scroll.c ****             break;
 378:Middlewares/lvgl/src/core/lv_indev_scroll.c ****         case LV_SCROLL_SNAP_END:
 379:Middlewares/lvgl/src/core/lv_indev_scroll.c ****             proc->types.pointer.scroll_area.x1 = find_snap_point_x(obj, obj->coords.x2, LV_COORD_MA
 380:Middlewares/lvgl/src/core/lv_indev_scroll.c ****             proc->types.pointer.scroll_area.x2 = find_snap_point_x(obj, LV_COORD_MIN, obj->coords.x
 381:Middlewares/lvgl/src/core/lv_indev_scroll.c ****             break;
 382:Middlewares/lvgl/src/core/lv_indev_scroll.c ****         case LV_SCROLL_SNAP_CENTER: {
 383:Middlewares/lvgl/src/core/lv_indev_scroll.c ****             lv_coord_t x_mid = obj->coords.x1 + lv_area_get_width(&obj->coords) / 2;
 384:Middlewares/lvgl/src/core/lv_indev_scroll.c ****             proc->types.pointer.scroll_area.x1 = find_snap_point_x(obj, x_mid + 1, LV_COORD_MAX, 0)
 385:Middlewares/lvgl/src/core/lv_indev_scroll.c ****             proc->types.pointer.scroll_area.x2 = find_snap_point_x(obj, LV_COORD_MIN, x_mid - 1, 0)
 386:Middlewares/lvgl/src/core/lv_indev_scroll.c ****             break;
 387:Middlewares/lvgl/src/core/lv_indev_scroll.c ****         }
 388:Middlewares/lvgl/src/core/lv_indev_scroll.c ****         default:
 389:Middlewares/lvgl/src/core/lv_indev_scroll.c ****             proc->types.pointer.scroll_area.x1 = LV_COORD_MIN;
 390:Middlewares/lvgl/src/core/lv_indev_scroll.c ****             proc->types.pointer.scroll_area.x2 = LV_COORD_MAX;
 391:Middlewares/lvgl/src/core/lv_indev_scroll.c ****             break;
 392:Middlewares/lvgl/src/core/lv_indev_scroll.c ****         }
 393:Middlewares/lvgl/src/core/lv_indev_scroll.c ****     }
 394:Middlewares/lvgl/src/core/lv_indev_scroll.c **** 
 395:Middlewares/lvgl/src/core/lv_indev_scroll.c ****     /*Allow scrolling on the edges. It will be reverted to the edge due to snapping anyway*/
 396:Middlewares/lvgl/src/core/lv_indev_scroll.c ****     if(proc->types.pointer.scroll_area.x1 == 0) proc->types.pointer.scroll_area.x1 = LV_COORD_MIN;
 397:Middlewares/lvgl/src/core/lv_indev_scroll.c ****     if(proc->types.pointer.scroll_area.x2 == 0) proc->types.pointer.scroll_area.x2 = LV_COORD_MAX;
 398:Middlewares/lvgl/src/core/lv_indev_scroll.c ****     if(proc->types.pointer.scroll_area.y1 == 0) proc->types.pointer.scroll_area.y1 = LV_COORD_MIN;
 399:Middlewares/lvgl/src/core/lv_indev_scroll.c ****     if(proc->types.pointer.scroll_area.y2 == 0) proc->types.pointer.scroll_area.y2 = LV_COORD_MAX;
 400:Middlewares/lvgl/src/core/lv_indev_scroll.c **** }
 401:Middlewares/lvgl/src/core/lv_indev_scroll.c **** 
 402:Middlewares/lvgl/src/core/lv_indev_scroll.c **** /**
 403:Middlewares/lvgl/src/core/lv_indev_scroll.c ****  * Search for snap point in the `min` - `max` range.
 404:Middlewares/lvgl/src/core/lv_indev_scroll.c ****  * @param obj the object on which snap point should be found
 405:Middlewares/lvgl/src/core/lv_indev_scroll.c ****  * @param min ignore snap points smaller then this. (Absolute coordinate)
 406:Middlewares/lvgl/src/core/lv_indev_scroll.c ****  * @param max ignore snap points greater then this. (Absolute coordinate)
 407:Middlewares/lvgl/src/core/lv_indev_scroll.c ****  * @param ofs offset to snap points. Useful the get a snap point in an imagined case
 408:Middlewares/lvgl/src/core/lv_indev_scroll.c ****  *            what if children are already moved by this value
 409:Middlewares/lvgl/src/core/lv_indev_scroll.c ****  * @return the distance of the snap point.
 410:Middlewares/lvgl/src/core/lv_indev_scroll.c ****  */
 411:Middlewares/lvgl/src/core/lv_indev_scroll.c **** static lv_coord_t find_snap_point_x(const lv_obj_t * obj, lv_coord_t min, lv_coord_t max, lv_coord_
 412:Middlewares/lvgl/src/core/lv_indev_scroll.c **** {
 413:Middlewares/lvgl/src/core/lv_indev_scroll.c ****     lv_scroll_snap_t align = lv_obj_get_scroll_snap_x(obj);
 414:Middlewares/lvgl/src/core/lv_indev_scroll.c ****     if(align == LV_SCROLL_SNAP_NONE) return 0;
 415:Middlewares/lvgl/src/core/lv_indev_scroll.c **** 
 416:Middlewares/lvgl/src/core/lv_indev_scroll.c ****     lv_coord_t dist = LV_COORD_MAX;
 417:Middlewares/lvgl/src/core/lv_indev_scroll.c **** 
 418:Middlewares/lvgl/src/core/lv_indev_scroll.c ****     lv_coord_t pad_left = lv_obj_get_style_pad_left(obj, LV_PART_MAIN);
 419:Middlewares/lvgl/src/core/lv_indev_scroll.c ****     lv_coord_t pad_right = lv_obj_get_style_pad_right(obj, LV_PART_MAIN);
 420:Middlewares/lvgl/src/core/lv_indev_scroll.c **** 
 421:Middlewares/lvgl/src/core/lv_indev_scroll.c ****     uint32_t i;
 422:Middlewares/lvgl/src/core/lv_indev_scroll.c ****     uint32_t child_cnt = lv_obj_get_child_cnt(obj);
 423:Middlewares/lvgl/src/core/lv_indev_scroll.c ****     for(i = 0; i < child_cnt; i++) {
 424:Middlewares/lvgl/src/core/lv_indev_scroll.c ****         lv_obj_t * child = lv_obj_get_child(obj, i);
 425:Middlewares/lvgl/src/core/lv_indev_scroll.c ****         if(lv_obj_has_flag_any(child, LV_OBJ_FLAG_HIDDEN | LV_OBJ_FLAG_FLOATING)) continue;
 426:Middlewares/lvgl/src/core/lv_indev_scroll.c ****         if(lv_obj_has_flag(child, LV_OBJ_FLAG_SNAPPABLE)) {
 427:Middlewares/lvgl/src/core/lv_indev_scroll.c ****             lv_coord_t x_child = 0;
 428:Middlewares/lvgl/src/core/lv_indev_scroll.c ****             lv_coord_t x_parent = 0;
 429:Middlewares/lvgl/src/core/lv_indev_scroll.c ****             switch(align) {
 430:Middlewares/lvgl/src/core/lv_indev_scroll.c ****             case LV_SCROLL_SNAP_START:
ARM GAS  /tmp/ccHFTBsZ.s 			page 9


 431:Middlewares/lvgl/src/core/lv_indev_scroll.c ****                 x_child = child->coords.x1;
 432:Middlewares/lvgl/src/core/lv_indev_scroll.c ****                 x_parent = obj->coords.x1 + pad_left;
 433:Middlewares/lvgl/src/core/lv_indev_scroll.c ****                 break;
 434:Middlewares/lvgl/src/core/lv_indev_scroll.c ****             case LV_SCROLL_SNAP_END:
 435:Middlewares/lvgl/src/core/lv_indev_scroll.c ****                 x_child = child->coords.x2;
 436:Middlewares/lvgl/src/core/lv_indev_scroll.c ****                 x_parent = obj->coords.x2 - pad_right;
 437:Middlewares/lvgl/src/core/lv_indev_scroll.c ****                 break;
 438:Middlewares/lvgl/src/core/lv_indev_scroll.c ****             case LV_SCROLL_SNAP_CENTER:
 439:Middlewares/lvgl/src/core/lv_indev_scroll.c ****                 x_child = child->coords.x1 + lv_area_get_width(&child->coords) / 2;
 440:Middlewares/lvgl/src/core/lv_indev_scroll.c ****                 x_parent = obj->coords.x1 + pad_left + (lv_area_get_width(&obj->coords) - pad_left 
 441:Middlewares/lvgl/src/core/lv_indev_scroll.c ****                 break;
 442:Middlewares/lvgl/src/core/lv_indev_scroll.c ****             default:
 443:Middlewares/lvgl/src/core/lv_indev_scroll.c ****                 continue;
 444:Middlewares/lvgl/src/core/lv_indev_scroll.c ****             }
 445:Middlewares/lvgl/src/core/lv_indev_scroll.c **** 
 446:Middlewares/lvgl/src/core/lv_indev_scroll.c ****             x_child += ofs;
 447:Middlewares/lvgl/src/core/lv_indev_scroll.c ****             if(x_child >= min && x_child <= max) {
 448:Middlewares/lvgl/src/core/lv_indev_scroll.c ****                 lv_coord_t x = x_child -  x_parent;
 449:Middlewares/lvgl/src/core/lv_indev_scroll.c ****                 if(LV_ABS(x) < LV_ABS(dist)) dist = x;
 450:Middlewares/lvgl/src/core/lv_indev_scroll.c ****             }
 451:Middlewares/lvgl/src/core/lv_indev_scroll.c ****         }
 452:Middlewares/lvgl/src/core/lv_indev_scroll.c ****     }
 453:Middlewares/lvgl/src/core/lv_indev_scroll.c **** 
 454:Middlewares/lvgl/src/core/lv_indev_scroll.c ****     return dist == LV_COORD_MAX ? 0: -dist;
 455:Middlewares/lvgl/src/core/lv_indev_scroll.c **** }
 456:Middlewares/lvgl/src/core/lv_indev_scroll.c **** 
 457:Middlewares/lvgl/src/core/lv_indev_scroll.c **** /**
 458:Middlewares/lvgl/src/core/lv_indev_scroll.c ****  * Search for snap point in the `min` - `max` range.
 459:Middlewares/lvgl/src/core/lv_indev_scroll.c ****  * @param obj the object on which snap point should be found
 460:Middlewares/lvgl/src/core/lv_indev_scroll.c ****  * @param min ignore snap points smaller then this. (Absolute coordinate)
 461:Middlewares/lvgl/src/core/lv_indev_scroll.c ****  * @param max ignore snap points greater then this. (Absolute coordinate)
 462:Middlewares/lvgl/src/core/lv_indev_scroll.c ****  * @param ofs offset to snap points. Useful the get a snap point in an imagined case
 463:Middlewares/lvgl/src/core/lv_indev_scroll.c ****  *            what if children are already moved by this value
 464:Middlewares/lvgl/src/core/lv_indev_scroll.c ****  * @return the distance of the snap point.
 465:Middlewares/lvgl/src/core/lv_indev_scroll.c ****  */
 466:Middlewares/lvgl/src/core/lv_indev_scroll.c **** static lv_coord_t find_snap_point_y(const lv_obj_t * obj, lv_coord_t min, lv_coord_t max, lv_coord_
 467:Middlewares/lvgl/src/core/lv_indev_scroll.c **** {
 468:Middlewares/lvgl/src/core/lv_indev_scroll.c ****     lv_scroll_snap_t align = lv_obj_get_scroll_snap_y(obj);
 469:Middlewares/lvgl/src/core/lv_indev_scroll.c ****     if(align == LV_SCROLL_SNAP_NONE) return 0;
 470:Middlewares/lvgl/src/core/lv_indev_scroll.c **** 
 471:Middlewares/lvgl/src/core/lv_indev_scroll.c ****     lv_coord_t dist = LV_COORD_MAX;
 472:Middlewares/lvgl/src/core/lv_indev_scroll.c **** 
 473:Middlewares/lvgl/src/core/lv_indev_scroll.c ****     lv_coord_t pad_top = lv_obj_get_style_pad_top(obj, LV_PART_MAIN);
 474:Middlewares/lvgl/src/core/lv_indev_scroll.c ****     lv_coord_t pad_bottom = lv_obj_get_style_pad_bottom(obj, LV_PART_MAIN);
 475:Middlewares/lvgl/src/core/lv_indev_scroll.c **** 
 476:Middlewares/lvgl/src/core/lv_indev_scroll.c ****     uint32_t i;
 477:Middlewares/lvgl/src/core/lv_indev_scroll.c ****     uint32_t child_cnt = lv_obj_get_child_cnt(obj);
 478:Middlewares/lvgl/src/core/lv_indev_scroll.c ****     for(i = 0; i < child_cnt; i++) {
 479:Middlewares/lvgl/src/core/lv_indev_scroll.c ****         lv_obj_t * child = lv_obj_get_child(obj, i);
 480:Middlewares/lvgl/src/core/lv_indev_scroll.c ****         if(lv_obj_has_flag_any(child, LV_OBJ_FLAG_HIDDEN | LV_OBJ_FLAG_FLOATING)) continue;
 481:Middlewares/lvgl/src/core/lv_indev_scroll.c ****         if(lv_obj_has_flag(child, LV_OBJ_FLAG_SNAPPABLE)) {
 482:Middlewares/lvgl/src/core/lv_indev_scroll.c ****             lv_coord_t y_child = 0;
 483:Middlewares/lvgl/src/core/lv_indev_scroll.c ****             lv_coord_t y_parent = 0;
 484:Middlewares/lvgl/src/core/lv_indev_scroll.c ****             switch(align) {
 485:Middlewares/lvgl/src/core/lv_indev_scroll.c ****             case LV_SCROLL_SNAP_START:
 486:Middlewares/lvgl/src/core/lv_indev_scroll.c ****                 y_child = child->coords.y1;
 487:Middlewares/lvgl/src/core/lv_indev_scroll.c ****                 y_parent = obj->coords.y1 + pad_top;
ARM GAS  /tmp/ccHFTBsZ.s 			page 10


 488:Middlewares/lvgl/src/core/lv_indev_scroll.c ****                 break;
 489:Middlewares/lvgl/src/core/lv_indev_scroll.c ****             case LV_SCROLL_SNAP_END:
 490:Middlewares/lvgl/src/core/lv_indev_scroll.c ****                 y_child = child->coords.y2;
 491:Middlewares/lvgl/src/core/lv_indev_scroll.c ****                 y_parent = obj->coords.y2 - pad_bottom;
 492:Middlewares/lvgl/src/core/lv_indev_scroll.c ****                 break;
 493:Middlewares/lvgl/src/core/lv_indev_scroll.c ****             case LV_SCROLL_SNAP_CENTER:
 494:Middlewares/lvgl/src/core/lv_indev_scroll.c ****                 y_child = child->coords.y1 + lv_area_get_height(&child->coords) / 2;
 495:Middlewares/lvgl/src/core/lv_indev_scroll.c ****                 y_parent = obj->coords.y1 + pad_top + (lv_area_get_height(&obj->coords) - pad_top -
 496:Middlewares/lvgl/src/core/lv_indev_scroll.c ****                 break;
 497:Middlewares/lvgl/src/core/lv_indev_scroll.c ****             default:
 498:Middlewares/lvgl/src/core/lv_indev_scroll.c ****                 continue;
 499:Middlewares/lvgl/src/core/lv_indev_scroll.c ****             }
 500:Middlewares/lvgl/src/core/lv_indev_scroll.c **** 
 501:Middlewares/lvgl/src/core/lv_indev_scroll.c ****             y_child += ofs;
 502:Middlewares/lvgl/src/core/lv_indev_scroll.c ****             if(y_child >= min && y_child <= max) {
 503:Middlewares/lvgl/src/core/lv_indev_scroll.c ****                 lv_coord_t y = y_child -  y_parent;
 504:Middlewares/lvgl/src/core/lv_indev_scroll.c ****                 if(LV_ABS(y) < LV_ABS(dist)) dist = y;
 505:Middlewares/lvgl/src/core/lv_indev_scroll.c ****             }
 506:Middlewares/lvgl/src/core/lv_indev_scroll.c ****         }
 507:Middlewares/lvgl/src/core/lv_indev_scroll.c ****     }
 508:Middlewares/lvgl/src/core/lv_indev_scroll.c **** 
 509:Middlewares/lvgl/src/core/lv_indev_scroll.c ****     return dist == LV_COORD_MAX ? 0 : -dist;
 510:Middlewares/lvgl/src/core/lv_indev_scroll.c **** }
 511:Middlewares/lvgl/src/core/lv_indev_scroll.c **** 
 512:Middlewares/lvgl/src/core/lv_indev_scroll.c **** static void scroll_limit_diff(_lv_indev_proc_t * proc, lv_coord_t * diff_x, lv_coord_t * diff_y)
 513:Middlewares/lvgl/src/core/lv_indev_scroll.c **** {
  28              		.loc 1 513 1 view -0
  29              		.cfi_startproc
  30              		@ args = 0, pretend = 0, frame = 0
  31              		@ frame_needed = 0, uses_anonymous_args = 0
  32              		.loc 1 513 1 is_stmt 0 view .LVU1
  33 0000 00B5     		push	{lr}
  34              	.LCFI0:
  35              		.cfi_def_cfa_offset 4
  36              		.cfi_offset 14, -4
 514:Middlewares/lvgl/src/core/lv_indev_scroll.c ****     if(diff_y) {
  37              		.loc 1 514 5 is_stmt 1 view .LVU2
  38              		.loc 1 514 7 is_stmt 0 view .LVU3
  39 0002 02B3     		cbz	r2, .L2
  40 0004 9446     		mov	ip, r2
 515:Middlewares/lvgl/src/core/lv_indev_scroll.c ****         if(proc->types.pointer.scroll_sum.y + *diff_y < proc->types.pointer.scroll_area.y1) {
  41              		.loc 1 515 9 is_stmt 1 view .LVU4
  42              		.loc 1 515 42 is_stmt 0 view .LVU5
  43 0006 B0F916E0 		ldrsh	lr, [r0, #22]
  44              		.loc 1 515 47 view .LVU6
  45 000a B2F90020 		ldrsh	r2, [r2]
  46              	.LVL1:
  47              		.loc 1 515 45 view .LVU7
  48 000e 7244     		add	r2, r2, lr
  49              		.loc 1 515 88 view .LVU8
  50 0010 B0F93230 		ldrsh	r3, [r0, #50]
  51              		.loc 1 515 11 view .LVU9
  52 0014 9A42     		cmp	r2, r3
  53 0016 06DA     		bge	.L3
 516:Middlewares/lvgl/src/core/lv_indev_scroll.c ****            *diff_y = proc->types.pointer.scroll_area.y1 - proc->types.pointer.scroll_sum.y;
  54              		.loc 1 516 12 is_stmt 1 view .LVU10
  55              		.loc 1 516 53 is_stmt 0 view .LVU11
ARM GAS  /tmp/ccHFTBsZ.s 			page 11


  56 0018 9BB2     		uxth	r3, r3
  57              		.loc 1 516 89 view .LVU12
  58 001a 1FFA8EFE 		uxth	lr, lr
  59              		.loc 1 516 57 view .LVU13
  60 001e A3EB0E03 		sub	r3, r3, lr
  61              		.loc 1 516 20 view .LVU14
  62 0022 ACF80030 		strh	r3, [ip]	@ movhi
  63              	.L3:
 517:Middlewares/lvgl/src/core/lv_indev_scroll.c ****         }
 518:Middlewares/lvgl/src/core/lv_indev_scroll.c **** 
 519:Middlewares/lvgl/src/core/lv_indev_scroll.c ****         if(proc->types.pointer.scroll_sum.y + *diff_y > proc->types.pointer.scroll_area.y2) {
  64              		.loc 1 519 9 is_stmt 1 view .LVU15
  65              		.loc 1 519 42 is_stmt 0 view .LVU16
  66 0026 B0F916E0 		ldrsh	lr, [r0, #22]
  67              		.loc 1 519 47 view .LVU17
  68 002a BCF90020 		ldrsh	r2, [ip]
  69              		.loc 1 519 45 view .LVU18
  70 002e 7244     		add	r2, r2, lr
  71              		.loc 1 519 88 view .LVU19
  72 0030 B0F93630 		ldrsh	r3, [r0, #54]
  73              		.loc 1 519 11 view .LVU20
  74 0034 9A42     		cmp	r2, r3
  75 0036 06DD     		ble	.L2
 520:Middlewares/lvgl/src/core/lv_indev_scroll.c ****             *diff_y = proc->types.pointer.scroll_area.y2 - proc->types.pointer.scroll_sum.y;
  76              		.loc 1 520 13 is_stmt 1 view .LVU21
  77              		.loc 1 520 54 is_stmt 0 view .LVU22
  78 0038 9BB2     		uxth	r3, r3
  79              		.loc 1 520 90 view .LVU23
  80 003a 1FFA8EFE 		uxth	lr, lr
  81              		.loc 1 520 58 view .LVU24
  82 003e A3EB0E03 		sub	r3, r3, lr
  83              		.loc 1 520 21 view .LVU25
  84 0042 ACF80030 		strh	r3, [ip]	@ movhi
  85              	.LVL2:
  86              	.L2:
 521:Middlewares/lvgl/src/core/lv_indev_scroll.c ****         }
 522:Middlewares/lvgl/src/core/lv_indev_scroll.c ****     }
 523:Middlewares/lvgl/src/core/lv_indev_scroll.c **** 
 524:Middlewares/lvgl/src/core/lv_indev_scroll.c ****     if(diff_x) {
  87              		.loc 1 524 5 is_stmt 1 view .LVU26
  88              		.loc 1 524 7 is_stmt 0 view .LVU27
  89 0046 E9B1     		cbz	r1, .L1
 525:Middlewares/lvgl/src/core/lv_indev_scroll.c ****         if(proc->types.pointer.scroll_sum.x + *diff_x < proc->types.pointer.scroll_area.x1) {
  90              		.loc 1 525 9 is_stmt 1 view .LVU28
  91              		.loc 1 525 42 is_stmt 0 view .LVU29
  92 0048 B0F914C0 		ldrsh	ip, [r0, #20]
  93              		.loc 1 525 47 view .LVU30
  94 004c B1F90020 		ldrsh	r2, [r1]
  95              		.loc 1 525 45 view .LVU31
  96 0050 6244     		add	r2, r2, ip
  97              		.loc 1 525 88 view .LVU32
  98 0052 B0F93030 		ldrsh	r3, [r0, #48]
  99              		.loc 1 525 11 view .LVU33
 100 0056 9A42     		cmp	r2, r3
 101 0058 05DA     		bge	.L5
 526:Middlewares/lvgl/src/core/lv_indev_scroll.c ****             *diff_x = proc->types.pointer.scroll_area.x1 - proc->types.pointer.scroll_sum.x;
 102              		.loc 1 526 13 is_stmt 1 view .LVU34
ARM GAS  /tmp/ccHFTBsZ.s 			page 12


 103              		.loc 1 526 54 is_stmt 0 view .LVU35
 104 005a 9BB2     		uxth	r3, r3
 105              		.loc 1 526 90 view .LVU36
 106 005c 1FFA8CFC 		uxth	ip, ip
 107              		.loc 1 526 58 view .LVU37
 108 0060 A3EB0C03 		sub	r3, r3, ip
 109              		.loc 1 526 21 view .LVU38
 110 0064 0B80     		strh	r3, [r1]	@ movhi
 111              	.L5:
 527:Middlewares/lvgl/src/core/lv_indev_scroll.c ****         }
 528:Middlewares/lvgl/src/core/lv_indev_scroll.c **** 
 529:Middlewares/lvgl/src/core/lv_indev_scroll.c ****         if(proc->types.pointer.scroll_sum.x + *diff_x > proc->types.pointer.scroll_area.x2) {
 112              		.loc 1 529 9 is_stmt 1 view .LVU39
 113              		.loc 1 529 42 is_stmt 0 view .LVU40
 114 0066 B0F914C0 		ldrsh	ip, [r0, #20]
 115              		.loc 1 529 47 view .LVU41
 116 006a B1F90020 		ldrsh	r2, [r1]
 117              		.loc 1 529 45 view .LVU42
 118 006e 6244     		add	r2, r2, ip
 119              		.loc 1 529 88 view .LVU43
 120 0070 B0F93430 		ldrsh	r3, [r0, #52]
 121              		.loc 1 529 11 view .LVU44
 122 0074 9A42     		cmp	r2, r3
 123 0076 05DD     		ble	.L1
 530:Middlewares/lvgl/src/core/lv_indev_scroll.c ****             *diff_x = proc->types.pointer.scroll_area.x2 - proc->types.pointer.scroll_sum.x;
 124              		.loc 1 530 13 is_stmt 1 view .LVU45
 125              		.loc 1 530 54 is_stmt 0 view .LVU46
 126 0078 9BB2     		uxth	r3, r3
 127              		.loc 1 530 90 view .LVU47
 128 007a 1FFA8CFC 		uxth	ip, ip
 129              		.loc 1 530 58 view .LVU48
 130 007e A3EB0C03 		sub	r3, r3, ip
 131              		.loc 1 530 21 view .LVU49
 132 0082 0B80     		strh	r3, [r1]	@ movhi
 133              	.L1:
 531:Middlewares/lvgl/src/core/lv_indev_scroll.c ****         }
 532:Middlewares/lvgl/src/core/lv_indev_scroll.c ****     }
 533:Middlewares/lvgl/src/core/lv_indev_scroll.c **** }
 134              		.loc 1 533 1 view .LVU50
 135 0084 5DF804FB 		ldr	pc, [sp], #4
 136              		.cfi_endproc
 137              	.LFE155:
 139              		.section	.text.scroll_throw_predict_y,"ax",%progbits
 140              		.align	1
 141              		.syntax unified
 142              		.thumb
 143              		.thumb_func
 145              	scroll_throw_predict_y:
 146              	.LVL3:
 147              	.LFB156:
 534:Middlewares/lvgl/src/core/lv_indev_scroll.c **** 
 535:Middlewares/lvgl/src/core/lv_indev_scroll.c **** 
 536:Middlewares/lvgl/src/core/lv_indev_scroll.c **** 
 537:Middlewares/lvgl/src/core/lv_indev_scroll.c **** static lv_coord_t scroll_throw_predict_y(_lv_indev_proc_t * proc)
 538:Middlewares/lvgl/src/core/lv_indev_scroll.c **** {
 148              		.loc 1 538 1 is_stmt 1 view -0
 149              		.cfi_startproc
ARM GAS  /tmp/ccHFTBsZ.s 			page 13


 150              		@ args = 0, pretend = 0, frame = 0
 151              		@ frame_needed = 0, uses_anonymous_args = 0
 152              		.loc 1 538 1 is_stmt 0 view .LVU52
 153 0000 10B5     		push	{r4, lr}
 154              	.LCFI1:
 155              		.cfi_def_cfa_offset 8
 156              		.cfi_offset 4, -8
 157              		.cfi_offset 14, -4
 539:Middlewares/lvgl/src/core/lv_indev_scroll.c ****     lv_coord_t y =  proc->types.pointer.scroll_throw_vect.y;
 158              		.loc 1 539 5 is_stmt 1 view .LVU53
 159              		.loc 1 539 16 is_stmt 0 view .LVU54
 160 0002 B0F91A40 		ldrsh	r4, [r0, #26]
 161              	.LVL4:
 540:Middlewares/lvgl/src/core/lv_indev_scroll.c ****     lv_coord_t move = 0;
 162              		.loc 1 540 5 is_stmt 1 view .LVU55
 541:Middlewares/lvgl/src/core/lv_indev_scroll.c **** 
 542:Middlewares/lvgl/src/core/lv_indev_scroll.c ****     lv_indev_t * indev_act = lv_indev_get_act();
 163              		.loc 1 542 5 view .LVU56
 164              		.loc 1 542 30 is_stmt 0 view .LVU57
 165 0006 FFF7FEFF 		bl	lv_indev_get_act
 166              	.LVL5:
 543:Middlewares/lvgl/src/core/lv_indev_scroll.c ****     lv_coord_t scroll_throw =  indev_act->driver->scroll_throw;
 167              		.loc 1 543 5 is_stmt 1 view .LVU58
 168              		.loc 1 543 41 is_stmt 0 view .LVU59
 169 000a 0368     		ldr	r3, [r0]
 170              		.loc 1 543 49 view .LVU60
 171 000c 5A7E     		ldrb	r2, [r3, #25]	@ zero_extendqisi2
 172              	.LVL6:
 544:Middlewares/lvgl/src/core/lv_indev_scroll.c **** 
 545:Middlewares/lvgl/src/core/lv_indev_scroll.c ****     while(y) {
 173              		.loc 1 545 5 is_stmt 1 view .LVU61
 540:Middlewares/lvgl/src/core/lv_indev_scroll.c **** 
 174              		.loc 1 540 16 is_stmt 0 view .LVU62
 175 000e 0020     		movs	r0, #0
 176              	.LVL7:
 177              		.loc 1 545 10 view .LVU63
 178 0010 0CE0     		b	.L8
 179              	.LVL8:
 180              	.L9:
 546:Middlewares/lvgl/src/core/lv_indev_scroll.c ****         move += y;
 181              		.loc 1 546 9 is_stmt 1 view .LVU64
 182              		.loc 1 546 14 is_stmt 0 view .LVU65
 183 0012 2044     		add	r0, r0, r4
 184              	.LVL9:
 185              		.loc 1 546 14 view .LVU66
 186 0014 00B2     		sxth	r0, r0
 187              	.LVL10:
 547:Middlewares/lvgl/src/core/lv_indev_scroll.c ****         y = y * (100 - scroll_throw) / 100;
 188              		.loc 1 547 9 is_stmt 1 view .LVU67
 189              		.loc 1 547 22 is_stmt 0 view .LVU68
 190 0016 C2F16403 		rsb	r3, r2, #100
 191              		.loc 1 547 15 view .LVU69
 192 001a 03FB04F4 		mul	r4, r3, r4
 193              	.LVL11:
 194              		.loc 1 547 38 view .LVU70
 195 001e 054B     		ldr	r3, .L11
 196 0020 83FB0413 		smull	r1, r3, r3, r4
ARM GAS  /tmp/ccHFTBsZ.s 			page 14


 197 0024 E417     		asrs	r4, r4, #31
 198 0026 C4EB6314 		rsb	r4, r4, r3, asr #5
 199              		.loc 1 547 11 view .LVU71
 200 002a 24B2     		sxth	r4, r4
 201              	.LVL12:
 202              	.L8:
 545:Middlewares/lvgl/src/core/lv_indev_scroll.c ****         move += y;
 203              		.loc 1 545 10 is_stmt 1 view .LVU72
 204 002c 002C     		cmp	r4, #0
 205 002e F0D1     		bne	.L9
 548:Middlewares/lvgl/src/core/lv_indev_scroll.c ****     }
 549:Middlewares/lvgl/src/core/lv_indev_scroll.c ****     return move;
 206              		.loc 1 549 5 view .LVU73
 550:Middlewares/lvgl/src/core/lv_indev_scroll.c **** }
 207              		.loc 1 550 1 is_stmt 0 view .LVU74
 208 0030 10BD     		pop	{r4, pc}
 209              	.LVL13:
 210              	.L12:
 211              		.loc 1 550 1 view .LVU75
 212 0032 00BF     		.align	2
 213              	.L11:
 214 0034 1F85EB51 		.word	1374389535
 215              		.cfi_endproc
 216              	.LFE156:
 218              		.section	.text.scroll_throw_predict_x,"ax",%progbits
 219              		.align	1
 220              		.syntax unified
 221              		.thumb
 222              		.thumb_func
 224              	scroll_throw_predict_x:
 225              	.LVL14:
 226              	.LFB157:
 551:Middlewares/lvgl/src/core/lv_indev_scroll.c **** 
 552:Middlewares/lvgl/src/core/lv_indev_scroll.c **** 
 553:Middlewares/lvgl/src/core/lv_indev_scroll.c **** static lv_coord_t scroll_throw_predict_x(_lv_indev_proc_t * proc)
 554:Middlewares/lvgl/src/core/lv_indev_scroll.c **** {
 227              		.loc 1 554 1 is_stmt 1 view -0
 228              		.cfi_startproc
 229              		@ args = 0, pretend = 0, frame = 0
 230              		@ frame_needed = 0, uses_anonymous_args = 0
 231              		.loc 1 554 1 is_stmt 0 view .LVU77
 232 0000 10B5     		push	{r4, lr}
 233              	.LCFI2:
 234              		.cfi_def_cfa_offset 8
 235              		.cfi_offset 4, -8
 236              		.cfi_offset 14, -4
 555:Middlewares/lvgl/src/core/lv_indev_scroll.c ****     lv_coord_t x =  proc->types.pointer.scroll_throw_vect.x;
 237              		.loc 1 555 5 is_stmt 1 view .LVU78
 238              		.loc 1 555 16 is_stmt 0 view .LVU79
 239 0002 B0F91840 		ldrsh	r4, [r0, #24]
 240              	.LVL15:
 556:Middlewares/lvgl/src/core/lv_indev_scroll.c ****     lv_coord_t move = 0;
 241              		.loc 1 556 5 is_stmt 1 view .LVU80
 557:Middlewares/lvgl/src/core/lv_indev_scroll.c **** 
 558:Middlewares/lvgl/src/core/lv_indev_scroll.c ****     lv_indev_t * indev_act = lv_indev_get_act();
 242              		.loc 1 558 5 view .LVU81
 243              		.loc 1 558 30 is_stmt 0 view .LVU82
ARM GAS  /tmp/ccHFTBsZ.s 			page 15


 244 0006 FFF7FEFF 		bl	lv_indev_get_act
 245              	.LVL16:
 559:Middlewares/lvgl/src/core/lv_indev_scroll.c ****     lv_coord_t scroll_throw =  indev_act->driver->scroll_throw;
 246              		.loc 1 559 5 is_stmt 1 view .LVU83
 247              		.loc 1 559 41 is_stmt 0 view .LVU84
 248 000a 0368     		ldr	r3, [r0]
 249              		.loc 1 559 49 view .LVU85
 250 000c 5A7E     		ldrb	r2, [r3, #25]	@ zero_extendqisi2
 251              	.LVL17:
 560:Middlewares/lvgl/src/core/lv_indev_scroll.c **** 
 561:Middlewares/lvgl/src/core/lv_indev_scroll.c ****     while(x) {
 252              		.loc 1 561 5 is_stmt 1 view .LVU86
 556:Middlewares/lvgl/src/core/lv_indev_scroll.c **** 
 253              		.loc 1 556 16 is_stmt 0 view .LVU87
 254 000e 0020     		movs	r0, #0
 255              	.LVL18:
 256              		.loc 1 561 10 view .LVU88
 257 0010 0CE0     		b	.L14
 258              	.LVL19:
 259              	.L15:
 562:Middlewares/lvgl/src/core/lv_indev_scroll.c ****         move += x;
 260              		.loc 1 562 9 is_stmt 1 view .LVU89
 261              		.loc 1 562 14 is_stmt 0 view .LVU90
 262 0012 2044     		add	r0, r0, r4
 263              	.LVL20:
 264              		.loc 1 562 14 view .LVU91
 265 0014 00B2     		sxth	r0, r0
 266              	.LVL21:
 563:Middlewares/lvgl/src/core/lv_indev_scroll.c ****         x = x * (100 - scroll_throw) / 100;
 267              		.loc 1 563 9 is_stmt 1 view .LVU92
 268              		.loc 1 563 22 is_stmt 0 view .LVU93
 269 0016 C2F16403 		rsb	r3, r2, #100
 270              		.loc 1 563 15 view .LVU94
 271 001a 03FB04F4 		mul	r4, r3, r4
 272              	.LVL22:
 273              		.loc 1 563 38 view .LVU95
 274 001e 054B     		ldr	r3, .L17
 275 0020 83FB0413 		smull	r1, r3, r3, r4
 276 0024 E417     		asrs	r4, r4, #31
 277 0026 C4EB6314 		rsb	r4, r4, r3, asr #5
 278              		.loc 1 563 11 view .LVU96
 279 002a 24B2     		sxth	r4, r4
 280              	.LVL23:
 281              	.L14:
 561:Middlewares/lvgl/src/core/lv_indev_scroll.c ****         move += x;
 282              		.loc 1 561 10 is_stmt 1 view .LVU97
 283 002c 002C     		cmp	r4, #0
 284 002e F0D1     		bne	.L15
 564:Middlewares/lvgl/src/core/lv_indev_scroll.c ****     }
 565:Middlewares/lvgl/src/core/lv_indev_scroll.c ****     return move;
 285              		.loc 1 565 5 view .LVU98
 566:Middlewares/lvgl/src/core/lv_indev_scroll.c **** }
 286              		.loc 1 566 1 is_stmt 0 view .LVU99
 287 0030 10BD     		pop	{r4, pc}
 288              	.LVL24:
 289              	.L18:
 290              		.loc 1 566 1 view .LVU100
ARM GAS  /tmp/ccHFTBsZ.s 			page 16


 291 0032 00BF     		.align	2
 292              	.L17:
 293 0034 1F85EB51 		.word	1374389535
 294              		.cfi_endproc
 295              	.LFE157:
 297              		.section	.text.find_scroll_obj,"ax",%progbits
 298              		.align	1
 299              		.syntax unified
 300              		.thumb
 301              		.thumb_func
 303              	find_scroll_obj:
 304              	.LVL25:
 305              	.LFB151:
 239:Middlewares/lvgl/src/core/lv_indev_scroll.c ****     lv_obj_t * obj_candidate = NULL;
 306              		.loc 1 239 1 is_stmt 1 view -0
 307              		.cfi_startproc
 308              		@ args = 0, pretend = 0, frame = 24
 309              		@ frame_needed = 0, uses_anonymous_args = 0
 239:Middlewares/lvgl/src/core/lv_indev_scroll.c ****     lv_obj_t * obj_candidate = NULL;
 310              		.loc 1 239 1 is_stmt 0 view .LVU102
 311 0000 2DE9F04F 		push	{r4, r5, r6, r7, r8, r9, r10, fp, lr}
 312              	.LCFI3:
 313              		.cfi_def_cfa_offset 36
 314              		.cfi_offset 4, -36
 315              		.cfi_offset 5, -32
 316              		.cfi_offset 6, -28
 317              		.cfi_offset 7, -24
 318              		.cfi_offset 8, -20
 319              		.cfi_offset 9, -16
 320              		.cfi_offset 10, -12
 321              		.cfi_offset 11, -8
 322              		.cfi_offset 14, -4
 323 0004 87B0     		sub	sp, sp, #28
 324              	.LCFI4:
 325              		.cfi_def_cfa_offset 64
 326 0006 8346     		mov	fp, r0
 240:Middlewares/lvgl/src/core/lv_indev_scroll.c ****     lv_dir_t dir_candidate = LV_DIR_NONE;
 327              		.loc 1 240 5 is_stmt 1 view .LVU103
 328              	.LVL26:
 241:Middlewares/lvgl/src/core/lv_indev_scroll.c ****     lv_indev_t * indev_act = lv_indev_get_act();
 329              		.loc 1 241 5 view .LVU104
 242:Middlewares/lvgl/src/core/lv_indev_scroll.c ****     lv_coord_t scroll_limit =  indev_act->driver->scroll_limit;
 330              		.loc 1 242 5 view .LVU105
 242:Middlewares/lvgl/src/core/lv_indev_scroll.c ****     lv_coord_t scroll_limit =  indev_act->driver->scroll_limit;
 331              		.loc 1 242 30 is_stmt 0 view .LVU106
 332 0008 FFF7FEFF 		bl	lv_indev_get_act
 333              	.LVL27:
 243:Middlewares/lvgl/src/core/lv_indev_scroll.c **** 
 334              		.loc 1 243 5 is_stmt 1 view .LVU107
 243:Middlewares/lvgl/src/core/lv_indev_scroll.c **** 
 335              		.loc 1 243 41 is_stmt 0 view .LVU108
 336 000c 0368     		ldr	r3, [r0]
 243:Middlewares/lvgl/src/core/lv_indev_scroll.c **** 
 337              		.loc 1 243 49 view .LVU109
 338 000e 93F81890 		ldrb	r9, [r3, #24]	@ zero_extendqisi2
 243:Middlewares/lvgl/src/core/lv_indev_scroll.c **** 
 339              		.loc 1 243 16 view .LVU110
ARM GAS  /tmp/ccHFTBsZ.s 			page 17


 340 0012 0FFA89FA 		sxth	r10, r9
 341              	.LVL28:
 252:Middlewares/lvgl/src/core/lv_indev_scroll.c ****     while(obj_act) {
 342              		.loc 1 252 5 is_stmt 1 view .LVU111
 252:Middlewares/lvgl/src/core/lv_indev_scroll.c ****     while(obj_act) {
 343              		.loc 1 252 16 is_stmt 0 view .LVU112
 344 0016 DBF82040 		ldr	r4, [fp, #32]
 345              	.LVL29:
 253:Middlewares/lvgl/src/core/lv_indev_scroll.c ****         if(lv_obj_has_flag(obj_act, LV_OBJ_FLAG_SCROLLABLE) == false) {
 346              		.loc 1 253 5 is_stmt 1 view .LVU113
 241:Middlewares/lvgl/src/core/lv_indev_scroll.c ****     lv_indev_t * indev_act = lv_indev_get_act();
 347              		.loc 1 241 14 is_stmt 0 view .LVU114
 348 001a 0023     		movs	r3, #0
 349 001c 0593     		str	r3, [sp, #20]
 240:Middlewares/lvgl/src/core/lv_indev_scroll.c ****     lv_dir_t dir_candidate = LV_DIR_NONE;
 350              		.loc 1 240 16 view .LVU115
 351 001e 0493     		str	r3, [sp, #16]
 253:Middlewares/lvgl/src/core/lv_indev_scroll.c ****         if(lv_obj_has_flag(obj_act, LV_OBJ_FLAG_SCROLLABLE) == false) {
 352              		.loc 1 253 10 view .LVU116
 353 0020 7AE0     		b	.L20
 354              	.LVL30:
 355              	.L67:
 356              	.LBB49:
 256:Middlewares/lvgl/src/core/lv_indev_scroll.c ****             obj_act = lv_obj_get_parent(obj_act);
 357              		.loc 1 256 13 is_stmt 1 view .LVU117
 256:Middlewares/lvgl/src/core/lv_indev_scroll.c ****             obj_act = lv_obj_get_parent(obj_act);
 358              		.loc 1 256 16 is_stmt 0 view .LVU118
 359 0022 4FF48071 		mov	r1, #256
 360 0026 2046     		mov	r0, r4
 361 0028 FFF7FEFF 		bl	lv_obj_has_flag
 362              	.LVL31:
 256:Middlewares/lvgl/src/core/lv_indev_scroll.c ****             obj_act = lv_obj_get_parent(obj_act);
 363              		.loc 1 256 15 view .LVU119
 364 002c 98B9     		cbnz	r0, .L62
 365              	.L22:
 256:Middlewares/lvgl/src/core/lv_indev_scroll.c ****             obj_act = lv_obj_get_parent(obj_act);
 366              		.loc 1 256 15 view .LVU120
 367              	.LBE49:
 333:Middlewares/lvgl/src/core/lv_indev_scroll.c ****         proc->types.pointer.scroll_dir = dir_candidate;
 368              		.loc 1 333 5 is_stmt 1 view .LVU121
 333:Middlewares/lvgl/src/core/lv_indev_scroll.c ****         proc->types.pointer.scroll_dir = dir_candidate;
 369              		.loc 1 333 7 is_stmt 0 view .LVU122
 370 002e 049A     		ldr	r2, [sp, #16]
 371 0030 6AB1     		cbz	r2, .L19
 334:Middlewares/lvgl/src/core/lv_indev_scroll.c ****         proc->types.pointer.scroll_obj = obj_candidate;
 372              		.loc 1 334 9 is_stmt 1 view .LVU123
 334:Middlewares/lvgl/src/core/lv_indev_scroll.c ****         proc->types.pointer.scroll_obj = obj_candidate;
 373              		.loc 1 334 40 is_stmt 0 view .LVU124
 374 0032 9BF83C30 		ldrb	r3, [fp, #60]	@ zero_extendqisi2
 375 0036 0599     		ldr	r1, [sp, #20]
 376 0038 61F30303 		bfi	r3, r1, #0, #4
 377 003c 8BF83C30 		strb	r3, [fp, #60]
 335:Middlewares/lvgl/src/core/lv_indev_scroll.c ****         proc->types.pointer.scroll_sum.x = 0;
 378              		.loc 1 335 9 is_stmt 1 view .LVU125
 335:Middlewares/lvgl/src/core/lv_indev_scroll.c ****         proc->types.pointer.scroll_sum.x = 0;
 379              		.loc 1 335 40 is_stmt 0 view .LVU126
 380 0040 CBF82820 		str	r2, [fp, #40]
ARM GAS  /tmp/ccHFTBsZ.s 			page 18


 336:Middlewares/lvgl/src/core/lv_indev_scroll.c ****         proc->types.pointer.scroll_sum.y = 0;
 381              		.loc 1 336 9 is_stmt 1 view .LVU127
 336:Middlewares/lvgl/src/core/lv_indev_scroll.c ****         proc->types.pointer.scroll_sum.y = 0;
 382              		.loc 1 336 42 is_stmt 0 view .LVU128
 383 0044 0023     		movs	r3, #0
 384 0046 ABF81430 		strh	r3, [fp, #20]	@ movhi
 337:Middlewares/lvgl/src/core/lv_indev_scroll.c ****     }
 385              		.loc 1 337 9 is_stmt 1 view .LVU129
 337:Middlewares/lvgl/src/core/lv_indev_scroll.c ****     }
 386              		.loc 1 337 42 is_stmt 0 view .LVU130
 387 004a ABF81630 		strh	r3, [fp, #22]	@ movhi
 340:Middlewares/lvgl/src/core/lv_indev_scroll.c **** }
 388              		.loc 1 340 5 is_stmt 1 view .LVU131
 389              	.LVL32:
 390              	.L19:
 341:Middlewares/lvgl/src/core/lv_indev_scroll.c **** 
 391              		.loc 1 341 1 is_stmt 0 view .LVU132
 392 004e 0498     		ldr	r0, [sp, #16]
 393 0050 07B0     		add	sp, sp, #28
 394              	.LCFI5:
 395              		.cfi_remember_state
 396              		.cfi_def_cfa_offset 36
 397              		@ sp needed
 398 0052 BDE8F08F 		pop	{r4, r5, r6, r7, r8, r9, r10, fp, pc}
 399              	.LVL33:
 400              	.L62:
 401              	.LCFI6:
 402              		.cfi_restore_state
 403              	.LBB50:
 257:Middlewares/lvgl/src/core/lv_indev_scroll.c ****             continue;
 404              		.loc 1 257 13 is_stmt 1 view .LVU133
 257:Middlewares/lvgl/src/core/lv_indev_scroll.c ****             continue;
 405              		.loc 1 257 23 is_stmt 0 view .LVU134
 406 0056 2046     		mov	r0, r4
 407 0058 FFF7FEFF 		bl	lv_obj_get_parent
 408              	.LVL34:
 409 005c 0446     		mov	r4, r0
 410              	.LVL35:
 258:Middlewares/lvgl/src/core/lv_indev_scroll.c ****         }
 411              		.loc 1 258 13 is_stmt 1 view .LVU135
 412 005e 5BE0     		b	.L20
 413              	.LVL36:
 414              	.L45:
 262:Middlewares/lvgl/src/core/lv_indev_scroll.c ****         bool ver_en = false;
 415              		.loc 1 262 14 is_stmt 0 view .LVU136
 416 0060 0023     		movs	r3, #0
 417 0062 0393     		str	r3, [sp, #12]
 418 0064 72E0     		b	.L24
 419              	.LVL37:
 420              	.L46:
 279:Middlewares/lvgl/src/core/lv_indev_scroll.c ****         if((scroll_dir & LV_DIR_RIGHT) == 0) right_en = false;
 421              		.loc 1 279 53 view .LVU137
 422 0066 0023     		movs	r3, #0
 423 0068 0093     		str	r3, [sp]
 424 006a 77E0     		b	.L25
 425              	.LVL38:
 426              	.L47:
ARM GAS  /tmp/ccHFTBsZ.s 			page 19


 280:Middlewares/lvgl/src/core/lv_indev_scroll.c ****         if((scroll_dir & LV_DIR_TOP) == 0) up_en = false;
 427              		.loc 1 280 55 view .LVU138
 428 006c 0023     		movs	r3, #0
 429 006e 0293     		str	r3, [sp, #8]
 430 0070 79E0     		b	.L26
 431              	.LVL39:
 432              	.L48:
 281:Middlewares/lvgl/src/core/lv_indev_scroll.c ****         if((scroll_dir & LV_DIR_BOTTOM) == 0) down_en = false;
 433              		.loc 1 281 50 view .LVU139
 434 0072 0023     		movs	r3, #0
 435 0074 0193     		str	r3, [sp, #4]
 436 0076 7AE0     		b	.L27
 437              	.LVL40:
 438              	.L50:
 298:Middlewares/lvgl/src/core/lv_indev_scroll.c ****             dir_candidate = LV_DIR_VER;
 439              		.loc 1 298 27 view .LVU140
 440 0078 0494     		str	r4, [sp, #16]
 441              	.LVL41:
 299:Middlewares/lvgl/src/core/lv_indev_scroll.c ****         }
 442              		.loc 1 299 27 view .LVU141
 443 007a 0C23     		movs	r3, #12
 444 007c 0593     		str	r3, [sp, #20]
 445              	.LVL42:
 446              	.L29:
 302:Middlewares/lvgl/src/core/lv_indev_scroll.c ****                 ((left_en    && proc->types.pointer.scroll_sum.x >=  scroll_limit) ||
 447              		.loc 1 302 9 is_stmt 1 view .LVU142
 302:Middlewares/lvgl/src/core/lv_indev_scroll.c ****                 ((left_en    && proc->types.pointer.scroll_sum.x >=  scroll_limit) ||
 448              		.loc 1 302 11 is_stmt 0 view .LVU143
 449 007e 0028     		cmp	r0, #0
 450 0080 D8BF     		it	le
 451 0082 002E     		cmple	r6, #0
 452 0084 14DD     		ble	.L31
 302:Middlewares/lvgl/src/core/lv_indev_scroll.c ****                 ((left_en    && proc->types.pointer.scroll_sum.x >=  scroll_limit) ||
 453              		.loc 1 302 32 discriminator 1 view .LVU144
 454 0086 009B     		ldr	r3, [sp]
 455 0088 1BB1     		cbz	r3, .L32
 303:Middlewares/lvgl/src/core/lv_indev_scroll.c ****                         (right_en  && proc->types.pointer.scroll_sum.x <= - scroll_limit)))
 456              		.loc 1 303 63 view .LVU145
 457 008a BBF91430 		ldrsh	r3, [fp, #20]
 303:Middlewares/lvgl/src/core/lv_indev_scroll.c ****                         (right_en  && proc->types.pointer.scroll_sum.x <= - scroll_limit)))
 458              		.loc 1 303 30 view .LVU146
 459 008e 5345     		cmp	r3, r10
 460 0090 0BDA     		bge	.L52
 461              	.L32:
 303:Middlewares/lvgl/src/core/lv_indev_scroll.c ****                         (right_en  && proc->types.pointer.scroll_sum.x <= - scroll_limit)))
 462              		.loc 1 303 84 discriminator 1 view .LVU147
 463 0092 029B     		ldr	r3, [sp, #8]
 464 0094 63B1     		cbz	r3, .L31
 304:Middlewares/lvgl/src/core/lv_indev_scroll.c ****         {
 465              		.loc 1 304 69 view .LVU148
 466 0096 BBF91420 		ldrsh	r2, [fp, #20]
 304:Middlewares/lvgl/src/core/lv_indev_scroll.c ****         {
 467              		.loc 1 304 75 view .LVU149
 468 009a C9F10003 		rsb	r3, r9, #0
 304:Middlewares/lvgl/src/core/lv_indev_scroll.c ****         {
 469              		.loc 1 304 36 view .LVU150
 470 009e 9A42     		cmp	r2, r3
ARM GAS  /tmp/ccHFTBsZ.s 			page 20


 471 00a0 06DC     		bgt	.L31
 306:Middlewares/lvgl/src/core/lv_indev_scroll.c ****             dir_candidate = LV_DIR_HOR;
 472              		.loc 1 306 27 view .LVU151
 473 00a2 0494     		str	r4, [sp, #16]
 474              	.LVL43:
 307:Middlewares/lvgl/src/core/lv_indev_scroll.c ****         }
 475              		.loc 1 307 27 view .LVU152
 476 00a4 0323     		movs	r3, #3
 477 00a6 0593     		str	r3, [sp, #20]
 478              	.LVL44:
 307:Middlewares/lvgl/src/core/lv_indev_scroll.c ****         }
 479              		.loc 1 307 27 view .LVU153
 480 00a8 02E0     		b	.L31
 481              	.LVL45:
 482              	.L52:
 306:Middlewares/lvgl/src/core/lv_indev_scroll.c ****             dir_candidate = LV_DIR_HOR;
 483              		.loc 1 306 27 view .LVU154
 484 00aa 0494     		str	r4, [sp, #16]
 485              	.LVL46:
 307:Middlewares/lvgl/src/core/lv_indev_scroll.c ****         }
 486              		.loc 1 307 27 view .LVU155
 487 00ac 0323     		movs	r3, #3
 488 00ae 0593     		str	r3, [sp, #20]
 489              	.LVL47:
 490              	.L31:
 310:Middlewares/lvgl/src/core/lv_indev_scroll.c ****         if(sb <= 0) down_en = false;
 491              		.loc 1 310 9 is_stmt 1 view .LVU156
 310:Middlewares/lvgl/src/core/lv_indev_scroll.c ****         if(sb <= 0) down_en = false;
 492              		.loc 1 310 11 is_stmt 0 view .LVU157
 493 00b0 B8F1000F 		cmp	r8, #0
 494 00b4 40F38980 		ble	.L63
 495              	.LVL48:
 496              	.L33:
 311:Middlewares/lvgl/src/core/lv_indev_scroll.c ****         if(sl <= 0) left_en = false;
 497              		.loc 1 311 9 is_stmt 1 view .LVU158
 311:Middlewares/lvgl/src/core/lv_indev_scroll.c ****         if(sl <= 0) left_en = false;
 498              		.loc 1 311 11 is_stmt 0 view .LVU159
 499 00b8 002F     		cmp	r7, #0
 500 00ba 40F38980 		ble	.L64
 501              	.LVL49:
 502              	.L34:
 312:Middlewares/lvgl/src/core/lv_indev_scroll.c ****         if(sr <= 0) right_en = false;
 503              		.loc 1 312 9 is_stmt 1 view .LVU160
 312:Middlewares/lvgl/src/core/lv_indev_scroll.c ****         if(sr <= 0) right_en = false;
 504              		.loc 1 312 11 is_stmt 0 view .LVU161
 505 00be 002E     		cmp	r6, #0
 506 00c0 40F38880 		ble	.L65
 507              	.LVL50:
 508              	.L35:
 313:Middlewares/lvgl/src/core/lv_indev_scroll.c **** 
 509              		.loc 1 313 9 is_stmt 1 view .LVU162
 313:Middlewares/lvgl/src/core/lv_indev_scroll.c **** 
 510              		.loc 1 313 11 is_stmt 0 view .LVU163
 511 00c4 0028     		cmp	r0, #0
 512 00c6 40F38880 		ble	.L66
 513              	.LVL51:
 514              	.L36:
ARM GAS  /tmp/ccHFTBsZ.s 			page 21


 316:Middlewares/lvgl/src/core/lv_indev_scroll.c ****                 (right_en && proc->types.pointer.scroll_sum.x <= - scroll_limit) ||
 515              		.loc 1 316 9 is_stmt 1 view .LVU164
 316:Middlewares/lvgl/src/core/lv_indev_scroll.c ****                 (right_en && proc->types.pointer.scroll_sum.x <= - scroll_limit) ||
 516              		.loc 1 316 11 is_stmt 0 view .LVU165
 517 00ca 009B     		ldr	r3, [sp]
 518 00cc 23B1     		cbz	r3, .L37
 316:Middlewares/lvgl/src/core/lv_indev_scroll.c ****                 (right_en && proc->types.pointer.scroll_sum.x <= - scroll_limit) ||
 519              		.loc 1 316 55 discriminator 1 view .LVU166
 520 00ce BBF91430 		ldrsh	r3, [fp, #20]
 316:Middlewares/lvgl/src/core/lv_indev_scroll.c ****                 (right_en && proc->types.pointer.scroll_sum.x <= - scroll_limit) ||
 521              		.loc 1 316 22 discriminator 1 view .LVU167
 522 00d2 5345     		cmp	r3, r10
 523 00d4 80F28480 		bge	.L38
 524              	.L37:
 316:Middlewares/lvgl/src/core/lv_indev_scroll.c ****                 (right_en && proc->types.pointer.scroll_sum.x <= - scroll_limit) ||
 525              		.loc 1 316 77 discriminator 3 view .LVU168
 526 00d8 029B     		ldr	r3, [sp, #8]
 527 00da 2BB1     		cbz	r3, .L39
 317:Middlewares/lvgl/src/core/lv_indev_scroll.c ****                 (up_en    && proc->types.pointer.scroll_sum.y >=   scroll_limit) ||
 528              		.loc 1 317 60 view .LVU169
 529 00dc BBF91420 		ldrsh	r2, [fp, #20]
 317:Middlewares/lvgl/src/core/lv_indev_scroll.c ****                 (up_en    && proc->types.pointer.scroll_sum.y >=   scroll_limit) ||
 530              		.loc 1 317 66 view .LVU170
 531 00e0 C9F10003 		rsb	r3, r9, #0
 317:Middlewares/lvgl/src/core/lv_indev_scroll.c ****                 (up_en    && proc->types.pointer.scroll_sum.y >=   scroll_limit) ||
 532              		.loc 1 317 27 view .LVU171
 533 00e4 9A42     		cmp	r2, r3
 534 00e6 7BDD     		ble	.L38
 535              	.L39:
 317:Middlewares/lvgl/src/core/lv_indev_scroll.c ****                 (up_en    && proc->types.pointer.scroll_sum.y >=   scroll_limit) ||
 536              		.loc 1 317 82 discriminator 1 view .LVU172
 537 00e8 019B     		ldr	r3, [sp, #4]
 538 00ea 1BB1     		cbz	r3, .L40
 318:Middlewares/lvgl/src/core/lv_indev_scroll.c ****                 (down_en  && proc->types.pointer.scroll_sum.y <= - scroll_limit))
 539              		.loc 1 318 60 view .LVU173
 540 00ec BBF91630 		ldrsh	r3, [fp, #22]
 318:Middlewares/lvgl/src/core/lv_indev_scroll.c ****                 (down_en  && proc->types.pointer.scroll_sum.y <= - scroll_limit))
 541              		.loc 1 318 27 view .LVU174
 542 00f0 5345     		cmp	r3, r10
 543 00f2 75DA     		bge	.L38
 544              	.L40:
 318:Middlewares/lvgl/src/core/lv_indev_scroll.c ****                 (down_en  && proc->types.pointer.scroll_sum.y <= - scroll_limit))
 545              		.loc 1 318 82 discriminator 1 view .LVU175
 546 00f4 2DB1     		cbz	r5, .L41
 319:Middlewares/lvgl/src/core/lv_indev_scroll.c ****         {
 547              		.loc 1 319 60 view .LVU176
 548 00f6 BBF91620 		ldrsh	r2, [fp, #22]
 319:Middlewares/lvgl/src/core/lv_indev_scroll.c ****         {
 549              		.loc 1 319 66 view .LVU177
 550 00fa C9F10003 		rsb	r3, r9, #0
 319:Middlewares/lvgl/src/core/lv_indev_scroll.c ****         {
 551              		.loc 1 319 27 view .LVU178
 552 00fe 9A42     		cmp	r2, r3
 553 0100 6EDD     		ble	.L38
 554              	.L41:
 326:Middlewares/lvgl/src/core/lv_indev_scroll.c **** 
 555              		.loc 1 326 9 is_stmt 1 view .LVU179
ARM GAS  /tmp/ccHFTBsZ.s 			page 22


 326:Middlewares/lvgl/src/core/lv_indev_scroll.c **** 
 556              		.loc 1 326 12 is_stmt 0 view .LVU180
 557 0102 4FF48071 		mov	r1, #256
 558 0106 2046     		mov	r0, r4
 559              	.LVL52:
 326:Middlewares/lvgl/src/core/lv_indev_scroll.c **** 
 560              		.loc 1 326 12 view .LVU181
 561 0108 FFF7FEFF 		bl	lv_obj_has_flag
 562              	.LVL53:
 326:Middlewares/lvgl/src/core/lv_indev_scroll.c **** 
 563              		.loc 1 326 11 view .LVU182
 564 010c 0028     		cmp	r0, #0
 565 010e 8ED0     		beq	.L22
 329:Middlewares/lvgl/src/core/lv_indev_scroll.c ****     }
 566              		.loc 1 329 9 is_stmt 1 view .LVU183
 329:Middlewares/lvgl/src/core/lv_indev_scroll.c ****     }
 567              		.loc 1 329 19 is_stmt 0 view .LVU184
 568 0110 2046     		mov	r0, r4
 569 0112 FFF7FEFF 		bl	lv_obj_get_parent
 570              	.LVL54:
 571 0116 0446     		mov	r4, r0
 572              	.LVL55:
 573              	.L20:
 329:Middlewares/lvgl/src/core/lv_indev_scroll.c ****     }
 574              		.loc 1 329 19 view .LVU185
 575              	.LBE50:
 253:Middlewares/lvgl/src/core/lv_indev_scroll.c ****         if(lv_obj_has_flag(obj_act, LV_OBJ_FLAG_SCROLLABLE) == false) {
 576              		.loc 1 253 10 is_stmt 1 view .LVU186
 577 0118 002C     		cmp	r4, #0
 578 011a 88D0     		beq	.L22
 579              	.LBB51:
 254:Middlewares/lvgl/src/core/lv_indev_scroll.c ****             /*If this object don't want to chain the scroll ot the parent stop searching*/
 580              		.loc 1 254 9 view .LVU187
 254:Middlewares/lvgl/src/core/lv_indev_scroll.c ****             /*If this object don't want to chain the scroll ot the parent stop searching*/
 581              		.loc 1 254 12 is_stmt 0 view .LVU188
 582 011c 1021     		movs	r1, #16
 583 011e 2046     		mov	r0, r4
 584 0120 FFF7FEFF 		bl	lv_obj_has_flag
 585              	.LVL56:
 254:Middlewares/lvgl/src/core/lv_indev_scroll.c ****             /*If this object don't want to chain the scroll ot the parent stop searching*/
 586              		.loc 1 254 11 view .LVU189
 587 0124 0546     		mov	r5, r0
 588 0126 0028     		cmp	r0, #0
 589 0128 3FF47BAF 		beq	.L67
 262:Middlewares/lvgl/src/core/lv_indev_scroll.c ****         bool ver_en = false;
 590              		.loc 1 262 9 is_stmt 1 view .LVU190
 591              	.LVL57:
 263:Middlewares/lvgl/src/core/lv_indev_scroll.c ****         if(LV_ABS(proc->types.pointer.scroll_sum.x) > LV_ABS(proc->types.pointer.scroll_sum.y)) {
 592              		.loc 1 263 9 view .LVU191
 264:Middlewares/lvgl/src/core/lv_indev_scroll.c ****             hor_en = true;
 593              		.loc 1 264 9 view .LVU192
 264:Middlewares/lvgl/src/core/lv_indev_scroll.c ****             hor_en = true;
 594              		.loc 1 264 12 is_stmt 0 view .LVU193
 595 012c BBF91420 		ldrsh	r2, [fp, #20]
 596 0130 002A     		cmp	r2, #0
 597 0132 B8BF     		it	lt
 598 0134 5242     		rsblt	r2, r2, #0
ARM GAS  /tmp/ccHFTBsZ.s 			page 23


 599 0136 92B2     		uxth	r2, r2
 264:Middlewares/lvgl/src/core/lv_indev_scroll.c ****             hor_en = true;
 600              		.loc 1 264 55 view .LVU194
 601 0138 BBF91630 		ldrsh	r3, [fp, #22]
 602 013c 002B     		cmp	r3, #0
 603 013e B8BF     		it	lt
 604 0140 5B42     		rsblt	r3, r3, #0
 605 0142 9BB2     		uxth	r3, r3
 264:Middlewares/lvgl/src/core/lv_indev_scroll.c ****             hor_en = true;
 606              		.loc 1 264 11 view .LVU195
 607 0144 9A42     		cmp	r2, r3
 608 0146 8BD9     		bls	.L45
 265:Middlewares/lvgl/src/core/lv_indev_scroll.c ****         }
 609              		.loc 1 265 20 view .LVU196
 610 0148 0390     		str	r0, [sp, #12]
 263:Middlewares/lvgl/src/core/lv_indev_scroll.c ****         if(LV_ABS(proc->types.pointer.scroll_sum.x) > LV_ABS(proc->types.pointer.scroll_sum.y)) {
 611              		.loc 1 263 14 view .LVU197
 612 014a 0025     		movs	r5, #0
 613              	.L24:
 614              	.LVL58:
 272:Middlewares/lvgl/src/core/lv_indev_scroll.c ****         bool down_en = ver_en;
 615              		.loc 1 272 9 is_stmt 1 view .LVU198
 273:Middlewares/lvgl/src/core/lv_indev_scroll.c ****         bool left_en = hor_en;
 616              		.loc 1 273 9 view .LVU199
 274:Middlewares/lvgl/src/core/lv_indev_scroll.c ****         bool right_en = hor_en;
 617              		.loc 1 274 9 view .LVU200
 275:Middlewares/lvgl/src/core/lv_indev_scroll.c **** 
 618              		.loc 1 275 9 view .LVU201
 278:Middlewares/lvgl/src/core/lv_indev_scroll.c ****         if((scroll_dir & LV_DIR_LEFT) == 0) left_en = false;
 619              		.loc 1 278 9 view .LVU202
 278:Middlewares/lvgl/src/core/lv_indev_scroll.c ****         if((scroll_dir & LV_DIR_LEFT) == 0) left_en = false;
 620              		.loc 1 278 31 is_stmt 0 view .LVU203
 621 014c 2046     		mov	r0, r4
 622 014e FFF7FEFF 		bl	lv_obj_get_scroll_dir
 623              	.LVL59:
 279:Middlewares/lvgl/src/core/lv_indev_scroll.c ****         if((scroll_dir & LV_DIR_RIGHT) == 0) right_en = false;
 624              		.loc 1 279 9 is_stmt 1 view .LVU204
 279:Middlewares/lvgl/src/core/lv_indev_scroll.c ****         if((scroll_dir & LV_DIR_RIGHT) == 0) right_en = false;
 625              		.loc 1 279 11 is_stmt 0 view .LVU205
 626 0152 10F0010F 		tst	r0, #1
 627 0156 86D0     		beq	.L46
 274:Middlewares/lvgl/src/core/lv_indev_scroll.c ****         bool right_en = hor_en;
 628              		.loc 1 274 14 view .LVU206
 629 0158 039B     		ldr	r3, [sp, #12]
 630 015a 0093     		str	r3, [sp]
 631              	.L25:
 632              	.LVL60:
 280:Middlewares/lvgl/src/core/lv_indev_scroll.c ****         if((scroll_dir & LV_DIR_TOP) == 0) up_en = false;
 633              		.loc 1 280 9 is_stmt 1 view .LVU207
 280:Middlewares/lvgl/src/core/lv_indev_scroll.c ****         if((scroll_dir & LV_DIR_TOP) == 0) up_en = false;
 634              		.loc 1 280 11 is_stmt 0 view .LVU208
 635 015c 10F0020F 		tst	r0, #2
 636 0160 84D0     		beq	.L47
 275:Middlewares/lvgl/src/core/lv_indev_scroll.c **** 
 637              		.loc 1 275 14 view .LVU209
 638 0162 039B     		ldr	r3, [sp, #12]
 639 0164 0293     		str	r3, [sp, #8]
ARM GAS  /tmp/ccHFTBsZ.s 			page 24


 640              	.L26:
 641              	.LVL61:
 281:Middlewares/lvgl/src/core/lv_indev_scroll.c ****         if((scroll_dir & LV_DIR_BOTTOM) == 0) down_en = false;
 642              		.loc 1 281 9 is_stmt 1 view .LVU210
 281:Middlewares/lvgl/src/core/lv_indev_scroll.c ****         if((scroll_dir & LV_DIR_BOTTOM) == 0) down_en = false;
 643              		.loc 1 281 11 is_stmt 0 view .LVU211
 644 0166 10F0040F 		tst	r0, #4
 645 016a 82D0     		beq	.L48
 272:Middlewares/lvgl/src/core/lv_indev_scroll.c ****         bool down_en = ver_en;
 646              		.loc 1 272 14 view .LVU212
 647 016c 0195     		str	r5, [sp, #4]
 648              	.L27:
 649              	.LVL62:
 282:Middlewares/lvgl/src/core/lv_indev_scroll.c **** 
 650              		.loc 1 282 9 is_stmt 1 view .LVU213
 282:Middlewares/lvgl/src/core/lv_indev_scroll.c **** 
 651              		.loc 1 282 11 is_stmt 0 view .LVU214
 652 016e 10F0080F 		tst	r0, #8
 653 0172 00D1     		bne	.L28
 282:Middlewares/lvgl/src/core/lv_indev_scroll.c **** 
 654              		.loc 1 282 55 view .LVU215
 655 0174 0025     		movs	r5, #0
 656              	.LVL63:
 657              	.L28:
 285:Middlewares/lvgl/src/core/lv_indev_scroll.c ****         lv_coord_t sb = lv_obj_get_scroll_bottom(obj_act);
 658              		.loc 1 285 9 is_stmt 1 view .LVU216
 285:Middlewares/lvgl/src/core/lv_indev_scroll.c ****         lv_coord_t sb = lv_obj_get_scroll_bottom(obj_act);
 659              		.loc 1 285 25 is_stmt 0 view .LVU217
 660 0176 2046     		mov	r0, r4
 661              	.LVL64:
 285:Middlewares/lvgl/src/core/lv_indev_scroll.c ****         lv_coord_t sb = lv_obj_get_scroll_bottom(obj_act);
 662              		.loc 1 285 25 view .LVU218
 663 0178 FFF7FEFF 		bl	lv_obj_get_scroll_top
 664              	.LVL65:
 665 017c 8046     		mov	r8, r0
 666              	.LVL66:
 286:Middlewares/lvgl/src/core/lv_indev_scroll.c ****         lv_coord_t sl = lv_obj_get_scroll_left(obj_act);
 667              		.loc 1 286 9 is_stmt 1 view .LVU219
 286:Middlewares/lvgl/src/core/lv_indev_scroll.c ****         lv_coord_t sl = lv_obj_get_scroll_left(obj_act);
 668              		.loc 1 286 25 is_stmt 0 view .LVU220
 669 017e 2046     		mov	r0, r4
 670 0180 FFF7FEFF 		bl	lv_obj_get_scroll_bottom
 671              	.LVL67:
 672 0184 0746     		mov	r7, r0
 673              	.LVL68:
 287:Middlewares/lvgl/src/core/lv_indev_scroll.c ****         lv_coord_t sr = lv_obj_get_scroll_right(obj_act);
 674              		.loc 1 287 9 is_stmt 1 view .LVU221
 287:Middlewares/lvgl/src/core/lv_indev_scroll.c ****         lv_coord_t sr = lv_obj_get_scroll_right(obj_act);
 675              		.loc 1 287 25 is_stmt 0 view .LVU222
 676 0186 2046     		mov	r0, r4
 677 0188 FFF7FEFF 		bl	lv_obj_get_scroll_left
 678              	.LVL69:
 679 018c 0646     		mov	r6, r0
 680              	.LVL70:
 288:Middlewares/lvgl/src/core/lv_indev_scroll.c **** 
 681              		.loc 1 288 9 is_stmt 1 view .LVU223
 288:Middlewares/lvgl/src/core/lv_indev_scroll.c **** 
ARM GAS  /tmp/ccHFTBsZ.s 			page 25


 682              		.loc 1 288 25 is_stmt 0 view .LVU224
 683 018e 2046     		mov	r0, r4
 684 0190 FFF7FEFF 		bl	lv_obj_get_scroll_right
 685              	.LVL71:
 294:Middlewares/lvgl/src/core/lv_indev_scroll.c ****                 ((up_en    && proc->types.pointer.scroll_sum.y >= scroll_limit) ||
 686              		.loc 1 294 9 is_stmt 1 view .LVU225
 294:Middlewares/lvgl/src/core/lv_indev_scroll.c ****                 ((up_en    && proc->types.pointer.scroll_sum.y >= scroll_limit) ||
 687              		.loc 1 294 11 is_stmt 0 view .LVU226
 688 0194 002F     		cmp	r7, #0
 689 0196 D8BF     		it	le
 690 0198 B8F1000F 		cmple	r8, #0
 691 019c 7FF76FAF 		ble	.L29
 294:Middlewares/lvgl/src/core/lv_indev_scroll.c ****                 ((up_en    && proc->types.pointer.scroll_sum.y >= scroll_limit) ||
 692              		.loc 1 294 32 discriminator 1 view .LVU227
 693 01a0 019B     		ldr	r3, [sp, #4]
 694 01a2 23B1     		cbz	r3, .L30
 295:Middlewares/lvgl/src/core/lv_indev_scroll.c ****                         (down_en  && proc->types.pointer.scroll_sum.y <= - scroll_limit)))
 695              		.loc 1 295 61 view .LVU228
 696 01a4 BBF91630 		ldrsh	r3, [fp, #22]
 295:Middlewares/lvgl/src/core/lv_indev_scroll.c ****                         (down_en  && proc->types.pointer.scroll_sum.y <= - scroll_limit)))
 697              		.loc 1 295 28 view .LVU229
 698 01a8 5345     		cmp	r3, r10
 699 01aa BFF665AF 		bge	.L50
 700              	.L30:
 295:Middlewares/lvgl/src/core/lv_indev_scroll.c ****                         (down_en  && proc->types.pointer.scroll_sum.y <= - scroll_limit)))
 701              		.loc 1 295 81 discriminator 1 view .LVU230
 702 01ae 002D     		cmp	r5, #0
 703 01b0 3FF465AF 		beq	.L29
 296:Middlewares/lvgl/src/core/lv_indev_scroll.c ****         {
 704              		.loc 1 296 68 view .LVU231
 705 01b4 BBF91620 		ldrsh	r2, [fp, #22]
 296:Middlewares/lvgl/src/core/lv_indev_scroll.c ****         {
 706              		.loc 1 296 74 view .LVU232
 707 01b8 C9F10003 		rsb	r3, r9, #0
 296:Middlewares/lvgl/src/core/lv_indev_scroll.c ****         {
 708              		.loc 1 296 35 view .LVU233
 709 01bc 9A42     		cmp	r2, r3
 710 01be 3FF75EAF 		bgt	.L29
 298:Middlewares/lvgl/src/core/lv_indev_scroll.c ****             dir_candidate = LV_DIR_VER;
 711              		.loc 1 298 27 view .LVU234
 712 01c2 0494     		str	r4, [sp, #16]
 713              	.LVL72:
 299:Middlewares/lvgl/src/core/lv_indev_scroll.c ****         }
 714              		.loc 1 299 27 view .LVU235
 715 01c4 0C23     		movs	r3, #12
 716 01c6 0593     		str	r3, [sp, #20]
 717              	.LVL73:
 299:Middlewares/lvgl/src/core/lv_indev_scroll.c ****         }
 718              		.loc 1 299 27 view .LVU236
 719 01c8 59E7     		b	.L29
 720              	.LVL74:
 721              	.L63:
 310:Middlewares/lvgl/src/core/lv_indev_scroll.c ****         if(sb <= 0) down_en = false;
 722              		.loc 1 310 27 view .LVU237
 723 01ca 0023     		movs	r3, #0
 724 01cc 0193     		str	r3, [sp, #4]
 725              	.LVL75:
ARM GAS  /tmp/ccHFTBsZ.s 			page 26


 310:Middlewares/lvgl/src/core/lv_indev_scroll.c ****         if(sb <= 0) down_en = false;
 726              		.loc 1 310 27 view .LVU238
 727 01ce 73E7     		b	.L33
 728              	.LVL76:
 729              	.L64:
 311:Middlewares/lvgl/src/core/lv_indev_scroll.c ****         if(sl <= 0) left_en = false;
 730              		.loc 1 311 29 view .LVU239
 731 01d0 0025     		movs	r5, #0
 732              	.LVL77:
 311:Middlewares/lvgl/src/core/lv_indev_scroll.c ****         if(sl <= 0) left_en = false;
 733              		.loc 1 311 29 view .LVU240
 734 01d2 74E7     		b	.L34
 735              	.LVL78:
 736              	.L65:
 312:Middlewares/lvgl/src/core/lv_indev_scroll.c ****         if(sr <= 0) right_en = false;
 737              		.loc 1 312 29 view .LVU241
 738 01d4 0023     		movs	r3, #0
 739 01d6 0093     		str	r3, [sp]
 740              	.LVL79:
 312:Middlewares/lvgl/src/core/lv_indev_scroll.c ****         if(sr <= 0) right_en = false;
 741              		.loc 1 312 29 view .LVU242
 742 01d8 74E7     		b	.L35
 743              	.LVL80:
 744              	.L66:
 313:Middlewares/lvgl/src/core/lv_indev_scroll.c **** 
 745              		.loc 1 313 30 view .LVU243
 746 01da 0023     		movs	r3, #0
 747 01dc 0293     		str	r3, [sp, #8]
 748              	.LVL81:
 313:Middlewares/lvgl/src/core/lv_indev_scroll.c **** 
 749              		.loc 1 313 30 view .LVU244
 750 01de 74E7     		b	.L36
 751              	.LVL82:
 752              	.L38:
 321:Middlewares/lvgl/src/core/lv_indev_scroll.c ****             break;
 753              		.loc 1 321 13 is_stmt 1 view .LVU245
 321:Middlewares/lvgl/src/core/lv_indev_scroll.c ****             break;
 754              		.loc 1 321 66 is_stmt 0 view .LVU246
 755 01e0 039B     		ldr	r3, [sp, #12]
 756 01e2 3BB1     		cbz	r3, .L58
 757 01e4 0322     		movs	r2, #3
 758              	.L42:
 321:Middlewares/lvgl/src/core/lv_indev_scroll.c ****             break;
 759              		.loc 1 321 44 discriminator 4 view .LVU247
 760 01e6 9BF83C30 		ldrb	r3, [fp, #60]	@ zero_extendqisi2
 761 01ea 62F30303 		bfi	r3, r2, #0, #4
 762 01ee 8BF83C30 		strb	r3, [fp, #60]
 322:Middlewares/lvgl/src/core/lv_indev_scroll.c ****         }
 763              		.loc 1 322 13 is_stmt 1 discriminator 4 view .LVU248
 764 01f2 1CE7     		b	.L22
 765              	.L58:
 321:Middlewares/lvgl/src/core/lv_indev_scroll.c ****             break;
 766              		.loc 1 321 66 is_stmt 0 view .LVU249
 767 01f4 0C22     		movs	r2, #12
 768 01f6 F6E7     		b	.L42
 769              	.LBE51:
 770              		.cfi_endproc
ARM GAS  /tmp/ccHFTBsZ.s 			page 27


 771              	.LFE151:
 773              		.section	.text.find_snap_point_y,"ax",%progbits
 774              		.align	1
 775              		.syntax unified
 776              		.thumb
 777              		.thumb_func
 779              	find_snap_point_y:
 780              	.LVL83:
 781              	.LFB154:
 467:Middlewares/lvgl/src/core/lv_indev_scroll.c ****     lv_scroll_snap_t align = lv_obj_get_scroll_snap_y(obj);
 782              		.loc 1 467 1 is_stmt 1 view -0
 783              		.cfi_startproc
 784              		@ args = 0, pretend = 0, frame = 24
 785              		@ frame_needed = 0, uses_anonymous_args = 0
 467:Middlewares/lvgl/src/core/lv_indev_scroll.c ****     lv_scroll_snap_t align = lv_obj_get_scroll_snap_y(obj);
 786              		.loc 1 467 1 is_stmt 0 view .LVU251
 787 0000 2DE9F04F 		push	{r4, r5, r6, r7, r8, r9, r10, fp, lr}
 788              	.LCFI7:
 789              		.cfi_def_cfa_offset 36
 790              		.cfi_offset 4, -36
 791              		.cfi_offset 5, -32
 792              		.cfi_offset 6, -28
 793              		.cfi_offset 7, -24
 794              		.cfi_offset 8, -20
 795              		.cfi_offset 9, -16
 796              		.cfi_offset 10, -12
 797              		.cfi_offset 11, -8
 798              		.cfi_offset 14, -4
 799 0004 87B0     		sub	sp, sp, #28
 800              	.LCFI8:
 801              		.cfi_def_cfa_offset 64
 802 0006 0646     		mov	r6, r0
 803 0008 0191     		str	r1, [sp, #4]
 804 000a 9246     		mov	r10, r2
 805 000c 9B46     		mov	fp, r3
 468:Middlewares/lvgl/src/core/lv_indev_scroll.c ****     if(align == LV_SCROLL_SNAP_NONE) return 0;
 806              		.loc 1 468 5 is_stmt 1 view .LVU252
 468:Middlewares/lvgl/src/core/lv_indev_scroll.c ****     if(align == LV_SCROLL_SNAP_NONE) return 0;
 807              		.loc 1 468 30 is_stmt 0 view .LVU253
 808 000e FFF7FEFF 		bl	lv_obj_get_scroll_snap_y
 809              	.LVL84:
 469:Middlewares/lvgl/src/core/lv_indev_scroll.c **** 
 810              		.loc 1 469 5 is_stmt 1 view .LVU254
 469:Middlewares/lvgl/src/core/lv_indev_scroll.c **** 
 811              		.loc 1 469 7 is_stmt 0 view .LVU255
 812 0012 18B9     		cbnz	r0, .L82
 469:Middlewares/lvgl/src/core/lv_indev_scroll.c **** 
 813              		.loc 1 469 45 view .LVU256
 814 0014 0020     		movs	r0, #0
 815              	.LVL85:
 816              	.L69:
 510:Middlewares/lvgl/src/core/lv_indev_scroll.c **** 
 817              		.loc 1 510 1 view .LVU257
 818 0016 07B0     		add	sp, sp, #28
 819              	.LCFI9:
 820              		.cfi_remember_state
 821              		.cfi_def_cfa_offset 36
ARM GAS  /tmp/ccHFTBsZ.s 			page 28


 822              		@ sp needed
 823 0018 BDE8F08F 		pop	{r4, r5, r6, r7, r8, r9, r10, fp, pc}
 824              	.LVL86:
 825              	.L82:
 826              	.LCFI10:
 827              		.cfi_restore_state
 510:Middlewares/lvgl/src/core/lv_indev_scroll.c **** 
 828              		.loc 1 510 1 view .LVU258
 829 001c 8146     		mov	r9, r0
 471:Middlewares/lvgl/src/core/lv_indev_scroll.c **** 
 830              		.loc 1 471 5 is_stmt 1 view .LVU259
 831              	.LVL87:
 473:Middlewares/lvgl/src/core/lv_indev_scroll.c ****     lv_coord_t pad_bottom = lv_obj_get_style_pad_bottom(obj, LV_PART_MAIN);
 832              		.loc 1 473 5 view .LVU260
 833              	.LBB52:
 834              	.LBI52:
 835              		.file 2 "Middlewares/lvgl/src/core/lv_obj_style_gen.h"
   1:Middlewares/lvgl/src/core/lv_obj_style_gen.h **** static inline lv_coord_t lv_obj_get_style_width(const struct _lv_obj_t * obj, uint32_t part)
   2:Middlewares/lvgl/src/core/lv_obj_style_gen.h **** {
   3:Middlewares/lvgl/src/core/lv_obj_style_gen.h ****     lv_style_value_t v = lv_obj_get_style_prop(obj, part, LV_STYLE_WIDTH);
   4:Middlewares/lvgl/src/core/lv_obj_style_gen.h ****     return (lv_coord_t)v.num;
   5:Middlewares/lvgl/src/core/lv_obj_style_gen.h **** }
   6:Middlewares/lvgl/src/core/lv_obj_style_gen.h **** 
   7:Middlewares/lvgl/src/core/lv_obj_style_gen.h **** static inline lv_coord_t lv_obj_get_style_min_width(const struct _lv_obj_t * obj, uint32_t part)
   8:Middlewares/lvgl/src/core/lv_obj_style_gen.h **** {
   9:Middlewares/lvgl/src/core/lv_obj_style_gen.h ****     lv_style_value_t v = lv_obj_get_style_prop(obj, part, LV_STYLE_MIN_WIDTH);
  10:Middlewares/lvgl/src/core/lv_obj_style_gen.h ****     return (lv_coord_t)v.num;
  11:Middlewares/lvgl/src/core/lv_obj_style_gen.h **** }
  12:Middlewares/lvgl/src/core/lv_obj_style_gen.h **** 
  13:Middlewares/lvgl/src/core/lv_obj_style_gen.h **** static inline lv_coord_t lv_obj_get_style_max_width(const struct _lv_obj_t * obj, uint32_t part)
  14:Middlewares/lvgl/src/core/lv_obj_style_gen.h **** {
  15:Middlewares/lvgl/src/core/lv_obj_style_gen.h ****     lv_style_value_t v = lv_obj_get_style_prop(obj, part, LV_STYLE_MAX_WIDTH);
  16:Middlewares/lvgl/src/core/lv_obj_style_gen.h ****     return (lv_coord_t)v.num;
  17:Middlewares/lvgl/src/core/lv_obj_style_gen.h **** }
  18:Middlewares/lvgl/src/core/lv_obj_style_gen.h **** 
  19:Middlewares/lvgl/src/core/lv_obj_style_gen.h **** static inline lv_coord_t lv_obj_get_style_height(const struct _lv_obj_t * obj, uint32_t part)
  20:Middlewares/lvgl/src/core/lv_obj_style_gen.h **** {
  21:Middlewares/lvgl/src/core/lv_obj_style_gen.h ****     lv_style_value_t v = lv_obj_get_style_prop(obj, part, LV_STYLE_HEIGHT);
  22:Middlewares/lvgl/src/core/lv_obj_style_gen.h ****     return (lv_coord_t)v.num;
  23:Middlewares/lvgl/src/core/lv_obj_style_gen.h **** }
  24:Middlewares/lvgl/src/core/lv_obj_style_gen.h **** 
  25:Middlewares/lvgl/src/core/lv_obj_style_gen.h **** static inline lv_coord_t lv_obj_get_style_min_height(const struct _lv_obj_t * obj, uint32_t part)
  26:Middlewares/lvgl/src/core/lv_obj_style_gen.h **** {
  27:Middlewares/lvgl/src/core/lv_obj_style_gen.h ****     lv_style_value_t v = lv_obj_get_style_prop(obj, part, LV_STYLE_MIN_HEIGHT);
  28:Middlewares/lvgl/src/core/lv_obj_style_gen.h ****     return (lv_coord_t)v.num;
  29:Middlewares/lvgl/src/core/lv_obj_style_gen.h **** }
  30:Middlewares/lvgl/src/core/lv_obj_style_gen.h **** 
  31:Middlewares/lvgl/src/core/lv_obj_style_gen.h **** static inline lv_coord_t lv_obj_get_style_max_height(const struct _lv_obj_t * obj, uint32_t part)
  32:Middlewares/lvgl/src/core/lv_obj_style_gen.h **** {
  33:Middlewares/lvgl/src/core/lv_obj_style_gen.h ****     lv_style_value_t v = lv_obj_get_style_prop(obj, part, LV_STYLE_MAX_HEIGHT);
  34:Middlewares/lvgl/src/core/lv_obj_style_gen.h ****     return (lv_coord_t)v.num;
  35:Middlewares/lvgl/src/core/lv_obj_style_gen.h **** }
  36:Middlewares/lvgl/src/core/lv_obj_style_gen.h **** 
  37:Middlewares/lvgl/src/core/lv_obj_style_gen.h **** static inline lv_coord_t lv_obj_get_style_x(const struct _lv_obj_t * obj, uint32_t part)
  38:Middlewares/lvgl/src/core/lv_obj_style_gen.h **** {
  39:Middlewares/lvgl/src/core/lv_obj_style_gen.h ****     lv_style_value_t v = lv_obj_get_style_prop(obj, part, LV_STYLE_X);
  40:Middlewares/lvgl/src/core/lv_obj_style_gen.h ****     return (lv_coord_t)v.num;
ARM GAS  /tmp/ccHFTBsZ.s 			page 29


  41:Middlewares/lvgl/src/core/lv_obj_style_gen.h **** }
  42:Middlewares/lvgl/src/core/lv_obj_style_gen.h **** 
  43:Middlewares/lvgl/src/core/lv_obj_style_gen.h **** static inline lv_coord_t lv_obj_get_style_y(const struct _lv_obj_t * obj, uint32_t part)
  44:Middlewares/lvgl/src/core/lv_obj_style_gen.h **** {
  45:Middlewares/lvgl/src/core/lv_obj_style_gen.h ****     lv_style_value_t v = lv_obj_get_style_prop(obj, part, LV_STYLE_Y);
  46:Middlewares/lvgl/src/core/lv_obj_style_gen.h ****     return (lv_coord_t)v.num;
  47:Middlewares/lvgl/src/core/lv_obj_style_gen.h **** }
  48:Middlewares/lvgl/src/core/lv_obj_style_gen.h **** 
  49:Middlewares/lvgl/src/core/lv_obj_style_gen.h **** static inline lv_align_t lv_obj_get_style_align(const struct _lv_obj_t * obj, uint32_t part)
  50:Middlewares/lvgl/src/core/lv_obj_style_gen.h **** {
  51:Middlewares/lvgl/src/core/lv_obj_style_gen.h ****     lv_style_value_t v = lv_obj_get_style_prop(obj, part, LV_STYLE_ALIGN);
  52:Middlewares/lvgl/src/core/lv_obj_style_gen.h ****     return (lv_align_t)v.num;
  53:Middlewares/lvgl/src/core/lv_obj_style_gen.h **** }
  54:Middlewares/lvgl/src/core/lv_obj_style_gen.h **** 
  55:Middlewares/lvgl/src/core/lv_obj_style_gen.h **** static inline lv_coord_t lv_obj_get_style_transform_width(const struct _lv_obj_t * obj, uint32_t pa
  56:Middlewares/lvgl/src/core/lv_obj_style_gen.h **** {
  57:Middlewares/lvgl/src/core/lv_obj_style_gen.h ****     lv_style_value_t v = lv_obj_get_style_prop(obj, part, LV_STYLE_TRANSFORM_WIDTH);
  58:Middlewares/lvgl/src/core/lv_obj_style_gen.h ****     return (lv_coord_t)v.num;
  59:Middlewares/lvgl/src/core/lv_obj_style_gen.h **** }
  60:Middlewares/lvgl/src/core/lv_obj_style_gen.h **** 
  61:Middlewares/lvgl/src/core/lv_obj_style_gen.h **** static inline lv_coord_t lv_obj_get_style_transform_height(const struct _lv_obj_t * obj, uint32_t p
  62:Middlewares/lvgl/src/core/lv_obj_style_gen.h **** {
  63:Middlewares/lvgl/src/core/lv_obj_style_gen.h ****     lv_style_value_t v = lv_obj_get_style_prop(obj, part, LV_STYLE_TRANSFORM_HEIGHT);
  64:Middlewares/lvgl/src/core/lv_obj_style_gen.h ****     return (lv_coord_t)v.num;
  65:Middlewares/lvgl/src/core/lv_obj_style_gen.h **** }
  66:Middlewares/lvgl/src/core/lv_obj_style_gen.h **** 
  67:Middlewares/lvgl/src/core/lv_obj_style_gen.h **** static inline lv_coord_t lv_obj_get_style_translate_x(const struct _lv_obj_t * obj, uint32_t part)
  68:Middlewares/lvgl/src/core/lv_obj_style_gen.h **** {
  69:Middlewares/lvgl/src/core/lv_obj_style_gen.h ****     lv_style_value_t v = lv_obj_get_style_prop(obj, part, LV_STYLE_TRANSLATE_X);
  70:Middlewares/lvgl/src/core/lv_obj_style_gen.h ****     return (lv_coord_t)v.num;
  71:Middlewares/lvgl/src/core/lv_obj_style_gen.h **** }
  72:Middlewares/lvgl/src/core/lv_obj_style_gen.h **** 
  73:Middlewares/lvgl/src/core/lv_obj_style_gen.h **** static inline lv_coord_t lv_obj_get_style_translate_y(const struct _lv_obj_t * obj, uint32_t part)
  74:Middlewares/lvgl/src/core/lv_obj_style_gen.h **** {
  75:Middlewares/lvgl/src/core/lv_obj_style_gen.h ****     lv_style_value_t v = lv_obj_get_style_prop(obj, part, LV_STYLE_TRANSLATE_Y);
  76:Middlewares/lvgl/src/core/lv_obj_style_gen.h ****     return (lv_coord_t)v.num;
  77:Middlewares/lvgl/src/core/lv_obj_style_gen.h **** }
  78:Middlewares/lvgl/src/core/lv_obj_style_gen.h **** 
  79:Middlewares/lvgl/src/core/lv_obj_style_gen.h **** static inline lv_coord_t lv_obj_get_style_transform_zoom(const struct _lv_obj_t * obj, uint32_t par
  80:Middlewares/lvgl/src/core/lv_obj_style_gen.h **** {
  81:Middlewares/lvgl/src/core/lv_obj_style_gen.h ****     lv_style_value_t v = lv_obj_get_style_prop(obj, part, LV_STYLE_TRANSFORM_ZOOM);
  82:Middlewares/lvgl/src/core/lv_obj_style_gen.h ****     return (lv_coord_t)v.num;
  83:Middlewares/lvgl/src/core/lv_obj_style_gen.h **** }
  84:Middlewares/lvgl/src/core/lv_obj_style_gen.h **** 
  85:Middlewares/lvgl/src/core/lv_obj_style_gen.h **** static inline lv_coord_t lv_obj_get_style_transform_angle(const struct _lv_obj_t * obj, uint32_t pa
  86:Middlewares/lvgl/src/core/lv_obj_style_gen.h **** {
  87:Middlewares/lvgl/src/core/lv_obj_style_gen.h ****     lv_style_value_t v = lv_obj_get_style_prop(obj, part, LV_STYLE_TRANSFORM_ANGLE);
  88:Middlewares/lvgl/src/core/lv_obj_style_gen.h ****     return (lv_coord_t)v.num;
  89:Middlewares/lvgl/src/core/lv_obj_style_gen.h **** }
  90:Middlewares/lvgl/src/core/lv_obj_style_gen.h **** 
  91:Middlewares/lvgl/src/core/lv_obj_style_gen.h **** static inline lv_coord_t lv_obj_get_style_pad_top(const struct _lv_obj_t * obj, uint32_t part)
 836              		.loc 2 91 26 view .LVU261
 837              	.LBB53:
  92:Middlewares/lvgl/src/core/lv_obj_style_gen.h **** {
  93:Middlewares/lvgl/src/core/lv_obj_style_gen.h ****     lv_style_value_t v = lv_obj_get_style_prop(obj, part, LV_STYLE_PAD_TOP);
 838              		.loc 2 93 5 view .LVU262
 839              		.loc 2 93 26 is_stmt 0 view .LVU263
ARM GAS  /tmp/ccHFTBsZ.s 			page 30


 840 001e 41F21002 		movw	r2, #4112
 841 0022 0021     		movs	r1, #0
 842 0024 3046     		mov	r0, r6
 843              	.LVL88:
 844              		.loc 2 93 26 view .LVU264
 845 0026 FFF7FEFF 		bl	lv_obj_get_style_prop
 846              	.LVL89:
 847 002a 0290     		str	r0, [sp, #8]
  94:Middlewares/lvgl/src/core/lv_obj_style_gen.h ****     return (lv_coord_t)v.num;
 848              		.loc 2 94 5 is_stmt 1 view .LVU265
 849              		.loc 2 94 12 is_stmt 0 view .LVU266
 850 002c 03B2     		sxth	r3, r0
 851 002e 0593     		str	r3, [sp, #20]
 852              	.LVL90:
 853              		.loc 2 94 12 view .LVU267
 854              	.LBE53:
 855              	.LBE52:
 474:Middlewares/lvgl/src/core/lv_indev_scroll.c **** 
 856              		.loc 1 474 5 is_stmt 1 view .LVU268
 857              	.LBB54:
 858              	.LBI54:
  95:Middlewares/lvgl/src/core/lv_obj_style_gen.h **** }
  96:Middlewares/lvgl/src/core/lv_obj_style_gen.h **** 
  97:Middlewares/lvgl/src/core/lv_obj_style_gen.h **** static inline lv_coord_t lv_obj_get_style_pad_bottom(const struct _lv_obj_t * obj, uint32_t part)
 859              		.loc 2 97 26 view .LVU269
 860              	.LBB55:
  98:Middlewares/lvgl/src/core/lv_obj_style_gen.h **** {
  99:Middlewares/lvgl/src/core/lv_obj_style_gen.h ****     lv_style_value_t v = lv_obj_get_style_prop(obj, part, LV_STYLE_PAD_BOTTOM);
 861              		.loc 2 99 5 view .LVU270
 862              		.loc 2 99 26 is_stmt 0 view .LVU271
 863 0030 41F21102 		movw	r2, #4113
 864 0034 0021     		movs	r1, #0
 865 0036 3046     		mov	r0, r6
 866 0038 FFF7FEFF 		bl	lv_obj_get_style_prop
 867              	.LVL91:
 868 003c 0490     		str	r0, [sp, #16]
 100:Middlewares/lvgl/src/core/lv_obj_style_gen.h ****     return (lv_coord_t)v.num;
 869              		.loc 2 100 5 is_stmt 1 view .LVU272
 870              		.loc 2 100 12 is_stmt 0 view .LVU273
 871 003e 03B2     		sxth	r3, r0
 872 0040 0393     		str	r3, [sp, #12]
 873              	.LVL92:
 874              		.loc 2 100 12 view .LVU274
 875              	.LBE55:
 876              	.LBE54:
 476:Middlewares/lvgl/src/core/lv_indev_scroll.c ****     uint32_t child_cnt = lv_obj_get_child_cnt(obj);
 877              		.loc 1 476 5 is_stmt 1 view .LVU275
 477:Middlewares/lvgl/src/core/lv_indev_scroll.c ****     for(i = 0; i < child_cnt; i++) {
 878              		.loc 1 477 5 view .LVU276
 477:Middlewares/lvgl/src/core/lv_indev_scroll.c ****     for(i = 0; i < child_cnt; i++) {
 879              		.loc 1 477 26 is_stmt 0 view .LVU277
 880 0042 3046     		mov	r0, r6
 881 0044 FFF7FEFF 		bl	lv_obj_get_child_cnt
 882              	.LVL93:
 883 0048 0746     		mov	r7, r0
 884              	.LVL94:
 478:Middlewares/lvgl/src/core/lv_indev_scroll.c ****         lv_obj_t * child = lv_obj_get_child(obj, i);
ARM GAS  /tmp/ccHFTBsZ.s 			page 31


 885              		.loc 1 478 5 is_stmt 1 view .LVU278
 478:Middlewares/lvgl/src/core/lv_indev_scroll.c ****         lv_obj_t * child = lv_obj_get_child(obj, i);
 886              		.loc 1 478 11 is_stmt 0 view .LVU279
 887 004a 0024     		movs	r4, #0
 471:Middlewares/lvgl/src/core/lv_indev_scroll.c **** 
 888              		.loc 1 471 16 view .LVU280
 889 004c 4FF4C048 		mov	r8, #24576
 478:Middlewares/lvgl/src/core/lv_indev_scroll.c ****         lv_obj_t * child = lv_obj_get_child(obj, i);
 890              		.loc 1 478 5 view .LVU281
 891 0050 28E0     		b	.L70
 892              	.LVL95:
 893              	.L72:
 894              	.LBB56:
 895              	.LBB57:
 490:Middlewares/lvgl/src/core/lv_indev_scroll.c ****                 y_parent = obj->coords.y2 - pad_bottom;
 896              		.loc 1 490 17 is_stmt 1 view .LVU282
 490:Middlewares/lvgl/src/core/lv_indev_scroll.c ****                 y_parent = obj->coords.y2 - pad_bottom;
 897              		.loc 1 490 25 is_stmt 0 view .LVU283
 898 0052 B5F91A30 		ldrsh	r3, [r5, #26]
 899              	.LVL96:
 491:Middlewares/lvgl/src/core/lv_indev_scroll.c ****                 break;
 900              		.loc 1 491 17 is_stmt 1 view .LVU284
 491:Middlewares/lvgl/src/core/lv_indev_scroll.c ****                 break;
 901              		.loc 1 491 39 is_stmt 0 view .LVU285
 902 0056 728B     		ldrh	r2, [r6, #26]
 491:Middlewares/lvgl/src/core/lv_indev_scroll.c ****                 break;
 903              		.loc 1 491 43 view .LVU286
 904 0058 0499     		ldr	r1, [sp, #16]
 905 005a 521A     		subs	r2, r2, r1
 491:Middlewares/lvgl/src/core/lv_indev_scroll.c ****                 break;
 906              		.loc 1 491 26 view .LVU287
 907 005c 12B2     		sxth	r2, r2
 908              	.LVL97:
 492:Middlewares/lvgl/src/core/lv_indev_scroll.c ****             case LV_SCROLL_SNAP_CENTER:
 909              		.loc 1 492 17 is_stmt 1 view .LVU288
 910 005e 44E0     		b	.L74
 911              	.LVL98:
 912              	.L73:
 494:Middlewares/lvgl/src/core/lv_indev_scroll.c ****                 y_parent = obj->coords.y1 + pad_top + (lv_area_get_height(&obj->coords) - pad_top -
 913              		.loc 1 494 17 view .LVU289
 494:Middlewares/lvgl/src/core/lv_indev_scroll.c ****                 y_parent = obj->coords.y1 + pad_top + (lv_area_get_height(&obj->coords) - pad_top -
 914              		.loc 1 494 40 is_stmt 0 view .LVU290
 915 0060 EA8A     		ldrh	r2, [r5, #22]
 916              	.LVL99:
 917              	.LBB58:
 918              	.LBI58:
 919              		.file 3 "Middlewares/lvgl/src/core/../misc/../font/../misc/lv_area.h"
   1:Middlewares/lvgl/src/core/../misc/../font/../misc/lv_area.h **** /**
   2:Middlewares/lvgl/src/core/../misc/../font/../misc/lv_area.h ****  * @file lv_area.h
   3:Middlewares/lvgl/src/core/../misc/../font/../misc/lv_area.h ****  *
   4:Middlewares/lvgl/src/core/../misc/../font/../misc/lv_area.h ****  */
   5:Middlewares/lvgl/src/core/../misc/../font/../misc/lv_area.h **** 
   6:Middlewares/lvgl/src/core/../misc/../font/../misc/lv_area.h **** #ifndef LV_AREA_H
   7:Middlewares/lvgl/src/core/../misc/../font/../misc/lv_area.h **** #define LV_AREA_H
   8:Middlewares/lvgl/src/core/../misc/../font/../misc/lv_area.h **** 
   9:Middlewares/lvgl/src/core/../misc/../font/../misc/lv_area.h **** #ifdef __cplusplus
  10:Middlewares/lvgl/src/core/../misc/../font/../misc/lv_area.h **** extern "C" {
ARM GAS  /tmp/ccHFTBsZ.s 			page 32


  11:Middlewares/lvgl/src/core/../misc/../font/../misc/lv_area.h **** #endif
  12:Middlewares/lvgl/src/core/../misc/../font/../misc/lv_area.h **** 
  13:Middlewares/lvgl/src/core/../misc/../font/../misc/lv_area.h **** /*********************
  14:Middlewares/lvgl/src/core/../misc/../font/../misc/lv_area.h ****  *      INCLUDES
  15:Middlewares/lvgl/src/core/../misc/../font/../misc/lv_area.h ****  *********************/
  16:Middlewares/lvgl/src/core/../misc/../font/../misc/lv_area.h **** #include "../lv_conf_internal.h"
  17:Middlewares/lvgl/src/core/../misc/../font/../misc/lv_area.h **** #include <string.h>
  18:Middlewares/lvgl/src/core/../misc/../font/../misc/lv_area.h **** #include <stdbool.h>
  19:Middlewares/lvgl/src/core/../misc/../font/../misc/lv_area.h **** #include <stdint.h>
  20:Middlewares/lvgl/src/core/../misc/../font/../misc/lv_area.h **** 
  21:Middlewares/lvgl/src/core/../misc/../font/../misc/lv_area.h **** /*********************
  22:Middlewares/lvgl/src/core/../misc/../font/../misc/lv_area.h ****  *      DEFINES
  23:Middlewares/lvgl/src/core/../misc/../font/../misc/lv_area.h ****  *********************/
  24:Middlewares/lvgl/src/core/../misc/../font/../misc/lv_area.h **** 
  25:Middlewares/lvgl/src/core/../misc/../font/../misc/lv_area.h **** #define _LV_COORD_MAX_REDUCE    8192
  26:Middlewares/lvgl/src/core/../misc/../font/../misc/lv_area.h **** 
  27:Middlewares/lvgl/src/core/../misc/../font/../misc/lv_area.h **** #if LV_USE_LARGE_COORD
  28:Middlewares/lvgl/src/core/../misc/../font/../misc/lv_area.h **** typedef int32_t lv_coord_t;
  29:Middlewares/lvgl/src/core/../misc/../font/../misc/lv_area.h **** #else
  30:Middlewares/lvgl/src/core/../misc/../font/../misc/lv_area.h **** typedef int16_t lv_coord_t;
  31:Middlewares/lvgl/src/core/../misc/../font/../misc/lv_area.h **** #endif
  32:Middlewares/lvgl/src/core/../misc/../font/../misc/lv_area.h **** 
  33:Middlewares/lvgl/src/core/../misc/../font/../misc/lv_area.h **** /*To allow some special values in the end reduce the max value*/
  34:Middlewares/lvgl/src/core/../misc/../font/../misc/lv_area.h **** #define LV_COORD_MAX ((lv_coord_t)((uint32_t)((uint32_t)1 << (8 * sizeof(lv_coord_t) - 1)) - _LV_CO
  35:Middlewares/lvgl/src/core/../misc/../font/../misc/lv_area.h **** #define LV_COORD_MIN (-LV_COORD_MAX)
  36:Middlewares/lvgl/src/core/../misc/../font/../misc/lv_area.h **** 
  37:Middlewares/lvgl/src/core/../misc/../font/../misc/lv_area.h **** LV_EXPORT_CONST_INT(LV_COORD_MAX);
  38:Middlewares/lvgl/src/core/../misc/../font/../misc/lv_area.h **** LV_EXPORT_CONST_INT(LV_COORD_MIN);
  39:Middlewares/lvgl/src/core/../misc/../font/../misc/lv_area.h **** 
  40:Middlewares/lvgl/src/core/../misc/../font/../misc/lv_area.h **** /**********************
  41:Middlewares/lvgl/src/core/../misc/../font/../misc/lv_area.h ****  *      TYPEDEFS
  42:Middlewares/lvgl/src/core/../misc/../font/../misc/lv_area.h ****  **********************/
  43:Middlewares/lvgl/src/core/../misc/../font/../misc/lv_area.h **** 
  44:Middlewares/lvgl/src/core/../misc/../font/../misc/lv_area.h **** /**
  45:Middlewares/lvgl/src/core/../misc/../font/../misc/lv_area.h ****  * Represents a point on the screen.
  46:Middlewares/lvgl/src/core/../misc/../font/../misc/lv_area.h ****  */
  47:Middlewares/lvgl/src/core/../misc/../font/../misc/lv_area.h **** typedef struct {
  48:Middlewares/lvgl/src/core/../misc/../font/../misc/lv_area.h ****     lv_coord_t x;
  49:Middlewares/lvgl/src/core/../misc/../font/../misc/lv_area.h ****     lv_coord_t y;
  50:Middlewares/lvgl/src/core/../misc/../font/../misc/lv_area.h **** } lv_point_t;
  51:Middlewares/lvgl/src/core/../misc/../font/../misc/lv_area.h **** 
  52:Middlewares/lvgl/src/core/../misc/../font/../misc/lv_area.h **** /** Represents an area of the screen.*/
  53:Middlewares/lvgl/src/core/../misc/../font/../misc/lv_area.h **** typedef struct {
  54:Middlewares/lvgl/src/core/../misc/../font/../misc/lv_area.h ****     lv_coord_t x1;
  55:Middlewares/lvgl/src/core/../misc/../font/../misc/lv_area.h ****     lv_coord_t y1;
  56:Middlewares/lvgl/src/core/../misc/../font/../misc/lv_area.h ****     lv_coord_t x2;
  57:Middlewares/lvgl/src/core/../misc/../font/../misc/lv_area.h ****     lv_coord_t y2;
  58:Middlewares/lvgl/src/core/../misc/../font/../misc/lv_area.h **** } lv_area_t;
  59:Middlewares/lvgl/src/core/../misc/../font/../misc/lv_area.h **** 
  60:Middlewares/lvgl/src/core/../misc/../font/../misc/lv_area.h **** /** Alignments*/
  61:Middlewares/lvgl/src/core/../misc/../font/../misc/lv_area.h **** enum {
  62:Middlewares/lvgl/src/core/../misc/../font/../misc/lv_area.h ****     LV_ALIGN_DEFAULT = 0,
  63:Middlewares/lvgl/src/core/../misc/../font/../misc/lv_area.h ****     LV_ALIGN_TOP_LEFT,
  64:Middlewares/lvgl/src/core/../misc/../font/../misc/lv_area.h ****     LV_ALIGN_TOP_MID,
  65:Middlewares/lvgl/src/core/../misc/../font/../misc/lv_area.h ****     LV_ALIGN_TOP_RIGHT,
  66:Middlewares/lvgl/src/core/../misc/../font/../misc/lv_area.h ****     LV_ALIGN_BOTTOM_LEFT,
  67:Middlewares/lvgl/src/core/../misc/../font/../misc/lv_area.h ****     LV_ALIGN_BOTTOM_MID,
ARM GAS  /tmp/ccHFTBsZ.s 			page 33


  68:Middlewares/lvgl/src/core/../misc/../font/../misc/lv_area.h ****     LV_ALIGN_BOTTOM_RIGHT,
  69:Middlewares/lvgl/src/core/../misc/../font/../misc/lv_area.h ****     LV_ALIGN_LEFT_MID,
  70:Middlewares/lvgl/src/core/../misc/../font/../misc/lv_area.h ****     LV_ALIGN_RIGHT_MID,
  71:Middlewares/lvgl/src/core/../misc/../font/../misc/lv_area.h ****     LV_ALIGN_CENTER,
  72:Middlewares/lvgl/src/core/../misc/../font/../misc/lv_area.h **** 
  73:Middlewares/lvgl/src/core/../misc/../font/../misc/lv_area.h ****     LV_ALIGN_OUT_TOP_LEFT,
  74:Middlewares/lvgl/src/core/../misc/../font/../misc/lv_area.h ****     LV_ALIGN_OUT_TOP_MID,
  75:Middlewares/lvgl/src/core/../misc/../font/../misc/lv_area.h ****     LV_ALIGN_OUT_TOP_RIGHT,
  76:Middlewares/lvgl/src/core/../misc/../font/../misc/lv_area.h ****     LV_ALIGN_OUT_BOTTOM_LEFT,
  77:Middlewares/lvgl/src/core/../misc/../font/../misc/lv_area.h ****     LV_ALIGN_OUT_BOTTOM_MID,
  78:Middlewares/lvgl/src/core/../misc/../font/../misc/lv_area.h ****     LV_ALIGN_OUT_BOTTOM_RIGHT,
  79:Middlewares/lvgl/src/core/../misc/../font/../misc/lv_area.h ****     LV_ALIGN_OUT_LEFT_TOP,
  80:Middlewares/lvgl/src/core/../misc/../font/../misc/lv_area.h ****     LV_ALIGN_OUT_LEFT_MID,
  81:Middlewares/lvgl/src/core/../misc/../font/../misc/lv_area.h ****     LV_ALIGN_OUT_LEFT_BOTTOM,
  82:Middlewares/lvgl/src/core/../misc/../font/../misc/lv_area.h ****     LV_ALIGN_OUT_RIGHT_TOP,
  83:Middlewares/lvgl/src/core/../misc/../font/../misc/lv_area.h ****     LV_ALIGN_OUT_RIGHT_MID,
  84:Middlewares/lvgl/src/core/../misc/../font/../misc/lv_area.h ****     LV_ALIGN_OUT_RIGHT_BOTTOM,
  85:Middlewares/lvgl/src/core/../misc/../font/../misc/lv_area.h **** };
  86:Middlewares/lvgl/src/core/../misc/../font/../misc/lv_area.h **** typedef uint8_t lv_align_t;
  87:Middlewares/lvgl/src/core/../misc/../font/../misc/lv_area.h **** 
  88:Middlewares/lvgl/src/core/../misc/../font/../misc/lv_area.h **** enum {
  89:Middlewares/lvgl/src/core/../misc/../font/../misc/lv_area.h ****     LV_DIR_NONE     = 0x00,
  90:Middlewares/lvgl/src/core/../misc/../font/../misc/lv_area.h ****     LV_DIR_LEFT     = (1 << 0),
  91:Middlewares/lvgl/src/core/../misc/../font/../misc/lv_area.h ****     LV_DIR_RIGHT    = (1 << 1),
  92:Middlewares/lvgl/src/core/../misc/../font/../misc/lv_area.h ****     LV_DIR_TOP      = (1 << 2),
  93:Middlewares/lvgl/src/core/../misc/../font/../misc/lv_area.h ****     LV_DIR_BOTTOM   = (1 << 3),
  94:Middlewares/lvgl/src/core/../misc/../font/../misc/lv_area.h ****     LV_DIR_HOR      = LV_DIR_LEFT | LV_DIR_RIGHT,
  95:Middlewares/lvgl/src/core/../misc/../font/../misc/lv_area.h ****     LV_DIR_VER      = LV_DIR_TOP | LV_DIR_BOTTOM,
  96:Middlewares/lvgl/src/core/../misc/../font/../misc/lv_area.h ****     LV_DIR_ALL      = LV_DIR_HOR | LV_DIR_VER,
  97:Middlewares/lvgl/src/core/../misc/../font/../misc/lv_area.h **** };
  98:Middlewares/lvgl/src/core/../misc/../font/../misc/lv_area.h **** 
  99:Middlewares/lvgl/src/core/../misc/../font/../misc/lv_area.h **** typedef uint8_t lv_dir_t;
 100:Middlewares/lvgl/src/core/../misc/../font/../misc/lv_area.h **** 
 101:Middlewares/lvgl/src/core/../misc/../font/../misc/lv_area.h **** /**********************
 102:Middlewares/lvgl/src/core/../misc/../font/../misc/lv_area.h ****  * GLOBAL PROTOTYPES
 103:Middlewares/lvgl/src/core/../misc/../font/../misc/lv_area.h ****  **********************/
 104:Middlewares/lvgl/src/core/../misc/../font/../misc/lv_area.h **** 
 105:Middlewares/lvgl/src/core/../misc/../font/../misc/lv_area.h **** /**
 106:Middlewares/lvgl/src/core/../misc/../font/../misc/lv_area.h ****  * Initialize an area
 107:Middlewares/lvgl/src/core/../misc/../font/../misc/lv_area.h ****  * @param area_p pointer to an area
 108:Middlewares/lvgl/src/core/../misc/../font/../misc/lv_area.h ****  * @param x1 left coordinate of the area
 109:Middlewares/lvgl/src/core/../misc/../font/../misc/lv_area.h ****  * @param y1 top coordinate of the area
 110:Middlewares/lvgl/src/core/../misc/../font/../misc/lv_area.h ****  * @param x2 right coordinate of the area
 111:Middlewares/lvgl/src/core/../misc/../font/../misc/lv_area.h ****  * @param y2 bottom coordinate of the area
 112:Middlewares/lvgl/src/core/../misc/../font/../misc/lv_area.h ****  */
 113:Middlewares/lvgl/src/core/../misc/../font/../misc/lv_area.h **** void lv_area_set(lv_area_t * area_p, lv_coord_t x1, lv_coord_t y1, lv_coord_t x2, lv_coord_t y2);
 114:Middlewares/lvgl/src/core/../misc/../font/../misc/lv_area.h **** 
 115:Middlewares/lvgl/src/core/../misc/../font/../misc/lv_area.h **** /**
 116:Middlewares/lvgl/src/core/../misc/../font/../misc/lv_area.h ****  * Copy an area
 117:Middlewares/lvgl/src/core/../misc/../font/../misc/lv_area.h ****  * @param dest pointer to the destination area
 118:Middlewares/lvgl/src/core/../misc/../font/../misc/lv_area.h ****  * @param src pointer to the source area
 119:Middlewares/lvgl/src/core/../misc/../font/../misc/lv_area.h ****  */
 120:Middlewares/lvgl/src/core/../misc/../font/../misc/lv_area.h **** inline static void lv_area_copy(lv_area_t * dest, const lv_area_t * src)
 121:Middlewares/lvgl/src/core/../misc/../font/../misc/lv_area.h **** {
 122:Middlewares/lvgl/src/core/../misc/../font/../misc/lv_area.h ****     dest->x1 = src->x1;
 123:Middlewares/lvgl/src/core/../misc/../font/../misc/lv_area.h ****     dest->y1 = src->y1;
 124:Middlewares/lvgl/src/core/../misc/../font/../misc/lv_area.h ****     dest->x2 = src->x2;
ARM GAS  /tmp/ccHFTBsZ.s 			page 34


 125:Middlewares/lvgl/src/core/../misc/../font/../misc/lv_area.h ****     dest->y2 = src->y2;
 126:Middlewares/lvgl/src/core/../misc/../font/../misc/lv_area.h **** }
 127:Middlewares/lvgl/src/core/../misc/../font/../misc/lv_area.h **** 
 128:Middlewares/lvgl/src/core/../misc/../font/../misc/lv_area.h **** /**
 129:Middlewares/lvgl/src/core/../misc/../font/../misc/lv_area.h ****  * Get the width of an area
 130:Middlewares/lvgl/src/core/../misc/../font/../misc/lv_area.h ****  * @param area_p pointer to an area
 131:Middlewares/lvgl/src/core/../misc/../font/../misc/lv_area.h ****  * @return the width of the area (if x1 == x2 -> width = 1)
 132:Middlewares/lvgl/src/core/../misc/../font/../misc/lv_area.h ****  */
 133:Middlewares/lvgl/src/core/../misc/../font/../misc/lv_area.h **** static inline lv_coord_t lv_area_get_width(const lv_area_t * area_p)
 134:Middlewares/lvgl/src/core/../misc/../font/../misc/lv_area.h **** {
 135:Middlewares/lvgl/src/core/../misc/../font/../misc/lv_area.h ****     return (lv_coord_t)(area_p->x2 - area_p->x1 + 1);
 136:Middlewares/lvgl/src/core/../misc/../font/../misc/lv_area.h **** }
 137:Middlewares/lvgl/src/core/../misc/../font/../misc/lv_area.h **** 
 138:Middlewares/lvgl/src/core/../misc/../font/../misc/lv_area.h **** /**
 139:Middlewares/lvgl/src/core/../misc/../font/../misc/lv_area.h ****  * Get the height of an area
 140:Middlewares/lvgl/src/core/../misc/../font/../misc/lv_area.h ****  * @param area_p pointer to an area
 141:Middlewares/lvgl/src/core/../misc/../font/../misc/lv_area.h ****  * @return the height of the area (if y1 == y2 -> height = 1)
 142:Middlewares/lvgl/src/core/../misc/../font/../misc/lv_area.h ****  */
 143:Middlewares/lvgl/src/core/../misc/../font/../misc/lv_area.h **** static inline lv_coord_t lv_area_get_height(const lv_area_t * area_p)
 920              		.loc 3 143 26 is_stmt 1 view .LVU291
 921              	.LBB59:
 144:Middlewares/lvgl/src/core/../misc/../font/../misc/lv_area.h **** {
 145:Middlewares/lvgl/src/core/../misc/../font/../misc/lv_area.h ****     return (lv_coord_t)(area_p->y2 - area_p->y1 + 1);
 922              		.loc 3 145 5 view .LVU292
 923              		.loc 3 145 31 is_stmt 0 view .LVU293
 924 0062 6B8B     		ldrh	r3, [r5, #26]
 925              		.loc 3 145 36 view .LVU294
 926 0064 9B1A     		subs	r3, r3, r2
 927 0066 9BB2     		uxth	r3, r3
 928              		.loc 3 145 49 view .LVU295
 929 0068 0133     		adds	r3, r3, #1
 930              		.loc 3 145 12 view .LVU296
 931 006a 1BB2     		sxth	r3, r3
 932              	.LVL100:
 933              		.loc 3 145 12 view .LVU297
 934              	.LBE59:
 935              	.LBE58:
 494:Middlewares/lvgl/src/core/lv_indev_scroll.c ****                 y_parent = obj->coords.y1 + pad_top + (lv_area_get_height(&obj->coords) - pad_top -
 936              		.loc 1 494 44 view .LVU298
 937 006c 002B     		cmp	r3, #0
 938 006e 14DB     		blt	.L83
 939              	.L75:
 494:Middlewares/lvgl/src/core/lv_indev_scroll.c ****                 y_parent = obj->coords.y1 + pad_top + (lv_area_get_height(&obj->coords) - pad_top -
 940              		.loc 1 494 44 view .LVU299
 941 0070 02EB6303 		add	r3, r2, r3, asr #1
 494:Middlewares/lvgl/src/core/lv_indev_scroll.c ****                 y_parent = obj->coords.y1 + pad_top + (lv_area_get_height(&obj->coords) - pad_top -
 942              		.loc 1 494 25 view .LVU300
 943 0074 1BB2     		sxth	r3, r3
 944              	.LVL101:
 495:Middlewares/lvgl/src/core/lv_indev_scroll.c ****                 break;
 945              		.loc 1 495 17 is_stmt 1 view .LVU301
 495:Middlewares/lvgl/src/core/lv_indev_scroll.c ****                 break;
 946              		.loc 1 495 39 is_stmt 0 view .LVU302
 947 0076 F08A     		ldrh	r0, [r6, #22]
 495:Middlewares/lvgl/src/core/lv_indev_scroll.c ****                 break;
 948              		.loc 1 495 43 view .LVU303
 949 0078 029A     		ldr	r2, [sp, #8]
ARM GAS  /tmp/ccHFTBsZ.s 			page 35


 950 007a 8218     		adds	r2, r0, r2
 951 007c 92B2     		uxth	r2, r2
 952              	.LVL102:
 953              	.LBB60:
 954              	.LBI60:
 143:Middlewares/lvgl/src/core/../misc/../font/../misc/lv_area.h **** {
 955              		.loc 3 143 26 is_stmt 1 view .LVU304
 956              	.LBB61:
 957              		.loc 3 145 5 view .LVU305
 958              		.loc 3 145 31 is_stmt 0 view .LVU306
 959 007e 718B     		ldrh	r1, [r6, #26]
 960              		.loc 3 145 36 view .LVU307
 961 0080 091A     		subs	r1, r1, r0
 962 0082 89B2     		uxth	r1, r1
 963              		.loc 3 145 49 view .LVU308
 964 0084 0131     		adds	r1, r1, #1
 965              		.loc 3 145 12 view .LVU309
 966 0086 09B2     		sxth	r1, r1
 967              	.LVL103:
 968              		.loc 3 145 12 view .LVU310
 969              	.LBE61:
 970              	.LBE60:
 495:Middlewares/lvgl/src/core/lv_indev_scroll.c ****                 break;
 971              		.loc 1 495 89 view .LVU311
 972 0088 0598     		ldr	r0, [sp, #20]
 973 008a 091A     		subs	r1, r1, r0
 495:Middlewares/lvgl/src/core/lv_indev_scroll.c ****                 break;
 974              		.loc 1 495 113 view .LVU312
 975 008c 0398     		ldr	r0, [sp, #12]
 976 008e 091A     		subs	r1, r1, r0
 977 0090 05D4     		bmi	.L84
 978              	.L76:
 495:Middlewares/lvgl/src/core/lv_indev_scroll.c ****                 break;
 979              		.loc 1 495 53 view .LVU313
 980 0092 02EB6102 		add	r2, r2, r1, asr #1
 495:Middlewares/lvgl/src/core/lv_indev_scroll.c ****                 break;
 981              		.loc 1 495 26 view .LVU314
 982 0096 12B2     		sxth	r2, r2
 983              	.LVL104:
 496:Middlewares/lvgl/src/core/lv_indev_scroll.c ****             default:
 984              		.loc 1 496 17 is_stmt 1 view .LVU315
 985 0098 27E0     		b	.L74
 986              	.LVL105:
 987              	.L83:
 494:Middlewares/lvgl/src/core/lv_indev_scroll.c ****                 y_parent = obj->coords.y1 + pad_top + (lv_area_get_height(&obj->coords) - pad_top -
 988              		.loc 1 494 44 is_stmt 0 view .LVU316
 989 009a 0133     		adds	r3, r3, #1
 990 009c E8E7     		b	.L75
 991              	.LVL106:
 992              	.L84:
 495:Middlewares/lvgl/src/core/lv_indev_scroll.c ****                 break;
 993              		.loc 1 495 113 view .LVU317
 994 009e 0131     		adds	r1, r1, #1
 995 00a0 F7E7     		b	.L76
 996              	.LVL107:
 997              	.L71:
 495:Middlewares/lvgl/src/core/lv_indev_scroll.c ****                 break;
ARM GAS  /tmp/ccHFTBsZ.s 			page 36


 998              		.loc 1 495 113 view .LVU318
 999              	.LBE57:
 1000              	.LBE56:
 478:Middlewares/lvgl/src/core/lv_indev_scroll.c ****         lv_obj_t * child = lv_obj_get_child(obj, i);
 1001              		.loc 1 478 31 is_stmt 1 discriminator 2 view .LVU319
 478:Middlewares/lvgl/src/core/lv_indev_scroll.c ****         lv_obj_t * child = lv_obj_get_child(obj, i);
 1002              		.loc 1 478 32 is_stmt 0 discriminator 2 view .LVU320
 1003 00a2 0134     		adds	r4, r4, #1
 1004              	.LVL108:
 1005              	.L70:
 478:Middlewares/lvgl/src/core/lv_indev_scroll.c ****         lv_obj_t * child = lv_obj_get_child(obj, i);
 1006              		.loc 1 478 16 is_stmt 1 discriminator 1 view .LVU321
 478:Middlewares/lvgl/src/core/lv_indev_scroll.c ****         lv_obj_t * child = lv_obj_get_child(obj, i);
 1007              		.loc 1 478 5 is_stmt 0 discriminator 1 view .LVU322
 1008 00a4 BC42     		cmp	r4, r7
 1009 00a6 3DD2     		bcs	.L85
 1010              	.LBB64:
 479:Middlewares/lvgl/src/core/lv_indev_scroll.c ****         if(lv_obj_has_flag_any(child, LV_OBJ_FLAG_HIDDEN | LV_OBJ_FLAG_FLOATING)) continue;
 1011              		.loc 1 479 9 is_stmt 1 view .LVU323
 479:Middlewares/lvgl/src/core/lv_indev_scroll.c ****         if(lv_obj_has_flag_any(child, LV_OBJ_FLAG_HIDDEN | LV_OBJ_FLAG_FLOATING)) continue;
 1012              		.loc 1 479 28 is_stmt 0 view .LVU324
 1013 00a8 2146     		mov	r1, r4
 1014 00aa 3046     		mov	r0, r6
 1015 00ac FFF7FEFF 		bl	lv_obj_get_child
 1016              	.LVL109:
 1017 00b0 0546     		mov	r5, r0
 1018              	.LVL110:
 480:Middlewares/lvgl/src/core/lv_indev_scroll.c ****         if(lv_obj_has_flag(child, LV_OBJ_FLAG_SNAPPABLE)) {
 1019              		.loc 1 480 9 is_stmt 1 view .LVU325
 480:Middlewares/lvgl/src/core/lv_indev_scroll.c ****         if(lv_obj_has_flag(child, LV_OBJ_FLAG_SNAPPABLE)) {
 1020              		.loc 1 480 12 is_stmt 0 view .LVU326
 1021 00b2 4FF00111 		mov	r1, #65537
 1022 00b6 FFF7FEFF 		bl	lv_obj_has_flag_any
 1023              	.LVL111:
 480:Middlewares/lvgl/src/core/lv_indev_scroll.c ****         if(lv_obj_has_flag(child, LV_OBJ_FLAG_SNAPPABLE)) {
 1024              		.loc 1 480 11 view .LVU327
 1025 00ba 0028     		cmp	r0, #0
 1026 00bc F1D1     		bne	.L71
 481:Middlewares/lvgl/src/core/lv_indev_scroll.c ****             lv_coord_t y_child = 0;
 1027              		.loc 1 481 9 is_stmt 1 view .LVU328
 481:Middlewares/lvgl/src/core/lv_indev_scroll.c ****             lv_coord_t y_child = 0;
 1028              		.loc 1 481 12 is_stmt 0 view .LVU329
 1029 00be 4FF48061 		mov	r1, #1024
 1030 00c2 2846     		mov	r0, r5
 1031 00c4 FFF7FEFF 		bl	lv_obj_has_flag
 1032              	.LVL112:
 481:Middlewares/lvgl/src/core/lv_indev_scroll.c ****             lv_coord_t y_child = 0;
 1033              		.loc 1 481 11 view .LVU330
 1034 00c8 0028     		cmp	r0, #0
 1035 00ca EAD0     		beq	.L71
 1036              	.LBB63:
 482:Middlewares/lvgl/src/core/lv_indev_scroll.c ****             lv_coord_t y_parent = 0;
 1037              		.loc 1 482 13 is_stmt 1 view .LVU331
 1038              	.LVL113:
 483:Middlewares/lvgl/src/core/lv_indev_scroll.c ****             switch(align) {
 1039              		.loc 1 483 13 view .LVU332
 484:Middlewares/lvgl/src/core/lv_indev_scroll.c ****             case LV_SCROLL_SNAP_START:
ARM GAS  /tmp/ccHFTBsZ.s 			page 37


 1040              		.loc 1 484 13 view .LVU333
 1041 00cc B9F1020F 		cmp	r9, #2
 1042 00d0 BFD0     		beq	.L72
 1043 00d2 B9F1030F 		cmp	r9, #3
 1044 00d6 C3D0     		beq	.L73
 1045 00d8 B9F1010F 		cmp	r9, #1
 1046 00dc E1D1     		bne	.L71
 486:Middlewares/lvgl/src/core/lv_indev_scroll.c ****                 y_parent = obj->coords.y1 + pad_top;
 1047              		.loc 1 486 17 view .LVU334
 486:Middlewares/lvgl/src/core/lv_indev_scroll.c ****                 y_parent = obj->coords.y1 + pad_top;
 1048              		.loc 1 486 25 is_stmt 0 view .LVU335
 1049 00de B5F91630 		ldrsh	r3, [r5, #22]
 1050              	.LVL114:
 487:Middlewares/lvgl/src/core/lv_indev_scroll.c ****                 break;
 1051              		.loc 1 487 17 is_stmt 1 view .LVU336
 487:Middlewares/lvgl/src/core/lv_indev_scroll.c ****                 break;
 1052              		.loc 1 487 39 is_stmt 0 view .LVU337
 1053 00e2 F28A     		ldrh	r2, [r6, #22]
 487:Middlewares/lvgl/src/core/lv_indev_scroll.c ****                 break;
 1054              		.loc 1 487 43 view .LVU338
 1055 00e4 0299     		ldr	r1, [sp, #8]
 1056 00e6 0A44     		add	r2, r2, r1
 487:Middlewares/lvgl/src/core/lv_indev_scroll.c ****                 break;
 1057              		.loc 1 487 26 view .LVU339
 1058 00e8 12B2     		sxth	r2, r2
 1059              	.LVL115:
 488:Middlewares/lvgl/src/core/lv_indev_scroll.c ****             case LV_SCROLL_SNAP_END:
 1060              		.loc 1 488 17 is_stmt 1 view .LVU340
 1061              	.L74:
 501:Middlewares/lvgl/src/core/lv_indev_scroll.c ****             if(y_child >= min && y_child <= max) {
 1062              		.loc 1 501 13 view .LVU341
 501:Middlewares/lvgl/src/core/lv_indev_scroll.c ****             if(y_child >= min && y_child <= max) {
 1063              		.loc 1 501 21 is_stmt 0 view .LVU342
 1064 00ea 5B44     		add	r3, r3, fp
 1065              	.LVL116:
 501:Middlewares/lvgl/src/core/lv_indev_scroll.c ****             if(y_child >= min && y_child <= max) {
 1066              		.loc 1 501 21 view .LVU343
 1067 00ec 99B2     		uxth	r1, r3
 1068 00ee 1BB2     		sxth	r3, r3
 1069              	.LVL117:
 502:Middlewares/lvgl/src/core/lv_indev_scroll.c ****                 lv_coord_t y = y_child -  y_parent;
 1070              		.loc 1 502 13 is_stmt 1 view .LVU344
 502:Middlewares/lvgl/src/core/lv_indev_scroll.c ****                 lv_coord_t y = y_child -  y_parent;
 1071              		.loc 1 502 31 is_stmt 0 view .LVU345
 1072 00f0 0198     		ldr	r0, [sp, #4]
 1073 00f2 8342     		cmp	r3, r0
 1074 00f4 B4BF     		ite	lt
 1075 00f6 0020     		movlt	r0, #0
 1076 00f8 0120     		movge	r0, #1
 1077 00fa 5345     		cmp	r3, r10
 1078 00fc C8BF     		it	gt
 1079 00fe 0020     		movgt	r0, #0
 502:Middlewares/lvgl/src/core/lv_indev_scroll.c ****                 lv_coord_t y = y_child -  y_parent;
 1080              		.loc 1 502 15 view .LVU346
 1081 0100 0028     		cmp	r0, #0
 1082 0102 CED0     		beq	.L71
 1083              	.LBB62:
ARM GAS  /tmp/ccHFTBsZ.s 			page 38


 503:Middlewares/lvgl/src/core/lv_indev_scroll.c ****                 if(LV_ABS(y) < LV_ABS(dist)) dist = y;
 1084              		.loc 1 503 17 is_stmt 1 view .LVU347
 503:Middlewares/lvgl/src/core/lv_indev_scroll.c ****                 if(LV_ABS(y) < LV_ABS(dist)) dist = y;
 1085              		.loc 1 503 40 is_stmt 0 view .LVU348
 1086 0104 8A1A     		subs	r2, r1, r2
 1087              	.LVL118:
 503:Middlewares/lvgl/src/core/lv_indev_scroll.c ****                 if(LV_ABS(y) < LV_ABS(dist)) dist = y;
 1088              		.loc 1 503 28 view .LVU349
 1089 0106 12B2     		sxth	r2, r2
 1090              	.LVL119:
 504:Middlewares/lvgl/src/core/lv_indev_scroll.c ****             }
 1091              		.loc 1 504 17 is_stmt 1 view .LVU350
 504:Middlewares/lvgl/src/core/lv_indev_scroll.c ****             }
 1092              		.loc 1 504 20 is_stmt 0 view .LVU351
 1093 0108 82EAE271 		eor	r1, r2, r2, asr #31
 1094 010c A1EBE271 		sub	r1, r1, r2, asr #31
 1095 0110 89B2     		uxth	r1, r1
 504:Middlewares/lvgl/src/core/lv_indev_scroll.c ****             }
 1096              		.loc 1 504 32 view .LVU352
 1097 0112 88EAE873 		eor	r3, r8, r8, asr #31
 1098              	.LVL120:
 504:Middlewares/lvgl/src/core/lv_indev_scroll.c ****             }
 1099              		.loc 1 504 32 view .LVU353
 1100 0116 A3EBE873 		sub	r3, r3, r8, asr #31
 1101 011a 9BB2     		uxth	r3, r3
 504:Middlewares/lvgl/src/core/lv_indev_scroll.c ****             }
 1102              		.loc 1 504 19 view .LVU354
 1103 011c 9942     		cmp	r1, r3
 1104 011e C0D2     		bcs	.L71
 504:Middlewares/lvgl/src/core/lv_indev_scroll.c ****             }
 1105              		.loc 1 504 51 view .LVU355
 1106 0120 9046     		mov	r8, r2
 1107              	.LVL121:
 504:Middlewares/lvgl/src/core/lv_indev_scroll.c ****             }
 1108              		.loc 1 504 51 view .LVU356
 1109 0122 BEE7     		b	.L71
 1110              	.LVL122:
 1111              	.L85:
 504:Middlewares/lvgl/src/core/lv_indev_scroll.c ****             }
 1112              		.loc 1 504 51 view .LVU357
 1113              	.LBE62:
 1114              	.LBE63:
 1115              	.LBE64:
 509:Middlewares/lvgl/src/core/lv_indev_scroll.c **** }
 1116              		.loc 1 509 5 is_stmt 1 view .LVU358
 509:Middlewares/lvgl/src/core/lv_indev_scroll.c **** }
 1117              		.loc 1 509 37 is_stmt 0 view .LVU359
 1118 0124 B8F5C04F 		cmp	r8, #24576
 1119 0128 03D0     		beq	.L80
 509:Middlewares/lvgl/src/core/lv_indev_scroll.c **** }
 1120              		.loc 1 509 37 discriminator 1 view .LVU360
 1121 012a C8F10000 		rsb	r0, r8, #0
 1122 012e 00B2     		sxth	r0, r0
 1123 0130 71E7     		b	.L69
 1124              	.L80:
 509:Middlewares/lvgl/src/core/lv_indev_scroll.c **** }
 1125              		.loc 1 509 37 view .LVU361
ARM GAS  /tmp/ccHFTBsZ.s 			page 39


 1126 0132 0020     		movs	r0, #0
 1127 0134 6FE7     		b	.L69
 1128              		.cfi_endproc
 1129              	.LFE154:
 1131              		.section	.text.find_snap_point_x,"ax",%progbits
 1132              		.align	1
 1133              		.syntax unified
 1134              		.thumb
 1135              		.thumb_func
 1137              	find_snap_point_x:
 1138              	.LVL123:
 1139              	.LFB153:
 412:Middlewares/lvgl/src/core/lv_indev_scroll.c ****     lv_scroll_snap_t align = lv_obj_get_scroll_snap_x(obj);
 1140              		.loc 1 412 1 is_stmt 1 view -0
 1141              		.cfi_startproc
 1142              		@ args = 0, pretend = 0, frame = 24
 1143              		@ frame_needed = 0, uses_anonymous_args = 0
 412:Middlewares/lvgl/src/core/lv_indev_scroll.c ****     lv_scroll_snap_t align = lv_obj_get_scroll_snap_x(obj);
 1144              		.loc 1 412 1 is_stmt 0 view .LVU363
 1145 0000 2DE9F04F 		push	{r4, r5, r6, r7, r8, r9, r10, fp, lr}
 1146              	.LCFI11:
 1147              		.cfi_def_cfa_offset 36
 1148              		.cfi_offset 4, -36
 1149              		.cfi_offset 5, -32
 1150              		.cfi_offset 6, -28
 1151              		.cfi_offset 7, -24
 1152              		.cfi_offset 8, -20
 1153              		.cfi_offset 9, -16
 1154              		.cfi_offset 10, -12
 1155              		.cfi_offset 11, -8
 1156              		.cfi_offset 14, -4
 1157 0004 87B0     		sub	sp, sp, #28
 1158              	.LCFI12:
 1159              		.cfi_def_cfa_offset 64
 1160 0006 0646     		mov	r6, r0
 1161 0008 0191     		str	r1, [sp, #4]
 1162 000a 9246     		mov	r10, r2
 1163 000c 9B46     		mov	fp, r3
 413:Middlewares/lvgl/src/core/lv_indev_scroll.c ****     if(align == LV_SCROLL_SNAP_NONE) return 0;
 1164              		.loc 1 413 5 is_stmt 1 view .LVU364
 413:Middlewares/lvgl/src/core/lv_indev_scroll.c ****     if(align == LV_SCROLL_SNAP_NONE) return 0;
 1165              		.loc 1 413 30 is_stmt 0 view .LVU365
 1166 000e FFF7FEFF 		bl	lv_obj_get_scroll_snap_x
 1167              	.LVL124:
 414:Middlewares/lvgl/src/core/lv_indev_scroll.c **** 
 1168              		.loc 1 414 5 is_stmt 1 view .LVU366
 414:Middlewares/lvgl/src/core/lv_indev_scroll.c **** 
 1169              		.loc 1 414 7 is_stmt 0 view .LVU367
 1170 0012 18B9     		cbnz	r0, .L100
 414:Middlewares/lvgl/src/core/lv_indev_scroll.c **** 
 1171              		.loc 1 414 45 view .LVU368
 1172 0014 0020     		movs	r0, #0
 1173              	.LVL125:
 1174              	.L87:
 455:Middlewares/lvgl/src/core/lv_indev_scroll.c **** 
 1175              		.loc 1 455 1 view .LVU369
 1176 0016 07B0     		add	sp, sp, #28
ARM GAS  /tmp/ccHFTBsZ.s 			page 40


 1177              	.LCFI13:
 1178              		.cfi_remember_state
 1179              		.cfi_def_cfa_offset 36
 1180              		@ sp needed
 1181 0018 BDE8F08F 		pop	{r4, r5, r6, r7, r8, r9, r10, fp, pc}
 1182              	.LVL126:
 1183              	.L100:
 1184              	.LCFI14:
 1185              		.cfi_restore_state
 455:Middlewares/lvgl/src/core/lv_indev_scroll.c **** 
 1186              		.loc 1 455 1 view .LVU370
 1187 001c 8146     		mov	r9, r0
 416:Middlewares/lvgl/src/core/lv_indev_scroll.c **** 
 1188              		.loc 1 416 5 is_stmt 1 view .LVU371
 1189              	.LVL127:
 418:Middlewares/lvgl/src/core/lv_indev_scroll.c ****     lv_coord_t pad_right = lv_obj_get_style_pad_right(obj, LV_PART_MAIN);
 1190              		.loc 1 418 5 view .LVU372
 1191              	.LBB65:
 1192              	.LBI65:
 101:Middlewares/lvgl/src/core/lv_obj_style_gen.h **** }
 102:Middlewares/lvgl/src/core/lv_obj_style_gen.h **** 
 103:Middlewares/lvgl/src/core/lv_obj_style_gen.h **** static inline lv_coord_t lv_obj_get_style_pad_left(const struct _lv_obj_t * obj, uint32_t part)
 1193              		.loc 2 103 26 view .LVU373
 1194              	.LBB66:
 104:Middlewares/lvgl/src/core/lv_obj_style_gen.h **** {
 105:Middlewares/lvgl/src/core/lv_obj_style_gen.h ****     lv_style_value_t v = lv_obj_get_style_prop(obj, part, LV_STYLE_PAD_LEFT);
 1195              		.loc 2 105 5 view .LVU374
 1196              		.loc 2 105 26 is_stmt 0 view .LVU375
 1197 001e 41F21202 		movw	r2, #4114
 1198 0022 0021     		movs	r1, #0
 1199 0024 3046     		mov	r0, r6
 1200              	.LVL128:
 1201              		.loc 2 105 26 view .LVU376
 1202 0026 FFF7FEFF 		bl	lv_obj_get_style_prop
 1203              	.LVL129:
 1204 002a 0290     		str	r0, [sp, #8]
 106:Middlewares/lvgl/src/core/lv_obj_style_gen.h ****     return (lv_coord_t)v.num;
 1205              		.loc 2 106 5 is_stmt 1 view .LVU377
 1206              		.loc 2 106 12 is_stmt 0 view .LVU378
 1207 002c 03B2     		sxth	r3, r0
 1208 002e 0593     		str	r3, [sp, #20]
 1209              	.LVL130:
 1210              		.loc 2 106 12 view .LVU379
 1211              	.LBE66:
 1212              	.LBE65:
 419:Middlewares/lvgl/src/core/lv_indev_scroll.c **** 
 1213              		.loc 1 419 5 is_stmt 1 view .LVU380
 1214              	.LBB67:
 1215              	.LBI67:
 107:Middlewares/lvgl/src/core/lv_obj_style_gen.h **** }
 108:Middlewares/lvgl/src/core/lv_obj_style_gen.h **** 
 109:Middlewares/lvgl/src/core/lv_obj_style_gen.h **** static inline lv_coord_t lv_obj_get_style_pad_right(const struct _lv_obj_t * obj, uint32_t part)
 1216              		.loc 2 109 26 view .LVU381
 1217              	.LBB68:
 110:Middlewares/lvgl/src/core/lv_obj_style_gen.h **** {
 111:Middlewares/lvgl/src/core/lv_obj_style_gen.h ****     lv_style_value_t v = lv_obj_get_style_prop(obj, part, LV_STYLE_PAD_RIGHT);
 1218              		.loc 2 111 5 view .LVU382
ARM GAS  /tmp/ccHFTBsZ.s 			page 41


 1219              		.loc 2 111 26 is_stmt 0 view .LVU383
 1220 0030 41F21302 		movw	r2, #4115
 1221 0034 0021     		movs	r1, #0
 1222 0036 3046     		mov	r0, r6
 1223 0038 FFF7FEFF 		bl	lv_obj_get_style_prop
 1224              	.LVL131:
 1225 003c 0490     		str	r0, [sp, #16]
 112:Middlewares/lvgl/src/core/lv_obj_style_gen.h ****     return (lv_coord_t)v.num;
 1226              		.loc 2 112 5 is_stmt 1 view .LVU384
 1227              		.loc 2 112 12 is_stmt 0 view .LVU385
 1228 003e 03B2     		sxth	r3, r0
 1229 0040 0393     		str	r3, [sp, #12]
 1230              	.LVL132:
 1231              		.loc 2 112 12 view .LVU386
 1232              	.LBE68:
 1233              	.LBE67:
 421:Middlewares/lvgl/src/core/lv_indev_scroll.c ****     uint32_t child_cnt = lv_obj_get_child_cnt(obj);
 1234              		.loc 1 421 5 is_stmt 1 view .LVU387
 422:Middlewares/lvgl/src/core/lv_indev_scroll.c ****     for(i = 0; i < child_cnt; i++) {
 1235              		.loc 1 422 5 view .LVU388
 422:Middlewares/lvgl/src/core/lv_indev_scroll.c ****     for(i = 0; i < child_cnt; i++) {
 1236              		.loc 1 422 26 is_stmt 0 view .LVU389
 1237 0042 3046     		mov	r0, r6
 1238 0044 FFF7FEFF 		bl	lv_obj_get_child_cnt
 1239              	.LVL133:
 1240 0048 0746     		mov	r7, r0
 1241              	.LVL134:
 423:Middlewares/lvgl/src/core/lv_indev_scroll.c ****         lv_obj_t * child = lv_obj_get_child(obj, i);
 1242              		.loc 1 423 5 is_stmt 1 view .LVU390
 423:Middlewares/lvgl/src/core/lv_indev_scroll.c ****         lv_obj_t * child = lv_obj_get_child(obj, i);
 1243              		.loc 1 423 11 is_stmt 0 view .LVU391
 1244 004a 0024     		movs	r4, #0
 416:Middlewares/lvgl/src/core/lv_indev_scroll.c **** 
 1245              		.loc 1 416 16 view .LVU392
 1246 004c 4FF4C048 		mov	r8, #24576
 423:Middlewares/lvgl/src/core/lv_indev_scroll.c ****         lv_obj_t * child = lv_obj_get_child(obj, i);
 1247              		.loc 1 423 5 view .LVU393
 1248 0050 28E0     		b	.L88
 1249              	.LVL135:
 1250              	.L90:
 1251              	.LBB69:
 1252              	.LBB70:
 435:Middlewares/lvgl/src/core/lv_indev_scroll.c ****                 x_parent = obj->coords.x2 - pad_right;
 1253              		.loc 1 435 17 is_stmt 1 view .LVU394
 435:Middlewares/lvgl/src/core/lv_indev_scroll.c ****                 x_parent = obj->coords.x2 - pad_right;
 1254              		.loc 1 435 25 is_stmt 0 view .LVU395
 1255 0052 B5F91830 		ldrsh	r3, [r5, #24]
 1256              	.LVL136:
 436:Middlewares/lvgl/src/core/lv_indev_scroll.c ****                 break;
 1257              		.loc 1 436 17 is_stmt 1 view .LVU396
 436:Middlewares/lvgl/src/core/lv_indev_scroll.c ****                 break;
 1258              		.loc 1 436 39 is_stmt 0 view .LVU397
 1259 0056 328B     		ldrh	r2, [r6, #24]
 436:Middlewares/lvgl/src/core/lv_indev_scroll.c ****                 break;
 1260              		.loc 1 436 43 view .LVU398
 1261 0058 0499     		ldr	r1, [sp, #16]
 1262 005a 521A     		subs	r2, r2, r1
ARM GAS  /tmp/ccHFTBsZ.s 			page 42


 436:Middlewares/lvgl/src/core/lv_indev_scroll.c ****                 break;
 1263              		.loc 1 436 26 view .LVU399
 1264 005c 12B2     		sxth	r2, r2
 1265              	.LVL137:
 437:Middlewares/lvgl/src/core/lv_indev_scroll.c ****             case LV_SCROLL_SNAP_CENTER:
 1266              		.loc 1 437 17 is_stmt 1 view .LVU400
 1267 005e 44E0     		b	.L92
 1268              	.LVL138:
 1269              	.L91:
 439:Middlewares/lvgl/src/core/lv_indev_scroll.c ****                 x_parent = obj->coords.x1 + pad_left + (lv_area_get_width(&obj->coords) - pad_left 
 1270              		.loc 1 439 17 view .LVU401
 439:Middlewares/lvgl/src/core/lv_indev_scroll.c ****                 x_parent = obj->coords.x1 + pad_left + (lv_area_get_width(&obj->coords) - pad_left 
 1271              		.loc 1 439 40 is_stmt 0 view .LVU402
 1272 0060 AA8A     		ldrh	r2, [r5, #20]
 1273              	.LVL139:
 1274              	.LBB71:
 1275              	.LBI71:
 133:Middlewares/lvgl/src/core/../misc/../font/../misc/lv_area.h **** {
 1276              		.loc 3 133 26 is_stmt 1 view .LVU403
 1277              	.LBB72:
 135:Middlewares/lvgl/src/core/../misc/../font/../misc/lv_area.h **** }
 1278              		.loc 3 135 5 view .LVU404
 135:Middlewares/lvgl/src/core/../misc/../font/../misc/lv_area.h **** }
 1279              		.loc 3 135 31 is_stmt 0 view .LVU405
 1280 0062 2B8B     		ldrh	r3, [r5, #24]
 135:Middlewares/lvgl/src/core/../misc/../font/../misc/lv_area.h **** }
 1281              		.loc 3 135 36 view .LVU406
 1282 0064 9B1A     		subs	r3, r3, r2
 1283 0066 9BB2     		uxth	r3, r3
 135:Middlewares/lvgl/src/core/../misc/../font/../misc/lv_area.h **** }
 1284              		.loc 3 135 49 view .LVU407
 1285 0068 0133     		adds	r3, r3, #1
 135:Middlewares/lvgl/src/core/../misc/../font/../misc/lv_area.h **** }
 1286              		.loc 3 135 12 view .LVU408
 1287 006a 1BB2     		sxth	r3, r3
 1288              	.LVL140:
 135:Middlewares/lvgl/src/core/../misc/../font/../misc/lv_area.h **** }
 1289              		.loc 3 135 12 view .LVU409
 1290              	.LBE72:
 1291              	.LBE71:
 439:Middlewares/lvgl/src/core/lv_indev_scroll.c ****                 x_parent = obj->coords.x1 + pad_left + (lv_area_get_width(&obj->coords) - pad_left 
 1292              		.loc 1 439 44 view .LVU410
 1293 006c 002B     		cmp	r3, #0
 1294 006e 14DB     		blt	.L101
 1295              	.L93:
 439:Middlewares/lvgl/src/core/lv_indev_scroll.c ****                 x_parent = obj->coords.x1 + pad_left + (lv_area_get_width(&obj->coords) - pad_left 
 1296              		.loc 1 439 44 view .LVU411
 1297 0070 02EB6303 		add	r3, r2, r3, asr #1
 439:Middlewares/lvgl/src/core/lv_indev_scroll.c ****                 x_parent = obj->coords.x1 + pad_left + (lv_area_get_width(&obj->coords) - pad_left 
 1298              		.loc 1 439 25 view .LVU412
 1299 0074 1BB2     		sxth	r3, r3
 1300              	.LVL141:
 440:Middlewares/lvgl/src/core/lv_indev_scroll.c ****                 break;
 1301              		.loc 1 440 17 is_stmt 1 view .LVU413
 440:Middlewares/lvgl/src/core/lv_indev_scroll.c ****                 break;
 1302              		.loc 1 440 39 is_stmt 0 view .LVU414
 1303 0076 B08A     		ldrh	r0, [r6, #20]
ARM GAS  /tmp/ccHFTBsZ.s 			page 43


 440:Middlewares/lvgl/src/core/lv_indev_scroll.c ****                 break;
 1304              		.loc 1 440 43 view .LVU415
 1305 0078 029A     		ldr	r2, [sp, #8]
 1306 007a 8218     		adds	r2, r0, r2
 1307 007c 92B2     		uxth	r2, r2
 1308              	.LVL142:
 1309              	.LBB73:
 1310              	.LBI73:
 133:Middlewares/lvgl/src/core/../misc/../font/../misc/lv_area.h **** {
 1311              		.loc 3 133 26 is_stmt 1 view .LVU416
 1312              	.LBB74:
 135:Middlewares/lvgl/src/core/../misc/../font/../misc/lv_area.h **** }
 1313              		.loc 3 135 5 view .LVU417
 135:Middlewares/lvgl/src/core/../misc/../font/../misc/lv_area.h **** }
 1314              		.loc 3 135 31 is_stmt 0 view .LVU418
 1315 007e 318B     		ldrh	r1, [r6, #24]
 135:Middlewares/lvgl/src/core/../misc/../font/../misc/lv_area.h **** }
 1316              		.loc 3 135 36 view .LVU419
 1317 0080 091A     		subs	r1, r1, r0
 1318 0082 89B2     		uxth	r1, r1
 135:Middlewares/lvgl/src/core/../misc/../font/../misc/lv_area.h **** }
 1319              		.loc 3 135 49 view .LVU420
 1320 0084 0131     		adds	r1, r1, #1
 135:Middlewares/lvgl/src/core/../misc/../font/../misc/lv_area.h **** }
 1321              		.loc 3 135 12 view .LVU421
 1322 0086 09B2     		sxth	r1, r1
 1323              	.LVL143:
 135:Middlewares/lvgl/src/core/../misc/../font/../misc/lv_area.h **** }
 1324              		.loc 3 135 12 view .LVU422
 1325              	.LBE74:
 1326              	.LBE73:
 440:Middlewares/lvgl/src/core/lv_indev_scroll.c ****                 break;
 1327              		.loc 1 440 89 view .LVU423
 1328 0088 0598     		ldr	r0, [sp, #20]
 1329 008a 091A     		subs	r1, r1, r0
 440:Middlewares/lvgl/src/core/lv_indev_scroll.c ****                 break;
 1330              		.loc 1 440 113 view .LVU424
 1331 008c 0398     		ldr	r0, [sp, #12]
 1332 008e 091A     		subs	r1, r1, r0
 1333 0090 05D4     		bmi	.L102
 1334              	.L94:
 440:Middlewares/lvgl/src/core/lv_indev_scroll.c ****                 break;
 1335              		.loc 1 440 54 view .LVU425
 1336 0092 02EB6102 		add	r2, r2, r1, asr #1
 440:Middlewares/lvgl/src/core/lv_indev_scroll.c ****                 break;
 1337              		.loc 1 440 26 view .LVU426
 1338 0096 12B2     		sxth	r2, r2
 1339              	.LVL144:
 441:Middlewares/lvgl/src/core/lv_indev_scroll.c ****             default:
 1340              		.loc 1 441 17 is_stmt 1 view .LVU427
 1341 0098 27E0     		b	.L92
 1342              	.LVL145:
 1343              	.L101:
 439:Middlewares/lvgl/src/core/lv_indev_scroll.c ****                 x_parent = obj->coords.x1 + pad_left + (lv_area_get_width(&obj->coords) - pad_left 
 1344              		.loc 1 439 44 is_stmt 0 view .LVU428
 1345 009a 0133     		adds	r3, r3, #1
 1346 009c E8E7     		b	.L93
ARM GAS  /tmp/ccHFTBsZ.s 			page 44


 1347              	.LVL146:
 1348              	.L102:
 440:Middlewares/lvgl/src/core/lv_indev_scroll.c ****                 break;
 1349              		.loc 1 440 113 view .LVU429
 1350 009e 0131     		adds	r1, r1, #1
 1351 00a0 F7E7     		b	.L94
 1352              	.LVL147:
 1353              	.L89:
 440:Middlewares/lvgl/src/core/lv_indev_scroll.c ****                 break;
 1354              		.loc 1 440 113 view .LVU430
 1355              	.LBE70:
 1356              	.LBE69:
 423:Middlewares/lvgl/src/core/lv_indev_scroll.c ****         lv_obj_t * child = lv_obj_get_child(obj, i);
 1357              		.loc 1 423 31 is_stmt 1 discriminator 2 view .LVU431
 423:Middlewares/lvgl/src/core/lv_indev_scroll.c ****         lv_obj_t * child = lv_obj_get_child(obj, i);
 1358              		.loc 1 423 32 is_stmt 0 discriminator 2 view .LVU432
 1359 00a2 0134     		adds	r4, r4, #1
 1360              	.LVL148:
 1361              	.L88:
 423:Middlewares/lvgl/src/core/lv_indev_scroll.c ****         lv_obj_t * child = lv_obj_get_child(obj, i);
 1362              		.loc 1 423 16 is_stmt 1 discriminator 1 view .LVU433
 423:Middlewares/lvgl/src/core/lv_indev_scroll.c ****         lv_obj_t * child = lv_obj_get_child(obj, i);
 1363              		.loc 1 423 5 is_stmt 0 discriminator 1 view .LVU434
 1364 00a4 BC42     		cmp	r4, r7
 1365 00a6 3DD2     		bcs	.L103
 1366              	.LBB77:
 424:Middlewares/lvgl/src/core/lv_indev_scroll.c ****         if(lv_obj_has_flag_any(child, LV_OBJ_FLAG_HIDDEN | LV_OBJ_FLAG_FLOATING)) continue;
 1367              		.loc 1 424 9 is_stmt 1 view .LVU435
 424:Middlewares/lvgl/src/core/lv_indev_scroll.c ****         if(lv_obj_has_flag_any(child, LV_OBJ_FLAG_HIDDEN | LV_OBJ_FLAG_FLOATING)) continue;
 1368              		.loc 1 424 28 is_stmt 0 view .LVU436
 1369 00a8 2146     		mov	r1, r4
 1370 00aa 3046     		mov	r0, r6
 1371 00ac FFF7FEFF 		bl	lv_obj_get_child
 1372              	.LVL149:
 1373 00b0 0546     		mov	r5, r0
 1374              	.LVL150:
 425:Middlewares/lvgl/src/core/lv_indev_scroll.c ****         if(lv_obj_has_flag(child, LV_OBJ_FLAG_SNAPPABLE)) {
 1375              		.loc 1 425 9 is_stmt 1 view .LVU437
 425:Middlewares/lvgl/src/core/lv_indev_scroll.c ****         if(lv_obj_has_flag(child, LV_OBJ_FLAG_SNAPPABLE)) {
 1376              		.loc 1 425 12 is_stmt 0 view .LVU438
 1377 00b2 4FF00111 		mov	r1, #65537
 1378 00b6 FFF7FEFF 		bl	lv_obj_has_flag_any
 1379              	.LVL151:
 425:Middlewares/lvgl/src/core/lv_indev_scroll.c ****         if(lv_obj_has_flag(child, LV_OBJ_FLAG_SNAPPABLE)) {
 1380              		.loc 1 425 11 view .LVU439
 1381 00ba 0028     		cmp	r0, #0
 1382 00bc F1D1     		bne	.L89
 426:Middlewares/lvgl/src/core/lv_indev_scroll.c ****             lv_coord_t x_child = 0;
 1383              		.loc 1 426 9 is_stmt 1 view .LVU440
 426:Middlewares/lvgl/src/core/lv_indev_scroll.c ****             lv_coord_t x_child = 0;
 1384              		.loc 1 426 12 is_stmt 0 view .LVU441
 1385 00be 4FF48061 		mov	r1, #1024
 1386 00c2 2846     		mov	r0, r5
 1387 00c4 FFF7FEFF 		bl	lv_obj_has_flag
 1388              	.LVL152:
 426:Middlewares/lvgl/src/core/lv_indev_scroll.c ****             lv_coord_t x_child = 0;
 1389              		.loc 1 426 11 view .LVU442
ARM GAS  /tmp/ccHFTBsZ.s 			page 45


 1390 00c8 0028     		cmp	r0, #0
 1391 00ca EAD0     		beq	.L89
 1392              	.LBB76:
 427:Middlewares/lvgl/src/core/lv_indev_scroll.c ****             lv_coord_t x_parent = 0;
 1393              		.loc 1 427 13 is_stmt 1 view .LVU443
 1394              	.LVL153:
 428:Middlewares/lvgl/src/core/lv_indev_scroll.c ****             switch(align) {
 1395              		.loc 1 428 13 view .LVU444
 429:Middlewares/lvgl/src/core/lv_indev_scroll.c ****             case LV_SCROLL_SNAP_START:
 1396              		.loc 1 429 13 view .LVU445
 1397 00cc B9F1020F 		cmp	r9, #2
 1398 00d0 BFD0     		beq	.L90
 1399 00d2 B9F1030F 		cmp	r9, #3
 1400 00d6 C3D0     		beq	.L91
 1401 00d8 B9F1010F 		cmp	r9, #1
 1402 00dc E1D1     		bne	.L89
 431:Middlewares/lvgl/src/core/lv_indev_scroll.c ****                 x_parent = obj->coords.x1 + pad_left;
 1403              		.loc 1 431 17 view .LVU446
 431:Middlewares/lvgl/src/core/lv_indev_scroll.c ****                 x_parent = obj->coords.x1 + pad_left;
 1404              		.loc 1 431 25 is_stmt 0 view .LVU447
 1405 00de B5F91430 		ldrsh	r3, [r5, #20]
 1406              	.LVL154:
 432:Middlewares/lvgl/src/core/lv_indev_scroll.c ****                 break;
 1407              		.loc 1 432 17 is_stmt 1 view .LVU448
 432:Middlewares/lvgl/src/core/lv_indev_scroll.c ****                 break;
 1408              		.loc 1 432 39 is_stmt 0 view .LVU449
 1409 00e2 B28A     		ldrh	r2, [r6, #20]
 432:Middlewares/lvgl/src/core/lv_indev_scroll.c ****                 break;
 1410              		.loc 1 432 43 view .LVU450
 1411 00e4 0299     		ldr	r1, [sp, #8]
 1412 00e6 0A44     		add	r2, r2, r1
 432:Middlewares/lvgl/src/core/lv_indev_scroll.c ****                 break;
 1413              		.loc 1 432 26 view .LVU451
 1414 00e8 12B2     		sxth	r2, r2
 1415              	.LVL155:
 433:Middlewares/lvgl/src/core/lv_indev_scroll.c ****             case LV_SCROLL_SNAP_END:
 1416              		.loc 1 433 17 is_stmt 1 view .LVU452
 1417              	.L92:
 446:Middlewares/lvgl/src/core/lv_indev_scroll.c ****             if(x_child >= min && x_child <= max) {
 1418              		.loc 1 446 13 view .LVU453
 446:Middlewares/lvgl/src/core/lv_indev_scroll.c ****             if(x_child >= min && x_child <= max) {
 1419              		.loc 1 446 21 is_stmt 0 view .LVU454
 1420 00ea 5B44     		add	r3, r3, fp
 1421              	.LVL156:
 446:Middlewares/lvgl/src/core/lv_indev_scroll.c ****             if(x_child >= min && x_child <= max) {
 1422              		.loc 1 446 21 view .LVU455
 1423 00ec 99B2     		uxth	r1, r3
 1424 00ee 1BB2     		sxth	r3, r3
 1425              	.LVL157:
 447:Middlewares/lvgl/src/core/lv_indev_scroll.c ****                 lv_coord_t x = x_child -  x_parent;
 1426              		.loc 1 447 13 is_stmt 1 view .LVU456
 447:Middlewares/lvgl/src/core/lv_indev_scroll.c ****                 lv_coord_t x = x_child -  x_parent;
 1427              		.loc 1 447 31 is_stmt 0 view .LVU457
 1428 00f0 0198     		ldr	r0, [sp, #4]
 1429 00f2 8342     		cmp	r3, r0
 1430 00f4 B4BF     		ite	lt
 1431 00f6 0020     		movlt	r0, #0
ARM GAS  /tmp/ccHFTBsZ.s 			page 46


 1432 00f8 0120     		movge	r0, #1
 1433 00fa 5345     		cmp	r3, r10
 1434 00fc C8BF     		it	gt
 1435 00fe 0020     		movgt	r0, #0
 447:Middlewares/lvgl/src/core/lv_indev_scroll.c ****                 lv_coord_t x = x_child -  x_parent;
 1436              		.loc 1 447 15 view .LVU458
 1437 0100 0028     		cmp	r0, #0
 1438 0102 CED0     		beq	.L89
 1439              	.LBB75:
 448:Middlewares/lvgl/src/core/lv_indev_scroll.c ****                 if(LV_ABS(x) < LV_ABS(dist)) dist = x;
 1440              		.loc 1 448 17 is_stmt 1 view .LVU459
 448:Middlewares/lvgl/src/core/lv_indev_scroll.c ****                 if(LV_ABS(x) < LV_ABS(dist)) dist = x;
 1441              		.loc 1 448 40 is_stmt 0 view .LVU460
 1442 0104 8A1A     		subs	r2, r1, r2
 1443              	.LVL158:
 448:Middlewares/lvgl/src/core/lv_indev_scroll.c ****                 if(LV_ABS(x) < LV_ABS(dist)) dist = x;
 1444              		.loc 1 448 28 view .LVU461
 1445 0106 12B2     		sxth	r2, r2
 1446              	.LVL159:
 449:Middlewares/lvgl/src/core/lv_indev_scroll.c ****             }
 1447              		.loc 1 449 17 is_stmt 1 view .LVU462
 449:Middlewares/lvgl/src/core/lv_indev_scroll.c ****             }
 1448              		.loc 1 449 20 is_stmt 0 view .LVU463
 1449 0108 82EAE271 		eor	r1, r2, r2, asr #31
 1450 010c A1EBE271 		sub	r1, r1, r2, asr #31
 1451 0110 89B2     		uxth	r1, r1
 449:Middlewares/lvgl/src/core/lv_indev_scroll.c ****             }
 1452              		.loc 1 449 32 view .LVU464
 1453 0112 88EAE873 		eor	r3, r8, r8, asr #31
 1454              	.LVL160:
 449:Middlewares/lvgl/src/core/lv_indev_scroll.c ****             }
 1455              		.loc 1 449 32 view .LVU465
 1456 0116 A3EBE873 		sub	r3, r3, r8, asr #31
 1457 011a 9BB2     		uxth	r3, r3
 449:Middlewares/lvgl/src/core/lv_indev_scroll.c ****             }
 1458              		.loc 1 449 19 view .LVU466
 1459 011c 9942     		cmp	r1, r3
 1460 011e C0D2     		bcs	.L89
 449:Middlewares/lvgl/src/core/lv_indev_scroll.c ****             }
 1461              		.loc 1 449 51 view .LVU467
 1462 0120 9046     		mov	r8, r2
 1463              	.LVL161:
 449:Middlewares/lvgl/src/core/lv_indev_scroll.c ****             }
 1464              		.loc 1 449 51 view .LVU468
 1465 0122 BEE7     		b	.L89
 1466              	.LVL162:
 1467              	.L103:
 449:Middlewares/lvgl/src/core/lv_indev_scroll.c ****             }
 1468              		.loc 1 449 51 view .LVU469
 1469              	.LBE75:
 1470              	.LBE76:
 1471              	.LBE77:
 454:Middlewares/lvgl/src/core/lv_indev_scroll.c **** }
 1472              		.loc 1 454 5 is_stmt 1 view .LVU470
 454:Middlewares/lvgl/src/core/lv_indev_scroll.c **** }
 1473              		.loc 1 454 36 is_stmt 0 view .LVU471
 1474 0124 B8F5C04F 		cmp	r8, #24576
ARM GAS  /tmp/ccHFTBsZ.s 			page 47


 1475 0128 03D0     		beq	.L98
 454:Middlewares/lvgl/src/core/lv_indev_scroll.c **** }
 1476              		.loc 1 454 36 discriminator 1 view .LVU472
 1477 012a C8F10000 		rsb	r0, r8, #0
 1478 012e 00B2     		sxth	r0, r0
 1479 0130 71E7     		b	.L87
 1480              	.L98:
 454:Middlewares/lvgl/src/core/lv_indev_scroll.c **** }
 1481              		.loc 1 454 36 view .LVU473
 1482 0132 0020     		movs	r0, #0
 1483 0134 6FE7     		b	.L87
 1484              		.cfi_endproc
 1485              	.LFE153:
 1487              		.section	.text.init_scroll_limits,"ax",%progbits
 1488              		.align	1
 1489              		.syntax unified
 1490              		.thumb
 1491              		.thumb_func
 1493              	init_scroll_limits:
 1494              	.LVL163:
 1495              	.LFB152:
 344:Middlewares/lvgl/src/core/lv_indev_scroll.c ****     lv_obj_t * obj = proc->types.pointer.scroll_obj;
 1496              		.loc 1 344 1 is_stmt 1 view -0
 1497              		.cfi_startproc
 1498              		@ args = 0, pretend = 0, frame = 0
 1499              		@ frame_needed = 0, uses_anonymous_args = 0
 344:Middlewares/lvgl/src/core/lv_indev_scroll.c ****     lv_obj_t * obj = proc->types.pointer.scroll_obj;
 1500              		.loc 1 344 1 is_stmt 0 view .LVU475
 1501 0000 70B5     		push	{r4, r5, r6, lr}
 1502              	.LCFI15:
 1503              		.cfi_def_cfa_offset 16
 1504              		.cfi_offset 4, -16
 1505              		.cfi_offset 5, -12
 1506              		.cfi_offset 6, -8
 1507              		.cfi_offset 14, -4
 1508 0002 82B0     		sub	sp, sp, #8
 1509              	.LCFI16:
 1510              		.cfi_def_cfa_offset 24
 1511 0004 0446     		mov	r4, r0
 345:Middlewares/lvgl/src/core/lv_indev_scroll.c ****     /*If there no STOP allow scrolling anywhere*/
 1512              		.loc 1 345 5 is_stmt 1 view .LVU476
 345:Middlewares/lvgl/src/core/lv_indev_scroll.c ****     /*If there no STOP allow scrolling anywhere*/
 1513              		.loc 1 345 16 is_stmt 0 view .LVU477
 1514 0006 856A     		ldr	r5, [r0, #40]
 1515              	.LVL164:
 347:Middlewares/lvgl/src/core/lv_indev_scroll.c ****         lv_area_set(&proc->types.pointer.scroll_area, LV_COORD_MIN, LV_COORD_MIN, LV_COORD_MAX, LV_
 1516              		.loc 1 347 5 is_stmt 1 view .LVU478
 347:Middlewares/lvgl/src/core/lv_indev_scroll.c ****         lv_area_set(&proc->types.pointer.scroll_area, LV_COORD_MIN, LV_COORD_MIN, LV_COORD_MAX, LV_
 1517              		.loc 1 347 8 is_stmt 0 view .LVU479
 1518 0008 8021     		movs	r1, #128
 1519 000a 2846     		mov	r0, r5
 1520              	.LVL165:
 347:Middlewares/lvgl/src/core/lv_indev_scroll.c ****         lv_area_set(&proc->types.pointer.scroll_area, LV_COORD_MIN, LV_COORD_MIN, LV_COORD_MAX, LV_
 1521              		.loc 1 347 8 view .LVU480
 1522 000c FFF7FEFF 		bl	lv_obj_has_flag
 1523              	.LVL166:
 347:Middlewares/lvgl/src/core/lv_indev_scroll.c ****         lv_area_set(&proc->types.pointer.scroll_area, LV_COORD_MIN, LV_COORD_MIN, LV_COORD_MAX, LV_
ARM GAS  /tmp/ccHFTBsZ.s 			page 48


 1524              		.loc 1 347 7 view .LVU481
 1525 0010 10BB     		cbnz	r0, .L105
 348:Middlewares/lvgl/src/core/lv_indev_scroll.c ****     }
 1526              		.loc 1 348 9 is_stmt 1 view .LVU482
 1527 0012 6549     		ldr	r1, .L125
 1528 0014 4FF4C043 		mov	r3, #24576
 1529 0018 0093     		str	r3, [sp]
 1530 001a 0A46     		mov	r2, r1
 1531 001c 04F13000 		add	r0, r4, #48
 1532 0020 FFF7FEFF 		bl	lv_area_set
 1533              	.LVL167:
 1534              	.L106:
 396:Middlewares/lvgl/src/core/lv_indev_scroll.c ****     if(proc->types.pointer.scroll_area.x2 == 0) proc->types.pointer.scroll_area.x2 = LV_COORD_MAX;
 1535              		.loc 1 396 5 view .LVU483
 396:Middlewares/lvgl/src/core/lv_indev_scroll.c ****     if(proc->types.pointer.scroll_area.x2 == 0) proc->types.pointer.scroll_area.x2 = LV_COORD_MAX;
 1536              		.loc 1 396 39 is_stmt 0 view .LVU484
 1537 0024 B4F93030 		ldrsh	r3, [r4, #48]
 396:Middlewares/lvgl/src/core/lv_indev_scroll.c ****     if(proc->types.pointer.scroll_area.x2 == 0) proc->types.pointer.scroll_area.x2 = LV_COORD_MAX;
 1538              		.loc 1 396 7 view .LVU485
 1539 0028 13B9     		cbnz	r3, .L116
 396:Middlewares/lvgl/src/core/lv_indev_scroll.c ****     if(proc->types.pointer.scroll_area.x2 == 0) proc->types.pointer.scroll_area.x2 = LV_COORD_MAX;
 1540              		.loc 1 396 49 is_stmt 1 discriminator 1 view .LVU486
 396:Middlewares/lvgl/src/core/lv_indev_scroll.c ****     if(proc->types.pointer.scroll_area.x2 == 0) proc->types.pointer.scroll_area.x2 = LV_COORD_MAX;
 1541              		.loc 1 396 84 is_stmt 0 discriminator 1 view .LVU487
 1542 002a 4FF42043 		mov	r3, #40960
 1543 002e 2386     		strh	r3, [r4, #48]	@ movhi
 1544              	.L116:
 397:Middlewares/lvgl/src/core/lv_indev_scroll.c ****     if(proc->types.pointer.scroll_area.y1 == 0) proc->types.pointer.scroll_area.y1 = LV_COORD_MIN;
 1545              		.loc 1 397 5 is_stmt 1 view .LVU488
 397:Middlewares/lvgl/src/core/lv_indev_scroll.c ****     if(proc->types.pointer.scroll_area.y1 == 0) proc->types.pointer.scroll_area.y1 = LV_COORD_MIN;
 1546              		.loc 1 397 39 is_stmt 0 view .LVU489
 1547 0030 B4F93430 		ldrsh	r3, [r4, #52]
 397:Middlewares/lvgl/src/core/lv_indev_scroll.c ****     if(proc->types.pointer.scroll_area.y1 == 0) proc->types.pointer.scroll_area.y1 = LV_COORD_MIN;
 1548              		.loc 1 397 7 view .LVU490
 1549 0034 13B9     		cbnz	r3, .L117
 397:Middlewares/lvgl/src/core/lv_indev_scroll.c ****     if(proc->types.pointer.scroll_area.y1 == 0) proc->types.pointer.scroll_area.y1 = LV_COORD_MIN;
 1550              		.loc 1 397 49 is_stmt 1 discriminator 1 view .LVU491
 397:Middlewares/lvgl/src/core/lv_indev_scroll.c ****     if(proc->types.pointer.scroll_area.y1 == 0) proc->types.pointer.scroll_area.y1 = LV_COORD_MIN;
 1551              		.loc 1 397 84 is_stmt 0 discriminator 1 view .LVU492
 1552 0036 4FF4C043 		mov	r3, #24576
 1553 003a A386     		strh	r3, [r4, #52]	@ movhi
 1554              	.L117:
 398:Middlewares/lvgl/src/core/lv_indev_scroll.c ****     if(proc->types.pointer.scroll_area.y2 == 0) proc->types.pointer.scroll_area.y2 = LV_COORD_MAX;
 1555              		.loc 1 398 5 is_stmt 1 view .LVU493
 398:Middlewares/lvgl/src/core/lv_indev_scroll.c ****     if(proc->types.pointer.scroll_area.y2 == 0) proc->types.pointer.scroll_area.y2 = LV_COORD_MAX;
 1556              		.loc 1 398 39 is_stmt 0 view .LVU494
 1557 003c B4F93230 		ldrsh	r3, [r4, #50]
 398:Middlewares/lvgl/src/core/lv_indev_scroll.c ****     if(proc->types.pointer.scroll_area.y2 == 0) proc->types.pointer.scroll_area.y2 = LV_COORD_MAX;
 1558              		.loc 1 398 7 view .LVU495
 1559 0040 13B9     		cbnz	r3, .L118
 398:Middlewares/lvgl/src/core/lv_indev_scroll.c ****     if(proc->types.pointer.scroll_area.y2 == 0) proc->types.pointer.scroll_area.y2 = LV_COORD_MAX;
 1560              		.loc 1 398 49 is_stmt 1 discriminator 1 view .LVU496
 398:Middlewares/lvgl/src/core/lv_indev_scroll.c ****     if(proc->types.pointer.scroll_area.y2 == 0) proc->types.pointer.scroll_area.y2 = LV_COORD_MAX;
 1561              		.loc 1 398 84 is_stmt 0 discriminator 1 view .LVU497
 1562 0042 4FF42043 		mov	r3, #40960
 1563 0046 6386     		strh	r3, [r4, #50]	@ movhi
 1564              	.L118:
ARM GAS  /tmp/ccHFTBsZ.s 			page 49


 399:Middlewares/lvgl/src/core/lv_indev_scroll.c **** }
 1565              		.loc 1 399 5 is_stmt 1 view .LVU498
 399:Middlewares/lvgl/src/core/lv_indev_scroll.c **** }
 1566              		.loc 1 399 39 is_stmt 0 view .LVU499
 1567 0048 B4F93630 		ldrsh	r3, [r4, #54]
 399:Middlewares/lvgl/src/core/lv_indev_scroll.c **** }
 1568              		.loc 1 399 7 view .LVU500
 1569 004c 13B9     		cbnz	r3, .L104
 399:Middlewares/lvgl/src/core/lv_indev_scroll.c **** }
 1570              		.loc 1 399 49 is_stmt 1 discriminator 1 view .LVU501
 399:Middlewares/lvgl/src/core/lv_indev_scroll.c **** }
 1571              		.loc 1 399 84 is_stmt 0 discriminator 1 view .LVU502
 1572 004e 4FF4C043 		mov	r3, #24576
 1573 0052 E386     		strh	r3, [r4, #54]	@ movhi
 1574              	.L104:
 400:Middlewares/lvgl/src/core/lv_indev_scroll.c **** 
 1575              		.loc 1 400 1 view .LVU503
 1576 0054 02B0     		add	sp, sp, #8
 1577              	.LCFI17:
 1578              		.cfi_remember_state
 1579              		.cfi_def_cfa_offset 16
 1580              		@ sp needed
 1581 0056 70BD     		pop	{r4, r5, r6, pc}
 1582              	.LVL168:
 1583              	.L105:
 1584              	.LCFI18:
 1585              		.cfi_restore_state
 352:Middlewares/lvgl/src/core/lv_indev_scroll.c ****         case LV_SCROLL_SNAP_START:
 1586              		.loc 1 352 9 is_stmt 1 view .LVU504
 352:Middlewares/lvgl/src/core/lv_indev_scroll.c ****         case LV_SCROLL_SNAP_START:
 1587              		.loc 1 352 16 is_stmt 0 view .LVU505
 1588 0058 2846     		mov	r0, r5
 1589 005a FFF7FEFF 		bl	lv_obj_get_scroll_snap_y
 1590              	.LVL169:
 352:Middlewares/lvgl/src/core/lv_indev_scroll.c ****         case LV_SCROLL_SNAP_START:
 1591              		.loc 1 352 9 view .LVU506
 1592 005e 0228     		cmp	r0, #2
 1593 0060 2DD0     		beq	.L107
 1594 0062 0328     		cmp	r0, #3
 1595 0064 3DD0     		beq	.L108
 1596 0066 0128     		cmp	r0, #1
 1597 0068 06D0     		beq	.L121
 368:Middlewares/lvgl/src/core/lv_indev_scroll.c ****             proc->types.pointer.scroll_area.y2 = LV_COORD_MAX;
 1598              		.loc 1 368 13 is_stmt 1 view .LVU507
 368:Middlewares/lvgl/src/core/lv_indev_scroll.c ****             proc->types.pointer.scroll_area.y2 = LV_COORD_MAX;
 1599              		.loc 1 368 48 is_stmt 0 view .LVU508
 1600 006a 4FF42043 		mov	r3, #40960
 1601 006e 6386     		strh	r3, [r4, #50]	@ movhi
 369:Middlewares/lvgl/src/core/lv_indev_scroll.c ****             break;
 1602              		.loc 1 369 13 is_stmt 1 view .LVU509
 369:Middlewares/lvgl/src/core/lv_indev_scroll.c ****             break;
 1603              		.loc 1 369 48 is_stmt 0 view .LVU510
 1604 0070 4FF4C043 		mov	r3, #24576
 1605 0074 E386     		strh	r3, [r4, #54]	@ movhi
 370:Middlewares/lvgl/src/core/lv_indev_scroll.c ****         }
 1606              		.loc 1 370 13 is_stmt 1 view .LVU511
 1607 0076 12E0     		b	.L110
ARM GAS  /tmp/ccHFTBsZ.s 			page 50


 1608              	.L121:
 354:Middlewares/lvgl/src/core/lv_indev_scroll.c ****             proc->types.pointer.scroll_area.y2 = find_snap_point_y(obj, LV_COORD_MIN, obj->coords.y
 1609              		.loc 1 354 13 view .LVU512
 354:Middlewares/lvgl/src/core/lv_indev_scroll.c ****             proc->types.pointer.scroll_area.y2 = find_snap_point_y(obj, LV_COORD_MIN, obj->coords.y
 1610              		.loc 1 354 84 is_stmt 0 view .LVU513
 1611 0078 E98A     		ldrh	r1, [r5, #22]
 354:Middlewares/lvgl/src/core/lv_indev_scroll.c ****             proc->types.pointer.scroll_area.y2 = find_snap_point_y(obj, LV_COORD_MIN, obj->coords.y
 1612              		.loc 1 354 88 view .LVU514
 1613 007a 0131     		adds	r1, r1, #1
 354:Middlewares/lvgl/src/core/lv_indev_scroll.c ****             proc->types.pointer.scroll_area.y2 = find_snap_point_y(obj, LV_COORD_MIN, obj->coords.y
 1614              		.loc 1 354 50 view .LVU515
 1615 007c 0023     		movs	r3, #0
 1616 007e 4FF4C042 		mov	r2, #24576
 1617 0082 09B2     		sxth	r1, r1
 1618 0084 2846     		mov	r0, r5
 1619 0086 FFF7FEFF 		bl	find_snap_point_y
 1620              	.LVL170:
 354:Middlewares/lvgl/src/core/lv_indev_scroll.c ****             proc->types.pointer.scroll_area.y2 = find_snap_point_y(obj, LV_COORD_MIN, obj->coords.y
 1621              		.loc 1 354 48 view .LVU516
 1622 008a 6086     		strh	r0, [r4, #50]	@ movhi
 355:Middlewares/lvgl/src/core/lv_indev_scroll.c ****             break;
 1623              		.loc 1 355 13 is_stmt 1 view .LVU517
 355:Middlewares/lvgl/src/core/lv_indev_scroll.c ****             break;
 1624              		.loc 1 355 98 is_stmt 0 view .LVU518
 1625 008c EA8A     		ldrh	r2, [r5, #22]
 355:Middlewares/lvgl/src/core/lv_indev_scroll.c ****             break;
 1626              		.loc 1 355 102 view .LVU519
 1627 008e 013A     		subs	r2, r2, #1
 355:Middlewares/lvgl/src/core/lv_indev_scroll.c ****             break;
 1628              		.loc 1 355 50 view .LVU520
 1629 0090 0023     		movs	r3, #0
 1630 0092 12B2     		sxth	r2, r2
 1631 0094 4449     		ldr	r1, .L125
 1632 0096 2846     		mov	r0, r5
 1633 0098 FFF7FEFF 		bl	find_snap_point_y
 1634              	.LVL171:
 355:Middlewares/lvgl/src/core/lv_indev_scroll.c ****             break;
 1635              		.loc 1 355 48 view .LVU521
 1636 009c E086     		strh	r0, [r4, #54]	@ movhi
 356:Middlewares/lvgl/src/core/lv_indev_scroll.c ****         case LV_SCROLL_SNAP_END:
 1637              		.loc 1 356 13 is_stmt 1 view .LVU522
 1638              	.L110:
 373:Middlewares/lvgl/src/core/lv_indev_scroll.c ****         case LV_SCROLL_SNAP_START:
 1639              		.loc 1 373 9 view .LVU523
 373:Middlewares/lvgl/src/core/lv_indev_scroll.c ****         case LV_SCROLL_SNAP_START:
 1640              		.loc 1 373 16 is_stmt 0 view .LVU524
 1641 009e 2846     		mov	r0, r5
 1642 00a0 FFF7FEFF 		bl	lv_obj_get_scroll_snap_x
 1643              	.LVL172:
 373:Middlewares/lvgl/src/core/lv_indev_scroll.c ****         case LV_SCROLL_SNAP_START:
 1644              		.loc 1 373 9 view .LVU525
 1645 00a4 0228     		cmp	r0, #2
 1646 00a6 4DD0     		beq	.L112
 1647 00a8 0328     		cmp	r0, #3
 1648 00aa 5DD0     		beq	.L113
 1649 00ac 0128     		cmp	r0, #1
 1650 00ae 37D0     		beq	.L122
ARM GAS  /tmp/ccHFTBsZ.s 			page 51


 389:Middlewares/lvgl/src/core/lv_indev_scroll.c ****             proc->types.pointer.scroll_area.x2 = LV_COORD_MAX;
 1651              		.loc 1 389 13 is_stmt 1 view .LVU526
 389:Middlewares/lvgl/src/core/lv_indev_scroll.c ****             proc->types.pointer.scroll_area.x2 = LV_COORD_MAX;
 1652              		.loc 1 389 48 is_stmt 0 view .LVU527
 1653 00b0 4FF42043 		mov	r3, #40960
 1654 00b4 2386     		strh	r3, [r4, #48]	@ movhi
 390:Middlewares/lvgl/src/core/lv_indev_scroll.c ****             break;
 1655              		.loc 1 390 13 is_stmt 1 view .LVU528
 390:Middlewares/lvgl/src/core/lv_indev_scroll.c ****             break;
 1656              		.loc 1 390 48 is_stmt 0 view .LVU529
 1657 00b6 4FF4C043 		mov	r3, #24576
 1658 00ba A386     		strh	r3, [r4, #52]	@ movhi
 391:Middlewares/lvgl/src/core/lv_indev_scroll.c ****         }
 1659              		.loc 1 391 13 is_stmt 1 view .LVU530
 1660 00bc B2E7     		b	.L106
 1661              	.L107:
 358:Middlewares/lvgl/src/core/lv_indev_scroll.c ****             proc->types.pointer.scroll_area.y2 = find_snap_point_y(obj, LV_COORD_MIN, obj->coords.y
 1662              		.loc 1 358 13 view .LVU531
 358:Middlewares/lvgl/src/core/lv_indev_scroll.c ****             proc->types.pointer.scroll_area.y2 = find_snap_point_y(obj, LV_COORD_MIN, obj->coords.y
 1663              		.loc 1 358 50 is_stmt 0 view .LVU532
 1664 00be 0023     		movs	r3, #0
 1665 00c0 4FF4C042 		mov	r2, #24576
 1666 00c4 B5F91A10 		ldrsh	r1, [r5, #26]
 1667 00c8 2846     		mov	r0, r5
 1668 00ca FFF7FEFF 		bl	find_snap_point_y
 1669              	.LVL173:
 358:Middlewares/lvgl/src/core/lv_indev_scroll.c ****             proc->types.pointer.scroll_area.y2 = find_snap_point_y(obj, LV_COORD_MIN, obj->coords.y
 1670              		.loc 1 358 48 view .LVU533
 1671 00ce 6086     		strh	r0, [r4, #50]	@ movhi
 359:Middlewares/lvgl/src/core/lv_indev_scroll.c ****             break;
 1672              		.loc 1 359 13 is_stmt 1 view .LVU534
 359:Middlewares/lvgl/src/core/lv_indev_scroll.c ****             break;
 1673              		.loc 1 359 50 is_stmt 0 view .LVU535
 1674 00d0 0023     		movs	r3, #0
 1675 00d2 B5F91A20 		ldrsh	r2, [r5, #26]
 1676 00d6 3449     		ldr	r1, .L125
 1677 00d8 2846     		mov	r0, r5
 1678 00da FFF7FEFF 		bl	find_snap_point_y
 1679              	.LVL174:
 359:Middlewares/lvgl/src/core/lv_indev_scroll.c ****             break;
 1680              		.loc 1 359 48 view .LVU536
 1681 00de E086     		strh	r0, [r4, #54]	@ movhi
 360:Middlewares/lvgl/src/core/lv_indev_scroll.c ****         case LV_SCROLL_SNAP_CENTER: {
 1682              		.loc 1 360 13 is_stmt 1 view .LVU537
 1683 00e0 DDE7     		b	.L110
 1684              	.L108:
 1685              	.LBB78:
 362:Middlewares/lvgl/src/core/lv_indev_scroll.c ****             proc->types.pointer.scroll_area.y1 = find_snap_point_y(obj, y_mid + 1, LV_COORD_MAX, 0)
 1686              		.loc 1 362 13 view .LVU538
 362:Middlewares/lvgl/src/core/lv_indev_scroll.c ****             proc->types.pointer.scroll_area.y1 = find_snap_point_y(obj, y_mid + 1, LV_COORD_MAX, 0)
 1687              		.loc 1 362 43 is_stmt 0 view .LVU539
 1688 00e2 EE8A     		ldrh	r6, [r5, #22]
 1689              	.LVL175:
 1690              	.LBB79:
 1691              	.LBI79:
 143:Middlewares/lvgl/src/core/../misc/../font/../misc/lv_area.h **** {
 1692              		.loc 3 143 26 is_stmt 1 view .LVU540
ARM GAS  /tmp/ccHFTBsZ.s 			page 52


 1693              	.LBB80:
 1694              		.loc 3 145 5 view .LVU541
 1695              		.loc 3 145 31 is_stmt 0 view .LVU542
 1696 00e4 6B8B     		ldrh	r3, [r5, #26]
 1697              		.loc 3 145 36 view .LVU543
 1698 00e6 9B1B     		subs	r3, r3, r6
 1699 00e8 9BB2     		uxth	r3, r3
 1700              		.loc 3 145 49 view .LVU544
 1701 00ea 0133     		adds	r3, r3, #1
 1702              		.loc 3 145 12 view .LVU545
 1703 00ec 1BB2     		sxth	r3, r3
 1704              	.LVL176:
 1705              		.loc 3 145 12 view .LVU546
 1706              	.LBE80:
 1707              	.LBE79:
 362:Middlewares/lvgl/src/core/lv_indev_scroll.c ****             proc->types.pointer.scroll_area.y1 = find_snap_point_y(obj, y_mid + 1, LV_COORD_MAX, 0)
 1708              		.loc 1 362 47 view .LVU547
 1709 00ee 002B     		cmp	r3, #0
 1710 00f0 14DB     		blt	.L123
 1711              	.L111:
 1712 00f2 06EB6306 		add	r6, r6, r3, asr #1
 1713 00f6 B6B2     		uxth	r6, r6
 1714              	.LVL177:
 363:Middlewares/lvgl/src/core/lv_indev_scroll.c ****             proc->types.pointer.scroll_area.y2 = find_snap_point_y(obj, LV_COORD_MIN, y_mid - 1, 0)
 1715              		.loc 1 363 13 is_stmt 1 view .LVU548
 363:Middlewares/lvgl/src/core/lv_indev_scroll.c ****             proc->types.pointer.scroll_area.y2 = find_snap_point_y(obj, LV_COORD_MIN, y_mid - 1, 0)
 1716              		.loc 1 363 79 is_stmt 0 view .LVU549
 1717 00f8 711C     		adds	r1, r6, #1
 363:Middlewares/lvgl/src/core/lv_indev_scroll.c ****             proc->types.pointer.scroll_area.y2 = find_snap_point_y(obj, LV_COORD_MIN, y_mid - 1, 0)
 1718              		.loc 1 363 50 view .LVU550
 1719 00fa 0023     		movs	r3, #0
 1720 00fc 4FF4C042 		mov	r2, #24576
 1721 0100 09B2     		sxth	r1, r1
 1722 0102 2846     		mov	r0, r5
 1723 0104 FFF7FEFF 		bl	find_snap_point_y
 1724              	.LVL178:
 363:Middlewares/lvgl/src/core/lv_indev_scroll.c ****             proc->types.pointer.scroll_area.y2 = find_snap_point_y(obj, LV_COORD_MIN, y_mid - 1, 0)
 1725              		.loc 1 363 48 view .LVU551
 1726 0108 6086     		strh	r0, [r4, #50]	@ movhi
 364:Middlewares/lvgl/src/core/lv_indev_scroll.c ****             break;
 1727              		.loc 1 364 13 is_stmt 1 view .LVU552
 364:Middlewares/lvgl/src/core/lv_indev_scroll.c ****             break;
 1728              		.loc 1 364 93 is_stmt 0 view .LVU553
 1729 010a 721E     		subs	r2, r6, #1
 364:Middlewares/lvgl/src/core/lv_indev_scroll.c ****             break;
 1730              		.loc 1 364 50 view .LVU554
 1731 010c 0023     		movs	r3, #0
 1732 010e 12B2     		sxth	r2, r2
 1733 0110 2549     		ldr	r1, .L125
 1734 0112 2846     		mov	r0, r5
 1735 0114 FFF7FEFF 		bl	find_snap_point_y
 1736              	.LVL179:
 364:Middlewares/lvgl/src/core/lv_indev_scroll.c ****             break;
 1737              		.loc 1 364 48 view .LVU555
 1738 0118 E086     		strh	r0, [r4, #54]	@ movhi
 365:Middlewares/lvgl/src/core/lv_indev_scroll.c ****         }
 1739              		.loc 1 365 13 is_stmt 1 view .LVU556
ARM GAS  /tmp/ccHFTBsZ.s 			page 53


 1740 011a C0E7     		b	.L110
 1741              	.LVL180:
 1742              	.L123:
 362:Middlewares/lvgl/src/core/lv_indev_scroll.c ****             proc->types.pointer.scroll_area.y1 = find_snap_point_y(obj, y_mid + 1, LV_COORD_MAX, 0)
 1743              		.loc 1 362 47 is_stmt 0 view .LVU557
 1744 011c 0133     		adds	r3, r3, #1
 1745 011e E8E7     		b	.L111
 1746              	.L122:
 362:Middlewares/lvgl/src/core/lv_indev_scroll.c ****             proc->types.pointer.scroll_area.y1 = find_snap_point_y(obj, y_mid + 1, LV_COORD_MAX, 0)
 1747              		.loc 1 362 47 view .LVU558
 1748              	.LBE78:
 375:Middlewares/lvgl/src/core/lv_indev_scroll.c ****             proc->types.pointer.scroll_area.x2 = find_snap_point_x(obj, LV_COORD_MIN, obj->coords.x
 1749              		.loc 1 375 13 is_stmt 1 view .LVU559
 375:Middlewares/lvgl/src/core/lv_indev_scroll.c ****             proc->types.pointer.scroll_area.x2 = find_snap_point_x(obj, LV_COORD_MIN, obj->coords.x
 1750              		.loc 1 375 50 is_stmt 0 view .LVU560
 1751 0120 0023     		movs	r3, #0
 1752 0122 4FF4C042 		mov	r2, #24576
 1753 0126 B5F91410 		ldrsh	r1, [r5, #20]
 1754 012a 2846     		mov	r0, r5
 1755 012c FFF7FEFF 		bl	find_snap_point_x
 1756              	.LVL181:
 375:Middlewares/lvgl/src/core/lv_indev_scroll.c ****             proc->types.pointer.scroll_area.x2 = find_snap_point_x(obj, LV_COORD_MIN, obj->coords.x
 1757              		.loc 1 375 48 view .LVU561
 1758 0130 2086     		strh	r0, [r4, #48]	@ movhi
 376:Middlewares/lvgl/src/core/lv_indev_scroll.c ****             break;
 1759              		.loc 1 376 13 is_stmt 1 view .LVU562
 376:Middlewares/lvgl/src/core/lv_indev_scroll.c ****             break;
 1760              		.loc 1 376 50 is_stmt 0 view .LVU563
 1761 0132 0023     		movs	r3, #0
 1762 0134 B5F91420 		ldrsh	r2, [r5, #20]
 1763 0138 1B49     		ldr	r1, .L125
 1764 013a 2846     		mov	r0, r5
 1765 013c FFF7FEFF 		bl	find_snap_point_x
 1766              	.LVL182:
 376:Middlewares/lvgl/src/core/lv_indev_scroll.c ****             break;
 1767              		.loc 1 376 48 view .LVU564
 1768 0140 A086     		strh	r0, [r4, #52]	@ movhi
 377:Middlewares/lvgl/src/core/lv_indev_scroll.c ****         case LV_SCROLL_SNAP_END:
 1769              		.loc 1 377 13 is_stmt 1 view .LVU565
 1770 0142 6FE7     		b	.L106
 1771              	.L112:
 379:Middlewares/lvgl/src/core/lv_indev_scroll.c ****             proc->types.pointer.scroll_area.x2 = find_snap_point_x(obj, LV_COORD_MIN, obj->coords.x
 1772              		.loc 1 379 13 view .LVU566
 379:Middlewares/lvgl/src/core/lv_indev_scroll.c ****             proc->types.pointer.scroll_area.x2 = find_snap_point_x(obj, LV_COORD_MIN, obj->coords.x
 1773              		.loc 1 379 50 is_stmt 0 view .LVU567
 1774 0144 0023     		movs	r3, #0
 1775 0146 4FF4C042 		mov	r2, #24576
 1776 014a B5F91810 		ldrsh	r1, [r5, #24]
 1777 014e 2846     		mov	r0, r5
 1778 0150 FFF7FEFF 		bl	find_snap_point_x
 1779              	.LVL183:
 379:Middlewares/lvgl/src/core/lv_indev_scroll.c ****             proc->types.pointer.scroll_area.x2 = find_snap_point_x(obj, LV_COORD_MIN, obj->coords.x
 1780              		.loc 1 379 48 view .LVU568
 1781 0154 2086     		strh	r0, [r4, #48]	@ movhi
 380:Middlewares/lvgl/src/core/lv_indev_scroll.c ****             break;
 1782              		.loc 1 380 13 is_stmt 1 view .LVU569
 380:Middlewares/lvgl/src/core/lv_indev_scroll.c ****             break;
ARM GAS  /tmp/ccHFTBsZ.s 			page 54


 1783              		.loc 1 380 50 is_stmt 0 view .LVU570
 1784 0156 0023     		movs	r3, #0
 1785 0158 B5F91820 		ldrsh	r2, [r5, #24]
 1786 015c 1249     		ldr	r1, .L125
 1787 015e 2846     		mov	r0, r5
 1788 0160 FFF7FEFF 		bl	find_snap_point_x
 1789              	.LVL184:
 380:Middlewares/lvgl/src/core/lv_indev_scroll.c ****             break;
 1790              		.loc 1 380 48 view .LVU571
 1791 0164 A086     		strh	r0, [r4, #52]	@ movhi
 381:Middlewares/lvgl/src/core/lv_indev_scroll.c ****         case LV_SCROLL_SNAP_CENTER: {
 1792              		.loc 1 381 13 is_stmt 1 view .LVU572
 1793 0166 5DE7     		b	.L106
 1794              	.L113:
 1795              	.LBB81:
 383:Middlewares/lvgl/src/core/lv_indev_scroll.c ****             proc->types.pointer.scroll_area.x1 = find_snap_point_x(obj, x_mid + 1, LV_COORD_MAX, 0)
 1796              		.loc 1 383 13 view .LVU573
 383:Middlewares/lvgl/src/core/lv_indev_scroll.c ****             proc->types.pointer.scroll_area.x1 = find_snap_point_x(obj, x_mid + 1, LV_COORD_MAX, 0)
 1797              		.loc 1 383 43 is_stmt 0 view .LVU574
 1798 0168 AE8A     		ldrh	r6, [r5, #20]
 1799              	.LVL185:
 1800              	.LBB82:
 1801              	.LBI82:
 133:Middlewares/lvgl/src/core/../misc/../font/../misc/lv_area.h **** {
 1802              		.loc 3 133 26 is_stmt 1 view .LVU575
 1803              	.LBB83:
 135:Middlewares/lvgl/src/core/../misc/../font/../misc/lv_area.h **** }
 1804              		.loc 3 135 5 view .LVU576
 135:Middlewares/lvgl/src/core/../misc/../font/../misc/lv_area.h **** }
 1805              		.loc 3 135 31 is_stmt 0 view .LVU577
 1806 016a 2B8B     		ldrh	r3, [r5, #24]
 135:Middlewares/lvgl/src/core/../misc/../font/../misc/lv_area.h **** }
 1807              		.loc 3 135 36 view .LVU578
 1808 016c 9B1B     		subs	r3, r3, r6
 1809 016e 9BB2     		uxth	r3, r3
 135:Middlewares/lvgl/src/core/../misc/../font/../misc/lv_area.h **** }
 1810              		.loc 3 135 49 view .LVU579
 1811 0170 0133     		adds	r3, r3, #1
 135:Middlewares/lvgl/src/core/../misc/../font/../misc/lv_area.h **** }
 1812              		.loc 3 135 12 view .LVU580
 1813 0172 1BB2     		sxth	r3, r3
 1814              	.LVL186:
 135:Middlewares/lvgl/src/core/../misc/../font/../misc/lv_area.h **** }
 1815              		.loc 3 135 12 view .LVU581
 1816              	.LBE83:
 1817              	.LBE82:
 383:Middlewares/lvgl/src/core/lv_indev_scroll.c ****             proc->types.pointer.scroll_area.x1 = find_snap_point_x(obj, x_mid + 1, LV_COORD_MAX, 0)
 1818              		.loc 1 383 47 view .LVU582
 1819 0174 002B     		cmp	r3, #0
 1820 0176 14DB     		blt	.L124
 1821              	.L115:
 1822 0178 06EB6306 		add	r6, r6, r3, asr #1
 1823 017c B6B2     		uxth	r6, r6
 1824              	.LVL187:
 384:Middlewares/lvgl/src/core/lv_indev_scroll.c ****             proc->types.pointer.scroll_area.x2 = find_snap_point_x(obj, LV_COORD_MIN, x_mid - 1, 0)
 1825              		.loc 1 384 13 is_stmt 1 view .LVU583
 384:Middlewares/lvgl/src/core/lv_indev_scroll.c ****             proc->types.pointer.scroll_area.x2 = find_snap_point_x(obj, LV_COORD_MIN, x_mid - 1, 0)
ARM GAS  /tmp/ccHFTBsZ.s 			page 55


 1826              		.loc 1 384 79 is_stmt 0 view .LVU584
 1827 017e 711C     		adds	r1, r6, #1
 384:Middlewares/lvgl/src/core/lv_indev_scroll.c ****             proc->types.pointer.scroll_area.x2 = find_snap_point_x(obj, LV_COORD_MIN, x_mid - 1, 0)
 1828              		.loc 1 384 50 view .LVU585
 1829 0180 0023     		movs	r3, #0
 1830 0182 4FF4C042 		mov	r2, #24576
 1831 0186 09B2     		sxth	r1, r1
 1832 0188 2846     		mov	r0, r5
 1833 018a FFF7FEFF 		bl	find_snap_point_x
 1834              	.LVL188:
 384:Middlewares/lvgl/src/core/lv_indev_scroll.c ****             proc->types.pointer.scroll_area.x2 = find_snap_point_x(obj, LV_COORD_MIN, x_mid - 1, 0)
 1835              		.loc 1 384 48 view .LVU586
 1836 018e 2086     		strh	r0, [r4, #48]	@ movhi
 385:Middlewares/lvgl/src/core/lv_indev_scroll.c ****             break;
 1837              		.loc 1 385 13 is_stmt 1 view .LVU587
 385:Middlewares/lvgl/src/core/lv_indev_scroll.c ****             break;
 1838              		.loc 1 385 93 is_stmt 0 view .LVU588
 1839 0190 721E     		subs	r2, r6, #1
 385:Middlewares/lvgl/src/core/lv_indev_scroll.c ****             break;
 1840              		.loc 1 385 50 view .LVU589
 1841 0192 0023     		movs	r3, #0
 1842 0194 12B2     		sxth	r2, r2
 1843 0196 0449     		ldr	r1, .L125
 1844 0198 2846     		mov	r0, r5
 1845 019a FFF7FEFF 		bl	find_snap_point_x
 1846              	.LVL189:
 385:Middlewares/lvgl/src/core/lv_indev_scroll.c ****             break;
 1847              		.loc 1 385 48 view .LVU590
 1848 019e A086     		strh	r0, [r4, #52]	@ movhi
 386:Middlewares/lvgl/src/core/lv_indev_scroll.c ****         }
 1849              		.loc 1 386 13 is_stmt 1 view .LVU591
 1850 01a0 40E7     		b	.L106
 1851              	.LVL190:
 1852              	.L124:
 383:Middlewares/lvgl/src/core/lv_indev_scroll.c ****             proc->types.pointer.scroll_area.x1 = find_snap_point_x(obj, x_mid + 1, LV_COORD_MAX, 0)
 1853              		.loc 1 383 47 is_stmt 0 view .LVU592
 1854 01a2 0133     		adds	r3, r3, #1
 1855 01a4 E8E7     		b	.L115
 1856              	.L126:
 1857 01a6 00BF     		.align	2
 1858              	.L125:
 1859 01a8 00A0FFFF 		.word	-24576
 1860              	.LBE81:
 1861              		.cfi_endproc
 1862              	.LFE152:
 1864              		.section	.text.elastic_diff,"ax",%progbits
 1865              		.align	1
 1866              		.syntax unified
 1867              		.thumb
 1868              		.thumb_func
 1870              	elastic_diff:
 1871              	.LVL191:
 1872              	.LFB158:
 567:Middlewares/lvgl/src/core/lv_indev_scroll.c **** 
 568:Middlewares/lvgl/src/core/lv_indev_scroll.c **** static lv_coord_t elastic_diff(lv_obj_t * scroll_obj, lv_coord_t diff, lv_coord_t scroll_start, lv_
 569:Middlewares/lvgl/src/core/lv_indev_scroll.c **** {
 1873              		.loc 1 569 1 is_stmt 1 view -0
ARM GAS  /tmp/ccHFTBsZ.s 			page 56


 1874              		.cfi_startproc
 1875              		@ args = 4, pretend = 0, frame = 0
 1876              		@ frame_needed = 0, uses_anonymous_args = 0
 1877              		.loc 1 569 1 is_stmt 0 view .LVU594
 1878 0000 2DE9F84F 		push	{r3, r4, r5, r6, r7, r8, r9, r10, fp, lr}
 1879              	.LCFI19:
 1880              		.cfi_def_cfa_offset 40
 1881              		.cfi_offset 3, -40
 1882              		.cfi_offset 4, -36
 1883              		.cfi_offset 5, -32
 1884              		.cfi_offset 6, -28
 1885              		.cfi_offset 7, -24
 1886              		.cfi_offset 8, -20
 1887              		.cfi_offset 9, -16
 1888              		.cfi_offset 10, -12
 1889              		.cfi_offset 11, -8
 1890              		.cfi_offset 14, -4
 1891 0004 0546     		mov	r5, r0
 1892 0006 0C46     		mov	r4, r1
 1893 0008 9046     		mov	r8, r2
 1894 000a 1E46     		mov	r6, r3
 1895 000c 9DF828A0 		ldrb	r10, [sp, #40]	@ zero_extendqisi2
 570:Middlewares/lvgl/src/core/lv_indev_scroll.c ****     if(lv_obj_has_flag(scroll_obj, LV_OBJ_FLAG_SCROLL_ELASTIC)) {
 1896              		.loc 1 570 5 is_stmt 1 view .LVU595
 1897              		.loc 1 570 8 is_stmt 0 view .LVU596
 1898 0010 2021     		movs	r1, #32
 1899              	.LVL192:
 1900              		.loc 1 570 8 view .LVU597
 1901 0012 FFF7FEFF 		bl	lv_obj_has_flag
 1902              	.LVL193:
 1903              		.loc 1 570 7 view .LVU598
 1904 0016 0028     		cmp	r0, #0
 1905 0018 00F0CF80 		beq	.L128
 1906              	.LBB84:
 571:Middlewares/lvgl/src/core/lv_indev_scroll.c ****         /*If there is snapping in the current direction don't use the elastic factor because
 572:Middlewares/lvgl/src/core/lv_indev_scroll.c ****          *it's natural that the first and last items are scrolled (snapped) in.*/
 573:Middlewares/lvgl/src/core/lv_indev_scroll.c ****         lv_scroll_snap_t snap;
 1907              		.loc 1 573 9 is_stmt 1 view .LVU599
 574:Middlewares/lvgl/src/core/lv_indev_scroll.c ****         snap = dir == LV_DIR_HOR ? lv_obj_get_scroll_snap_x(scroll_obj) : lv_obj_get_scroll_snap_y(
 1908              		.loc 1 574 9 view .LVU600
 1909              		.loc 1 574 14 is_stmt 0 view .LVU601
 1910 001c BAF1030F 		cmp	r10, #3
 1911 0020 29D0     		beq	.L157
 1912              		.loc 1 574 75 discriminator 2 view .LVU602
 1913 0022 2846     		mov	r0, r5
 1914 0024 FFF7FEFF 		bl	lv_obj_get_scroll_snap_y
 1915              	.LVL194:
 1916 0028 0746     		mov	r7, r0
 1917              	.L130:
 1918              	.LVL195:
 575:Middlewares/lvgl/src/core/lv_indev_scroll.c **** 
 576:Middlewares/lvgl/src/core/lv_indev_scroll.c ****         lv_obj_t * act_obj = lv_indev_get_obj_act();
 1919              		.loc 1 576 9 is_stmt 1 discriminator 4 view .LVU603
 1920              		.loc 1 576 30 is_stmt 0 discriminator 4 view .LVU604
 1921 002a FFF7FEFF 		bl	lv_indev_get_obj_act
 1922              	.LVL196:
 1923 002e 8146     		mov	r9, r0
ARM GAS  /tmp/ccHFTBsZ.s 			page 57


 1924              	.LVL197:
 577:Middlewares/lvgl/src/core/lv_indev_scroll.c ****         lv_coord_t snap_point = 0;
 1925              		.loc 1 577 9 is_stmt 1 discriminator 4 view .LVU605
 578:Middlewares/lvgl/src/core/lv_indev_scroll.c ****         lv_coord_t act_obj_point = 0;
 1926              		.loc 1 578 9 discriminator 4 view .LVU606
 579:Middlewares/lvgl/src/core/lv_indev_scroll.c **** 
 580:Middlewares/lvgl/src/core/lv_indev_scroll.c ****         if(dir == LV_DIR_HOR) {
 1927              		.loc 1 580 9 discriminator 4 view .LVU607
 1928              		.loc 1 580 11 is_stmt 0 discriminator 4 view .LVU608
 1929 0030 BAF1030F 		cmp	r10, #3
 1930 0034 24D0     		beq	.L158
 1931              	.LBB85:
 581:Middlewares/lvgl/src/core/lv_indev_scroll.c ****             lv_coord_t pad_left = lv_obj_get_style_pad_left(scroll_obj, LV_PART_MAIN);
 582:Middlewares/lvgl/src/core/lv_indev_scroll.c ****             lv_coord_t pad_right = lv_obj_get_style_pad_right(scroll_obj, LV_PART_MAIN);
 583:Middlewares/lvgl/src/core/lv_indev_scroll.c **** 
 584:Middlewares/lvgl/src/core/lv_indev_scroll.c ****             switch(snap) {
 585:Middlewares/lvgl/src/core/lv_indev_scroll.c ****             case LV_SCROLL_SNAP_CENTER:
 586:Middlewares/lvgl/src/core/lv_indev_scroll.c ****                 snap_point = pad_left + (lv_area_get_width(&scroll_obj->coords) - pad_left - pad_ri
 587:Middlewares/lvgl/src/core/lv_indev_scroll.c ****                 act_obj_point = lv_area_get_width(&act_obj->coords) / 2 + act_obj->coords.x1;
 588:Middlewares/lvgl/src/core/lv_indev_scroll.c ****                 break;
 589:Middlewares/lvgl/src/core/lv_indev_scroll.c ****             case LV_SCROLL_SNAP_START:
 590:Middlewares/lvgl/src/core/lv_indev_scroll.c ****                 snap_point = scroll_obj->coords.x1 + pad_left;
 591:Middlewares/lvgl/src/core/lv_indev_scroll.c ****                 act_obj_point = act_obj->coords.x1;
 592:Middlewares/lvgl/src/core/lv_indev_scroll.c ****                 break;
 593:Middlewares/lvgl/src/core/lv_indev_scroll.c ****             case LV_SCROLL_SNAP_END:
 594:Middlewares/lvgl/src/core/lv_indev_scroll.c ****                 snap_point = scroll_obj->coords.x2 - pad_right;
 595:Middlewares/lvgl/src/core/lv_indev_scroll.c ****                 act_obj_point = act_obj->coords.x2;
 596:Middlewares/lvgl/src/core/lv_indev_scroll.c ****                 break;
 597:Middlewares/lvgl/src/core/lv_indev_scroll.c ****             }
 598:Middlewares/lvgl/src/core/lv_indev_scroll.c ****         } else {
 599:Middlewares/lvgl/src/core/lv_indev_scroll.c ****             lv_coord_t pad_top = lv_obj_get_style_pad_top(scroll_obj, LV_PART_MAIN);
 1932              		.loc 1 599 13 is_stmt 1 view .LVU609
 1933              	.LVL198:
 1934              	.LBB86:
 1935              	.LBI86:
  91:Middlewares/lvgl/src/core/lv_obj_style_gen.h **** {
 1936              		.loc 2 91 26 view .LVU610
 1937              	.LBB87:
  93:Middlewares/lvgl/src/core/lv_obj_style_gen.h ****     return (lv_coord_t)v.num;
 1938              		.loc 2 93 5 view .LVU611
  93:Middlewares/lvgl/src/core/lv_obj_style_gen.h ****     return (lv_coord_t)v.num;
 1939              		.loc 2 93 26 is_stmt 0 view .LVU612
 1940 0036 41F21002 		movw	r2, #4112
 1941 003a 0021     		movs	r1, #0
 1942 003c 2846     		mov	r0, r5
 1943              	.LVL199:
  93:Middlewares/lvgl/src/core/lv_obj_style_gen.h ****     return (lv_coord_t)v.num;
 1944              		.loc 2 93 26 view .LVU613
 1945 003e FFF7FEFF 		bl	lv_obj_get_style_prop
 1946              	.LVL200:
 1947 0042 8246     		mov	r10, r0
  94:Middlewares/lvgl/src/core/lv_obj_style_gen.h **** }
 1948              		.loc 2 94 5 is_stmt 1 view .LVU614
  94:Middlewares/lvgl/src/core/lv_obj_style_gen.h **** }
 1949              		.loc 2 94 12 is_stmt 0 view .LVU615
 1950 0044 0FFA80FB 		sxth	fp, r0
 1951              	.LVL201:
ARM GAS  /tmp/ccHFTBsZ.s 			page 58


  94:Middlewares/lvgl/src/core/lv_obj_style_gen.h **** }
 1952              		.loc 2 94 12 view .LVU616
 1953              	.LBE87:
 1954              	.LBE86:
 600:Middlewares/lvgl/src/core/lv_indev_scroll.c ****             lv_coord_t pad_bottom = lv_obj_get_style_pad_bottom(scroll_obj, LV_PART_MAIN);
 1955              		.loc 1 600 13 is_stmt 1 view .LVU617
 1956              	.LBB88:
 1957              	.LBI88:
  97:Middlewares/lvgl/src/core/lv_obj_style_gen.h **** {
 1958              		.loc 2 97 26 view .LVU618
 1959              	.LBB89:
  99:Middlewares/lvgl/src/core/lv_obj_style_gen.h ****     return (lv_coord_t)v.num;
 1960              		.loc 2 99 5 view .LVU619
  99:Middlewares/lvgl/src/core/lv_obj_style_gen.h ****     return (lv_coord_t)v.num;
 1961              		.loc 2 99 26 is_stmt 0 view .LVU620
 1962 0048 41F21102 		movw	r2, #4113
 1963 004c 0021     		movs	r1, #0
 1964 004e 2846     		mov	r0, r5
 1965 0050 FFF7FEFF 		bl	lv_obj_get_style_prop
 1966              	.LVL202:
 100:Middlewares/lvgl/src/core/lv_obj_style_gen.h **** }
 1967              		.loc 2 100 5 is_stmt 1 view .LVU621
 100:Middlewares/lvgl/src/core/lv_obj_style_gen.h **** }
 1968              		.loc 2 100 12 is_stmt 0 view .LVU622
 1969 0054 01B2     		sxth	r1, r0
 1970              	.LVL203:
 100:Middlewares/lvgl/src/core/lv_obj_style_gen.h **** }
 1971              		.loc 2 100 12 view .LVU623
 1972              	.LBE89:
 1973              	.LBE88:
 601:Middlewares/lvgl/src/core/lv_indev_scroll.c **** 
 602:Middlewares/lvgl/src/core/lv_indev_scroll.c ****             switch(snap) {
 1974              		.loc 1 602 13 is_stmt 1 view .LVU624
 1975 0056 022F     		cmp	r7, #2
 1976 0058 7FD0     		beq	.L138
 1977 005a 032F     		cmp	r7, #3
 1978 005c 56D0     		beq	.L139
 1979 005e 012F     		cmp	r7, #1
 1980 0060 75D0     		beq	.L140
 1981 0062 0022     		movs	r2, #0
 1982 0064 1346     		mov	r3, r2
 1983              	.LVL204:
 1984              	.L135:
 1985              		.loc 1 602 13 is_stmt 0 view .LVU625
 1986              	.LBE85:
 603:Middlewares/lvgl/src/core/lv_indev_scroll.c ****             case LV_SCROLL_SNAP_CENTER:
 604:Middlewares/lvgl/src/core/lv_indev_scroll.c ****                 snap_point = pad_top + (lv_area_get_height(&scroll_obj->coords) - pad_top - pad_bot
 605:Middlewares/lvgl/src/core/lv_indev_scroll.c ****                 act_obj_point = lv_area_get_height(&act_obj->coords) / 2 + act_obj->coords.y1;
 606:Middlewares/lvgl/src/core/lv_indev_scroll.c ****                 break;
 607:Middlewares/lvgl/src/core/lv_indev_scroll.c ****             case LV_SCROLL_SNAP_START:
 608:Middlewares/lvgl/src/core/lv_indev_scroll.c ****                 snap_point = scroll_obj->coords.y1 + pad_top;
 609:Middlewares/lvgl/src/core/lv_indev_scroll.c ****                 act_obj_point = act_obj->coords.y1;
 610:Middlewares/lvgl/src/core/lv_indev_scroll.c ****                 break;
 611:Middlewares/lvgl/src/core/lv_indev_scroll.c ****             case LV_SCROLL_SNAP_END:
 612:Middlewares/lvgl/src/core/lv_indev_scroll.c ****                 snap_point = scroll_obj->coords.y2 - pad_bottom;
 613:Middlewares/lvgl/src/core/lv_indev_scroll.c ****                 act_obj_point = act_obj->coords.y2;
 614:Middlewares/lvgl/src/core/lv_indev_scroll.c ****                 break;
ARM GAS  /tmp/ccHFTBsZ.s 			page 59


 615:Middlewares/lvgl/src/core/lv_indev_scroll.c ****             }
 616:Middlewares/lvgl/src/core/lv_indev_scroll.c ****         }
 617:Middlewares/lvgl/src/core/lv_indev_scroll.c **** 
 618:Middlewares/lvgl/src/core/lv_indev_scroll.c ****         if(scroll_end < 0) {
 1987              		.loc 1 618 9 is_stmt 1 view .LVU626
 1988              		.loc 1 618 11 is_stmt 0 view .LVU627
 1989 0066 002E     		cmp	r6, #0
 1990 0068 7DDB     		blt	.L159
 619:Middlewares/lvgl/src/core/lv_indev_scroll.c ****             if(snap != LV_SCROLL_SNAP_NONE && act_obj_point > snap_point) return diff;
 620:Middlewares/lvgl/src/core/lv_indev_scroll.c **** 
 621:Middlewares/lvgl/src/core/lv_indev_scroll.c ****             /*Rounding*/
 622:Middlewares/lvgl/src/core/lv_indev_scroll.c ****             if(diff < 0) diff -= ELASTIC_SLOWNESS_FACTOR / 2;
 623:Middlewares/lvgl/src/core/lv_indev_scroll.c ****             if(diff > 0) diff += ELASTIC_SLOWNESS_FACTOR / 2;
 624:Middlewares/lvgl/src/core/lv_indev_scroll.c ****             return diff / ELASTIC_SLOWNESS_FACTOR;
 625:Middlewares/lvgl/src/core/lv_indev_scroll.c ****         }
 626:Middlewares/lvgl/src/core/lv_indev_scroll.c ****         else if(scroll_start < 0) {
 1991              		.loc 1 626 14 is_stmt 1 view .LVU628
 1992              		.loc 1 626 16 is_stmt 0 view .LVU629
 1993 006a B8F1000F 		cmp	r8, #0
 1994 006e C0F28F80 		blt	.L160
 1995 0072 2046     		mov	r0, r4
 1996 0074 A8E0     		b	.L144
 1997              	.LVL205:
 1998              	.L157:
 574:Middlewares/lvgl/src/core/lv_indev_scroll.c **** 
 1999              		.loc 1 574 36 discriminator 1 view .LVU630
 2000 0076 2846     		mov	r0, r5
 2001 0078 FFF7FEFF 		bl	lv_obj_get_scroll_snap_x
 2002              	.LVL206:
 2003 007c 0746     		mov	r7, r0
 2004 007e D4E7     		b	.L130
 2005              	.LVL207:
 2006              	.L158:
 2007              	.LBB94:
 581:Middlewares/lvgl/src/core/lv_indev_scroll.c ****             lv_coord_t pad_right = lv_obj_get_style_pad_right(scroll_obj, LV_PART_MAIN);
 2008              		.loc 1 581 13 is_stmt 1 view .LVU631
 2009              	.LBB95:
 2010              	.LBI95:
 103:Middlewares/lvgl/src/core/lv_obj_style_gen.h **** {
 2011              		.loc 2 103 26 view .LVU632
 2012              	.LBB96:
 105:Middlewares/lvgl/src/core/lv_obj_style_gen.h ****     return (lv_coord_t)v.num;
 2013              		.loc 2 105 5 view .LVU633
 105:Middlewares/lvgl/src/core/lv_obj_style_gen.h ****     return (lv_coord_t)v.num;
 2014              		.loc 2 105 26 is_stmt 0 view .LVU634
 2015 0080 41F21202 		movw	r2, #4114
 2016 0084 0021     		movs	r1, #0
 2017 0086 2846     		mov	r0, r5
 2018              	.LVL208:
 105:Middlewares/lvgl/src/core/lv_obj_style_gen.h ****     return (lv_coord_t)v.num;
 2019              		.loc 2 105 26 view .LVU635
 2020 0088 FFF7FEFF 		bl	lv_obj_get_style_prop
 2021              	.LVL209:
 2022 008c 8246     		mov	r10, r0
 106:Middlewares/lvgl/src/core/lv_obj_style_gen.h **** }
 2023              		.loc 2 106 5 is_stmt 1 view .LVU636
 106:Middlewares/lvgl/src/core/lv_obj_style_gen.h **** }
ARM GAS  /tmp/ccHFTBsZ.s 			page 60


 2024              		.loc 2 106 12 is_stmt 0 view .LVU637
 2025 008e 0FFA80FB 		sxth	fp, r0
 2026              	.LVL210:
 106:Middlewares/lvgl/src/core/lv_obj_style_gen.h **** }
 2027              		.loc 2 106 12 view .LVU638
 2028              	.LBE96:
 2029              	.LBE95:
 582:Middlewares/lvgl/src/core/lv_indev_scroll.c **** 
 2030              		.loc 1 582 13 is_stmt 1 view .LVU639
 2031              	.LBB97:
 2032              	.LBI97:
 109:Middlewares/lvgl/src/core/lv_obj_style_gen.h **** {
 2033              		.loc 2 109 26 view .LVU640
 2034              	.LBB98:
 111:Middlewares/lvgl/src/core/lv_obj_style_gen.h ****     return (lv_coord_t)v.num;
 2035              		.loc 2 111 5 view .LVU641
 111:Middlewares/lvgl/src/core/lv_obj_style_gen.h ****     return (lv_coord_t)v.num;
 2036              		.loc 2 111 26 is_stmt 0 view .LVU642
 2037 0092 41F21302 		movw	r2, #4115
 2038 0096 0021     		movs	r1, #0
 2039 0098 2846     		mov	r0, r5
 2040 009a FFF7FEFF 		bl	lv_obj_get_style_prop
 2041              	.LVL211:
 2042              		.loc 2 112 5 is_stmt 1 view .LVU643
 2043              		.loc 2 112 12 is_stmt 0 view .LVU644
 2044 009e 01B2     		sxth	r1, r0
 2045              	.LVL212:
 2046              		.loc 2 112 12 view .LVU645
 2047              	.LBE98:
 2048              	.LBE97:
 584:Middlewares/lvgl/src/core/lv_indev_scroll.c ****             case LV_SCROLL_SNAP_CENTER:
 2049              		.loc 1 584 13 is_stmt 1 view .LVU646
 2050 00a0 022F     		cmp	r7, #2
 2051 00a2 2DD0     		beq	.L132
 2052 00a4 032F     		cmp	r7, #3
 2053 00a6 04D0     		beq	.L133
 2054 00a8 012F     		cmp	r7, #1
 2055 00aa 23D0     		beq	.L134
 2056 00ac 0022     		movs	r2, #0
 2057 00ae 1346     		mov	r3, r2
 2058 00b0 D9E7     		b	.L135
 2059              	.L133:
 586:Middlewares/lvgl/src/core/lv_indev_scroll.c ****                 act_obj_point = lv_area_get_width(&act_obj->coords) / 2 + act_obj->coords.x1;
 2060              		.loc 1 586 17 view .LVU647
 2061              	.LVL213:
 2062              	.LBB99:
 2063              	.LBI99:
 133:Middlewares/lvgl/src/core/../misc/../font/../misc/lv_area.h **** {
 2064              		.loc 3 133 26 view .LVU648
 2065              	.LBB100:
 135:Middlewares/lvgl/src/core/../misc/../font/../misc/lv_area.h **** }
 2066              		.loc 3 135 5 view .LVU649
 135:Middlewares/lvgl/src/core/../misc/../font/../misc/lv_area.h **** }
 2067              		.loc 3 135 31 is_stmt 0 view .LVU650
 2068 00b2 2A8B     		ldrh	r2, [r5, #24]
 135:Middlewares/lvgl/src/core/../misc/../font/../misc/lv_area.h **** }
 2069              		.loc 3 135 44 view .LVU651
ARM GAS  /tmp/ccHFTBsZ.s 			page 61


 2070 00b4 AB8A     		ldrh	r3, [r5, #20]
 135:Middlewares/lvgl/src/core/../misc/../font/../misc/lv_area.h **** }
 2071              		.loc 3 135 36 view .LVU652
 2072 00b6 D21A     		subs	r2, r2, r3
 2073 00b8 92B2     		uxth	r2, r2
 135:Middlewares/lvgl/src/core/../misc/../font/../misc/lv_area.h **** }
 2074              		.loc 3 135 49 view .LVU653
 2075 00ba 0132     		adds	r2, r2, #1
 135:Middlewares/lvgl/src/core/../misc/../font/../misc/lv_area.h **** }
 2076              		.loc 3 135 12 view .LVU654
 2077 00bc 12B2     		sxth	r2, r2
 2078              	.LVL214:
 135:Middlewares/lvgl/src/core/../misc/../font/../misc/lv_area.h **** }
 2079              		.loc 3 135 12 view .LVU655
 2080              	.LBE100:
 2081              	.LBE99:
 586:Middlewares/lvgl/src/core/lv_indev_scroll.c ****                 act_obj_point = lv_area_get_width(&act_obj->coords) / 2 + act_obj->coords.x1;
 2082              		.loc 1 586 81 view .LVU656
 2083 00be A2EB0B02 		sub	r2, r2, fp
 586:Middlewares/lvgl/src/core/lv_indev_scroll.c ****                 act_obj_point = lv_area_get_width(&act_obj->coords) / 2 + act_obj->coords.x1;
 2084              		.loc 1 586 105 view .LVU657
 2085 00c2 521A     		subs	r2, r2, r1
 2086 00c4 12D4     		bmi	.L161
 2087              	.L136:
 586:Middlewares/lvgl/src/core/lv_indev_scroll.c ****                 act_obj_point = lv_area_get_width(&act_obj->coords) / 2 + act_obj->coords.x1;
 2088              		.loc 1 586 39 view .LVU658
 2089 00c6 0AEB6202 		add	r2, r10, r2, asr #1
 586:Middlewares/lvgl/src/core/lv_indev_scroll.c ****                 act_obj_point = lv_area_get_width(&act_obj->coords) / 2 + act_obj->coords.x1;
 2090              		.loc 1 586 109 view .LVU659
 2091 00ca 13FA82F3 		uxtah	r3, r3, r2
 586:Middlewares/lvgl/src/core/lv_indev_scroll.c ****                 act_obj_point = lv_area_get_width(&act_obj->coords) / 2 + act_obj->coords.x1;
 2092              		.loc 1 586 28 view .LVU660
 2093 00ce 1BB2     		sxth	r3, r3
 2094              	.LVL215:
 587:Middlewares/lvgl/src/core/lv_indev_scroll.c ****                 break;
 2095              		.loc 1 587 17 is_stmt 1 view .LVU661
 2096              	.LBB101:
 2097              	.LBI101:
 133:Middlewares/lvgl/src/core/../misc/../font/../misc/lv_area.h **** {
 2098              		.loc 3 133 26 view .LVU662
 2099              	.LBB102:
 135:Middlewares/lvgl/src/core/../misc/../font/../misc/lv_area.h **** }
 2100              		.loc 3 135 5 view .LVU663
 135:Middlewares/lvgl/src/core/../misc/../font/../misc/lv_area.h **** }
 2101              		.loc 3 135 31 is_stmt 0 view .LVU664
 2102 00d0 B9F81810 		ldrh	r1, [r9, #24]
 2103              	.LVL216:
 135:Middlewares/lvgl/src/core/../misc/../font/../misc/lv_area.h **** }
 2104              		.loc 3 135 44 view .LVU665
 2105 00d4 B9F81420 		ldrh	r2, [r9, #20]
 135:Middlewares/lvgl/src/core/../misc/../font/../misc/lv_area.h **** }
 2106              		.loc 3 135 36 view .LVU666
 2107 00d8 891A     		subs	r1, r1, r2
 2108 00da 89B2     		uxth	r1, r1
 135:Middlewares/lvgl/src/core/../misc/../font/../misc/lv_area.h **** }
 2109              		.loc 3 135 49 view .LVU667
 2110 00dc 0131     		adds	r1, r1, #1
ARM GAS  /tmp/ccHFTBsZ.s 			page 62


 135:Middlewares/lvgl/src/core/../misc/../font/../misc/lv_area.h **** }
 2111              		.loc 3 135 12 view .LVU668
 2112 00de 09B2     		sxth	r1, r1
 2113              	.LVL217:
 135:Middlewares/lvgl/src/core/../misc/../font/../misc/lv_area.h **** }
 2114              		.loc 3 135 12 view .LVU669
 2115              	.LBE102:
 2116              	.LBE101:
 587:Middlewares/lvgl/src/core/lv_indev_scroll.c ****                 break;
 2117              		.loc 1 587 73 view .LVU670
 2118 00e0 0029     		cmp	r1, #0
 2119 00e2 05DB     		blt	.L162
 2120              	.L137:
 2121 00e4 02EB6102 		add	r2, r2, r1, asr #1
 587:Middlewares/lvgl/src/core/lv_indev_scroll.c ****                 break;
 2122              		.loc 1 587 31 view .LVU671
 2123 00e8 12B2     		sxth	r2, r2
 2124              	.LVL218:
 588:Middlewares/lvgl/src/core/lv_indev_scroll.c ****             case LV_SCROLL_SNAP_START:
 2125              		.loc 1 588 17 is_stmt 1 view .LVU672
 2126 00ea BCE7     		b	.L135
 2127              	.LVL219:
 2128              	.L161:
 586:Middlewares/lvgl/src/core/lv_indev_scroll.c ****                 act_obj_point = lv_area_get_width(&act_obj->coords) / 2 + act_obj->coords.x1;
 2129              		.loc 1 586 105 is_stmt 0 view .LVU673
 2130 00ec 0132     		adds	r2, r2, #1
 2131 00ee EAE7     		b	.L136
 2132              	.LVL220:
 2133              	.L162:
 587:Middlewares/lvgl/src/core/lv_indev_scroll.c ****                 break;
 2134              		.loc 1 587 73 view .LVU674
 2135 00f0 0131     		adds	r1, r1, #1
 2136 00f2 F7E7     		b	.L137
 2137              	.LVL221:
 2138              	.L134:
 590:Middlewares/lvgl/src/core/lv_indev_scroll.c ****                 act_obj_point = act_obj->coords.x1;
 2139              		.loc 1 590 17 is_stmt 1 view .LVU675
 590:Middlewares/lvgl/src/core/lv_indev_scroll.c ****                 act_obj_point = act_obj->coords.x1;
 2140              		.loc 1 590 48 is_stmt 0 view .LVU676
 2141 00f4 AB8A     		ldrh	r3, [r5, #20]
 590:Middlewares/lvgl/src/core/lv_indev_scroll.c ****                 act_obj_point = act_obj->coords.x1;
 2142              		.loc 1 590 52 view .LVU677
 2143 00f6 5344     		add	r3, r3, r10
 590:Middlewares/lvgl/src/core/lv_indev_scroll.c ****                 act_obj_point = act_obj->coords.x1;
 2144              		.loc 1 590 28 view .LVU678
 2145 00f8 1BB2     		sxth	r3, r3
 2146              	.LVL222:
 591:Middlewares/lvgl/src/core/lv_indev_scroll.c ****                 break;
 2147              		.loc 1 591 17 is_stmt 1 view .LVU679
 591:Middlewares/lvgl/src/core/lv_indev_scroll.c ****                 break;
 2148              		.loc 1 591 31 is_stmt 0 view .LVU680
 2149 00fa B9F91420 		ldrsh	r2, [r9, #20]
 2150              	.LVL223:
 592:Middlewares/lvgl/src/core/lv_indev_scroll.c ****             case LV_SCROLL_SNAP_END:
 2151              		.loc 1 592 17 is_stmt 1 view .LVU681
 2152 00fe B2E7     		b	.L135
 2153              	.LVL224:
ARM GAS  /tmp/ccHFTBsZ.s 			page 63


 2154              	.L132:
 594:Middlewares/lvgl/src/core/lv_indev_scroll.c ****                 act_obj_point = act_obj->coords.x2;
 2155              		.loc 1 594 17 view .LVU682
 594:Middlewares/lvgl/src/core/lv_indev_scroll.c ****                 act_obj_point = act_obj->coords.x2;
 2156              		.loc 1 594 48 is_stmt 0 view .LVU683
 2157 0100 2B8B     		ldrh	r3, [r5, #24]
 594:Middlewares/lvgl/src/core/lv_indev_scroll.c ****                 act_obj_point = act_obj->coords.x2;
 2158              		.loc 1 594 52 view .LVU684
 2159 0102 1B1A     		subs	r3, r3, r0
 594:Middlewares/lvgl/src/core/lv_indev_scroll.c ****                 act_obj_point = act_obj->coords.x2;
 2160              		.loc 1 594 28 view .LVU685
 2161 0104 1BB2     		sxth	r3, r3
 2162              	.LVL225:
 595:Middlewares/lvgl/src/core/lv_indev_scroll.c ****                 break;
 2163              		.loc 1 595 17 is_stmt 1 view .LVU686
 595:Middlewares/lvgl/src/core/lv_indev_scroll.c ****                 break;
 2164              		.loc 1 595 31 is_stmt 0 view .LVU687
 2165 0106 B9F91820 		ldrsh	r2, [r9, #24]
 2166              	.LVL226:
 596:Middlewares/lvgl/src/core/lv_indev_scroll.c ****             }
 2167              		.loc 1 596 17 is_stmt 1 view .LVU688
 2168 010a ACE7     		b	.L135
 2169              	.LVL227:
 2170              	.L139:
 596:Middlewares/lvgl/src/core/lv_indev_scroll.c ****             }
 2171              		.loc 1 596 17 is_stmt 0 view .LVU689
 2172              	.LBE94:
 2173              	.LBB103:
 604:Middlewares/lvgl/src/core/lv_indev_scroll.c ****                 act_obj_point = lv_area_get_height(&act_obj->coords) / 2 + act_obj->coords.y1;
 2174              		.loc 1 604 17 is_stmt 1 view .LVU690
 2175              	.LBB90:
 2176              	.LBI90:
 143:Middlewares/lvgl/src/core/../misc/../font/../misc/lv_area.h **** {
 2177              		.loc 3 143 26 view .LVU691
 2178              	.LBB91:
 2179              		.loc 3 145 5 view .LVU692
 2180              		.loc 3 145 31 is_stmt 0 view .LVU693
 2181 010c 6A8B     		ldrh	r2, [r5, #26]
 2182              		.loc 3 145 44 view .LVU694
 2183 010e EB8A     		ldrh	r3, [r5, #22]
 2184              		.loc 3 145 36 view .LVU695
 2185 0110 D21A     		subs	r2, r2, r3
 2186 0112 92B2     		uxth	r2, r2
 2187              		.loc 3 145 49 view .LVU696
 2188 0114 0132     		adds	r2, r2, #1
 2189              		.loc 3 145 12 view .LVU697
 2190 0116 12B2     		sxth	r2, r2
 2191              	.LVL228:
 2192              		.loc 3 145 12 view .LVU698
 2193              	.LBE91:
 2194              	.LBE90:
 604:Middlewares/lvgl/src/core/lv_indev_scroll.c ****                 act_obj_point = lv_area_get_height(&act_obj->coords) / 2 + act_obj->coords.y1;
 2195              		.loc 1 604 81 view .LVU699
 2196 0118 A2EB0B02 		sub	r2, r2, fp
 604:Middlewares/lvgl/src/core/lv_indev_scroll.c ****                 act_obj_point = lv_area_get_height(&act_obj->coords) / 2 + act_obj->coords.y1;
 2197              		.loc 1 604 105 view .LVU700
 2198 011c 521A     		subs	r2, r2, r1
ARM GAS  /tmp/ccHFTBsZ.s 			page 64


 2199 011e 12D4     		bmi	.L163
 2200              	.L141:
 604:Middlewares/lvgl/src/core/lv_indev_scroll.c ****                 act_obj_point = lv_area_get_height(&act_obj->coords) / 2 + act_obj->coords.y1;
 2201              		.loc 1 604 38 view .LVU701
 2202 0120 0AEB6202 		add	r2, r10, r2, asr #1
 604:Middlewares/lvgl/src/core/lv_indev_scroll.c ****                 act_obj_point = lv_area_get_height(&act_obj->coords) / 2 + act_obj->coords.y1;
 2203              		.loc 1 604 109 view .LVU702
 2204 0124 13FA82F3 		uxtah	r3, r3, r2
 604:Middlewares/lvgl/src/core/lv_indev_scroll.c ****                 act_obj_point = lv_area_get_height(&act_obj->coords) / 2 + act_obj->coords.y1;
 2205              		.loc 1 604 28 view .LVU703
 2206 0128 1BB2     		sxth	r3, r3
 2207              	.LVL229:
 605:Middlewares/lvgl/src/core/lv_indev_scroll.c ****                 break;
 2208              		.loc 1 605 17 is_stmt 1 view .LVU704
 2209              	.LBB92:
 2210              	.LBI92:
 143:Middlewares/lvgl/src/core/../misc/../font/../misc/lv_area.h **** {
 2211              		.loc 3 143 26 view .LVU705
 2212              	.LBB93:
 2213              		.loc 3 145 5 view .LVU706
 2214              		.loc 3 145 31 is_stmt 0 view .LVU707
 2215 012a B9F81A10 		ldrh	r1, [r9, #26]
 2216              	.LVL230:
 2217              		.loc 3 145 44 view .LVU708
 2218 012e B9F81620 		ldrh	r2, [r9, #22]
 2219              		.loc 3 145 36 view .LVU709
 2220 0132 891A     		subs	r1, r1, r2
 2221 0134 89B2     		uxth	r1, r1
 2222              		.loc 3 145 49 view .LVU710
 2223 0136 0131     		adds	r1, r1, #1
 2224              		.loc 3 145 12 view .LVU711
 2225 0138 09B2     		sxth	r1, r1
 2226              	.LVL231:
 2227              		.loc 3 145 12 view .LVU712
 2228              	.LBE93:
 2229              	.LBE92:
 605:Middlewares/lvgl/src/core/lv_indev_scroll.c ****                 break;
 2230              		.loc 1 605 74 view .LVU713
 2231 013a 0029     		cmp	r1, #0
 2232 013c 05DB     		blt	.L164
 2233              	.L142:
 2234 013e 02EB6102 		add	r2, r2, r1, asr #1
 605:Middlewares/lvgl/src/core/lv_indev_scroll.c ****                 break;
 2235              		.loc 1 605 31 view .LVU714
 2236 0142 12B2     		sxth	r2, r2
 2237              	.LVL232:
 606:Middlewares/lvgl/src/core/lv_indev_scroll.c ****             case LV_SCROLL_SNAP_START:
 2238              		.loc 1 606 17 is_stmt 1 view .LVU715
 2239 0144 8FE7     		b	.L135
 2240              	.LVL233:
 2241              	.L163:
 604:Middlewares/lvgl/src/core/lv_indev_scroll.c ****                 act_obj_point = lv_area_get_height(&act_obj->coords) / 2 + act_obj->coords.y1;
 2242              		.loc 1 604 105 is_stmt 0 view .LVU716
 2243 0146 0132     		adds	r2, r2, #1
 2244 0148 EAE7     		b	.L141
 2245              	.LVL234:
 2246              	.L164:
ARM GAS  /tmp/ccHFTBsZ.s 			page 65


 605:Middlewares/lvgl/src/core/lv_indev_scroll.c ****                 break;
 2247              		.loc 1 605 74 view .LVU717
 2248 014a 0131     		adds	r1, r1, #1
 2249 014c F7E7     		b	.L142
 2250              	.LVL235:
 2251              	.L140:
 608:Middlewares/lvgl/src/core/lv_indev_scroll.c ****                 act_obj_point = act_obj->coords.y1;
 2252              		.loc 1 608 17 is_stmt 1 view .LVU718
 608:Middlewares/lvgl/src/core/lv_indev_scroll.c ****                 act_obj_point = act_obj->coords.y1;
 2253              		.loc 1 608 48 is_stmt 0 view .LVU719
 2254 014e EB8A     		ldrh	r3, [r5, #22]
 608:Middlewares/lvgl/src/core/lv_indev_scroll.c ****                 act_obj_point = act_obj->coords.y1;
 2255              		.loc 1 608 52 view .LVU720
 2256 0150 5344     		add	r3, r3, r10
 608:Middlewares/lvgl/src/core/lv_indev_scroll.c ****                 act_obj_point = act_obj->coords.y1;
 2257              		.loc 1 608 28 view .LVU721
 2258 0152 1BB2     		sxth	r3, r3
 2259              	.LVL236:
 609:Middlewares/lvgl/src/core/lv_indev_scroll.c ****                 break;
 2260              		.loc 1 609 17 is_stmt 1 view .LVU722
 609:Middlewares/lvgl/src/core/lv_indev_scroll.c ****                 break;
 2261              		.loc 1 609 31 is_stmt 0 view .LVU723
 2262 0154 B9F91620 		ldrsh	r2, [r9, #22]
 2263              	.LVL237:
 610:Middlewares/lvgl/src/core/lv_indev_scroll.c ****             case LV_SCROLL_SNAP_END:
 2264              		.loc 1 610 17 is_stmt 1 view .LVU724
 2265 0158 85E7     		b	.L135
 2266              	.LVL238:
 2267              	.L138:
 612:Middlewares/lvgl/src/core/lv_indev_scroll.c ****                 act_obj_point = act_obj->coords.y2;
 2268              		.loc 1 612 17 view .LVU725
 612:Middlewares/lvgl/src/core/lv_indev_scroll.c ****                 act_obj_point = act_obj->coords.y2;
 2269              		.loc 1 612 48 is_stmt 0 view .LVU726
 2270 015a 6B8B     		ldrh	r3, [r5, #26]
 612:Middlewares/lvgl/src/core/lv_indev_scroll.c ****                 act_obj_point = act_obj->coords.y2;
 2271              		.loc 1 612 52 view .LVU727
 2272 015c 181A     		subs	r0, r3, r0
 612:Middlewares/lvgl/src/core/lv_indev_scroll.c ****                 act_obj_point = act_obj->coords.y2;
 2273              		.loc 1 612 28 view .LVU728
 2274 015e 03B2     		sxth	r3, r0
 2275              	.LVL239:
 613:Middlewares/lvgl/src/core/lv_indev_scroll.c ****                 break;
 2276              		.loc 1 613 17 is_stmt 1 view .LVU729
 613:Middlewares/lvgl/src/core/lv_indev_scroll.c ****                 break;
 2277              		.loc 1 613 31 is_stmt 0 view .LVU730
 2278 0160 B9F91A20 		ldrsh	r2, [r9, #26]
 2279              	.LVL240:
 614:Middlewares/lvgl/src/core/lv_indev_scroll.c ****             }
 2280              		.loc 1 614 17 is_stmt 1 view .LVU731
 2281 0164 7FE7     		b	.L135
 2282              	.LVL241:
 2283              	.L159:
 614:Middlewares/lvgl/src/core/lv_indev_scroll.c ****             }
 2284              		.loc 1 614 17 is_stmt 0 view .LVU732
 2285              	.LBE103:
 619:Middlewares/lvgl/src/core/lv_indev_scroll.c **** 
 2286              		.loc 1 619 13 is_stmt 1 view .LVU733
ARM GAS  /tmp/ccHFTBsZ.s 			page 66


 619:Middlewares/lvgl/src/core/lv_indev_scroll.c **** 
 2287              		.loc 1 619 15 is_stmt 0 view .LVU734
 2288 0166 002F     		cmp	r7, #0
 2289 0168 18BF     		it	ne
 2290 016a 9342     		cmpne	r3, r2
 2291 016c 31DB     		blt	.L152
 622:Middlewares/lvgl/src/core/lv_indev_scroll.c ****             if(diff > 0) diff += ELASTIC_SLOWNESS_FACTOR / 2;
 2292              		.loc 1 622 13 is_stmt 1 view .LVU735
 622:Middlewares/lvgl/src/core/lv_indev_scroll.c ****             if(diff > 0) diff += ELASTIC_SLOWNESS_FACTOR / 2;
 2293              		.loc 1 622 15 is_stmt 0 view .LVU736
 2294 016e 002C     		cmp	r4, #0
 2295 0170 09DB     		blt	.L165
 2296              	.LVL242:
 2297              	.L145:
 623:Middlewares/lvgl/src/core/lv_indev_scroll.c ****             return diff / ELASTIC_SLOWNESS_FACTOR;
 2298              		.loc 1 623 13 is_stmt 1 view .LVU737
 623:Middlewares/lvgl/src/core/lv_indev_scroll.c ****             return diff / ELASTIC_SLOWNESS_FACTOR;
 2299              		.loc 1 623 15 is_stmt 0 view .LVU738
 2300 0172 002C     		cmp	r4, #0
 2301 0174 01DD     		ble	.L146
 623:Middlewares/lvgl/src/core/lv_indev_scroll.c ****             return diff / ELASTIC_SLOWNESS_FACTOR;
 2302              		.loc 1 623 26 is_stmt 1 discriminator 1 view .LVU739
 623:Middlewares/lvgl/src/core/lv_indev_scroll.c ****             return diff / ELASTIC_SLOWNESS_FACTOR;
 2303              		.loc 1 623 31 is_stmt 0 discriminator 1 view .LVU740
 2304 0176 A01C     		adds	r0, r4, #2
 2305 0178 04B2     		sxth	r4, r0
 2306              	.LVL243:
 2307              	.L146:
 624:Middlewares/lvgl/src/core/lv_indev_scroll.c ****         }
 2308              		.loc 1 624 13 is_stmt 1 view .LVU741
 624:Middlewares/lvgl/src/core/lv_indev_scroll.c ****         }
 2309              		.loc 1 624 25 is_stmt 0 view .LVU742
 2310 017a 2046     		mov	r0, r4
 2311 017c 002C     		cmp	r4, #0
 2312 017e 05DB     		blt	.L166
 2313              	.L147:
 624:Middlewares/lvgl/src/core/lv_indev_scroll.c ****         }
 2314              		.loc 1 624 25 view .LVU743
 2315 0180 40F38F00 		sbfx	r0, r0, #2, #16
 2316 0184 20E0     		b	.L144
 2317              	.LVL244:
 2318              	.L165:
 622:Middlewares/lvgl/src/core/lv_indev_scroll.c ****             if(diff > 0) diff += ELASTIC_SLOWNESS_FACTOR / 2;
 2319              		.loc 1 622 26 is_stmt 1 discriminator 1 view .LVU744
 622:Middlewares/lvgl/src/core/lv_indev_scroll.c ****             if(diff > 0) diff += ELASTIC_SLOWNESS_FACTOR / 2;
 2320              		.loc 1 622 31 is_stmt 0 discriminator 1 view .LVU745
 2321 0186 A01E     		subs	r0, r4, #2
 2322 0188 04B2     		sxth	r4, r0
 2323              	.LVL245:
 622:Middlewares/lvgl/src/core/lv_indev_scroll.c ****             if(diff > 0) diff += ELASTIC_SLOWNESS_FACTOR / 2;
 2324              		.loc 1 622 31 discriminator 1 view .LVU746
 2325 018a F2E7     		b	.L145
 2326              	.L166:
 624:Middlewares/lvgl/src/core/lv_indev_scroll.c ****         }
 2327              		.loc 1 624 25 view .LVU747
 2328 018c E01C     		adds	r0, r4, #3
 2329 018e F7E7     		b	.L147
ARM GAS  /tmp/ccHFTBsZ.s 			page 67


 2330              	.LVL246:
 2331              	.L160:
 627:Middlewares/lvgl/src/core/lv_indev_scroll.c ****             if(snap != LV_SCROLL_SNAP_NONE && act_obj_point < snap_point) return diff;
 2332              		.loc 1 627 13 is_stmt 1 view .LVU748
 2333              		.loc 1 627 15 is_stmt 0 view .LVU749
 2334 0190 002F     		cmp	r7, #0
 2335 0192 18BF     		it	ne
 2336 0194 9342     		cmpne	r3, r2
 2337 0196 1EDC     		bgt	.L154
 628:Middlewares/lvgl/src/core/lv_indev_scroll.c **** 
 629:Middlewares/lvgl/src/core/lv_indev_scroll.c ****             /*Rounding*/
 630:Middlewares/lvgl/src/core/lv_indev_scroll.c ****             if(diff < 0) diff -= ELASTIC_SLOWNESS_FACTOR / 2;
 2338              		.loc 1 630 13 is_stmt 1 view .LVU750
 2339              		.loc 1 630 15 is_stmt 0 view .LVU751
 2340 0198 002C     		cmp	r4, #0
 2341 019a 09DB     		blt	.L167
 2342              	.LVL247:
 2343              	.L148:
 631:Middlewares/lvgl/src/core/lv_indev_scroll.c ****             if(diff > 0) diff += ELASTIC_SLOWNESS_FACTOR / 2;
 2344              		.loc 1 631 13 is_stmt 1 view .LVU752
 2345              		.loc 1 631 15 is_stmt 0 view .LVU753
 2346 019c 002C     		cmp	r4, #0
 2347 019e 01DD     		ble	.L149
 2348              		.loc 1 631 26 is_stmt 1 discriminator 1 view .LVU754
 2349              		.loc 1 631 31 is_stmt 0 discriminator 1 view .LVU755
 2350 01a0 A01C     		adds	r0, r4, #2
 2351 01a2 04B2     		sxth	r4, r0
 2352              	.LVL248:
 2353              	.L149:
 632:Middlewares/lvgl/src/core/lv_indev_scroll.c ****             return diff / ELASTIC_SLOWNESS_FACTOR;
 2354              		.loc 1 632 13 is_stmt 1 view .LVU756
 2355              		.loc 1 632 25 is_stmt 0 view .LVU757
 2356 01a4 2046     		mov	r0, r4
 2357 01a6 002C     		cmp	r4, #0
 2358 01a8 05DB     		blt	.L168
 2359              	.L150:
 2360              		.loc 1 632 25 view .LVU758
 2361 01aa 40F38F00 		sbfx	r0, r0, #2, #16
 2362 01ae 0BE0     		b	.L144
 2363              	.LVL249:
 2364              	.L167:
 630:Middlewares/lvgl/src/core/lv_indev_scroll.c ****             if(diff > 0) diff += ELASTIC_SLOWNESS_FACTOR / 2;
 2365              		.loc 1 630 26 is_stmt 1 discriminator 1 view .LVU759
 630:Middlewares/lvgl/src/core/lv_indev_scroll.c ****             if(diff > 0) diff += ELASTIC_SLOWNESS_FACTOR / 2;
 2366              		.loc 1 630 31 is_stmt 0 discriminator 1 view .LVU760
 2367 01b0 A01E     		subs	r0, r4, #2
 2368 01b2 04B2     		sxth	r4, r0
 2369              	.LVL250:
 630:Middlewares/lvgl/src/core/lv_indev_scroll.c ****             if(diff > 0) diff += ELASTIC_SLOWNESS_FACTOR / 2;
 2370              		.loc 1 630 31 discriminator 1 view .LVU761
 2371 01b4 F2E7     		b	.L148
 2372              	.L168:
 2373              		.loc 1 632 25 view .LVU762
 2374 01b6 E01C     		adds	r0, r4, #3
 2375 01b8 F7E7     		b	.L150
 2376              	.LVL251:
 2377              	.L128:
ARM GAS  /tmp/ccHFTBsZ.s 			page 68


 2378              		.loc 1 632 25 view .LVU763
 2379              	.LBE84:
 633:Middlewares/lvgl/src/core/lv_indev_scroll.c ****         }
 634:Middlewares/lvgl/src/core/lv_indev_scroll.c ****     } else {
 635:Middlewares/lvgl/src/core/lv_indev_scroll.c ****         /*Scroll back to the boundary if required*/
 636:Middlewares/lvgl/src/core/lv_indev_scroll.c ****         if(scroll_end + diff < 0) diff = - scroll_end;
 2380              		.loc 1 636 9 is_stmt 1 view .LVU764
 2381              		.loc 1 636 11 is_stmt 0 view .LVU765
 2382 01ba E642     		cmn	r6, r4
 2383 01bc 06D4     		bmi	.L169
 2384              	.LVL252:
 2385              	.L151:
 637:Middlewares/lvgl/src/core/lv_indev_scroll.c ****         if(scroll_start - diff < 0) diff = scroll_start;
 2386              		.loc 1 637 9 is_stmt 1 view .LVU766
 2387              		.loc 1 637 25 is_stmt 0 view .LVU767
 2388 01be A8EB0403 		sub	r3, r8, r4
 2389              		.loc 1 637 11 view .LVU768
 2390 01c2 002B     		cmp	r3, #0
 2391 01c4 09DB     		blt	.L155
 2392 01c6 2046     		mov	r0, r4
 2393              	.LVL253:
 2394              	.L144:
 638:Middlewares/lvgl/src/core/lv_indev_scroll.c ****     }
 639:Middlewares/lvgl/src/core/lv_indev_scroll.c **** 
 640:Middlewares/lvgl/src/core/lv_indev_scroll.c ****     return diff;
 641:Middlewares/lvgl/src/core/lv_indev_scroll.c **** }
 2395              		.loc 1 641 1 view .LVU769
 2396 01c8 BDE8F88F 		pop	{r3, r4, r5, r6, r7, r8, r9, r10, fp, pc}
 2397              	.LVL254:
 2398              	.L169:
 636:Middlewares/lvgl/src/core/lv_indev_scroll.c ****         if(scroll_start - diff < 0) diff = scroll_start;
 2399              		.loc 1 636 35 is_stmt 1 discriminator 1 view .LVU770
 636:Middlewares/lvgl/src/core/lv_indev_scroll.c ****         if(scroll_start - diff < 0) diff = scroll_start;
 2400              		.loc 1 636 40 is_stmt 0 discriminator 1 view .LVU771
 2401 01cc 7642     		rsbs	r6, r6, #0
 2402 01ce 34B2     		sxth	r4, r6
 2403              	.LVL255:
 636:Middlewares/lvgl/src/core/lv_indev_scroll.c ****         if(scroll_start - diff < 0) diff = scroll_start;
 2404              		.loc 1 636 40 discriminator 1 view .LVU772
 2405 01d0 F5E7     		b	.L151
 2406              	.LVL256:
 2407              	.L152:
 2408              	.LBB104:
 619:Middlewares/lvgl/src/core/lv_indev_scroll.c **** 
 2409              		.loc 1 619 82 view .LVU773
 2410 01d2 2046     		mov	r0, r4
 2411 01d4 F8E7     		b	.L144
 2412              	.L154:
 627:Middlewares/lvgl/src/core/lv_indev_scroll.c **** 
 2413              		.loc 1 627 82 view .LVU774
 2414 01d6 2046     		mov	r0, r4
 2415 01d8 F6E7     		b	.L144
 2416              	.LVL257:
 2417              	.L155:
 627:Middlewares/lvgl/src/core/lv_indev_scroll.c **** 
 2418              		.loc 1 627 82 view .LVU775
 2419              	.LBE104:
ARM GAS  /tmp/ccHFTBsZ.s 			page 69


 637:Middlewares/lvgl/src/core/lv_indev_scroll.c ****     }
 2420              		.loc 1 637 42 view .LVU776
 2421 01da 4046     		mov	r0, r8
 2422 01dc F4E7     		b	.L144
 2423              		.cfi_endproc
 2424              	.LFE158:
 2426              		.section	.text._lv_indev_scroll_handler,"ax",%progbits
 2427              		.align	1
 2428              		.global	_lv_indev_scroll_handler
 2429              		.syntax unified
 2430              		.thumb
 2431              		.thumb_func
 2433              	_lv_indev_scroll_handler:
 2434              	.LVL258:
 2435              	.LFB147:
  46:Middlewares/lvgl/src/core/lv_indev_scroll.c ****     lv_obj_t * scroll_obj = proc->types.pointer.scroll_obj;
 2436              		.loc 1 46 1 is_stmt 1 view -0
 2437              		.cfi_startproc
 2438              		@ args = 0, pretend = 0, frame = 8
 2439              		@ frame_needed = 0, uses_anonymous_args = 0
  46:Middlewares/lvgl/src/core/lv_indev_scroll.c ****     lv_obj_t * scroll_obj = proc->types.pointer.scroll_obj;
 2440              		.loc 1 46 1 is_stmt 0 view .LVU778
 2441 0000 70B5     		push	{r4, r5, r6, lr}
 2442              	.LCFI20:
 2443              		.cfi_def_cfa_offset 16
 2444              		.cfi_offset 4, -16
 2445              		.cfi_offset 5, -12
 2446              		.cfi_offset 6, -8
 2447              		.cfi_offset 14, -4
 2448 0002 84B0     		sub	sp, sp, #16
 2449              	.LCFI21:
 2450              		.cfi_def_cfa_offset 32
 2451 0004 0446     		mov	r4, r0
  47:Middlewares/lvgl/src/core/lv_indev_scroll.c ****     /*If there is no scroll object yet try to find one*/
 2452              		.loc 1 47 5 is_stmt 1 view .LVU779
  47:Middlewares/lvgl/src/core/lv_indev_scroll.c ****     /*If there is no scroll object yet try to find one*/
 2453              		.loc 1 47 16 is_stmt 0 view .LVU780
 2454 0006 856A     		ldr	r5, [r0, #40]
 2455              	.LVL259:
  49:Middlewares/lvgl/src/core/lv_indev_scroll.c ****         proc->types.pointer.scroll_sum.x += proc->types.pointer.vect.x;
 2456              		.loc 1 49 5 is_stmt 1 view .LVU781
  49:Middlewares/lvgl/src/core/lv_indev_scroll.c ****         proc->types.pointer.scroll_sum.x += proc->types.pointer.vect.x;
 2457              		.loc 1 49 7 is_stmt 0 view .LVU782
 2458 0008 002D     		cmp	r5, #0
 2459 000a 5ED0     		beq	.L180
 2460              	.LVL260:
 2461              	.L171:
  63:Middlewares/lvgl/src/core/lv_indev_scroll.c ****         lv_coord_t diff_x = 0;
 2462              		.loc 1 63 5 is_stmt 1 view .LVU783
  63:Middlewares/lvgl/src/core/lv_indev_scroll.c ****         lv_coord_t diff_x = 0;
 2463              		.loc 1 63 40 is_stmt 0 view .LVU784
 2464 000c 2369     		ldr	r3, [r4, #16]
  63:Middlewares/lvgl/src/core/lv_indev_scroll.c ****         lv_coord_t diff_x = 0;
 2465              		.loc 1 63 7 view .LVU785
 2466 000e 002B     		cmp	r3, #0
 2467 0010 59D0     		beq	.L170
 2468              	.LBB105:
ARM GAS  /tmp/ccHFTBsZ.s 			page 70


  64:Middlewares/lvgl/src/core/lv_indev_scroll.c ****         lv_coord_t diff_y = 0;
 2469              		.loc 1 64 9 is_stmt 1 view .LVU786
  64:Middlewares/lvgl/src/core/lv_indev_scroll.c ****         lv_coord_t diff_y = 0;
 2470              		.loc 1 64 20 is_stmt 0 view .LVU787
 2471 0012 0023     		movs	r3, #0
 2472 0014 ADF80C30 		strh	r3, [sp, #12]	@ movhi
  65:Middlewares/lvgl/src/core/lv_indev_scroll.c **** 
 2473              		.loc 1 65 9 is_stmt 1 view .LVU788
  65:Middlewares/lvgl/src/core/lv_indev_scroll.c **** 
 2474              		.loc 1 65 20 is_stmt 0 view .LVU789
 2475 0018 ADF80E30 		strh	r3, [sp, #14]	@ movhi
  67:Middlewares/lvgl/src/core/lv_indev_scroll.c ****             lv_coord_t sr = lv_obj_get_scroll_right(scroll_obj);
 2476              		.loc 1 67 9 is_stmt 1 view .LVU790
  67:Middlewares/lvgl/src/core/lv_indev_scroll.c ****             lv_coord_t sr = lv_obj_get_scroll_right(scroll_obj);
 2477              		.loc 1 67 43 is_stmt 0 view .LVU791
 2478 001c 94F83C30 		ldrb	r3, [r4, #60]	@ zero_extendqisi2
 2479 0020 03F00F03 		and	r3, r3, #15
  67:Middlewares/lvgl/src/core/lv_indev_scroll.c ****             lv_coord_t sr = lv_obj_get_scroll_right(scroll_obj);
 2480              		.loc 1 67 11 view .LVU792
 2481 0024 032B     		cmp	r3, #3
 2482 0026 6AD0     		beq	.L181
 2483              	.LBB106:
  72:Middlewares/lvgl/src/core/lv_indev_scroll.c ****             lv_coord_t sb = lv_obj_get_scroll_bottom(scroll_obj);
 2484              		.loc 1 72 13 is_stmt 1 view .LVU793
  72:Middlewares/lvgl/src/core/lv_indev_scroll.c ****             lv_coord_t sb = lv_obj_get_scroll_bottom(scroll_obj);
 2485              		.loc 1 72 29 is_stmt 0 view .LVU794
 2486 0028 2846     		mov	r0, r5
 2487 002a FFF7FEFF 		bl	lv_obj_get_scroll_top
 2488              	.LVL261:
 2489 002e 0646     		mov	r6, r0
 2490              	.LVL262:
  73:Middlewares/lvgl/src/core/lv_indev_scroll.c ****             diff_y = elastic_diff(scroll_obj, proc->types.pointer.vect.y, st, sb, LV_DIR_VER);
 2491              		.loc 1 73 13 is_stmt 1 view .LVU795
  73:Middlewares/lvgl/src/core/lv_indev_scroll.c ****             diff_y = elastic_diff(scroll_obj, proc->types.pointer.vect.y, st, sb, LV_DIR_VER);
 2492              		.loc 1 73 29 is_stmt 0 view .LVU796
 2493 0030 2846     		mov	r0, r5
 2494 0032 FFF7FEFF 		bl	lv_obj_get_scroll_bottom
 2495              	.LVL263:
 2496 0036 0346     		mov	r3, r0
 2497              	.LVL264:
  74:Middlewares/lvgl/src/core/lv_indev_scroll.c ****         }
 2498              		.loc 1 74 13 is_stmt 1 view .LVU797
  74:Middlewares/lvgl/src/core/lv_indev_scroll.c ****         }
 2499              		.loc 1 74 22 is_stmt 0 view .LVU798
 2500 0038 0C22     		movs	r2, #12
 2501 003a 0092     		str	r2, [sp]
 2502 003c 3246     		mov	r2, r6
 2503 003e B4F91210 		ldrsh	r1, [r4, #18]
 2504 0042 2846     		mov	r0, r5
 2505 0044 FFF7FEFF 		bl	elastic_diff
 2506              	.LVL265:
  74:Middlewares/lvgl/src/core/lv_indev_scroll.c ****         }
 2507              		.loc 1 74 20 view .LVU799
 2508 0048 ADF80E00 		strh	r0, [sp, #14]	@ movhi
 2509              	.LVL266:
 2510              	.L174:
  74:Middlewares/lvgl/src/core/lv_indev_scroll.c ****         }
ARM GAS  /tmp/ccHFTBsZ.s 			page 71


 2511              		.loc 1 74 20 view .LVU800
 2512              	.LBE106:
  77:Middlewares/lvgl/src/core/lv_indev_scroll.c ****         if((scroll_dir & LV_DIR_LEFT)   == 0 && diff_x > 0) diff_x = 0;
 2513              		.loc 1 77 9 is_stmt 1 view .LVU801
  77:Middlewares/lvgl/src/core/lv_indev_scroll.c ****         if((scroll_dir & LV_DIR_LEFT)   == 0 && diff_x > 0) diff_x = 0;
 2514              		.loc 1 77 31 is_stmt 0 view .LVU802
 2515 004c 2846     		mov	r0, r5
 2516 004e FFF7FEFF 		bl	lv_obj_get_scroll_dir
 2517              	.LVL267:
  78:Middlewares/lvgl/src/core/lv_indev_scroll.c ****         if((scroll_dir & LV_DIR_RIGHT)  == 0 && diff_x < 0) diff_x = 0;
 2518              		.loc 1 78 9 is_stmt 1 view .LVU803
  78:Middlewares/lvgl/src/core/lv_indev_scroll.c ****         if((scroll_dir & LV_DIR_RIGHT)  == 0 && diff_x < 0) diff_x = 0;
 2519              		.loc 1 78 11 is_stmt 0 view .LVU804
 2520 0052 10F0010F 		tst	r0, #1
 2521 0056 06D1     		bne	.L175
  78:Middlewares/lvgl/src/core/lv_indev_scroll.c ****         if((scroll_dir & LV_DIR_RIGHT)  == 0 && diff_x < 0) diff_x = 0;
 2522              		.loc 1 78 56 discriminator 1 view .LVU805
 2523 0058 BDF90C30 		ldrsh	r3, [sp, #12]
  78:Middlewares/lvgl/src/core/lv_indev_scroll.c ****         if((scroll_dir & LV_DIR_RIGHT)  == 0 && diff_x < 0) diff_x = 0;
 2524              		.loc 1 78 46 discriminator 1 view .LVU806
 2525 005c 002B     		cmp	r3, #0
 2526 005e 02DD     		ble	.L175
  78:Middlewares/lvgl/src/core/lv_indev_scroll.c ****         if((scroll_dir & LV_DIR_RIGHT)  == 0 && diff_x < 0) diff_x = 0;
 2527              		.loc 1 78 61 is_stmt 1 discriminator 2 view .LVU807
  78:Middlewares/lvgl/src/core/lv_indev_scroll.c ****         if((scroll_dir & LV_DIR_RIGHT)  == 0 && diff_x < 0) diff_x = 0;
 2528              		.loc 1 78 68 is_stmt 0 discriminator 2 view .LVU808
 2529 0060 0023     		movs	r3, #0
 2530 0062 ADF80C30 		strh	r3, [sp, #12]	@ movhi
 2531              	.L175:
  79:Middlewares/lvgl/src/core/lv_indev_scroll.c ****         if((scroll_dir & LV_DIR_TOP)    == 0 && diff_y > 0) diff_y = 0;
 2532              		.loc 1 79 9 is_stmt 1 view .LVU809
  79:Middlewares/lvgl/src/core/lv_indev_scroll.c ****         if((scroll_dir & LV_DIR_TOP)    == 0 && diff_y > 0) diff_y = 0;
 2533              		.loc 1 79 11 is_stmt 0 view .LVU810
 2534 0066 10F0020F 		tst	r0, #2
 2535 006a 03D1     		bne	.L176
  79:Middlewares/lvgl/src/core/lv_indev_scroll.c ****         if((scroll_dir & LV_DIR_TOP)    == 0 && diff_y > 0) diff_y = 0;
 2536              		.loc 1 79 56 discriminator 1 view .LVU811
 2537 006c BDF90C30 		ldrsh	r3, [sp, #12]
  79:Middlewares/lvgl/src/core/lv_indev_scroll.c ****         if((scroll_dir & LV_DIR_TOP)    == 0 && diff_y > 0) diff_y = 0;
 2538              		.loc 1 79 46 discriminator 1 view .LVU812
 2539 0070 002B     		cmp	r3, #0
 2540 0072 57DB     		blt	.L182
 2541              	.L176:
  80:Middlewares/lvgl/src/core/lv_indev_scroll.c ****         if((scroll_dir & LV_DIR_BOTTOM) == 0 && diff_y < 0) diff_y = 0;
 2542              		.loc 1 80 9 is_stmt 1 view .LVU813
  80:Middlewares/lvgl/src/core/lv_indev_scroll.c ****         if((scroll_dir & LV_DIR_BOTTOM) == 0 && diff_y < 0) diff_y = 0;
 2543              		.loc 1 80 11 is_stmt 0 view .LVU814
 2544 0074 10F0040F 		tst	r0, #4
 2545 0078 06D1     		bne	.L177
  80:Middlewares/lvgl/src/core/lv_indev_scroll.c ****         if((scroll_dir & LV_DIR_BOTTOM) == 0 && diff_y < 0) diff_y = 0;
 2546              		.loc 1 80 56 discriminator 1 view .LVU815
 2547 007a BDF90E30 		ldrsh	r3, [sp, #14]
  80:Middlewares/lvgl/src/core/lv_indev_scroll.c ****         if((scroll_dir & LV_DIR_BOTTOM) == 0 && diff_y < 0) diff_y = 0;
 2548              		.loc 1 80 46 discriminator 1 view .LVU816
 2549 007e 002B     		cmp	r3, #0
 2550 0080 02DD     		ble	.L177
  80:Middlewares/lvgl/src/core/lv_indev_scroll.c ****         if((scroll_dir & LV_DIR_BOTTOM) == 0 && diff_y < 0) diff_y = 0;
ARM GAS  /tmp/ccHFTBsZ.s 			page 72


 2551              		.loc 1 80 61 is_stmt 1 discriminator 2 view .LVU817
  80:Middlewares/lvgl/src/core/lv_indev_scroll.c ****         if((scroll_dir & LV_DIR_BOTTOM) == 0 && diff_y < 0) diff_y = 0;
 2552              		.loc 1 80 68 is_stmt 0 discriminator 2 view .LVU818
 2553 0082 0023     		movs	r3, #0
 2554 0084 ADF80E30 		strh	r3, [sp, #14]	@ movhi
 2555              	.L177:
  81:Middlewares/lvgl/src/core/lv_indev_scroll.c **** 
 2556              		.loc 1 81 9 is_stmt 1 view .LVU819
  81:Middlewares/lvgl/src/core/lv_indev_scroll.c **** 
 2557              		.loc 1 81 11 is_stmt 0 view .LVU820
 2558 0088 10F0080F 		tst	r0, #8
 2559 008c 03D1     		bne	.L178
  81:Middlewares/lvgl/src/core/lv_indev_scroll.c **** 
 2560              		.loc 1 81 56 discriminator 1 view .LVU821
 2561 008e BDF90E30 		ldrsh	r3, [sp, #14]
  81:Middlewares/lvgl/src/core/lv_indev_scroll.c **** 
 2562              		.loc 1 81 46 discriminator 1 view .LVU822
 2563 0092 002B     		cmp	r3, #0
 2564 0094 4ADB     		blt	.L183
 2565              	.L178:
  84:Middlewares/lvgl/src/core/lv_indev_scroll.c **** 
 2566              		.loc 1 84 9 is_stmt 1 view .LVU823
 2567 0096 0DF10E02 		add	r2, sp, #14
 2568 009a 03A9     		add	r1, sp, #12
 2569 009c 2046     		mov	r0, r4
 2570              	.LVL268:
  84:Middlewares/lvgl/src/core/lv_indev_scroll.c **** 
 2571              		.loc 1 84 9 is_stmt 0 view .LVU824
 2572 009e FFF7FEFF 		bl	scroll_limit_diff
 2573              	.LVL269:
  86:Middlewares/lvgl/src/core/lv_indev_scroll.c ****         proc->types.pointer.scroll_sum.x += diff_x;
 2574              		.loc 1 86 9 is_stmt 1 view .LVU825
 2575 00a2 0023     		movs	r3, #0
 2576 00a4 BDF90E20 		ldrsh	r2, [sp, #14]
 2577 00a8 BDF90C10 		ldrsh	r1, [sp, #12]
 2578 00ac 2846     		mov	r0, r5
 2579 00ae FFF7FEFF 		bl	lv_obj_scroll_by
 2580              	.LVL270:
