ARM GAS  /tmp/ccFHKYR8.s 			page 1


   1              		.cpu cortex-m7
   2              		.eabi_attribute 28, 1
   3              		.eabi_attribute 20, 1
   4              		.eabi_attribute 21, 1
   5              		.eabi_attribute 23, 3
   6              		.eabi_attribute 24, 1
   7              		.eabi_attribute 25, 1
   8              		.eabi_attribute 26, 1
   9              		.eabi_attribute 30, 1
  10              		.eabi_attribute 34, 1
  11              		.eabi_attribute 18, 4
  12              		.file	"lv_line.c"
  13              		.text
  14              	.Ltext0:
  15              		.cfi_sections	.debug_frame
  16              		.section	.text.lv_line_event,"ax",%progbits
  17              		.align	1
  18              		.arch armv7e-m
  19              		.syntax unified
  20              		.thumb
  21              		.thumb_func
  22              		.fpu fpv5-d16
  24              	lv_line_event:
  25              	.LVL0:
  26              	.LFB152:
  27              		.file 1 "Middlewares/lvgl/src/widgets/lv_line.c"
   1:Middlewares/lvgl/src/widgets/lv_line.c **** /**
   2:Middlewares/lvgl/src/widgets/lv_line.c ****  * @file lv_line.c
   3:Middlewares/lvgl/src/widgets/lv_line.c ****  *
   4:Middlewares/lvgl/src/widgets/lv_line.c ****  */
   5:Middlewares/lvgl/src/widgets/lv_line.c **** 
   6:Middlewares/lvgl/src/widgets/lv_line.c **** /*********************
   7:Middlewares/lvgl/src/widgets/lv_line.c ****  *      INCLUDES
   8:Middlewares/lvgl/src/widgets/lv_line.c ****  *********************/
   9:Middlewares/lvgl/src/widgets/lv_line.c **** #include "lv_line.h"
  10:Middlewares/lvgl/src/widgets/lv_line.c **** 
  11:Middlewares/lvgl/src/widgets/lv_line.c **** #if LV_USE_LINE != 0
  12:Middlewares/lvgl/src/widgets/lv_line.c **** #include "../misc/lv_assert.h"
  13:Middlewares/lvgl/src/widgets/lv_line.c **** #include "../draw/lv_draw.h"
  14:Middlewares/lvgl/src/widgets/lv_line.c **** #include "../misc/lv_math.h"
  15:Middlewares/lvgl/src/widgets/lv_line.c **** #include <stdbool.h>
  16:Middlewares/lvgl/src/widgets/lv_line.c **** #include <stdint.h>
  17:Middlewares/lvgl/src/widgets/lv_line.c **** #include <string.h>
  18:Middlewares/lvgl/src/widgets/lv_line.c **** 
  19:Middlewares/lvgl/src/widgets/lv_line.c **** /*********************
  20:Middlewares/lvgl/src/widgets/lv_line.c ****  *      DEFINES
  21:Middlewares/lvgl/src/widgets/lv_line.c ****  *********************/
  22:Middlewares/lvgl/src/widgets/lv_line.c **** #define MY_CLASS &lv_line_class
  23:Middlewares/lvgl/src/widgets/lv_line.c **** 
  24:Middlewares/lvgl/src/widgets/lv_line.c **** /**********************
  25:Middlewares/lvgl/src/widgets/lv_line.c ****  *      TYPEDEFS
  26:Middlewares/lvgl/src/widgets/lv_line.c ****  **********************/
  27:Middlewares/lvgl/src/widgets/lv_line.c **** 
  28:Middlewares/lvgl/src/widgets/lv_line.c **** /**********************
  29:Middlewares/lvgl/src/widgets/lv_line.c ****  *  STATIC PROTOTYPES
  30:Middlewares/lvgl/src/widgets/lv_line.c ****  **********************/
  31:Middlewares/lvgl/src/widgets/lv_line.c **** static void lv_line_constructor(const lv_obj_class_t * class_p, lv_obj_t * obj);
ARM GAS  /tmp/ccFHKYR8.s 			page 2


  32:Middlewares/lvgl/src/widgets/lv_line.c **** static void lv_line_event(const lv_obj_class_t * class_p, lv_event_t * e);
  33:Middlewares/lvgl/src/widgets/lv_line.c **** 
  34:Middlewares/lvgl/src/widgets/lv_line.c **** /**********************
  35:Middlewares/lvgl/src/widgets/lv_line.c ****  *  STATIC VARIABLES
  36:Middlewares/lvgl/src/widgets/lv_line.c ****  **********************/
  37:Middlewares/lvgl/src/widgets/lv_line.c **** const lv_obj_class_t lv_line_class = {
  38:Middlewares/lvgl/src/widgets/lv_line.c ****     .constructor_cb = lv_line_constructor,
  39:Middlewares/lvgl/src/widgets/lv_line.c ****     .event_cb = lv_line_event,
  40:Middlewares/lvgl/src/widgets/lv_line.c ****     .width_def = LV_SIZE_CONTENT,
  41:Middlewares/lvgl/src/widgets/lv_line.c ****     .height_def = LV_SIZE_CONTENT,
  42:Middlewares/lvgl/src/widgets/lv_line.c ****     .instance_size = sizeof(lv_line_t),
  43:Middlewares/lvgl/src/widgets/lv_line.c ****     .base_class = &lv_obj_class
  44:Middlewares/lvgl/src/widgets/lv_line.c **** };
  45:Middlewares/lvgl/src/widgets/lv_line.c **** 
  46:Middlewares/lvgl/src/widgets/lv_line.c **** /**********************
  47:Middlewares/lvgl/src/widgets/lv_line.c ****  *      MACROS
  48:Middlewares/lvgl/src/widgets/lv_line.c ****  **********************/
  49:Middlewares/lvgl/src/widgets/lv_line.c **** 
  50:Middlewares/lvgl/src/widgets/lv_line.c **** /**********************
  51:Middlewares/lvgl/src/widgets/lv_line.c ****  *   GLOBAL FUNCTIONS
  52:Middlewares/lvgl/src/widgets/lv_line.c ****  **********************/
  53:Middlewares/lvgl/src/widgets/lv_line.c **** 
  54:Middlewares/lvgl/src/widgets/lv_line.c **** lv_obj_t * lv_line_create(lv_obj_t * parent)
  55:Middlewares/lvgl/src/widgets/lv_line.c **** {
  56:Middlewares/lvgl/src/widgets/lv_line.c ****     LV_LOG_INFO("begin")
  57:Middlewares/lvgl/src/widgets/lv_line.c ****     lv_obj_t * obj = lv_obj_class_create_obj(MY_CLASS, parent);
  58:Middlewares/lvgl/src/widgets/lv_line.c ****     lv_obj_class_init_obj(obj);
  59:Middlewares/lvgl/src/widgets/lv_line.c ****     return obj;
  60:Middlewares/lvgl/src/widgets/lv_line.c **** }
  61:Middlewares/lvgl/src/widgets/lv_line.c **** 
  62:Middlewares/lvgl/src/widgets/lv_line.c **** /*=====================
  63:Middlewares/lvgl/src/widgets/lv_line.c ****  * Setter functions
  64:Middlewares/lvgl/src/widgets/lv_line.c ****  *====================*/
  65:Middlewares/lvgl/src/widgets/lv_line.c **** 
  66:Middlewares/lvgl/src/widgets/lv_line.c **** void lv_line_set_points(lv_obj_t * obj, const lv_point_t points[], uint16_t point_num)
  67:Middlewares/lvgl/src/widgets/lv_line.c **** {
  68:Middlewares/lvgl/src/widgets/lv_line.c ****     LV_ASSERT_OBJ(obj, MY_CLASS);
  69:Middlewares/lvgl/src/widgets/lv_line.c **** 
  70:Middlewares/lvgl/src/widgets/lv_line.c ****     lv_line_t * line = (lv_line_t *)obj;
  71:Middlewares/lvgl/src/widgets/lv_line.c ****     line->point_array    = points;
  72:Middlewares/lvgl/src/widgets/lv_line.c ****     line->point_num      = point_num;
  73:Middlewares/lvgl/src/widgets/lv_line.c **** 
  74:Middlewares/lvgl/src/widgets/lv_line.c ****     lv_obj_refresh_self_size(obj);
  75:Middlewares/lvgl/src/widgets/lv_line.c **** 
  76:Middlewares/lvgl/src/widgets/lv_line.c ****     lv_obj_invalidate(obj);
  77:Middlewares/lvgl/src/widgets/lv_line.c **** }
  78:Middlewares/lvgl/src/widgets/lv_line.c **** 
  79:Middlewares/lvgl/src/widgets/lv_line.c **** void lv_line_set_y_invert(lv_obj_t * obj, bool en)
  80:Middlewares/lvgl/src/widgets/lv_line.c **** {
  81:Middlewares/lvgl/src/widgets/lv_line.c ****     LV_ASSERT_OBJ(obj, MY_CLASS);
  82:Middlewares/lvgl/src/widgets/lv_line.c **** 
  83:Middlewares/lvgl/src/widgets/lv_line.c ****     lv_line_t * line = (lv_line_t *)obj;
  84:Middlewares/lvgl/src/widgets/lv_line.c ****     if(line->y_inv == en) return;
  85:Middlewares/lvgl/src/widgets/lv_line.c **** 
  86:Middlewares/lvgl/src/widgets/lv_line.c ****     line->y_inv = en == false ? 0 : 1;
  87:Middlewares/lvgl/src/widgets/lv_line.c **** 
  88:Middlewares/lvgl/src/widgets/lv_line.c ****     lv_obj_invalidate(obj);
ARM GAS  /tmp/ccFHKYR8.s 			page 3


  89:Middlewares/lvgl/src/widgets/lv_line.c **** }
  90:Middlewares/lvgl/src/widgets/lv_line.c **** 
  91:Middlewares/lvgl/src/widgets/lv_line.c **** /*=====================
  92:Middlewares/lvgl/src/widgets/lv_line.c ****  * Getter functions
  93:Middlewares/lvgl/src/widgets/lv_line.c ****  *====================*/
  94:Middlewares/lvgl/src/widgets/lv_line.c **** 
  95:Middlewares/lvgl/src/widgets/lv_line.c **** bool lv_line_get_y_invert(const lv_obj_t * obj)
  96:Middlewares/lvgl/src/widgets/lv_line.c **** {
  97:Middlewares/lvgl/src/widgets/lv_line.c ****     LV_ASSERT_OBJ(obj, MY_CLASS);
  98:Middlewares/lvgl/src/widgets/lv_line.c **** 
  99:Middlewares/lvgl/src/widgets/lv_line.c ****     lv_line_t * line = (lv_line_t *)obj;
 100:Middlewares/lvgl/src/widgets/lv_line.c **** 
 101:Middlewares/lvgl/src/widgets/lv_line.c ****     return line->y_inv == 0 ? false : true;
 102:Middlewares/lvgl/src/widgets/lv_line.c **** }
 103:Middlewares/lvgl/src/widgets/lv_line.c **** 
 104:Middlewares/lvgl/src/widgets/lv_line.c **** /**********************
 105:Middlewares/lvgl/src/widgets/lv_line.c ****  *   STATIC FUNCTIONS
 106:Middlewares/lvgl/src/widgets/lv_line.c ****  **********************/
 107:Middlewares/lvgl/src/widgets/lv_line.c **** 
 108:Middlewares/lvgl/src/widgets/lv_line.c **** static void lv_line_constructor(const lv_obj_class_t * class_p, lv_obj_t * obj)
 109:Middlewares/lvgl/src/widgets/lv_line.c **** {
 110:Middlewares/lvgl/src/widgets/lv_line.c ****     LV_UNUSED(class_p);
 111:Middlewares/lvgl/src/widgets/lv_line.c ****     LV_TRACE_OBJ_CREATE("begin");
 112:Middlewares/lvgl/src/widgets/lv_line.c **** 
 113:Middlewares/lvgl/src/widgets/lv_line.c ****     lv_line_t * line = (lv_line_t *)obj;
 114:Middlewares/lvgl/src/widgets/lv_line.c **** 
 115:Middlewares/lvgl/src/widgets/lv_line.c ****     line->point_num   = 0;
 116:Middlewares/lvgl/src/widgets/lv_line.c ****     line->point_array = NULL;
 117:Middlewares/lvgl/src/widgets/lv_line.c ****     line->y_inv       = 0;
 118:Middlewares/lvgl/src/widgets/lv_line.c **** 
 119:Middlewares/lvgl/src/widgets/lv_line.c ****     lv_obj_clear_flag(obj, LV_OBJ_FLAG_CLICKABLE);
 120:Middlewares/lvgl/src/widgets/lv_line.c **** 
 121:Middlewares/lvgl/src/widgets/lv_line.c ****     LV_TRACE_OBJ_CREATE("finished");
 122:Middlewares/lvgl/src/widgets/lv_line.c **** }
 123:Middlewares/lvgl/src/widgets/lv_line.c **** 
 124:Middlewares/lvgl/src/widgets/lv_line.c **** static void lv_line_event(const lv_obj_class_t * class_p, lv_event_t * e)
 125:Middlewares/lvgl/src/widgets/lv_line.c **** {
  28              		.loc 1 125 1 view -0
  29              		.cfi_startproc
  30              		@ args = 0, pretend = 0, frame = 32
  31              		@ frame_needed = 0, uses_anonymous_args = 0
  32              		.loc 1 125 1 is_stmt 0 view .LVU1
  33 0000 2DE9F043 		push	{r4, r5, r6, r7, r8, r9, lr}
  34              	.LCFI0:
  35              		.cfi_def_cfa_offset 28
  36              		.cfi_offset 4, -28
  37              		.cfi_offset 5, -24
  38              		.cfi_offset 6, -20
  39              		.cfi_offset 7, -16
  40              		.cfi_offset 8, -12
  41              		.cfi_offset 9, -8
  42              		.cfi_offset 14, -4
  43 0004 89B0     		sub	sp, sp, #36
  44              	.LCFI1:
  45              		.cfi_def_cfa_offset 64
  46 0006 0C46     		mov	r4, r1
 126:Middlewares/lvgl/src/widgets/lv_line.c ****     LV_UNUSED(class_p);
ARM GAS  /tmp/ccFHKYR8.s 			page 4


  47              		.loc 1 126 5 is_stmt 1 view .LVU2
 127:Middlewares/lvgl/src/widgets/lv_line.c **** 
 128:Middlewares/lvgl/src/widgets/lv_line.c ****     lv_res_t res;
  48              		.loc 1 128 5 view .LVU3
 129:Middlewares/lvgl/src/widgets/lv_line.c **** 
 130:Middlewares/lvgl/src/widgets/lv_line.c ****     /*Call the ancestor's event handler*/
 131:Middlewares/lvgl/src/widgets/lv_line.c ****     res = lv_obj_event_base(MY_CLASS, e);
  49              		.loc 1 131 5 view .LVU4
  50              		.loc 1 131 11 is_stmt 0 view .LVU5
  51 0008 5B48     		ldr	r0, .L18
  52              	.LVL1:
  53              		.loc 1 131 11 view .LVU6
  54 000a FFF7FEFF 		bl	lv_obj_event_base
  55              	.LVL2:
 132:Middlewares/lvgl/src/widgets/lv_line.c ****     if(res != LV_RES_OK) return;
  56              		.loc 1 132 5 is_stmt 1 view .LVU7
  57              		.loc 1 132 7 is_stmt 0 view .LVU8
  58 000e 0128     		cmp	r0, #1
  59 0010 02D0     		beq	.L15
  60              	.LVL3:
  61              	.L1:
 133:Middlewares/lvgl/src/widgets/lv_line.c **** 
 134:Middlewares/lvgl/src/widgets/lv_line.c ****     lv_event_code_t code = lv_event_get_code(e);
 135:Middlewares/lvgl/src/widgets/lv_line.c ****     lv_obj_t * obj = lv_event_get_target(e);
 136:Middlewares/lvgl/src/widgets/lv_line.c **** 
 137:Middlewares/lvgl/src/widgets/lv_line.c ****     if(code == LV_EVENT_REFR_EXT_DRAW_SIZE) {
 138:Middlewares/lvgl/src/widgets/lv_line.c ****         /*The corner of the skew lines is out of the intended area*/
 139:Middlewares/lvgl/src/widgets/lv_line.c ****         lv_coord_t line_width = lv_obj_get_style_line_width(obj, LV_PART_MAIN);
 140:Middlewares/lvgl/src/widgets/lv_line.c ****         lv_coord_t * s = lv_event_get_param(e);
 141:Middlewares/lvgl/src/widgets/lv_line.c ****         if(*s < line_width) *s = line_width;
 142:Middlewares/lvgl/src/widgets/lv_line.c ****     }
 143:Middlewares/lvgl/src/widgets/lv_line.c ****     else if(code == LV_EVENT_GET_SELF_SIZE) {
 144:Middlewares/lvgl/src/widgets/lv_line.c ****         lv_line_t * line = (lv_line_t *)obj;
 145:Middlewares/lvgl/src/widgets/lv_line.c **** 
 146:Middlewares/lvgl/src/widgets/lv_line.c ****         lv_point_t * p = lv_event_get_param(e);
 147:Middlewares/lvgl/src/widgets/lv_line.c ****         lv_coord_t w = 0;
 148:Middlewares/lvgl/src/widgets/lv_line.c ****         lv_coord_t h = 0;
 149:Middlewares/lvgl/src/widgets/lv_line.c ****         if(line->point_num > 0) {
 150:Middlewares/lvgl/src/widgets/lv_line.c ****             uint16_t i;
 151:Middlewares/lvgl/src/widgets/lv_line.c ****             for(i = 0; i < line->point_num; i++) {
 152:Middlewares/lvgl/src/widgets/lv_line.c ****                 w = LV_MAX(line->point_array[i].x, w);
 153:Middlewares/lvgl/src/widgets/lv_line.c ****                 h = LV_MAX(line->point_array[i].y, h);
 154:Middlewares/lvgl/src/widgets/lv_line.c ****             }
 155:Middlewares/lvgl/src/widgets/lv_line.c **** 
 156:Middlewares/lvgl/src/widgets/lv_line.c ****             lv_coord_t line_width = lv_obj_get_style_line_width(obj, LV_PART_MAIN);
 157:Middlewares/lvgl/src/widgets/lv_line.c ****             w += line_width;
 158:Middlewares/lvgl/src/widgets/lv_line.c ****             h += line_width;
 159:Middlewares/lvgl/src/widgets/lv_line.c ****             p->x = w;
 160:Middlewares/lvgl/src/widgets/lv_line.c ****             p->y = h;
 161:Middlewares/lvgl/src/widgets/lv_line.c ****         }
 162:Middlewares/lvgl/src/widgets/lv_line.c ****     } else if(code == LV_EVENT_DRAW_MAIN) {
 163:Middlewares/lvgl/src/widgets/lv_line.c ****         lv_line_t * line = (lv_line_t *)obj;
 164:Middlewares/lvgl/src/widgets/lv_line.c ****         const lv_area_t * clip_area = lv_event_get_param(e);
 165:Middlewares/lvgl/src/widgets/lv_line.c **** 
 166:Middlewares/lvgl/src/widgets/lv_line.c ****         if(line->point_num == 0 || line->point_array == NULL) return;
 167:Middlewares/lvgl/src/widgets/lv_line.c **** 
 168:Middlewares/lvgl/src/widgets/lv_line.c ****         lv_area_t area;
ARM GAS  /tmp/ccFHKYR8.s 			page 5


 169:Middlewares/lvgl/src/widgets/lv_line.c ****         lv_obj_get_coords(obj, &area);
 170:Middlewares/lvgl/src/widgets/lv_line.c ****         lv_coord_t x_ofs = area.x1 - lv_obj_get_scroll_x(obj);
 171:Middlewares/lvgl/src/widgets/lv_line.c ****         lv_coord_t y_ofs = area.y1 - lv_obj_get_scroll_y(obj);
 172:Middlewares/lvgl/src/widgets/lv_line.c ****         lv_point_t p1;
 173:Middlewares/lvgl/src/widgets/lv_line.c ****         lv_point_t p2;
 174:Middlewares/lvgl/src/widgets/lv_line.c ****         lv_coord_t h = lv_obj_get_height(obj);
 175:Middlewares/lvgl/src/widgets/lv_line.c ****         uint16_t i;
 176:Middlewares/lvgl/src/widgets/lv_line.c **** 
 177:Middlewares/lvgl/src/widgets/lv_line.c ****         lv_draw_line_dsc_t line_dsc;
 178:Middlewares/lvgl/src/widgets/lv_line.c ****         lv_draw_line_dsc_init(&line_dsc);
 179:Middlewares/lvgl/src/widgets/lv_line.c ****         lv_obj_init_draw_line_dsc(obj, LV_PART_MAIN, &line_dsc);
 180:Middlewares/lvgl/src/widgets/lv_line.c **** 
 181:Middlewares/lvgl/src/widgets/lv_line.c ****         /*Read all points and draw the lines*/
 182:Middlewares/lvgl/src/widgets/lv_line.c ****         for(i = 0; i < line->point_num - 1; i++) {
 183:Middlewares/lvgl/src/widgets/lv_line.c **** 
 184:Middlewares/lvgl/src/widgets/lv_line.c ****             p1.x = line->point_array[i].x + x_ofs;
 185:Middlewares/lvgl/src/widgets/lv_line.c ****             p2.x = line->point_array[i + 1].x + x_ofs;
 186:Middlewares/lvgl/src/widgets/lv_line.c **** 
 187:Middlewares/lvgl/src/widgets/lv_line.c ****             if(line->y_inv == 0) {
 188:Middlewares/lvgl/src/widgets/lv_line.c ****                 p1.y = line->point_array[i].y + y_ofs;
 189:Middlewares/lvgl/src/widgets/lv_line.c ****                 p2.y = line->point_array[i + 1].y + y_ofs;
 190:Middlewares/lvgl/src/widgets/lv_line.c ****             }
 191:Middlewares/lvgl/src/widgets/lv_line.c ****             else {
 192:Middlewares/lvgl/src/widgets/lv_line.c ****                 p1.y = h - line->point_array[i].y + y_ofs;
 193:Middlewares/lvgl/src/widgets/lv_line.c ****                 p2.y = h - line->point_array[i + 1].y + y_ofs;
 194:Middlewares/lvgl/src/widgets/lv_line.c ****             }
 195:Middlewares/lvgl/src/widgets/lv_line.c ****             lv_draw_line(&p1, &p2, clip_area, &line_dsc);
 196:Middlewares/lvgl/src/widgets/lv_line.c ****             line_dsc.round_start = 0;   /*Draw the rounding only on the end points after the first 
 197:Middlewares/lvgl/src/widgets/lv_line.c ****         }
 198:Middlewares/lvgl/src/widgets/lv_line.c ****     }
 199:Middlewares/lvgl/src/widgets/lv_line.c **** }
  62              		.loc 1 199 1 view .LVU9
  63 0012 09B0     		add	sp, sp, #36
  64              	.LCFI2:
  65              		.cfi_remember_state
  66              		.cfi_def_cfa_offset 28
  67              		@ sp needed
  68 0014 BDE8F083 		pop	{r4, r5, r6, r7, r8, r9, pc}
  69              	.LVL4:
  70              	.L15:
  71              	.LCFI3:
  72              		.cfi_restore_state
 134:Middlewares/lvgl/src/widgets/lv_line.c ****     lv_obj_t * obj = lv_event_get_target(e);
  73              		.loc 1 134 5 is_stmt 1 view .LVU10
 134:Middlewares/lvgl/src/widgets/lv_line.c ****     lv_obj_t * obj = lv_event_get_target(e);
  74              		.loc 1 134 28 is_stmt 0 view .LVU11
  75 0018 2046     		mov	r0, r4
  76              	.LVL5:
 134:Middlewares/lvgl/src/widgets/lv_line.c ****     lv_obj_t * obj = lv_event_get_target(e);
  77              		.loc 1 134 28 view .LVU12
  78 001a FFF7FEFF 		bl	lv_event_get_code
  79              	.LVL6:
  80 001e 0646     		mov	r6, r0
  81              	.LVL7:
 135:Middlewares/lvgl/src/widgets/lv_line.c **** 
  82              		.loc 1 135 5 is_stmt 1 view .LVU13
 135:Middlewares/lvgl/src/widgets/lv_line.c **** 
ARM GAS  /tmp/ccFHKYR8.s 			page 6


  83              		.loc 1 135 22 is_stmt 0 view .LVU14
  84 0020 2046     		mov	r0, r4
  85 0022 FFF7FEFF 		bl	lv_event_get_target
  86              	.LVL8:
  87 0026 0546     		mov	r5, r0
  88              	.LVL9:
 137:Middlewares/lvgl/src/widgets/lv_line.c ****         /*The corner of the skew lines is out of the intended area*/
  89              		.loc 1 137 5 is_stmt 1 view .LVU15
 137:Middlewares/lvgl/src/widgets/lv_line.c ****         /*The corner of the skew lines is out of the intended area*/
  90              		.loc 1 137 7 is_stmt 0 view .LVU16
  91 0028 132E     		cmp	r6, #19
  92 002a 2FD0     		beq	.L16
 143:Middlewares/lvgl/src/widgets/lv_line.c ****         lv_line_t * line = (lv_line_t *)obj;
  93              		.loc 1 143 10 is_stmt 1 view .LVU17
 143:Middlewares/lvgl/src/widgets/lv_line.c ****         lv_line_t * line = (lv_line_t *)obj;
  94              		.loc 1 143 12 is_stmt 0 view .LVU18
  95 002c 262E     		cmp	r6, #38
  96 002e 3CD0     		beq	.L17
 162:Middlewares/lvgl/src/widgets/lv_line.c ****         lv_line_t * line = (lv_line_t *)obj;
  97              		.loc 1 162 12 is_stmt 1 view .LVU19
 162:Middlewares/lvgl/src/widgets/lv_line.c ****         lv_line_t * line = (lv_line_t *)obj;
  98              		.loc 1 162 14 is_stmt 0 view .LVU20
  99 0030 152E     		cmp	r6, #21
 100 0032 EED1     		bne	.L1
 101              	.LBB10:
 163:Middlewares/lvgl/src/widgets/lv_line.c ****         const lv_area_t * clip_area = lv_event_get_param(e);
 102              		.loc 1 163 9 is_stmt 1 view .LVU21
 103              	.LVL10:
 164:Middlewares/lvgl/src/widgets/lv_line.c **** 
 104              		.loc 1 164 9 view .LVU22
 164:Middlewares/lvgl/src/widgets/lv_line.c **** 
 105              		.loc 1 164 39 is_stmt 0 view .LVU23
 106 0034 2046     		mov	r0, r4
 107              	.LVL11:
 164:Middlewares/lvgl/src/widgets/lv_line.c **** 
 108              		.loc 1 164 39 view .LVU24
 109 0036 FFF7FEFF 		bl	lv_event_get_param
 110              	.LVL12:
 111 003a 8046     		mov	r8, r0
 112              	.LVL13:
 166:Middlewares/lvgl/src/widgets/lv_line.c **** 
 113              		.loc 1 166 9 is_stmt 1 view .LVU25
 166:Middlewares/lvgl/src/widgets/lv_line.c **** 
 114              		.loc 1 166 16 is_stmt 0 view .LVU26
 115 003c 2B8D     		ldrh	r3, [r5, #40]
 166:Middlewares/lvgl/src/widgets/lv_line.c **** 
 116              		.loc 1 166 11 view .LVU27
 117 003e 002B     		cmp	r3, #0
 118 0040 E7D0     		beq	.L1
 166:Middlewares/lvgl/src/widgets/lv_line.c **** 
 119              		.loc 1 166 40 discriminator 2 view .LVU28
 120 0042 6B6A     		ldr	r3, [r5, #36]
 166:Middlewares/lvgl/src/widgets/lv_line.c **** 
 121              		.loc 1 166 33 discriminator 2 view .LVU29
 122 0044 002B     		cmp	r3, #0
 123 0046 E4D0     		beq	.L1
 168:Middlewares/lvgl/src/widgets/lv_line.c ****         lv_obj_get_coords(obj, &area);
ARM GAS  /tmp/ccFHKYR8.s 			page 7


 124              		.loc 1 168 9 is_stmt 1 view .LVU30
 169:Middlewares/lvgl/src/widgets/lv_line.c ****         lv_coord_t x_ofs = area.x1 - lv_obj_get_scroll_x(obj);
 125              		.loc 1 169 9 view .LVU31
 126 0048 03A9     		add	r1, sp, #12
 127 004a 2846     		mov	r0, r5
 128              	.LVL14:
 169:Middlewares/lvgl/src/widgets/lv_line.c ****         lv_coord_t x_ofs = area.x1 - lv_obj_get_scroll_x(obj);
 129              		.loc 1 169 9 is_stmt 0 view .LVU32
 130 004c FFF7FEFF 		bl	lv_obj_get_coords
 131              	.LVL15:
 170:Middlewares/lvgl/src/widgets/lv_line.c ****         lv_coord_t y_ofs = area.y1 - lv_obj_get_scroll_y(obj);
 132              		.loc 1 170 9 is_stmt 1 view .LVU33
 170:Middlewares/lvgl/src/widgets/lv_line.c ****         lv_coord_t y_ofs = area.y1 - lv_obj_get_scroll_y(obj);
 133              		.loc 1 170 32 is_stmt 0 view .LVU34
 134 0050 BDF80C70 		ldrh	r7, [sp, #12]
 170:Middlewares/lvgl/src/widgets/lv_line.c ****         lv_coord_t y_ofs = area.y1 - lv_obj_get_scroll_y(obj);
 135              		.loc 1 170 38 view .LVU35
 136 0054 2846     		mov	r0, r5
 137 0056 FFF7FEFF 		bl	lv_obj_get_scroll_x
 138              	.LVL16:
 139 005a 80B2     		uxth	r0, r0
 170:Middlewares/lvgl/src/widgets/lv_line.c ****         lv_coord_t y_ofs = area.y1 - lv_obj_get_scroll_y(obj);
 140              		.loc 1 170 36 view .LVU36
 141 005c 3F1A     		subs	r7, r7, r0
 142 005e BFB2     		uxth	r7, r7
 143              	.LVL17:
 171:Middlewares/lvgl/src/widgets/lv_line.c ****         lv_point_t p1;
 144              		.loc 1 171 9 is_stmt 1 view .LVU37
 171:Middlewares/lvgl/src/widgets/lv_line.c ****         lv_point_t p1;
 145              		.loc 1 171 32 is_stmt 0 view .LVU38
 146 0060 BDF80E60 		ldrh	r6, [sp, #14]
 147              	.LVL18:
 171:Middlewares/lvgl/src/widgets/lv_line.c ****         lv_point_t p1;
 148              		.loc 1 171 38 view .LVU39
 149 0064 2846     		mov	r0, r5
 150 0066 FFF7FEFF 		bl	lv_obj_get_scroll_y
 151              	.LVL19:
 152 006a 80B2     		uxth	r0, r0
 171:Middlewares/lvgl/src/widgets/lv_line.c ****         lv_point_t p1;
 153              		.loc 1 171 36 view .LVU40
 154 006c 361A     		subs	r6, r6, r0
 155 006e B6B2     		uxth	r6, r6
 156              	.LVL20:
 172:Middlewares/lvgl/src/widgets/lv_line.c ****         lv_point_t p2;
 157              		.loc 1 172 9 is_stmt 1 view .LVU41
 173:Middlewares/lvgl/src/widgets/lv_line.c ****         lv_coord_t h = lv_obj_get_height(obj);
 158              		.loc 1 173 9 view .LVU42
 174:Middlewares/lvgl/src/widgets/lv_line.c ****         uint16_t i;
 159              		.loc 1 174 9 view .LVU43
 174:Middlewares/lvgl/src/widgets/lv_line.c ****         uint16_t i;
 160              		.loc 1 174 24 is_stmt 0 view .LVU44
 161 0070 2846     		mov	r0, r5
 162 0072 FFF7FEFF 		bl	lv_obj_get_height
 163              	.LVL21:
 164 0076 8146     		mov	r9, r0
 165              	.LVL22:
 175:Middlewares/lvgl/src/widgets/lv_line.c **** 
ARM GAS  /tmp/ccFHKYR8.s 			page 8


 166              		.loc 1 175 9 is_stmt 1 view .LVU45
 177:Middlewares/lvgl/src/widgets/lv_line.c ****         lv_draw_line_dsc_init(&line_dsc);
 167              		.loc 1 177 9 view .LVU46
 178:Middlewares/lvgl/src/widgets/lv_line.c ****         lv_obj_init_draw_line_dsc(obj, LV_PART_MAIN, &line_dsc);
 168              		.loc 1 178 9 view .LVU47
 169 0078 05A8     		add	r0, sp, #20
 170 007a FFF7FEFF 		bl	lv_draw_line_dsc_init
 171              	.LVL23:
 179:Middlewares/lvgl/src/widgets/lv_line.c **** 
 172              		.loc 1 179 9 view .LVU48
 173 007e 05AA     		add	r2, sp, #20
 174 0080 0021     		movs	r1, #0
 175 0082 2846     		mov	r0, r5
 176 0084 FFF7FEFF 		bl	lv_obj_init_draw_line_dsc
 177              	.LVL24:
 182:Middlewares/lvgl/src/widgets/lv_line.c **** 
 178              		.loc 1 182 9 view .LVU49
 182:Middlewares/lvgl/src/widgets/lv_line.c **** 
 179              		.loc 1 182 15 is_stmt 0 view .LVU50
 180 0088 0024     		movs	r4, #0
 181              	.LVL25:
 182:Middlewares/lvgl/src/widgets/lv_line.c **** 
 182              		.loc 1 182 9 view .LVU51
 183 008a 52E0     		b	.L9
 184              	.LVL26:
 185              	.L16:
 182:Middlewares/lvgl/src/widgets/lv_line.c **** 
 186              		.loc 1 182 9 view .LVU52
 187              	.LBE10:
 188              	.LBB11:
 139:Middlewares/lvgl/src/widgets/lv_line.c ****         lv_coord_t * s = lv_event_get_param(e);
 189              		.loc 1 139 9 is_stmt 1 view .LVU53
 190              	.LBB12:
 191              	.LBI12:
 192              		.file 2 "Middlewares/lvgl/src/widgets/../core/lv_obj_style_gen.h"
   1:Middlewares/lvgl/src/widgets/../core/lv_obj_style_gen.h **** static inline lv_coord_t lv_obj_get_style_width(const struct _lv_obj_t * obj, uint32_t part)
   2:Middlewares/lvgl/src/widgets/../core/lv_obj_style_gen.h **** {
   3:Middlewares/lvgl/src/widgets/../core/lv_obj_style_gen.h ****     lv_style_value_t v = lv_obj_get_style_prop(obj, part, LV_STYLE_WIDTH);
   4:Middlewares/lvgl/src/widgets/../core/lv_obj_style_gen.h ****     return (lv_coord_t)v.num;
   5:Middlewares/lvgl/src/widgets/../core/lv_obj_style_gen.h **** }
   6:Middlewares/lvgl/src/widgets/../core/lv_obj_style_gen.h **** 
   7:Middlewares/lvgl/src/widgets/../core/lv_obj_style_gen.h **** static inline lv_coord_t lv_obj_get_style_min_width(const struct _lv_obj_t * obj, uint32_t part)
   8:Middlewares/lvgl/src/widgets/../core/lv_obj_style_gen.h **** {
   9:Middlewares/lvgl/src/widgets/../core/lv_obj_style_gen.h ****     lv_style_value_t v = lv_obj_get_style_prop(obj, part, LV_STYLE_MIN_WIDTH);
  10:Middlewares/lvgl/src/widgets/../core/lv_obj_style_gen.h ****     return (lv_coord_t)v.num;
  11:Middlewares/lvgl/src/widgets/../core/lv_obj_style_gen.h **** }
  12:Middlewares/lvgl/src/widgets/../core/lv_obj_style_gen.h **** 
  13:Middlewares/lvgl/src/widgets/../core/lv_obj_style_gen.h **** static inline lv_coord_t lv_obj_get_style_max_width(const struct _lv_obj_t * obj, uint32_t part)
  14:Middlewares/lvgl/src/widgets/../core/lv_obj_style_gen.h **** {
  15:Middlewares/lvgl/src/widgets/../core/lv_obj_style_gen.h ****     lv_style_value_t v = lv_obj_get_style_prop(obj, part, LV_STYLE_MAX_WIDTH);
  16:Middlewares/lvgl/src/widgets/../core/lv_obj_style_gen.h ****     return (lv_coord_t)v.num;
  17:Middlewares/lvgl/src/widgets/../core/lv_obj_style_gen.h **** }
  18:Middlewares/lvgl/src/widgets/../core/lv_obj_style_gen.h **** 
  19:Middlewares/lvgl/src/widgets/../core/lv_obj_style_gen.h **** static inline lv_coord_t lv_obj_get_style_height(const struct _lv_obj_t * obj, uint32_t part)
  20:Middlewares/lvgl/src/widgets/../core/lv_obj_style_gen.h **** {
  21:Middlewares/lvgl/src/widgets/../core/lv_obj_style_gen.h ****     lv_style_value_t v = lv_obj_get_style_prop(obj, part, LV_STYLE_HEIGHT);
  22:Middlewares/lvgl/src/widgets/../core/lv_obj_style_gen.h ****     return (lv_coord_t)v.num;
ARM GAS  /tmp/ccFHKYR8.s 			page 9


  23:Middlewares/lvgl/src/widgets/../core/lv_obj_style_gen.h **** }
  24:Middlewares/lvgl/src/widgets/../core/lv_obj_style_gen.h **** 
  25:Middlewares/lvgl/src/widgets/../core/lv_obj_style_gen.h **** static inline lv_coord_t lv_obj_get_style_min_height(const struct _lv_obj_t * obj, uint32_t part)
  26:Middlewares/lvgl/src/widgets/../core/lv_obj_style_gen.h **** {
  27:Middlewares/lvgl/src/widgets/../core/lv_obj_style_gen.h ****     lv_style_value_t v = lv_obj_get_style_prop(obj, part, LV_STYLE_MIN_HEIGHT);
  28:Middlewares/lvgl/src/widgets/../core/lv_obj_style_gen.h ****     return (lv_coord_t)v.num;
  29:Middlewares/lvgl/src/widgets/../core/lv_obj_style_gen.h **** }
  30:Middlewares/lvgl/src/widgets/../core/lv_obj_style_gen.h **** 
  31:Middlewares/lvgl/src/widgets/../core/lv_obj_style_gen.h **** static inline lv_coord_t lv_obj_get_style_max_height(const struct _lv_obj_t * obj, uint32_t part)
  32:Middlewares/lvgl/src/widgets/../core/lv_obj_style_gen.h **** {
  33:Middlewares/lvgl/src/widgets/../core/lv_obj_style_gen.h ****     lv_style_value_t v = lv_obj_get_style_prop(obj, part, LV_STYLE_MAX_HEIGHT);
  34:Middlewares/lvgl/src/widgets/../core/lv_obj_style_gen.h ****     return (lv_coord_t)v.num;
  35:Middlewares/lvgl/src/widgets/../core/lv_obj_style_gen.h **** }
  36:Middlewares/lvgl/src/widgets/../core/lv_obj_style_gen.h **** 
  37:Middlewares/lvgl/src/widgets/../core/lv_obj_style_gen.h **** static inline lv_coord_t lv_obj_get_style_x(const struct _lv_obj_t * obj, uint32_t part)
  38:Middlewares/lvgl/src/widgets/../core/lv_obj_style_gen.h **** {
  39:Middlewares/lvgl/src/widgets/../core/lv_obj_style_gen.h ****     lv_style_value_t v = lv_obj_get_style_prop(obj, part, LV_STYLE_X);
  40:Middlewares/lvgl/src/widgets/../core/lv_obj_style_gen.h ****     return (lv_coord_t)v.num;
  41:Middlewares/lvgl/src/widgets/../core/lv_obj_style_gen.h **** }
  42:Middlewares/lvgl/src/widgets/../core/lv_obj_style_gen.h **** 
  43:Middlewares/lvgl/src/widgets/../core/lv_obj_style_gen.h **** static inline lv_coord_t lv_obj_get_style_y(const struct _lv_obj_t * obj, uint32_t part)
  44:Middlewares/lvgl/src/widgets/../core/lv_obj_style_gen.h **** {
  45:Middlewares/lvgl/src/widgets/../core/lv_obj_style_gen.h ****     lv_style_value_t v = lv_obj_get_style_prop(obj, part, LV_STYLE_Y);
  46:Middlewares/lvgl/src/widgets/../core/lv_obj_style_gen.h ****     return (lv_coord_t)v.num;
  47:Middlewares/lvgl/src/widgets/../core/lv_obj_style_gen.h **** }
  48:Middlewares/lvgl/src/widgets/../core/lv_obj_style_gen.h **** 
  49:Middlewares/lvgl/src/widgets/../core/lv_obj_style_gen.h **** static inline lv_align_t lv_obj_get_style_align(const struct _lv_obj_t * obj, uint32_t part)
  50:Middlewares/lvgl/src/widgets/../core/lv_obj_style_gen.h **** {
  51:Middlewares/lvgl/src/widgets/../core/lv_obj_style_gen.h ****     lv_style_value_t v = lv_obj_get_style_prop(obj, part, LV_STYLE_ALIGN);
  52:Middlewares/lvgl/src/widgets/../core/lv_obj_style_gen.h ****     return (lv_align_t)v.num;
  53:Middlewares/lvgl/src/widgets/../core/lv_obj_style_gen.h **** }
  54:Middlewares/lvgl/src/widgets/../core/lv_obj_style_gen.h **** 
  55:Middlewares/lvgl/src/widgets/../core/lv_obj_style_gen.h **** static inline lv_coord_t lv_obj_get_style_transform_width(const struct _lv_obj_t * obj, uint32_t pa
  56:Middlewares/lvgl/src/widgets/../core/lv_obj_style_gen.h **** {
  57:Middlewares/lvgl/src/widgets/../core/lv_obj_style_gen.h ****     lv_style_value_t v = lv_obj_get_style_prop(obj, part, LV_STYLE_TRANSFORM_WIDTH);
  58:Middlewares/lvgl/src/widgets/../core/lv_obj_style_gen.h ****     return (lv_coord_t)v.num;
  59:Middlewares/lvgl/src/widgets/../core/lv_obj_style_gen.h **** }
  60:Middlewares/lvgl/src/widgets/../core/lv_obj_style_gen.h **** 
  61:Middlewares/lvgl/src/widgets/../core/lv_obj_style_gen.h **** static inline lv_coord_t lv_obj_get_style_transform_height(const struct _lv_obj_t * obj, uint32_t p
  62:Middlewares/lvgl/src/widgets/../core/lv_obj_style_gen.h **** {
  63:Middlewares/lvgl/src/widgets/../core/lv_obj_style_gen.h ****     lv_style_value_t v = lv_obj_get_style_prop(obj, part, LV_STYLE_TRANSFORM_HEIGHT);
  64:Middlewares/lvgl/src/widgets/../core/lv_obj_style_gen.h ****     return (lv_coord_t)v.num;
  65:Middlewares/lvgl/src/widgets/../core/lv_obj_style_gen.h **** }
  66:Middlewares/lvgl/src/widgets/../core/lv_obj_style_gen.h **** 
  67:Middlewares/lvgl/src/widgets/../core/lv_obj_style_gen.h **** static inline lv_coord_t lv_obj_get_style_translate_x(const struct _lv_obj_t * obj, uint32_t part)
  68:Middlewares/lvgl/src/widgets/../core/lv_obj_style_gen.h **** {
  69:Middlewares/lvgl/src/widgets/../core/lv_obj_style_gen.h ****     lv_style_value_t v = lv_obj_get_style_prop(obj, part, LV_STYLE_TRANSLATE_X);
  70:Middlewares/lvgl/src/widgets/../core/lv_obj_style_gen.h ****     return (lv_coord_t)v.num;
  71:Middlewares/lvgl/src/widgets/../core/lv_obj_style_gen.h **** }
  72:Middlewares/lvgl/src/widgets/../core/lv_obj_style_gen.h **** 
  73:Middlewares/lvgl/src/widgets/../core/lv_obj_style_gen.h **** static inline lv_coord_t lv_obj_get_style_translate_y(const struct _lv_obj_t * obj, uint32_t part)
  74:Middlewares/lvgl/src/widgets/../core/lv_obj_style_gen.h **** {
  75:Middlewares/lvgl/src/widgets/../core/lv_obj_style_gen.h ****     lv_style_value_t v = lv_obj_get_style_prop(obj, part, LV_STYLE_TRANSLATE_Y);
  76:Middlewares/lvgl/src/widgets/../core/lv_obj_style_gen.h ****     return (lv_coord_t)v.num;
  77:Middlewares/lvgl/src/widgets/../core/lv_obj_style_gen.h **** }
  78:Middlewares/lvgl/src/widgets/../core/lv_obj_style_gen.h **** 
  79:Middlewares/lvgl/src/widgets/../core/lv_obj_style_gen.h **** static inline lv_coord_t lv_obj_get_style_transform_zoom(const struct _lv_obj_t * obj, uint32_t par
ARM GAS  /tmp/ccFHKYR8.s 			page 10


  80:Middlewares/lvgl/src/widgets/../core/lv_obj_style_gen.h **** {
  81:Middlewares/lvgl/src/widgets/../core/lv_obj_style_gen.h ****     lv_style_value_t v = lv_obj_get_style_prop(obj, part, LV_STYLE_TRANSFORM_ZOOM);
  82:Middlewares/lvgl/src/widgets/../core/lv_obj_style_gen.h ****     return (lv_coord_t)v.num;
  83:Middlewares/lvgl/src/widgets/../core/lv_obj_style_gen.h **** }
  84:Middlewares/lvgl/src/widgets/../core/lv_obj_style_gen.h **** 
  85:Middlewares/lvgl/src/widgets/../core/lv_obj_style_gen.h **** static inline lv_coord_t lv_obj_get_style_transform_angle(const struct _lv_obj_t * obj, uint32_t pa
  86:Middlewares/lvgl/src/widgets/../core/lv_obj_style_gen.h **** {
  87:Middlewares/lvgl/src/widgets/../core/lv_obj_style_gen.h ****     lv_style_value_t v = lv_obj_get_style_prop(obj, part, LV_STYLE_TRANSFORM_ANGLE);
  88:Middlewares/lvgl/src/widgets/../core/lv_obj_style_gen.h ****     return (lv_coord_t)v.num;
  89:Middlewares/lvgl/src/widgets/../core/lv_obj_style_gen.h **** }
  90:Middlewares/lvgl/src/widgets/../core/lv_obj_style_gen.h **** 
  91:Middlewares/lvgl/src/widgets/../core/lv_obj_style_gen.h **** static inline lv_coord_t lv_obj_get_style_pad_top(const struct _lv_obj_t * obj, uint32_t part)
  92:Middlewares/lvgl/src/widgets/../core/lv_obj_style_gen.h **** {
  93:Middlewares/lvgl/src/widgets/../core/lv_obj_style_gen.h ****     lv_style_value_t v = lv_obj_get_style_prop(obj, part, LV_STYLE_PAD_TOP);
  94:Middlewares/lvgl/src/widgets/../core/lv_obj_style_gen.h ****     return (lv_coord_t)v.num;
  95:Middlewares/lvgl/src/widgets/../core/lv_obj_style_gen.h **** }
  96:Middlewares/lvgl/src/widgets/../core/lv_obj_style_gen.h **** 
  97:Middlewares/lvgl/src/widgets/../core/lv_obj_style_gen.h **** static inline lv_coord_t lv_obj_get_style_pad_bottom(const struct _lv_obj_t * obj, uint32_t part)
  98:Middlewares/lvgl/src/widgets/../core/lv_obj_style_gen.h **** {
  99:Middlewares/lvgl/src/widgets/../core/lv_obj_style_gen.h ****     lv_style_value_t v = lv_obj_get_style_prop(obj, part, LV_STYLE_PAD_BOTTOM);
 100:Middlewares/lvgl/src/widgets/../core/lv_obj_style_gen.h ****     return (lv_coord_t)v.num;
 101:Middlewares/lvgl/src/widgets/../core/lv_obj_style_gen.h **** }
 102:Middlewares/lvgl/src/widgets/../core/lv_obj_style_gen.h **** 
 103:Middlewares/lvgl/src/widgets/../core/lv_obj_style_gen.h **** static inline lv_coord_t lv_obj_get_style_pad_left(const struct _lv_obj_t * obj, uint32_t part)
 104:Middlewares/lvgl/src/widgets/../core/lv_obj_style_gen.h **** {
 105:Middlewares/lvgl/src/widgets/../core/lv_obj_style_gen.h ****     lv_style_value_t v = lv_obj_get_style_prop(obj, part, LV_STYLE_PAD_LEFT);
 106:Middlewares/lvgl/src/widgets/../core/lv_obj_style_gen.h ****     return (lv_coord_t)v.num;
 107:Middlewares/lvgl/src/widgets/../core/lv_obj_style_gen.h **** }
 108:Middlewares/lvgl/src/widgets/../core/lv_obj_style_gen.h **** 
 109:Middlewares/lvgl/src/widgets/../core/lv_obj_style_gen.h **** static inline lv_coord_t lv_obj_get_style_pad_right(const struct _lv_obj_t * obj, uint32_t part)
 110:Middlewares/lvgl/src/widgets/../core/lv_obj_style_gen.h **** {
 111:Middlewares/lvgl/src/widgets/../core/lv_obj_style_gen.h ****     lv_style_value_t v = lv_obj_get_style_prop(obj, part, LV_STYLE_PAD_RIGHT);
 112:Middlewares/lvgl/src/widgets/../core/lv_obj_style_gen.h ****     return (lv_coord_t)v.num;
 113:Middlewares/lvgl/src/widgets/../core/lv_obj_style_gen.h **** }
 114:Middlewares/lvgl/src/widgets/../core/lv_obj_style_gen.h **** 
 115:Middlewares/lvgl/src/widgets/../core/lv_obj_style_gen.h **** static inline lv_coord_t lv_obj_get_style_pad_row(const struct _lv_obj_t * obj, uint32_t part)
 116:Middlewares/lvgl/src/widgets/../core/lv_obj_style_gen.h **** {
 117:Middlewares/lvgl/src/widgets/../core/lv_obj_style_gen.h ****     lv_style_value_t v = lv_obj_get_style_prop(obj, part, LV_STYLE_PAD_ROW);
 118:Middlewares/lvgl/src/widgets/../core/lv_obj_style_gen.h ****     return (lv_coord_t)v.num;
 119:Middlewares/lvgl/src/widgets/../core/lv_obj_style_gen.h **** }
 120:Middlewares/lvgl/src/widgets/../core/lv_obj_style_gen.h **** 
 121:Middlewares/lvgl/src/widgets/../core/lv_obj_style_gen.h **** static inline lv_coord_t lv_obj_get_style_pad_column(const struct _lv_obj_t * obj, uint32_t part)
 122:Middlewares/lvgl/src/widgets/../core/lv_obj_style_gen.h **** {
 123:Middlewares/lvgl/src/widgets/../core/lv_obj_style_gen.h ****     lv_style_value_t v = lv_obj_get_style_prop(obj, part, LV_STYLE_PAD_COLUMN);
 124:Middlewares/lvgl/src/widgets/../core/lv_obj_style_gen.h ****     return (lv_coord_t)v.num;
 125:Middlewares/lvgl/src/widgets/../core/lv_obj_style_gen.h **** }
 126:Middlewares/lvgl/src/widgets/../core/lv_obj_style_gen.h **** 
 127:Middlewares/lvgl/src/widgets/../core/lv_obj_style_gen.h **** static inline lv_coord_t lv_obj_get_style_radius(const struct _lv_obj_t * obj, uint32_t part)
 128:Middlewares/lvgl/src/widgets/../core/lv_obj_style_gen.h **** {
 129:Middlewares/lvgl/src/widgets/../core/lv_obj_style_gen.h ****     lv_style_value_t v = lv_obj_get_style_prop(obj, part, LV_STYLE_RADIUS);
 130:Middlewares/lvgl/src/widgets/../core/lv_obj_style_gen.h ****     return (lv_coord_t)v.num;
 131:Middlewares/lvgl/src/widgets/../core/lv_obj_style_gen.h **** }
 132:Middlewares/lvgl/src/widgets/../core/lv_obj_style_gen.h **** 
 133:Middlewares/lvgl/src/widgets/../core/lv_obj_style_gen.h **** static inline bool lv_obj_get_style_clip_corner(const struct _lv_obj_t * obj, uint32_t part)
 134:Middlewares/lvgl/src/widgets/../core/lv_obj_style_gen.h **** {
 135:Middlewares/lvgl/src/widgets/../core/lv_obj_style_gen.h ****     lv_style_value_t v = lv_obj_get_style_prop(obj, part, LV_STYLE_CLIP_CORNER);
 136:Middlewares/lvgl/src/widgets/../core/lv_obj_style_gen.h ****     return (bool)v.num;
ARM GAS  /tmp/ccFHKYR8.s 			page 11


 137:Middlewares/lvgl/src/widgets/../core/lv_obj_style_gen.h **** }
 138:Middlewares/lvgl/src/widgets/../core/lv_obj_style_gen.h **** 
 139:Middlewares/lvgl/src/widgets/../core/lv_obj_style_gen.h **** static inline lv_opa_t lv_obj_get_style_opa(const struct _lv_obj_t * obj, uint32_t part)
 140:Middlewares/lvgl/src/widgets/../core/lv_obj_style_gen.h **** {
 141:Middlewares/lvgl/src/widgets/../core/lv_obj_style_gen.h ****     lv_style_value_t v = lv_obj_get_style_prop(obj, part, LV_STYLE_OPA);
 142:Middlewares/lvgl/src/widgets/../core/lv_obj_style_gen.h ****     return (lv_opa_t)v.num;
 143:Middlewares/lvgl/src/widgets/../core/lv_obj_style_gen.h **** }
 144:Middlewares/lvgl/src/widgets/../core/lv_obj_style_gen.h **** 
 145:Middlewares/lvgl/src/widgets/../core/lv_obj_style_gen.h **** static inline const lv_color_filter_dsc_t * lv_obj_get_style_color_filter_dsc(const struct _lv_obj_
 146:Middlewares/lvgl/src/widgets/../core/lv_obj_style_gen.h **** {
 147:Middlewares/lvgl/src/widgets/../core/lv_obj_style_gen.h ****     lv_style_value_t v = lv_obj_get_style_prop(obj, part, LV_STYLE_COLOR_FILTER_DSC);
 148:Middlewares/lvgl/src/widgets/../core/lv_obj_style_gen.h ****     return (const lv_color_filter_dsc_t *)v.ptr;
 149:Middlewares/lvgl/src/widgets/../core/lv_obj_style_gen.h **** }
 150:Middlewares/lvgl/src/widgets/../core/lv_obj_style_gen.h **** 
 151:Middlewares/lvgl/src/widgets/../core/lv_obj_style_gen.h **** static inline lv_opa_t lv_obj_get_style_color_filter_opa(const struct _lv_obj_t * obj, uint32_t par
 152:Middlewares/lvgl/src/widgets/../core/lv_obj_style_gen.h **** {
 153:Middlewares/lvgl/src/widgets/../core/lv_obj_style_gen.h ****     lv_style_value_t v = lv_obj_get_style_prop(obj, part, LV_STYLE_COLOR_FILTER_OPA);
 154:Middlewares/lvgl/src/widgets/../core/lv_obj_style_gen.h ****     return (lv_opa_t)v.num;
 155:Middlewares/lvgl/src/widgets/../core/lv_obj_style_gen.h **** }
 156:Middlewares/lvgl/src/widgets/../core/lv_obj_style_gen.h **** 
 157:Middlewares/lvgl/src/widgets/../core/lv_obj_style_gen.h **** static inline uint32_t lv_obj_get_style_anim_time(const struct _lv_obj_t * obj, uint32_t part)
 158:Middlewares/lvgl/src/widgets/../core/lv_obj_style_gen.h **** {
 159:Middlewares/lvgl/src/widgets/../core/lv_obj_style_gen.h ****     lv_style_value_t v = lv_obj_get_style_prop(obj, part, LV_STYLE_ANIM_TIME);
 160:Middlewares/lvgl/src/widgets/../core/lv_obj_style_gen.h ****     return (uint32_t)v.num;
 161:Middlewares/lvgl/src/widgets/../core/lv_obj_style_gen.h **** }
 162:Middlewares/lvgl/src/widgets/../core/lv_obj_style_gen.h **** 
 163:Middlewares/lvgl/src/widgets/../core/lv_obj_style_gen.h **** static inline uint32_t lv_obj_get_style_anim_speed(const struct _lv_obj_t * obj, uint32_t part)
 164:Middlewares/lvgl/src/widgets/../core/lv_obj_style_gen.h **** {
 165:Middlewares/lvgl/src/widgets/../core/lv_obj_style_gen.h ****     lv_style_value_t v = lv_obj_get_style_prop(obj, part, LV_STYLE_ANIM_SPEED);
 166:Middlewares/lvgl/src/widgets/../core/lv_obj_style_gen.h ****     return (uint32_t)v.num;
 167:Middlewares/lvgl/src/widgets/../core/lv_obj_style_gen.h **** }
 168:Middlewares/lvgl/src/widgets/../core/lv_obj_style_gen.h **** 
 169:Middlewares/lvgl/src/widgets/../core/lv_obj_style_gen.h **** static inline const lv_style_transition_dsc_t * lv_obj_get_style_transition(const struct _lv_obj_t 
 170:Middlewares/lvgl/src/widgets/../core/lv_obj_style_gen.h **** {
 171:Middlewares/lvgl/src/widgets/../core/lv_obj_style_gen.h ****     lv_style_value_t v = lv_obj_get_style_prop(obj, part, LV_STYLE_TRANSITION);
 172:Middlewares/lvgl/src/widgets/../core/lv_obj_style_gen.h ****     return (const lv_style_transition_dsc_t *)v.ptr;
 173:Middlewares/lvgl/src/widgets/../core/lv_obj_style_gen.h **** }
 174:Middlewares/lvgl/src/widgets/../core/lv_obj_style_gen.h **** 
 175:Middlewares/lvgl/src/widgets/../core/lv_obj_style_gen.h **** static inline lv_blend_mode_t lv_obj_get_style_blend_mode(const struct _lv_obj_t * obj, uint32_t pa
 176:Middlewares/lvgl/src/widgets/../core/lv_obj_style_gen.h **** {
 177:Middlewares/lvgl/src/widgets/../core/lv_obj_style_gen.h ****     lv_style_value_t v = lv_obj_get_style_prop(obj, part, LV_STYLE_BLEND_MODE);
 178:Middlewares/lvgl/src/widgets/../core/lv_obj_style_gen.h ****     return (lv_blend_mode_t)v.num;
 179:Middlewares/lvgl/src/widgets/../core/lv_obj_style_gen.h **** }
 180:Middlewares/lvgl/src/widgets/../core/lv_obj_style_gen.h **** 
 181:Middlewares/lvgl/src/widgets/../core/lv_obj_style_gen.h **** static inline uint16_t lv_obj_get_style_layout(const struct _lv_obj_t * obj, uint32_t part)
 182:Middlewares/lvgl/src/widgets/../core/lv_obj_style_gen.h **** {
 183:Middlewares/lvgl/src/widgets/../core/lv_obj_style_gen.h ****     lv_style_value_t v = lv_obj_get_style_prop(obj, part, LV_STYLE_LAYOUT);
 184:Middlewares/lvgl/src/widgets/../core/lv_obj_style_gen.h ****     return (uint16_t)v.num;
 185:Middlewares/lvgl/src/widgets/../core/lv_obj_style_gen.h **** }
 186:Middlewares/lvgl/src/widgets/../core/lv_obj_style_gen.h **** 
 187:Middlewares/lvgl/src/widgets/../core/lv_obj_style_gen.h **** static inline lv_base_dir_t lv_obj_get_style_base_dir(const struct _lv_obj_t * obj, uint32_t part)
 188:Middlewares/lvgl/src/widgets/../core/lv_obj_style_gen.h **** {
 189:Middlewares/lvgl/src/widgets/../core/lv_obj_style_gen.h ****     lv_style_value_t v = lv_obj_get_style_prop(obj, part, LV_STYLE_BASE_DIR);
 190:Middlewares/lvgl/src/widgets/../core/lv_obj_style_gen.h ****     return (lv_base_dir_t)v.num;
 191:Middlewares/lvgl/src/widgets/../core/lv_obj_style_gen.h **** }
 192:Middlewares/lvgl/src/widgets/../core/lv_obj_style_gen.h **** 
 193:Middlewares/lvgl/src/widgets/../core/lv_obj_style_gen.h **** static inline lv_color_t lv_obj_get_style_bg_color(const struct _lv_obj_t * obj, uint32_t part)
ARM GAS  /tmp/ccFHKYR8.s 			page 12


 194:Middlewares/lvgl/src/widgets/../core/lv_obj_style_gen.h **** {
 195:Middlewares/lvgl/src/widgets/../core/lv_obj_style_gen.h ****     lv_style_value_t v = lv_obj_get_style_prop(obj, part, LV_STYLE_BG_COLOR);
 196:Middlewares/lvgl/src/widgets/../core/lv_obj_style_gen.h ****     return v.color;
 197:Middlewares/lvgl/src/widgets/../core/lv_obj_style_gen.h **** }
 198:Middlewares/lvgl/src/widgets/../core/lv_obj_style_gen.h **** 
 199:Middlewares/lvgl/src/widgets/../core/lv_obj_style_gen.h **** static inline lv_color_t lv_obj_get_style_bg_color_filtered(const struct _lv_obj_t * obj, uint32_t 
 200:Middlewares/lvgl/src/widgets/../core/lv_obj_style_gen.h **** {
 201:Middlewares/lvgl/src/widgets/../core/lv_obj_style_gen.h ****     lv_style_value_t v = lv_obj_get_style_prop(obj, part, LV_STYLE_BG_COLOR_FILTERED);
 202:Middlewares/lvgl/src/widgets/../core/lv_obj_style_gen.h ****     return v.color;
 203:Middlewares/lvgl/src/widgets/../core/lv_obj_style_gen.h **** }
 204:Middlewares/lvgl/src/widgets/../core/lv_obj_style_gen.h **** 
 205:Middlewares/lvgl/src/widgets/../core/lv_obj_style_gen.h **** static inline lv_opa_t lv_obj_get_style_bg_opa(const struct _lv_obj_t * obj, uint32_t part)
 206:Middlewares/lvgl/src/widgets/../core/lv_obj_style_gen.h **** {
 207:Middlewares/lvgl/src/widgets/../core/lv_obj_style_gen.h ****     lv_style_value_t v = lv_obj_get_style_prop(obj, part, LV_STYLE_BG_OPA);
 208:Middlewares/lvgl/src/widgets/../core/lv_obj_style_gen.h ****     return (lv_opa_t)v.num;
 209:Middlewares/lvgl/src/widgets/../core/lv_obj_style_gen.h **** }
 210:Middlewares/lvgl/src/widgets/../core/lv_obj_style_gen.h **** 
 211:Middlewares/lvgl/src/widgets/../core/lv_obj_style_gen.h **** static inline lv_color_t lv_obj_get_style_bg_grad_color(const struct _lv_obj_t * obj, uint32_t part
 212:Middlewares/lvgl/src/widgets/../core/lv_obj_style_gen.h **** {
 213:Middlewares/lvgl/src/widgets/../core/lv_obj_style_gen.h ****     lv_style_value_t v = lv_obj_get_style_prop(obj, part, LV_STYLE_BG_GRAD_COLOR);
 214:Middlewares/lvgl/src/widgets/../core/lv_obj_style_gen.h ****     return v.color;
 215:Middlewares/lvgl/src/widgets/../core/lv_obj_style_gen.h **** }
 216:Middlewares/lvgl/src/widgets/../core/lv_obj_style_gen.h **** 
 217:Middlewares/lvgl/src/widgets/../core/lv_obj_style_gen.h **** static inline lv_color_t lv_obj_get_style_bg_grad_color_filtered(const struct _lv_obj_t * obj, uint
 218:Middlewares/lvgl/src/widgets/../core/lv_obj_style_gen.h **** {
 219:Middlewares/lvgl/src/widgets/../core/lv_obj_style_gen.h ****     lv_style_value_t v = lv_obj_get_style_prop(obj, part, LV_STYLE_BG_GRAD_COLOR_FILTERED);
 220:Middlewares/lvgl/src/widgets/../core/lv_obj_style_gen.h ****     return v.color;
 221:Middlewares/lvgl/src/widgets/../core/lv_obj_style_gen.h **** }
 222:Middlewares/lvgl/src/widgets/../core/lv_obj_style_gen.h **** 
 223:Middlewares/lvgl/src/widgets/../core/lv_obj_style_gen.h **** static inline lv_grad_dir_t lv_obj_get_style_bg_grad_dir(const struct _lv_obj_t * obj, uint32_t par
 224:Middlewares/lvgl/src/widgets/../core/lv_obj_style_gen.h **** {
 225:Middlewares/lvgl/src/widgets/../core/lv_obj_style_gen.h ****     lv_style_value_t v = lv_obj_get_style_prop(obj, part, LV_STYLE_BG_GRAD_DIR);
 226:Middlewares/lvgl/src/widgets/../core/lv_obj_style_gen.h ****     return (lv_grad_dir_t)v.num;
 227:Middlewares/lvgl/src/widgets/../core/lv_obj_style_gen.h **** }
 228:Middlewares/lvgl/src/widgets/../core/lv_obj_style_gen.h **** 
 229:Middlewares/lvgl/src/widgets/../core/lv_obj_style_gen.h **** static inline lv_coord_t lv_obj_get_style_bg_main_stop(const struct _lv_obj_t * obj, uint32_t part)
 230:Middlewares/lvgl/src/widgets/../core/lv_obj_style_gen.h **** {
 231:Middlewares/lvgl/src/widgets/../core/lv_obj_style_gen.h ****     lv_style_value_t v = lv_obj_get_style_prop(obj, part, LV_STYLE_BG_MAIN_STOP);
 232:Middlewares/lvgl/src/widgets/../core/lv_obj_style_gen.h ****     return (lv_coord_t)v.num;
 233:Middlewares/lvgl/src/widgets/../core/lv_obj_style_gen.h **** }
 234:Middlewares/lvgl/src/widgets/../core/lv_obj_style_gen.h **** 
 235:Middlewares/lvgl/src/widgets/../core/lv_obj_style_gen.h **** static inline lv_coord_t lv_obj_get_style_bg_grad_stop(const struct _lv_obj_t * obj, uint32_t part)
 236:Middlewares/lvgl/src/widgets/../core/lv_obj_style_gen.h **** {
 237:Middlewares/lvgl/src/widgets/../core/lv_obj_style_gen.h ****     lv_style_value_t v = lv_obj_get_style_prop(obj, part, LV_STYLE_BG_GRAD_STOP);
 238:Middlewares/lvgl/src/widgets/../core/lv_obj_style_gen.h ****     return (lv_coord_t)v.num;
 239:Middlewares/lvgl/src/widgets/../core/lv_obj_style_gen.h **** }
 240:Middlewares/lvgl/src/widgets/../core/lv_obj_style_gen.h **** 
 241:Middlewares/lvgl/src/widgets/../core/lv_obj_style_gen.h **** static inline const void * lv_obj_get_style_bg_img_src(const struct _lv_obj_t * obj, uint32_t part)
 242:Middlewares/lvgl/src/widgets/../core/lv_obj_style_gen.h **** {
 243:Middlewares/lvgl/src/widgets/../core/lv_obj_style_gen.h ****     lv_style_value_t v = lv_obj_get_style_prop(obj, part, LV_STYLE_BG_IMG_SRC);
 244:Middlewares/lvgl/src/widgets/../core/lv_obj_style_gen.h ****     return (const void *)v.ptr;
 245:Middlewares/lvgl/src/widgets/../core/lv_obj_style_gen.h **** }
 246:Middlewares/lvgl/src/widgets/../core/lv_obj_style_gen.h **** 
 247:Middlewares/lvgl/src/widgets/../core/lv_obj_style_gen.h **** static inline lv_opa_t lv_obj_get_style_bg_img_opa(const struct _lv_obj_t * obj, uint32_t part)
 248:Middlewares/lvgl/src/widgets/../core/lv_obj_style_gen.h **** {
 249:Middlewares/lvgl/src/widgets/../core/lv_obj_style_gen.h ****     lv_style_value_t v = lv_obj_get_style_prop(obj, part, LV_STYLE_BG_IMG_OPA);
 250:Middlewares/lvgl/src/widgets/../core/lv_obj_style_gen.h ****     return (lv_opa_t)v.num;
ARM GAS  /tmp/ccFHKYR8.s 			page 13


 251:Middlewares/lvgl/src/widgets/../core/lv_obj_style_gen.h **** }
 252:Middlewares/lvgl/src/widgets/../core/lv_obj_style_gen.h **** 
 253:Middlewares/lvgl/src/widgets/../core/lv_obj_style_gen.h **** static inline lv_color_t lv_obj_get_style_bg_img_recolor(const struct _lv_obj_t * obj, uint32_t par
 254:Middlewares/lvgl/src/widgets/../core/lv_obj_style_gen.h **** {
 255:Middlewares/lvgl/src/widgets/../core/lv_obj_style_gen.h ****     lv_style_value_t v = lv_obj_get_style_prop(obj, part, LV_STYLE_BG_IMG_RECOLOR);
 256:Middlewares/lvgl/src/widgets/../core/lv_obj_style_gen.h ****     return v.color;
 257:Middlewares/lvgl/src/widgets/../core/lv_obj_style_gen.h **** }
 258:Middlewares/lvgl/src/widgets/../core/lv_obj_style_gen.h **** 
 259:Middlewares/lvgl/src/widgets/../core/lv_obj_style_gen.h **** static inline lv_color_t lv_obj_get_style_bg_img_recolor_filtered(const struct _lv_obj_t * obj, uin
 260:Middlewares/lvgl/src/widgets/../core/lv_obj_style_gen.h **** {
 261:Middlewares/lvgl/src/widgets/../core/lv_obj_style_gen.h ****     lv_style_value_t v = lv_obj_get_style_prop(obj, part, LV_STYLE_BG_IMG_RECOLOR_FILTERED);
 262:Middlewares/lvgl/src/widgets/../core/lv_obj_style_gen.h ****     return v.color;
 263:Middlewares/lvgl/src/widgets/../core/lv_obj_style_gen.h **** }
 264:Middlewares/lvgl/src/widgets/../core/lv_obj_style_gen.h **** 
 265:Middlewares/lvgl/src/widgets/../core/lv_obj_style_gen.h **** static inline lv_opa_t lv_obj_get_style_bg_img_recolor_opa(const struct _lv_obj_t * obj, uint32_t p
 266:Middlewares/lvgl/src/widgets/../core/lv_obj_style_gen.h **** {
 267:Middlewares/lvgl/src/widgets/../core/lv_obj_style_gen.h ****     lv_style_value_t v = lv_obj_get_style_prop(obj, part, LV_STYLE_BG_IMG_RECOLOR_OPA);
 268:Middlewares/lvgl/src/widgets/../core/lv_obj_style_gen.h ****     return (lv_opa_t)v.num;
 269:Middlewares/lvgl/src/widgets/../core/lv_obj_style_gen.h **** }
 270:Middlewares/lvgl/src/widgets/../core/lv_obj_style_gen.h **** 
 271:Middlewares/lvgl/src/widgets/../core/lv_obj_style_gen.h **** static inline bool lv_obj_get_style_bg_img_tiled(const struct _lv_obj_t * obj, uint32_t part)
 272:Middlewares/lvgl/src/widgets/../core/lv_obj_style_gen.h **** {
 273:Middlewares/lvgl/src/widgets/../core/lv_obj_style_gen.h ****     lv_style_value_t v = lv_obj_get_style_prop(obj, part, LV_STYLE_BG_IMG_TILED);
 274:Middlewares/lvgl/src/widgets/../core/lv_obj_style_gen.h ****     return (bool)v.num;
 275:Middlewares/lvgl/src/widgets/../core/lv_obj_style_gen.h **** }
 276:Middlewares/lvgl/src/widgets/../core/lv_obj_style_gen.h **** 
 277:Middlewares/lvgl/src/widgets/../core/lv_obj_style_gen.h **** static inline lv_color_t lv_obj_get_style_border_color(const struct _lv_obj_t * obj, uint32_t part)
 278:Middlewares/lvgl/src/widgets/../core/lv_obj_style_gen.h **** {
 279:Middlewares/lvgl/src/widgets/../core/lv_obj_style_gen.h ****     lv_style_value_t v = lv_obj_get_style_prop(obj, part, LV_STYLE_BORDER_COLOR);
 280:Middlewares/lvgl/src/widgets/../core/lv_obj_style_gen.h ****     return v.color;
 281:Middlewares/lvgl/src/widgets/../core/lv_obj_style_gen.h **** }
 282:Middlewares/lvgl/src/widgets/../core/lv_obj_style_gen.h **** 
 283:Middlewares/lvgl/src/widgets/../core/lv_obj_style_gen.h **** static inline lv_color_t lv_obj_get_style_border_color_filtered(const struct _lv_obj_t * obj, uint3
 284:Middlewares/lvgl/src/widgets/../core/lv_obj_style_gen.h **** {
 285:Middlewares/lvgl/src/widgets/../core/lv_obj_style_gen.h ****     lv_style_value_t v = lv_obj_get_style_prop(obj, part, LV_STYLE_BORDER_COLOR_FILTERED);
 286:Middlewares/lvgl/src/widgets/../core/lv_obj_style_gen.h ****     return v.color;
 287:Middlewares/lvgl/src/widgets/../core/lv_obj_style_gen.h **** }
 288:Middlewares/lvgl/src/widgets/../core/lv_obj_style_gen.h **** 
 289:Middlewares/lvgl/src/widgets/../core/lv_obj_style_gen.h **** static inline lv_opa_t lv_obj_get_style_border_opa(const struct _lv_obj_t * obj, uint32_t part)
 290:Middlewares/lvgl/src/widgets/../core/lv_obj_style_gen.h **** {
 291:Middlewares/lvgl/src/widgets/../core/lv_obj_style_gen.h ****     lv_style_value_t v = lv_obj_get_style_prop(obj, part, LV_STYLE_BORDER_OPA);
 292:Middlewares/lvgl/src/widgets/../core/lv_obj_style_gen.h ****     return (lv_opa_t)v.num;
 293:Middlewares/lvgl/src/widgets/../core/lv_obj_style_gen.h **** }
 294:Middlewares/lvgl/src/widgets/../core/lv_obj_style_gen.h **** 
 295:Middlewares/lvgl/src/widgets/../core/lv_obj_style_gen.h **** static inline lv_coord_t lv_obj_get_style_border_width(const struct _lv_obj_t * obj, uint32_t part)
 296:Middlewares/lvgl/src/widgets/../core/lv_obj_style_gen.h **** {
 297:Middlewares/lvgl/src/widgets/../core/lv_obj_style_gen.h ****     lv_style_value_t v = lv_obj_get_style_prop(obj, part, LV_STYLE_BORDER_WIDTH);
 298:Middlewares/lvgl/src/widgets/../core/lv_obj_style_gen.h ****     return (lv_coord_t)v.num;
 299:Middlewares/lvgl/src/widgets/../core/lv_obj_style_gen.h **** }
 300:Middlewares/lvgl/src/widgets/../core/lv_obj_style_gen.h **** 
 301:Middlewares/lvgl/src/widgets/../core/lv_obj_style_gen.h **** static inline lv_border_side_t lv_obj_get_style_border_side(const struct _lv_obj_t * obj, uint32_t 
 302:Middlewares/lvgl/src/widgets/../core/lv_obj_style_gen.h **** {
 303:Middlewares/lvgl/src/widgets/../core/lv_obj_style_gen.h ****     lv_style_value_t v = lv_obj_get_style_prop(obj, part, LV_STYLE_BORDER_SIDE);
 304:Middlewares/lvgl/src/widgets/../core/lv_obj_style_gen.h ****     return (lv_border_side_t)v.num;
 305:Middlewares/lvgl/src/widgets/../core/lv_obj_style_gen.h **** }
 306:Middlewares/lvgl/src/widgets/../core/lv_obj_style_gen.h **** 
 307:Middlewares/lvgl/src/widgets/../core/lv_obj_style_gen.h **** static inline bool lv_obj_get_style_border_post(const struct _lv_obj_t * obj, uint32_t part)
ARM GAS  /tmp/ccFHKYR8.s 			page 14


 308:Middlewares/lvgl/src/widgets/../core/lv_obj_style_gen.h **** {
 309:Middlewares/lvgl/src/widgets/../core/lv_obj_style_gen.h ****     lv_style_value_t v = lv_obj_get_style_prop(obj, part, LV_STYLE_BORDER_POST);
 310:Middlewares/lvgl/src/widgets/../core/lv_obj_style_gen.h ****     return (bool)v.num;
 311:Middlewares/lvgl/src/widgets/../core/lv_obj_style_gen.h **** }
 312:Middlewares/lvgl/src/widgets/../core/lv_obj_style_gen.h **** 
 313:Middlewares/lvgl/src/widgets/../core/lv_obj_style_gen.h **** static inline lv_color_t lv_obj_get_style_text_color(const struct _lv_obj_t * obj, uint32_t part)
 314:Middlewares/lvgl/src/widgets/../core/lv_obj_style_gen.h **** {
 315:Middlewares/lvgl/src/widgets/../core/lv_obj_style_gen.h ****     lv_style_value_t v = lv_obj_get_style_prop(obj, part, LV_STYLE_TEXT_COLOR);
 316:Middlewares/lvgl/src/widgets/../core/lv_obj_style_gen.h ****     return v.color;
 317:Middlewares/lvgl/src/widgets/../core/lv_obj_style_gen.h **** }
 318:Middlewares/lvgl/src/widgets/../core/lv_obj_style_gen.h **** 
 319:Middlewares/lvgl/src/widgets/../core/lv_obj_style_gen.h **** static inline lv_color_t lv_obj_get_style_text_color_filtered(const struct _lv_obj_t * obj, uint32_
 320:Middlewares/lvgl/src/widgets/../core/lv_obj_style_gen.h **** {
 321:Middlewares/lvgl/src/widgets/../core/lv_obj_style_gen.h ****     lv_style_value_t v = lv_obj_get_style_prop(obj, part, LV_STYLE_TEXT_COLOR_FILTERED);
 322:Middlewares/lvgl/src/widgets/../core/lv_obj_style_gen.h ****     return v.color;
 323:Middlewares/lvgl/src/widgets/../core/lv_obj_style_gen.h **** }
 324:Middlewares/lvgl/src/widgets/../core/lv_obj_style_gen.h **** 
 325:Middlewares/lvgl/src/widgets/../core/lv_obj_style_gen.h **** static inline lv_opa_t lv_obj_get_style_text_opa(const struct _lv_obj_t * obj, uint32_t part)
 326:Middlewares/lvgl/src/widgets/../core/lv_obj_style_gen.h **** {
 327:Middlewares/lvgl/src/widgets/../core/lv_obj_style_gen.h ****     lv_style_value_t v = lv_obj_get_style_prop(obj, part, LV_STYLE_TEXT_OPA);
 328:Middlewares/lvgl/src/widgets/../core/lv_obj_style_gen.h ****     return (lv_opa_t)v.num;
 329:Middlewares/lvgl/src/widgets/../core/lv_obj_style_gen.h **** }
 330:Middlewares/lvgl/src/widgets/../core/lv_obj_style_gen.h **** 
 331:Middlewares/lvgl/src/widgets/../core/lv_obj_style_gen.h **** static inline const lv_font_t * lv_obj_get_style_text_font(const struct _lv_obj_t * obj, uint32_t p
 332:Middlewares/lvgl/src/widgets/../core/lv_obj_style_gen.h **** {
 333:Middlewares/lvgl/src/widgets/../core/lv_obj_style_gen.h ****     lv_style_value_t v = lv_obj_get_style_prop(obj, part, LV_STYLE_TEXT_FONT);
 334:Middlewares/lvgl/src/widgets/../core/lv_obj_style_gen.h ****     return (const lv_font_t *)v.ptr;
 335:Middlewares/lvgl/src/widgets/../core/lv_obj_style_gen.h **** }
 336:Middlewares/lvgl/src/widgets/../core/lv_obj_style_gen.h **** 
 337:Middlewares/lvgl/src/widgets/../core/lv_obj_style_gen.h **** static inline lv_coord_t lv_obj_get_style_text_letter_space(const struct _lv_obj_t * obj, uint32_t 
 338:Middlewares/lvgl/src/widgets/../core/lv_obj_style_gen.h **** {
 339:Middlewares/lvgl/src/widgets/../core/lv_obj_style_gen.h ****     lv_style_value_t v = lv_obj_get_style_prop(obj, part, LV_STYLE_TEXT_LETTER_SPACE);
 340:Middlewares/lvgl/src/widgets/../core/lv_obj_style_gen.h ****     return (lv_coord_t)v.num;
 341:Middlewares/lvgl/src/widgets/../core/lv_obj_style_gen.h **** }
 342:Middlewares/lvgl/src/widgets/../core/lv_obj_style_gen.h **** 
 343:Middlewares/lvgl/src/widgets/../core/lv_obj_style_gen.h **** static inline lv_coord_t lv_obj_get_style_text_line_space(const struct _lv_obj_t * obj, uint32_t pa
 344:Middlewares/lvgl/src/widgets/../core/lv_obj_style_gen.h **** {
 345:Middlewares/lvgl/src/widgets/../core/lv_obj_style_gen.h ****     lv_style_value_t v = lv_obj_get_style_prop(obj, part, LV_STYLE_TEXT_LINE_SPACE);
 346:Middlewares/lvgl/src/widgets/../core/lv_obj_style_gen.h ****     return (lv_coord_t)v.num;
 347:Middlewares/lvgl/src/widgets/../core/lv_obj_style_gen.h **** }
 348:Middlewares/lvgl/src/widgets/../core/lv_obj_style_gen.h **** 
 349:Middlewares/lvgl/src/widgets/../core/lv_obj_style_gen.h **** static inline lv_text_decor_t lv_obj_get_style_text_decor(const struct _lv_obj_t * obj, uint32_t pa
 350:Middlewares/lvgl/src/widgets/../core/lv_obj_style_gen.h **** {
 351:Middlewares/lvgl/src/widgets/../core/lv_obj_style_gen.h ****     lv_style_value_t v = lv_obj_get_style_prop(obj, part, LV_STYLE_TEXT_DECOR);
 352:Middlewares/lvgl/src/widgets/../core/lv_obj_style_gen.h ****     return (lv_text_decor_t)v.num;
 353:Middlewares/lvgl/src/widgets/../core/lv_obj_style_gen.h **** }
 354:Middlewares/lvgl/src/widgets/../core/lv_obj_style_gen.h **** 
 355:Middlewares/lvgl/src/widgets/../core/lv_obj_style_gen.h **** static inline lv_text_align_t lv_obj_get_style_text_align(const struct _lv_obj_t * obj, uint32_t pa
 356:Middlewares/lvgl/src/widgets/../core/lv_obj_style_gen.h **** {
 357:Middlewares/lvgl/src/widgets/../core/lv_obj_style_gen.h ****     lv_style_value_t v = lv_obj_get_style_prop(obj, part, LV_STYLE_TEXT_ALIGN);
 358:Middlewares/lvgl/src/widgets/../core/lv_obj_style_gen.h ****     return (lv_text_align_t)v.num;
 359:Middlewares/lvgl/src/widgets/../core/lv_obj_style_gen.h **** }
 360:Middlewares/lvgl/src/widgets/../core/lv_obj_style_gen.h **** 
 361:Middlewares/lvgl/src/widgets/../core/lv_obj_style_gen.h **** static inline lv_opa_t lv_obj_get_style_img_opa(const struct _lv_obj_t * obj, uint32_t part)
 362:Middlewares/lvgl/src/widgets/../core/lv_obj_style_gen.h **** {
 363:Middlewares/lvgl/src/widgets/../core/lv_obj_style_gen.h ****     lv_style_value_t v = lv_obj_get_style_prop(obj, part, LV_STYLE_IMG_OPA);
 364:Middlewares/lvgl/src/widgets/../core/lv_obj_style_gen.h ****     return (lv_opa_t)v.num;
ARM GAS  /tmp/ccFHKYR8.s 			page 15


 365:Middlewares/lvgl/src/widgets/../core/lv_obj_style_gen.h **** }
 366:Middlewares/lvgl/src/widgets/../core/lv_obj_style_gen.h **** 
 367:Middlewares/lvgl/src/widgets/../core/lv_obj_style_gen.h **** static inline lv_color_t lv_obj_get_style_img_recolor(const struct _lv_obj_t * obj, uint32_t part)
 368:Middlewares/lvgl/src/widgets/../core/lv_obj_style_gen.h **** {
 369:Middlewares/lvgl/src/widgets/../core/lv_obj_style_gen.h ****     lv_style_value_t v = lv_obj_get_style_prop(obj, part, LV_STYLE_IMG_RECOLOR);
 370:Middlewares/lvgl/src/widgets/../core/lv_obj_style_gen.h ****     return v.color;
 371:Middlewares/lvgl/src/widgets/../core/lv_obj_style_gen.h **** }
 372:Middlewares/lvgl/src/widgets/../core/lv_obj_style_gen.h **** 
 373:Middlewares/lvgl/src/widgets/../core/lv_obj_style_gen.h **** static inline lv_color_t lv_obj_get_style_img_recolor_filtered(const struct _lv_obj_t * obj, uint32
 374:Middlewares/lvgl/src/widgets/../core/lv_obj_style_gen.h **** {
 375:Middlewares/lvgl/src/widgets/../core/lv_obj_style_gen.h ****     lv_style_value_t v = lv_obj_get_style_prop(obj, part, LV_STYLE_IMG_RECOLOR_FILTERED);
 376:Middlewares/lvgl/src/widgets/../core/lv_obj_style_gen.h ****     return v.color;
 377:Middlewares/lvgl/src/widgets/../core/lv_obj_style_gen.h **** }
 378:Middlewares/lvgl/src/widgets/../core/lv_obj_style_gen.h **** 
 379:Middlewares/lvgl/src/widgets/../core/lv_obj_style_gen.h **** static inline lv_opa_t lv_obj_get_style_img_recolor_opa(const struct _lv_obj_t * obj, uint32_t part
 380:Middlewares/lvgl/src/widgets/../core/lv_obj_style_gen.h **** {
 381:Middlewares/lvgl/src/widgets/../core/lv_obj_style_gen.h ****     lv_style_value_t v = lv_obj_get_style_prop(obj, part, LV_STYLE_IMG_RECOLOR_OPA);
 382:Middlewares/lvgl/src/widgets/../core/lv_obj_style_gen.h ****     return (lv_opa_t)v.num;
 383:Middlewares/lvgl/src/widgets/../core/lv_obj_style_gen.h **** }
 384:Middlewares/lvgl/src/widgets/../core/lv_obj_style_gen.h **** 
 385:Middlewares/lvgl/src/widgets/../core/lv_obj_style_gen.h **** static inline lv_coord_t lv_obj_get_style_outline_width(const struct _lv_obj_t * obj, uint32_t part
 386:Middlewares/lvgl/src/widgets/../core/lv_obj_style_gen.h **** {
 387:Middlewares/lvgl/src/widgets/../core/lv_obj_style_gen.h ****     lv_style_value_t v = lv_obj_get_style_prop(obj, part, LV_STYLE_OUTLINE_WIDTH);
 388:Middlewares/lvgl/src/widgets/../core/lv_obj_style_gen.h ****     return (lv_coord_t)v.num;
 389:Middlewares/lvgl/src/widgets/../core/lv_obj_style_gen.h **** }
 390:Middlewares/lvgl/src/widgets/../core/lv_obj_style_gen.h **** 
 391:Middlewares/lvgl/src/widgets/../core/lv_obj_style_gen.h **** static inline lv_color_t lv_obj_get_style_outline_color(const struct _lv_obj_t * obj, uint32_t part
 392:Middlewares/lvgl/src/widgets/../core/lv_obj_style_gen.h **** {
 393:Middlewares/lvgl/src/widgets/../core/lv_obj_style_gen.h ****     lv_style_value_t v = lv_obj_get_style_prop(obj, part, LV_STYLE_OUTLINE_COLOR);
 394:Middlewares/lvgl/src/widgets/../core/lv_obj_style_gen.h ****     return v.color;
 395:Middlewares/lvgl/src/widgets/../core/lv_obj_style_gen.h **** }
 396:Middlewares/lvgl/src/widgets/../core/lv_obj_style_gen.h **** 
 397:Middlewares/lvgl/src/widgets/../core/lv_obj_style_gen.h **** static inline lv_color_t lv_obj_get_style_outline_color_filtered(const struct _lv_obj_t * obj, uint
 398:Middlewares/lvgl/src/widgets/../core/lv_obj_style_gen.h **** {
 399:Middlewares/lvgl/src/widgets/../core/lv_obj_style_gen.h ****     lv_style_value_t v = lv_obj_get_style_prop(obj, part, LV_STYLE_OUTLINE_COLOR_FILTERED);
 400:Middlewares/lvgl/src/widgets/../core/lv_obj_style_gen.h ****     return v.color;
 401:Middlewares/lvgl/src/widgets/../core/lv_obj_style_gen.h **** }
 402:Middlewares/lvgl/src/widgets/../core/lv_obj_style_gen.h **** 
 403:Middlewares/lvgl/src/widgets/../core/lv_obj_style_gen.h **** static inline lv_opa_t lv_obj_get_style_outline_opa(const struct _lv_obj_t * obj, uint32_t part)
 404:Middlewares/lvgl/src/widgets/../core/lv_obj_style_gen.h **** {
 405:Middlewares/lvgl/src/widgets/../core/lv_obj_style_gen.h ****     lv_style_value_t v = lv_obj_get_style_prop(obj, part, LV_STYLE_OUTLINE_OPA);
 406:Middlewares/lvgl/src/widgets/../core/lv_obj_style_gen.h ****     return (lv_opa_t)v.num;
 407:Middlewares/lvgl/src/widgets/../core/lv_obj_style_gen.h **** }
 408:Middlewares/lvgl/src/widgets/../core/lv_obj_style_gen.h **** 
 409:Middlewares/lvgl/src/widgets/../core/lv_obj_style_gen.h **** static inline lv_coord_t lv_obj_get_style_outline_pad(const struct _lv_obj_t * obj, uint32_t part)
 410:Middlewares/lvgl/src/widgets/../core/lv_obj_style_gen.h **** {
 411:Middlewares/lvgl/src/widgets/../core/lv_obj_style_gen.h ****     lv_style_value_t v = lv_obj_get_style_prop(obj, part, LV_STYLE_OUTLINE_PAD);
 412:Middlewares/lvgl/src/widgets/../core/lv_obj_style_gen.h ****     return (lv_coord_t)v.num;
 413:Middlewares/lvgl/src/widgets/../core/lv_obj_style_gen.h **** }
 414:Middlewares/lvgl/src/widgets/../core/lv_obj_style_gen.h **** 
 415:Middlewares/lvgl/src/widgets/../core/lv_obj_style_gen.h **** static inline lv_coord_t lv_obj_get_style_shadow_width(const struct _lv_obj_t * obj, uint32_t part)
 416:Middlewares/lvgl/src/widgets/../core/lv_obj_style_gen.h **** {
 417:Middlewares/lvgl/src/widgets/../core/lv_obj_style_gen.h ****     lv_style_value_t v = lv_obj_get_style_prop(obj, part, LV_STYLE_SHADOW_WIDTH);
 418:Middlewares/lvgl/src/widgets/../core/lv_obj_style_gen.h ****     return (lv_coord_t)v.num;
 419:Middlewares/lvgl/src/widgets/../core/lv_obj_style_gen.h **** }
 420:Middlewares/lvgl/src/widgets/../core/lv_obj_style_gen.h **** 
 421:Middlewares/lvgl/src/widgets/../core/lv_obj_style_gen.h **** static inline lv_coord_t lv_obj_get_style_shadow_ofs_x(const struct _lv_obj_t * obj, uint32_t part)
ARM GAS  /tmp/ccFHKYR8.s 			page 16


 422:Middlewares/lvgl/src/widgets/../core/lv_obj_style_gen.h **** {
 423:Middlewares/lvgl/src/widgets/../core/lv_obj_style_gen.h ****     lv_style_value_t v = lv_obj_get_style_prop(obj, part, LV_STYLE_SHADOW_OFS_X);
 424:Middlewares/lvgl/src/widgets/../core/lv_obj_style_gen.h ****     return (lv_coord_t)v.num;
 425:Middlewares/lvgl/src/widgets/../core/lv_obj_style_gen.h **** }
 426:Middlewares/lvgl/src/widgets/../core/lv_obj_style_gen.h **** 
 427:Middlewares/lvgl/src/widgets/../core/lv_obj_style_gen.h **** static inline lv_coord_t lv_obj_get_style_shadow_ofs_y(const struct _lv_obj_t * obj, uint32_t part)
 428:Middlewares/lvgl/src/widgets/../core/lv_obj_style_gen.h **** {
 429:Middlewares/lvgl/src/widgets/../core/lv_obj_style_gen.h ****     lv_style_value_t v = lv_obj_get_style_prop(obj, part, LV_STYLE_SHADOW_OFS_Y);
 430:Middlewares/lvgl/src/widgets/../core/lv_obj_style_gen.h ****     return (lv_coord_t)v.num;
 431:Middlewares/lvgl/src/widgets/../core/lv_obj_style_gen.h **** }
 432:Middlewares/lvgl/src/widgets/../core/lv_obj_style_gen.h **** 
 433:Middlewares/lvgl/src/widgets/../core/lv_obj_style_gen.h **** static inline lv_coord_t lv_obj_get_style_shadow_spread(const struct _lv_obj_t * obj, uint32_t part
 434:Middlewares/lvgl/src/widgets/../core/lv_obj_style_gen.h **** {
 435:Middlewares/lvgl/src/widgets/../core/lv_obj_style_gen.h ****     lv_style_value_t v = lv_obj_get_style_prop(obj, part, LV_STYLE_SHADOW_SPREAD);
 436:Middlewares/lvgl/src/widgets/../core/lv_obj_style_gen.h ****     return (lv_coord_t)v.num;
 437:Middlewares/lvgl/src/widgets/../core/lv_obj_style_gen.h **** }
 438:Middlewares/lvgl/src/widgets/../core/lv_obj_style_gen.h **** 
 439:Middlewares/lvgl/src/widgets/../core/lv_obj_style_gen.h **** static inline lv_color_t lv_obj_get_style_shadow_color(const struct _lv_obj_t * obj, uint32_t part)
 440:Middlewares/lvgl/src/widgets/../core/lv_obj_style_gen.h **** {
 441:Middlewares/lvgl/src/widgets/../core/lv_obj_style_gen.h ****     lv_style_value_t v = lv_obj_get_style_prop(obj, part, LV_STYLE_SHADOW_COLOR);
 442:Middlewares/lvgl/src/widgets/../core/lv_obj_style_gen.h ****     return v.color;
 443:Middlewares/lvgl/src/widgets/../core/lv_obj_style_gen.h **** }
 444:Middlewares/lvgl/src/widgets/../core/lv_obj_style_gen.h **** 
 445:Middlewares/lvgl/src/widgets/../core/lv_obj_style_gen.h **** static inline lv_color_t lv_obj_get_style_shadow_color_filtered(const struct _lv_obj_t * obj, uint3
 446:Middlewares/lvgl/src/widgets/../core/lv_obj_style_gen.h **** {
 447:Middlewares/lvgl/src/widgets/../core/lv_obj_style_gen.h ****     lv_style_value_t v = lv_obj_get_style_prop(obj, part, LV_STYLE_SHADOW_COLOR_FILTERED);
 448:Middlewares/lvgl/src/widgets/../core/lv_obj_style_gen.h ****     return v.color;
 449:Middlewares/lvgl/src/widgets/../core/lv_obj_style_gen.h **** }
 450:Middlewares/lvgl/src/widgets/../core/lv_obj_style_gen.h **** 
 451:Middlewares/lvgl/src/widgets/../core/lv_obj_style_gen.h **** static inline lv_opa_t lv_obj_get_style_shadow_opa(const struct _lv_obj_t * obj, uint32_t part)
 452:Middlewares/lvgl/src/widgets/../core/lv_obj_style_gen.h **** {
 453:Middlewares/lvgl/src/widgets/../core/lv_obj_style_gen.h ****     lv_style_value_t v = lv_obj_get_style_prop(obj, part, LV_STYLE_SHADOW_OPA);
 454:Middlewares/lvgl/src/widgets/../core/lv_obj_style_gen.h ****     return (lv_opa_t)v.num;
 455:Middlewares/lvgl/src/widgets/../core/lv_obj_style_gen.h **** }
 456:Middlewares/lvgl/src/widgets/../core/lv_obj_style_gen.h **** 
 457:Middlewares/lvgl/src/widgets/../core/lv_obj_style_gen.h **** static inline lv_coord_t lv_obj_get_style_line_width(const struct _lv_obj_t * obj, uint32_t part)
 193              		.loc 2 457 26 view .LVU54
 194              	.LBB13:
 458:Middlewares/lvgl/src/widgets/../core/lv_obj_style_gen.h **** {
 459:Middlewares/lvgl/src/widgets/../core/lv_obj_style_gen.h ****     lv_style_value_t v = lv_obj_get_style_prop(obj, part, LV_STYLE_LINE_WIDTH);
 195              		.loc 2 459 5 view .LVU55
 196              		.loc 2 459 26 is_stmt 0 view .LVU56
 197 008c 40F64902 		movw	r2, #2121
 198 0090 0021     		movs	r1, #0
 199 0092 FFF7FEFF 		bl	lv_obj_get_style_prop
 200              	.LVL27:
 460:Middlewares/lvgl/src/widgets/../core/lv_obj_style_gen.h ****     return (lv_coord_t)v.num;
 201              		.loc 2 460 5 is_stmt 1 view .LVU57
 202              		.loc 2 460 12 is_stmt 0 view .LVU58
 203 0096 05B2     		sxth	r5, r0
 204              	.LVL28:
 205              		.loc 2 460 12 view .LVU59
 206              	.LBE13:
 207              	.LBE12:
 140:Middlewares/lvgl/src/widgets/lv_line.c ****         if(*s < line_width) *s = line_width;
 208              		.loc 1 140 9 is_stmt 1 view .LVU60
 140:Middlewares/lvgl/src/widgets/lv_line.c ****         if(*s < line_width) *s = line_width;
ARM GAS  /tmp/ccFHKYR8.s 			page 17


 209              		.loc 1 140 26 is_stmt 0 view .LVU61
 210 0098 2046     		mov	r0, r4
 211 009a FFF7FEFF 		bl	lv_event_get_param
 212              	.LVL29:
 141:Middlewares/lvgl/src/widgets/lv_line.c ****     }
 213              		.loc 1 141 9 is_stmt 1 view .LVU62
 141:Middlewares/lvgl/src/widgets/lv_line.c ****     }
 214              		.loc 1 141 12 is_stmt 0 view .LVU63
 215 009e B0F90030 		ldrsh	r3, [r0]
 141:Middlewares/lvgl/src/widgets/lv_line.c ****     }
 216              		.loc 1 141 11 view .LVU64
 217 00a2 AB42     		cmp	r3, r5
 218 00a4 B5DA     		bge	.L1
 141:Middlewares/lvgl/src/widgets/lv_line.c ****     }
 219              		.loc 1 141 29 is_stmt 1 discriminator 1 view .LVU65
 141:Middlewares/lvgl/src/widgets/lv_line.c ****     }
 220              		.loc 1 141 32 is_stmt 0 discriminator 1 view .LVU66
 221 00a6 0580     		strh	r5, [r0]	@ movhi
 222 00a8 B3E7     		b	.L1
 223              	.LVL30:
 224              	.L17:
 141:Middlewares/lvgl/src/widgets/lv_line.c ****     }
 225              		.loc 1 141 32 discriminator 1 view .LVU67
 226              	.LBE11:
 227              	.LBB14:
 144:Middlewares/lvgl/src/widgets/lv_line.c **** 
 228              		.loc 1 144 9 is_stmt 1 view .LVU68
 146:Middlewares/lvgl/src/widgets/lv_line.c ****         lv_coord_t w = 0;
 229              		.loc 1 146 9 view .LVU69
 146:Middlewares/lvgl/src/widgets/lv_line.c ****         lv_coord_t w = 0;
 230              		.loc 1 146 26 is_stmt 0 view .LVU70
 231 00aa 2046     		mov	r0, r4
 232              	.LVL31:
 146:Middlewares/lvgl/src/widgets/lv_line.c ****         lv_coord_t w = 0;
 233              		.loc 1 146 26 view .LVU71
 234 00ac FFF7FEFF 		bl	lv_event_get_param
 235              	.LVL32:
 236 00b0 0746     		mov	r7, r0
 237              	.LVL33:
 147:Middlewares/lvgl/src/widgets/lv_line.c ****         lv_coord_t h = 0;
 238              		.loc 1 147 9 is_stmt 1 view .LVU72
 148:Middlewares/lvgl/src/widgets/lv_line.c ****         if(line->point_num > 0) {
 239              		.loc 1 148 9 view .LVU73
 149:Middlewares/lvgl/src/widgets/lv_line.c ****             uint16_t i;
 240              		.loc 1 149 9 view .LVU74
 149:Middlewares/lvgl/src/widgets/lv_line.c ****             uint16_t i;
 241              		.loc 1 149 16 is_stmt 0 view .LVU75
 242 00b2 288D     		ldrh	r0, [r5, #40]
 243              	.LVL34:
 149:Middlewares/lvgl/src/widgets/lv_line.c ****             uint16_t i;
 244              		.loc 1 149 11 view .LVU76
 245 00b4 0028     		cmp	r0, #0
 246 00b6 ACD0     		beq	.L1
 247              	.LBB15:
 151:Middlewares/lvgl/src/widgets/lv_line.c ****                 w = LV_MAX(line->point_array[i].x, w);
 248              		.loc 1 151 19 view .LVU77
 249 00b8 0023     		movs	r3, #0
ARM GAS  /tmp/ccFHKYR8.s 			page 18


 250              	.LBE15:
 148:Middlewares/lvgl/src/widgets/lv_line.c ****         if(line->point_num > 0) {
 251              		.loc 1 148 20 view .LVU78
 252 00ba 1E46     		mov	r6, r3
 253              	.LVL35:
 147:Middlewares/lvgl/src/widgets/lv_line.c ****         lv_coord_t h = 0;
 254              		.loc 1 147 20 view .LVU79
 255 00bc 1C46     		mov	r4, r3
 256              	.LVL36:
 147:Middlewares/lvgl/src/widgets/lv_line.c ****         lv_coord_t h = 0;
 257              		.loc 1 147 20 view .LVU80
 258 00be 0EE0     		b	.L5
 259              	.LVL37:
 260              	.L6:
 261              	.LBB18:
 152:Middlewares/lvgl/src/widgets/lv_line.c ****                 h = LV_MAX(line->point_array[i].y, h);
 262              		.loc 1 152 17 is_stmt 1 discriminator 3 view .LVU81
 152:Middlewares/lvgl/src/widgets/lv_line.c ****                 h = LV_MAX(line->point_array[i].y, h);
 263              		.loc 1 152 21 is_stmt 0 discriminator 3 view .LVU82
 264 00c0 6A6A     		ldr	r2, [r5, #36]
 265 00c2 02EB8301 		add	r1, r2, r3, lsl #2
 266 00c6 32F92320 		ldrsh	r2, [r2, r3, lsl #2]
 152:Middlewares/lvgl/src/widgets/lv_line.c ****                 h = LV_MAX(line->point_array[i].y, h);
 267              		.loc 1 152 19 discriminator 3 view .LVU83
 268 00ca 9442     		cmp	r4, r2
 269 00cc B8BF     		it	lt
 270 00ce 1446     		movlt	r4, r2
 271              	.LVL38:
 153:Middlewares/lvgl/src/widgets/lv_line.c ****             }
 272              		.loc 1 153 17 is_stmt 1 discriminator 3 view .LVU84
 153:Middlewares/lvgl/src/widgets/lv_line.c ****             }
 273              		.loc 1 153 21 is_stmt 0 discriminator 3 view .LVU85
 274 00d0 B1F90220 		ldrsh	r2, [r1, #2]
 153:Middlewares/lvgl/src/widgets/lv_line.c ****             }
 275              		.loc 1 153 19 discriminator 3 view .LVU86
 276 00d4 9642     		cmp	r6, r2
 277 00d6 B8BF     		it	lt
 278 00d8 1646     		movlt	r6, r2
 279              	.LVL39:
 151:Middlewares/lvgl/src/widgets/lv_line.c ****                 w = LV_MAX(line->point_array[i].x, w);
 280              		.loc 1 151 45 is_stmt 1 discriminator 3 view .LVU87
 151:Middlewares/lvgl/src/widgets/lv_line.c ****                 w = LV_MAX(line->point_array[i].x, w);
 281              		.loc 1 151 46 is_stmt 0 discriminator 3 view .LVU88
 282 00da 0133     		adds	r3, r3, #1
 283              	.LVL40:
 151:Middlewares/lvgl/src/widgets/lv_line.c ****                 w = LV_MAX(line->point_array[i].x, w);
 284              		.loc 1 151 46 discriminator 3 view .LVU89
 285 00dc 9BB2     		uxth	r3, r3
 286              	.LVL41:
 287              	.L5:
 151:Middlewares/lvgl/src/widgets/lv_line.c ****                 w = LV_MAX(line->point_array[i].x, w);
 288              		.loc 1 151 24 is_stmt 1 discriminator 1 view .LVU90
 151:Middlewares/lvgl/src/widgets/lv_line.c ****                 w = LV_MAX(line->point_array[i].x, w);
 289              		.loc 1 151 13 is_stmt 0 discriminator 1 view .LVU91
 290 00de 9842     		cmp	r0, r3
 291 00e0 EED8     		bhi	.L6
 156:Middlewares/lvgl/src/widgets/lv_line.c ****             w += line_width;
ARM GAS  /tmp/ccFHKYR8.s 			page 19


 292              		.loc 1 156 13 is_stmt 1 view .LVU92
 293              	.LVL42:
 294              	.LBB16:
 295              	.LBI16:
 457:Middlewares/lvgl/src/widgets/../core/lv_obj_style_gen.h **** {
 296              		.loc 2 457 26 view .LVU93
 297              	.LBB17:
 459:Middlewares/lvgl/src/widgets/../core/lv_obj_style_gen.h ****     return (lv_coord_t)v.num;
 298              		.loc 2 459 5 view .LVU94
 459:Middlewares/lvgl/src/widgets/../core/lv_obj_style_gen.h ****     return (lv_coord_t)v.num;
 299              		.loc 2 459 26 is_stmt 0 view .LVU95
 300 00e2 40F64902 		movw	r2, #2121
 301 00e6 0021     		movs	r1, #0
 302 00e8 2846     		mov	r0, r5
 303 00ea FFF7FEFF 		bl	lv_obj_get_style_prop
 304              	.LVL43:
 305              		.loc 2 460 5 is_stmt 1 view .LVU96
 306              		.loc 2 460 5 is_stmt 0 view .LVU97
 307              	.LBE17:
 308              	.LBE16:
 157:Middlewares/lvgl/src/widgets/lv_line.c ****             h += line_width;
 309              		.loc 1 157 13 is_stmt 1 view .LVU98
 157:Middlewares/lvgl/src/widgets/lv_line.c ****             h += line_width;
 310              		.loc 1 157 15 is_stmt 0 view .LVU99
 311 00ee 80B2     		uxth	r0, r0
 157:Middlewares/lvgl/src/widgets/lv_line.c ****             h += line_width;
 312              		.loc 1 157 15 view .LVU100
 313 00f0 0444     		add	r4, r4, r0
 314              	.LVL44:
 158:Middlewares/lvgl/src/widgets/lv_line.c ****             p->x = w;
 315              		.loc 1 158 13 is_stmt 1 view .LVU101
 158:Middlewares/lvgl/src/widgets/lv_line.c ****             p->x = w;
 316              		.loc 1 158 15 is_stmt 0 view .LVU102
 317 00f2 3044     		add	r0, r0, r6
 318              	.LVL45:
 159:Middlewares/lvgl/src/widgets/lv_line.c ****             p->y = h;
 319              		.loc 1 159 13 is_stmt 1 view .LVU103
 159:Middlewares/lvgl/src/widgets/lv_line.c ****             p->y = h;
 320              		.loc 1 159 18 is_stmt 0 view .LVU104
 321 00f4 3C80     		strh	r4, [r7]	@ movhi
 160:Middlewares/lvgl/src/widgets/lv_line.c ****         }
 322              		.loc 1 160 13 is_stmt 1 view .LVU105
 160:Middlewares/lvgl/src/widgets/lv_line.c ****         }
 323              		.loc 1 160 18 is_stmt 0 view .LVU106
 324 00f6 7880     		strh	r0, [r7, #2]	@ movhi
 325 00f8 8BE7     		b	.L1
 326              	.LVL46:
 327              	.L10:
 160:Middlewares/lvgl/src/widgets/lv_line.c ****         }
 328              		.loc 1 160 18 view .LVU107
 329              	.LBE18:
 330              	.LBE14:
 331              	.LBB19:
 192:Middlewares/lvgl/src/widgets/lv_line.c ****                 p2.y = h - line->point_array[i + 1].y + y_ofs;
 332              		.loc 1 192 17 is_stmt 1 view .LVU108
 192:Middlewares/lvgl/src/widgets/lv_line.c ****                 p2.y = h - line->point_array[i + 1].y + y_ofs;
 333              		.loc 1 192 26 is_stmt 0 view .LVU109
ARM GAS  /tmp/ccFHKYR8.s 			page 20


 334 00fa 1FFA89F3 		uxth	r3, r9
 192:Middlewares/lvgl/src/widgets/lv_line.c ****                 p2.y = h - line->point_array[i + 1].y + y_ofs;
 335              		.loc 1 192 48 view .LVU110
 336 00fe 4288     		ldrh	r2, [r0, #2]
 192:Middlewares/lvgl/src/widgets/lv_line.c ****                 p2.y = h - line->point_array[i + 1].y + y_ofs;
 337              		.loc 1 192 26 view .LVU111
 338 0100 9A1A     		subs	r2, r3, r2
 192:Middlewares/lvgl/src/widgets/lv_line.c ****                 p2.y = h - line->point_array[i + 1].y + y_ofs;
 339              		.loc 1 192 51 view .LVU112
 340 0102 16FA82F2 		uxtah	r2, r6, r2
 192:Middlewares/lvgl/src/widgets/lv_line.c ****                 p2.y = h - line->point_array[i + 1].y + y_ofs;
 341              		.loc 1 192 22 view .LVU113
 342 0106 ADF80620 		strh	r2, [sp, #6]	@ movhi
 193:Middlewares/lvgl/src/widgets/lv_line.c ****             }
 343              		.loc 1 193 17 is_stmt 1 view .LVU114
 193:Middlewares/lvgl/src/widgets/lv_line.c ****             }
 344              		.loc 1 193 52 is_stmt 0 view .LVU115
 345 010a 4A88     		ldrh	r2, [r1, #2]
 193:Middlewares/lvgl/src/widgets/lv_line.c ****             }
 346              		.loc 1 193 26 view .LVU116
 347 010c 9B1A     		subs	r3, r3, r2
 193:Middlewares/lvgl/src/widgets/lv_line.c ****             }
 348              		.loc 1 193 55 view .LVU117
 349 010e 16FA83F3 		uxtah	r3, r6, r3
 193:Middlewares/lvgl/src/widgets/lv_line.c ****             }
 350              		.loc 1 193 22 view .LVU118
 351 0112 ADF80A30 		strh	r3, [sp, #10]	@ movhi
 352              	.L11:
 195:Middlewares/lvgl/src/widgets/lv_line.c ****             line_dsc.round_start = 0;   /*Draw the rounding only on the end points after the first 
 353              		.loc 1 195 13 is_stmt 1 discriminator 2 view .LVU119
 354 0116 05AB     		add	r3, sp, #20
 355 0118 4246     		mov	r2, r8
 356 011a 02A9     		add	r1, sp, #8
 357 011c 01A8     		add	r0, sp, #4
 358 011e FFF7FEFF 		bl	lv_draw_line
 359              	.LVL47:
 196:Middlewares/lvgl/src/widgets/lv_line.c ****         }
 360              		.loc 1 196 13 discriminator 2 view .LVU120
 196:Middlewares/lvgl/src/widgets/lv_line.c ****         }
 361              		.loc 1 196 34 is_stmt 0 discriminator 2 view .LVU121
 362 0122 9DF81D30 		ldrb	r3, [sp, #29]	@ zero_extendqisi2
 363 0126 6FF38203 		bfc	r3, #2, #1
 364 012a 8DF81D30 		strb	r3, [sp, #29]
 182:Middlewares/lvgl/src/widgets/lv_line.c **** 
 365              		.loc 1 182 45 is_stmt 1 discriminator 2 view .LVU122
 182:Middlewares/lvgl/src/widgets/lv_line.c **** 
 366              		.loc 1 182 46 is_stmt 0 discriminator 2 view .LVU123
 367 012e 0134     		adds	r4, r4, #1
 368              	.LVL48:
 182:Middlewares/lvgl/src/widgets/lv_line.c **** 
 369              		.loc 1 182 46 discriminator 2 view .LVU124
 370 0130 A4B2     		uxth	r4, r4
 371              	.LVL49:
 372              	.L9:
 182:Middlewares/lvgl/src/widgets/lv_line.c **** 
 373              		.loc 1 182 20 is_stmt 1 discriminator 1 view .LVU125
 182:Middlewares/lvgl/src/widgets/lv_line.c **** 
ARM GAS  /tmp/ccFHKYR8.s 			page 21


 374              		.loc 1 182 28 is_stmt 0 discriminator 1 view .LVU126
 375 0132 2B8D     		ldrh	r3, [r5, #40]
 182:Middlewares/lvgl/src/widgets/lv_line.c **** 
 376              		.loc 1 182 40 discriminator 1 view .LVU127
 377 0134 013B     		subs	r3, r3, #1
 182:Middlewares/lvgl/src/widgets/lv_line.c **** 
 378              		.loc 1 182 9 discriminator 1 view .LVU128
 379 0136 9C42     		cmp	r4, r3
 380 0138 BFF66BAF 		bge	.L1
 184:Middlewares/lvgl/src/widgets/lv_line.c ****             p2.x = line->point_array[i + 1].x + x_ofs;
 381              		.loc 1 184 13 is_stmt 1 view .LVU129
 184:Middlewares/lvgl/src/widgets/lv_line.c ****             p2.x = line->point_array[i + 1].x + x_ofs;
 382              		.loc 1 184 24 is_stmt 0 view .LVU130
 383 013c 6B6A     		ldr	r3, [r5, #36]
 184:Middlewares/lvgl/src/widgets/lv_line.c ****             p2.x = line->point_array[i + 1].x + x_ofs;
 384              		.loc 1 184 37 view .LVU131
 385 013e 03EB8400 		add	r0, r3, r4, lsl #2
 184:Middlewares/lvgl/src/widgets/lv_line.c ****             p2.x = line->point_array[i + 1].x + x_ofs;
 386              		.loc 1 184 40 view .LVU132
 387 0142 33F82420 		ldrh	r2, [r3, r4, lsl #2]
 184:Middlewares/lvgl/src/widgets/lv_line.c ****             p2.x = line->point_array[i + 1].x + x_ofs;
 388              		.loc 1 184 43 view .LVU133
 389 0146 3A44     		add	r2, r2, r7
 184:Middlewares/lvgl/src/widgets/lv_line.c ****             p2.x = line->point_array[i + 1].x + x_ofs;
 390              		.loc 1 184 18 view .LVU134
 391 0148 ADF80420 		strh	r2, [sp, #4]	@ movhi
 185:Middlewares/lvgl/src/widgets/lv_line.c **** 
 392              		.loc 1 185 13 is_stmt 1 view .LVU135
 185:Middlewares/lvgl/src/widgets/lv_line.c **** 
 393              		.loc 1 185 37 is_stmt 0 view .LVU136
 394 014c 621C     		adds	r2, r4, #1
 395 014e 03EB8201 		add	r1, r3, r2, lsl #2
 185:Middlewares/lvgl/src/widgets/lv_line.c **** 
 396              		.loc 1 185 44 view .LVU137
 397 0152 33F82230 		ldrh	r3, [r3, r2, lsl #2]
 185:Middlewares/lvgl/src/widgets/lv_line.c **** 
 398              		.loc 1 185 47 view .LVU138
 399 0156 3B44     		add	r3, r3, r7
 185:Middlewares/lvgl/src/widgets/lv_line.c **** 
 400              		.loc 1 185 18 view .LVU139
 401 0158 ADF80830 		strh	r3, [sp, #8]	@ movhi
 187:Middlewares/lvgl/src/widgets/lv_line.c ****                 p1.y = line->point_array[i].y + y_ofs;
 402              		.loc 1 187 13 is_stmt 1 view .LVU140
 187:Middlewares/lvgl/src/widgets/lv_line.c ****                 p1.y = line->point_array[i].y + y_ofs;
 403              		.loc 1 187 28 is_stmt 0 view .LVU141
 404 015c 95F82A30 		ldrb	r3, [r5, #42]	@ zero_extendqisi2
 187:Middlewares/lvgl/src/widgets/lv_line.c ****                 p1.y = line->point_array[i].y + y_ofs;
 405              		.loc 1 187 15 view .LVU142
 406 0160 13F0010F 		tst	r3, #1
 407 0164 C9D1     		bne	.L10
 188:Middlewares/lvgl/src/widgets/lv_line.c ****                 p2.y = line->point_array[i + 1].y + y_ofs;
 408              		.loc 1 188 17 is_stmt 1 view .LVU143
 188:Middlewares/lvgl/src/widgets/lv_line.c ****                 p2.y = line->point_array[i + 1].y + y_ofs;
 409              		.loc 1 188 44 is_stmt 0 view .LVU144
 410 0166 4388     		ldrh	r3, [r0, #2]
 188:Middlewares/lvgl/src/widgets/lv_line.c ****                 p2.y = line->point_array[i + 1].y + y_ofs;
 411              		.loc 1 188 47 view .LVU145
ARM GAS  /tmp/ccFHKYR8.s 			page 22


 412 0168 3344     		add	r3, r3, r6
 188:Middlewares/lvgl/src/widgets/lv_line.c ****                 p2.y = line->point_array[i + 1].y + y_ofs;
 413              		.loc 1 188 22 view .LVU146
 414 016a ADF80630 		strh	r3, [sp, #6]	@ movhi
 189:Middlewares/lvgl/src/widgets/lv_line.c ****             }
 415              		.loc 1 189 17 is_stmt 1 view .LVU147
 189:Middlewares/lvgl/src/widgets/lv_line.c ****             }
 416              		.loc 1 189 48 is_stmt 0 view .LVU148
 417 016e 4B88     		ldrh	r3, [r1, #2]
 189:Middlewares/lvgl/src/widgets/lv_line.c ****             }
 418              		.loc 1 189 51 view .LVU149
 419 0170 3344     		add	r3, r3, r6
 189:Middlewares/lvgl/src/widgets/lv_line.c ****             }
 420              		.loc 1 189 22 view .LVU150
 421 0172 ADF80A30 		strh	r3, [sp, #10]	@ movhi
 422 0176 CEE7     		b	.L11
 423              	.L19:
 424              		.align	2
 425              	.L18:
 426 0178 00000000 		.word	.LANCHOR0
 427              	.LBE19:
 428              		.cfi_endproc
 429              	.LFE152:
 431              		.section	.text.lv_line_constructor,"ax",%progbits
 432              		.align	1
 433              		.syntax unified
 434              		.thumb
 435              		.thumb_func
 436              		.fpu fpv5-d16
 438              	lv_line_constructor:
 439              	.LVL50:
 440              	.LFB151:
 109:Middlewares/lvgl/src/widgets/lv_line.c ****     LV_UNUSED(class_p);
 441              		.loc 1 109 1 is_stmt 1 view -0
 442              		.cfi_startproc
 443              		@ args = 0, pretend = 0, frame = 0
 444              		@ frame_needed = 0, uses_anonymous_args = 0
 109:Middlewares/lvgl/src/widgets/lv_line.c ****     LV_UNUSED(class_p);
 445              		.loc 1 109 1 is_stmt 0 view .LVU152
 446 0000 08B5     		push	{r3, lr}
 447              	.LCFI4:
 448              		.cfi_def_cfa_offset 8
 449              		.cfi_offset 3, -8
 450              		.cfi_offset 14, -4
 451 0002 0846     		mov	r0, r1
 452              	.LVL51:
 110:Middlewares/lvgl/src/widgets/lv_line.c ****     LV_TRACE_OBJ_CREATE("begin");
 453              		.loc 1 110 5 is_stmt 1 view .LVU153
 111:Middlewares/lvgl/src/widgets/lv_line.c **** 
 454              		.loc 1 111 33 view .LVU154
 113:Middlewares/lvgl/src/widgets/lv_line.c **** 
 455              		.loc 1 113 5 view .LVU155
 115:Middlewares/lvgl/src/widgets/lv_line.c ****     line->point_array = NULL;
 456              		.loc 1 115 5 view .LVU156
 115:Middlewares/lvgl/src/widgets/lv_line.c ****     line->point_array = NULL;
 457              		.loc 1 115 23 is_stmt 0 view .LVU157
 458 0004 0023     		movs	r3, #0
ARM GAS  /tmp/ccFHKYR8.s 			page 23


 459 0006 0B85     		strh	r3, [r1, #40]	@ movhi
 116:Middlewares/lvgl/src/widgets/lv_line.c ****     line->y_inv       = 0;
 460              		.loc 1 116 5 is_stmt 1 view .LVU158
 116:Middlewares/lvgl/src/widgets/lv_line.c ****     line->y_inv       = 0;
 461              		.loc 1 116 23 is_stmt 0 view .LVU159
 462 0008 4B62     		str	r3, [r1, #36]
 117:Middlewares/lvgl/src/widgets/lv_line.c **** 
 463              		.loc 1 117 5 is_stmt 1 view .LVU160
 117:Middlewares/lvgl/src/widgets/lv_line.c **** 
 464              		.loc 1 117 23 is_stmt 0 view .LVU161
 465 000a 91F82A20 		ldrb	r2, [r1, #42]	@ zero_extendqisi2
 466 000e 63F30002 		bfi	r2, r3, #0, #1
 467 0012 81F82A20 		strb	r2, [r1, #42]
 119:Middlewares/lvgl/src/widgets/lv_line.c **** 
 468              		.loc 1 119 5 is_stmt 1 view .LVU162
 469 0016 0221     		movs	r1, #2
 470              	.LVL52:
 119:Middlewares/lvgl/src/widgets/lv_line.c **** 
 471              		.loc 1 119 5 is_stmt 0 view .LVU163
 472 0018 FFF7FEFF 		bl	lv_obj_clear_flag
 473              	.LVL53:
 121:Middlewares/lvgl/src/widgets/lv_line.c **** }
 474              		.loc 1 121 36 is_stmt 1 view .LVU164
 122:Middlewares/lvgl/src/widgets/lv_line.c **** 
 475              		.loc 1 122 1 is_stmt 0 view .LVU165
 476 001c 08BD     		pop	{r3, pc}
 477              		.cfi_endproc
 478              	.LFE151:
 480              		.section	.text.lv_line_create,"ax",%progbits
 481              		.align	1
 482              		.global	lv_line_create
 483              		.syntax unified
 484              		.thumb
 485              		.thumb_func
 486              		.fpu fpv5-d16
 488              	lv_line_create:
 489              	.LVL54:
 490              	.LFB147:
  55:Middlewares/lvgl/src/widgets/lv_line.c ****     LV_LOG_INFO("begin")
 491              		.loc 1 55 1 is_stmt 1 view -0
 492              		.cfi_startproc
 493              		@ args = 0, pretend = 0, frame = 0
 494              		@ frame_needed = 0, uses_anonymous_args = 0
  55:Middlewares/lvgl/src/widgets/lv_line.c ****     LV_LOG_INFO("begin")
 495              		.loc 1 55 1 is_stmt 0 view .LVU167
 496 0000 10B5     		push	{r4, lr}
 497              	.LCFI5:
 498              		.cfi_def_cfa_offset 8
 499              		.cfi_offset 4, -8
 500              		.cfi_offset 14, -4
 501 0002 0146     		mov	r1, r0
  57:Middlewares/lvgl/src/widgets/lv_line.c ****     lv_obj_class_init_obj(obj);
 502              		.loc 1 57 5 is_stmt 1 view .LVU168
  57:Middlewares/lvgl/src/widgets/lv_line.c ****     lv_obj_class_init_obj(obj);
 503              		.loc 1 57 22 is_stmt 0 view .LVU169
 504 0004 0348     		ldr	r0, .L24
 505              	.LVL55:
ARM GAS  /tmp/ccFHKYR8.s 			page 24


  57:Middlewares/lvgl/src/widgets/lv_line.c ****     lv_obj_class_init_obj(obj);
 506              		.loc 1 57 22 view .LVU170
 507 0006 FFF7FEFF 		bl	lv_obj_class_create_obj
 508              	.LVL56:
  57:Middlewares/lvgl/src/widgets/lv_line.c ****     lv_obj_class_init_obj(obj);
 509              		.loc 1 57 22 view .LVU171
 510 000a 0446     		mov	r4, r0
 511              	.LVL57:
  58:Middlewares/lvgl/src/widgets/lv_line.c ****     return obj;
 512              		.loc 1 58 5 is_stmt 1 view .LVU172
 513 000c FFF7FEFF 		bl	lv_obj_class_init_obj
 514              	.LVL58:
  59:Middlewares/lvgl/src/widgets/lv_line.c **** }
 515              		.loc 1 59 5 view .LVU173
  60:Middlewares/lvgl/src/widgets/lv_line.c **** 
 516              		.loc 1 60 1 is_stmt 0 view .LVU174
 517 0010 2046     		mov	r0, r4
 518 0012 10BD     		pop	{r4, pc}
 519              	.LVL59:
 520              	.L25:
  60:Middlewares/lvgl/src/widgets/lv_line.c **** 
 521              		.loc 1 60 1 view .LVU175
 522              		.align	2
 523              	.L24:
 524 0014 00000000 		.word	.LANCHOR0
 525              		.cfi_endproc
 526              	.LFE147:
 528              		.section	.text.lv_line_set_points,"ax",%progbits
 529              		.align	1
 530              		.global	lv_line_set_points
 531              		.syntax unified
 532              		.thumb
 533              		.thumb_func
 534              		.fpu fpv5-d16
 536              	lv_line_set_points:
 537              	.LVL60:
 538              	.LFB148:
  67:Middlewares/lvgl/src/widgets/lv_line.c ****     LV_ASSERT_OBJ(obj, MY_CLASS);
 539              		.loc 1 67 1 is_stmt 1 view -0
 540              		.cfi_startproc
 541              		@ args = 0, pretend = 0, frame = 0
 542              		@ frame_needed = 0, uses_anonymous_args = 0
  67:Middlewares/lvgl/src/widgets/lv_line.c ****     LV_ASSERT_OBJ(obj, MY_CLASS);
 543              		.loc 1 67 1 is_stmt 0 view .LVU177
 544 0000 10B5     		push	{r4, lr}
 545              	.LCFI6:
 546              		.cfi_def_cfa_offset 8
 547              		.cfi_offset 4, -8
 548              		.cfi_offset 14, -4
 549 0002 0446     		mov	r4, r0
  68:Middlewares/lvgl/src/widgets/lv_line.c **** 
 550              		.loc 1 68 5 is_stmt 1 view .LVU178
  68:Middlewares/lvgl/src/widgets/lv_line.c **** 
 551              		.loc 1 68 5 view .LVU179
  68:Middlewares/lvgl/src/widgets/lv_line.c **** 
 552              		.loc 1 68 5 view .LVU180
  70:Middlewares/lvgl/src/widgets/lv_line.c ****     line->point_array    = points;
ARM GAS  /tmp/ccFHKYR8.s 			page 25


 553              		.loc 1 70 5 view .LVU181
 554              	.LVL61:
  71:Middlewares/lvgl/src/widgets/lv_line.c ****     line->point_num      = point_num;
 555              		.loc 1 71 5 view .LVU182
  71:Middlewares/lvgl/src/widgets/lv_line.c ****     line->point_num      = point_num;
 556              		.loc 1 71 26 is_stmt 0 view .LVU183
 557 0004 4162     		str	r1, [r0, #36]
  72:Middlewares/lvgl/src/widgets/lv_line.c **** 
 558              		.loc 1 72 5 is_stmt 1 view .LVU184
  72:Middlewares/lvgl/src/widgets/lv_line.c **** 
 559              		.loc 1 72 26 is_stmt 0 view .LVU185
 560 0006 0285     		strh	r2, [r0, #40]	@ movhi
  74:Middlewares/lvgl/src/widgets/lv_line.c **** 
 561              		.loc 1 74 5 is_stmt 1 view .LVU186
 562 0008 FFF7FEFF 		bl	lv_obj_refresh_self_size
 563              	.LVL62:
  76:Middlewares/lvgl/src/widgets/lv_line.c **** }
 564              		.loc 1 76 5 view .LVU187
 565 000c 2046     		mov	r0, r4
 566 000e FFF7FEFF 		bl	lv_obj_invalidate
 567              	.LVL63:
  77:Middlewares/lvgl/src/widgets/lv_line.c **** 
 568              		.loc 1 77 1 is_stmt 0 view .LVU188
 569 0012 10BD     		pop	{r4, pc}
  77:Middlewares/lvgl/src/widgets/lv_line.c **** 
 570              		.loc 1 77 1 view .LVU189
 571              		.cfi_endproc
 572              	.LFE148:
 574              		.section	.text.lv_line_set_y_invert,"ax",%progbits
 575              		.align	1
 576              		.global	lv_line_set_y_invert
 577              		.syntax unified
 578              		.thumb
 579              		.thumb_func
 580              		.fpu fpv5-d16
 582              	lv_line_set_y_invert:
 583              	.LVL64:
 584              	.LFB149:
  80:Middlewares/lvgl/src/widgets/lv_line.c ****     LV_ASSERT_OBJ(obj, MY_CLASS);
 585              		.loc 1 80 1 is_stmt 1 view -0
 586              		.cfi_startproc
 587              		@ args = 0, pretend = 0, frame = 0
 588              		@ frame_needed = 0, uses_anonymous_args = 0
  80:Middlewares/lvgl/src/widgets/lv_line.c ****     LV_ASSERT_OBJ(obj, MY_CLASS);
 589              		.loc 1 80 1 is_stmt 0 view .LVU191
 590 0000 08B5     		push	{r3, lr}
 591              	.LCFI7:
 592              		.cfi_def_cfa_offset 8
 593              		.cfi_offset 3, -8
 594              		.cfi_offset 14, -4
  81:Middlewares/lvgl/src/widgets/lv_line.c **** 
 595              		.loc 1 81 5 is_stmt 1 view .LVU192
  81:Middlewares/lvgl/src/widgets/lv_line.c **** 
 596              		.loc 1 81 5 view .LVU193
  81:Middlewares/lvgl/src/widgets/lv_line.c **** 
 597              		.loc 1 81 5 view .LVU194
  83:Middlewares/lvgl/src/widgets/lv_line.c ****     if(line->y_inv == en) return;
ARM GAS  /tmp/ccFHKYR8.s 			page 26


 598              		.loc 1 83 5 view .LVU195
 599              	.LVL65:
  84:Middlewares/lvgl/src/widgets/lv_line.c **** 
 600              		.loc 1 84 5 view .LVU196
  84:Middlewares/lvgl/src/widgets/lv_line.c **** 
 601              		.loc 1 84 12 is_stmt 0 view .LVU197
 602 0002 90F82A30 		ldrb	r3, [r0, #42]	@ zero_extendqisi2
 603 0006 03F00103 		and	r3, r3, #1
  84:Middlewares/lvgl/src/widgets/lv_line.c **** 
 604              		.loc 1 84 7 view .LVU198
 605 000a 8B42     		cmp	r3, r1
 606 000c 07D0     		beq	.L28
  86:Middlewares/lvgl/src/widgets/lv_line.c **** 
 607              		.loc 1 86 5 is_stmt 1 discriminator 4 view .LVU199
  86:Middlewares/lvgl/src/widgets/lv_line.c **** 
 608              		.loc 1 86 17 is_stmt 0 discriminator 4 view .LVU200
 609 000e 90F82A30 		ldrb	r3, [r0, #42]	@ zero_extendqisi2
 610 0012 61F30003 		bfi	r3, r1, #0, #1
 611 0016 80F82A30 		strb	r3, [r0, #42]
  88:Middlewares/lvgl/src/widgets/lv_line.c **** }
 612              		.loc 1 88 5 is_stmt 1 discriminator 4 view .LVU201
 613 001a FFF7FEFF 		bl	lv_obj_invalidate
 614              	.LVL66:
 615              	.L28:
  89:Middlewares/lvgl/src/widgets/lv_line.c **** 
 616              		.loc 1 89 1 is_stmt 0 view .LVU202
 617 001e 08BD     		pop	{r3, pc}
 618              		.cfi_endproc
 619              	.LFE149:
 621              		.section	.text.lv_line_get_y_invert,"ax",%progbits
 622              		.align	1
 623              		.global	lv_line_get_y_invert
 624              		.syntax unified
 625              		.thumb
 626              		.thumb_func
 627              		.fpu fpv5-d16
 629              	lv_line_get_y_invert:
 630              	.LVL67:
 631              	.LFB150:
  96:Middlewares/lvgl/src/widgets/lv_line.c ****     LV_ASSERT_OBJ(obj, MY_CLASS);
 632              		.loc 1 96 1 is_stmt 1 view -0
 633              		.cfi_startproc
 634              		@ args = 0, pretend = 0, frame = 0
 635              		@ frame_needed = 0, uses_anonymous_args = 0
 636              		@ link register save eliminated.
  97:Middlewares/lvgl/src/widgets/lv_line.c **** 
 637              		.loc 1 97 5 view .LVU204
  97:Middlewares/lvgl/src/widgets/lv_line.c **** 
 638              		.loc 1 97 5 view .LVU205
  97:Middlewares/lvgl/src/widgets/lv_line.c **** 
 639              		.loc 1 97 5 view .LVU206
  99:Middlewares/lvgl/src/widgets/lv_line.c **** 
 640              		.loc 1 99 5 view .LVU207
 101:Middlewares/lvgl/src/widgets/lv_line.c **** }
 641              		.loc 1 101 5 view .LVU208
 101:Middlewares/lvgl/src/widgets/lv_line.c **** }
 642              		.loc 1 101 24 is_stmt 0 view .LVU209
ARM GAS  /tmp/ccFHKYR8.s 			page 27


 643 0000 90F82A00 		ldrb	r0, [r0, #42]	@ zero_extendqisi2
 644              	.LVL68:
 102:Middlewares/lvgl/src/widgets/lv_line.c **** 
 645              		.loc 1 102 1 view .LVU210
 646 0004 00F00100 		and	r0, r0, #1
 647 0008 7047     		bx	lr
 648              		.cfi_endproc
 649              	.LFE150:
 651              		.global	lv_line_class
 652              		.section	.rodata.lv_line_class,"a"
 653              		.align	2
 654              		.set	.LANCHOR0,. + 0
 657              	lv_line_class:
 658 0000 00000000 		.word	lv_obj_class
 659 0004 00000000 		.word	lv_line_constructor
 660 0008 00000000 		.space	8
 660      00000000 
 661 0010 00000000 		.word	lv_line_event
 662 0014 D127     		.short	10193
 663 0016 D127     		.short	10193
 664 0018 C0       		.byte	192
 665 0019 02       		.byte	2
 666 001a 00       		.byte	0
 667 001b 00       		.space	1
 668              		.text
 669              	.Letext0:
 670              		.file 3 "/home/akinya/gcc-arm-none-eabi/arm-none-eabi/include/machine/_default_types.h"
 671              		.file 4 "/home/akinya/gcc-arm-none-eabi/arm-none-eabi/include/sys/_stdint.h"
 672              		.file 5 "Middlewares/lvgl/src/widgets/../core/../misc/../font/../misc/lv_area.h"
 673              		.file 6 "Middlewares/lvgl/src/widgets/../core/../misc/lv_types.h"
 674              		.file 7 "Middlewares/lvgl/src/widgets/../core/../misc/lv_color.h"
 675              		.file 8 "Middlewares/lvgl/src/widgets/../core/../misc/lv_style.h"
 676              		.file 9 "Middlewares/lvgl/src/widgets/../core/../hal/../misc/lv_ll.h"
 677              		.file 10 "Middlewares/lvgl/src/widgets/../core/lv_obj.h"
 678              		.file 11 "Middlewares/lvgl/src/widgets/../core/lv_group.h"
 679              		.file 12 "Middlewares/lvgl/src/widgets/../core/lv_obj_scroll.h"
 680              		.file 13 "Middlewares/lvgl/src/widgets/../core/lv_obj_style.h"
 681              		.file 14 "Middlewares/lvgl/src/widgets/../core/../draw/lv_draw_line.h"
 682              		.file 15 "Middlewares/lvgl/src/widgets/../core/lv_obj_class.h"
 683              		.file 16 "Middlewares/lvgl/src/widgets/../core/lv_event.h"
 684              		.file 17 "Middlewares/lvgl/src/widgets/lv_line.h"
 685              		.file 18 "Middlewares/lvgl/src/widgets/../core/lv_obj_pos.h"
 686              		.file 19 "Middlewares/lvgl/src/widgets/../core/lv_obj_draw.h"
ARM GAS  /tmp/ccFHKYR8.s 			page 28

