ARM GAS  /tmp/cceKcmvQ.s 			page 1


   1              		.cpu cortex-m7
   2              		.arch armv7e-m
   3              		.fpu fpv5-d16
   4              		.eabi_attribute 28, 1
   5              		.eabi_attribute 20, 1
   6              		.eabi_attribute 21, 1
   7              		.eabi_attribute 23, 3
   8              		.eabi_attribute 24, 1
   9              		.eabi_attribute 25, 1
  10              		.eabi_attribute 26, 1
  11              		.eabi_attribute 30, 1
  12              		.eabi_attribute 34, 1
  13              		.eabi_attribute 18, 4
  14              		.file	"lv_led.c"
  15              		.text
  16              	.Ltext0:
  17              		.cfi_sections	.debug_frame
  18              		.section	.text.lv_led_constructor,"ax",%progbits
  19              		.align	1
  20              		.syntax unified
  21              		.thumb
  22              		.thumb_func
  24              	lv_led_constructor:
  25              	.LVL0:
  26              	.LFB191:
  27              		.file 1 "Middlewares/lvgl/src/extra/widgets/led/lv_led.c"
   1:Middlewares/lvgl/src/extra/widgets/led/lv_led.c **** /**
   2:Middlewares/lvgl/src/extra/widgets/led/lv_led.c ****  * @file lv_led.c
   3:Middlewares/lvgl/src/extra/widgets/led/lv_led.c ****  *
   4:Middlewares/lvgl/src/extra/widgets/led/lv_led.c ****  */
   5:Middlewares/lvgl/src/extra/widgets/led/lv_led.c **** 
   6:Middlewares/lvgl/src/extra/widgets/led/lv_led.c **** /*********************
   7:Middlewares/lvgl/src/extra/widgets/led/lv_led.c ****  *      INCLUDES
   8:Middlewares/lvgl/src/extra/widgets/led/lv_led.c ****  *********************/
   9:Middlewares/lvgl/src/extra/widgets/led/lv_led.c **** #include "lv_led.h"
  10:Middlewares/lvgl/src/extra/widgets/led/lv_led.c **** #if LV_USE_LED
  11:Middlewares/lvgl/src/extra/widgets/led/lv_led.c **** 
  12:Middlewares/lvgl/src/extra/widgets/led/lv_led.c **** /*********************
  13:Middlewares/lvgl/src/extra/widgets/led/lv_led.c ****  *      DEFINES
  14:Middlewares/lvgl/src/extra/widgets/led/lv_led.c ****  *********************/
  15:Middlewares/lvgl/src/extra/widgets/led/lv_led.c **** #define MY_CLASS &lv_led_class
  16:Middlewares/lvgl/src/extra/widgets/led/lv_led.c **** 
  17:Middlewares/lvgl/src/extra/widgets/led/lv_led.c **** #ifndef LV_LED_BRIGHT_MIN
  18:Middlewares/lvgl/src/extra/widgets/led/lv_led.c **** # define LV_LED_BRIGHT_MIN 80
  19:Middlewares/lvgl/src/extra/widgets/led/lv_led.c **** #endif
  20:Middlewares/lvgl/src/extra/widgets/led/lv_led.c **** 
  21:Middlewares/lvgl/src/extra/widgets/led/lv_led.c **** #ifndef LV_LED_BRIGHT_MAX
  22:Middlewares/lvgl/src/extra/widgets/led/lv_led.c **** # define LV_LED_BRIGHT_MAX 255
  23:Middlewares/lvgl/src/extra/widgets/led/lv_led.c **** #endif
  24:Middlewares/lvgl/src/extra/widgets/led/lv_led.c **** 
  25:Middlewares/lvgl/src/extra/widgets/led/lv_led.c **** /**********************
  26:Middlewares/lvgl/src/extra/widgets/led/lv_led.c ****  *      TYPEDEFS
  27:Middlewares/lvgl/src/extra/widgets/led/lv_led.c ****  **********************/
  28:Middlewares/lvgl/src/extra/widgets/led/lv_led.c **** 
  29:Middlewares/lvgl/src/extra/widgets/led/lv_led.c **** /**********************
  30:Middlewares/lvgl/src/extra/widgets/led/lv_led.c ****  *  STATIC PROTOTYPES
  31:Middlewares/lvgl/src/extra/widgets/led/lv_led.c ****  **********************/
ARM GAS  /tmp/cceKcmvQ.s 			page 2


  32:Middlewares/lvgl/src/extra/widgets/led/lv_led.c **** static void lv_led_constructor(const lv_obj_class_t * class_p, lv_obj_t * obj);
  33:Middlewares/lvgl/src/extra/widgets/led/lv_led.c **** static void lv_led_event(const lv_obj_class_t * class_p, lv_event_t * e);
  34:Middlewares/lvgl/src/extra/widgets/led/lv_led.c **** 
  35:Middlewares/lvgl/src/extra/widgets/led/lv_led.c **** /**********************
  36:Middlewares/lvgl/src/extra/widgets/led/lv_led.c ****  *  STATIC VARIABLES
  37:Middlewares/lvgl/src/extra/widgets/led/lv_led.c ****  **********************/
  38:Middlewares/lvgl/src/extra/widgets/led/lv_led.c **** const lv_obj_class_t lv_led_class  = {
  39:Middlewares/lvgl/src/extra/widgets/led/lv_led.c ****         .base_class = &lv_obj_class,
  40:Middlewares/lvgl/src/extra/widgets/led/lv_led.c ****         .constructor_cb = lv_led_constructor,
  41:Middlewares/lvgl/src/extra/widgets/led/lv_led.c ****         .width_def = LV_DPI_DEF / 5,
  42:Middlewares/lvgl/src/extra/widgets/led/lv_led.c ****         .height_def = LV_DPI_DEF / 5,
  43:Middlewares/lvgl/src/extra/widgets/led/lv_led.c ****         .event_cb = lv_led_event,
  44:Middlewares/lvgl/src/extra/widgets/led/lv_led.c ****         .instance_size = sizeof(lv_led_t),
  45:Middlewares/lvgl/src/extra/widgets/led/lv_led.c **** };
  46:Middlewares/lvgl/src/extra/widgets/led/lv_led.c **** 
  47:Middlewares/lvgl/src/extra/widgets/led/lv_led.c **** /**********************
  48:Middlewares/lvgl/src/extra/widgets/led/lv_led.c ****  *      MACROS
  49:Middlewares/lvgl/src/extra/widgets/led/lv_led.c ****  **********************/
  50:Middlewares/lvgl/src/extra/widgets/led/lv_led.c **** 
  51:Middlewares/lvgl/src/extra/widgets/led/lv_led.c **** /**********************
  52:Middlewares/lvgl/src/extra/widgets/led/lv_led.c ****  *   GLOBAL FUNCTIONS
  53:Middlewares/lvgl/src/extra/widgets/led/lv_led.c ****  **********************/
  54:Middlewares/lvgl/src/extra/widgets/led/lv_led.c **** 
  55:Middlewares/lvgl/src/extra/widgets/led/lv_led.c **** /**
  56:Middlewares/lvgl/src/extra/widgets/led/lv_led.c ****  * Create a led objects
  57:Middlewares/lvgl/src/extra/widgets/led/lv_led.c ****  * @param par pointer to an object, it will be the parent of the new led
  58:Middlewares/lvgl/src/extra/widgets/led/lv_led.c ****  * @return pointer to the created led
  59:Middlewares/lvgl/src/extra/widgets/led/lv_led.c ****  */
  60:Middlewares/lvgl/src/extra/widgets/led/lv_led.c **** lv_obj_t * lv_led_create(lv_obj_t * parent)
  61:Middlewares/lvgl/src/extra/widgets/led/lv_led.c **** {
  62:Middlewares/lvgl/src/extra/widgets/led/lv_led.c ****     LV_LOG_INFO("begin")
  63:Middlewares/lvgl/src/extra/widgets/led/lv_led.c ****     lv_obj_t * obj = lv_obj_class_create_obj(MY_CLASS, parent);
  64:Middlewares/lvgl/src/extra/widgets/led/lv_led.c ****     lv_obj_class_init_obj(obj);
  65:Middlewares/lvgl/src/extra/widgets/led/lv_led.c ****     return obj;
  66:Middlewares/lvgl/src/extra/widgets/led/lv_led.c **** }
  67:Middlewares/lvgl/src/extra/widgets/led/lv_led.c **** 
  68:Middlewares/lvgl/src/extra/widgets/led/lv_led.c **** /*=====================
  69:Middlewares/lvgl/src/extra/widgets/led/lv_led.c ****  * Setter functions
  70:Middlewares/lvgl/src/extra/widgets/led/lv_led.c ****  *====================*/
  71:Middlewares/lvgl/src/extra/widgets/led/lv_led.c **** 
  72:Middlewares/lvgl/src/extra/widgets/led/lv_led.c **** /**
  73:Middlewares/lvgl/src/extra/widgets/led/lv_led.c ****  * Set the color of the LED
  74:Middlewares/lvgl/src/extra/widgets/led/lv_led.c ****  * @param led       pointer to a LED object
  75:Middlewares/lvgl/src/extra/widgets/led/lv_led.c ****  * @param color     the color of the the LED
  76:Middlewares/lvgl/src/extra/widgets/led/lv_led.c ****  */
  77:Middlewares/lvgl/src/extra/widgets/led/lv_led.c **** void lv_led_set_color(lv_obj_t * obj, lv_color_t color)
  78:Middlewares/lvgl/src/extra/widgets/led/lv_led.c **** {
  79:Middlewares/lvgl/src/extra/widgets/led/lv_led.c ****     lv_led_t * led = (lv_led_t *)obj;
  80:Middlewares/lvgl/src/extra/widgets/led/lv_led.c ****     led->color = color;
  81:Middlewares/lvgl/src/extra/widgets/led/lv_led.c ****     lv_obj_invalidate(obj);
  82:Middlewares/lvgl/src/extra/widgets/led/lv_led.c **** }
  83:Middlewares/lvgl/src/extra/widgets/led/lv_led.c **** 
  84:Middlewares/lvgl/src/extra/widgets/led/lv_led.c **** /**
  85:Middlewares/lvgl/src/extra/widgets/led/lv_led.c ****  * Set the brightness of a LED object
  86:Middlewares/lvgl/src/extra/widgets/led/lv_led.c ****  * @param led pointer to a LED object
  87:Middlewares/lvgl/src/extra/widgets/led/lv_led.c ****  * @param bright LV_LED_BRIGHT_MIN (max. dark) ... LV_LED_BRIGHT_MAX (max. light)
  88:Middlewares/lvgl/src/extra/widgets/led/lv_led.c ****  */
ARM GAS  /tmp/cceKcmvQ.s 			page 3


  89:Middlewares/lvgl/src/extra/widgets/led/lv_led.c **** void lv_led_set_brightness(lv_obj_t * obj, uint8_t bright)
  90:Middlewares/lvgl/src/extra/widgets/led/lv_led.c **** {
  91:Middlewares/lvgl/src/extra/widgets/led/lv_led.c ****     lv_led_t * led = (lv_led_t *)obj;
  92:Middlewares/lvgl/src/extra/widgets/led/lv_led.c ****     if(led->bright == bright) return;
  93:Middlewares/lvgl/src/extra/widgets/led/lv_led.c **** 
  94:Middlewares/lvgl/src/extra/widgets/led/lv_led.c ****     if(bright <= LV_LED_BRIGHT_MIN) bright = LV_LED_BRIGHT_MIN;
  95:Middlewares/lvgl/src/extra/widgets/led/lv_led.c ****     if(bright >= LV_LED_BRIGHT_MAX) bright = LV_LED_BRIGHT_MAX;
  96:Middlewares/lvgl/src/extra/widgets/led/lv_led.c **** 
  97:Middlewares/lvgl/src/extra/widgets/led/lv_led.c ****     led->bright = bright;
  98:Middlewares/lvgl/src/extra/widgets/led/lv_led.c **** 
  99:Middlewares/lvgl/src/extra/widgets/led/lv_led.c ****     /*Invalidate the object there fore it will be redrawn*/
 100:Middlewares/lvgl/src/extra/widgets/led/lv_led.c ****     lv_obj_invalidate(obj);
 101:Middlewares/lvgl/src/extra/widgets/led/lv_led.c **** }
 102:Middlewares/lvgl/src/extra/widgets/led/lv_led.c **** 
 103:Middlewares/lvgl/src/extra/widgets/led/lv_led.c **** /**
 104:Middlewares/lvgl/src/extra/widgets/led/lv_led.c ****  * Light on a LED
 105:Middlewares/lvgl/src/extra/widgets/led/lv_led.c ****  * @param led pointer to a LED object
 106:Middlewares/lvgl/src/extra/widgets/led/lv_led.c ****  */
 107:Middlewares/lvgl/src/extra/widgets/led/lv_led.c **** void lv_led_on(lv_obj_t * led)
 108:Middlewares/lvgl/src/extra/widgets/led/lv_led.c **** {
 109:Middlewares/lvgl/src/extra/widgets/led/lv_led.c ****     lv_led_set_brightness(led, LV_LED_BRIGHT_MAX);
 110:Middlewares/lvgl/src/extra/widgets/led/lv_led.c **** }
 111:Middlewares/lvgl/src/extra/widgets/led/lv_led.c **** 
 112:Middlewares/lvgl/src/extra/widgets/led/lv_led.c **** /**
 113:Middlewares/lvgl/src/extra/widgets/led/lv_led.c ****  * Light off a LED
 114:Middlewares/lvgl/src/extra/widgets/led/lv_led.c ****  * @param led pointer to a LED object
 115:Middlewares/lvgl/src/extra/widgets/led/lv_led.c ****  */
 116:Middlewares/lvgl/src/extra/widgets/led/lv_led.c **** void lv_led_off(lv_obj_t * led)
 117:Middlewares/lvgl/src/extra/widgets/led/lv_led.c **** {
 118:Middlewares/lvgl/src/extra/widgets/led/lv_led.c ****     lv_led_set_brightness(led, LV_LED_BRIGHT_MIN);
 119:Middlewares/lvgl/src/extra/widgets/led/lv_led.c **** }
 120:Middlewares/lvgl/src/extra/widgets/led/lv_led.c **** 
 121:Middlewares/lvgl/src/extra/widgets/led/lv_led.c **** /**
 122:Middlewares/lvgl/src/extra/widgets/led/lv_led.c ****  * Toggle the state of a LED
 123:Middlewares/lvgl/src/extra/widgets/led/lv_led.c ****  * @param led pointer to a LED object
 124:Middlewares/lvgl/src/extra/widgets/led/lv_led.c ****  */
 125:Middlewares/lvgl/src/extra/widgets/led/lv_led.c **** void lv_led_toggle(lv_obj_t * obj)
 126:Middlewares/lvgl/src/extra/widgets/led/lv_led.c **** {
 127:Middlewares/lvgl/src/extra/widgets/led/lv_led.c ****     uint8_t bright = lv_led_get_brightness(obj);
 128:Middlewares/lvgl/src/extra/widgets/led/lv_led.c ****     if(bright > (LV_LED_BRIGHT_MIN + LV_LED_BRIGHT_MAX) >> 1)
 129:Middlewares/lvgl/src/extra/widgets/led/lv_led.c ****         lv_led_off(obj);
 130:Middlewares/lvgl/src/extra/widgets/led/lv_led.c ****     else
 131:Middlewares/lvgl/src/extra/widgets/led/lv_led.c ****         lv_led_on(obj);
 132:Middlewares/lvgl/src/extra/widgets/led/lv_led.c **** }
 133:Middlewares/lvgl/src/extra/widgets/led/lv_led.c **** 
 134:Middlewares/lvgl/src/extra/widgets/led/lv_led.c **** /*=====================
 135:Middlewares/lvgl/src/extra/widgets/led/lv_led.c ****  * Getter functions
 136:Middlewares/lvgl/src/extra/widgets/led/lv_led.c ****  *====================*/
 137:Middlewares/lvgl/src/extra/widgets/led/lv_led.c **** 
 138:Middlewares/lvgl/src/extra/widgets/led/lv_led.c **** /**
 139:Middlewares/lvgl/src/extra/widgets/led/lv_led.c ****  * Get the brightness of a LEd object
 140:Middlewares/lvgl/src/extra/widgets/led/lv_led.c ****  * @param led pointer to LED object
 141:Middlewares/lvgl/src/extra/widgets/led/lv_led.c ****  * @return bright 0 (max. dark) ... 255 (max. light)
 142:Middlewares/lvgl/src/extra/widgets/led/lv_led.c ****  */
 143:Middlewares/lvgl/src/extra/widgets/led/lv_led.c **** uint8_t lv_led_get_brightness(const lv_obj_t * obj)
 144:Middlewares/lvgl/src/extra/widgets/led/lv_led.c **** {
 145:Middlewares/lvgl/src/extra/widgets/led/lv_led.c ****     lv_led_t * led = (lv_led_t *)obj;
ARM GAS  /tmp/cceKcmvQ.s 			page 4


 146:Middlewares/lvgl/src/extra/widgets/led/lv_led.c ****     return led->bright;
 147:Middlewares/lvgl/src/extra/widgets/led/lv_led.c **** }
 148:Middlewares/lvgl/src/extra/widgets/led/lv_led.c **** 
 149:Middlewares/lvgl/src/extra/widgets/led/lv_led.c **** /**********************
 150:Middlewares/lvgl/src/extra/widgets/led/lv_led.c ****  *   STATIC FUNCTIONS
 151:Middlewares/lvgl/src/extra/widgets/led/lv_led.c ****  **********************/
 152:Middlewares/lvgl/src/extra/widgets/led/lv_led.c **** 
 153:Middlewares/lvgl/src/extra/widgets/led/lv_led.c **** static void lv_led_constructor(const lv_obj_class_t * class_p, lv_obj_t * obj)
 154:Middlewares/lvgl/src/extra/widgets/led/lv_led.c **** {
  28              		.loc 1 154 1 view -0
  29              		.cfi_startproc
  30              		@ args = 0, pretend = 0, frame = 0
  31              		@ frame_needed = 0, uses_anonymous_args = 0
  32              		.loc 1 154 1 is_stmt 0 view .LVU1
  33 0000 10B5     		push	{r4, lr}
  34              	.LCFI0:
  35              		.cfi_def_cfa_offset 8
  36              		.cfi_offset 4, -8
  37              		.cfi_offset 14, -4
  38 0002 0C46     		mov	r4, r1
 155:Middlewares/lvgl/src/extra/widgets/led/lv_led.c ****     LV_UNUSED(class_p);
  39              		.loc 1 155 5 is_stmt 1 view .LVU2
 156:Middlewares/lvgl/src/extra/widgets/led/lv_led.c ****     lv_led_t * led = (lv_led_t *)obj;
  40              		.loc 1 156 5 view .LVU3
  41              	.LVL1:
 157:Middlewares/lvgl/src/extra/widgets/led/lv_led.c ****     led->color = lv_theme_get_color_primary(obj);
  42              		.loc 1 157 5 view .LVU4
  43              		.loc 1 157 18 is_stmt 0 view .LVU5
  44 0004 0846     		mov	r0, r1
  45              	.LVL2:
  46              		.loc 1 157 18 view .LVU6
  47 0006 FFF7FEFF 		bl	lv_theme_get_color_primary
  48              	.LVL3:
  49              		.loc 1 157 18 view .LVU7
  50 000a A084     		strh	r0, [r4, #36]	@ movhi
 158:Middlewares/lvgl/src/extra/widgets/led/lv_led.c ****     led->bright = LV_LED_BRIGHT_MAX;
  51              		.loc 1 158 5 is_stmt 1 view .LVU8
  52              		.loc 1 158 17 is_stmt 0 view .LVU9
  53 000c FF23     		movs	r3, #255
  54 000e 84F82630 		strb	r3, [r4, #38]
 159:Middlewares/lvgl/src/extra/widgets/led/lv_led.c **** }
  55              		.loc 1 159 1 view .LVU10
  56 0012 10BD     		pop	{r4, pc}
  57              		.loc 1 159 1 view .LVU11
  58              		.cfi_endproc
  59              	.LFE191:
  61              		.section	.text.lv_led_event,"ax",%progbits
  62              		.align	1
  63              		.syntax unified
  64              		.thumb
  65              		.thumb_func
  67              	lv_led_event:
  68              	.LVL4:
  69              	.LFB192:
 160:Middlewares/lvgl/src/extra/widgets/led/lv_led.c **** 
 161:Middlewares/lvgl/src/extra/widgets/led/lv_led.c **** static void lv_led_event(const lv_obj_class_t * class_p, lv_event_t * e)
 162:Middlewares/lvgl/src/extra/widgets/led/lv_led.c **** {
ARM GAS  /tmp/cceKcmvQ.s 			page 5


  70              		.loc 1 162 1 is_stmt 1 view -0
  71              		.cfi_startproc
  72              		@ args = 0, pretend = 0, frame = 128
  73              		@ frame_needed = 0, uses_anonymous_args = 0
  74              		.loc 1 162 1 is_stmt 0 view .LVU13
  75 0000 2DE9F041 		push	{r4, r5, r6, r7, r8, lr}
  76              	.LCFI1:
  77              		.cfi_def_cfa_offset 24
  78              		.cfi_offset 4, -24
  79              		.cfi_offset 5, -20
  80              		.cfi_offset 6, -16
  81              		.cfi_offset 7, -12
  82              		.cfi_offset 8, -8
  83              		.cfi_offset 14, -4
  84 0004 A0B0     		sub	sp, sp, #128
  85              	.LCFI2:
  86              		.cfi_def_cfa_offset 152
  87 0006 0C46     		mov	r4, r1
 163:Middlewares/lvgl/src/extra/widgets/led/lv_led.c ****     LV_UNUSED(class_p);
  88              		.loc 1 163 5 is_stmt 1 view .LVU14
 164:Middlewares/lvgl/src/extra/widgets/led/lv_led.c **** 
 165:Middlewares/lvgl/src/extra/widgets/led/lv_led.c ****     lv_res_t res;
  89              		.loc 1 165 5 view .LVU15
 166:Middlewares/lvgl/src/extra/widgets/led/lv_led.c **** 
 167:Middlewares/lvgl/src/extra/widgets/led/lv_led.c ****     /* Call the ancestor's event handler */
 168:Middlewares/lvgl/src/extra/widgets/led/lv_led.c ****     lv_event_code_t code = lv_event_get_code(e);
  90              		.loc 1 168 5 view .LVU16
  91              		.loc 1 168 28 is_stmt 0 view .LVU17
  92 0008 0846     		mov	r0, r1
  93              	.LVL5:
  94              		.loc 1 168 28 view .LVU18
  95 000a FFF7FEFF 		bl	lv_event_get_code
  96              	.LVL6:
  97              		.loc 1 168 28 view .LVU19
  98 000e 0546     		mov	r5, r0
  99              	.LVL7:
 169:Middlewares/lvgl/src/extra/widgets/led/lv_led.c ****     if(code != LV_EVENT_DRAW_MAIN && code != LV_EVENT_DRAW_MAIN_END) {
 100              		.loc 1 169 5 is_stmt 1 view .LVU20
 101              		.loc 1 169 35 is_stmt 0 view .LVU21
 102 0010 A0F11503 		sub	r3, r0, #21
 103 0014 DBB2     		uxtb	r3, r3
 104              		.loc 1 169 7 view .LVU22
 105 0016 012B     		cmp	r3, #1
 106 0018 05D9     		bls	.L4
 170:Middlewares/lvgl/src/extra/widgets/led/lv_led.c ****         res = lv_obj_event_base(MY_CLASS, e);
 107              		.loc 1 170 9 is_stmt 1 view .LVU23
 108              		.loc 1 170 15 is_stmt 0 view .LVU24
 109 001a 2146     		mov	r1, r4
 110 001c 0648     		ldr	r0, .L8
 111              	.LVL8:
 112              		.loc 1 170 15 view .LVU25
 113 001e FFF7FEFF 		bl	lv_obj_event_base
 114              	.LVL9:
 171:Middlewares/lvgl/src/extra/widgets/led/lv_led.c ****         if(res != LV_RES_OK) return;
 115              		.loc 1 171 9 is_stmt 1 view .LVU26
 116              		.loc 1 171 11 is_stmt 0 view .LVU27
 117 0022 0128     		cmp	r0, #1
ARM GAS  /tmp/cceKcmvQ.s 			page 6


 118 0024 05D1     		bne	.L3
 119              	.LVL10:
 120              	.L4:
 172:Middlewares/lvgl/src/extra/widgets/led/lv_led.c ****     }
 173:Middlewares/lvgl/src/extra/widgets/led/lv_led.c **** 
 174:Middlewares/lvgl/src/extra/widgets/led/lv_led.c ****     lv_obj_t * obj = lv_event_get_target(e);
 121              		.loc 1 174 5 is_stmt 1 view .LVU28
 122              		.loc 1 174 22 is_stmt 0 view .LVU29
 123 0026 2046     		mov	r0, r4
 124 0028 FFF7FEFF 		bl	lv_event_get_target
 125              	.LVL11:
 126 002c 0646     		mov	r6, r0
 127              	.LVL12:
 175:Middlewares/lvgl/src/extra/widgets/led/lv_led.c ****     if(code == LV_EVENT_DRAW_MAIN) {
 128              		.loc 1 175 5 is_stmt 1 view .LVU30
 129              		.loc 1 175 7 is_stmt 0 view .LVU31
 130 002e 152D     		cmp	r5, #21
 131 0030 04D0     		beq	.L7
 132              	.LVL13:
 133              	.L3:
 176:Middlewares/lvgl/src/extra/widgets/led/lv_led.c ****         /*Make darker colors in a temporary style according to the brightness*/
 177:Middlewares/lvgl/src/extra/widgets/led/lv_led.c ****         lv_led_t * led = (lv_led_t *)obj;
 178:Middlewares/lvgl/src/extra/widgets/led/lv_led.c **** 
 179:Middlewares/lvgl/src/extra/widgets/led/lv_led.c ****         lv_draw_rect_dsc_t rect_dsc;
 180:Middlewares/lvgl/src/extra/widgets/led/lv_led.c ****         lv_draw_rect_dsc_init(&rect_dsc);
 181:Middlewares/lvgl/src/extra/widgets/led/lv_led.c ****         lv_obj_init_draw_rect_dsc(obj, LV_PART_MAIN, &rect_dsc);
 182:Middlewares/lvgl/src/extra/widgets/led/lv_led.c **** 
 183:Middlewares/lvgl/src/extra/widgets/led/lv_led.c ****         /*Use the original colors brightness to modify color->led*/
 184:Middlewares/lvgl/src/extra/widgets/led/lv_led.c ****         rect_dsc.bg_color = lv_color_mix(led->color, lv_color_black(), lv_color_brightness(rect_dsc
 185:Middlewares/lvgl/src/extra/widgets/led/lv_led.c ****         rect_dsc.bg_grad_color = lv_color_mix(led->color, lv_color_black(), lv_color_brightness(rec
 186:Middlewares/lvgl/src/extra/widgets/led/lv_led.c ****         rect_dsc.shadow_color = lv_color_mix(led->color, lv_color_black(), lv_color_brightness(rect
 187:Middlewares/lvgl/src/extra/widgets/led/lv_led.c ****         rect_dsc.border_color = lv_color_mix(led->color, lv_color_black(), lv_color_brightness(rect
 188:Middlewares/lvgl/src/extra/widgets/led/lv_led.c ****         rect_dsc.outline_color = lv_color_mix(led->color, lv_color_black(), lv_color_brightness(rec
 189:Middlewares/lvgl/src/extra/widgets/led/lv_led.c **** 
 190:Middlewares/lvgl/src/extra/widgets/led/lv_led.c ****         /*Mix. the color with black proportionally with brightness*/
 191:Middlewares/lvgl/src/extra/widgets/led/lv_led.c ****         rect_dsc.bg_color   = lv_color_mix(rect_dsc.bg_color, lv_color_black(), led->bright);
 192:Middlewares/lvgl/src/extra/widgets/led/lv_led.c ****         rect_dsc.bg_grad_color   = lv_color_mix(rect_dsc.bg_grad_color, lv_color_black(), led->brig
 193:Middlewares/lvgl/src/extra/widgets/led/lv_led.c ****         rect_dsc.border_color = lv_color_mix(rect_dsc.border_color, lv_color_black(), led->bright);
 194:Middlewares/lvgl/src/extra/widgets/led/lv_led.c ****         rect_dsc.shadow_color = lv_color_mix(rect_dsc.shadow_color, lv_color_black(), led->bright);
 195:Middlewares/lvgl/src/extra/widgets/led/lv_led.c ****         rect_dsc.outline_color = lv_color_mix(rect_dsc.outline_color, lv_color_black(), led->bright
 196:Middlewares/lvgl/src/extra/widgets/led/lv_led.c **** 
 197:Middlewares/lvgl/src/extra/widgets/led/lv_led.c ****         /*Set the current shadow width according to brightness proportionally between LV_LED_BRIGHT
 198:Middlewares/lvgl/src/extra/widgets/led/lv_led.c ****          * and LV_LED_BRIGHT_ON*/
 199:Middlewares/lvgl/src/extra/widgets/led/lv_led.c ****         rect_dsc.shadow_width = ((led->bright - LV_LED_BRIGHT_MIN) * rect_dsc.shadow_width) /
 200:Middlewares/lvgl/src/extra/widgets/led/lv_led.c ****                 (LV_LED_BRIGHT_MAX - LV_LED_BRIGHT_MIN);
 201:Middlewares/lvgl/src/extra/widgets/led/lv_led.c ****         rect_dsc.shadow_spread = ((led->bright - LV_LED_BRIGHT_MIN) * rect_dsc.shadow_spread) /
 202:Middlewares/lvgl/src/extra/widgets/led/lv_led.c ****                 (LV_LED_BRIGHT_MAX - LV_LED_BRIGHT_MIN);
 203:Middlewares/lvgl/src/extra/widgets/led/lv_led.c **** 
 204:Middlewares/lvgl/src/extra/widgets/led/lv_led.c ****         const lv_area_t * clip_area = lv_event_get_param(e);
 205:Middlewares/lvgl/src/extra/widgets/led/lv_led.c **** 
 206:Middlewares/lvgl/src/extra/widgets/led/lv_led.c ****         lv_obj_draw_part_dsc_t  part_dsc;
 207:Middlewares/lvgl/src/extra/widgets/led/lv_led.c ****         lv_obj_draw_dsc_init(&part_dsc, clip_area);
 208:Middlewares/lvgl/src/extra/widgets/led/lv_led.c ****         part_dsc.draw_area = &obj->coords;
 209:Middlewares/lvgl/src/extra/widgets/led/lv_led.c ****         part_dsc.rect_dsc = &rect_dsc;
 210:Middlewares/lvgl/src/extra/widgets/led/lv_led.c ****         part_dsc.part = LV_PART_MAIN;
 211:Middlewares/lvgl/src/extra/widgets/led/lv_led.c **** 
 212:Middlewares/lvgl/src/extra/widgets/led/lv_led.c ****         lv_event_send(obj, LV_EVENT_DRAW_PART_BEGIN, &part_dsc);
ARM GAS  /tmp/cceKcmvQ.s 			page 7


 213:Middlewares/lvgl/src/extra/widgets/led/lv_led.c ****         lv_draw_rect(&obj->coords, clip_area, &rect_dsc);
 214:Middlewares/lvgl/src/extra/widgets/led/lv_led.c ****         lv_event_send(obj, LV_EVENT_DRAW_PART_END, &part_dsc);
 215:Middlewares/lvgl/src/extra/widgets/led/lv_led.c ****     }
 216:Middlewares/lvgl/src/extra/widgets/led/lv_led.c **** }
 134              		.loc 1 216 1 view .LVU32
 135 0032 20B0     		add	sp, sp, #128
 136              	.LCFI3:
 137              		.cfi_remember_state
 138              		.cfi_def_cfa_offset 24
 139              		@ sp needed
 140 0034 BDE8F081 		pop	{r4, r5, r6, r7, r8, pc}
 141              	.L9:
 142              		.align	2
 143              	.L8:
 144 0038 00000000 		.word	.LANCHOR0
 145              	.LVL14:
 146              	.L7:
 147              	.LCFI4:
 148              		.cfi_restore_state
 149              	.LBB126:
 177:Middlewares/lvgl/src/extra/widgets/led/lv_led.c **** 
 150              		.loc 1 177 9 is_stmt 1 view .LVU33
 179:Middlewares/lvgl/src/extra/widgets/led/lv_led.c ****         lv_draw_rect_dsc_init(&rect_dsc);
 151              		.loc 1 179 9 view .LVU34
 180:Middlewares/lvgl/src/extra/widgets/led/lv_led.c ****         lv_obj_init_draw_rect_dsc(obj, LV_PART_MAIN, &rect_dsc);
 152              		.loc 1 180 9 view .LVU35
 153 003c 01A8     		add	r0, sp, #4
 154              	.LVL15:
 180:Middlewares/lvgl/src/extra/widgets/led/lv_led.c ****         lv_obj_init_draw_rect_dsc(obj, LV_PART_MAIN, &rect_dsc);
 155              		.loc 1 180 9 is_stmt 0 view .LVU36
 156 003e FFF7FEFF 		bl	lv_draw_rect_dsc_init
 157              	.LVL16:
 181:Middlewares/lvgl/src/extra/widgets/led/lv_led.c **** 
 158              		.loc 1 181 9 is_stmt 1 view .LVU37
 159 0042 01AA     		add	r2, sp, #4
 160 0044 0021     		movs	r1, #0
 161 0046 3046     		mov	r0, r6
 162 0048 FFF7FEFF 		bl	lv_obj_init_draw_rect_dsc
 163              	.LVL17:
 184:Middlewares/lvgl/src/extra/widgets/led/lv_led.c ****         rect_dsc.bg_grad_color = lv_color_mix(led->color, lv_color_black(), lv_color_brightness(rec
 164              		.loc 1 184 9 view .LVU38
 165              	.LBB127:
 166              	.LBI127:
 167              		.file 2 "Middlewares/lvgl/src/extra/widgets/led/../../../../src/hal/../misc/lv_color.h"
   1:Middlewares/lvgl/src/extra/widgets/led/../../../../src/hal/../misc/lv_color.h **** /**
   2:Middlewares/lvgl/src/extra/widgets/led/../../../../src/hal/../misc/lv_color.h ****  * @file lv_color.h
   3:Middlewares/lvgl/src/extra/widgets/led/../../../../src/hal/../misc/lv_color.h ****  *
   4:Middlewares/lvgl/src/extra/widgets/led/../../../../src/hal/../misc/lv_color.h ****  */
   5:Middlewares/lvgl/src/extra/widgets/led/../../../../src/hal/../misc/lv_color.h **** 
   6:Middlewares/lvgl/src/extra/widgets/led/../../../../src/hal/../misc/lv_color.h **** #ifndef LV_COLOR_H
   7:Middlewares/lvgl/src/extra/widgets/led/../../../../src/hal/../misc/lv_color.h **** #define LV_COLOR_H
   8:Middlewares/lvgl/src/extra/widgets/led/../../../../src/hal/../misc/lv_color.h **** 
   9:Middlewares/lvgl/src/extra/widgets/led/../../../../src/hal/../misc/lv_color.h **** #ifdef __cplusplus
  10:Middlewares/lvgl/src/extra/widgets/led/../../../../src/hal/../misc/lv_color.h **** extern "C" {
  11:Middlewares/lvgl/src/extra/widgets/led/../../../../src/hal/../misc/lv_color.h **** #endif
  12:Middlewares/lvgl/src/extra/widgets/led/../../../../src/hal/../misc/lv_color.h **** 
  13:Middlewares/lvgl/src/extra/widgets/led/../../../../src/hal/../misc/lv_color.h **** /*********************
ARM GAS  /tmp/cceKcmvQ.s 			page 8


  14:Middlewares/lvgl/src/extra/widgets/led/../../../../src/hal/../misc/lv_color.h ****  *      INCLUDES
  15:Middlewares/lvgl/src/extra/widgets/led/../../../../src/hal/../misc/lv_color.h ****  *********************/
  16:Middlewares/lvgl/src/extra/widgets/led/../../../../src/hal/../misc/lv_color.h **** #include "../lv_conf_internal.h"
  17:Middlewares/lvgl/src/extra/widgets/led/../../../../src/hal/../misc/lv_color.h **** #include "lv_math.h"
  18:Middlewares/lvgl/src/extra/widgets/led/../../../../src/hal/../misc/lv_color.h **** #include "lv_types.h"
  19:Middlewares/lvgl/src/extra/widgets/led/../../../../src/hal/../misc/lv_color.h **** 
  20:Middlewares/lvgl/src/extra/widgets/led/../../../../src/hal/../misc/lv_color.h **** /*Error checking*/
  21:Middlewares/lvgl/src/extra/widgets/led/../../../../src/hal/../misc/lv_color.h **** #if LV_COLOR_DEPTH == 24
  22:Middlewares/lvgl/src/extra/widgets/led/../../../../src/hal/../misc/lv_color.h **** #error "LV_COLOR_DEPTH 24 is deprecated. Use LV_COLOR_DEPTH 32 instead (lv_conf.h)"
  23:Middlewares/lvgl/src/extra/widgets/led/../../../../src/hal/../misc/lv_color.h **** #endif
  24:Middlewares/lvgl/src/extra/widgets/led/../../../../src/hal/../misc/lv_color.h **** 
  25:Middlewares/lvgl/src/extra/widgets/led/../../../../src/hal/../misc/lv_color.h **** #if LV_COLOR_DEPTH != 32 && LV_COLOR_SCREEN_TRANSP != 0
  26:Middlewares/lvgl/src/extra/widgets/led/../../../../src/hal/../misc/lv_color.h **** #error "LV_COLOR_SCREEN_TRANSP requires LV_COLOR_DEPTH == 32. Set it in lv_conf.h"
  27:Middlewares/lvgl/src/extra/widgets/led/../../../../src/hal/../misc/lv_color.h **** #endif
  28:Middlewares/lvgl/src/extra/widgets/led/../../../../src/hal/../misc/lv_color.h **** 
  29:Middlewares/lvgl/src/extra/widgets/led/../../../../src/hal/../misc/lv_color.h **** #if LV_COLOR_DEPTH != 16 && LV_COLOR_16_SWAP != 0
  30:Middlewares/lvgl/src/extra/widgets/led/../../../../src/hal/../misc/lv_color.h **** #error "LV_COLOR_16_SWAP requires LV_COLOR_DEPTH == 16. Set it in lv_conf.h"
  31:Middlewares/lvgl/src/extra/widgets/led/../../../../src/hal/../misc/lv_color.h **** #endif
  32:Middlewares/lvgl/src/extra/widgets/led/../../../../src/hal/../misc/lv_color.h **** 
  33:Middlewares/lvgl/src/extra/widgets/led/../../../../src/hal/../misc/lv_color.h **** #include <stdint.h>
  34:Middlewares/lvgl/src/extra/widgets/led/../../../../src/hal/../misc/lv_color.h **** 
  35:Middlewares/lvgl/src/extra/widgets/led/../../../../src/hal/../misc/lv_color.h **** /*********************
  36:Middlewares/lvgl/src/extra/widgets/led/../../../../src/hal/../misc/lv_color.h ****  *      DEFINES
  37:Middlewares/lvgl/src/extra/widgets/led/../../../../src/hal/../misc/lv_color.h ****  *********************/
  38:Middlewares/lvgl/src/extra/widgets/led/../../../../src/hal/../misc/lv_color.h **** 
  39:Middlewares/lvgl/src/extra/widgets/led/../../../../src/hal/../misc/lv_color.h **** /**
  40:Middlewares/lvgl/src/extra/widgets/led/../../../../src/hal/../misc/lv_color.h ****  * Opacity percentages.
  41:Middlewares/lvgl/src/extra/widgets/led/../../../../src/hal/../misc/lv_color.h ****  */
  42:Middlewares/lvgl/src/extra/widgets/led/../../../../src/hal/../misc/lv_color.h **** enum {
  43:Middlewares/lvgl/src/extra/widgets/led/../../../../src/hal/../misc/lv_color.h ****     LV_OPA_TRANSP = 0,
  44:Middlewares/lvgl/src/extra/widgets/led/../../../../src/hal/../misc/lv_color.h ****     LV_OPA_0      = 0,
  45:Middlewares/lvgl/src/extra/widgets/led/../../../../src/hal/../misc/lv_color.h ****     LV_OPA_10     = 25,
  46:Middlewares/lvgl/src/extra/widgets/led/../../../../src/hal/../misc/lv_color.h ****     LV_OPA_20     = 51,
  47:Middlewares/lvgl/src/extra/widgets/led/../../../../src/hal/../misc/lv_color.h ****     LV_OPA_30     = 76,
  48:Middlewares/lvgl/src/extra/widgets/led/../../../../src/hal/../misc/lv_color.h ****     LV_OPA_40     = 102,
  49:Middlewares/lvgl/src/extra/widgets/led/../../../../src/hal/../misc/lv_color.h ****     LV_OPA_50     = 127,
  50:Middlewares/lvgl/src/extra/widgets/led/../../../../src/hal/../misc/lv_color.h ****     LV_OPA_60     = 153,
  51:Middlewares/lvgl/src/extra/widgets/led/../../../../src/hal/../misc/lv_color.h ****     LV_OPA_70     = 178,
  52:Middlewares/lvgl/src/extra/widgets/led/../../../../src/hal/../misc/lv_color.h ****     LV_OPA_80     = 204,
  53:Middlewares/lvgl/src/extra/widgets/led/../../../../src/hal/../misc/lv_color.h ****     LV_OPA_90     = 229,
  54:Middlewares/lvgl/src/extra/widgets/led/../../../../src/hal/../misc/lv_color.h ****     LV_OPA_100    = 255,
  55:Middlewares/lvgl/src/extra/widgets/led/../../../../src/hal/../misc/lv_color.h ****     LV_OPA_COVER  = 255,
  56:Middlewares/lvgl/src/extra/widgets/led/../../../../src/hal/../misc/lv_color.h **** };
  57:Middlewares/lvgl/src/extra/widgets/led/../../../../src/hal/../misc/lv_color.h **** 
  58:Middlewares/lvgl/src/extra/widgets/led/../../../../src/hal/../misc/lv_color.h **** #define LV_OPA_MIN 2    /*Opacities below this will be transparent*/
  59:Middlewares/lvgl/src/extra/widgets/led/../../../../src/hal/../misc/lv_color.h **** #define LV_OPA_MAX 253  /*Opacities above this will fully cover*/
  60:Middlewares/lvgl/src/extra/widgets/led/../../../../src/hal/../misc/lv_color.h **** 
  61:Middlewares/lvgl/src/extra/widgets/led/../../../../src/hal/../misc/lv_color.h **** #if LV_COLOR_DEPTH == 1
  62:Middlewares/lvgl/src/extra/widgets/led/../../../../src/hal/../misc/lv_color.h **** #define LV_COLOR_SIZE 8
  63:Middlewares/lvgl/src/extra/widgets/led/../../../../src/hal/../misc/lv_color.h **** #elif LV_COLOR_DEPTH == 8
  64:Middlewares/lvgl/src/extra/widgets/led/../../../../src/hal/../misc/lv_color.h **** #define LV_COLOR_SIZE 8
  65:Middlewares/lvgl/src/extra/widgets/led/../../../../src/hal/../misc/lv_color.h **** #elif LV_COLOR_DEPTH == 16
  66:Middlewares/lvgl/src/extra/widgets/led/../../../../src/hal/../misc/lv_color.h **** #define LV_COLOR_SIZE 16
  67:Middlewares/lvgl/src/extra/widgets/led/../../../../src/hal/../misc/lv_color.h **** #elif LV_COLOR_DEPTH == 32
  68:Middlewares/lvgl/src/extra/widgets/led/../../../../src/hal/../misc/lv_color.h **** #define LV_COLOR_SIZE 32
  69:Middlewares/lvgl/src/extra/widgets/led/../../../../src/hal/../misc/lv_color.h **** #else
  70:Middlewares/lvgl/src/extra/widgets/led/../../../../src/hal/../misc/lv_color.h **** #error "Invalid LV_COLOR_DEPTH in lv_conf.h! Set it to 1, 8, 16 or 32!"
ARM GAS  /tmp/cceKcmvQ.s 			page 9


  71:Middlewares/lvgl/src/extra/widgets/led/../../../../src/hal/../misc/lv_color.h **** #endif
  72:Middlewares/lvgl/src/extra/widgets/led/../../../../src/hal/../misc/lv_color.h **** 
  73:Middlewares/lvgl/src/extra/widgets/led/../../../../src/hal/../misc/lv_color.h **** /**
  74:Middlewares/lvgl/src/extra/widgets/led/../../../../src/hal/../misc/lv_color.h ****  * Adjust color mix functions rounding.
  75:Middlewares/lvgl/src/extra/widgets/led/../../../../src/hal/../misc/lv_color.h ****  * GPUs might calculate color mix (blending) differently.
  76:Middlewares/lvgl/src/extra/widgets/led/../../../../src/hal/../misc/lv_color.h ****  * Should be in range of 0..254
  77:Middlewares/lvgl/src/extra/widgets/led/../../../../src/hal/../misc/lv_color.h ****  * 0: no adjustment, get the integer part of the result (round down)
  78:Middlewares/lvgl/src/extra/widgets/led/../../../../src/hal/../misc/lv_color.h ****  * 64: round up from x.75
  79:Middlewares/lvgl/src/extra/widgets/led/../../../../src/hal/../misc/lv_color.h ****  * 128: round up from half
  80:Middlewares/lvgl/src/extra/widgets/led/../../../../src/hal/../misc/lv_color.h ****  * 192: round up from x.25
  81:Middlewares/lvgl/src/extra/widgets/led/../../../../src/hal/../misc/lv_color.h ****  * 254: round up*/
  82:Middlewares/lvgl/src/extra/widgets/led/../../../../src/hal/../misc/lv_color.h **** #ifndef LV_COLOR_MIX_ROUND_OFS
  83:Middlewares/lvgl/src/extra/widgets/led/../../../../src/hal/../misc/lv_color.h **** #if LV_COLOR_DEPTH == 32
  84:Middlewares/lvgl/src/extra/widgets/led/../../../../src/hal/../misc/lv_color.h **** #define LV_COLOR_MIX_ROUND_OFS 0
  85:Middlewares/lvgl/src/extra/widgets/led/../../../../src/hal/../misc/lv_color.h **** #else
  86:Middlewares/lvgl/src/extra/widgets/led/../../../../src/hal/../misc/lv_color.h **** #define LV_COLOR_MIX_ROUND_OFS 128
  87:Middlewares/lvgl/src/extra/widgets/led/../../../../src/hal/../misc/lv_color.h **** #endif
  88:Middlewares/lvgl/src/extra/widgets/led/../../../../src/hal/../misc/lv_color.h **** #endif
  89:Middlewares/lvgl/src/extra/widgets/led/../../../../src/hal/../misc/lv_color.h **** 
  90:Middlewares/lvgl/src/extra/widgets/led/../../../../src/hal/../misc/lv_color.h **** #if defined(__cplusplus) && !defined(_LV_COLOR_HAS_MODERN_CPP)
  91:Middlewares/lvgl/src/extra/widgets/led/../../../../src/hal/../misc/lv_color.h **** /**
  92:Middlewares/lvgl/src/extra/widgets/led/../../../../src/hal/../misc/lv_color.h **** * MSVC compiler's definition of the __cplusplus indicating 199711L regardless to C++ standard versi
  93:Middlewares/lvgl/src/extra/widgets/led/../../../../src/hal/../misc/lv_color.h **** * see https://devblogs.microsoft.com/cppblog/msvc-now-correctly-reports-cplusplus
  94:Middlewares/lvgl/src/extra/widgets/led/../../../../src/hal/../misc/lv_color.h **** * so we use _MSC_VER macro instead of __cplusplus
  95:Middlewares/lvgl/src/extra/widgets/led/../../../../src/hal/../misc/lv_color.h **** */
  96:Middlewares/lvgl/src/extra/widgets/led/../../../../src/hal/../misc/lv_color.h **** #ifdef _MSC_VER
  97:Middlewares/lvgl/src/extra/widgets/led/../../../../src/hal/../misc/lv_color.h **** #if _MSC_VER >= 1900 /*Visual Studio 2015*/
  98:Middlewares/lvgl/src/extra/widgets/led/../../../../src/hal/../misc/lv_color.h **** #define _LV_COLOR_HAS_MODERN_CPP 1
  99:Middlewares/lvgl/src/extra/widgets/led/../../../../src/hal/../misc/lv_color.h **** #endif
 100:Middlewares/lvgl/src/extra/widgets/led/../../../../src/hal/../misc/lv_color.h **** #else
 101:Middlewares/lvgl/src/extra/widgets/led/../../../../src/hal/../misc/lv_color.h **** #if __cplusplus >= 201103L
 102:Middlewares/lvgl/src/extra/widgets/led/../../../../src/hal/../misc/lv_color.h **** #define _LV_COLOR_HAS_MODERN_CPP 1
 103:Middlewares/lvgl/src/extra/widgets/led/../../../../src/hal/../misc/lv_color.h **** #endif
 104:Middlewares/lvgl/src/extra/widgets/led/../../../../src/hal/../misc/lv_color.h **** #endif
 105:Middlewares/lvgl/src/extra/widgets/led/../../../../src/hal/../misc/lv_color.h **** #endif /*__cplusplus*/
 106:Middlewares/lvgl/src/extra/widgets/led/../../../../src/hal/../misc/lv_color.h **** 
 107:Middlewares/lvgl/src/extra/widgets/led/../../../../src/hal/../misc/lv_color.h **** #ifndef _LV_COLOR_HAS_MODERN_CPP
 108:Middlewares/lvgl/src/extra/widgets/led/../../../../src/hal/../misc/lv_color.h **** #define _LV_COLOR_HAS_MODERN_CPP 0
 109:Middlewares/lvgl/src/extra/widgets/led/../../../../src/hal/../misc/lv_color.h **** #endif
 110:Middlewares/lvgl/src/extra/widgets/led/../../../../src/hal/../misc/lv_color.h **** 
 111:Middlewares/lvgl/src/extra/widgets/led/../../../../src/hal/../misc/lv_color.h **** #if _LV_COLOR_HAS_MODERN_CPP
 112:Middlewares/lvgl/src/extra/widgets/led/../../../../src/hal/../misc/lv_color.h **** /*Fix msvc compiler error C4576 inside C++ code*/
 113:Middlewares/lvgl/src/extra/widgets/led/../../../../src/hal/../misc/lv_color.h **** #define _LV_COLOR_MAKE_TYPE_HELPER lv_color_t
 114:Middlewares/lvgl/src/extra/widgets/led/../../../../src/hal/../misc/lv_color.h **** #else
 115:Middlewares/lvgl/src/extra/widgets/led/../../../../src/hal/../misc/lv_color.h **** #define _LV_COLOR_MAKE_TYPE_HELPER (lv_color_t)
 116:Middlewares/lvgl/src/extra/widgets/led/../../../../src/hal/../misc/lv_color.h **** #endif
 117:Middlewares/lvgl/src/extra/widgets/led/../../../../src/hal/../misc/lv_color.h **** 
 118:Middlewares/lvgl/src/extra/widgets/led/../../../../src/hal/../misc/lv_color.h **** /*---------------------------------------
 119:Middlewares/lvgl/src/extra/widgets/led/../../../../src/hal/../misc/lv_color.h ****  * Macros for all existing color depths
 120:Middlewares/lvgl/src/extra/widgets/led/../../../../src/hal/../misc/lv_color.h ****  * to set/get values of the color channels
 121:Middlewares/lvgl/src/extra/widgets/led/../../../../src/hal/../misc/lv_color.h ****  *------------------------------------------*/
 122:Middlewares/lvgl/src/extra/widgets/led/../../../../src/hal/../misc/lv_color.h **** # define LV_COLOR_SET_R1(c, v) (c).ch.red = (uint8_t)((v) & 0x1)
 123:Middlewares/lvgl/src/extra/widgets/led/../../../../src/hal/../misc/lv_color.h **** # define LV_COLOR_SET_G1(c, v) (c).ch.green = (uint8_t)((v) & 0x1)
 124:Middlewares/lvgl/src/extra/widgets/led/../../../../src/hal/../misc/lv_color.h **** # define LV_COLOR_SET_B1(c, v) (c).ch.blue = (uint8_t)((v) & 0x1)
 125:Middlewares/lvgl/src/extra/widgets/led/../../../../src/hal/../misc/lv_color.h **** # define LV_COLOR_SET_A1(c, v) do {} while(0)
 126:Middlewares/lvgl/src/extra/widgets/led/../../../../src/hal/../misc/lv_color.h **** 
 127:Middlewares/lvgl/src/extra/widgets/led/../../../../src/hal/../misc/lv_color.h **** # define LV_COLOR_GET_R1(c) (c).ch.red
ARM GAS  /tmp/cceKcmvQ.s 			page 10


 128:Middlewares/lvgl/src/extra/widgets/led/../../../../src/hal/../misc/lv_color.h **** # define LV_COLOR_GET_G1(c) (c).ch.green
 129:Middlewares/lvgl/src/extra/widgets/led/../../../../src/hal/../misc/lv_color.h **** # define LV_COLOR_GET_B1(c) (c).ch.blue
 130:Middlewares/lvgl/src/extra/widgets/led/../../../../src/hal/../misc/lv_color.h **** # define LV_COLOR_GET_A1(c) 0xFF
 131:Middlewares/lvgl/src/extra/widgets/led/../../../../src/hal/../misc/lv_color.h **** 
 132:Middlewares/lvgl/src/extra/widgets/led/../../../../src/hal/../misc/lv_color.h **** # define _LV_COLOR_ZERO_INITIALIZER1 {0x00}
 133:Middlewares/lvgl/src/extra/widgets/led/../../../../src/hal/../misc/lv_color.h **** # define LV_COLOR_MAKE1(r8, g8, b8)  {(uint8_t)((b8 >> 7) | (g8 >> 7) | (r8 >> 7))}
 134:Middlewares/lvgl/src/extra/widgets/led/../../../../src/hal/../misc/lv_color.h **** 
 135:Middlewares/lvgl/src/extra/widgets/led/../../../../src/hal/../misc/lv_color.h **** # define LV_COLOR_SET_R8(c, v) (c).ch.red = (uint8_t)((v) & 0x7U)
 136:Middlewares/lvgl/src/extra/widgets/led/../../../../src/hal/../misc/lv_color.h **** # define LV_COLOR_SET_G8(c, v) (c).ch.green = (uint8_t)((v) & 0x7U)
 137:Middlewares/lvgl/src/extra/widgets/led/../../../../src/hal/../misc/lv_color.h **** # define LV_COLOR_SET_B8(c, v) (c).ch.blue = (uint8_t)((v) & 0x3U)
 138:Middlewares/lvgl/src/extra/widgets/led/../../../../src/hal/../misc/lv_color.h **** # define LV_COLOR_SET_A8(c, v) do {} while(0)
 139:Middlewares/lvgl/src/extra/widgets/led/../../../../src/hal/../misc/lv_color.h **** 
 140:Middlewares/lvgl/src/extra/widgets/led/../../../../src/hal/../misc/lv_color.h **** # define LV_COLOR_GET_R8(c) (c).ch.red
 141:Middlewares/lvgl/src/extra/widgets/led/../../../../src/hal/../misc/lv_color.h **** # define LV_COLOR_GET_G8(c) (c).ch.green
 142:Middlewares/lvgl/src/extra/widgets/led/../../../../src/hal/../misc/lv_color.h **** # define LV_COLOR_GET_B8(c) (c).ch.blue
 143:Middlewares/lvgl/src/extra/widgets/led/../../../../src/hal/../misc/lv_color.h **** # define LV_COLOR_GET_A8(c) 0xFF
 144:Middlewares/lvgl/src/extra/widgets/led/../../../../src/hal/../misc/lv_color.h **** 
 145:Middlewares/lvgl/src/extra/widgets/led/../../../../src/hal/../misc/lv_color.h **** # define _LV_COLOR_ZERO_INITIALIZER8 _LV_COLOR_MAKE_TYPE_HELPER {{0x00, 0x00, 0x00}}
 146:Middlewares/lvgl/src/extra/widgets/led/../../../../src/hal/../misc/lv_color.h **** # define LV_COLOR_MAKE8(r8, g8, b8) _LV_COLOR_MAKE_TYPE_HELPER  {{(uint8_t)((b8 >> 6) & 0x3U), (uin
 147:Middlewares/lvgl/src/extra/widgets/led/../../../../src/hal/../misc/lv_color.h **** 
 148:Middlewares/lvgl/src/extra/widgets/led/../../../../src/hal/../misc/lv_color.h **** # define LV_COLOR_SET_R16(c, v) (c).ch.red = (uint8_t)((v) & 0x1FU)
 149:Middlewares/lvgl/src/extra/widgets/led/../../../../src/hal/../misc/lv_color.h **** #if LV_COLOR_16_SWAP == 0
 150:Middlewares/lvgl/src/extra/widgets/led/../../../../src/hal/../misc/lv_color.h **** # define LV_COLOR_SET_G16(c, v) (c).ch.green = (uint8_t)((v) & 0x3FU)
 151:Middlewares/lvgl/src/extra/widgets/led/../../../../src/hal/../misc/lv_color.h **** #else
 152:Middlewares/lvgl/src/extra/widgets/led/../../../../src/hal/../misc/lv_color.h **** # define LV_COLOR_SET_G16(c, v) {(c).ch.green_h = (uint8_t)(((v) >> 3) & 0x7); (c).ch.green_l = (ui
 153:Middlewares/lvgl/src/extra/widgets/led/../../../../src/hal/../misc/lv_color.h **** #endif
 154:Middlewares/lvgl/src/extra/widgets/led/../../../../src/hal/../misc/lv_color.h **** # define LV_COLOR_SET_B16(c, v) (c).ch.blue = (uint8_t)((v) & 0x1FU)
 155:Middlewares/lvgl/src/extra/widgets/led/../../../../src/hal/../misc/lv_color.h **** # define LV_COLOR_SET_A16(c, v) do {} while(0)
 156:Middlewares/lvgl/src/extra/widgets/led/../../../../src/hal/../misc/lv_color.h **** 
 157:Middlewares/lvgl/src/extra/widgets/led/../../../../src/hal/../misc/lv_color.h **** # define LV_COLOR_GET_R16(c) (c).ch.red
 158:Middlewares/lvgl/src/extra/widgets/led/../../../../src/hal/../misc/lv_color.h **** #if LV_COLOR_16_SWAP == 0
 159:Middlewares/lvgl/src/extra/widgets/led/../../../../src/hal/../misc/lv_color.h **** # define LV_COLOR_GET_G16(c) (c).ch.green
 160:Middlewares/lvgl/src/extra/widgets/led/../../../../src/hal/../misc/lv_color.h **** #else
 161:Middlewares/lvgl/src/extra/widgets/led/../../../../src/hal/../misc/lv_color.h **** # define LV_COLOR_GET_G16(c) (((c).ch.green_h << 3) + (c).ch.green_l)
 162:Middlewares/lvgl/src/extra/widgets/led/../../../../src/hal/../misc/lv_color.h **** #endif
 163:Middlewares/lvgl/src/extra/widgets/led/../../../../src/hal/../misc/lv_color.h **** # define LV_COLOR_GET_B16(c) (c).ch.blue
 164:Middlewares/lvgl/src/extra/widgets/led/../../../../src/hal/../misc/lv_color.h **** # define LV_COLOR_GET_A16(c) 0xFF
 165:Middlewares/lvgl/src/extra/widgets/led/../../../../src/hal/../misc/lv_color.h **** 
 166:Middlewares/lvgl/src/extra/widgets/led/../../../../src/hal/../misc/lv_color.h **** #if LV_COLOR_16_SWAP == 0
 167:Middlewares/lvgl/src/extra/widgets/led/../../../../src/hal/../misc/lv_color.h **** # define _LV_COLOR_ZERO_INITIALIZER16  {{0x00, 0x00, 0x00}}
 168:Middlewares/lvgl/src/extra/widgets/led/../../../../src/hal/../misc/lv_color.h **** # define LV_COLOR_MAKE16(r8, g8, b8) {{(uint8_t)((b8 >> 3) & 0x1FU), (uint8_t)((g8 >> 2) & 0x3FU), 
 169:Middlewares/lvgl/src/extra/widgets/led/../../../../src/hal/../misc/lv_color.h **** #else
 170:Middlewares/lvgl/src/extra/widgets/led/../../../../src/hal/../misc/lv_color.h **** # define _LV_COLOR_ZERO_INITIALIZER16 {{0x00, 0x00, 0x00, 0x00}}
 171:Middlewares/lvgl/src/extra/widgets/led/../../../../src/hal/../misc/lv_color.h **** # define LV_COLOR_MAKE16(r8, g8, b8) {{(uint8_t)((g8 >> 5) & 0x7U), (uint8_t)((r8 >> 3) & 0x1FU), (
 172:Middlewares/lvgl/src/extra/widgets/led/../../../../src/hal/../misc/lv_color.h **** #endif
 173:Middlewares/lvgl/src/extra/widgets/led/../../../../src/hal/../misc/lv_color.h **** 
 174:Middlewares/lvgl/src/extra/widgets/led/../../../../src/hal/../misc/lv_color.h **** # define LV_COLOR_SET_R32(c, v) (c).ch.red = (uint8_t)((v) & 0xFF)
 175:Middlewares/lvgl/src/extra/widgets/led/../../../../src/hal/../misc/lv_color.h **** # define LV_COLOR_SET_G32(c, v) (c).ch.green = (uint8_t)((v) & 0xFF)
 176:Middlewares/lvgl/src/extra/widgets/led/../../../../src/hal/../misc/lv_color.h **** # define LV_COLOR_SET_B32(c, v) (c).ch.blue = (uint8_t)((v) & 0xFF)
 177:Middlewares/lvgl/src/extra/widgets/led/../../../../src/hal/../misc/lv_color.h **** # define LV_COLOR_SET_A32(c, v) (c).ch.alpha = (uint8_t)((v) & 0xFF)
 178:Middlewares/lvgl/src/extra/widgets/led/../../../../src/hal/../misc/lv_color.h **** 
 179:Middlewares/lvgl/src/extra/widgets/led/../../../../src/hal/../misc/lv_color.h **** # define LV_COLOR_GET_R32(c) (c).ch.red
 180:Middlewares/lvgl/src/extra/widgets/led/../../../../src/hal/../misc/lv_color.h **** # define LV_COLOR_GET_G32(c) (c).ch.green
 181:Middlewares/lvgl/src/extra/widgets/led/../../../../src/hal/../misc/lv_color.h **** # define LV_COLOR_GET_B32(c) (c).ch.blue
 182:Middlewares/lvgl/src/extra/widgets/led/../../../../src/hal/../misc/lv_color.h **** # define LV_COLOR_GET_A32(c) (c).ch.alpha
 183:Middlewares/lvgl/src/extra/widgets/led/../../../../src/hal/../misc/lv_color.h **** 
 184:Middlewares/lvgl/src/extra/widgets/led/../../../../src/hal/../misc/lv_color.h **** # define _LV_COLOR_ZERO_INITIALIZER32  {{0x00, 0x00, 0x00, 0x00}}
ARM GAS  /tmp/cceKcmvQ.s 			page 11


 185:Middlewares/lvgl/src/extra/widgets/led/../../../../src/hal/../misc/lv_color.h **** # define LV_COLOR_MAKE32(r8, g8, b8) {{b8, g8, r8, 0xff}} /*Fix 0xff alpha*/
 186:Middlewares/lvgl/src/extra/widgets/led/../../../../src/hal/../misc/lv_color.h **** 
 187:Middlewares/lvgl/src/extra/widgets/led/../../../../src/hal/../misc/lv_color.h **** /*---------------------------------------
 188:Middlewares/lvgl/src/extra/widgets/led/../../../../src/hal/../misc/lv_color.h ****  * Macros for the current color depth
 189:Middlewares/lvgl/src/extra/widgets/led/../../../../src/hal/../misc/lv_color.h ****  * to set/get values of the color channels
 190:Middlewares/lvgl/src/extra/widgets/led/../../../../src/hal/../misc/lv_color.h ****  *------------------------------------------*/
 191:Middlewares/lvgl/src/extra/widgets/led/../../../../src/hal/../misc/lv_color.h **** #define LV_COLOR_SET_R(c, v) LV_CONCAT(LV_COLOR_SET_R, LV_COLOR_DEPTH)(c, v)
 192:Middlewares/lvgl/src/extra/widgets/led/../../../../src/hal/../misc/lv_color.h **** #define LV_COLOR_SET_G(c, v) LV_CONCAT(LV_COLOR_SET_G, LV_COLOR_DEPTH)(c, v)
 193:Middlewares/lvgl/src/extra/widgets/led/../../../../src/hal/../misc/lv_color.h **** #define LV_COLOR_SET_B(c, v) LV_CONCAT(LV_COLOR_SET_B, LV_COLOR_DEPTH)(c, v)
 194:Middlewares/lvgl/src/extra/widgets/led/../../../../src/hal/../misc/lv_color.h **** #define LV_COLOR_SET_A(c, v) LV_CONCAT(LV_COLOR_SET_A, LV_COLOR_DEPTH)(c, v)
 195:Middlewares/lvgl/src/extra/widgets/led/../../../../src/hal/../misc/lv_color.h **** 
 196:Middlewares/lvgl/src/extra/widgets/led/../../../../src/hal/../misc/lv_color.h **** #define LV_COLOR_GET_R(c) LV_CONCAT(LV_COLOR_GET_R, LV_COLOR_DEPTH)(c)
 197:Middlewares/lvgl/src/extra/widgets/led/../../../../src/hal/../misc/lv_color.h **** #define LV_COLOR_GET_G(c) LV_CONCAT(LV_COLOR_GET_G, LV_COLOR_DEPTH)(c)
 198:Middlewares/lvgl/src/extra/widgets/led/../../../../src/hal/../misc/lv_color.h **** #define LV_COLOR_GET_B(c) LV_CONCAT(LV_COLOR_GET_B, LV_COLOR_DEPTH)(c)
 199:Middlewares/lvgl/src/extra/widgets/led/../../../../src/hal/../misc/lv_color.h **** #define LV_COLOR_GET_A(c) LV_CONCAT(LV_COLOR_GET_A, LV_COLOR_DEPTH)(c)
 200:Middlewares/lvgl/src/extra/widgets/led/../../../../src/hal/../misc/lv_color.h **** 
 201:Middlewares/lvgl/src/extra/widgets/led/../../../../src/hal/../misc/lv_color.h **** #define _LV_COLOR_ZERO_INITIALIZER LV_CONCAT(_LV_COLOR_ZERO_INITIALIZER, LV_COLOR_DEPTH)
 202:Middlewares/lvgl/src/extra/widgets/led/../../../../src/hal/../misc/lv_color.h **** #define LV_COLOR_MAKE(r8, g8, b8) LV_CONCAT(LV_COLOR_MAKE, LV_COLOR_DEPTH)(r8, g8, b8)
 203:Middlewares/lvgl/src/extra/widgets/led/../../../../src/hal/../misc/lv_color.h **** 
 204:Middlewares/lvgl/src/extra/widgets/led/../../../../src/hal/../misc/lv_color.h **** #define LV_UDIV255(x) ((uint32_t)((uint32_t) (x) * 0x8081) >> 0x17)
 205:Middlewares/lvgl/src/extra/widgets/led/../../../../src/hal/../misc/lv_color.h **** 
 206:Middlewares/lvgl/src/extra/widgets/led/../../../../src/hal/../misc/lv_color.h **** /**********************
 207:Middlewares/lvgl/src/extra/widgets/led/../../../../src/hal/../misc/lv_color.h ****  *      TYPEDEFS
 208:Middlewares/lvgl/src/extra/widgets/led/../../../../src/hal/../misc/lv_color.h ****  **********************/
 209:Middlewares/lvgl/src/extra/widgets/led/../../../../src/hal/../misc/lv_color.h **** 
 210:Middlewares/lvgl/src/extra/widgets/led/../../../../src/hal/../misc/lv_color.h **** typedef union {
 211:Middlewares/lvgl/src/extra/widgets/led/../../../../src/hal/../misc/lv_color.h ****     uint8_t full; /*must be declared first to set all bits of byte via initializer list*/
 212:Middlewares/lvgl/src/extra/widgets/led/../../../../src/hal/../misc/lv_color.h ****     union {
 213:Middlewares/lvgl/src/extra/widgets/led/../../../../src/hal/../misc/lv_color.h ****         uint8_t blue : 1;
 214:Middlewares/lvgl/src/extra/widgets/led/../../../../src/hal/../misc/lv_color.h ****         uint8_t green : 1;
 215:Middlewares/lvgl/src/extra/widgets/led/../../../../src/hal/../misc/lv_color.h ****         uint8_t red : 1;
 216:Middlewares/lvgl/src/extra/widgets/led/../../../../src/hal/../misc/lv_color.h ****     } ch;
 217:Middlewares/lvgl/src/extra/widgets/led/../../../../src/hal/../misc/lv_color.h **** } lv_color1_t;
 218:Middlewares/lvgl/src/extra/widgets/led/../../../../src/hal/../misc/lv_color.h **** 
 219:Middlewares/lvgl/src/extra/widgets/led/../../../../src/hal/../misc/lv_color.h **** typedef union {
 220:Middlewares/lvgl/src/extra/widgets/led/../../../../src/hal/../misc/lv_color.h ****     struct {
 221:Middlewares/lvgl/src/extra/widgets/led/../../../../src/hal/../misc/lv_color.h ****         uint8_t blue : 2;
 222:Middlewares/lvgl/src/extra/widgets/led/../../../../src/hal/../misc/lv_color.h ****         uint8_t green : 3;
 223:Middlewares/lvgl/src/extra/widgets/led/../../../../src/hal/../misc/lv_color.h ****         uint8_t red : 3;
 224:Middlewares/lvgl/src/extra/widgets/led/../../../../src/hal/../misc/lv_color.h ****     } ch;
 225:Middlewares/lvgl/src/extra/widgets/led/../../../../src/hal/../misc/lv_color.h ****     uint8_t full;
 226:Middlewares/lvgl/src/extra/widgets/led/../../../../src/hal/../misc/lv_color.h **** } lv_color8_t;
 227:Middlewares/lvgl/src/extra/widgets/led/../../../../src/hal/../misc/lv_color.h **** 
 228:Middlewares/lvgl/src/extra/widgets/led/../../../../src/hal/../misc/lv_color.h **** typedef union {
 229:Middlewares/lvgl/src/extra/widgets/led/../../../../src/hal/../misc/lv_color.h ****     struct {
 230:Middlewares/lvgl/src/extra/widgets/led/../../../../src/hal/../misc/lv_color.h **** #if LV_COLOR_16_SWAP == 0
 231:Middlewares/lvgl/src/extra/widgets/led/../../../../src/hal/../misc/lv_color.h ****         uint16_t blue : 5;
 232:Middlewares/lvgl/src/extra/widgets/led/../../../../src/hal/../misc/lv_color.h ****         uint16_t green : 6;
 233:Middlewares/lvgl/src/extra/widgets/led/../../../../src/hal/../misc/lv_color.h ****         uint16_t red : 5;
 234:Middlewares/lvgl/src/extra/widgets/led/../../../../src/hal/../misc/lv_color.h **** #else
 235:Middlewares/lvgl/src/extra/widgets/led/../../../../src/hal/../misc/lv_color.h ****         uint16_t green_h : 3;
 236:Middlewares/lvgl/src/extra/widgets/led/../../../../src/hal/../misc/lv_color.h ****         uint16_t red : 5;
 237:Middlewares/lvgl/src/extra/widgets/led/../../../../src/hal/../misc/lv_color.h ****         uint16_t blue : 5;
 238:Middlewares/lvgl/src/extra/widgets/led/../../../../src/hal/../misc/lv_color.h ****         uint16_t green_l : 3;
 239:Middlewares/lvgl/src/extra/widgets/led/../../../../src/hal/../misc/lv_color.h **** #endif
 240:Middlewares/lvgl/src/extra/widgets/led/../../../../src/hal/../misc/lv_color.h ****     } ch;
 241:Middlewares/lvgl/src/extra/widgets/led/../../../../src/hal/../misc/lv_color.h ****     uint16_t full;
ARM GAS  /tmp/cceKcmvQ.s 			page 12


 242:Middlewares/lvgl/src/extra/widgets/led/../../../../src/hal/../misc/lv_color.h **** } lv_color16_t;
 243:Middlewares/lvgl/src/extra/widgets/led/../../../../src/hal/../misc/lv_color.h **** 
 244:Middlewares/lvgl/src/extra/widgets/led/../../../../src/hal/../misc/lv_color.h **** typedef union {
 245:Middlewares/lvgl/src/extra/widgets/led/../../../../src/hal/../misc/lv_color.h ****     struct {
 246:Middlewares/lvgl/src/extra/widgets/led/../../../../src/hal/../misc/lv_color.h ****         uint8_t blue;
 247:Middlewares/lvgl/src/extra/widgets/led/../../../../src/hal/../misc/lv_color.h ****         uint8_t green;
 248:Middlewares/lvgl/src/extra/widgets/led/../../../../src/hal/../misc/lv_color.h ****         uint8_t red;
 249:Middlewares/lvgl/src/extra/widgets/led/../../../../src/hal/../misc/lv_color.h ****         uint8_t alpha;
 250:Middlewares/lvgl/src/extra/widgets/led/../../../../src/hal/../misc/lv_color.h ****     } ch;
 251:Middlewares/lvgl/src/extra/widgets/led/../../../../src/hal/../misc/lv_color.h ****     uint32_t full;
 252:Middlewares/lvgl/src/extra/widgets/led/../../../../src/hal/../misc/lv_color.h **** } lv_color32_t;
 253:Middlewares/lvgl/src/extra/widgets/led/../../../../src/hal/../misc/lv_color.h **** 
 254:Middlewares/lvgl/src/extra/widgets/led/../../../../src/hal/../misc/lv_color.h **** typedef LV_CONCAT3(uint, LV_COLOR_SIZE, _t) lv_color_int_t;
 255:Middlewares/lvgl/src/extra/widgets/led/../../../../src/hal/../misc/lv_color.h **** typedef LV_CONCAT3(lv_color, LV_COLOR_DEPTH, _t) lv_color_t;
 256:Middlewares/lvgl/src/extra/widgets/led/../../../../src/hal/../misc/lv_color.h **** 
 257:Middlewares/lvgl/src/extra/widgets/led/../../../../src/hal/../misc/lv_color.h **** typedef struct {
 258:Middlewares/lvgl/src/extra/widgets/led/../../../../src/hal/../misc/lv_color.h ****     uint16_t h;
 259:Middlewares/lvgl/src/extra/widgets/led/../../../../src/hal/../misc/lv_color.h ****     uint8_t s;
 260:Middlewares/lvgl/src/extra/widgets/led/../../../../src/hal/../misc/lv_color.h ****     uint8_t v;
 261:Middlewares/lvgl/src/extra/widgets/led/../../../../src/hal/../misc/lv_color.h **** } lv_color_hsv_t;
 262:Middlewares/lvgl/src/extra/widgets/led/../../../../src/hal/../misc/lv_color.h **** 
 263:Middlewares/lvgl/src/extra/widgets/led/../../../../src/hal/../misc/lv_color.h **** //! @cond Doxygen_Suppress
 264:Middlewares/lvgl/src/extra/widgets/led/../../../../src/hal/../misc/lv_color.h **** /*No idea where the guard is required but else throws warnings in the docs*/
 265:Middlewares/lvgl/src/extra/widgets/led/../../../../src/hal/../misc/lv_color.h **** typedef uint8_t lv_opa_t;
 266:Middlewares/lvgl/src/extra/widgets/led/../../../../src/hal/../misc/lv_color.h **** //! @endcond
 267:Middlewares/lvgl/src/extra/widgets/led/../../../../src/hal/../misc/lv_color.h **** 
 268:Middlewares/lvgl/src/extra/widgets/led/../../../../src/hal/../misc/lv_color.h **** struct _lv_color_filter_dsc_t;
 269:Middlewares/lvgl/src/extra/widgets/led/../../../../src/hal/../misc/lv_color.h **** 
 270:Middlewares/lvgl/src/extra/widgets/led/../../../../src/hal/../misc/lv_color.h **** typedef lv_color_t (*lv_color_filter_cb_t)(const struct _lv_color_filter_dsc_t *, lv_color_t, lv_op
 271:Middlewares/lvgl/src/extra/widgets/led/../../../../src/hal/../misc/lv_color.h **** 
 272:Middlewares/lvgl/src/extra/widgets/led/../../../../src/hal/../misc/lv_color.h **** typedef struct _lv_color_filter_dsc_t {
 273:Middlewares/lvgl/src/extra/widgets/led/../../../../src/hal/../misc/lv_color.h ****     lv_color_filter_cb_t filter_cb;
 274:Middlewares/lvgl/src/extra/widgets/led/../../../../src/hal/../misc/lv_color.h ****     void * user_data;
 275:Middlewares/lvgl/src/extra/widgets/led/../../../../src/hal/../misc/lv_color.h **** }lv_color_filter_dsc_t;
 276:Middlewares/lvgl/src/extra/widgets/led/../../../../src/hal/../misc/lv_color.h **** 
 277:Middlewares/lvgl/src/extra/widgets/led/../../../../src/hal/../misc/lv_color.h **** 
 278:Middlewares/lvgl/src/extra/widgets/led/../../../../src/hal/../misc/lv_color.h **** typedef enum {
 279:Middlewares/lvgl/src/extra/widgets/led/../../../../src/hal/../misc/lv_color.h ****     LV_PALETTE_RED,
 280:Middlewares/lvgl/src/extra/widgets/led/../../../../src/hal/../misc/lv_color.h ****     LV_PALETTE_PINK,
 281:Middlewares/lvgl/src/extra/widgets/led/../../../../src/hal/../misc/lv_color.h ****     LV_PALETTE_PURPLE,
 282:Middlewares/lvgl/src/extra/widgets/led/../../../../src/hal/../misc/lv_color.h ****     LV_PALETTE_DEEP_PURPLE,
 283:Middlewares/lvgl/src/extra/widgets/led/../../../../src/hal/../misc/lv_color.h ****     LV_PALETTE_INDIGO,
 284:Middlewares/lvgl/src/extra/widgets/led/../../../../src/hal/../misc/lv_color.h ****     LV_PALETTE_BLUE,
 285:Middlewares/lvgl/src/extra/widgets/led/../../../../src/hal/../misc/lv_color.h ****     LV_PALETTE_LIGHT_BLUE,
 286:Middlewares/lvgl/src/extra/widgets/led/../../../../src/hal/../misc/lv_color.h ****     LV_PALETTE_CYAN,
 287:Middlewares/lvgl/src/extra/widgets/led/../../../../src/hal/../misc/lv_color.h ****     LV_PALETTE_TEAL,
 288:Middlewares/lvgl/src/extra/widgets/led/../../../../src/hal/../misc/lv_color.h ****     LV_PALETTE_GREEN,
 289:Middlewares/lvgl/src/extra/widgets/led/../../../../src/hal/../misc/lv_color.h ****     LV_PALETTE_LIGHT_GREEN,
 290:Middlewares/lvgl/src/extra/widgets/led/../../../../src/hal/../misc/lv_color.h ****     LV_PALETTE_LIME,
 291:Middlewares/lvgl/src/extra/widgets/led/../../../../src/hal/../misc/lv_color.h ****     LV_PALETTE_YELLOW,
 292:Middlewares/lvgl/src/extra/widgets/led/../../../../src/hal/../misc/lv_color.h ****     LV_PALETTE_AMBER,
 293:Middlewares/lvgl/src/extra/widgets/led/../../../../src/hal/../misc/lv_color.h ****     LV_PALETTE_ORANGE,
 294:Middlewares/lvgl/src/extra/widgets/led/../../../../src/hal/../misc/lv_color.h ****     LV_PALETTE_DEEP_ORANGE,
 295:Middlewares/lvgl/src/extra/widgets/led/../../../../src/hal/../misc/lv_color.h ****     LV_PALETTE_BROWN,
 296:Middlewares/lvgl/src/extra/widgets/led/../../../../src/hal/../misc/lv_color.h ****     LV_PALETTE_BLUE_GREY,
 297:Middlewares/lvgl/src/extra/widgets/led/../../../../src/hal/../misc/lv_color.h ****     LV_PALETTE_GREY,
 298:Middlewares/lvgl/src/extra/widgets/led/../../../../src/hal/../misc/lv_color.h ****     _LV_PALETTE_LAST,
ARM GAS  /tmp/cceKcmvQ.s 			page 13


 299:Middlewares/lvgl/src/extra/widgets/led/../../../../src/hal/../misc/lv_color.h ****     LV_PALETTE_NONE = 0xff,
 300:Middlewares/lvgl/src/extra/widgets/led/../../../../src/hal/../misc/lv_color.h **** }lv_palette_t;
 301:Middlewares/lvgl/src/extra/widgets/led/../../../../src/hal/../misc/lv_color.h **** 
 302:Middlewares/lvgl/src/extra/widgets/led/../../../../src/hal/../misc/lv_color.h **** /**********************
 303:Middlewares/lvgl/src/extra/widgets/led/../../../../src/hal/../misc/lv_color.h ****  * GLOBAL PROTOTYPES
 304:Middlewares/lvgl/src/extra/widgets/led/../../../../src/hal/../misc/lv_color.h ****  **********************/
 305:Middlewares/lvgl/src/extra/widgets/led/../../../../src/hal/../misc/lv_color.h **** 
 306:Middlewares/lvgl/src/extra/widgets/led/../../../../src/hal/../misc/lv_color.h **** /*In color conversations:
 307:Middlewares/lvgl/src/extra/widgets/led/../../../../src/hal/../misc/lv_color.h ****  * - When converting to bigger color type the LSB weight of 1 LSB is calculated
 308:Middlewares/lvgl/src/extra/widgets/led/../../../../src/hal/../misc/lv_color.h ****  *   E.g. 16 bit Red has 5 bits
 309:Middlewares/lvgl/src/extra/widgets/led/../../../../src/hal/../misc/lv_color.h ****  *         8 bit Red has 3 bits
 310:Middlewares/lvgl/src/extra/widgets/led/../../../../src/hal/../misc/lv_color.h ****  *        ----------------------
 311:Middlewares/lvgl/src/extra/widgets/led/../../../../src/hal/../misc/lv_color.h ****  *        8 bit red LSB = (2^5 - 1) / (2^3 - 1) = 31 / 7 = 4
 312:Middlewares/lvgl/src/extra/widgets/led/../../../../src/hal/../misc/lv_color.h ****  *
 313:Middlewares/lvgl/src/extra/widgets/led/../../../../src/hal/../misc/lv_color.h ****  * - When calculating to smaller color type simply shift out the LSBs
 314:Middlewares/lvgl/src/extra/widgets/led/../../../../src/hal/../misc/lv_color.h ****  *   E.g.  8 bit Red has 3 bits
 315:Middlewares/lvgl/src/extra/widgets/led/../../../../src/hal/../misc/lv_color.h ****  *        16 bit Red has 5 bits
 316:Middlewares/lvgl/src/extra/widgets/led/../../../../src/hal/../misc/lv_color.h ****  *        ----------------------
 317:Middlewares/lvgl/src/extra/widgets/led/../../../../src/hal/../misc/lv_color.h ****  *         Shift right with 5 - 3 = 2
 318:Middlewares/lvgl/src/extra/widgets/led/../../../../src/hal/../misc/lv_color.h ****  */
 319:Middlewares/lvgl/src/extra/widgets/led/../../../../src/hal/../misc/lv_color.h **** static inline uint8_t lv_color_to1(lv_color_t color)
 320:Middlewares/lvgl/src/extra/widgets/led/../../../../src/hal/../misc/lv_color.h **** {
 321:Middlewares/lvgl/src/extra/widgets/led/../../../../src/hal/../misc/lv_color.h **** #if LV_COLOR_DEPTH == 1
 322:Middlewares/lvgl/src/extra/widgets/led/../../../../src/hal/../misc/lv_color.h ****     return color.full;
 323:Middlewares/lvgl/src/extra/widgets/led/../../../../src/hal/../misc/lv_color.h **** #elif LV_COLOR_DEPTH == 8
 324:Middlewares/lvgl/src/extra/widgets/led/../../../../src/hal/../misc/lv_color.h ****     if((LV_COLOR_GET_R(color) & 0x4) || (LV_COLOR_GET_G(color) & 0x4) || (LV_COLOR_GET_B(color) & 0
 325:Middlewares/lvgl/src/extra/widgets/led/../../../../src/hal/../misc/lv_color.h ****         return 1;
 326:Middlewares/lvgl/src/extra/widgets/led/../../../../src/hal/../misc/lv_color.h ****     }
 327:Middlewares/lvgl/src/extra/widgets/led/../../../../src/hal/../misc/lv_color.h ****     else {
 328:Middlewares/lvgl/src/extra/widgets/led/../../../../src/hal/../misc/lv_color.h ****         return 0;
 329:Middlewares/lvgl/src/extra/widgets/led/../../../../src/hal/../misc/lv_color.h ****     }
 330:Middlewares/lvgl/src/extra/widgets/led/../../../../src/hal/../misc/lv_color.h **** #elif LV_COLOR_DEPTH == 16
 331:Middlewares/lvgl/src/extra/widgets/led/../../../../src/hal/../misc/lv_color.h ****     if((LV_COLOR_GET_R(color) & 0x10) || (LV_COLOR_GET_G(color) & 0x20) || (LV_COLOR_GET_B(color) &
 332:Middlewares/lvgl/src/extra/widgets/led/../../../../src/hal/../misc/lv_color.h ****         return 1;
 333:Middlewares/lvgl/src/extra/widgets/led/../../../../src/hal/../misc/lv_color.h ****     }
 334:Middlewares/lvgl/src/extra/widgets/led/../../../../src/hal/../misc/lv_color.h ****     else {
 335:Middlewares/lvgl/src/extra/widgets/led/../../../../src/hal/../misc/lv_color.h ****         return 0;
 336:Middlewares/lvgl/src/extra/widgets/led/../../../../src/hal/../misc/lv_color.h ****     }
 337:Middlewares/lvgl/src/extra/widgets/led/../../../../src/hal/../misc/lv_color.h **** #elif LV_COLOR_DEPTH == 32
 338:Middlewares/lvgl/src/extra/widgets/led/../../../../src/hal/../misc/lv_color.h ****     if((LV_COLOR_GET_R(color) & 0x80) || (LV_COLOR_GET_G(color) & 0x80) || (LV_COLOR_GET_B(color) &
 339:Middlewares/lvgl/src/extra/widgets/led/../../../../src/hal/../misc/lv_color.h ****         return 1;
 340:Middlewares/lvgl/src/extra/widgets/led/../../../../src/hal/../misc/lv_color.h ****     }
 341:Middlewares/lvgl/src/extra/widgets/led/../../../../src/hal/../misc/lv_color.h ****     else {
 342:Middlewares/lvgl/src/extra/widgets/led/../../../../src/hal/../misc/lv_color.h ****         return 0;
 343:Middlewares/lvgl/src/extra/widgets/led/../../../../src/hal/../misc/lv_color.h ****     }
 344:Middlewares/lvgl/src/extra/widgets/led/../../../../src/hal/../misc/lv_color.h **** #endif
 345:Middlewares/lvgl/src/extra/widgets/led/../../../../src/hal/../misc/lv_color.h **** }
 346:Middlewares/lvgl/src/extra/widgets/led/../../../../src/hal/../misc/lv_color.h **** 
 347:Middlewares/lvgl/src/extra/widgets/led/../../../../src/hal/../misc/lv_color.h **** static inline uint8_t lv_color_to8(lv_color_t color)
 348:Middlewares/lvgl/src/extra/widgets/led/../../../../src/hal/../misc/lv_color.h **** {
 349:Middlewares/lvgl/src/extra/widgets/led/../../../../src/hal/../misc/lv_color.h **** #if LV_COLOR_DEPTH == 1
 350:Middlewares/lvgl/src/extra/widgets/led/../../../../src/hal/../misc/lv_color.h ****     if(color.full == 0)
 351:Middlewares/lvgl/src/extra/widgets/led/../../../../src/hal/../misc/lv_color.h ****         return 0;
 352:Middlewares/lvgl/src/extra/widgets/led/../../../../src/hal/../misc/lv_color.h ****     else
 353:Middlewares/lvgl/src/extra/widgets/led/../../../../src/hal/../misc/lv_color.h ****         return 0xFF;
 354:Middlewares/lvgl/src/extra/widgets/led/../../../../src/hal/../misc/lv_color.h **** #elif LV_COLOR_DEPTH == 8
 355:Middlewares/lvgl/src/extra/widgets/led/../../../../src/hal/../misc/lv_color.h ****     return color.full;
ARM GAS  /tmp/cceKcmvQ.s 			page 14


 356:Middlewares/lvgl/src/extra/widgets/led/../../../../src/hal/../misc/lv_color.h **** #elif LV_COLOR_DEPTH == 16
 357:Middlewares/lvgl/src/extra/widgets/led/../../../../src/hal/../misc/lv_color.h ****     lv_color8_t ret;
 358:Middlewares/lvgl/src/extra/widgets/led/../../../../src/hal/../misc/lv_color.h ****     LV_COLOR_SET_R8(ret, LV_COLOR_GET_R(color) >> 2); /*5 - 3  = 2*/
 359:Middlewares/lvgl/src/extra/widgets/led/../../../../src/hal/../misc/lv_color.h ****     LV_COLOR_SET_G8(ret, LV_COLOR_GET_G(color) >> 3); /*6 - 3  = 3*/
 360:Middlewares/lvgl/src/extra/widgets/led/../../../../src/hal/../misc/lv_color.h ****     LV_COLOR_SET_B8(ret, LV_COLOR_GET_B(color) >> 3); /*5 - 2  = 3*/
 361:Middlewares/lvgl/src/extra/widgets/led/../../../../src/hal/../misc/lv_color.h ****     return ret.full;
 362:Middlewares/lvgl/src/extra/widgets/led/../../../../src/hal/../misc/lv_color.h **** #elif LV_COLOR_DEPTH == 32
 363:Middlewares/lvgl/src/extra/widgets/led/../../../../src/hal/../misc/lv_color.h ****     lv_color8_t ret;
 364:Middlewares/lvgl/src/extra/widgets/led/../../../../src/hal/../misc/lv_color.h ****     LV_COLOR_SET_R8(ret, LV_COLOR_GET_R(color) >> 5); /*8 - 3  = 5*/
 365:Middlewares/lvgl/src/extra/widgets/led/../../../../src/hal/../misc/lv_color.h ****     LV_COLOR_SET_G8(ret, LV_COLOR_GET_G(color) >> 5); /*8 - 3  = 5*/
 366:Middlewares/lvgl/src/extra/widgets/led/../../../../src/hal/../misc/lv_color.h ****     LV_COLOR_SET_B8(ret, LV_COLOR_GET_B(color) >> 6); /*8 - 2  = 6*/
 367:Middlewares/lvgl/src/extra/widgets/led/../../../../src/hal/../misc/lv_color.h ****     return ret.full;
 368:Middlewares/lvgl/src/extra/widgets/led/../../../../src/hal/../misc/lv_color.h **** #endif
 369:Middlewares/lvgl/src/extra/widgets/led/../../../../src/hal/../misc/lv_color.h **** }
 370:Middlewares/lvgl/src/extra/widgets/led/../../../../src/hal/../misc/lv_color.h **** 
 371:Middlewares/lvgl/src/extra/widgets/led/../../../../src/hal/../misc/lv_color.h **** static inline uint16_t lv_color_to16(lv_color_t color)
 372:Middlewares/lvgl/src/extra/widgets/led/../../../../src/hal/../misc/lv_color.h **** {
 373:Middlewares/lvgl/src/extra/widgets/led/../../../../src/hal/../misc/lv_color.h **** #if LV_COLOR_DEPTH == 1
 374:Middlewares/lvgl/src/extra/widgets/led/../../../../src/hal/../misc/lv_color.h ****     if(color.full == 0)
 375:Middlewares/lvgl/src/extra/widgets/led/../../../../src/hal/../misc/lv_color.h ****         return 0;
 376:Middlewares/lvgl/src/extra/widgets/led/../../../../src/hal/../misc/lv_color.h ****     else
 377:Middlewares/lvgl/src/extra/widgets/led/../../../../src/hal/../misc/lv_color.h ****         return 0xFFFF;
 378:Middlewares/lvgl/src/extra/widgets/led/../../../../src/hal/../misc/lv_color.h **** #elif LV_COLOR_DEPTH == 8
 379:Middlewares/lvgl/src/extra/widgets/led/../../../../src/hal/../misc/lv_color.h ****     lv_color16_t ret;
 380:Middlewares/lvgl/src/extra/widgets/led/../../../../src/hal/../misc/lv_color.h ****     LV_COLOR_SET_R16(ret, LV_COLOR_GET_R(color) * 4);  /*(2^5 - 1)/(2^3 - 1) = 31/7 = 4*/
 381:Middlewares/lvgl/src/extra/widgets/led/../../../../src/hal/../misc/lv_color.h ****     LV_COLOR_SET_G16(ret, LV_COLOR_GET_G(color) * 9);  /*(2^6 - 1)/(2^3 - 1) = 63/7 = 9*/
 382:Middlewares/lvgl/src/extra/widgets/led/../../../../src/hal/../misc/lv_color.h ****     LV_COLOR_SET_B16(ret, LV_COLOR_GET_B(color) * 10); /*(2^5 - 1)/(2^2 - 1) = 31/3 = 10*/
 383:Middlewares/lvgl/src/extra/widgets/led/../../../../src/hal/../misc/lv_color.h ****     return ret.full;
 384:Middlewares/lvgl/src/extra/widgets/led/../../../../src/hal/../misc/lv_color.h **** #elif LV_COLOR_DEPTH == 16
 385:Middlewares/lvgl/src/extra/widgets/led/../../../../src/hal/../misc/lv_color.h ****     return color.full;
 386:Middlewares/lvgl/src/extra/widgets/led/../../../../src/hal/../misc/lv_color.h **** #elif LV_COLOR_DEPTH == 32
 387:Middlewares/lvgl/src/extra/widgets/led/../../../../src/hal/../misc/lv_color.h ****     lv_color16_t ret;
 388:Middlewares/lvgl/src/extra/widgets/led/../../../../src/hal/../misc/lv_color.h ****     LV_COLOR_SET_R16(ret, LV_COLOR_GET_R(color) >> 3); /*8 - 5  = 3*/
 389:Middlewares/lvgl/src/extra/widgets/led/../../../../src/hal/../misc/lv_color.h ****     LV_COLOR_SET_G16(ret, LV_COLOR_GET_G(color) >> 2); /*8 - 6  = 2*/
 390:Middlewares/lvgl/src/extra/widgets/led/../../../../src/hal/../misc/lv_color.h ****     LV_COLOR_SET_B16(ret, LV_COLOR_GET_B(color) >> 3); /*8 - 5  = 3*/
 391:Middlewares/lvgl/src/extra/widgets/led/../../../../src/hal/../misc/lv_color.h ****     return ret.full;
 392:Middlewares/lvgl/src/extra/widgets/led/../../../../src/hal/../misc/lv_color.h **** #endif
 393:Middlewares/lvgl/src/extra/widgets/led/../../../../src/hal/../misc/lv_color.h **** }
 394:Middlewares/lvgl/src/extra/widgets/led/../../../../src/hal/../misc/lv_color.h **** 
 395:Middlewares/lvgl/src/extra/widgets/led/../../../../src/hal/../misc/lv_color.h **** static inline uint32_t lv_color_to32(lv_color_t color)
 396:Middlewares/lvgl/src/extra/widgets/led/../../../../src/hal/../misc/lv_color.h **** {
 397:Middlewares/lvgl/src/extra/widgets/led/../../../../src/hal/../misc/lv_color.h **** #if LV_COLOR_DEPTH == 1
 398:Middlewares/lvgl/src/extra/widgets/led/../../../../src/hal/../misc/lv_color.h ****     if(color.full == 0)
 399:Middlewares/lvgl/src/extra/widgets/led/../../../../src/hal/../misc/lv_color.h ****         return 0xFF000000;
 400:Middlewares/lvgl/src/extra/widgets/led/../../../../src/hal/../misc/lv_color.h ****     else
 401:Middlewares/lvgl/src/extra/widgets/led/../../../../src/hal/../misc/lv_color.h ****         return 0xFFFFFFFF;
 402:Middlewares/lvgl/src/extra/widgets/led/../../../../src/hal/../misc/lv_color.h **** #elif LV_COLOR_DEPTH == 8
 403:Middlewares/lvgl/src/extra/widgets/led/../../../../src/hal/../misc/lv_color.h ****     lv_color32_t ret;
 404:Middlewares/lvgl/src/extra/widgets/led/../../../../src/hal/../misc/lv_color.h ****     LV_COLOR_SET_R32(ret, LV_COLOR_GET_R(color) * 36); /*(2^8 - 1)/(2^3 - 1) = 255/7 = 36*/
 405:Middlewares/lvgl/src/extra/widgets/led/../../../../src/hal/../misc/lv_color.h ****     LV_COLOR_SET_G32(ret, LV_COLOR_GET_G(color) * 36); /*(2^8 - 1)/(2^3 - 1) = 255/7 = 36*/
 406:Middlewares/lvgl/src/extra/widgets/led/../../../../src/hal/../misc/lv_color.h ****     LV_COLOR_SET_B32(ret, LV_COLOR_GET_B(color) * 85); /*(2^8 - 1)/(2^2 - 1) = 255/3 = 85*/
 407:Middlewares/lvgl/src/extra/widgets/led/../../../../src/hal/../misc/lv_color.h ****     LV_COLOR_SET_A32(ret, 0xFF);
 408:Middlewares/lvgl/src/extra/widgets/led/../../../../src/hal/../misc/lv_color.h ****     return ret.full;
 409:Middlewares/lvgl/src/extra/widgets/led/../../../../src/hal/../misc/lv_color.h **** #elif LV_COLOR_DEPTH == 16
 410:Middlewares/lvgl/src/extra/widgets/led/../../../../src/hal/../misc/lv_color.h ****     /**
 411:Middlewares/lvgl/src/extra/widgets/led/../../../../src/hal/../misc/lv_color.h ****      * The floating point math for conversion is:
 412:Middlewares/lvgl/src/extra/widgets/led/../../../../src/hal/../misc/lv_color.h ****      *  valueto = valuefrom * ( (2^bitsto - 1) / (float)(2^bitsfrom - 1) )
ARM GAS  /tmp/cceKcmvQ.s 			page 15


 413:Middlewares/lvgl/src/extra/widgets/led/../../../../src/hal/../misc/lv_color.h ****      * The faster integer math for conversion is:
 414:Middlewares/lvgl/src/extra/widgets/led/../../../../src/hal/../misc/lv_color.h ****      *  valueto = ( valuefrom * multiplier + adder ) >> divisor
 415:Middlewares/lvgl/src/extra/widgets/led/../../../../src/hal/../misc/lv_color.h ****      *   multiplier = FLOOR( ( (2^bitsto - 1) << divisor ) / (float)(2^bitsfrom - 1) )
 416:Middlewares/lvgl/src/extra/widgets/led/../../../../src/hal/../misc/lv_color.h ****      *
 417:Middlewares/lvgl/src/extra/widgets/led/../../../../src/hal/../misc/lv_color.h ****      * Find the first divisor where ( adder >> divisor ) <= 0
 418:Middlewares/lvgl/src/extra/widgets/led/../../../../src/hal/../misc/lv_color.h ****      *
 419:Middlewares/lvgl/src/extra/widgets/led/../../../../src/hal/../misc/lv_color.h ****      * 5-bit to 8-bit: ( 31 * multiplier + adder ) >> divisor = 255
 420:Middlewares/lvgl/src/extra/widgets/led/../../../../src/hal/../misc/lv_color.h ****      * divisor  multiplier  adder  min (0)  max (31)
 421:Middlewares/lvgl/src/extra/widgets/led/../../../../src/hal/../misc/lv_color.h ****      *       0           8      7        7       255
 422:Middlewares/lvgl/src/extra/widgets/led/../../../../src/hal/../misc/lv_color.h ****      *       1          16     14        7       255
 423:Middlewares/lvgl/src/extra/widgets/led/../../../../src/hal/../misc/lv_color.h ****      *       2          32     28        7       255
 424:Middlewares/lvgl/src/extra/widgets/led/../../../../src/hal/../misc/lv_color.h ****      *       3          65     25        3       255
 425:Middlewares/lvgl/src/extra/widgets/led/../../../../src/hal/../misc/lv_color.h ****      *       4         131     19        1       255
 426:Middlewares/lvgl/src/extra/widgets/led/../../../../src/hal/../misc/lv_color.h ****      *       5         263      7        0       255
 427:Middlewares/lvgl/src/extra/widgets/led/../../../../src/hal/../misc/lv_color.h ****      *
 428:Middlewares/lvgl/src/extra/widgets/led/../../../../src/hal/../misc/lv_color.h ****      * 6-bit to 8-bit: 255 = ( 63 * multiplier + adder ) >> divisor
 429:Middlewares/lvgl/src/extra/widgets/led/../../../../src/hal/../misc/lv_color.h ****      * divisor  multiplier  adder  min (0)  max (63)
 430:Middlewares/lvgl/src/extra/widgets/led/../../../../src/hal/../misc/lv_color.h ****      *       0           4      3        3       255
 431:Middlewares/lvgl/src/extra/widgets/led/../../../../src/hal/../misc/lv_color.h ****      *       1           8      6        3       255
 432:Middlewares/lvgl/src/extra/widgets/led/../../../../src/hal/../misc/lv_color.h ****      *       2          16     12        3       255
 433:Middlewares/lvgl/src/extra/widgets/led/../../../../src/hal/../misc/lv_color.h ****      *       3          32     24        3       255
 434:Middlewares/lvgl/src/extra/widgets/led/../../../../src/hal/../misc/lv_color.h ****      *       4          64     48        3       255
 435:Middlewares/lvgl/src/extra/widgets/led/../../../../src/hal/../misc/lv_color.h ****      *       5         129     33        1       255
 436:Middlewares/lvgl/src/extra/widgets/led/../../../../src/hal/../misc/lv_color.h ****      *       6         259      3        0       255
 437:Middlewares/lvgl/src/extra/widgets/led/../../../../src/hal/../misc/lv_color.h ****      */
 438:Middlewares/lvgl/src/extra/widgets/led/../../../../src/hal/../misc/lv_color.h **** 
 439:Middlewares/lvgl/src/extra/widgets/led/../../../../src/hal/../misc/lv_color.h ****     lv_color32_t ret;
 440:Middlewares/lvgl/src/extra/widgets/led/../../../../src/hal/../misc/lv_color.h ****     LV_COLOR_SET_R32(ret, (LV_COLOR_GET_R(color) * 263 + 7) >> 5);
 441:Middlewares/lvgl/src/extra/widgets/led/../../../../src/hal/../misc/lv_color.h ****     LV_COLOR_SET_G32(ret, (LV_COLOR_GET_G(color) * 259 + 3) >> 6);
 442:Middlewares/lvgl/src/extra/widgets/led/../../../../src/hal/../misc/lv_color.h ****     LV_COLOR_SET_B32(ret, (LV_COLOR_GET_B(color) * 263 + 7) >> 5);
 443:Middlewares/lvgl/src/extra/widgets/led/../../../../src/hal/../misc/lv_color.h ****     LV_COLOR_SET_A32(ret, 0xFF);
 444:Middlewares/lvgl/src/extra/widgets/led/../../../../src/hal/../misc/lv_color.h ****     return ret.full;
 445:Middlewares/lvgl/src/extra/widgets/led/../../../../src/hal/../misc/lv_color.h **** #elif LV_COLOR_DEPTH == 32
 446:Middlewares/lvgl/src/extra/widgets/led/../../../../src/hal/../misc/lv_color.h ****     return color.full;
 447:Middlewares/lvgl/src/extra/widgets/led/../../../../src/hal/../misc/lv_color.h **** #endif
 448:Middlewares/lvgl/src/extra/widgets/led/../../../../src/hal/../misc/lv_color.h **** }
 449:Middlewares/lvgl/src/extra/widgets/led/../../../../src/hal/../misc/lv_color.h **** 
 450:Middlewares/lvgl/src/extra/widgets/led/../../../../src/hal/../misc/lv_color.h **** //! @cond Doxygen_Suppress
 451:Middlewares/lvgl/src/extra/widgets/led/../../../../src/hal/../misc/lv_color.h **** 
 452:Middlewares/lvgl/src/extra/widgets/led/../../../../src/hal/../misc/lv_color.h **** /**
 453:Middlewares/lvgl/src/extra/widgets/led/../../../../src/hal/../misc/lv_color.h ****  * Mix two colors with a given ratio.
 454:Middlewares/lvgl/src/extra/widgets/led/../../../../src/hal/../misc/lv_color.h ****  * @param c1 the first color to mix (usually the foreground)
 455:Middlewares/lvgl/src/extra/widgets/led/../../../../src/hal/../misc/lv_color.h ****  * @param c2 the second color to mix (usually the background)
 456:Middlewares/lvgl/src/extra/widgets/led/../../../../src/hal/../misc/lv_color.h ****  * @param mix The ratio of the colors. 0: full `c2`, 255: full `c1`, 127: half `c1` and half`c2`
 457:Middlewares/lvgl/src/extra/widgets/led/../../../../src/hal/../misc/lv_color.h ****  * @return the mixed color
 458:Middlewares/lvgl/src/extra/widgets/led/../../../../src/hal/../misc/lv_color.h ****  */
 459:Middlewares/lvgl/src/extra/widgets/led/../../../../src/hal/../misc/lv_color.h **** LV_ATTRIBUTE_FAST_MEM static inline lv_color_t lv_color_mix(lv_color_t c1, lv_color_t c2, uint8_t m
 460:Middlewares/lvgl/src/extra/widgets/led/../../../../src/hal/../misc/lv_color.h **** {
 461:Middlewares/lvgl/src/extra/widgets/led/../../../../src/hal/../misc/lv_color.h ****     lv_color_t ret;
 462:Middlewares/lvgl/src/extra/widgets/led/../../../../src/hal/../misc/lv_color.h **** #if LV_COLOR_DEPTH != 1
 463:Middlewares/lvgl/src/extra/widgets/led/../../../../src/hal/../misc/lv_color.h ****     /*LV_COLOR_DEPTH == 8, 16 or 32*/
 464:Middlewares/lvgl/src/extra/widgets/led/../../../../src/hal/../misc/lv_color.h ****     LV_COLOR_SET_R(ret, LV_UDIV255((uint16_t) LV_COLOR_GET_R(c1) * mix + LV_COLOR_GET_R(c2) *
 465:Middlewares/lvgl/src/extra/widgets/led/../../../../src/hal/../misc/lv_color.h ****                                         (255 - mix) + LV_COLOR_MIX_ROUND_OFS));
 466:Middlewares/lvgl/src/extra/widgets/led/../../../../src/hal/../misc/lv_color.h ****     LV_COLOR_SET_G(ret, LV_UDIV255((uint16_t) LV_COLOR_GET_G(c1) * mix + LV_COLOR_GET_G(c2) *
 467:Middlewares/lvgl/src/extra/widgets/led/../../../../src/hal/../misc/lv_color.h ****                                         (255 - mix) + LV_COLOR_MIX_ROUND_OFS));
 468:Middlewares/lvgl/src/extra/widgets/led/../../../../src/hal/../misc/lv_color.h ****     LV_COLOR_SET_B(ret, LV_UDIV255((uint16_t) LV_COLOR_GET_B(c1) * mix + LV_COLOR_GET_B(c2) *
 469:Middlewares/lvgl/src/extra/widgets/led/../../../../src/hal/../misc/lv_color.h ****                                         (255 - mix) + LV_COLOR_MIX_ROUND_OFS));
ARM GAS  /tmp/cceKcmvQ.s 			page 16


 470:Middlewares/lvgl/src/extra/widgets/led/../../../../src/hal/../misc/lv_color.h ****     LV_COLOR_SET_A(ret, 0xFF);
 471:Middlewares/lvgl/src/extra/widgets/led/../../../../src/hal/../misc/lv_color.h **** #else
 472:Middlewares/lvgl/src/extra/widgets/led/../../../../src/hal/../misc/lv_color.h ****     /*LV_COLOR_DEPTH == 1*/
 473:Middlewares/lvgl/src/extra/widgets/led/../../../../src/hal/../misc/lv_color.h ****     ret.full = mix > LV_OPA_50 ? c1.full : c2.full;
 474:Middlewares/lvgl/src/extra/widgets/led/../../../../src/hal/../misc/lv_color.h **** #endif
 475:Middlewares/lvgl/src/extra/widgets/led/../../../../src/hal/../misc/lv_color.h **** 
 476:Middlewares/lvgl/src/extra/widgets/led/../../../../src/hal/../misc/lv_color.h ****     return ret;
 477:Middlewares/lvgl/src/extra/widgets/led/../../../../src/hal/../misc/lv_color.h **** }
 478:Middlewares/lvgl/src/extra/widgets/led/../../../../src/hal/../misc/lv_color.h **** 
 479:Middlewares/lvgl/src/extra/widgets/led/../../../../src/hal/../misc/lv_color.h **** LV_ATTRIBUTE_FAST_MEM static inline void lv_color_premult(lv_color_t c, uint8_t mix, uint16_t * out
 480:Middlewares/lvgl/src/extra/widgets/led/../../../../src/hal/../misc/lv_color.h **** {
 481:Middlewares/lvgl/src/extra/widgets/led/../../../../src/hal/../misc/lv_color.h **** #if LV_COLOR_DEPTH != 1
 482:Middlewares/lvgl/src/extra/widgets/led/../../../../src/hal/../misc/lv_color.h ****     out[0] = (uint16_t) LV_COLOR_GET_R(c) * mix;
 483:Middlewares/lvgl/src/extra/widgets/led/../../../../src/hal/../misc/lv_color.h ****     out[1] = (uint16_t) LV_COLOR_GET_G(c) * mix;
 484:Middlewares/lvgl/src/extra/widgets/led/../../../../src/hal/../misc/lv_color.h ****     out[2] = (uint16_t) LV_COLOR_GET_B(c) * mix;
 485:Middlewares/lvgl/src/extra/widgets/led/../../../../src/hal/../misc/lv_color.h **** #else
 486:Middlewares/lvgl/src/extra/widgets/led/../../../../src/hal/../misc/lv_color.h ****     (void) mix;
 487:Middlewares/lvgl/src/extra/widgets/led/../../../../src/hal/../misc/lv_color.h ****     /*Pre-multiplication can't be used with 1 bpp*/
 488:Middlewares/lvgl/src/extra/widgets/led/../../../../src/hal/../misc/lv_color.h ****     out[0] = LV_COLOR_GET_R(c);
 489:Middlewares/lvgl/src/extra/widgets/led/../../../../src/hal/../misc/lv_color.h ****     out[1] = LV_COLOR_GET_G(c);
 490:Middlewares/lvgl/src/extra/widgets/led/../../../../src/hal/../misc/lv_color.h ****     out[2] = LV_COLOR_GET_B(c);
 491:Middlewares/lvgl/src/extra/widgets/led/../../../../src/hal/../misc/lv_color.h **** #endif
 492:Middlewares/lvgl/src/extra/widgets/led/../../../../src/hal/../misc/lv_color.h **** 
 493:Middlewares/lvgl/src/extra/widgets/led/../../../../src/hal/../misc/lv_color.h **** }
 494:Middlewares/lvgl/src/extra/widgets/led/../../../../src/hal/../misc/lv_color.h **** 
 495:Middlewares/lvgl/src/extra/widgets/led/../../../../src/hal/../misc/lv_color.h **** /**
 496:Middlewares/lvgl/src/extra/widgets/led/../../../../src/hal/../misc/lv_color.h ****  * Mix two colors with a given ratio. It runs faster then `lv_color_mix` but requires some pre comp
 497:Middlewares/lvgl/src/extra/widgets/led/../../../../src/hal/../misc/lv_color.h ****  * @param premult_c1 The first color. Should be preprocessed with `lv_color_premult(c1)`
 498:Middlewares/lvgl/src/extra/widgets/led/../../../../src/hal/../misc/lv_color.h ****  * @param c2 The second color. As it is no pre computation required on it
 499:Middlewares/lvgl/src/extra/widgets/led/../../../../src/hal/../misc/lv_color.h ****  * @param mix The ratio of the colors. 0: full `c1`, 255: full `c2`, 127: half `c1` and half `c2`.
 500:Middlewares/lvgl/src/extra/widgets/led/../../../../src/hal/../misc/lv_color.h ****  *            Should be modified like mix = `255 - mix`
 501:Middlewares/lvgl/src/extra/widgets/led/../../../../src/hal/../misc/lv_color.h ****  * @return the mixed color
 502:Middlewares/lvgl/src/extra/widgets/led/../../../../src/hal/../misc/lv_color.h ****  * @note 255 won't give clearly `c1`.
 503:Middlewares/lvgl/src/extra/widgets/led/../../../../src/hal/../misc/lv_color.h ****  */
 504:Middlewares/lvgl/src/extra/widgets/led/../../../../src/hal/../misc/lv_color.h **** LV_ATTRIBUTE_FAST_MEM static inline lv_color_t lv_color_mix_premult(uint16_t * premult_c1, lv_color
 505:Middlewares/lvgl/src/extra/widgets/led/../../../../src/hal/../misc/lv_color.h **** {
 506:Middlewares/lvgl/src/extra/widgets/led/../../../../src/hal/../misc/lv_color.h ****     lv_color_t ret;
 507:Middlewares/lvgl/src/extra/widgets/led/../../../../src/hal/../misc/lv_color.h **** #if LV_COLOR_DEPTH != 1
 508:Middlewares/lvgl/src/extra/widgets/led/../../../../src/hal/../misc/lv_color.h ****     /*LV_COLOR_DEPTH == 8, 16 or 32*/
 509:Middlewares/lvgl/src/extra/widgets/led/../../../../src/hal/../misc/lv_color.h ****     LV_COLOR_SET_R(ret, LV_UDIV255(premult_c1[0] + LV_COLOR_GET_R(c2) * mix + LV_COLOR_MIX_ROUND_OF
 510:Middlewares/lvgl/src/extra/widgets/led/../../../../src/hal/../misc/lv_color.h ****     LV_COLOR_SET_G(ret, LV_UDIV255(premult_c1[1] + LV_COLOR_GET_G(c2) * mix + LV_COLOR_MIX_ROUND_OF
 511:Middlewares/lvgl/src/extra/widgets/led/../../../../src/hal/../misc/lv_color.h ****     LV_COLOR_SET_B(ret, LV_UDIV255(premult_c1[2] + LV_COLOR_GET_B(c2) * mix + LV_COLOR_MIX_ROUND_OF
 512:Middlewares/lvgl/src/extra/widgets/led/../../../../src/hal/../misc/lv_color.h ****     LV_COLOR_SET_A(ret, 0xFF);
 513:Middlewares/lvgl/src/extra/widgets/led/../../../../src/hal/../misc/lv_color.h **** #else
 514:Middlewares/lvgl/src/extra/widgets/led/../../../../src/hal/../misc/lv_color.h ****     /*LV_COLOR_DEPTH == 1*/
 515:Middlewares/lvgl/src/extra/widgets/led/../../../../src/hal/../misc/lv_color.h ****     /*Restore color1*/
 516:Middlewares/lvgl/src/extra/widgets/led/../../../../src/hal/../misc/lv_color.h ****     lv_color_t c1;
 517:Middlewares/lvgl/src/extra/widgets/led/../../../../src/hal/../misc/lv_color.h ****     LV_COLOR_SET_R(c1, premult_c1[0]);
 518:Middlewares/lvgl/src/extra/widgets/led/../../../../src/hal/../misc/lv_color.h ****     LV_COLOR_SET_G(c1, premult_c1[1]);
 519:Middlewares/lvgl/src/extra/widgets/led/../../../../src/hal/../misc/lv_color.h ****     LV_COLOR_SET_B(c1, premult_c1[2]);
 520:Middlewares/lvgl/src/extra/widgets/led/../../../../src/hal/../misc/lv_color.h ****     ret.full = mix > LV_OPA_50 ? c2.full : c1.full;
 521:Middlewares/lvgl/src/extra/widgets/led/../../../../src/hal/../misc/lv_color.h **** #endif
 522:Middlewares/lvgl/src/extra/widgets/led/../../../../src/hal/../misc/lv_color.h **** 
 523:Middlewares/lvgl/src/extra/widgets/led/../../../../src/hal/../misc/lv_color.h ****     return ret;
 524:Middlewares/lvgl/src/extra/widgets/led/../../../../src/hal/../misc/lv_color.h **** }
 525:Middlewares/lvgl/src/extra/widgets/led/../../../../src/hal/../misc/lv_color.h **** 
 526:Middlewares/lvgl/src/extra/widgets/led/../../../../src/hal/../misc/lv_color.h **** /**
ARM GAS  /tmp/cceKcmvQ.s 			page 17


 527:Middlewares/lvgl/src/extra/widgets/led/../../../../src/hal/../misc/lv_color.h ****  * Mix two colors. Both color can have alpha value.
 528:Middlewares/lvgl/src/extra/widgets/led/../../../../src/hal/../misc/lv_color.h ****  * @param bg_color background color
 529:Middlewares/lvgl/src/extra/widgets/led/../../../../src/hal/../misc/lv_color.h ****  * @param bg_opa alpha of the background color
 530:Middlewares/lvgl/src/extra/widgets/led/../../../../src/hal/../misc/lv_color.h ****  * @param fg_color foreground color
 531:Middlewares/lvgl/src/extra/widgets/led/../../../../src/hal/../misc/lv_color.h ****  * @param fg_opa alpha of the foreground color
 532:Middlewares/lvgl/src/extra/widgets/led/../../../../src/hal/../misc/lv_color.h ****  * @param res_color the result color
 533:Middlewares/lvgl/src/extra/widgets/led/../../../../src/hal/../misc/lv_color.h ****  * @param res_opa the result opacity
 534:Middlewares/lvgl/src/extra/widgets/led/../../../../src/hal/../misc/lv_color.h ****  */
 535:Middlewares/lvgl/src/extra/widgets/led/../../../../src/hal/../misc/lv_color.h **** LV_ATTRIBUTE_FAST_MEM static inline void lv_color_mix_with_alpha(lv_color_t bg_color, lv_opa_t bg_o
 536:Middlewares/lvgl/src/extra/widgets/led/../../../../src/hal/../misc/lv_color.h ****                                                                  lv_color_t fg_color, lv_opa_t fg_o
 537:Middlewares/lvgl/src/extra/widgets/led/../../../../src/hal/../misc/lv_color.h ****                                                                  lv_color_t * res_color, lv_opa_t *
 538:Middlewares/lvgl/src/extra/widgets/led/../../../../src/hal/../misc/lv_color.h **** {
 539:Middlewares/lvgl/src/extra/widgets/led/../../../../src/hal/../misc/lv_color.h ****     /*Pick the foreground if it's fully opaque or the Background is fully transparent*/
 540:Middlewares/lvgl/src/extra/widgets/led/../../../../src/hal/../misc/lv_color.h ****     if(fg_opa >= LV_OPA_MAX || bg_opa <= LV_OPA_MIN) {
 541:Middlewares/lvgl/src/extra/widgets/led/../../../../src/hal/../misc/lv_color.h ****         res_color->full = fg_color.full;
 542:Middlewares/lvgl/src/extra/widgets/led/../../../../src/hal/../misc/lv_color.h ****         *res_opa = fg_opa;
 543:Middlewares/lvgl/src/extra/widgets/led/../../../../src/hal/../misc/lv_color.h ****     }
 544:Middlewares/lvgl/src/extra/widgets/led/../../../../src/hal/../misc/lv_color.h ****     /*Transparent foreground: use the Background*/
 545:Middlewares/lvgl/src/extra/widgets/led/../../../../src/hal/../misc/lv_color.h ****     else if(fg_opa <= LV_OPA_MIN) {
 546:Middlewares/lvgl/src/extra/widgets/led/../../../../src/hal/../misc/lv_color.h ****         res_color->full = bg_color.full;
 547:Middlewares/lvgl/src/extra/widgets/led/../../../../src/hal/../misc/lv_color.h ****         *res_opa = bg_opa;
 548:Middlewares/lvgl/src/extra/widgets/led/../../../../src/hal/../misc/lv_color.h ****     }
 549:Middlewares/lvgl/src/extra/widgets/led/../../../../src/hal/../misc/lv_color.h ****     /*Opaque background: use simple mix*/
 550:Middlewares/lvgl/src/extra/widgets/led/../../../../src/hal/../misc/lv_color.h ****     else if(bg_opa >= LV_OPA_MAX) {
 551:Middlewares/lvgl/src/extra/widgets/led/../../../../src/hal/../misc/lv_color.h ****         *res_color = lv_color_mix(fg_color, bg_color, fg_opa);
 552:Middlewares/lvgl/src/extra/widgets/led/../../../../src/hal/../misc/lv_color.h ****         *res_opa = LV_OPA_COVER;
 553:Middlewares/lvgl/src/extra/widgets/led/../../../../src/hal/../misc/lv_color.h ****     }
 554:Middlewares/lvgl/src/extra/widgets/led/../../../../src/hal/../misc/lv_color.h ****     /*Both colors have alpha. Expensive calculation need to be applied*/
 555:Middlewares/lvgl/src/extra/widgets/led/../../../../src/hal/../misc/lv_color.h ****     else {
 556:Middlewares/lvgl/src/extra/widgets/led/../../../../src/hal/../misc/lv_color.h ****         /*Save the parameters and the result. If they will be asked again don't compute again*/
 557:Middlewares/lvgl/src/extra/widgets/led/../../../../src/hal/../misc/lv_color.h ****         static lv_opa_t fg_opa_save     = 0;
 558:Middlewares/lvgl/src/extra/widgets/led/../../../../src/hal/../misc/lv_color.h ****         static lv_opa_t bg_opa_save     = 0;
 559:Middlewares/lvgl/src/extra/widgets/led/../../../../src/hal/../misc/lv_color.h ****         static lv_color_t fg_color_save = _LV_COLOR_ZERO_INITIALIZER;
 560:Middlewares/lvgl/src/extra/widgets/led/../../../../src/hal/../misc/lv_color.h ****         static lv_color_t bg_color_save = _LV_COLOR_ZERO_INITIALIZER;
 561:Middlewares/lvgl/src/extra/widgets/led/../../../../src/hal/../misc/lv_color.h ****         static lv_color_t res_color_saved = _LV_COLOR_ZERO_INITIALIZER;
 562:Middlewares/lvgl/src/extra/widgets/led/../../../../src/hal/../misc/lv_color.h ****         static lv_opa_t res_opa_saved = 0;
 563:Middlewares/lvgl/src/extra/widgets/led/../../../../src/hal/../misc/lv_color.h **** 
 564:Middlewares/lvgl/src/extra/widgets/led/../../../../src/hal/../misc/lv_color.h ****         if(fg_opa != fg_opa_save || bg_opa != bg_opa_save || fg_color.full != fg_color_save.full ||
 565:Middlewares/lvgl/src/extra/widgets/led/../../../../src/hal/../misc/lv_color.h ****            bg_color.full != bg_color_save.full) {
 566:Middlewares/lvgl/src/extra/widgets/led/../../../../src/hal/../misc/lv_color.h ****             fg_opa_save        = fg_opa;
 567:Middlewares/lvgl/src/extra/widgets/led/../../../../src/hal/../misc/lv_color.h ****             bg_opa_save        = bg_opa;
 568:Middlewares/lvgl/src/extra/widgets/led/../../../../src/hal/../misc/lv_color.h ****             fg_color_save.full = fg_color.full;
 569:Middlewares/lvgl/src/extra/widgets/led/../../../../src/hal/../misc/lv_color.h ****             bg_color_save.full = bg_color.full;
 570:Middlewares/lvgl/src/extra/widgets/led/../../../../src/hal/../misc/lv_color.h ****             /*Info:
 571:Middlewares/lvgl/src/extra/widgets/led/../../../../src/hal/../misc/lv_color.h ****              * https://en.wikipedia.org/wiki/Alpha_compositing#Analytical_derivation_of_the_over_op
 572:Middlewares/lvgl/src/extra/widgets/led/../../../../src/hal/../misc/lv_color.h ****             res_opa_saved = 255 - ((uint16_t)((uint16_t)(255 - fg_opa) * (255 - bg_opa)) >> 8);
 573:Middlewares/lvgl/src/extra/widgets/led/../../../../src/hal/../misc/lv_color.h ****             if(res_opa_saved == 0) {
 574:Middlewares/lvgl/src/extra/widgets/led/../../../../src/hal/../misc/lv_color.h ****                 while(1)
 575:Middlewares/lvgl/src/extra/widgets/led/../../../../src/hal/../misc/lv_color.h ****                     ;
 576:Middlewares/lvgl/src/extra/widgets/led/../../../../src/hal/../misc/lv_color.h ****             }
 577:Middlewares/lvgl/src/extra/widgets/led/../../../../src/hal/../misc/lv_color.h ****             lv_opa_t ratio = (uint16_t)((uint16_t)fg_opa * 255) / res_opa_saved;
 578:Middlewares/lvgl/src/extra/widgets/led/../../../../src/hal/../misc/lv_color.h ****             res_color_saved = lv_color_mix(fg_color, bg_color, ratio);
 579:Middlewares/lvgl/src/extra/widgets/led/../../../../src/hal/../misc/lv_color.h **** 
 580:Middlewares/lvgl/src/extra/widgets/led/../../../../src/hal/../misc/lv_color.h ****         }
 581:Middlewares/lvgl/src/extra/widgets/led/../../../../src/hal/../misc/lv_color.h **** 
 582:Middlewares/lvgl/src/extra/widgets/led/../../../../src/hal/../misc/lv_color.h ****         res_color->full = res_color_saved.full;
 583:Middlewares/lvgl/src/extra/widgets/led/../../../../src/hal/../misc/lv_color.h ****         *res_opa = res_opa_saved;
ARM GAS  /tmp/cceKcmvQ.s 			page 18


 584:Middlewares/lvgl/src/extra/widgets/led/../../../../src/hal/../misc/lv_color.h ****     }
 585:Middlewares/lvgl/src/extra/widgets/led/../../../../src/hal/../misc/lv_color.h **** }
 586:Middlewares/lvgl/src/extra/widgets/led/../../../../src/hal/../misc/lv_color.h **** 
 587:Middlewares/lvgl/src/extra/widgets/led/../../../../src/hal/../misc/lv_color.h **** //! @endcond
 588:Middlewares/lvgl/src/extra/widgets/led/../../../../src/hal/../misc/lv_color.h **** 
 589:Middlewares/lvgl/src/extra/widgets/led/../../../../src/hal/../misc/lv_color.h **** /**
 590:Middlewares/lvgl/src/extra/widgets/led/../../../../src/hal/../misc/lv_color.h ****  * Get the brightness of a color
 591:Middlewares/lvgl/src/extra/widgets/led/../../../../src/hal/../misc/lv_color.h ****  * @param color a color
 592:Middlewares/lvgl/src/extra/widgets/led/../../../../src/hal/../misc/lv_color.h ****  * @return the brightness [0..255]
 593:Middlewares/lvgl/src/extra/widgets/led/../../../../src/hal/../misc/lv_color.h ****  */
 594:Middlewares/lvgl/src/extra/widgets/led/../../../../src/hal/../misc/lv_color.h **** static inline uint8_t lv_color_brightness(lv_color_t color)
 595:Middlewares/lvgl/src/extra/widgets/led/../../../../src/hal/../misc/lv_color.h **** {
 596:Middlewares/lvgl/src/extra/widgets/led/../../../../src/hal/../misc/lv_color.h ****     lv_color32_t c32;
 597:Middlewares/lvgl/src/extra/widgets/led/../../../../src/hal/../misc/lv_color.h ****     c32.full        = lv_color_to32(color);
 598:Middlewares/lvgl/src/extra/widgets/led/../../../../src/hal/../misc/lv_color.h ****     uint16_t bright = (uint16_t)(3u * LV_COLOR_GET_R32(c32) + LV_COLOR_GET_B32(c32) + 4u * LV_COLOR
 599:Middlewares/lvgl/src/extra/widgets/led/../../../../src/hal/../misc/lv_color.h ****     return (uint8_t)(bright >> 3);
 600:Middlewares/lvgl/src/extra/widgets/led/../../../../src/hal/../misc/lv_color.h **** }
 601:Middlewares/lvgl/src/extra/widgets/led/../../../../src/hal/../misc/lv_color.h **** 
 602:Middlewares/lvgl/src/extra/widgets/led/../../../../src/hal/../misc/lv_color.h **** static inline lv_color_t lv_color_make(uint8_t r, uint8_t g, uint8_t b)
 603:Middlewares/lvgl/src/extra/widgets/led/../../../../src/hal/../misc/lv_color.h **** {
 604:Middlewares/lvgl/src/extra/widgets/led/../../../../src/hal/../misc/lv_color.h ****     return _LV_COLOR_MAKE_TYPE_HELPER LV_COLOR_MAKE(r, g, b);
 605:Middlewares/lvgl/src/extra/widgets/led/../../../../src/hal/../misc/lv_color.h **** }
 606:Middlewares/lvgl/src/extra/widgets/led/../../../../src/hal/../misc/lv_color.h **** 
 607:Middlewares/lvgl/src/extra/widgets/led/../../../../src/hal/../misc/lv_color.h **** static inline lv_color_t lv_color_hex(uint32_t c)
 608:Middlewares/lvgl/src/extra/widgets/led/../../../../src/hal/../misc/lv_color.h **** {
 609:Middlewares/lvgl/src/extra/widgets/led/../../../../src/hal/../misc/lv_color.h ****     return lv_color_make((uint8_t)((c >> 16) & 0xFF), (uint8_t)((c >> 8) & 0xFF), (uint8_t)(c & 0xF
 610:Middlewares/lvgl/src/extra/widgets/led/../../../../src/hal/../misc/lv_color.h **** }
 611:Middlewares/lvgl/src/extra/widgets/led/../../../../src/hal/../misc/lv_color.h **** 
 612:Middlewares/lvgl/src/extra/widgets/led/../../../../src/hal/../misc/lv_color.h **** static inline lv_color_t lv_color_hex3(uint32_t c)
 613:Middlewares/lvgl/src/extra/widgets/led/../../../../src/hal/../misc/lv_color.h **** {
 614:Middlewares/lvgl/src/extra/widgets/led/../../../../src/hal/../misc/lv_color.h ****     return lv_color_make((uint8_t)(((c >> 4) & 0xF0) | ((c >> 8) & 0xF)), (uint8_t)((c & 0xF0) | ((
 615:Middlewares/lvgl/src/extra/widgets/led/../../../../src/hal/../misc/lv_color.h ****                          (uint8_t)((c & 0xF) | ((c & 0xF) << 4)));
 616:Middlewares/lvgl/src/extra/widgets/led/../../../../src/hal/../misc/lv_color.h **** }
 617:Middlewares/lvgl/src/extra/widgets/led/../../../../src/hal/../misc/lv_color.h **** 
 618:Middlewares/lvgl/src/extra/widgets/led/../../../../src/hal/../misc/lv_color.h **** static inline void lv_color_filter_dsc_init(lv_color_filter_dsc_t * dsc, lv_color_filter_cb_t cb)
 619:Middlewares/lvgl/src/extra/widgets/led/../../../../src/hal/../misc/lv_color.h **** {
 620:Middlewares/lvgl/src/extra/widgets/led/../../../../src/hal/../misc/lv_color.h ****     dsc->filter_cb = cb;
 621:Middlewares/lvgl/src/extra/widgets/led/../../../../src/hal/../misc/lv_color.h **** }
 622:Middlewares/lvgl/src/extra/widgets/led/../../../../src/hal/../misc/lv_color.h **** 
 623:Middlewares/lvgl/src/extra/widgets/led/../../../../src/hal/../misc/lv_color.h **** //! @cond Doxygen_Suppress
 624:Middlewares/lvgl/src/extra/widgets/led/../../../../src/hal/../misc/lv_color.h **** //!
 625:Middlewares/lvgl/src/extra/widgets/led/../../../../src/hal/../misc/lv_color.h **** LV_ATTRIBUTE_FAST_MEM void lv_color_fill(lv_color_t * buf, lv_color_t color, uint32_t px_num);
 626:Middlewares/lvgl/src/extra/widgets/led/../../../../src/hal/../misc/lv_color.h **** 
 627:Middlewares/lvgl/src/extra/widgets/led/../../../../src/hal/../misc/lv_color.h **** //! @endcond
 628:Middlewares/lvgl/src/extra/widgets/led/../../../../src/hal/../misc/lv_color.h **** lv_color_t lv_color_lighten(lv_color_t c, lv_opa_t lvl);
 629:Middlewares/lvgl/src/extra/widgets/led/../../../../src/hal/../misc/lv_color.h **** 
 630:Middlewares/lvgl/src/extra/widgets/led/../../../../src/hal/../misc/lv_color.h **** lv_color_t lv_color_darken(lv_color_t c, lv_opa_t lvl);
 631:Middlewares/lvgl/src/extra/widgets/led/../../../../src/hal/../misc/lv_color.h **** 
 632:Middlewares/lvgl/src/extra/widgets/led/../../../../src/hal/../misc/lv_color.h **** lv_color_t lv_color_change_lightness(lv_color_t c, lv_opa_t lvl);
 633:Middlewares/lvgl/src/extra/widgets/led/../../../../src/hal/../misc/lv_color.h **** 
 634:Middlewares/lvgl/src/extra/widgets/led/../../../../src/hal/../misc/lv_color.h **** /**
 635:Middlewares/lvgl/src/extra/widgets/led/../../../../src/hal/../misc/lv_color.h ****  * Convert a HSV color to RGB
 636:Middlewares/lvgl/src/extra/widgets/led/../../../../src/hal/../misc/lv_color.h ****  * @param h hue [0..359]
 637:Middlewares/lvgl/src/extra/widgets/led/../../../../src/hal/../misc/lv_color.h ****  * @param s saturation [0..100]
 638:Middlewares/lvgl/src/extra/widgets/led/../../../../src/hal/../misc/lv_color.h ****  * @param v value [0..100]
 639:Middlewares/lvgl/src/extra/widgets/led/../../../../src/hal/../misc/lv_color.h ****  * @return the given RGB color in RGB (with LV_COLOR_DEPTH depth)
 640:Middlewares/lvgl/src/extra/widgets/led/../../../../src/hal/../misc/lv_color.h ****  */
ARM GAS  /tmp/cceKcmvQ.s 			page 19


 641:Middlewares/lvgl/src/extra/widgets/led/../../../../src/hal/../misc/lv_color.h **** lv_color_t lv_color_hsv_to_rgb(uint16_t h, uint8_t s, uint8_t v);
 642:Middlewares/lvgl/src/extra/widgets/led/../../../../src/hal/../misc/lv_color.h **** 
 643:Middlewares/lvgl/src/extra/widgets/led/../../../../src/hal/../misc/lv_color.h **** /**
 644:Middlewares/lvgl/src/extra/widgets/led/../../../../src/hal/../misc/lv_color.h ****  * Convert a 32-bit RGB color to HSV
 645:Middlewares/lvgl/src/extra/widgets/led/../../../../src/hal/../misc/lv_color.h ****  * @param r8 8-bit red
 646:Middlewares/lvgl/src/extra/widgets/led/../../../../src/hal/../misc/lv_color.h ****  * @param g8 8-bit green
 647:Middlewares/lvgl/src/extra/widgets/led/../../../../src/hal/../misc/lv_color.h ****  * @param b8 8-bit blue
 648:Middlewares/lvgl/src/extra/widgets/led/../../../../src/hal/../misc/lv_color.h ****  * @return the given RGB color in HSV
 649:Middlewares/lvgl/src/extra/widgets/led/../../../../src/hal/../misc/lv_color.h ****  */
 650:Middlewares/lvgl/src/extra/widgets/led/../../../../src/hal/../misc/lv_color.h **** lv_color_hsv_t lv_color_rgb_to_hsv(uint8_t r8, uint8_t g8, uint8_t b8);
 651:Middlewares/lvgl/src/extra/widgets/led/../../../../src/hal/../misc/lv_color.h **** 
 652:Middlewares/lvgl/src/extra/widgets/led/../../../../src/hal/../misc/lv_color.h **** /**
 653:Middlewares/lvgl/src/extra/widgets/led/../../../../src/hal/../misc/lv_color.h ****  * Convert a color to HSV
 654:Middlewares/lvgl/src/extra/widgets/led/../../../../src/hal/../misc/lv_color.h ****  * @param color color
 655:Middlewares/lvgl/src/extra/widgets/led/../../../../src/hal/../misc/lv_color.h ****  * @return the given color in HSV
 656:Middlewares/lvgl/src/extra/widgets/led/../../../../src/hal/../misc/lv_color.h ****  */
 657:Middlewares/lvgl/src/extra/widgets/led/../../../../src/hal/../misc/lv_color.h **** lv_color_hsv_t lv_color_to_hsv(lv_color_t color);
 658:Middlewares/lvgl/src/extra/widgets/led/../../../../src/hal/../misc/lv_color.h **** 
 659:Middlewares/lvgl/src/extra/widgets/led/../../../../src/hal/../misc/lv_color.h **** /**
 660:Middlewares/lvgl/src/extra/widgets/led/../../../../src/hal/../misc/lv_color.h ****  * Just a wrapper around LV_COLOR_CHROMA_KEY because it might be more convenient to use a function 
 661:Middlewares/lvgl/src/extra/widgets/led/../../../../src/hal/../misc/lv_color.h ****  * @return LV_COLOR_CHROMA_KEY
 662:Middlewares/lvgl/src/extra/widgets/led/../../../../src/hal/../misc/lv_color.h ****  */
 663:Middlewares/lvgl/src/extra/widgets/led/../../../../src/hal/../misc/lv_color.h **** static inline lv_color_t lv_color_chroma_key(void)
 664:Middlewares/lvgl/src/extra/widgets/led/../../../../src/hal/../misc/lv_color.h **** {
 665:Middlewares/lvgl/src/extra/widgets/led/../../../../src/hal/../misc/lv_color.h ****     return LV_COLOR_CHROMA_KEY;
 666:Middlewares/lvgl/src/extra/widgets/led/../../../../src/hal/../misc/lv_color.h **** }
 667:Middlewares/lvgl/src/extra/widgets/led/../../../../src/hal/../misc/lv_color.h **** 
 668:Middlewares/lvgl/src/extra/widgets/led/../../../../src/hal/../misc/lv_color.h **** /**********************
 669:Middlewares/lvgl/src/extra/widgets/led/../../../../src/hal/../misc/lv_color.h ****  *  PREDEFINED COLORS
 670:Middlewares/lvgl/src/extra/widgets/led/../../../../src/hal/../misc/lv_color.h ****  **********************/
 671:Middlewares/lvgl/src/extra/widgets/led/../../../../src/hal/../misc/lv_color.h **** /*Source: https://vuetifyjs.com/en/styles/colors/#material-colors*/
 672:Middlewares/lvgl/src/extra/widgets/led/../../../../src/hal/../misc/lv_color.h **** 
 673:Middlewares/lvgl/src/extra/widgets/led/../../../../src/hal/../misc/lv_color.h **** lv_color_t lv_palette_main(lv_palette_t p);
 674:Middlewares/lvgl/src/extra/widgets/led/../../../../src/hal/../misc/lv_color.h **** static inline lv_color_t lv_color_white(void) { return lv_color_make(0xff, 0xff, 0xff);}
 675:Middlewares/lvgl/src/extra/widgets/led/../../../../src/hal/../misc/lv_color.h **** static inline lv_color_t lv_color_black(void) { return lv_color_make(0x00, 0x0, 0x00);}
 168              		.loc 2 675 26 view .LVU39
 169              	.LBE127:
 170              	.LBE126:
 171              		.loc 2 675 49 view .LVU40
 172              	.LBB207:
 173              	.LBB130:
 174              	.LBB128:
 175              	.LBI128:
 602:Middlewares/lvgl/src/extra/widgets/led/../../../../src/hal/../misc/lv_color.h **** {
 176              		.loc 2 602 26 view .LVU41
 177              	.LBB129:
 604:Middlewares/lvgl/src/extra/widgets/led/../../../../src/hal/../misc/lv_color.h **** }
 178              		.loc 2 604 5 view .LVU42
 604:Middlewares/lvgl/src/extra/widgets/led/../../../../src/hal/../misc/lv_color.h **** }
 179              		.loc 2 604 5 is_stmt 0 view .LVU43
 180 004c BDF80820 		ldrh	r2, [sp, #8]
 181              	.LBE129:
 182              	.LBE128:
 183              	.LBE130:
 184              	.LBB131:
 185              	.LBI131:
 594:Middlewares/lvgl/src/extra/widgets/led/../../../../src/hal/../misc/lv_color.h **** {
ARM GAS  /tmp/cceKcmvQ.s 			page 20


 186              		.loc 2 594 23 is_stmt 1 view .LVU44
 187              	.LBB132:
 596:Middlewares/lvgl/src/extra/widgets/led/../../../../src/hal/../misc/lv_color.h ****     c32.full        = lv_color_to32(color);
 188              		.loc 2 596 5 view .LVU45
 597:Middlewares/lvgl/src/extra/widgets/led/../../../../src/hal/../misc/lv_color.h ****     uint16_t bright = (uint16_t)(3u * LV_COLOR_GET_R32(c32) + LV_COLOR_GET_B32(c32) + 4u * LV_COLOR
 189              		.loc 2 597 5 view .LVU46
 190              	.LBB133:
 191              	.LBI133:
 395:Middlewares/lvgl/src/extra/widgets/led/../../../../src/hal/../misc/lv_color.h **** {
 192              		.loc 2 395 24 view .LVU47
 193              	.LBB134:
 439:Middlewares/lvgl/src/extra/widgets/led/../../../../src/hal/../misc/lv_color.h ****     LV_COLOR_SET_R32(ret, (LV_COLOR_GET_R(color) * 263 + 7) >> 5);
 194              		.loc 2 439 5 view .LVU48
 440:Middlewares/lvgl/src/extra/widgets/led/../../../../src/hal/../misc/lv_color.h ****     LV_COLOR_SET_G32(ret, (LV_COLOR_GET_G(color) * 259 + 3) >> 6);
 195              		.loc 2 440 5 view .LVU49
 196              	.LVL18:
 440:Middlewares/lvgl/src/extra/widgets/led/../../../../src/hal/../misc/lv_color.h ****     LV_COLOR_SET_G32(ret, (LV_COLOR_GET_G(color) * 259 + 3) >> 6);
 197              		.loc 2 440 5 is_stmt 0 view .LVU50
 198 0050 C2F3C423 		ubfx	r3, r2, #11, #5
 199 0054 03EB4311 		add	r1, r3, r3, lsl #5
 200 0058 C3EBC103 		rsb	r3, r3, r1, lsl #3
 201 005c 0733     		adds	r3, r3, #7
 202 005e C3F34713 		ubfx	r3, r3, #5, #8
 203 0062 0021     		movs	r1, #0
 204              	.LVL19:
 440:Middlewares/lvgl/src/extra/widgets/led/../../../../src/hal/../misc/lv_color.h ****     LV_COLOR_SET_G32(ret, (LV_COLOR_GET_G(color) * 259 + 3) >> 6);
 205              		.loc 2 440 5 view .LVU51
 206 0064 63F31741 		bfi	r1, r3, #16, #8
 207              	.LVL20:
 441:Middlewares/lvgl/src/extra/widgets/led/../../../../src/hal/../misc/lv_color.h ****     LV_COLOR_SET_B32(ret, (LV_COLOR_GET_B(color) * 263 + 7) >> 5);
 208              		.loc 2 441 5 is_stmt 1 view .LVU52
 209 0068 C2F34513 		ubfx	r3, r2, #5, #6
 210 006c 03EBC310 		add	r0, r3, r3, lsl #7
 211 0070 03EB4003 		add	r3, r3, r0, lsl #1
 212 0074 0333     		adds	r3, r3, #3
 213 0076 C3F38713 		ubfx	r3, r3, #6, #8
 214 007a 63F30F21 		bfi	r1, r3, #8, #8
 442:Middlewares/lvgl/src/extra/widgets/led/../../../../src/hal/../misc/lv_color.h ****     LV_COLOR_SET_A32(ret, 0xFF);
 215              		.loc 2 442 5 view .LVU53
 216 007e 02F01F02 		and	r2, r2, #31
 217              	.LVL21:
 442:Middlewares/lvgl/src/extra/widgets/led/../../../../src/hal/../misc/lv_color.h ****     LV_COLOR_SET_A32(ret, 0xFF);
 218              		.loc 2 442 5 is_stmt 0 view .LVU54
 219 0082 02EB4213 		add	r3, r2, r2, lsl #5
 220 0086 C2EBC302 		rsb	r2, r2, r3, lsl #3
 221 008a 0732     		adds	r2, r2, #7
 222 008c C2F34712 		ubfx	r2, r2, #5, #8
 223 0090 62F30701 		bfi	r1, r2, #0, #8
 443:Middlewares/lvgl/src/extra/widgets/led/../../../../src/hal/../misc/lv_color.h ****     return ret.full;
 224              		.loc 2 443 5 is_stmt 1 view .LVU55
 225 0094 41F07F41 		orr	r1, r1, #-16777216
 226              	.LVL22:
 444:Middlewares/lvgl/src/extra/widgets/led/../../../../src/hal/../misc/lv_color.h **** #elif LV_COLOR_DEPTH == 32
 227              		.loc 2 444 5 view .LVU56
 228              	.LBE134:
 229              	.LBE133:
 598:Middlewares/lvgl/src/extra/widgets/led/../../../../src/hal/../misc/lv_color.h ****     return (uint8_t)(bright >> 3);
ARM GAS  /tmp/cceKcmvQ.s 			page 21


 230              		.loc 2 598 5 view .LVU57
 598:Middlewares/lvgl/src/extra/widgets/led/../../../../src/hal/../misc/lv_color.h ****     return (uint8_t)(bright >> 3);
 231              		.loc 2 598 39 is_stmt 0 view .LVU58
 232 0098 C1F30743 		ubfx	r3, r1, #16, #8
 598:Middlewares/lvgl/src/extra/widgets/led/../../../../src/hal/../misc/lv_color.h ****     return (uint8_t)(bright >> 3);
 233              		.loc 2 598 37 view .LVU59
 234 009c 03EB4303 		add	r3, r3, r3, lsl #1
 598:Middlewares/lvgl/src/extra/widgets/led/../../../../src/hal/../misc/lv_color.h ****     return (uint8_t)(bright >> 3);
 235              		.loc 2 598 92 view .LVU60
 236 00a0 C1F30722 		ubfx	r2, r1, #8, #8
 598:Middlewares/lvgl/src/extra/widgets/led/../../../../src/hal/../misc/lv_color.h ****     return (uint8_t)(bright >> 3);
 237              		.loc 2 598 85 view .LVU61
 238 00a4 03EB8203 		add	r3, r3, r2, lsl #2
 598:Middlewares/lvgl/src/extra/widgets/led/../../../../src/hal/../misc/lv_color.h ****     return (uint8_t)(bright >> 3);
 239              		.loc 2 598 63 view .LVU62
 240 00a8 C9B2     		uxtb	r1, r1
 241              	.LVL23:
 598:Middlewares/lvgl/src/extra/widgets/led/../../../../src/hal/../misc/lv_color.h ****     return (uint8_t)(bright >> 3);
 242              		.loc 2 598 14 view .LVU63
 243 00aa 11FA83F1 		uxtah	r1, r1, r3
 244              	.LVL24:
 599:Middlewares/lvgl/src/extra/widgets/led/../../../../src/hal/../misc/lv_color.h **** }
 245              		.loc 2 599 5 is_stmt 1 view .LVU64
 599:Middlewares/lvgl/src/extra/widgets/led/../../../../src/hal/../misc/lv_color.h **** }
 246              		.loc 2 599 12 is_stmt 0 view .LVU65
 247 00ae C1F3C703 		ubfx	r3, r1, #3, #8
 248              	.LVL25:
 599:Middlewares/lvgl/src/extra/widgets/led/../../../../src/hal/../misc/lv_color.h **** }
 249              		.loc 2 599 12 view .LVU66
 250 00b2 B6F824C0 		ldrh	ip, [r6, #36]
 251              	.LVL26:
 599:Middlewares/lvgl/src/extra/widgets/led/../../../../src/hal/../misc/lv_color.h **** }
 252              		.loc 2 599 12 view .LVU67
 253              	.LBE132:
 254              	.LBE131:
 255              	.LBB135:
 256              	.LBI135:
 459:Middlewares/lvgl/src/extra/widgets/led/../../../../src/hal/../misc/lv_color.h **** {
 257              		.loc 2 459 48 is_stmt 1 view .LVU68
 258              	.LBB136:
 461:Middlewares/lvgl/src/extra/widgets/led/../../../../src/hal/../misc/lv_color.h **** #if LV_COLOR_DEPTH != 1
 259              		.loc 2 461 5 view .LVU69
 464:Middlewares/lvgl/src/extra/widgets/led/../../../../src/hal/../misc/lv_color.h ****                                         (255 - mix) + LV_COLOR_MIX_ROUND_OFS));
 260              		.loc 2 464 5 view .LVU70
 464:Middlewares/lvgl/src/extra/widgets/led/../../../../src/hal/../misc/lv_color.h ****                                         (255 - mix) + LV_COLOR_MIX_ROUND_OFS));
 261              		.loc 2 464 5 is_stmt 0 view .LVU71
 262 00b6 CCF3C422 		ubfx	r2, ip, #11, #5
 263 00ba 03FB02F2 		mul	r2, r3, r2
 264 00be 8032     		adds	r2, r2, #128
 265 00c0 02EB0221 		add	r1, r2, r2, lsl #8
 266 00c4 02EBC112 		add	r2, r2, r1, lsl #7
 267 00c8 C2F3C452 		ubfx	r2, r2, #23, #5
 268 00cc 4FF00005 		mov	r5, #0	@ movhi
 269              	.LVL27:
 464:Middlewares/lvgl/src/extra/widgets/led/../../../../src/hal/../misc/lv_color.h ****                                         (255 - mix) + LV_COLOR_MIX_ROUND_OFS));
 270              		.loc 2 464 5 view .LVU72
 271 00d0 62F3CF25 		bfi	r5, r2, #11, #5
ARM GAS  /tmp/cceKcmvQ.s 			page 22


 272              	.LVL28:
 466:Middlewares/lvgl/src/extra/widgets/led/../../../../src/hal/../misc/lv_color.h ****                                         (255 - mix) + LV_COLOR_MIX_ROUND_OFS));
 273              		.loc 2 466 5 is_stmt 1 view .LVU73
 274 00d4 CCF34512 		ubfx	r2, ip, #5, #6
 275 00d8 03FB02F2 		mul	r2, r3, r2
 276 00dc 8032     		adds	r2, r2, #128
 277 00de 02EB0221 		add	r1, r2, r2, lsl #8
 278 00e2 02EBC112 		add	r2, r2, r1, lsl #7
 279 00e6 C2F3C552 		ubfx	r2, r2, #23, #6
 280 00ea 62F34A15 		bfi	r5, r2, #5, #6
 468:Middlewares/lvgl/src/extra/widgets/led/../../../../src/hal/../misc/lv_color.h ****                                         (255 - mix) + LV_COLOR_MIX_ROUND_OFS));
 281              		.loc 2 468 5 view .LVU74
 282 00ee 0CF01F02 		and	r2, ip, #31
 283 00f2 02FB03F3 		mul	r3, r2, r3
 284              	.LVL29:
 468:Middlewares/lvgl/src/extra/widgets/led/../../../../src/hal/../misc/lv_color.h ****                                         (255 - mix) + LV_COLOR_MIX_ROUND_OFS));
 285              		.loc 2 468 5 is_stmt 0 view .LVU75
 286 00f6 8033     		adds	r3, r3, #128
 287 00f8 03EB0322 		add	r2, r3, r3, lsl #8
 288 00fc 03EBC213 		add	r3, r3, r2, lsl #7
 289 0100 C3F3C453 		ubfx	r3, r3, #23, #5
 290 0104 63F30405 		bfi	r5, r3, #0, #5
 470:Middlewares/lvgl/src/extra/widgets/led/../../../../src/hal/../misc/lv_color.h **** #else
 291              		.loc 2 470 5 is_stmt 1 view .LVU76
 470:Middlewares/lvgl/src/extra/widgets/led/../../../../src/hal/../misc/lv_color.h **** #else
 292              		.loc 2 470 5 view .LVU77
 470:Middlewares/lvgl/src/extra/widgets/led/../../../../src/hal/../misc/lv_color.h **** #else
 293              		.loc 2 470 5 view .LVU78
 476:Middlewares/lvgl/src/extra/widgets/led/../../../../src/hal/../misc/lv_color.h **** }
 294              		.loc 2 476 5 view .LVU79
 476:Middlewares/lvgl/src/extra/widgets/led/../../../../src/hal/../misc/lv_color.h **** }
 295              		.loc 2 476 5 is_stmt 0 view .LVU80
 296              	.LBE136:
 297              	.LBE135:
 184:Middlewares/lvgl/src/extra/widgets/led/lv_led.c ****         rect_dsc.bg_grad_color = lv_color_mix(led->color, lv_color_black(), lv_color_brightness(rec
 298              		.loc 1 184 29 view .LVU81
 299 0108 ADF80850 		strh	r5, [sp, #8]	@ movhi
 185:Middlewares/lvgl/src/extra/widgets/led/lv_led.c ****         rect_dsc.shadow_color = lv_color_mix(led->color, lv_color_black(), lv_color_brightness(rect
 300              		.loc 1 185 9 is_stmt 1 view .LVU82
 301              	.LBB137:
 302              	.LBI137:
 303              		.loc 2 675 26 view .LVU83
 304              	.LBE137:
 305              	.LBE207:
 306              		.loc 2 675 49 view .LVU84
 307              	.LVL30:
 308              	.LBB208:
 309              	.LBB140:
 310              	.LBB138:
 311              	.LBI138:
 602:Middlewares/lvgl/src/extra/widgets/led/../../../../src/hal/../misc/lv_color.h **** {
 312              		.loc 2 602 26 view .LVU85
 313              	.LBB139:
 604:Middlewares/lvgl/src/extra/widgets/led/../../../../src/hal/../misc/lv_color.h **** }
 314              		.loc 2 604 5 view .LVU86
 604:Middlewares/lvgl/src/extra/widgets/led/../../../../src/hal/../misc/lv_color.h **** }
 315              		.loc 2 604 5 is_stmt 0 view .LVU87
ARM GAS  /tmp/cceKcmvQ.s 			page 23


 316 010c BDF80A30 		ldrh	r3, [sp, #10]
 317              	.LBE139:
 318              	.LBE138:
 319              	.LBE140:
 320              	.LBB141:
 321              	.LBI141:
 594:Middlewares/lvgl/src/extra/widgets/led/../../../../src/hal/../misc/lv_color.h **** {
 322              		.loc 2 594 23 is_stmt 1 view .LVU88
 323              	.LBB142:
 596:Middlewares/lvgl/src/extra/widgets/led/../../../../src/hal/../misc/lv_color.h ****     c32.full        = lv_color_to32(color);
 324              		.loc 2 596 5 view .LVU89
 597:Middlewares/lvgl/src/extra/widgets/led/../../../../src/hal/../misc/lv_color.h ****     uint16_t bright = (uint16_t)(3u * LV_COLOR_GET_R32(c32) + LV_COLOR_GET_B32(c32) + 4u * LV_COLOR
 325              		.loc 2 597 5 view .LVU90
 326              	.LBB143:
 327              	.LBI143:
 395:Middlewares/lvgl/src/extra/widgets/led/../../../../src/hal/../misc/lv_color.h **** {
 328              		.loc 2 395 24 view .LVU91
 329              	.LBB144:
 439:Middlewares/lvgl/src/extra/widgets/led/../../../../src/hal/../misc/lv_color.h ****     LV_COLOR_SET_R32(ret, (LV_COLOR_GET_R(color) * 263 + 7) >> 5);
 330              		.loc 2 439 5 view .LVU92
 440:Middlewares/lvgl/src/extra/widgets/led/../../../../src/hal/../misc/lv_color.h ****     LV_COLOR_SET_G32(ret, (LV_COLOR_GET_G(color) * 259 + 3) >> 6);
 331              		.loc 2 440 5 view .LVU93
 332              	.LVL31:
 440:Middlewares/lvgl/src/extra/widgets/led/../../../../src/hal/../misc/lv_color.h ****     LV_COLOR_SET_G32(ret, (LV_COLOR_GET_G(color) * 259 + 3) >> 6);
 333              		.loc 2 440 5 is_stmt 0 view .LVU94
 334 0110 C3F3C422 		ubfx	r2, r3, #11, #5
 335 0114 02EB4211 		add	r1, r2, r2, lsl #5
 336 0118 C2EBC102 		rsb	r2, r2, r1, lsl #3
 337 011c 0732     		adds	r2, r2, #7
 338 011e C2F34712 		ubfx	r2, r2, #5, #8
 339 0122 0021     		movs	r1, #0
 340              	.LVL32:
 440:Middlewares/lvgl/src/extra/widgets/led/../../../../src/hal/../misc/lv_color.h ****     LV_COLOR_SET_G32(ret, (LV_COLOR_GET_G(color) * 259 + 3) >> 6);
 341              		.loc 2 440 5 view .LVU95
 342 0124 62F31741 		bfi	r1, r2, #16, #8
 343              	.LVL33:
 441:Middlewares/lvgl/src/extra/widgets/led/../../../../src/hal/../misc/lv_color.h ****     LV_COLOR_SET_B32(ret, (LV_COLOR_GET_B(color) * 263 + 7) >> 5);
 344              		.loc 2 441 5 is_stmt 1 view .LVU96
 345 0128 C3F34512 		ubfx	r2, r3, #5, #6
 346 012c 02EBC210 		add	r0, r2, r2, lsl #7
 347 0130 02EB4002 		add	r2, r2, r0, lsl #1
 348 0134 0332     		adds	r2, r2, #3
 349 0136 C2F38712 		ubfx	r2, r2, #6, #8
 350 013a 62F30F21 		bfi	r1, r2, #8, #8
 442:Middlewares/lvgl/src/extra/widgets/led/../../../../src/hal/../misc/lv_color.h ****     LV_COLOR_SET_A32(ret, 0xFF);
 351              		.loc 2 442 5 view .LVU97
 352 013e 03F01F03 		and	r3, r3, #31
 353              	.LVL34:
 442:Middlewares/lvgl/src/extra/widgets/led/../../../../src/hal/../misc/lv_color.h ****     LV_COLOR_SET_A32(ret, 0xFF);
 354              		.loc 2 442 5 is_stmt 0 view .LVU98
 355 0142 03EB4312 		add	r2, r3, r3, lsl #5
 356 0146 C3EBC203 		rsb	r3, r3, r2, lsl #3
 357 014a 0733     		adds	r3, r3, #7
 358 014c C3F34713 		ubfx	r3, r3, #5, #8
 359 0150 63F30701 		bfi	r1, r3, #0, #8
 443:Middlewares/lvgl/src/extra/widgets/led/../../../../src/hal/../misc/lv_color.h ****     return ret.full;
 360              		.loc 2 443 5 is_stmt 1 view .LVU99
ARM GAS  /tmp/cceKcmvQ.s 			page 24


 361 0154 41F07F41 		orr	r1, r1, #-16777216
 362              	.LVL35:
 444:Middlewares/lvgl/src/extra/widgets/led/../../../../src/hal/../misc/lv_color.h **** #elif LV_COLOR_DEPTH == 32
 363              		.loc 2 444 5 view .LVU100
 364              	.LBE144:
 365              	.LBE143:
 598:Middlewares/lvgl/src/extra/widgets/led/../../../../src/hal/../misc/lv_color.h ****     return (uint8_t)(bright >> 3);
 366              		.loc 2 598 5 view .LVU101
 598:Middlewares/lvgl/src/extra/widgets/led/../../../../src/hal/../misc/lv_color.h ****     return (uint8_t)(bright >> 3);
 367              		.loc 2 598 39 is_stmt 0 view .LVU102
 368 0158 C1F30742 		ubfx	r2, r1, #16, #8
 598:Middlewares/lvgl/src/extra/widgets/led/../../../../src/hal/../misc/lv_color.h ****     return (uint8_t)(bright >> 3);
 369              		.loc 2 598 37 view .LVU103
 370 015c 02EB4202 		add	r2, r2, r2, lsl #1
 598:Middlewares/lvgl/src/extra/widgets/led/../../../../src/hal/../misc/lv_color.h ****     return (uint8_t)(bright >> 3);
 371              		.loc 2 598 92 view .LVU104
 372 0160 C1F30723 		ubfx	r3, r1, #8, #8
 598:Middlewares/lvgl/src/extra/widgets/led/../../../../src/hal/../misc/lv_color.h ****     return (uint8_t)(bright >> 3);
 373              		.loc 2 598 85 view .LVU105
 374 0164 02EB8302 		add	r2, r2, r3, lsl #2
 598:Middlewares/lvgl/src/extra/widgets/led/../../../../src/hal/../misc/lv_color.h ****     return (uint8_t)(bright >> 3);
 375              		.loc 2 598 63 view .LVU106
 376 0168 C9B2     		uxtb	r1, r1
 377              	.LVL36:
 598:Middlewares/lvgl/src/extra/widgets/led/../../../../src/hal/../misc/lv_color.h ****     return (uint8_t)(bright >> 3);
 378              		.loc 2 598 14 view .LVU107
 379 016a 11FA82F1 		uxtah	r1, r1, r2
 380              	.LVL37:
 599:Middlewares/lvgl/src/extra/widgets/led/../../../../src/hal/../misc/lv_color.h **** }
 381              		.loc 2 599 5 is_stmt 1 view .LVU108
 599:Middlewares/lvgl/src/extra/widgets/led/../../../../src/hal/../misc/lv_color.h **** }
 382              		.loc 2 599 12 is_stmt 0 view .LVU109
 383 016e C1F3C702 		ubfx	r2, r1, #3, #8
 384              	.LVL38:
 599:Middlewares/lvgl/src/extra/widgets/led/../../../../src/hal/../misc/lv_color.h **** }
 385              		.loc 2 599 12 view .LVU110
 386              	.LBE142:
 387              	.LBE141:
 388              	.LBB145:
 389              	.LBI145:
 459:Middlewares/lvgl/src/extra/widgets/led/../../../../src/hal/../misc/lv_color.h **** {
 390              		.loc 2 459 48 is_stmt 1 view .LVU111
 391              	.LBB146:
 461:Middlewares/lvgl/src/extra/widgets/led/../../../../src/hal/../misc/lv_color.h **** #if LV_COLOR_DEPTH != 1
 392              		.loc 2 461 5 view .LVU112
 464:Middlewares/lvgl/src/extra/widgets/led/../../../../src/hal/../misc/lv_color.h ****                                         (255 - mix) + LV_COLOR_MIX_ROUND_OFS));
 393              		.loc 2 464 5 view .LVU113
 394 0172 CCF3C423 		ubfx	r3, ip, #11, #5
 395 0176 02FB03F3 		mul	r3, r2, r3
 396 017a 8033     		adds	r3, r3, #128
 397 017c 03EB0321 		add	r1, r3, r3, lsl #8
 398 0180 03EBC113 		add	r3, r3, r1, lsl #7
 399 0184 C3F3C453 		ubfx	r3, r3, #23, #5
 400 0188 4FF00001 		mov	r1, #0	@ movhi
 401              	.LVL39:
 464:Middlewares/lvgl/src/extra/widgets/led/../../../../src/hal/../misc/lv_color.h ****                                         (255 - mix) + LV_COLOR_MIX_ROUND_OFS));
 402              		.loc 2 464 5 is_stmt 0 view .LVU114
ARM GAS  /tmp/cceKcmvQ.s 			page 25


 403 018c 63F3CF21 		bfi	r1, r3, #11, #5
 404              	.LVL40:
 466:Middlewares/lvgl/src/extra/widgets/led/../../../../src/hal/../misc/lv_color.h ****                                         (255 - mix) + LV_COLOR_MIX_ROUND_OFS));
 405              		.loc 2 466 5 is_stmt 1 view .LVU115
 406 0190 CCF34513 		ubfx	r3, ip, #5, #6
 407 0194 02FB03F3 		mul	r3, r2, r3
 408 0198 8033     		adds	r3, r3, #128
 409 019a 03EB0320 		add	r0, r3, r3, lsl #8
 410 019e 03EBC013 		add	r3, r3, r0, lsl #7
 411 01a2 C3F3C553 		ubfx	r3, r3, #23, #6
 412 01a6 63F34A11 		bfi	r1, r3, #5, #6
 468:Middlewares/lvgl/src/extra/widgets/led/../../../../src/hal/../misc/lv_color.h ****                                         (255 - mix) + LV_COLOR_MIX_ROUND_OFS));
 413              		.loc 2 468 5 view .LVU116
 414 01aa 0CF01F03 		and	r3, ip, #31
 415 01ae 03FB02F2 		mul	r2, r3, r2
 416              	.LVL41:
 468:Middlewares/lvgl/src/extra/widgets/led/../../../../src/hal/../misc/lv_color.h ****                                         (255 - mix) + LV_COLOR_MIX_ROUND_OFS));
 417              		.loc 2 468 5 is_stmt 0 view .LVU117
 418 01b2 8032     		adds	r2, r2, #128
 419 01b4 02EB0223 		add	r3, r2, r2, lsl #8
 420 01b8 02EBC312 		add	r2, r2, r3, lsl #7
 421 01bc C2F3C452 		ubfx	r2, r2, #23, #5
 422 01c0 62F30401 		bfi	r1, r2, #0, #5
 470:Middlewares/lvgl/src/extra/widgets/led/../../../../src/hal/../misc/lv_color.h **** #else
 423              		.loc 2 470 5 is_stmt 1 view .LVU118
 470:Middlewares/lvgl/src/extra/widgets/led/../../../../src/hal/../misc/lv_color.h **** #else
 424              		.loc 2 470 5 view .LVU119
 470:Middlewares/lvgl/src/extra/widgets/led/../../../../src/hal/../misc/lv_color.h **** #else
 425              		.loc 2 470 5 view .LVU120
 476:Middlewares/lvgl/src/extra/widgets/led/../../../../src/hal/../misc/lv_color.h **** }
 426              		.loc 2 476 5 view .LVU121
 476:Middlewares/lvgl/src/extra/widgets/led/../../../../src/hal/../misc/lv_color.h **** }
 427              		.loc 2 476 5 is_stmt 0 view .LVU122
 428              	.LBE146:
 429              	.LBE145:
 185:Middlewares/lvgl/src/extra/widgets/led/lv_led.c ****         rect_dsc.shadow_color = lv_color_mix(led->color, lv_color_black(), lv_color_brightness(rect
 430              		.loc 1 185 34 view .LVU123
 431 01c4 ADF80A10 		strh	r1, [sp, #10]	@ movhi
 186:Middlewares/lvgl/src/extra/widgets/led/lv_led.c ****         rect_dsc.border_color = lv_color_mix(led->color, lv_color_black(), lv_color_brightness(rect
 432              		.loc 1 186 9 is_stmt 1 view .LVU124
 433              	.LBB147:
 434              	.LBI147:
 435              		.loc 2 675 26 view .LVU125
 436              	.LBE147:
 437              	.LBE208:
 438              		.loc 2 675 49 view .LVU126
 439              	.LVL42:
 440              	.LBB209:
 441              	.LBB150:
 442              	.LBB148:
 443              	.LBI148:
 602:Middlewares/lvgl/src/extra/widgets/led/../../../../src/hal/../misc/lv_color.h **** {
 444              		.loc 2 602 26 view .LVU127
 445              	.LBB149:
 604:Middlewares/lvgl/src/extra/widgets/led/../../../../src/hal/../misc/lv_color.h **** }
 446              		.loc 2 604 5 view .LVU128
 604:Middlewares/lvgl/src/extra/widgets/led/../../../../src/hal/../misc/lv_color.h **** }
ARM GAS  /tmp/cceKcmvQ.s 			page 26


 447              		.loc 2 604 5 is_stmt 0 view .LVU129
 448 01c8 BDF82C20 		ldrh	r2, [sp, #44]
 449              	.LBE149:
 450              	.LBE148:
 451              	.LBE150:
 452              	.LBB151:
 453              	.LBI151:
 594:Middlewares/lvgl/src/extra/widgets/led/../../../../src/hal/../misc/lv_color.h **** {
 454              		.loc 2 594 23 is_stmt 1 view .LVU130
 455              	.LBB152:
 596:Middlewares/lvgl/src/extra/widgets/led/../../../../src/hal/../misc/lv_color.h ****     c32.full        = lv_color_to32(color);
 456              		.loc 2 596 5 view .LVU131
 597:Middlewares/lvgl/src/extra/widgets/led/../../../../src/hal/../misc/lv_color.h ****     uint16_t bright = (uint16_t)(3u * LV_COLOR_GET_R32(c32) + LV_COLOR_GET_B32(c32) + 4u * LV_COLOR
 457              		.loc 2 597 5 view .LVU132
 458              	.LBB153:
 459              	.LBI153:
 395:Middlewares/lvgl/src/extra/widgets/led/../../../../src/hal/../misc/lv_color.h **** {
 460              		.loc 2 395 24 view .LVU133
 461              	.LBB154:
 439:Middlewares/lvgl/src/extra/widgets/led/../../../../src/hal/../misc/lv_color.h ****     LV_COLOR_SET_R32(ret, (LV_COLOR_GET_R(color) * 263 + 7) >> 5);
 462              		.loc 2 439 5 view .LVU134
 440:Middlewares/lvgl/src/extra/widgets/led/../../../../src/hal/../misc/lv_color.h ****     LV_COLOR_SET_G32(ret, (LV_COLOR_GET_G(color) * 259 + 3) >> 6);
 463              		.loc 2 440 5 view .LVU135
 464              	.LVL43:
 440:Middlewares/lvgl/src/extra/widgets/led/../../../../src/hal/../misc/lv_color.h ****     LV_COLOR_SET_G32(ret, (LV_COLOR_GET_G(color) * 259 + 3) >> 6);
 465              		.loc 2 440 5 is_stmt 0 view .LVU136
 466 01cc C2F3C423 		ubfx	r3, r2, #11, #5
 467 01d0 03EB4310 		add	r0, r3, r3, lsl #5
 468 01d4 C3EBC003 		rsb	r3, r3, r0, lsl #3
 469 01d8 0733     		adds	r3, r3, #7
 470 01da C3F34713 		ubfx	r3, r3, #5, #8
 471 01de 0020     		movs	r0, #0
 472              	.LVL44:
 440:Middlewares/lvgl/src/extra/widgets/led/../../../../src/hal/../misc/lv_color.h ****     LV_COLOR_SET_G32(ret, (LV_COLOR_GET_G(color) * 259 + 3) >> 6);
 473              		.loc 2 440 5 view .LVU137
 474 01e0 63F31740 		bfi	r0, r3, #16, #8
 475              	.LVL45:
 441:Middlewares/lvgl/src/extra/widgets/led/../../../../src/hal/../misc/lv_color.h ****     LV_COLOR_SET_B32(ret, (LV_COLOR_GET_B(color) * 263 + 7) >> 5);
 476              		.loc 2 441 5 is_stmt 1 view .LVU138
 477 01e4 C2F34513 		ubfx	r3, r2, #5, #6
 478 01e8 03EBC317 		add	r7, r3, r3, lsl #7
 479 01ec 03EB4703 		add	r3, r3, r7, lsl #1
 480 01f0 0333     		adds	r3, r3, #3
 481 01f2 C3F38713 		ubfx	r3, r3, #6, #8
 482 01f6 63F30F20 		bfi	r0, r3, #8, #8
 442:Middlewares/lvgl/src/extra/widgets/led/../../../../src/hal/../misc/lv_color.h ****     LV_COLOR_SET_A32(ret, 0xFF);
 483              		.loc 2 442 5 view .LVU139
 484 01fa 02F01F02 		and	r2, r2, #31
 485              	.LVL46:
 442:Middlewares/lvgl/src/extra/widgets/led/../../../../src/hal/../misc/lv_color.h ****     LV_COLOR_SET_A32(ret, 0xFF);
 486              		.loc 2 442 5 is_stmt 0 view .LVU140
 487 01fe 02EB4213 		add	r3, r2, r2, lsl #5
 488 0202 C2EBC302 		rsb	r2, r2, r3, lsl #3
 489 0206 0732     		adds	r2, r2, #7
 490 0208 C2F34712 		ubfx	r2, r2, #5, #8
 491 020c 62F30700 		bfi	r0, r2, #0, #8
 443:Middlewares/lvgl/src/extra/widgets/led/../../../../src/hal/../misc/lv_color.h ****     return ret.full;
ARM GAS  /tmp/cceKcmvQ.s 			page 27


 492              		.loc 2 443 5 is_stmt 1 view .LVU141
 493 0210 40F07F40 		orr	r0, r0, #-16777216
 494              	.LVL47:
 444:Middlewares/lvgl/src/extra/widgets/led/../../../../src/hal/../misc/lv_color.h **** #elif LV_COLOR_DEPTH == 32
 495              		.loc 2 444 5 view .LVU142
 496              	.LBE154:
 497              	.LBE153:
 598:Middlewares/lvgl/src/extra/widgets/led/../../../../src/hal/../misc/lv_color.h ****     return (uint8_t)(bright >> 3);
 498              		.loc 2 598 5 view .LVU143
 598:Middlewares/lvgl/src/extra/widgets/led/../../../../src/hal/../misc/lv_color.h ****     return (uint8_t)(bright >> 3);
 499              		.loc 2 598 39 is_stmt 0 view .LVU144
 500 0214 C0F30743 		ubfx	r3, r0, #16, #8
 598:Middlewares/lvgl/src/extra/widgets/led/../../../../src/hal/../misc/lv_color.h ****     return (uint8_t)(bright >> 3);
 501              		.loc 2 598 37 view .LVU145
 502 0218 03EB4303 		add	r3, r3, r3, lsl #1
 598:Middlewares/lvgl/src/extra/widgets/led/../../../../src/hal/../misc/lv_color.h ****     return (uint8_t)(bright >> 3);
 503              		.loc 2 598 92 view .LVU146
 504 021c C0F30722 		ubfx	r2, r0, #8, #8
 598:Middlewares/lvgl/src/extra/widgets/led/../../../../src/hal/../misc/lv_color.h ****     return (uint8_t)(bright >> 3);
 505              		.loc 2 598 85 view .LVU147
 506 0220 03EB8203 		add	r3, r3, r2, lsl #2
 598:Middlewares/lvgl/src/extra/widgets/led/../../../../src/hal/../misc/lv_color.h ****     return (uint8_t)(bright >> 3);
 507              		.loc 2 598 63 view .LVU148
 508 0224 C0B2     		uxtb	r0, r0
 509              	.LVL48:
 598:Middlewares/lvgl/src/extra/widgets/led/../../../../src/hal/../misc/lv_color.h ****     return (uint8_t)(bright >> 3);
 510              		.loc 2 598 14 view .LVU149
 511 0226 10FA83F0 		uxtah	r0, r0, r3
 512              	.LVL49:
 599:Middlewares/lvgl/src/extra/widgets/led/../../../../src/hal/../misc/lv_color.h **** }
 513              		.loc 2 599 5 is_stmt 1 view .LVU150
 599:Middlewares/lvgl/src/extra/widgets/led/../../../../src/hal/../misc/lv_color.h **** }
 514              		.loc 2 599 12 is_stmt 0 view .LVU151
 515 022a C0F3C703 		ubfx	r3, r0, #3, #8
 516              	.LVL50:
 599:Middlewares/lvgl/src/extra/widgets/led/../../../../src/hal/../misc/lv_color.h **** }
 517              		.loc 2 599 12 view .LVU152
 518              	.LBE152:
 519              	.LBE151:
 520              	.LBB155:
 521              	.LBI155:
 459:Middlewares/lvgl/src/extra/widgets/led/../../../../src/hal/../misc/lv_color.h **** {
 522              		.loc 2 459 48 is_stmt 1 view .LVU153
 523              	.LBB156:
 461:Middlewares/lvgl/src/extra/widgets/led/../../../../src/hal/../misc/lv_color.h **** #if LV_COLOR_DEPTH != 1
 524              		.loc 2 461 5 view .LVU154
 464:Middlewares/lvgl/src/extra/widgets/led/../../../../src/hal/../misc/lv_color.h ****                                         (255 - mix) + LV_COLOR_MIX_ROUND_OFS));
 525              		.loc 2 464 5 view .LVU155
 526 022e CCF3C422 		ubfx	r2, ip, #11, #5
 527 0232 03FB02F2 		mul	r2, r3, r2
 528 0236 8032     		adds	r2, r2, #128
 529 0238 02EB0220 		add	r0, r2, r2, lsl #8
 530 023c 02EBC012 		add	r2, r2, r0, lsl #7
 531 0240 C2F3C452 		ubfx	r2, r2, #23, #5
 532 0244 4FF00000 		mov	r0, #0	@ movhi
 533              	.LVL51:
 464:Middlewares/lvgl/src/extra/widgets/led/../../../../src/hal/../misc/lv_color.h ****                                         (255 - mix) + LV_COLOR_MIX_ROUND_OFS));
ARM GAS  /tmp/cceKcmvQ.s 			page 28


 534              		.loc 2 464 5 is_stmt 0 view .LVU156
 535 0248 62F3CF20 		bfi	r0, r2, #11, #5
 536              	.LVL52:
 466:Middlewares/lvgl/src/extra/widgets/led/../../../../src/hal/../misc/lv_color.h ****                                         (255 - mix) + LV_COLOR_MIX_ROUND_OFS));
 537              		.loc 2 466 5 is_stmt 1 view .LVU157
 538 024c CCF34512 		ubfx	r2, ip, #5, #6
 539 0250 03FB02F2 		mul	r2, r3, r2
 540 0254 8032     		adds	r2, r2, #128
 541 0256 02EB0227 		add	r7, r2, r2, lsl #8
 542 025a 02EBC712 		add	r2, r2, r7, lsl #7
 543 025e C2F3C552 		ubfx	r2, r2, #23, #6
 544 0262 62F34A10 		bfi	r0, r2, #5, #6
 468:Middlewares/lvgl/src/extra/widgets/led/../../../../src/hal/../misc/lv_color.h ****                                         (255 - mix) + LV_COLOR_MIX_ROUND_OFS));
 545              		.loc 2 468 5 view .LVU158
 546 0266 0CF01F0C 		and	ip, ip, #31
 547              	.LVL53:
 468:Middlewares/lvgl/src/extra/widgets/led/../../../../src/hal/../misc/lv_color.h ****                                         (255 - mix) + LV_COLOR_MIX_ROUND_OFS));
 548              		.loc 2 468 5 is_stmt 0 view .LVU159
 549 026a 0CFB03F3 		mul	r3, ip, r3
 550              	.LVL54:
 468:Middlewares/lvgl/src/extra/widgets/led/../../../../src/hal/../misc/lv_color.h ****                                         (255 - mix) + LV_COLOR_MIX_ROUND_OFS));
 551              		.loc 2 468 5 view .LVU160
 552 026e 8033     		adds	r3, r3, #128
 553 0270 03EB0322 		add	r2, r3, r3, lsl #8
 554 0274 03EBC213 		add	r3, r3, r2, lsl #7
 555 0278 C3F3C453 		ubfx	r3, r3, #23, #5
 556 027c 63F30400 		bfi	r0, r3, #0, #5
 470:Middlewares/lvgl/src/extra/widgets/led/../../../../src/hal/../misc/lv_color.h **** #else
 557              		.loc 2 470 5 is_stmt 1 view .LVU161
 470:Middlewares/lvgl/src/extra/widgets/led/../../../../src/hal/../misc/lv_color.h **** #else
 558              		.loc 2 470 5 view .LVU162
 470:Middlewares/lvgl/src/extra/widgets/led/../../../../src/hal/../misc/lv_color.h **** #else
 559              		.loc 2 470 5 view .LVU163
 476:Middlewares/lvgl/src/extra/widgets/led/../../../../src/hal/../misc/lv_color.h **** }
 560              		.loc 2 476 5 view .LVU164
 476:Middlewares/lvgl/src/extra/widgets/led/../../../../src/hal/../misc/lv_color.h **** }
 561              		.loc 2 476 5 is_stmt 0 view .LVU165
 562              	.LBE156:
 563              	.LBE155:
 186:Middlewares/lvgl/src/extra/widgets/led/lv_led.c ****         rect_dsc.border_color = lv_color_mix(led->color, lv_color_black(), lv_color_brightness(rect
 564              		.loc 1 186 33 view .LVU166
 565 0280 ADF82C00 		strh	r0, [sp, #44]	@ movhi
 187:Middlewares/lvgl/src/extra/widgets/led/lv_led.c ****         rect_dsc.outline_color = lv_color_mix(led->color, lv_color_black(), lv_color_brightness(rec
 566              		.loc 1 187 9 is_stmt 1 view .LVU167
 567              	.LBB157:
 568              	.LBI157:
 569              		.loc 2 675 26 view .LVU168
 570              	.LBE157:
 571              	.LBE209:
 572              		.loc 2 675 49 view .LVU169
 573              	.LVL55:
 574              	.LBB210:
 575              	.LBB160:
 576              	.LBB158:
 577              	.LBI158:
 602:Middlewares/lvgl/src/extra/widgets/led/../../../../src/hal/../misc/lv_color.h **** {
 578              		.loc 2 602 26 view .LVU170
ARM GAS  /tmp/cceKcmvQ.s 			page 29


 579              	.LBB159:
 604:Middlewares/lvgl/src/extra/widgets/led/../../../../src/hal/../misc/lv_color.h **** }
 580              		.loc 2 604 5 view .LVU171
 604:Middlewares/lvgl/src/extra/widgets/led/../../../../src/hal/../misc/lv_color.h **** }
 581              		.loc 2 604 5 is_stmt 0 view .LVU172
 582 0284 BDF81E30 		ldrh	r3, [sp, #30]
 583              	.LBE159:
 584              	.LBE158:
 585              	.LBE160:
 586              	.LBB161:
 587              	.LBI161:
 594:Middlewares/lvgl/src/extra/widgets/led/../../../../src/hal/../misc/lv_color.h **** {
 588              		.loc 2 594 23 is_stmt 1 view .LVU173
 589              	.LBB162:
 596:Middlewares/lvgl/src/extra/widgets/led/../../../../src/hal/../misc/lv_color.h ****     c32.full        = lv_color_to32(color);
 590              		.loc 2 596 5 view .LVU174
 597:Middlewares/lvgl/src/extra/widgets/led/../../../../src/hal/../misc/lv_color.h ****     uint16_t bright = (uint16_t)(3u * LV_COLOR_GET_R32(c32) + LV_COLOR_GET_B32(c32) + 4u * LV_COLOR
 591              		.loc 2 597 5 view .LVU175
 592              	.LBB163:
 593              	.LBI163:
 395:Middlewares/lvgl/src/extra/widgets/led/../../../../src/hal/../misc/lv_color.h **** {
 594              		.loc 2 395 24 view .LVU176
 595              	.LBB164:
 439:Middlewares/lvgl/src/extra/widgets/led/../../../../src/hal/../misc/lv_color.h ****     LV_COLOR_SET_R32(ret, (LV_COLOR_GET_R(color) * 263 + 7) >> 5);
 596              		.loc 2 439 5 view .LVU177
 440:Middlewares/lvgl/src/extra/widgets/led/../../../../src/hal/../misc/lv_color.h ****     LV_COLOR_SET_G32(ret, (LV_COLOR_GET_G(color) * 259 + 3) >> 6);
 597              		.loc 2 440 5 view .LVU178
 598              	.LVL56:
 440:Middlewares/lvgl/src/extra/widgets/led/../../../../src/hal/../misc/lv_color.h ****     LV_COLOR_SET_G32(ret, (LV_COLOR_GET_G(color) * 259 + 3) >> 6);
 599              		.loc 2 440 5 is_stmt 0 view .LVU179
 600 0288 C3F3C422 		ubfx	r2, r3, #11, #5
 601 028c 02EB4217 		add	r7, r2, r2, lsl #5
 602 0290 C2EBC707 		rsb	r7, r2, r7, lsl #3
 603 0294 0737     		adds	r7, r7, #7
 604 0296 C7F34717 		ubfx	r7, r7, #5, #8
 605 029a 0022     		movs	r2, #0
 606              	.LVL57:
 440:Middlewares/lvgl/src/extra/widgets/led/../../../../src/hal/../misc/lv_color.h ****     LV_COLOR_SET_G32(ret, (LV_COLOR_GET_G(color) * 259 + 3) >> 6);
 607              		.loc 2 440 5 view .LVU180
 608 029c 67F31742 		bfi	r2, r7, #16, #8
 609              	.LVL58:
 441:Middlewares/lvgl/src/extra/widgets/led/../../../../src/hal/../misc/lv_color.h ****     LV_COLOR_SET_B32(ret, (LV_COLOR_GET_B(color) * 263 + 7) >> 5);
 610              		.loc 2 441 5 is_stmt 1 view .LVU181
 611 02a0 C3F34517 		ubfx	r7, r3, #5, #6
 612 02a4 07EBC71C 		add	ip, r7, r7, lsl #7
 613 02a8 07EB4C07 		add	r7, r7, ip, lsl #1
 614 02ac 0337     		adds	r7, r7, #3
 615 02ae C7F38717 		ubfx	r7, r7, #6, #8
 616 02b2 67F30F22 		bfi	r2, r7, #8, #8
 442:Middlewares/lvgl/src/extra/widgets/led/../../../../src/hal/../misc/lv_color.h ****     LV_COLOR_SET_A32(ret, 0xFF);
 617              		.loc 2 442 5 view .LVU182
 618 02b6 03F01F03 		and	r3, r3, #31
 619              	.LVL59:
 442:Middlewares/lvgl/src/extra/widgets/led/../../../../src/hal/../misc/lv_color.h ****     LV_COLOR_SET_A32(ret, 0xFF);
 620              		.loc 2 442 5 is_stmt 0 view .LVU183
 621 02ba 03EB4317 		add	r7, r3, r3, lsl #5
 622 02be C3EBC703 		rsb	r3, r3, r7, lsl #3
ARM GAS  /tmp/cceKcmvQ.s 			page 30


 623 02c2 0733     		adds	r3, r3, #7
 624 02c4 C3F34713 		ubfx	r3, r3, #5, #8
 625 02c8 63F30702 		bfi	r2, r3, #0, #8
 443:Middlewares/lvgl/src/extra/widgets/led/../../../../src/hal/../misc/lv_color.h ****     return ret.full;
 626              		.loc 2 443 5 is_stmt 1 view .LVU184
 627 02cc 42F07F42 		orr	r2, r2, #-16777216
 628              	.LVL60:
 444:Middlewares/lvgl/src/extra/widgets/led/../../../../src/hal/../misc/lv_color.h **** #elif LV_COLOR_DEPTH == 32
 629              		.loc 2 444 5 view .LVU185
 630              	.LBE164:
 631              	.LBE163:
 598:Middlewares/lvgl/src/extra/widgets/led/../../../../src/hal/../misc/lv_color.h ****     return (uint8_t)(bright >> 3);
 632              		.loc 2 598 5 view .LVU186
 598:Middlewares/lvgl/src/extra/widgets/led/../../../../src/hal/../misc/lv_color.h ****     return (uint8_t)(bright >> 3);
 633              		.loc 2 598 39 is_stmt 0 view .LVU187
 634 02d0 C2F3074C 		ubfx	ip, r2, #16, #8
 598:Middlewares/lvgl/src/extra/widgets/led/../../../../src/hal/../misc/lv_color.h ****     return (uint8_t)(bright >> 3);
 635              		.loc 2 598 37 view .LVU188
 636 02d4 0CEB4C0C 		add	ip, ip, ip, lsl #1
 598:Middlewares/lvgl/src/extra/widgets/led/../../../../src/hal/../misc/lv_color.h ****     return (uint8_t)(bright >> 3);
 637              		.loc 2 598 92 view .LVU189
 638 02d8 C2F30723 		ubfx	r3, r2, #8, #8
 598:Middlewares/lvgl/src/extra/widgets/led/../../../../src/hal/../misc/lv_color.h ****     return (uint8_t)(bright >> 3);
 639              		.loc 2 598 85 view .LVU190
 640 02dc 0CEB830C 		add	ip, ip, r3, lsl #2
 598:Middlewares/lvgl/src/extra/widgets/led/../../../../src/hal/../misc/lv_color.h ****     return (uint8_t)(bright >> 3);
 641              		.loc 2 598 63 view .LVU191
 642 02e0 D2B2     		uxtb	r2, r2
 643              	.LVL61:
 598:Middlewares/lvgl/src/extra/widgets/led/../../../../src/hal/../misc/lv_color.h ****     return (uint8_t)(bright >> 3);
 644              		.loc 2 598 14 view .LVU192
 645 02e2 12FA8CF2 		uxtah	r2, r2, ip
 646              	.LVL62:
 599:Middlewares/lvgl/src/extra/widgets/led/../../../../src/hal/../misc/lv_color.h **** }
 647              		.loc 2 599 5 is_stmt 1 view .LVU193
 599:Middlewares/lvgl/src/extra/widgets/led/../../../../src/hal/../misc/lv_color.h **** }
 648              		.loc 2 599 12 is_stmt 0 view .LVU194
 649 02e6 C2F3C70C 		ubfx	ip, r2, #3, #8
 650              	.LVL63:
 599:Middlewares/lvgl/src/extra/widgets/led/../../../../src/hal/../misc/lv_color.h **** }
 651              		.loc 2 599 12 view .LVU195
 652 02ea B6F824E0 		ldrh	lr, [r6, #36]
 653              	.LVL64:
 599:Middlewares/lvgl/src/extra/widgets/led/../../../../src/hal/../misc/lv_color.h **** }
 654              		.loc 2 599 12 view .LVU196
 655              	.LBE162:
 656              	.LBE161:
 657              	.LBB165:
 658              	.LBI165:
 459:Middlewares/lvgl/src/extra/widgets/led/../../../../src/hal/../misc/lv_color.h **** {
 659              		.loc 2 459 48 is_stmt 1 view .LVU197
 660              	.LBB166:
 461:Middlewares/lvgl/src/extra/widgets/led/../../../../src/hal/../misc/lv_color.h **** #if LV_COLOR_DEPTH != 1
 661              		.loc 2 461 5 view .LVU198
 464:Middlewares/lvgl/src/extra/widgets/led/../../../../src/hal/../misc/lv_color.h ****                                         (255 - mix) + LV_COLOR_MIX_ROUND_OFS));
 662              		.loc 2 464 5 view .LVU199
 464:Middlewares/lvgl/src/extra/widgets/led/../../../../src/hal/../misc/lv_color.h ****                                         (255 - mix) + LV_COLOR_MIX_ROUND_OFS));
ARM GAS  /tmp/cceKcmvQ.s 			page 31


 663              		.loc 2 464 5 is_stmt 0 view .LVU200
 664 02ee CEF3C423 		ubfx	r3, lr, #11, #5
 665 02f2 0CFB03F3 		mul	r3, ip, r3
 666 02f6 8033     		adds	r3, r3, #128
 667 02f8 03EB0322 		add	r2, r3, r3, lsl #8
 668 02fc 03EBC213 		add	r3, r3, r2, lsl #7
 669 0300 C3F3C453 		ubfx	r3, r3, #23, #5
 670 0304 4FF00002 		mov	r2, #0	@ movhi
 671              	.LVL65:
 464:Middlewares/lvgl/src/extra/widgets/led/../../../../src/hal/../misc/lv_color.h ****                                         (255 - mix) + LV_COLOR_MIX_ROUND_OFS));
 672              		.loc 2 464 5 view .LVU201
 673 0308 63F3CF22 		bfi	r2, r3, #11, #5
 674              	.LVL66:
 466:Middlewares/lvgl/src/extra/widgets/led/../../../../src/hal/../misc/lv_color.h ****                                         (255 - mix) + LV_COLOR_MIX_ROUND_OFS));
 675              		.loc 2 466 5 is_stmt 1 view .LVU202
 676 030c CEF34513 		ubfx	r3, lr, #5, #6
 677 0310 03FB0CF3 		mul	r3, r3, ip
 678 0314 8033     		adds	r3, r3, #128
 679 0316 03EB0327 		add	r7, r3, r3, lsl #8
 680 031a 03EBC713 		add	r3, r3, r7, lsl #7
 681 031e C3F3C553 		ubfx	r3, r3, #23, #6
 682 0322 63F34A12 		bfi	r2, r3, #5, #6
 468:Middlewares/lvgl/src/extra/widgets/led/../../../../src/hal/../misc/lv_color.h ****                                         (255 - mix) + LV_COLOR_MIX_ROUND_OFS));
 683              		.loc 2 468 5 view .LVU203
 684 0326 0EF01F03 		and	r3, lr, #31
 685 032a 03FB0CFC 		mul	ip, r3, ip
 686              	.LVL67:
 468:Middlewares/lvgl/src/extra/widgets/led/../../../../src/hal/../misc/lv_color.h ****                                         (255 - mix) + LV_COLOR_MIX_ROUND_OFS));
 687              		.loc 2 468 5 is_stmt 0 view .LVU204
 688 032e 0CF1800C 		add	ip, ip, #128
 689 0332 0CEB0C23 		add	r3, ip, ip, lsl #8
 690 0336 0CEBC31C 		add	ip, ip, r3, lsl #7
 691 033a CCF3C45C 		ubfx	ip, ip, #23, #5
 692 033e 6CF30402 		bfi	r2, ip, #0, #5
 470:Middlewares/lvgl/src/extra/widgets/led/../../../../src/hal/../misc/lv_color.h **** #else
 693              		.loc 2 470 5 is_stmt 1 view .LVU205
 470:Middlewares/lvgl/src/extra/widgets/led/../../../../src/hal/../misc/lv_color.h **** #else
 694              		.loc 2 470 5 view .LVU206
 470:Middlewares/lvgl/src/extra/widgets/led/../../../../src/hal/../misc/lv_color.h **** #else
 695              		.loc 2 470 5 view .LVU207
 476:Middlewares/lvgl/src/extra/widgets/led/../../../../src/hal/../misc/lv_color.h **** }
 696              		.loc 2 476 5 view .LVU208
 476:Middlewares/lvgl/src/extra/widgets/led/../../../../src/hal/../misc/lv_color.h **** }
 697              		.loc 2 476 5 is_stmt 0 view .LVU209
 698              	.LBE166:
 699              	.LBE165:
 187:Middlewares/lvgl/src/extra/widgets/led/lv_led.c ****         rect_dsc.outline_color = lv_color_mix(led->color, lv_color_black(), lv_color_brightness(rec
 700              		.loc 1 187 33 view .LVU210
 701 0342 ADF81E20 		strh	r2, [sp, #30]	@ movhi
 188:Middlewares/lvgl/src/extra/widgets/led/lv_led.c **** 
 702              		.loc 1 188 9 is_stmt 1 view .LVU211
 703              	.LBB167:
 704              	.LBI167:
 705              		.loc 2 675 26 view .LVU212
 706              	.LBE167:
 707              	.LBE210:
 708              		.loc 2 675 49 view .LVU213
ARM GAS  /tmp/cceKcmvQ.s 			page 32


 709              	.LVL68:
 710              	.LBB211:
 711              	.LBB170:
 712              	.LBB168:
 713              	.LBI168:
 602:Middlewares/lvgl/src/extra/widgets/led/../../../../src/hal/../misc/lv_color.h **** {
 714              		.loc 2 602 26 view .LVU214
 715              	.LBB169:
 604:Middlewares/lvgl/src/extra/widgets/led/../../../../src/hal/../misc/lv_color.h **** }
 716              		.loc 2 604 5 view .LVU215
 604:Middlewares/lvgl/src/extra/widgets/led/../../../../src/hal/../misc/lv_color.h **** }
 717              		.loc 2 604 5 is_stmt 0 view .LVU216
 718 0346 BDF824C0 		ldrh	ip, [sp, #36]
 719              	.LBE169:
 720              	.LBE168:
 721              	.LBE170:
 722              	.LBB171:
 723              	.LBI171:
 594:Middlewares/lvgl/src/extra/widgets/led/../../../../src/hal/../misc/lv_color.h **** {
 724              		.loc 2 594 23 is_stmt 1 view .LVU217
 725              	.LBB172:
 596:Middlewares/lvgl/src/extra/widgets/led/../../../../src/hal/../misc/lv_color.h ****     c32.full        = lv_color_to32(color);
 726              		.loc 2 596 5 view .LVU218
 597:Middlewares/lvgl/src/extra/widgets/led/../../../../src/hal/../misc/lv_color.h ****     uint16_t bright = (uint16_t)(3u * LV_COLOR_GET_R32(c32) + LV_COLOR_GET_B32(c32) + 4u * LV_COLOR
 727              		.loc 2 597 5 view .LVU219
 728              	.LBB173:
 729              	.LBI173:
 395:Middlewares/lvgl/src/extra/widgets/led/../../../../src/hal/../misc/lv_color.h **** {
 730              		.loc 2 395 24 view .LVU220
 731              	.LBB174:
 439:Middlewares/lvgl/src/extra/widgets/led/../../../../src/hal/../misc/lv_color.h ****     LV_COLOR_SET_R32(ret, (LV_COLOR_GET_R(color) * 263 + 7) >> 5);
 732              		.loc 2 439 5 view .LVU221
 440:Middlewares/lvgl/src/extra/widgets/led/../../../../src/hal/../misc/lv_color.h ****     LV_COLOR_SET_G32(ret, (LV_COLOR_GET_G(color) * 259 + 3) >> 6);
 733              		.loc 2 440 5 view .LVU222
 734              	.LVL69:
 440:Middlewares/lvgl/src/extra/widgets/led/../../../../src/hal/../misc/lv_color.h ****     LV_COLOR_SET_G32(ret, (LV_COLOR_GET_G(color) * 259 + 3) >> 6);
 735              		.loc 2 440 5 is_stmt 0 view .LVU223
 736 034a CCF3C423 		ubfx	r3, ip, #11, #5
 737 034e 03EB4317 		add	r7, r3, r3, lsl #5
 738 0352 C3EBC703 		rsb	r3, r3, r7, lsl #3
 739 0356 0733     		adds	r3, r3, #7
 740 0358 C3F34713 		ubfx	r3, r3, #5, #8
 741 035c 0027     		movs	r7, #0
 742              	.LVL70:
 440:Middlewares/lvgl/src/extra/widgets/led/../../../../src/hal/../misc/lv_color.h ****     LV_COLOR_SET_G32(ret, (LV_COLOR_GET_G(color) * 259 + 3) >> 6);
 743              		.loc 2 440 5 view .LVU224
 744 035e 63F31747 		bfi	r7, r3, #16, #8
 745              	.LVL71:
 441:Middlewares/lvgl/src/extra/widgets/led/../../../../src/hal/../misc/lv_color.h ****     LV_COLOR_SET_B32(ret, (LV_COLOR_GET_B(color) * 263 + 7) >> 5);
 746              		.loc 2 441 5 is_stmt 1 view .LVU225
 747 0362 CCF34513 		ubfx	r3, ip, #5, #6
 748 0366 03EBC318 		add	r8, r3, r3, lsl #7
 749 036a 03EB4803 		add	r3, r3, r8, lsl #1
 750 036e 0333     		adds	r3, r3, #3
 751 0370 C3F38713 		ubfx	r3, r3, #6, #8
 752 0374 63F30F27 		bfi	r7, r3, #8, #8
 442:Middlewares/lvgl/src/extra/widgets/led/../../../../src/hal/../misc/lv_color.h ****     LV_COLOR_SET_A32(ret, 0xFF);
ARM GAS  /tmp/cceKcmvQ.s 			page 33


 753              		.loc 2 442 5 view .LVU226
 754 0378 0CF01F0C 		and	ip, ip, #31
 755              	.LVL72:
 442:Middlewares/lvgl/src/extra/widgets/led/../../../../src/hal/../misc/lv_color.h ****     LV_COLOR_SET_A32(ret, 0xFF);
 756              		.loc 2 442 5 is_stmt 0 view .LVU227
 757 037c 0CEB4C13 		add	r3, ip, ip, lsl #5
 758 0380 CCEBC30C 		rsb	ip, ip, r3, lsl #3
 759 0384 0CF1070C 		add	ip, ip, #7
 760 0388 CCF3471C 		ubfx	ip, ip, #5, #8
 761 038c 6CF30707 		bfi	r7, ip, #0, #8
 443:Middlewares/lvgl/src/extra/widgets/led/../../../../src/hal/../misc/lv_color.h ****     return ret.full;
 762              		.loc 2 443 5 is_stmt 1 view .LVU228
 763 0390 47F07F47 		orr	r7, r7, #-16777216
 764              	.LVL73:
 444:Middlewares/lvgl/src/extra/widgets/led/../../../../src/hal/../misc/lv_color.h **** #elif LV_COLOR_DEPTH == 32
 765              		.loc 2 444 5 view .LVU229
 766              	.LBE174:
 767              	.LBE173:
 598:Middlewares/lvgl/src/extra/widgets/led/../../../../src/hal/../misc/lv_color.h ****     return (uint8_t)(bright >> 3);
 768              		.loc 2 598 5 view .LVU230
 598:Middlewares/lvgl/src/extra/widgets/led/../../../../src/hal/../misc/lv_color.h ****     return (uint8_t)(bright >> 3);
 769              		.loc 2 598 39 is_stmt 0 view .LVU231
 770 0394 C7F30743 		ubfx	r3, r7, #16, #8
 598:Middlewares/lvgl/src/extra/widgets/led/../../../../src/hal/../misc/lv_color.h ****     return (uint8_t)(bright >> 3);
 771              		.loc 2 598 37 view .LVU232
 772 0398 03EB4303 		add	r3, r3, r3, lsl #1
 598:Middlewares/lvgl/src/extra/widgets/led/../../../../src/hal/../misc/lv_color.h ****     return (uint8_t)(bright >> 3);
 773              		.loc 2 598 92 view .LVU233
 774 039c C7F3072C 		ubfx	ip, r7, #8, #8
 598:Middlewares/lvgl/src/extra/widgets/led/../../../../src/hal/../misc/lv_color.h ****     return (uint8_t)(bright >> 3);
 775              		.loc 2 598 85 view .LVU234
 776 03a0 03EB8C03 		add	r3, r3, ip, lsl #2
 598:Middlewares/lvgl/src/extra/widgets/led/../../../../src/hal/../misc/lv_color.h ****     return (uint8_t)(bright >> 3);
 777              		.loc 2 598 63 view .LVU235
 778 03a4 FFB2     		uxtb	r7, r7
 779              	.LVL74:
 598:Middlewares/lvgl/src/extra/widgets/led/../../../../src/hal/../misc/lv_color.h ****     return (uint8_t)(bright >> 3);
 780              		.loc 2 598 14 view .LVU236
 781 03a6 17FA83F7 		uxtah	r7, r7, r3
 782              	.LVL75:
 599:Middlewares/lvgl/src/extra/widgets/led/../../../../src/hal/../misc/lv_color.h **** }
 783              		.loc 2 599 5 is_stmt 1 view .LVU237
 599:Middlewares/lvgl/src/extra/widgets/led/../../../../src/hal/../misc/lv_color.h **** }
 784              		.loc 2 599 12 is_stmt 0 view .LVU238
 785 03aa C7F3C703 		ubfx	r3, r7, #3, #8
 786              	.LVL76:
 599:Middlewares/lvgl/src/extra/widgets/led/../../../../src/hal/../misc/lv_color.h **** }
 787              		.loc 2 599 12 view .LVU239
 788              	.LBE172:
 789              	.LBE171:
 790              	.LBB175:
 791              	.LBI175:
 459:Middlewares/lvgl/src/extra/widgets/led/../../../../src/hal/../misc/lv_color.h **** {
 792              		.loc 2 459 48 is_stmt 1 view .LVU240
 793              	.LBB176:
 461:Middlewares/lvgl/src/extra/widgets/led/../../../../src/hal/../misc/lv_color.h **** #if LV_COLOR_DEPTH != 1
 794              		.loc 2 461 5 view .LVU241
ARM GAS  /tmp/cceKcmvQ.s 			page 34


 464:Middlewares/lvgl/src/extra/widgets/led/../../../../src/hal/../misc/lv_color.h ****                                         (255 - mix) + LV_COLOR_MIX_ROUND_OFS));
 795              		.loc 2 464 5 view .LVU242
 796 03ae CEF3C427 		ubfx	r7, lr, #11, #5
 797 03b2 03FB07F7 		mul	r7, r3, r7
 798 03b6 8037     		adds	r7, r7, #128
 799 03b8 07EB072C 		add	ip, r7, r7, lsl #8
 800 03bc 07EBCC17 		add	r7, r7, ip, lsl #7
 801 03c0 C7F3C45C 		ubfx	ip, r7, #23, #5
 802 03c4 4FF00007 		mov	r7, #0	@ movhi
 803              	.LVL77:
 464:Middlewares/lvgl/src/extra/widgets/led/../../../../src/hal/../misc/lv_color.h ****                                         (255 - mix) + LV_COLOR_MIX_ROUND_OFS));
 804              		.loc 2 464 5 is_stmt 0 view .LVU243
 805 03c8 6CF3CF27 		bfi	r7, ip, #11, #5
 806              	.LVL78:
 466:Middlewares/lvgl/src/extra/widgets/led/../../../../src/hal/../misc/lv_color.h ****                                         (255 - mix) + LV_COLOR_MIX_ROUND_OFS));
 807              		.loc 2 466 5 is_stmt 1 view .LVU244
 808 03cc CEF3451C 		ubfx	ip, lr, #5, #6
 809 03d0 0CFB03FC 		mul	ip, ip, r3
 810 03d4 0CF1800C 		add	ip, ip, #128
 811 03d8 0CEB0C28 		add	r8, ip, ip, lsl #8
 812 03dc 0CEBC81C 		add	ip, ip, r8, lsl #7
 813 03e0 CCF3C55C 		ubfx	ip, ip, #23, #6
 814 03e4 6CF34A17 		bfi	r7, ip, #5, #6
 468:Middlewares/lvgl/src/extra/widgets/led/../../../../src/hal/../misc/lv_color.h ****                                         (255 - mix) + LV_COLOR_MIX_ROUND_OFS));
 815              		.loc 2 468 5 view .LVU245
 816 03e8 0EF01F0E 		and	lr, lr, #31
 817              	.LVL79:
 468:Middlewares/lvgl/src/extra/widgets/led/../../../../src/hal/../misc/lv_color.h ****                                         (255 - mix) + LV_COLOR_MIX_ROUND_OFS));
 818              		.loc 2 468 5 is_stmt 0 view .LVU246
 819 03ec 0EFB03F3 		mul	r3, lr, r3
 820              	.LVL80:
 468:Middlewares/lvgl/src/extra/widgets/led/../../../../src/hal/../misc/lv_color.h ****                                         (255 - mix) + LV_COLOR_MIX_ROUND_OFS));
 821              		.loc 2 468 5 view .LVU247
 822 03f0 8033     		adds	r3, r3, #128
 823 03f2 03EB032C 		add	ip, r3, r3, lsl #8
 824 03f6 03EBCC13 		add	r3, r3, ip, lsl #7
 825 03fa C3F3C453 		ubfx	r3, r3, #23, #5
 826 03fe 63F30407 		bfi	r7, r3, #0, #5
 470:Middlewares/lvgl/src/extra/widgets/led/../../../../src/hal/../misc/lv_color.h **** #else
 827              		.loc 2 470 5 is_stmt 1 view .LVU248
 470:Middlewares/lvgl/src/extra/widgets/led/../../../../src/hal/../misc/lv_color.h **** #else
 828              		.loc 2 470 5 view .LVU249
 470:Middlewares/lvgl/src/extra/widgets/led/../../../../src/hal/../misc/lv_color.h **** #else
 829              		.loc 2 470 5 view .LVU250
 476:Middlewares/lvgl/src/extra/widgets/led/../../../../src/hal/../misc/lv_color.h **** }
 830              		.loc 2 476 5 view .LVU251
 476:Middlewares/lvgl/src/extra/widgets/led/../../../../src/hal/../misc/lv_color.h **** }
 831              		.loc 2 476 5 is_stmt 0 view .LVU252
 832              	.LBE176:
 833              	.LBE175:
 188:Middlewares/lvgl/src/extra/widgets/led/lv_led.c **** 
 834              		.loc 1 188 34 view .LVU253
 835 0402 ADF82470 		strh	r7, [sp, #36]	@ movhi
 191:Middlewares/lvgl/src/extra/widgets/led/lv_led.c ****         rect_dsc.bg_grad_color   = lv_color_mix(rect_dsc.bg_grad_color, lv_color_black(), led->brig
 836              		.loc 1 191 9 is_stmt 1 view .LVU254
 837              	.LBB177:
 838              	.LBI177:
ARM GAS  /tmp/cceKcmvQ.s 			page 35


 839              		.loc 2 675 26 view .LVU255
 840              	.LBE177:
 841              	.LBE211:
 842              		.loc 2 675 49 view .LVU256
 843              	.LVL81:
 844              	.LBB212:
 845              	.LBB180:
 846              	.LBB178:
 847              	.LBI178:
 602:Middlewares/lvgl/src/extra/widgets/led/../../../../src/hal/../misc/lv_color.h **** {
 848              		.loc 2 602 26 view .LVU257
 849              	.LBB179:
 604:Middlewares/lvgl/src/extra/widgets/led/../../../../src/hal/../misc/lv_color.h **** }
 850              		.loc 2 604 5 view .LVU258
 604:Middlewares/lvgl/src/extra/widgets/led/../../../../src/hal/../misc/lv_color.h **** }
 851              		.loc 2 604 5 is_stmt 0 view .LVU259
 852              	.LBE179:
 853              	.LBE178:
 854              	.LBE180:
 191:Middlewares/lvgl/src/extra/widgets/led/lv_led.c ****         rect_dsc.bg_grad_color   = lv_color_mix(rect_dsc.bg_grad_color, lv_color_black(), led->brig
 855              		.loc 1 191 31 view .LVU260
 856 0406 96F82630 		ldrb	r3, [r6, #38]	@ zero_extendqisi2
 857              	.LVL82:
 858              	.LBB181:
 859              	.LBI181:
 459:Middlewares/lvgl/src/extra/widgets/led/../../../../src/hal/../misc/lv_color.h **** {
 860              		.loc 2 459 48 is_stmt 1 view .LVU261
 861              	.LBB182:
 461:Middlewares/lvgl/src/extra/widgets/led/../../../../src/hal/../misc/lv_color.h **** #if LV_COLOR_DEPTH != 1
 862              		.loc 2 461 5 view .LVU262
 464:Middlewares/lvgl/src/extra/widgets/led/../../../../src/hal/../misc/lv_color.h ****                                         (255 - mix) + LV_COLOR_MIX_ROUND_OFS));
 863              		.loc 2 464 5 view .LVU263
 864 040a C5F3C42C 		ubfx	ip, r5, #11, #5
 865 040e 03FB0CFC 		mul	ip, r3, ip
 866 0412 0CF1800C 		add	ip, ip, #128
 867 0416 0CEB0C27 		add	r7, ip, ip, lsl #8
 868              	.LVL83:
 464:Middlewares/lvgl/src/extra/widgets/led/../../../../src/hal/../misc/lv_color.h ****                                         (255 - mix) + LV_COLOR_MIX_ROUND_OFS));
 869              		.loc 2 464 5 is_stmt 0 view .LVU264
 870 041a 0CEBC71C 		add	ip, ip, r7, lsl #7
 871 041e CCF3C45C 		ubfx	ip, ip, #23, #5
 872 0422 4FF0000E 		mov	lr, #0	@ movhi
 873              	.LVL84:
 464:Middlewares/lvgl/src/extra/widgets/led/../../../../src/hal/../misc/lv_color.h ****                                         (255 - mix) + LV_COLOR_MIX_ROUND_OFS));
 874              		.loc 2 464 5 view .LVU265
 875 0426 6CF3CF2E 		bfi	lr, ip, #11, #5
 876              	.LVL85:
 466:Middlewares/lvgl/src/extra/widgets/led/../../../../src/hal/../misc/lv_color.h ****                                         (255 - mix) + LV_COLOR_MIX_ROUND_OFS));
 877              		.loc 2 466 5 is_stmt 1 view .LVU266
 878 042a C5F3451C 		ubfx	ip, r5, #5, #6
 879 042e 0CFB03FC 		mul	ip, ip, r3
 880 0432 0CF1800C 		add	ip, ip, #128
 881 0436 0CEB0C27 		add	r7, ip, ip, lsl #8
 882 043a 0CEBC71C 		add	ip, ip, r7, lsl #7
 883 043e CCF3C55C 		ubfx	ip, ip, #23, #6
 884 0442 6CF34A1E 		bfi	lr, ip, #5, #6
 468:Middlewares/lvgl/src/extra/widgets/led/../../../../src/hal/../misc/lv_color.h ****                                         (255 - mix) + LV_COLOR_MIX_ROUND_OFS));
ARM GAS  /tmp/cceKcmvQ.s 			page 36


 885              		.loc 2 468 5 view .LVU267
 886 0446 05F01F05 		and	r5, r5, #31
 887              	.LVL86:
 468:Middlewares/lvgl/src/extra/widgets/led/../../../../src/hal/../misc/lv_color.h ****                                         (255 - mix) + LV_COLOR_MIX_ROUND_OFS));
 888              		.loc 2 468 5 is_stmt 0 view .LVU268
 889 044a 03FB05F5 		mul	r5, r3, r5
 890 044e 8035     		adds	r5, r5, #128
 891 0450 05EB0527 		add	r7, r5, r5, lsl #8
 892 0454 05EBC715 		add	r5, r5, r7, lsl #7
 893 0458 C5F3C455 		ubfx	r5, r5, #23, #5
 894 045c 65F3040E 		bfi	lr, r5, #0, #5
 470:Middlewares/lvgl/src/extra/widgets/led/../../../../src/hal/../misc/lv_color.h **** #else
 895              		.loc 2 470 5 is_stmt 1 view .LVU269
 470:Middlewares/lvgl/src/extra/widgets/led/../../../../src/hal/../misc/lv_color.h **** #else
 896              		.loc 2 470 5 view .LVU270
 470:Middlewares/lvgl/src/extra/widgets/led/../../../../src/hal/../misc/lv_color.h **** #else
 897              		.loc 2 470 5 view .LVU271
 476:Middlewares/lvgl/src/extra/widgets/led/../../../../src/hal/../misc/lv_color.h **** }
 898              		.loc 2 476 5 view .LVU272
 899              	.LVL87:
 476:Middlewares/lvgl/src/extra/widgets/led/../../../../src/hal/../misc/lv_color.h **** }
 900              		.loc 2 476 5 is_stmt 0 view .LVU273
 901              	.LBE182:
 902              	.LBE181:
 191:Middlewares/lvgl/src/extra/widgets/led/lv_led.c ****         rect_dsc.bg_grad_color   = lv_color_mix(rect_dsc.bg_grad_color, lv_color_black(), led->brig
 903              		.loc 1 191 31 view .LVU274
 904 0460 ADF808E0 		strh	lr, [sp, #8]	@ movhi
 192:Middlewares/lvgl/src/extra/widgets/led/lv_led.c ****         rect_dsc.border_color = lv_color_mix(rect_dsc.border_color, lv_color_black(), led->bright);
 905              		.loc 1 192 9 is_stmt 1 view .LVU275
 906              	.LBB183:
 907              	.LBI183:
 908              		.loc 2 675 26 view .LVU276
 909              	.LBE183:
 910              	.LBE212:
 911              		.loc 2 675 49 view .LVU277
 912              	.LVL88:
 913              	.LBB213:
 914              	.LBB186:
 915              	.LBB184:
 916              	.LBI184:
 602:Middlewares/lvgl/src/extra/widgets/led/../../../../src/hal/../misc/lv_color.h **** {
 917              		.loc 2 602 26 view .LVU278
 918              	.LBB185:
 604:Middlewares/lvgl/src/extra/widgets/led/../../../../src/hal/../misc/lv_color.h **** }
 919              		.loc 2 604 5 view .LVU279
 604:Middlewares/lvgl/src/extra/widgets/led/../../../../src/hal/../misc/lv_color.h **** }
 920              		.loc 2 604 5 is_stmt 0 view .LVU280
 921              	.LBE185:
 922              	.LBE184:
 923              	.LBE186:
 924              	.LBB187:
 925              	.LBI187:
 459:Middlewares/lvgl/src/extra/widgets/led/../../../../src/hal/../misc/lv_color.h **** {
 926              		.loc 2 459 48 is_stmt 1 view .LVU281
 927              	.LBB188:
 461:Middlewares/lvgl/src/extra/widgets/led/../../../../src/hal/../misc/lv_color.h **** #if LV_COLOR_DEPTH != 1
 928              		.loc 2 461 5 view .LVU282
ARM GAS  /tmp/cceKcmvQ.s 			page 37


 464:Middlewares/lvgl/src/extra/widgets/led/../../../../src/hal/../misc/lv_color.h ****                                         (255 - mix) + LV_COLOR_MIX_ROUND_OFS));
 929              		.loc 2 464 5 view .LVU283
 930 0464 C1F3C425 		ubfx	r5, r1, #11, #5
 931 0468 03FB05F5 		mul	r5, r3, r5
 932 046c 8035     		adds	r5, r5, #128
 933 046e 05EB0527 		add	r7, r5, r5, lsl #8
 934 0472 05EBC715 		add	r5, r5, r7, lsl #7
 935 0476 C5F3C455 		ubfx	r5, r5, #23, #5
 936 047a 4FF0000C 		mov	ip, #0	@ movhi
 937              	.LVL89:
 464:Middlewares/lvgl/src/extra/widgets/led/../../../../src/hal/../misc/lv_color.h ****                                         (255 - mix) + LV_COLOR_MIX_ROUND_OFS));
 938              		.loc 2 464 5 is_stmt 0 view .LVU284
 939 047e 65F3CF2C 		bfi	ip, r5, #11, #5
 940              	.LVL90:
 466:Middlewares/lvgl/src/extra/widgets/led/../../../../src/hal/../misc/lv_color.h ****                                         (255 - mix) + LV_COLOR_MIX_ROUND_OFS));
 941              		.loc 2 466 5 is_stmt 1 view .LVU285
 942 0482 C1F34515 		ubfx	r5, r1, #5, #6
 943 0486 03FB05F5 		mul	r5, r3, r5
 944 048a 8035     		adds	r5, r5, #128
 945 048c 05EB0527 		add	r7, r5, r5, lsl #8
 946 0490 05EBC715 		add	r5, r5, r7, lsl #7
 947 0494 C5F3C555 		ubfx	r5, r5, #23, #6
 948 0498 65F34A1C 		bfi	ip, r5, #5, #6
 468:Middlewares/lvgl/src/extra/widgets/led/../../../../src/hal/../misc/lv_color.h ****                                         (255 - mix) + LV_COLOR_MIX_ROUND_OFS));
 949              		.loc 2 468 5 view .LVU286
 950 049c 01F01F01 		and	r1, r1, #31
 951              	.LVL91:
 468:Middlewares/lvgl/src/extra/widgets/led/../../../../src/hal/../misc/lv_color.h ****                                         (255 - mix) + LV_COLOR_MIX_ROUND_OFS));
 952              		.loc 2 468 5 is_stmt 0 view .LVU287
 953 04a0 03FB01F1 		mul	r1, r3, r1
 954 04a4 8031     		adds	r1, r1, #128
 955 04a6 01EB0125 		add	r5, r1, r1, lsl #8
 956 04aa 01EBC511 		add	r1, r1, r5, lsl #7
 957 04ae C1F3C451 		ubfx	r1, r1, #23, #5
 958 04b2 61F3040C 		bfi	ip, r1, #0, #5
 470:Middlewares/lvgl/src/extra/widgets/led/../../../../src/hal/../misc/lv_color.h **** #else
 959              		.loc 2 470 5 is_stmt 1 view .LVU288
 470:Middlewares/lvgl/src/extra/widgets/led/../../../../src/hal/../misc/lv_color.h **** #else
 960              		.loc 2 470 5 view .LVU289
 470:Middlewares/lvgl/src/extra/widgets/led/../../../../src/hal/../misc/lv_color.h **** #else
 961              		.loc 2 470 5 view .LVU290
 476:Middlewares/lvgl/src/extra/widgets/led/../../../../src/hal/../misc/lv_color.h **** }
 962              		.loc 2 476 5 view .LVU291
 963              	.LVL92:
 476:Middlewares/lvgl/src/extra/widgets/led/../../../../src/hal/../misc/lv_color.h **** }
 964              		.loc 2 476 5 is_stmt 0 view .LVU292
 965              	.LBE188:
 966              	.LBE187:
 192:Middlewares/lvgl/src/extra/widgets/led/lv_led.c ****         rect_dsc.border_color = lv_color_mix(rect_dsc.border_color, lv_color_black(), led->bright);
 967              		.loc 1 192 36 view .LVU293
 968 04b6 ADF80AC0 		strh	ip, [sp, #10]	@ movhi
 193:Middlewares/lvgl/src/extra/widgets/led/lv_led.c ****         rect_dsc.shadow_color = lv_color_mix(rect_dsc.shadow_color, lv_color_black(), led->bright);
 969              		.loc 1 193 9 is_stmt 1 view .LVU294
 970              	.LBB189:
 971              	.LBI189:
 972              		.loc 2 675 26 view .LVU295
 973              	.LBE189:
ARM GAS  /tmp/cceKcmvQ.s 			page 38


 974              	.LBE213:
 975              		.loc 2 675 49 view .LVU296
 976              	.LVL93:
 977              	.LBB214:
 978              	.LBB192:
 979              	.LBB190:
 980              	.LBI190:
 602:Middlewares/lvgl/src/extra/widgets/led/../../../../src/hal/../misc/lv_color.h **** {
 981              		.loc 2 602 26 view .LVU297
 982              	.LBB191:
 604:Middlewares/lvgl/src/extra/widgets/led/../../../../src/hal/../misc/lv_color.h **** }
 983              		.loc 2 604 5 view .LVU298
 604:Middlewares/lvgl/src/extra/widgets/led/../../../../src/hal/../misc/lv_color.h **** }
 984              		.loc 2 604 5 is_stmt 0 view .LVU299
 985              	.LBE191:
 986              	.LBE190:
 987              	.LBE192:
 988              	.LBB193:
 989              	.LBI193:
 459:Middlewares/lvgl/src/extra/widgets/led/../../../../src/hal/../misc/lv_color.h **** {
 990              		.loc 2 459 48 is_stmt 1 view .LVU300
 991              	.LBB194:
 461:Middlewares/lvgl/src/extra/widgets/led/../../../../src/hal/../misc/lv_color.h **** #if LV_COLOR_DEPTH != 1
 992              		.loc 2 461 5 view .LVU301
 464:Middlewares/lvgl/src/extra/widgets/led/../../../../src/hal/../misc/lv_color.h ****                                         (255 - mix) + LV_COLOR_MIX_ROUND_OFS));
 993              		.loc 2 464 5 view .LVU302
 994 04ba C2F3C421 		ubfx	r1, r2, #11, #5
 995 04be 03FB01F1 		mul	r1, r3, r1
 996 04c2 8031     		adds	r1, r1, #128
 997 04c4 01EB0125 		add	r5, r1, r1, lsl #8
 998 04c8 01EBC511 		add	r1, r1, r5, lsl #7
 999 04cc C1F3C451 		ubfx	r1, r1, #23, #5
 1000 04d0 4FF00005 		mov	r5, #0	@ movhi
 1001              	.LVL94:
 464:Middlewares/lvgl/src/extra/widgets/led/../../../../src/hal/../misc/lv_color.h ****                                         (255 - mix) + LV_COLOR_MIX_ROUND_OFS));
 1002              		.loc 2 464 5 is_stmt 0 view .LVU303
 1003 04d4 61F3CF25 		bfi	r5, r1, #11, #5
 1004              	.LVL95:
 466:Middlewares/lvgl/src/extra/widgets/led/../../../../src/hal/../misc/lv_color.h ****                                         (255 - mix) + LV_COLOR_MIX_ROUND_OFS));
 1005              		.loc 2 466 5 is_stmt 1 view .LVU304
 1006 04d8 C2F34511 		ubfx	r1, r2, #5, #6
 1007 04dc 03FB01F1 		mul	r1, r3, r1
 1008 04e0 8031     		adds	r1, r1, #128
 1009 04e2 01EB0127 		add	r7, r1, r1, lsl #8
 1010 04e6 01EBC711 		add	r1, r1, r7, lsl #7
 1011 04ea C1F3C551 		ubfx	r1, r1, #23, #6
 1012 04ee 61F34A15 		bfi	r5, r1, #5, #6
 468:Middlewares/lvgl/src/extra/widgets/led/../../../../src/hal/../misc/lv_color.h ****                                         (255 - mix) + LV_COLOR_MIX_ROUND_OFS));
 1013              		.loc 2 468 5 view .LVU305
 1014 04f2 02F01F02 		and	r2, r2, #31
 1015              	.LVL96:
 468:Middlewares/lvgl/src/extra/widgets/led/../../../../src/hal/../misc/lv_color.h ****                                         (255 - mix) + LV_COLOR_MIX_ROUND_OFS));
 1016              		.loc 2 468 5 is_stmt 0 view .LVU306
 1017 04f6 03FB02F2 		mul	r2, r3, r2
 1018 04fa 8032     		adds	r2, r2, #128
 1019 04fc 02EB0221 		add	r1, r2, r2, lsl #8
 1020 0500 02EBC112 		add	r2, r2, r1, lsl #7
ARM GAS  /tmp/cceKcmvQ.s 			page 39


 1021 0504 C2F3C452 		ubfx	r2, r2, #23, #5
 1022 0508 62F30405 		bfi	r5, r2, #0, #5
 470:Middlewares/lvgl/src/extra/widgets/led/../../../../src/hal/../misc/lv_color.h **** #else
 1023              		.loc 2 470 5 is_stmt 1 view .LVU307
 470:Middlewares/lvgl/src/extra/widgets/led/../../../../src/hal/../misc/lv_color.h **** #else
 1024              		.loc 2 470 5 view .LVU308
 470:Middlewares/lvgl/src/extra/widgets/led/../../../../src/hal/../misc/lv_color.h **** #else
 1025              		.loc 2 470 5 view .LVU309
 476:Middlewares/lvgl/src/extra/widgets/led/../../../../src/hal/../misc/lv_color.h **** }
 1026              		.loc 2 476 5 view .LVU310
 1027              	.LVL97:
 476:Middlewares/lvgl/src/extra/widgets/led/../../../../src/hal/../misc/lv_color.h **** }
 1028              		.loc 2 476 5 is_stmt 0 view .LVU311
 1029              	.LBE194:
 1030              	.LBE193:
 193:Middlewares/lvgl/src/extra/widgets/led/lv_led.c ****         rect_dsc.shadow_color = lv_color_mix(rect_dsc.shadow_color, lv_color_black(), led->bright);
 1031              		.loc 1 193 33 view .LVU312
 1032 050c ADF81E50 		strh	r5, [sp, #30]	@ movhi
 194:Middlewares/lvgl/src/extra/widgets/led/lv_led.c ****         rect_dsc.outline_color = lv_color_mix(rect_dsc.outline_color, lv_color_black(), led->bright
 1033              		.loc 1 194 9 is_stmt 1 view .LVU313
 1034              	.LBB195:
 1035              	.LBI195:
 1036              		.loc 2 675 26 view .LVU314
 1037              	.LBE195:
 1038              	.LBE214:
 1039              		.loc 2 675 49 view .LVU315
 1040              	.LVL98:
 1041              	.LBB215:
 1042              	.LBB198:
 1043              	.LBB196:
 1044              	.LBI196:
 602:Middlewares/lvgl/src/extra/widgets/led/../../../../src/hal/../misc/lv_color.h **** {
 1045              		.loc 2 602 26 view .LVU316
 1046              	.LBB197:
 604:Middlewares/lvgl/src/extra/widgets/led/../../../../src/hal/../misc/lv_color.h **** }
 1047              		.loc 2 604 5 view .LVU317
 604:Middlewares/lvgl/src/extra/widgets/led/../../../../src/hal/../misc/lv_color.h **** }
 1048              		.loc 2 604 5 is_stmt 0 view .LVU318
 1049              	.LBE197:
 1050              	.LBE196:
 1051              	.LBE198:
 1052              	.LBB199:
 1053              	.LBI199:
 459:Middlewares/lvgl/src/extra/widgets/led/../../../../src/hal/../misc/lv_color.h **** {
 1054              		.loc 2 459 48 is_stmt 1 view .LVU319
 1055              	.LBB200:
 461:Middlewares/lvgl/src/extra/widgets/led/../../../../src/hal/../misc/lv_color.h **** #if LV_COLOR_DEPTH != 1
 1056              		.loc 2 461 5 view .LVU320
 464:Middlewares/lvgl/src/extra/widgets/led/../../../../src/hal/../misc/lv_color.h ****                                         (255 - mix) + LV_COLOR_MIX_ROUND_OFS));
 1057              		.loc 2 464 5 view .LVU321
 1058 0510 C0F3C422 		ubfx	r2, r0, #11, #5
 1059 0514 03FB02F2 		mul	r2, r3, r2
 1060 0518 8032     		adds	r2, r2, #128
 1061 051a 02EB0221 		add	r1, r2, r2, lsl #8
 1062 051e 02EBC112 		add	r2, r2, r1, lsl #7
 1063 0522 C2F3C452 		ubfx	r2, r2, #23, #5
 1064 0526 4FF00001 		mov	r1, #0	@ movhi
ARM GAS  /tmp/cceKcmvQ.s 			page 40


 1065              	.LVL99:
 464:Middlewares/lvgl/src/extra/widgets/led/../../../../src/hal/../misc/lv_color.h ****                                         (255 - mix) + LV_COLOR_MIX_ROUND_OFS));
 1066              		.loc 2 464 5 is_stmt 0 view .LVU322
 1067 052a 62F3CF21 		bfi	r1, r2, #11, #5
 1068              	.LVL100:
 466:Middlewares/lvgl/src/extra/widgets/led/../../../../src/hal/../misc/lv_color.h ****                                         (255 - mix) + LV_COLOR_MIX_ROUND_OFS));
 1069              		.loc 2 466 5 is_stmt 1 view .LVU323
 1070 052e C0F34512 		ubfx	r2, r0, #5, #6
 1071 0532 03FB02F2 		mul	r2, r3, r2
 1072 0536 8032     		adds	r2, r2, #128
 1073 0538 02EB0225 		add	r5, r2, r2, lsl #8
 1074              	.LVL101:
 466:Middlewares/lvgl/src/extra/widgets/led/../../../../src/hal/../misc/lv_color.h ****                                         (255 - mix) + LV_COLOR_MIX_ROUND_OFS));
 1075              		.loc 2 466 5 is_stmt 0 view .LVU324
 1076 053c 02EBC512 		add	r2, r2, r5, lsl #7
 1077 0540 C2F3C552 		ubfx	r2, r2, #23, #6
 1078 0544 62F34A11 		bfi	r1, r2, #5, #6
 468:Middlewares/lvgl/src/extra/widgets/led/../../../../src/hal/../misc/lv_color.h ****                                         (255 - mix) + LV_COLOR_MIX_ROUND_OFS));
 1079              		.loc 2 468 5 is_stmt 1 view .LVU325
 1080 0548 00F01F00 		and	r0, r0, #31
 1081              	.LVL102:
 468:Middlewares/lvgl/src/extra/widgets/led/../../../../src/hal/../misc/lv_color.h ****                                         (255 - mix) + LV_COLOR_MIX_ROUND_OFS));
 1082              		.loc 2 468 5 is_stmt 0 view .LVU326
 1083 054c 00FB03F3 		mul	r3, r0, r3
 1084              	.LVL103:
 468:Middlewares/lvgl/src/extra/widgets/led/../../../../src/hal/../misc/lv_color.h ****                                         (255 - mix) + LV_COLOR_MIX_ROUND_OFS));
 1085              		.loc 2 468 5 view .LVU327
 1086 0550 8033     		adds	r3, r3, #128
 1087 0552 03EB0322 		add	r2, r3, r3, lsl #8
 1088 0556 03EBC213 		add	r3, r3, r2, lsl #7
 1089 055a C3F3C453 		ubfx	r3, r3, #23, #5
 1090 055e 63F30401 		bfi	r1, r3, #0, #5
 470:Middlewares/lvgl/src/extra/widgets/led/../../../../src/hal/../misc/lv_color.h **** #else
 1091              		.loc 2 470 5 is_stmt 1 view .LVU328
 470:Middlewares/lvgl/src/extra/widgets/led/../../../../src/hal/../misc/lv_color.h **** #else
 1092              		.loc 2 470 5 view .LVU329
 470:Middlewares/lvgl/src/extra/widgets/led/../../../../src/hal/../misc/lv_color.h **** #else
 1093              		.loc 2 470 5 view .LVU330
 476:Middlewares/lvgl/src/extra/widgets/led/../../../../src/hal/../misc/lv_color.h **** }
 1094              		.loc 2 476 5 view .LVU331
 1095              	.LVL104:
 476:Middlewares/lvgl/src/extra/widgets/led/../../../../src/hal/../misc/lv_color.h **** }
 1096              		.loc 2 476 5 is_stmt 0 view .LVU332
 1097              	.LBE200:
 1098              	.LBE199:
 194:Middlewares/lvgl/src/extra/widgets/led/lv_led.c ****         rect_dsc.outline_color = lv_color_mix(rect_dsc.outline_color, lv_color_black(), led->bright
 1099              		.loc 1 194 33 view .LVU333
 1100 0562 ADF82C10 		strh	r1, [sp, #44]	@ movhi
 195:Middlewares/lvgl/src/extra/widgets/led/lv_led.c **** 
 1101              		.loc 1 195 9 is_stmt 1 view .LVU334
 1102              	.LBB201:
 1103              	.LBI201:
 1104              		.loc 2 675 26 view .LVU335
 1105              	.LBE201:
 1106              	.LBE215:
 1107              		.loc 2 675 49 view .LVU336
 1108              	.LVL105:
ARM GAS  /tmp/cceKcmvQ.s 			page 41


 1109              	.LBB216:
 1110              	.LBB204:
 1111              	.LBB202:
 1112              	.LBI202:
 602:Middlewares/lvgl/src/extra/widgets/led/../../../../src/hal/../misc/lv_color.h **** {
 1113              		.loc 2 602 26 view .LVU337
 1114              	.LBB203:
 604:Middlewares/lvgl/src/extra/widgets/led/../../../../src/hal/../misc/lv_color.h **** }
 1115              		.loc 2 604 5 view .LVU338
 604:Middlewares/lvgl/src/extra/widgets/led/../../../../src/hal/../misc/lv_color.h **** }
 1116              		.loc 2 604 5 is_stmt 0 view .LVU339
 1117              	.LBE203:
 1118              	.LBE202:
 1119              	.LBE204:
 195:Middlewares/lvgl/src/extra/widgets/led/lv_led.c **** 
 1120              		.loc 1 195 34 view .LVU340
 1121 0566 96F82620 		ldrb	r2, [r6, #38]	@ zero_extendqisi2
 1122 056a BDF82430 		ldrh	r3, [sp, #36]
 1123              	.LVL106:
 1124              	.LBB205:
 1125              	.LBI205:
 459:Middlewares/lvgl/src/extra/widgets/led/../../../../src/hal/../misc/lv_color.h **** {
 1126              		.loc 2 459 48 is_stmt 1 view .LVU341
 1127              	.LBB206:
 461:Middlewares/lvgl/src/extra/widgets/led/../../../../src/hal/../misc/lv_color.h **** #if LV_COLOR_DEPTH != 1
 1128              		.loc 2 461 5 view .LVU342
 464:Middlewares/lvgl/src/extra/widgets/led/../../../../src/hal/../misc/lv_color.h ****                                         (255 - mix) + LV_COLOR_MIX_ROUND_OFS));
 1129              		.loc 2 464 5 view .LVU343
 464:Middlewares/lvgl/src/extra/widgets/led/../../../../src/hal/../misc/lv_color.h ****                                         (255 - mix) + LV_COLOR_MIX_ROUND_OFS));
 1130              		.loc 2 464 5 is_stmt 0 view .LVU344
 1131 056e C3F3C421 		ubfx	r1, r3, #11, #5
 1132              	.LVL107:
 464:Middlewares/lvgl/src/extra/widgets/led/../../../../src/hal/../misc/lv_color.h ****                                         (255 - mix) + LV_COLOR_MIX_ROUND_OFS));
 1133              		.loc 2 464 5 view .LVU345
 1134 0572 02FB01F1 		mul	r1, r2, r1
 1135 0576 8031     		adds	r1, r1, #128
 1136 0578 01EB0120 		add	r0, r1, r1, lsl #8
 1137 057c 01EBC011 		add	r1, r1, r0, lsl #7
 1138 0580 C1F3C451 		ubfx	r1, r1, #23, #5
 1139 0584 4FF00000 		mov	r0, #0	@ movhi
 1140              	.LVL108:
 464:Middlewares/lvgl/src/extra/widgets/led/../../../../src/hal/../misc/lv_color.h ****                                         (255 - mix) + LV_COLOR_MIX_ROUND_OFS));
 1141              		.loc 2 464 5 view .LVU346
 1142 0588 61F3CF20 		bfi	r0, r1, #11, #5
 1143              	.LVL109:
 466:Middlewares/lvgl/src/extra/widgets/led/../../../../src/hal/../misc/lv_color.h ****                                         (255 - mix) + LV_COLOR_MIX_ROUND_OFS));
 1144              		.loc 2 466 5 is_stmt 1 view .LVU347
 1145 058c C3F34511 		ubfx	r1, r3, #5, #6
 1146 0590 02FB01F1 		mul	r1, r2, r1
 1147 0594 8031     		adds	r1, r1, #128
 1148 0596 01EB0125 		add	r5, r1, r1, lsl #8
 1149 059a 01EBC511 		add	r1, r1, r5, lsl #7
 1150 059e C1F3C551 		ubfx	r1, r1, #23, #6
 1151 05a2 61F34A10 		bfi	r0, r1, #5, #6
 468:Middlewares/lvgl/src/extra/widgets/led/../../../../src/hal/../misc/lv_color.h ****                                         (255 - mix) + LV_COLOR_MIX_ROUND_OFS));
 1152              		.loc 2 468 5 view .LVU348
 1153 05a6 03F01F03 		and	r3, r3, #31
ARM GAS  /tmp/cceKcmvQ.s 			page 42


 1154              	.LVL110:
 468:Middlewares/lvgl/src/extra/widgets/led/../../../../src/hal/../misc/lv_color.h ****                                         (255 - mix) + LV_COLOR_MIX_ROUND_OFS));
 1155              		.loc 2 468 5 is_stmt 0 view .LVU349
 1156 05aa 02FB03F3 		mul	r3, r2, r3
 1157 05ae 8033     		adds	r3, r3, #128
 1158 05b0 03EB0321 		add	r1, r3, r3, lsl #8
 1159 05b4 03EBC113 		add	r3, r3, r1, lsl #7
 1160 05b8 C3F3C453 		ubfx	r3, r3, #23, #5
 1161 05bc 63F30400 		bfi	r0, r3, #0, #5
 470:Middlewares/lvgl/src/extra/widgets/led/../../../../src/hal/../misc/lv_color.h **** #else
 1162              		.loc 2 470 5 is_stmt 1 view .LVU350
 470:Middlewares/lvgl/src/extra/widgets/led/../../../../src/hal/../misc/lv_color.h **** #else
 1163              		.loc 2 470 5 view .LVU351
 470:Middlewares/lvgl/src/extra/widgets/led/../../../../src/hal/../misc/lv_color.h **** #else
 1164              		.loc 2 470 5 view .LVU352
 476:Middlewares/lvgl/src/extra/widgets/led/../../../../src/hal/../misc/lv_color.h **** }
 1165              		.loc 2 476 5 view .LVU353
 1166              	.LVL111:
 476:Middlewares/lvgl/src/extra/widgets/led/../../../../src/hal/../misc/lv_color.h **** }
 1167              		.loc 2 476 5 is_stmt 0 view .LVU354
 1168              	.LBE206:
 1169              	.LBE205:
 195:Middlewares/lvgl/src/extra/widgets/led/lv_led.c **** 
 1170              		.loc 1 195 34 view .LVU355
 1171 05c0 ADF82400 		strh	r0, [sp, #36]	@ movhi
 199:Middlewares/lvgl/src/extra/widgets/led/lv_led.c ****                 (LV_LED_BRIGHT_MAX - LV_LED_BRIGHT_MIN);
 1172              		.loc 1 199 9 is_stmt 1 view .LVU356
 199:Middlewares/lvgl/src/extra/widgets/led/lv_led.c ****                 (LV_LED_BRIGHT_MAX - LV_LED_BRIGHT_MIN);
 1173              		.loc 1 199 47 is_stmt 0 view .LVU357
 1174 05c4 A2F15003 		sub	r3, r2, #80
 199:Middlewares/lvgl/src/extra/widgets/led/lv_led.c ****                 (LV_LED_BRIGHT_MAX - LV_LED_BRIGHT_MIN);
 1175              		.loc 1 199 78 view .LVU358
 1176 05c8 BDF92E20 		ldrsh	r2, [sp, #46]
 199:Middlewares/lvgl/src/extra/widgets/led/lv_led.c ****                 (LV_LED_BRIGHT_MAX - LV_LED_BRIGHT_MIN);
 1177              		.loc 1 199 68 view .LVU359
 1178 05cc 02FB03F3 		mul	r3, r2, r3
 199:Middlewares/lvgl/src/extra/widgets/led/lv_led.c ****                 (LV_LED_BRIGHT_MAX - LV_LED_BRIGHT_MIN);
 1179              		.loc 1 199 93 view .LVU360
 1180 05d0 1A4A     		ldr	r2, .L10
 1181 05d2 82FB0301 		smull	r0, r1, r2, r3
 1182              	.LVL112:
 199:Middlewares/lvgl/src/extra/widgets/led/lv_led.c ****                 (LV_LED_BRIGHT_MAX - LV_LED_BRIGHT_MIN);
 1183              		.loc 1 199 93 view .LVU361
 1184 05d6 DB17     		asrs	r3, r3, #31
 1185 05d8 C3EBA113 		rsb	r3, r3, r1, asr #6
 199:Middlewares/lvgl/src/extra/widgets/led/lv_led.c ****                 (LV_LED_BRIGHT_MAX - LV_LED_BRIGHT_MIN);
 1186              		.loc 1 199 31 view .LVU362
 1187 05dc ADF82E30 		strh	r3, [sp, #46]	@ movhi
 201:Middlewares/lvgl/src/extra/widgets/led/lv_led.c ****                 (LV_LED_BRIGHT_MAX - LV_LED_BRIGHT_MIN);
 1188              		.loc 1 201 9 is_stmt 1 view .LVU363
 201:Middlewares/lvgl/src/extra/widgets/led/lv_led.c ****                 (LV_LED_BRIGHT_MAX - LV_LED_BRIGHT_MIN);
 1189              		.loc 1 201 39 is_stmt 0 view .LVU364
 1190 05e0 96F82630 		ldrb	r3, [r6, #38]	@ zero_extendqisi2
 201:Middlewares/lvgl/src/extra/widgets/led/lv_led.c ****                 (LV_LED_BRIGHT_MAX - LV_LED_BRIGHT_MIN);
 1191              		.loc 1 201 48 view .LVU365
 1192 05e4 503B     		subs	r3, r3, #80
 201:Middlewares/lvgl/src/extra/widgets/led/lv_led.c ****                 (LV_LED_BRIGHT_MAX - LV_LED_BRIGHT_MIN);
ARM GAS  /tmp/cceKcmvQ.s 			page 43


 1193              		.loc 1 201 79 view .LVU366
 1194 05e6 BDF93410 		ldrsh	r1, [sp, #52]
 201:Middlewares/lvgl/src/extra/widgets/led/lv_led.c ****                 (LV_LED_BRIGHT_MAX - LV_LED_BRIGHT_MIN);
 1195              		.loc 1 201 69 view .LVU367
 1196 05ea 01FB03F3 		mul	r3, r1, r3
 201:Middlewares/lvgl/src/extra/widgets/led/lv_led.c ****                 (LV_LED_BRIGHT_MAX - LV_LED_BRIGHT_MIN);
 1197              		.loc 1 201 95 view .LVU368
 1198 05ee 82FB0312 		smull	r1, r2, r2, r3
 1199 05f2 DB17     		asrs	r3, r3, #31
 1200 05f4 C3EBA213 		rsb	r3, r3, r2, asr #6
 201:Middlewares/lvgl/src/extra/widgets/led/lv_led.c ****                 (LV_LED_BRIGHT_MAX - LV_LED_BRIGHT_MIN);
 1201              		.loc 1 201 32 view .LVU369
 1202 05f8 ADF83430 		strh	r3, [sp, #52]	@ movhi
 204:Middlewares/lvgl/src/extra/widgets/led/lv_led.c **** 
 1203              		.loc 1 204 9 is_stmt 1 view .LVU370
 204:Middlewares/lvgl/src/extra/widgets/led/lv_led.c **** 
 1204              		.loc 1 204 39 is_stmt 0 view .LVU371
 1205 05fc 2046     		mov	r0, r4
 1206 05fe FFF7FEFF 		bl	lv_event_get_param
 1207              	.LVL113:
 204:Middlewares/lvgl/src/extra/widgets/led/lv_led.c **** 
 1208              		.loc 1 204 39 view .LVU372
 1209 0602 0446     		mov	r4, r0
 1210              	.LVL114:
 206:Middlewares/lvgl/src/extra/widgets/led/lv_led.c ****         lv_obj_draw_dsc_init(&part_dsc, clip_area);
 1211              		.loc 1 206 9 is_stmt 1 view .LVU373
 207:Middlewares/lvgl/src/extra/widgets/led/lv_led.c ****         part_dsc.draw_area = &obj->coords;
 1212              		.loc 1 207 9 view .LVU374
 1213 0604 0146     		mov	r1, r0
 1214 0606 0EA8     		add	r0, sp, #56
 1215              	.LVL115:
 207:Middlewares/lvgl/src/extra/widgets/led/lv_led.c ****         part_dsc.draw_area = &obj->coords;
 1216              		.loc 1 207 9 is_stmt 0 view .LVU375
 1217 0608 FFF7FEFF 		bl	lv_obj_draw_dsc_init
 1218              	.LVL116:
 208:Middlewares/lvgl/src/extra/widgets/led/lv_led.c ****         part_dsc.rect_dsc = &rect_dsc;
 1219              		.loc 1 208 9 is_stmt 1 view .LVU376
 208:Middlewares/lvgl/src/extra/widgets/led/lv_led.c ****         part_dsc.rect_dsc = &rect_dsc;
 1220              		.loc 1 208 30 is_stmt 0 view .LVU377
 1221 060c 06F11405 		add	r5, r6, #20
 208:Middlewares/lvgl/src/extra/widgets/led/lv_led.c ****         part_dsc.rect_dsc = &rect_dsc;
 1222              		.loc 1 208 28 view .LVU378
 1223 0610 0F95     		str	r5, [sp, #60]
 209:Middlewares/lvgl/src/extra/widgets/led/lv_led.c ****         part_dsc.part = LV_PART_MAIN;
 1224              		.loc 1 209 9 is_stmt 1 view .LVU379
 209:Middlewares/lvgl/src/extra/widgets/led/lv_led.c ****         part_dsc.part = LV_PART_MAIN;
 1225              		.loc 1 209 27 is_stmt 0 view .LVU380
 1226 0612 01AF     		add	r7, sp, #4
 1227 0614 1097     		str	r7, [sp, #64]
 210:Middlewares/lvgl/src/extra/widgets/led/lv_led.c **** 
 1228              		.loc 1 210 9 is_stmt 1 view .LVU381
 210:Middlewares/lvgl/src/extra/widgets/led/lv_led.c **** 
 1229              		.loc 1 210 23 is_stmt 0 view .LVU382
 1230 0616 0023     		movs	r3, #0
 1231 0618 1B93     		str	r3, [sp, #108]
 212:Middlewares/lvgl/src/extra/widgets/led/lv_led.c ****         lv_draw_rect(&obj->coords, clip_area, &rect_dsc);
 1232              		.loc 1 212 9 is_stmt 1 view .LVU383
ARM GAS  /tmp/cceKcmvQ.s 			page 44


 1233 061a 0EAA     		add	r2, sp, #56
 1234 061c 1A21     		movs	r1, #26
 1235 061e 3046     		mov	r0, r6
 1236 0620 FFF7FEFF 		bl	lv_event_send
 1237              	.LVL117:
 213:Middlewares/lvgl/src/extra/widgets/led/lv_led.c ****         lv_event_send(obj, LV_EVENT_DRAW_PART_END, &part_dsc);
 1238              		.loc 1 213 9 view .LVU384
 1239 0624 3A46     		mov	r2, r7
 1240 0626 2146     		mov	r1, r4
 1241 0628 2846     		mov	r0, r5
 1242 062a FFF7FEFF 		bl	lv_draw_rect
 1243              	.LVL118:
 214:Middlewares/lvgl/src/extra/widgets/led/lv_led.c ****     }
 1244              		.loc 1 214 9 view .LVU385
 1245 062e 0EAA     		add	r2, sp, #56
 1246 0630 1B21     		movs	r1, #27
 1247 0632 3046     		mov	r0, r6
 1248 0634 FFF7FEFF 		bl	lv_event_send
 1249              	.LVL119:
 1250 0638 FBE4     		b	.L3
 1251              	.L11:
 1252 063a 00BF     		.align	2
 1253              	.L10:
 1254 063c 91739F5D 		.word	1570730897
 1255              	.LBE216:
 1256              		.cfi_endproc
 1257              	.LFE192:
 1259              		.section	.text.lv_led_create,"ax",%progbits
 1260              		.align	1
 1261              		.global	lv_led_create
 1262              		.syntax unified
 1263              		.thumb
 1264              		.thumb_func
 1266              	lv_led_create:
 1267              	.LVL120:
 1268              	.LFB184:
  61:Middlewares/lvgl/src/extra/widgets/led/lv_led.c ****     LV_LOG_INFO("begin")
 1269              		.loc 1 61 1 view -0
 1270              		.cfi_startproc
 1271              		@ args = 0, pretend = 0, frame = 0
 1272              		@ frame_needed = 0, uses_anonymous_args = 0
  61:Middlewares/lvgl/src/extra/widgets/led/lv_led.c ****     LV_LOG_INFO("begin")
 1273              		.loc 1 61 1 is_stmt 0 view .LVU387
 1274 0000 10B5     		push	{r4, lr}
 1275              	.LCFI5:
 1276              		.cfi_def_cfa_offset 8
 1277              		.cfi_offset 4, -8
 1278              		.cfi_offset 14, -4
 1279 0002 0146     		mov	r1, r0
  63:Middlewares/lvgl/src/extra/widgets/led/lv_led.c ****     lv_obj_class_init_obj(obj);
 1280              		.loc 1 63 5 is_stmt 1 view .LVU388
  63:Middlewares/lvgl/src/extra/widgets/led/lv_led.c ****     lv_obj_class_init_obj(obj);
 1281              		.loc 1 63 22 is_stmt 0 view .LVU389
 1282 0004 0348     		ldr	r0, .L14
 1283              	.LVL121:
  63:Middlewares/lvgl/src/extra/widgets/led/lv_led.c ****     lv_obj_class_init_obj(obj);
 1284              		.loc 1 63 22 view .LVU390
ARM GAS  /tmp/cceKcmvQ.s 			page 45


 1285 0006 FFF7FEFF 		bl	lv_obj_class_create_obj
 1286              	.LVL122:
  63:Middlewares/lvgl/src/extra/widgets/led/lv_led.c ****     lv_obj_class_init_obj(obj);
 1287              		.loc 1 63 22 view .LVU391
 1288 000a 0446     		mov	r4, r0
 1289              	.LVL123:
  64:Middlewares/lvgl/src/extra/widgets/led/lv_led.c ****     return obj;
 1290              		.loc 1 64 5 is_stmt 1 view .LVU392
 1291 000c FFF7FEFF 		bl	lv_obj_class_init_obj
 1292              	.LVL124:
  65:Middlewares/lvgl/src/extra/widgets/led/lv_led.c **** }
 1293              		.loc 1 65 5 view .LVU393
  66:Middlewares/lvgl/src/extra/widgets/led/lv_led.c **** 
 1294              		.loc 1 66 1 is_stmt 0 view .LVU394
 1295 0010 2046     		mov	r0, r4
 1296 0012 10BD     		pop	{r4, pc}
 1297              	.LVL125:
 1298              	.L15:
  66:Middlewares/lvgl/src/extra/widgets/led/lv_led.c **** 
 1299              		.loc 1 66 1 view .LVU395
 1300              		.align	2
 1301              	.L14:
 1302 0014 00000000 		.word	.LANCHOR0
 1303              		.cfi_endproc
 1304              	.LFE184:
 1306              		.section	.text.lv_led_set_color,"ax",%progbits
 1307              		.align	1
 1308              		.global	lv_led_set_color
 1309              		.syntax unified
 1310              		.thumb
 1311              		.thumb_func
 1313              	lv_led_set_color:
 1314              	.LVL126:
 1315              	.LFB185:
  78:Middlewares/lvgl/src/extra/widgets/led/lv_led.c ****     lv_led_t * led = (lv_led_t *)obj;
 1316              		.loc 1 78 1 is_stmt 1 view -0
 1317              		.cfi_startproc
 1318              		@ args = 0, pretend = 0, frame = 0
 1319              		@ frame_needed = 0, uses_anonymous_args = 0
  78:Middlewares/lvgl/src/extra/widgets/led/lv_led.c ****     lv_led_t * led = (lv_led_t *)obj;
 1320              		.loc 1 78 1 is_stmt 0 view .LVU397
 1321 0000 08B5     		push	{r3, lr}
 1322              	.LCFI6:
 1323              		.cfi_def_cfa_offset 8
 1324              		.cfi_offset 3, -8
 1325              		.cfi_offset 14, -4
  79:Middlewares/lvgl/src/extra/widgets/led/lv_led.c ****     led->color = color;
 1326              		.loc 1 79 5 is_stmt 1 view .LVU398
 1327              	.LVL127:
  80:Middlewares/lvgl/src/extra/widgets/led/lv_led.c ****     lv_obj_invalidate(obj);
 1328              		.loc 1 80 5 view .LVU399
  80:Middlewares/lvgl/src/extra/widgets/led/lv_led.c ****     lv_obj_invalidate(obj);
 1329              		.loc 1 80 16 is_stmt 0 view .LVU400
 1330 0002 8184     		strh	r1, [r0, #36]	@ movhi
  81:Middlewares/lvgl/src/extra/widgets/led/lv_led.c **** }
 1331              		.loc 1 81 5 is_stmt 1 view .LVU401
 1332 0004 FFF7FEFF 		bl	lv_obj_invalidate
ARM GAS  /tmp/cceKcmvQ.s 			page 46


 1333              	.LVL128:
  82:Middlewares/lvgl/src/extra/widgets/led/lv_led.c **** 
 1334              		.loc 1 82 1 is_stmt 0 view .LVU402
 1335 0008 08BD     		pop	{r3, pc}
 1336              		.cfi_endproc
 1337              	.LFE185:
 1339              		.section	.text.lv_led_set_brightness,"ax",%progbits
 1340              		.align	1
 1341              		.global	lv_led_set_brightness
 1342              		.syntax unified
 1343              		.thumb
 1344              		.thumb_func
 1346              	lv_led_set_brightness:
 1347              	.LVL129:
 1348              	.LFB186:
  90:Middlewares/lvgl/src/extra/widgets/led/lv_led.c ****     lv_led_t * led = (lv_led_t *)obj;
 1349              		.loc 1 90 1 is_stmt 1 view -0
 1350              		.cfi_startproc
 1351              		@ args = 0, pretend = 0, frame = 0
 1352              		@ frame_needed = 0, uses_anonymous_args = 0
  90:Middlewares/lvgl/src/extra/widgets/led/lv_led.c ****     lv_led_t * led = (lv_led_t *)obj;
 1353              		.loc 1 90 1 is_stmt 0 view .LVU404
 1354 0000 08B5     		push	{r3, lr}
 1355              	.LCFI7:
 1356              		.cfi_def_cfa_offset 8
 1357              		.cfi_offset 3, -8
 1358              		.cfi_offset 14, -4
  91:Middlewares/lvgl/src/extra/widgets/led/lv_led.c ****     if(led->bright == bright) return;
 1359              		.loc 1 91 5 is_stmt 1 view .LVU405
 1360              	.LVL130:
  92:Middlewares/lvgl/src/extra/widgets/led/lv_led.c **** 
 1361              		.loc 1 92 5 view .LVU406
  92:Middlewares/lvgl/src/extra/widgets/led/lv_led.c **** 
 1362              		.loc 1 92 11 is_stmt 0 view .LVU407
 1363 0002 90F82630 		ldrb	r3, [r0, #38]	@ zero_extendqisi2
  92:Middlewares/lvgl/src/extra/widgets/led/lv_led.c **** 
 1364              		.loc 1 92 7 view .LVU408
 1365 0006 8B42     		cmp	r3, r1
 1366 0008 06D0     		beq	.L18
  94:Middlewares/lvgl/src/extra/widgets/led/lv_led.c ****     if(bright >= LV_LED_BRIGHT_MAX) bright = LV_LED_BRIGHT_MAX;
 1367              		.loc 1 94 5 is_stmt 1 view .LVU409
  94:Middlewares/lvgl/src/extra/widgets/led/lv_led.c ****     if(bright >= LV_LED_BRIGHT_MAX) bright = LV_LED_BRIGHT_MAX;
 1368              		.loc 1 94 7 is_stmt 0 view .LVU410
 1369 000a 5029     		cmp	r1, #80
 1370 000c 00D8     		bhi	.L20
  94:Middlewares/lvgl/src/extra/widgets/led/lv_led.c ****     if(bright >= LV_LED_BRIGHT_MAX) bright = LV_LED_BRIGHT_MAX;
 1371              		.loc 1 94 44 view .LVU411
 1372 000e 5021     		movs	r1, #80
 1373              	.LVL131:
 1374              	.L20:
  97:Middlewares/lvgl/src/extra/widgets/led/lv_led.c **** 
 1375              		.loc 1 97 5 is_stmt 1 view .LVU412
  97:Middlewares/lvgl/src/extra/widgets/led/lv_led.c **** 
 1376              		.loc 1 97 17 is_stmt 0 view .LVU413
 1377 0010 80F82610 		strb	r1, [r0, #38]
 100:Middlewares/lvgl/src/extra/widgets/led/lv_led.c **** }
 1378              		.loc 1 100 5 is_stmt 1 view .LVU414
ARM GAS  /tmp/cceKcmvQ.s 			page 47


 1379 0014 FFF7FEFF 		bl	lv_obj_invalidate
 1380              	.LVL132:
 1381              	.L18:
 101:Middlewares/lvgl/src/extra/widgets/led/lv_led.c **** 
 1382              		.loc 1 101 1 is_stmt 0 view .LVU415
 1383 0018 08BD     		pop	{r3, pc}
 1384              		.cfi_endproc
 1385              	.LFE186:
 1387              		.section	.text.lv_led_on,"ax",%progbits
 1388              		.align	1
 1389              		.global	lv_led_on
 1390              		.syntax unified
 1391              		.thumb
 1392              		.thumb_func
 1394              	lv_led_on:
 1395              	.LVL133:
 1396              	.LFB187:
 108:Middlewares/lvgl/src/extra/widgets/led/lv_led.c ****     lv_led_set_brightness(led, LV_LED_BRIGHT_MAX);
 1397              		.loc 1 108 1 is_stmt 1 view -0
 1398              		.cfi_startproc
 1399              		@ args = 0, pretend = 0, frame = 0
 1400              		@ frame_needed = 0, uses_anonymous_args = 0
 108:Middlewares/lvgl/src/extra/widgets/led/lv_led.c ****     lv_led_set_brightness(led, LV_LED_BRIGHT_MAX);
 1401              		.loc 1 108 1 is_stmt 0 view .LVU417
 1402 0000 08B5     		push	{r3, lr}
 1403              	.LCFI8:
 1404              		.cfi_def_cfa_offset 8
 1405              		.cfi_offset 3, -8
 1406              		.cfi_offset 14, -4
 109:Middlewares/lvgl/src/extra/widgets/led/lv_led.c **** }
 1407              		.loc 1 109 5 is_stmt 1 view .LVU418
 1408 0002 FF21     		movs	r1, #255
 1409 0004 FFF7FEFF 		bl	lv_led_set_brightness
 1410              	.LVL134:
 110:Middlewares/lvgl/src/extra/widgets/led/lv_led.c **** 
 1411              		.loc 1 110 1 is_stmt 0 view .LVU419
 1412 0008 08BD     		pop	{r3, pc}
 1413              		.cfi_endproc
 1414              	.LFE187:
 1416              		.section	.text.lv_led_off,"ax",%progbits
 1417              		.align	1
 1418              		.global	lv_led_off
 1419              		.syntax unified
 1420              		.thumb
 1421              		.thumb_func
 1423              	lv_led_off:
 1424              	.LVL135:
 1425              	.LFB188:
 117:Middlewares/lvgl/src/extra/widgets/led/lv_led.c ****     lv_led_set_brightness(led, LV_LED_BRIGHT_MIN);
 1426              		.loc 1 117 1 is_stmt 1 view -0
 1427              		.cfi_startproc
 1428              		@ args = 0, pretend = 0, frame = 0
 1429              		@ frame_needed = 0, uses_anonymous_args = 0
 117:Middlewares/lvgl/src/extra/widgets/led/lv_led.c ****     lv_led_set_brightness(led, LV_LED_BRIGHT_MIN);
 1430              		.loc 1 117 1 is_stmt 0 view .LVU421
 1431 0000 08B5     		push	{r3, lr}
 1432              	.LCFI9:
ARM GAS  /tmp/cceKcmvQ.s 			page 48


 1433              		.cfi_def_cfa_offset 8
 1434              		.cfi_offset 3, -8
 1435              		.cfi_offset 14, -4
 118:Middlewares/lvgl/src/extra/widgets/led/lv_led.c **** }
 1436              		.loc 1 118 5 is_stmt 1 view .LVU422
 1437 0002 5021     		movs	r1, #80
 1438 0004 FFF7FEFF 		bl	lv_led_set_brightness
 1439              	.LVL136:
 119:Middlewares/lvgl/src/extra/widgets/led/lv_led.c **** 
 1440              		.loc 1 119 1 is_stmt 0 view .LVU423
 1441 0008 08BD     		pop	{r3, pc}
 1442              		.cfi_endproc
 1443              	.LFE188:
 1445              		.section	.text.lv_led_get_brightness,"ax",%progbits
 1446              		.align	1
 1447              		.global	lv_led_get_brightness
 1448              		.syntax unified
 1449              		.thumb
 1450              		.thumb_func
 1452              	lv_led_get_brightness:
 1453              	.LVL137:
 1454              	.LFB190:
 144:Middlewares/lvgl/src/extra/widgets/led/lv_led.c ****     lv_led_t * led = (lv_led_t *)obj;
 1455              		.loc 1 144 1 is_stmt 1 view -0
 1456              		.cfi_startproc
 1457              		@ args = 0, pretend = 0, frame = 0
 1458              		@ frame_needed = 0, uses_anonymous_args = 0
 1459              		@ link register save eliminated.
 145:Middlewares/lvgl/src/extra/widgets/led/lv_led.c ****     return led->bright;
 1460              		.loc 1 145 5 view .LVU425
 146:Middlewares/lvgl/src/extra/widgets/led/lv_led.c **** }
 1461              		.loc 1 146 5 view .LVU426
 147:Middlewares/lvgl/src/extra/widgets/led/lv_led.c **** 
 1462              		.loc 1 147 1 is_stmt 0 view .LVU427
 1463 0000 90F82600 		ldrb	r0, [r0, #38]	@ zero_extendqisi2
 1464              	.LVL138:
 147:Middlewares/lvgl/src/extra/widgets/led/lv_led.c **** 
 1465              		.loc 1 147 1 view .LVU428
 1466 0004 7047     		bx	lr
 1467              		.cfi_endproc
 1468              	.LFE190:
 1470              		.section	.text.lv_led_toggle,"ax",%progbits
 1471              		.align	1
 1472              		.global	lv_led_toggle
 1473              		.syntax unified
 1474              		.thumb
 1475              		.thumb_func
 1477              	lv_led_toggle:
 1478              	.LVL139:
 1479              	.LFB189:
 126:Middlewares/lvgl/src/extra/widgets/led/lv_led.c ****     uint8_t bright = lv_led_get_brightness(obj);
 1480              		.loc 1 126 1 is_stmt 1 view -0
 1481              		.cfi_startproc
 1482              		@ args = 0, pretend = 0, frame = 0
 1483              		@ frame_needed = 0, uses_anonymous_args = 0
 126:Middlewares/lvgl/src/extra/widgets/led/lv_led.c ****     uint8_t bright = lv_led_get_brightness(obj);
 1484              		.loc 1 126 1 is_stmt 0 view .LVU430
ARM GAS  /tmp/cceKcmvQ.s 			page 49


 1485 0000 10B5     		push	{r4, lr}
 1486              	.LCFI10:
 1487              		.cfi_def_cfa_offset 8
 1488              		.cfi_offset 4, -8
 1489              		.cfi_offset 14, -4
 1490 0002 0446     		mov	r4, r0
 127:Middlewares/lvgl/src/extra/widgets/led/lv_led.c ****     if(bright > (LV_LED_BRIGHT_MIN + LV_LED_BRIGHT_MAX) >> 1)
 1491              		.loc 1 127 5 is_stmt 1 view .LVU431
 127:Middlewares/lvgl/src/extra/widgets/led/lv_led.c ****     if(bright > (LV_LED_BRIGHT_MIN + LV_LED_BRIGHT_MAX) >> 1)
 1492              		.loc 1 127 22 is_stmt 0 view .LVU432
 1493 0004 FFF7FEFF 		bl	lv_led_get_brightness
 1494              	.LVL140:
 128:Middlewares/lvgl/src/extra/widgets/led/lv_led.c ****         lv_led_off(obj);
 1495              		.loc 1 128 5 is_stmt 1 view .LVU433
 128:Middlewares/lvgl/src/extra/widgets/led/lv_led.c ****         lv_led_off(obj);
 1496              		.loc 1 128 7 is_stmt 0 view .LVU434
 1497 0008 A728     		cmp	r0, #167
 1498 000a 03D9     		bls	.L29
 129:Middlewares/lvgl/src/extra/widgets/led/lv_led.c ****     else
 1499              		.loc 1 129 9 is_stmt 1 view .LVU435
 1500 000c 2046     		mov	r0, r4
 1501              	.LVL141:
 129:Middlewares/lvgl/src/extra/widgets/led/lv_led.c ****     else
 1502              		.loc 1 129 9 is_stmt 0 view .LVU436
 1503 000e FFF7FEFF 		bl	lv_led_off
 1504              	.LVL142:
 1505              	.L28:
 132:Middlewares/lvgl/src/extra/widgets/led/lv_led.c **** 
 1506              		.loc 1 132 1 view .LVU437
 1507 0012 10BD     		pop	{r4, pc}
 1508              	.LVL143:
 1509              	.L29:
 131:Middlewares/lvgl/src/extra/widgets/led/lv_led.c **** }
 1510              		.loc 1 131 9 is_stmt 1 view .LVU438
 1511 0014 2046     		mov	r0, r4
 1512              	.LVL144:
 131:Middlewares/lvgl/src/extra/widgets/led/lv_led.c **** }
 1513              		.loc 1 131 9 is_stmt 0 view .LVU439
 1514 0016 FFF7FEFF 		bl	lv_led_on
 1515              	.LVL145:
 132:Middlewares/lvgl/src/extra/widgets/led/lv_led.c **** 
 1516              		.loc 1 132 1 view .LVU440
 1517 001a FAE7     		b	.L28
 1518              		.cfi_endproc
 1519              	.LFE189:
 1521              		.global	lv_led_class
 1522              		.section	.rodata.lv_led_class,"a"
 1523              		.align	2
 1524              		.set	.LANCHOR0,. + 0
 1527              	lv_led_class:
 1528 0000 00000000 		.word	lv_obj_class
 1529 0004 00000000 		.word	lv_led_constructor
 1530 0008 00000000 		.space	8
 1530      00000000 
 1531 0010 00000000 		.word	lv_led_event
 1532 0014 1A00     		.short	26
 1533 0016 1A00     		.short	26
ARM GAS  /tmp/cceKcmvQ.s 			page 50


 1534 0018 80       		.byte	128
 1535 0019 02       		.byte	2
 1536 001a 00       		.byte	0
 1537 001b 00       		.space	1
 1538              		.text
 1539              	.Letext0:
 1540              		.file 3 "/home/akinya/gcc-arm-none-eabi/arm-none-eabi/include/machine/_default_types.h"
 1541              		.file 4 "/home/akinya/gcc-arm-none-eabi/arm-none-eabi/include/sys/_stdint.h"
 1542              		.file 5 "Middlewares/lvgl/src/extra/widgets/led/../../../../src/misc/lv_types.h"
 1543              		.file 6 "Middlewares/lvgl/src/extra/widgets/led/../../../../src/misc/lv_ll.h"
 1544              		.file 7 "Middlewares/lvgl/src/extra/widgets/led/../../../../src/hal/../misc/lv_area.h"
 1545              		.file 8 "Middlewares/lvgl/src/extra/widgets/led/../../../../src/core/lv_obj.h"
 1546              		.file 9 "Middlewares/lvgl/src/extra/widgets/led/../../../../src/core/lv_group.h"
 1547              		.file 10 "Middlewares/lvgl/src/extra/widgets/led/../../../../src/core/../misc/../font/lv_font.h"
 1548              		.file 11 "Middlewares/lvgl/src/extra/widgets/led/../../../../src/core/../misc/lv_txt.h"
 1549              		.file 12 "Middlewares/lvgl/src/extra/widgets/led/../../../../src/core/../misc/lv_bidi.h"
 1550              		.file 13 "Middlewares/lvgl/src/extra/widgets/led/../../../../src/core/../misc/lv_style.h"
 1551              		.file 14 "Middlewares/lvgl/src/extra/widgets/led/../../../../src/core/lv_obj_scroll.h"
 1552              		.file 15 "Middlewares/lvgl/src/extra/widgets/led/../../../../src/core/lv_obj_style.h"
 1553              		.file 16 "Middlewares/lvgl/src/extra/widgets/led/../../../../src/core/../draw/lv_draw_rect.h"
 1554              		.file 17 "Middlewares/lvgl/src/extra/widgets/led/../../../../src/core/../draw/lv_draw_label.h"
 1555              		.file 18 "Middlewares/lvgl/src/extra/widgets/led/../../../../src/core/../draw/lv_draw_img.h"
 1556              		.file 19 "Middlewares/lvgl/src/extra/widgets/led/../../../../src/core/../draw/lv_draw_line.h"
 1557              		.file 20 "Middlewares/lvgl/src/extra/widgets/led/../../../../src/core/../draw/lv_draw_arc.h"
 1558              		.file 21 "Middlewares/lvgl/src/extra/widgets/led/../../../../src/core/lv_obj_draw.h"
 1559              		.file 22 "Middlewares/lvgl/src/extra/widgets/led/../../../../src/core/lv_obj_class.h"
 1560              		.file 23 "Middlewares/lvgl/src/extra/widgets/led/../../../../src/core/lv_event.h"
 1561              		.file 24 "Middlewares/lvgl/src/extra/widgets/led/../../../../src/widgets/lv_bar.h"
 1562              		.file 25 "Middlewares/lvgl/src/extra/widgets/led/../../../../src/extra/widgets/imgbtn/lv_imgbtn.h"
 1563              		.file 26 "Middlewares/lvgl/src/extra/widgets/led/lv_led.h"
 1564              		.file 27 "Middlewares/lvgl/src/extra/widgets/led/../../../../src/core/lv_theme.h"
 1565              		.file 28 "Middlewares/lvgl/src/extra/widgets/led/../../../../src/core/lv_obj_pos.h"
ARM GAS  /tmp/cceKcmvQ.s 			page 51

