ARM GAS  /tmp/ccoxlgn6.s 			page 1


   1              		.cpu cortex-m7
   2              		.eabi_attribute 28, 1
   3              		.eabi_attribute 20, 1
   4              		.eabi_attribute 21, 1
   5              		.eabi_attribute 23, 3
   6              		.eabi_attribute 24, 1
   7              		.eabi_attribute 25, 1
   8              		.eabi_attribute 26, 1
   9              		.eabi_attribute 30, 1
  10              		.eabi_attribute 34, 1
  11              		.eabi_attribute 18, 4
  12              		.file	"lv_obj_style.c"
  13              		.text
  14              	.Ltext0:
  15              		.cfi_sections	.debug_frame
  16              		.section	.text.trans_del,"ax",%progbits
  17              		.align	1
  18              		.arch armv7e-m
  19              		.syntax unified
  20              		.thumb
  21              		.thumb_func
  22              		.fpu fpv5-d16
  24              	trans_del:
  25              	.LVL0:
  26              	.LFB175:
  27              		.file 1 "Middlewares/lvgl/src/core/lv_obj_style.c"
   1:Middlewares/lvgl/src/core/lv_obj_style.c **** /**
   2:Middlewares/lvgl/src/core/lv_obj_style.c ****  * @file lv_obj_style.c
   3:Middlewares/lvgl/src/core/lv_obj_style.c ****  *
   4:Middlewares/lvgl/src/core/lv_obj_style.c ****  */
   5:Middlewares/lvgl/src/core/lv_obj_style.c **** 
   6:Middlewares/lvgl/src/core/lv_obj_style.c **** /*********************
   7:Middlewares/lvgl/src/core/lv_obj_style.c ****  *      INCLUDES
   8:Middlewares/lvgl/src/core/lv_obj_style.c ****  *********************/
   9:Middlewares/lvgl/src/core/lv_obj_style.c **** #include "lv_obj.h"
  10:Middlewares/lvgl/src/core/lv_obj_style.c **** #include "lv_disp.h"
  11:Middlewares/lvgl/src/core/lv_obj_style.c **** #include "../misc/lv_gc.h"
  12:Middlewares/lvgl/src/core/lv_obj_style.c **** 
  13:Middlewares/lvgl/src/core/lv_obj_style.c **** /*********************
  14:Middlewares/lvgl/src/core/lv_obj_style.c ****  *      DEFINES
  15:Middlewares/lvgl/src/core/lv_obj_style.c ****  *********************/
  16:Middlewares/lvgl/src/core/lv_obj_style.c **** #define MY_CLASS &lv_obj_class
  17:Middlewares/lvgl/src/core/lv_obj_style.c **** 
  18:Middlewares/lvgl/src/core/lv_obj_style.c **** /**********************
  19:Middlewares/lvgl/src/core/lv_obj_style.c ****  *      TYPEDEFS
  20:Middlewares/lvgl/src/core/lv_obj_style.c ****  **********************/
  21:Middlewares/lvgl/src/core/lv_obj_style.c **** 
  22:Middlewares/lvgl/src/core/lv_obj_style.c **** typedef struct {
  23:Middlewares/lvgl/src/core/lv_obj_style.c ****     lv_obj_t * obj;
  24:Middlewares/lvgl/src/core/lv_obj_style.c ****     lv_style_prop_t prop;
  25:Middlewares/lvgl/src/core/lv_obj_style.c ****     lv_style_selector_t selector;
  26:Middlewares/lvgl/src/core/lv_obj_style.c ****     lv_style_value_t start_value;
  27:Middlewares/lvgl/src/core/lv_obj_style.c ****     lv_style_value_t end_value;
  28:Middlewares/lvgl/src/core/lv_obj_style.c **** } trans_t;
  29:Middlewares/lvgl/src/core/lv_obj_style.c **** 
  30:Middlewares/lvgl/src/core/lv_obj_style.c **** typedef enum {
  31:Middlewares/lvgl/src/core/lv_obj_style.c ****     CACHE_ZERO = 0,
ARM GAS  /tmp/ccoxlgn6.s 			page 2


  32:Middlewares/lvgl/src/core/lv_obj_style.c ****     CACHE_TRUE = 1,
  33:Middlewares/lvgl/src/core/lv_obj_style.c ****     CACHE_UNSET = 2,
  34:Middlewares/lvgl/src/core/lv_obj_style.c ****     CACHE_255 = 3,
  35:Middlewares/lvgl/src/core/lv_obj_style.c ****     CACHE_NEED_CHECK = 4,
  36:Middlewares/lvgl/src/core/lv_obj_style.c **** }cache_t;
  37:Middlewares/lvgl/src/core/lv_obj_style.c **** 
  38:Middlewares/lvgl/src/core/lv_obj_style.c **** /**********************
  39:Middlewares/lvgl/src/core/lv_obj_style.c ****  *  GLOBAL PROTOTYPES
  40:Middlewares/lvgl/src/core/lv_obj_style.c ****  **********************/
  41:Middlewares/lvgl/src/core/lv_obj_style.c **** 
  42:Middlewares/lvgl/src/core/lv_obj_style.c **** /**********************
  43:Middlewares/lvgl/src/core/lv_obj_style.c ****  *  STATIC PROTOTYPES
  44:Middlewares/lvgl/src/core/lv_obj_style.c ****  **********************/
  45:Middlewares/lvgl/src/core/lv_obj_style.c **** static lv_style_t * get_local_style(lv_obj_t * obj, lv_style_selector_t selector);
  46:Middlewares/lvgl/src/core/lv_obj_style.c **** static _lv_obj_style_t * get_trans_style(lv_obj_t * obj, uint32_t part);
  47:Middlewares/lvgl/src/core/lv_obj_style.c **** static bool get_prop_core(const lv_obj_t * obj, lv_part_t part, lv_style_prop_t prop, lv_style_valu
  48:Middlewares/lvgl/src/core/lv_obj_style.c **** static lv_style_value_t apply_color_filter(const lv_obj_t * obj, uint32_t part, lv_style_value_t v)
  49:Middlewares/lvgl/src/core/lv_obj_style.c **** static void report_style_change_core(void * style, lv_obj_t * obj);
  50:Middlewares/lvgl/src/core/lv_obj_style.c **** static void refresh_children_style(lv_obj_t * obj);
  51:Middlewares/lvgl/src/core/lv_obj_style.c **** static bool trans_del(lv_obj_t * obj, lv_part_t part, lv_style_prop_t prop, trans_t * tr_limit);
  52:Middlewares/lvgl/src/core/lv_obj_style.c **** static void trans_anim_cb(void * _tr, int32_t v);
  53:Middlewares/lvgl/src/core/lv_obj_style.c **** static void trans_anim_start_cb(lv_anim_t * a);
  54:Middlewares/lvgl/src/core/lv_obj_style.c **** static void trans_anim_ready_cb(lv_anim_t * a);
  55:Middlewares/lvgl/src/core/lv_obj_style.c **** static void fade_anim_cb(void * obj, int32_t v);
  56:Middlewares/lvgl/src/core/lv_obj_style.c **** static void fade_in_anim_ready(lv_anim_t * a);
  57:Middlewares/lvgl/src/core/lv_obj_style.c **** 
  58:Middlewares/lvgl/src/core/lv_obj_style.c **** /**********************
  59:Middlewares/lvgl/src/core/lv_obj_style.c ****  *  STATIC VARIABLES
  60:Middlewares/lvgl/src/core/lv_obj_style.c ****  **********************/
  61:Middlewares/lvgl/src/core/lv_obj_style.c **** static bool style_refr = true;
  62:Middlewares/lvgl/src/core/lv_obj_style.c **** 
  63:Middlewares/lvgl/src/core/lv_obj_style.c **** /**********************
  64:Middlewares/lvgl/src/core/lv_obj_style.c ****  *      MACROS
  65:Middlewares/lvgl/src/core/lv_obj_style.c ****  **********************/
  66:Middlewares/lvgl/src/core/lv_obj_style.c **** 
  67:Middlewares/lvgl/src/core/lv_obj_style.c **** /**********************
  68:Middlewares/lvgl/src/core/lv_obj_style.c ****  *   GLOBAL FUNCTIONS
  69:Middlewares/lvgl/src/core/lv_obj_style.c ****  **********************/
  70:Middlewares/lvgl/src/core/lv_obj_style.c **** 
  71:Middlewares/lvgl/src/core/lv_obj_style.c **** void _lv_obj_style_init(void)
  72:Middlewares/lvgl/src/core/lv_obj_style.c **** {
  73:Middlewares/lvgl/src/core/lv_obj_style.c ****     _lv_ll_init(&LV_GC_ROOT(_lv_obj_style_trans_ll), sizeof(trans_t));
  74:Middlewares/lvgl/src/core/lv_obj_style.c **** }
  75:Middlewares/lvgl/src/core/lv_obj_style.c **** 
  76:Middlewares/lvgl/src/core/lv_obj_style.c **** void lv_obj_add_style(lv_obj_t * obj, lv_style_t * style, lv_style_selector_t selector)
  77:Middlewares/lvgl/src/core/lv_obj_style.c **** {
  78:Middlewares/lvgl/src/core/lv_obj_style.c ****     trans_del(obj, selector, LV_STYLE_PROP_ANY, NULL);
  79:Middlewares/lvgl/src/core/lv_obj_style.c **** 
  80:Middlewares/lvgl/src/core/lv_obj_style.c ****     uint32_t i;
  81:Middlewares/lvgl/src/core/lv_obj_style.c ****     /*Go after the transition and local styles*/
  82:Middlewares/lvgl/src/core/lv_obj_style.c ****     for(i = 0; i < obj->style_cnt; i++) {
  83:Middlewares/lvgl/src/core/lv_obj_style.c ****         if(obj->styles[i].is_trans) continue;
  84:Middlewares/lvgl/src/core/lv_obj_style.c ****         if(obj->styles[i].is_local) continue;
  85:Middlewares/lvgl/src/core/lv_obj_style.c ****         break;
  86:Middlewares/lvgl/src/core/lv_obj_style.c ****     }
  87:Middlewares/lvgl/src/core/lv_obj_style.c **** 
  88:Middlewares/lvgl/src/core/lv_obj_style.c ****     /*Now `i` is at the first normal style. Insert the new style before this*/
ARM GAS  /tmp/ccoxlgn6.s 			page 3


  89:Middlewares/lvgl/src/core/lv_obj_style.c **** 
  90:Middlewares/lvgl/src/core/lv_obj_style.c ****     /*Allocate space for the new style and shift the rest of the style to the end*/
  91:Middlewares/lvgl/src/core/lv_obj_style.c ****     obj->style_cnt++;
  92:Middlewares/lvgl/src/core/lv_obj_style.c ****     obj->styles = lv_mem_realloc(obj->styles, obj->style_cnt * sizeof(_lv_obj_style_t));
  93:Middlewares/lvgl/src/core/lv_obj_style.c **** 
  94:Middlewares/lvgl/src/core/lv_obj_style.c ****     uint32_t j;
  95:Middlewares/lvgl/src/core/lv_obj_style.c ****     for(j = obj->style_cnt - 1; j > i ; j--) {
  96:Middlewares/lvgl/src/core/lv_obj_style.c ****         obj->styles[j] = obj->styles[j - 1];
  97:Middlewares/lvgl/src/core/lv_obj_style.c ****     }
  98:Middlewares/lvgl/src/core/lv_obj_style.c **** 
  99:Middlewares/lvgl/src/core/lv_obj_style.c ****     lv_memset_00(&obj->styles[i], sizeof(_lv_obj_style_t));
 100:Middlewares/lvgl/src/core/lv_obj_style.c ****     obj->styles[i].style = style;
 101:Middlewares/lvgl/src/core/lv_obj_style.c ****     obj->styles[i].selector = selector;
 102:Middlewares/lvgl/src/core/lv_obj_style.c **** 
 103:Middlewares/lvgl/src/core/lv_obj_style.c ****     lv_obj_refresh_style(obj, selector, LV_STYLE_PROP_ANY);
 104:Middlewares/lvgl/src/core/lv_obj_style.c **** }
 105:Middlewares/lvgl/src/core/lv_obj_style.c **** 
 106:Middlewares/lvgl/src/core/lv_obj_style.c **** void lv_obj_remove_style(lv_obj_t * obj, lv_style_t * style, lv_style_selector_t selector)
 107:Middlewares/lvgl/src/core/lv_obj_style.c **** {
 108:Middlewares/lvgl/src/core/lv_obj_style.c ****     lv_state_t state = lv_obj_style_get_selector_state(selector);
 109:Middlewares/lvgl/src/core/lv_obj_style.c ****     lv_part_t part = lv_obj_style_get_selector_part(selector);
 110:Middlewares/lvgl/src/core/lv_obj_style.c ****     lv_style_prop_t prop = LV_STYLE_PROP_ANY;
 111:Middlewares/lvgl/src/core/lv_obj_style.c ****     if(style && style->prop_cnt == 0) prop = LV_STYLE_PROP_INV;
 112:Middlewares/lvgl/src/core/lv_obj_style.c **** 
 113:Middlewares/lvgl/src/core/lv_obj_style.c ****     uint32_t i = 0;
 114:Middlewares/lvgl/src/core/lv_obj_style.c ****     bool deleted = false;
 115:Middlewares/lvgl/src/core/lv_obj_style.c ****     while(i <  obj->style_cnt) {
 116:Middlewares/lvgl/src/core/lv_obj_style.c ****         lv_state_t state_act = lv_obj_style_get_selector_state(obj->styles[i].selector);
 117:Middlewares/lvgl/src/core/lv_obj_style.c ****         lv_part_t part_act = lv_obj_style_get_selector_part(obj->styles[i].selector);
 118:Middlewares/lvgl/src/core/lv_obj_style.c ****         if((state != LV_STATE_ANY && state_act != state) ||
 119:Middlewares/lvgl/src/core/lv_obj_style.c ****            (part != LV_PART_ANY && part_act != part) ||
 120:Middlewares/lvgl/src/core/lv_obj_style.c ****            (style != NULL && style != obj->styles[i].style))
 121:Middlewares/lvgl/src/core/lv_obj_style.c ****         {
 122:Middlewares/lvgl/src/core/lv_obj_style.c ****             i++;
 123:Middlewares/lvgl/src/core/lv_obj_style.c ****             continue;
 124:Middlewares/lvgl/src/core/lv_obj_style.c ****         }
 125:Middlewares/lvgl/src/core/lv_obj_style.c **** 
 126:Middlewares/lvgl/src/core/lv_obj_style.c ****         if(obj->styles[i].is_trans) {
 127:Middlewares/lvgl/src/core/lv_obj_style.c ****             trans_del(obj, part, LV_STYLE_PROP_ANY, NULL);
 128:Middlewares/lvgl/src/core/lv_obj_style.c ****         }
 129:Middlewares/lvgl/src/core/lv_obj_style.c **** 
 130:Middlewares/lvgl/src/core/lv_obj_style.c ****         if(obj->styles[i].is_local || obj->styles[i].is_trans) {
 131:Middlewares/lvgl/src/core/lv_obj_style.c ****             lv_style_reset(obj->styles[i].style);
 132:Middlewares/lvgl/src/core/lv_obj_style.c ****             lv_mem_free(obj->styles[i].style);
 133:Middlewares/lvgl/src/core/lv_obj_style.c ****             obj->styles[i].style = NULL;
 134:Middlewares/lvgl/src/core/lv_obj_style.c ****         }
 135:Middlewares/lvgl/src/core/lv_obj_style.c **** 
 136:Middlewares/lvgl/src/core/lv_obj_style.c ****         /*Shift the styles after `i` by one*/
 137:Middlewares/lvgl/src/core/lv_obj_style.c ****         uint32_t j;
 138:Middlewares/lvgl/src/core/lv_obj_style.c ****         for(j = i; j < (uint32_t)obj->style_cnt - 1 ; j++) {
 139:Middlewares/lvgl/src/core/lv_obj_style.c ****             obj->styles[j] = obj->styles[j + 1];
 140:Middlewares/lvgl/src/core/lv_obj_style.c ****         }
 141:Middlewares/lvgl/src/core/lv_obj_style.c **** 
 142:Middlewares/lvgl/src/core/lv_obj_style.c ****         obj->style_cnt--;
 143:Middlewares/lvgl/src/core/lv_obj_style.c ****         obj->styles = lv_mem_realloc(obj->styles, obj->style_cnt * sizeof(_lv_obj_style_t));
 144:Middlewares/lvgl/src/core/lv_obj_style.c **** 
 145:Middlewares/lvgl/src/core/lv_obj_style.c ****         deleted = true;
ARM GAS  /tmp/ccoxlgn6.s 			page 4


 146:Middlewares/lvgl/src/core/lv_obj_style.c ****         /*The style from the current `i` index is removed, so `i` points to the next style.
 147:Middlewares/lvgl/src/core/lv_obj_style.c ****          *Therefore it doesn't needs to be incremented*/
 148:Middlewares/lvgl/src/core/lv_obj_style.c ****     }
 149:Middlewares/lvgl/src/core/lv_obj_style.c ****     if(deleted && prop != LV_STYLE_PROP_INV) {
 150:Middlewares/lvgl/src/core/lv_obj_style.c ****         lv_obj_refresh_style(obj, part, prop);
 151:Middlewares/lvgl/src/core/lv_obj_style.c ****     }
 152:Middlewares/lvgl/src/core/lv_obj_style.c **** }
 153:Middlewares/lvgl/src/core/lv_obj_style.c **** 
 154:Middlewares/lvgl/src/core/lv_obj_style.c **** void lv_obj_report_style_change(lv_style_t * style)
 155:Middlewares/lvgl/src/core/lv_obj_style.c **** {
 156:Middlewares/lvgl/src/core/lv_obj_style.c ****     if(!style_refr) return;
 157:Middlewares/lvgl/src/core/lv_obj_style.c ****     lv_disp_t * d = lv_disp_get_next(NULL);
 158:Middlewares/lvgl/src/core/lv_obj_style.c **** 
 159:Middlewares/lvgl/src/core/lv_obj_style.c ****     while(d) {
 160:Middlewares/lvgl/src/core/lv_obj_style.c ****         uint32_t i;
 161:Middlewares/lvgl/src/core/lv_obj_style.c ****         for(i = 0; i < d->screen_cnt; i++) {
 162:Middlewares/lvgl/src/core/lv_obj_style.c ****             report_style_change_core(style, d->screens[i]);
 163:Middlewares/lvgl/src/core/lv_obj_style.c ****         }
 164:Middlewares/lvgl/src/core/lv_obj_style.c ****         d = lv_disp_get_next(d);
 165:Middlewares/lvgl/src/core/lv_obj_style.c ****     }
 166:Middlewares/lvgl/src/core/lv_obj_style.c **** }
 167:Middlewares/lvgl/src/core/lv_obj_style.c **** 
 168:Middlewares/lvgl/src/core/lv_obj_style.c **** void lv_obj_refresh_style(lv_obj_t * obj, lv_style_selector_t selector, lv_style_prop_t prop)
 169:Middlewares/lvgl/src/core/lv_obj_style.c **** {
 170:Middlewares/lvgl/src/core/lv_obj_style.c ****     LV_ASSERT_OBJ(obj, MY_CLASS);
 171:Middlewares/lvgl/src/core/lv_obj_style.c **** 
 172:Middlewares/lvgl/src/core/lv_obj_style.c ****     if(!style_refr) return;
 173:Middlewares/lvgl/src/core/lv_obj_style.c **** 
 174:Middlewares/lvgl/src/core/lv_obj_style.c ****     lv_obj_invalidate(obj);
 175:Middlewares/lvgl/src/core/lv_obj_style.c **** 
 176:Middlewares/lvgl/src/core/lv_obj_style.c ****     lv_part_t part = lv_obj_style_get_selector_part(selector);
 177:Middlewares/lvgl/src/core/lv_obj_style.c **** 
 178:Middlewares/lvgl/src/core/lv_obj_style.c ****     if((part == LV_PART_ANY || part == LV_PART_MAIN) && (prop == LV_STYLE_PROP_ANY || (prop & LV_ST
 179:Middlewares/lvgl/src/core/lv_obj_style.c ****         lv_event_send(obj, LV_EVENT_STYLE_CHANGED, NULL);
 180:Middlewares/lvgl/src/core/lv_obj_style.c ****         lv_obj_mark_layout_as_dirty(obj);
 181:Middlewares/lvgl/src/core/lv_obj_style.c ****     }
 182:Middlewares/lvgl/src/core/lv_obj_style.c ****     if((part == LV_PART_ANY || part == LV_PART_MAIN) && (prop == LV_STYLE_PROP_ANY || (prop & LV_ST
 183:Middlewares/lvgl/src/core/lv_obj_style.c ****         lv_obj_t * parent = lv_obj_get_parent(obj);
 184:Middlewares/lvgl/src/core/lv_obj_style.c ****         if(parent) lv_obj_mark_layout_as_dirty(parent);
 185:Middlewares/lvgl/src/core/lv_obj_style.c ****     }
 186:Middlewares/lvgl/src/core/lv_obj_style.c **** 
 187:Middlewares/lvgl/src/core/lv_obj_style.c ****     if(prop == LV_STYLE_PROP_ANY || (prop & LV_STYLE_PROP_EXT_DRAW)) {
 188:Middlewares/lvgl/src/core/lv_obj_style.c ****         lv_obj_refresh_ext_draw_size(obj);
 189:Middlewares/lvgl/src/core/lv_obj_style.c ****     }
 190:Middlewares/lvgl/src/core/lv_obj_style.c ****     lv_obj_invalidate(obj);
 191:Middlewares/lvgl/src/core/lv_obj_style.c **** 
 192:Middlewares/lvgl/src/core/lv_obj_style.c ****     if(prop == LV_STYLE_PROP_ANY ||
 193:Middlewares/lvgl/src/core/lv_obj_style.c ****       ((prop & LV_STYLE_PROP_INHERIT) && ((prop & LV_STYLE_PROP_EXT_DRAW) || (prop & LV_STYLE_PROP_
 194:Middlewares/lvgl/src/core/lv_obj_style.c ****     {
 195:Middlewares/lvgl/src/core/lv_obj_style.c ****         if(part != LV_PART_SCROLLBAR) {
 196:Middlewares/lvgl/src/core/lv_obj_style.c ****             refresh_children_style(obj);
 197:Middlewares/lvgl/src/core/lv_obj_style.c ****         }
 198:Middlewares/lvgl/src/core/lv_obj_style.c ****     }
 199:Middlewares/lvgl/src/core/lv_obj_style.c **** }
 200:Middlewares/lvgl/src/core/lv_obj_style.c **** 
 201:Middlewares/lvgl/src/core/lv_obj_style.c **** void lv_obj_enable_style_refresh(bool en)
 202:Middlewares/lvgl/src/core/lv_obj_style.c **** {
ARM GAS  /tmp/ccoxlgn6.s 			page 5


 203:Middlewares/lvgl/src/core/lv_obj_style.c ****     style_refr = en;
 204:Middlewares/lvgl/src/core/lv_obj_style.c **** }
 205:Middlewares/lvgl/src/core/lv_obj_style.c **** 
 206:Middlewares/lvgl/src/core/lv_obj_style.c **** lv_style_value_t lv_obj_get_style_prop(const lv_obj_t * obj, lv_part_t part, lv_style_prop_t prop)
 207:Middlewares/lvgl/src/core/lv_obj_style.c **** {
 208:Middlewares/lvgl/src/core/lv_obj_style.c ****     lv_style_value_t value_act;
 209:Middlewares/lvgl/src/core/lv_obj_style.c ****     bool inherit = prop & LV_STYLE_PROP_INHERIT ? true : false;
 210:Middlewares/lvgl/src/core/lv_obj_style.c ****     bool filter = prop & LV_STYLE_PROP_FILTER ? true : false;
 211:Middlewares/lvgl/src/core/lv_obj_style.c ****     if(filter) {
 212:Middlewares/lvgl/src/core/lv_obj_style.c ****         prop &= ~LV_STYLE_PROP_FILTER;
 213:Middlewares/lvgl/src/core/lv_obj_style.c ****     }
 214:Middlewares/lvgl/src/core/lv_obj_style.c ****     bool found = false;
 215:Middlewares/lvgl/src/core/lv_obj_style.c ****     while(obj) {
 216:Middlewares/lvgl/src/core/lv_obj_style.c ****         found = get_prop_core(obj, part, prop, &value_act);
 217:Middlewares/lvgl/src/core/lv_obj_style.c ****         if(found) break;
 218:Middlewares/lvgl/src/core/lv_obj_style.c ****         if(!inherit) break;
 219:Middlewares/lvgl/src/core/lv_obj_style.c **** 
 220:Middlewares/lvgl/src/core/lv_obj_style.c ****         /*If not found, check the `MAIN` style first*/
 221:Middlewares/lvgl/src/core/lv_obj_style.c ****         if(part != LV_PART_MAIN) {
 222:Middlewares/lvgl/src/core/lv_obj_style.c ****             part = LV_PART_MAIN;
 223:Middlewares/lvgl/src/core/lv_obj_style.c ****             continue;
 224:Middlewares/lvgl/src/core/lv_obj_style.c ****         }
 225:Middlewares/lvgl/src/core/lv_obj_style.c **** 
 226:Middlewares/lvgl/src/core/lv_obj_style.c ****         /*Check the parent too.*/
 227:Middlewares/lvgl/src/core/lv_obj_style.c ****         obj = lv_obj_get_parent(obj);
 228:Middlewares/lvgl/src/core/lv_obj_style.c ****     }
 229:Middlewares/lvgl/src/core/lv_obj_style.c **** 
 230:Middlewares/lvgl/src/core/lv_obj_style.c ****     if(!found) {
 231:Middlewares/lvgl/src/core/lv_obj_style.c ****         if(part == LV_PART_MAIN && (prop == LV_STYLE_WIDTH || prop == LV_STYLE_HEIGHT)) {
 232:Middlewares/lvgl/src/core/lv_obj_style.c ****             const lv_obj_class_t * cls = obj->class_p;
 233:Middlewares/lvgl/src/core/lv_obj_style.c ****             while(cls) {
 234:Middlewares/lvgl/src/core/lv_obj_style.c ****                 if(prop == LV_STYLE_WIDTH) {
 235:Middlewares/lvgl/src/core/lv_obj_style.c ****                     if(cls->width_def != 0) break;
 236:Middlewares/lvgl/src/core/lv_obj_style.c ****                 } else {
 237:Middlewares/lvgl/src/core/lv_obj_style.c ****                     if(cls->height_def != 0) break;
 238:Middlewares/lvgl/src/core/lv_obj_style.c ****                 }
 239:Middlewares/lvgl/src/core/lv_obj_style.c ****                 cls = cls->base_class;
 240:Middlewares/lvgl/src/core/lv_obj_style.c ****             }
 241:Middlewares/lvgl/src/core/lv_obj_style.c **** 
 242:Middlewares/lvgl/src/core/lv_obj_style.c ****             value_act.num = prop == LV_STYLE_WIDTH ? cls->width_def : cls->height_def;
 243:Middlewares/lvgl/src/core/lv_obj_style.c ****         } else {
 244:Middlewares/lvgl/src/core/lv_obj_style.c ****             value_act = lv_style_prop_get_default(prop);
 245:Middlewares/lvgl/src/core/lv_obj_style.c ****         }
 246:Middlewares/lvgl/src/core/lv_obj_style.c ****     }
 247:Middlewares/lvgl/src/core/lv_obj_style.c ****     if(filter) value_act = apply_color_filter(obj, part, value_act);
 248:Middlewares/lvgl/src/core/lv_obj_style.c ****     return value_act;
 249:Middlewares/lvgl/src/core/lv_obj_style.c **** }
 250:Middlewares/lvgl/src/core/lv_obj_style.c **** 
 251:Middlewares/lvgl/src/core/lv_obj_style.c **** void lv_obj_set_local_style_prop(lv_obj_t * obj, lv_style_prop_t prop, lv_style_value_t value, lv_s
 252:Middlewares/lvgl/src/core/lv_obj_style.c **** {
 253:Middlewares/lvgl/src/core/lv_obj_style.c ****     lv_style_t * style = get_local_style(obj, selector);
 254:Middlewares/lvgl/src/core/lv_obj_style.c ****     lv_style_set_prop(style, prop, value);
 255:Middlewares/lvgl/src/core/lv_obj_style.c ****     lv_obj_refresh_style(obj, selector, prop);
 256:Middlewares/lvgl/src/core/lv_obj_style.c **** }
 257:Middlewares/lvgl/src/core/lv_obj_style.c **** 
 258:Middlewares/lvgl/src/core/lv_obj_style.c **** 
 259:Middlewares/lvgl/src/core/lv_obj_style.c **** lv_res_t lv_obj_get_local_style_prop(lv_obj_t * obj, lv_style_prop_t prop, lv_style_value_t * value
ARM GAS  /tmp/ccoxlgn6.s 			page 6


 260:Middlewares/lvgl/src/core/lv_obj_style.c **** {
 261:Middlewares/lvgl/src/core/lv_obj_style.c ****     uint32_t i;
 262:Middlewares/lvgl/src/core/lv_obj_style.c ****     for(i = 0; i < obj->style_cnt; i++) {
 263:Middlewares/lvgl/src/core/lv_obj_style.c ****         if(obj->styles[i].is_local &&
 264:Middlewares/lvgl/src/core/lv_obj_style.c ****            obj->styles[i].selector ==  selector)
 265:Middlewares/lvgl/src/core/lv_obj_style.c ****         {
 266:Middlewares/lvgl/src/core/lv_obj_style.c ****             return lv_style_get_prop(obj->styles[i].style, prop, value);
 267:Middlewares/lvgl/src/core/lv_obj_style.c ****         }
 268:Middlewares/lvgl/src/core/lv_obj_style.c ****     }
 269:Middlewares/lvgl/src/core/lv_obj_style.c **** 
 270:Middlewares/lvgl/src/core/lv_obj_style.c ****     return LV_RES_INV;
 271:Middlewares/lvgl/src/core/lv_obj_style.c **** }
 272:Middlewares/lvgl/src/core/lv_obj_style.c **** 
 273:Middlewares/lvgl/src/core/lv_obj_style.c **** bool lv_obj_remove_local_style_prop(lv_obj_t * obj, lv_style_prop_t prop, lv_style_selector_t selec
 274:Middlewares/lvgl/src/core/lv_obj_style.c **** {
 275:Middlewares/lvgl/src/core/lv_obj_style.c ****     LV_ASSERT_OBJ(obj, MY_CLASS);
 276:Middlewares/lvgl/src/core/lv_obj_style.c **** 
 277:Middlewares/lvgl/src/core/lv_obj_style.c ****     uint32_t i;
 278:Middlewares/lvgl/src/core/lv_obj_style.c ****     /*Find the style*/
 279:Middlewares/lvgl/src/core/lv_obj_style.c ****     for(i = 0; i < obj->style_cnt; i++) {
 280:Middlewares/lvgl/src/core/lv_obj_style.c ****         if(obj->styles[i].is_local &&
 281:Middlewares/lvgl/src/core/lv_obj_style.c ****            obj->styles[i].selector == selector) {
 282:Middlewares/lvgl/src/core/lv_obj_style.c ****             break;
 283:Middlewares/lvgl/src/core/lv_obj_style.c ****         }
 284:Middlewares/lvgl/src/core/lv_obj_style.c ****     }
 285:Middlewares/lvgl/src/core/lv_obj_style.c **** 
 286:Middlewares/lvgl/src/core/lv_obj_style.c ****     /*The style is not found*/
 287:Middlewares/lvgl/src/core/lv_obj_style.c ****     if(i == obj->style_cnt) return false;
 288:Middlewares/lvgl/src/core/lv_obj_style.c **** 
 289:Middlewares/lvgl/src/core/lv_obj_style.c ****     return lv_style_remove_prop(obj->styles[i].style, prop);
 290:Middlewares/lvgl/src/core/lv_obj_style.c **** }
 291:Middlewares/lvgl/src/core/lv_obj_style.c **** 
 292:Middlewares/lvgl/src/core/lv_obj_style.c **** void _lv_obj_style_create_transition(lv_obj_t * obj, lv_part_t part, lv_state_t prev_state, lv_stat
 293:Middlewares/lvgl/src/core/lv_obj_style.c **** {
 294:Middlewares/lvgl/src/core/lv_obj_style.c ****     trans_t * tr;
 295:Middlewares/lvgl/src/core/lv_obj_style.c **** 
 296:Middlewares/lvgl/src/core/lv_obj_style.c ****     /*Get the previous and current values*/
 297:Middlewares/lvgl/src/core/lv_obj_style.c ****     obj->skip_trans = 1;
 298:Middlewares/lvgl/src/core/lv_obj_style.c ****     obj->state = prev_state;
 299:Middlewares/lvgl/src/core/lv_obj_style.c ****     lv_style_value_t v1 = lv_obj_get_style_prop(obj, part, tr_dsc->prop);
 300:Middlewares/lvgl/src/core/lv_obj_style.c ****     obj->state = new_state;
 301:Middlewares/lvgl/src/core/lv_obj_style.c ****     lv_style_value_t v2 = lv_obj_get_style_prop(obj, part, tr_dsc->prop);
 302:Middlewares/lvgl/src/core/lv_obj_style.c ****     obj->skip_trans = 0;
 303:Middlewares/lvgl/src/core/lv_obj_style.c **** 
 304:Middlewares/lvgl/src/core/lv_obj_style.c ****     if(v1.ptr == v2.ptr && v1.num == v2.num && v1.color.full == v2.color.full)  return;
 305:Middlewares/lvgl/src/core/lv_obj_style.c ****     obj->state = prev_state;
 306:Middlewares/lvgl/src/core/lv_obj_style.c ****     v1 = lv_obj_get_style_prop(obj, part, tr_dsc->prop);
 307:Middlewares/lvgl/src/core/lv_obj_style.c ****     obj->state = new_state;
 308:Middlewares/lvgl/src/core/lv_obj_style.c **** 
 309:Middlewares/lvgl/src/core/lv_obj_style.c ****     _lv_obj_style_t * style_trans = get_trans_style(obj, part);
 310:Middlewares/lvgl/src/core/lv_obj_style.c ****     lv_style_set_prop(style_trans->style, tr_dsc->prop, v1);   /*Be sure `trans_style` has a valid 
 311:Middlewares/lvgl/src/core/lv_obj_style.c **** 
 312:Middlewares/lvgl/src/core/lv_obj_style.c ****     if(tr_dsc->prop == LV_STYLE_RADIUS) {
 313:Middlewares/lvgl/src/core/lv_obj_style.c ****         if(v1.num == LV_RADIUS_CIRCLE || v2.num == LV_RADIUS_CIRCLE) {
 314:Middlewares/lvgl/src/core/lv_obj_style.c ****             lv_coord_t whalf = lv_obj_get_width(obj) / 2;
 315:Middlewares/lvgl/src/core/lv_obj_style.c ****             lv_coord_t hhalf = lv_obj_get_width(obj) / 2;
 316:Middlewares/lvgl/src/core/lv_obj_style.c ****             if(v1.num == LV_RADIUS_CIRCLE) v1.num = LV_MIN(whalf + 1, hhalf + 1);
ARM GAS  /tmp/ccoxlgn6.s 			page 7


 317:Middlewares/lvgl/src/core/lv_obj_style.c ****             if(v2.num == LV_RADIUS_CIRCLE) v2.num = LV_MIN(whalf + 1, hhalf + 1);
 318:Middlewares/lvgl/src/core/lv_obj_style.c ****         }
 319:Middlewares/lvgl/src/core/lv_obj_style.c ****     }
 320:Middlewares/lvgl/src/core/lv_obj_style.c **** 
 321:Middlewares/lvgl/src/core/lv_obj_style.c ****     tr = _lv_ll_ins_head(&LV_GC_ROOT(_lv_obj_style_trans_ll));
 322:Middlewares/lvgl/src/core/lv_obj_style.c ****     LV_ASSERT_MALLOC(tr);
 323:Middlewares/lvgl/src/core/lv_obj_style.c ****     if(tr == NULL) return;
 324:Middlewares/lvgl/src/core/lv_obj_style.c ****     tr->start_value = v1;
 325:Middlewares/lvgl/src/core/lv_obj_style.c ****     tr->end_value = v2;
 326:Middlewares/lvgl/src/core/lv_obj_style.c **** 
 327:Middlewares/lvgl/src/core/lv_obj_style.c ****     if(tr) {
 328:Middlewares/lvgl/src/core/lv_obj_style.c ****         tr->obj = obj;
 329:Middlewares/lvgl/src/core/lv_obj_style.c ****         tr->prop = tr_dsc->prop;
 330:Middlewares/lvgl/src/core/lv_obj_style.c ****         tr->selector = part;
 331:Middlewares/lvgl/src/core/lv_obj_style.c **** 
 332:Middlewares/lvgl/src/core/lv_obj_style.c ****         lv_anim_t a;
 333:Middlewares/lvgl/src/core/lv_obj_style.c ****         lv_anim_init(&a);
 334:Middlewares/lvgl/src/core/lv_obj_style.c ****         lv_anim_set_var(&a, tr);
 335:Middlewares/lvgl/src/core/lv_obj_style.c ****         lv_anim_set_exec_cb(&a, trans_anim_cb);
 336:Middlewares/lvgl/src/core/lv_obj_style.c ****         lv_anim_set_start_cb(&a, trans_anim_start_cb);
 337:Middlewares/lvgl/src/core/lv_obj_style.c ****         lv_anim_set_ready_cb(&a, trans_anim_ready_cb);
 338:Middlewares/lvgl/src/core/lv_obj_style.c ****         lv_anim_set_values(&a, 0x00, 0xFF);
 339:Middlewares/lvgl/src/core/lv_obj_style.c ****         lv_anim_set_time(&a, tr_dsc->time);
 340:Middlewares/lvgl/src/core/lv_obj_style.c ****         lv_anim_set_delay(&a, tr_dsc->delay);
 341:Middlewares/lvgl/src/core/lv_obj_style.c ****         lv_anim_set_path_cb(&a, tr_dsc->path_cb);
 342:Middlewares/lvgl/src/core/lv_obj_style.c ****         lv_anim_set_early_apply(&a, false);
 343:Middlewares/lvgl/src/core/lv_obj_style.c **** #if LV_USE_USER_DATA
 344:Middlewares/lvgl/src/core/lv_obj_style.c ****         a.user_data = tr_dsc->user_data;
 345:Middlewares/lvgl/src/core/lv_obj_style.c **** #endif
 346:Middlewares/lvgl/src/core/lv_obj_style.c ****         lv_anim_start(&a);
 347:Middlewares/lvgl/src/core/lv_obj_style.c ****     }
 348:Middlewares/lvgl/src/core/lv_obj_style.c **** }
 349:Middlewares/lvgl/src/core/lv_obj_style.c **** 
 350:Middlewares/lvgl/src/core/lv_obj_style.c **** _lv_style_state_cmp_t _lv_obj_style_state_compare(lv_obj_t * obj, lv_state_t state1, lv_state_t sta
 351:Middlewares/lvgl/src/core/lv_obj_style.c **** {
 352:Middlewares/lvgl/src/core/lv_obj_style.c ****     _lv_style_state_cmp_t res = _LV_STYLE_STATE_CMP_SAME;
 353:Middlewares/lvgl/src/core/lv_obj_style.c **** 
 354:Middlewares/lvgl/src/core/lv_obj_style.c ****     /*Are there any new styles for the new state?*/
 355:Middlewares/lvgl/src/core/lv_obj_style.c ****     uint32_t i;
 356:Middlewares/lvgl/src/core/lv_obj_style.c ****     for(i = 0; i < obj->style_cnt; i++) {
 357:Middlewares/lvgl/src/core/lv_obj_style.c ****         if(obj->styles[i].is_trans) continue;
 358:Middlewares/lvgl/src/core/lv_obj_style.c **** 
 359:Middlewares/lvgl/src/core/lv_obj_style.c ****         lv_state_t state_act = lv_obj_style_get_selector_state(obj->styles[i].selector);
 360:Middlewares/lvgl/src/core/lv_obj_style.c ****         lv_part_t part_act = lv_obj_style_get_selector_part(obj->styles[i].selector);
 361:Middlewares/lvgl/src/core/lv_obj_style.c ****         /*The style is valid for a stat but not the other*/
 362:Middlewares/lvgl/src/core/lv_obj_style.c ****         bool valid1 = state_act & (~state1) ? false : true;
 363:Middlewares/lvgl/src/core/lv_obj_style.c ****         bool valid2 = state_act & (~state2) ? false : true;
 364:Middlewares/lvgl/src/core/lv_obj_style.c ****         if(valid1 != valid2) {
 365:Middlewares/lvgl/src/core/lv_obj_style.c ****             lv_style_t * style = obj->styles[i].style;
 366:Middlewares/lvgl/src/core/lv_obj_style.c ****             lv_style_value_t v;
 367:Middlewares/lvgl/src/core/lv_obj_style.c ****             /*If there is layout difference on the main part, return immediately. There is no more 
 368:Middlewares/lvgl/src/core/lv_obj_style.c ****             bool layout_diff = false;
 369:Middlewares/lvgl/src/core/lv_obj_style.c ****             if(lv_style_get_prop(style, LV_STYLE_PAD_TOP, &v))layout_diff = true;
 370:Middlewares/lvgl/src/core/lv_obj_style.c ****             else if(lv_style_get_prop(style, LV_STYLE_PAD_BOTTOM, &v)) layout_diff = true;
 371:Middlewares/lvgl/src/core/lv_obj_style.c ****             else if(lv_style_get_prop(style, LV_STYLE_PAD_LEFT, &v)) layout_diff = true;
 372:Middlewares/lvgl/src/core/lv_obj_style.c ****             else if(lv_style_get_prop(style, LV_STYLE_PAD_RIGHT, &v)) layout_diff = true;
 373:Middlewares/lvgl/src/core/lv_obj_style.c ****             else if(lv_style_get_prop(style, LV_STYLE_PAD_COLUMN, &v)) layout_diff = true;
ARM GAS  /tmp/ccoxlgn6.s 			page 8


 374:Middlewares/lvgl/src/core/lv_obj_style.c ****             else if(lv_style_get_prop(style, LV_STYLE_PAD_ROW, &v)) layout_diff = true;
 375:Middlewares/lvgl/src/core/lv_obj_style.c ****             else if(lv_style_get_prop(style, LV_STYLE_LAYOUT, &v)) layout_diff = true;
 376:Middlewares/lvgl/src/core/lv_obj_style.c ****             else if(lv_style_get_prop(style, LV_STYLE_TRANSLATE_X, &v)) layout_diff = true;
 377:Middlewares/lvgl/src/core/lv_obj_style.c ****             else if(lv_style_get_prop(style, LV_STYLE_TRANSLATE_Y, &v)) layout_diff = true;
 378:Middlewares/lvgl/src/core/lv_obj_style.c ****             else if(lv_style_get_prop(style, LV_STYLE_WIDTH, &v)) layout_diff = true;
 379:Middlewares/lvgl/src/core/lv_obj_style.c ****             else if(lv_style_get_prop(style, LV_STYLE_HEIGHT, &v)) layout_diff = true;
 380:Middlewares/lvgl/src/core/lv_obj_style.c ****             else if(lv_style_get_prop(style, LV_STYLE_MIN_WIDTH, &v)) layout_diff = true;
 381:Middlewares/lvgl/src/core/lv_obj_style.c ****             else if(lv_style_get_prop(style, LV_STYLE_MAX_WIDTH, &v)) layout_diff = true;
 382:Middlewares/lvgl/src/core/lv_obj_style.c ****             else if(lv_style_get_prop(style, LV_STYLE_MIN_HEIGHT, &v)) layout_diff = true;
 383:Middlewares/lvgl/src/core/lv_obj_style.c ****             else if(lv_style_get_prop(style, LV_STYLE_MAX_HEIGHT, &v)) layout_diff = true;
 384:Middlewares/lvgl/src/core/lv_obj_style.c ****             else if(lv_style_get_prop(style, LV_STYLE_BORDER_WIDTH, &v)) layout_diff = true;
 385:Middlewares/lvgl/src/core/lv_obj_style.c **** 
 386:Middlewares/lvgl/src/core/lv_obj_style.c ****             if(layout_diff) {
 387:Middlewares/lvgl/src/core/lv_obj_style.c ****                 if(part_act == LV_PART_MAIN) {
 388:Middlewares/lvgl/src/core/lv_obj_style.c ****                     return _LV_STYLE_STATE_CMP_DIFF_LAYOUT;
 389:Middlewares/lvgl/src/core/lv_obj_style.c ****                 }
 390:Middlewares/lvgl/src/core/lv_obj_style.c ****                 else {
 391:Middlewares/lvgl/src/core/lv_obj_style.c ****                     res = _LV_STYLE_STATE_CMP_DIFF_DRAW_PAD;
 392:Middlewares/lvgl/src/core/lv_obj_style.c ****                     continue;
 393:Middlewares/lvgl/src/core/lv_obj_style.c ****                 }
 394:Middlewares/lvgl/src/core/lv_obj_style.c ****             }
 395:Middlewares/lvgl/src/core/lv_obj_style.c **** 
 396:Middlewares/lvgl/src/core/lv_obj_style.c ****             /*Check for draw pad changes*/
 397:Middlewares/lvgl/src/core/lv_obj_style.c ****             if(lv_style_get_prop(style, LV_STYLE_TRANSFORM_WIDTH, &v)) res = _LV_STYLE_STATE_CMP_DI
 398:Middlewares/lvgl/src/core/lv_obj_style.c ****             else if(lv_style_get_prop(style, LV_STYLE_TRANSFORM_HEIGHT, &v)) res = _LV_STYLE_STATE_
 399:Middlewares/lvgl/src/core/lv_obj_style.c ****             else if(lv_style_get_prop(style, LV_STYLE_TRANSFORM_ANGLE, &v)) res = _LV_STYLE_STATE_C
 400:Middlewares/lvgl/src/core/lv_obj_style.c ****             else if(lv_style_get_prop(style, LV_STYLE_TRANSFORM_ZOOM, &v)) res = _LV_STYLE_STATE_CM
 401:Middlewares/lvgl/src/core/lv_obj_style.c ****             else if(lv_style_get_prop(style, LV_STYLE_OUTLINE_OPA, &v)) res = _LV_STYLE_STATE_CMP_D
 402:Middlewares/lvgl/src/core/lv_obj_style.c ****             else if(lv_style_get_prop(style, LV_STYLE_OUTLINE_PAD, &v)) res = _LV_STYLE_STATE_CMP_D
 403:Middlewares/lvgl/src/core/lv_obj_style.c ****             else if(lv_style_get_prop(style, LV_STYLE_OUTLINE_WIDTH, &v)) res = _LV_STYLE_STATE_CMP
 404:Middlewares/lvgl/src/core/lv_obj_style.c ****             else if(lv_style_get_prop(style, LV_STYLE_SHADOW_WIDTH, &v)) res = _LV_STYLE_STATE_CMP_
 405:Middlewares/lvgl/src/core/lv_obj_style.c ****             else if(lv_style_get_prop(style, LV_STYLE_SHADOW_OPA, &v)) res = _LV_STYLE_STATE_CMP_DI
 406:Middlewares/lvgl/src/core/lv_obj_style.c ****             else if(lv_style_get_prop(style, LV_STYLE_SHADOW_OFS_X, &v)) res = _LV_STYLE_STATE_CMP_
 407:Middlewares/lvgl/src/core/lv_obj_style.c ****             else if(lv_style_get_prop(style, LV_STYLE_SHADOW_OFS_Y, &v)) res = _LV_STYLE_STATE_CMP_
 408:Middlewares/lvgl/src/core/lv_obj_style.c ****             else if(lv_style_get_prop(style, LV_STYLE_SHADOW_SPREAD, &v)) res = _LV_STYLE_STATE_CMP
 409:Middlewares/lvgl/src/core/lv_obj_style.c ****             else if(lv_style_get_prop(style, LV_STYLE_LINE_WIDTH, &v)) res = _LV_STYLE_STATE_CMP_DI
 410:Middlewares/lvgl/src/core/lv_obj_style.c ****             else if(res == _LV_STYLE_STATE_CMP_SAME) res = _LV_STYLE_STATE_CMP_DIFF_REDRAW;
 411:Middlewares/lvgl/src/core/lv_obj_style.c ****         }
 412:Middlewares/lvgl/src/core/lv_obj_style.c ****     }
 413:Middlewares/lvgl/src/core/lv_obj_style.c **** 
 414:Middlewares/lvgl/src/core/lv_obj_style.c ****     return res;
 415:Middlewares/lvgl/src/core/lv_obj_style.c **** }
 416:Middlewares/lvgl/src/core/lv_obj_style.c **** 
 417:Middlewares/lvgl/src/core/lv_obj_style.c **** void lv_obj_fade_in(lv_obj_t * obj, uint32_t time, uint32_t delay)
 418:Middlewares/lvgl/src/core/lv_obj_style.c **** {
 419:Middlewares/lvgl/src/core/lv_obj_style.c ****     lv_anim_t a;
 420:Middlewares/lvgl/src/core/lv_obj_style.c ****     lv_anim_init(&a);
 421:Middlewares/lvgl/src/core/lv_obj_style.c ****     lv_anim_set_var(&a, obj);
 422:Middlewares/lvgl/src/core/lv_obj_style.c ****     lv_anim_set_values(&a, LV_OPA_TRANSP, LV_OPA_COVER);
 423:Middlewares/lvgl/src/core/lv_obj_style.c ****     lv_anim_set_exec_cb(&a, fade_anim_cb);
 424:Middlewares/lvgl/src/core/lv_obj_style.c ****     lv_anim_set_ready_cb(&a, fade_in_anim_ready);
 425:Middlewares/lvgl/src/core/lv_obj_style.c ****     lv_anim_set_time(&a, time);
 426:Middlewares/lvgl/src/core/lv_obj_style.c ****     lv_anim_set_delay(&a, delay);
 427:Middlewares/lvgl/src/core/lv_obj_style.c ****     lv_anim_start(&a);
 428:Middlewares/lvgl/src/core/lv_obj_style.c **** }
 429:Middlewares/lvgl/src/core/lv_obj_style.c **** 
 430:Middlewares/lvgl/src/core/lv_obj_style.c **** void lv_obj_fade_out(lv_obj_t * obj, uint32_t time, uint32_t delay)
ARM GAS  /tmp/ccoxlgn6.s 			page 9


 431:Middlewares/lvgl/src/core/lv_obj_style.c **** {
 432:Middlewares/lvgl/src/core/lv_obj_style.c ****     lv_anim_t a;
 433:Middlewares/lvgl/src/core/lv_obj_style.c ****     lv_anim_init(&a);
 434:Middlewares/lvgl/src/core/lv_obj_style.c ****     lv_anim_set_var(&a, obj);
 435:Middlewares/lvgl/src/core/lv_obj_style.c ****     lv_anim_set_values(&a, LV_OPA_COVER, LV_OPA_TRANSP);
 436:Middlewares/lvgl/src/core/lv_obj_style.c ****     lv_anim_set_exec_cb(&a, fade_anim_cb);
 437:Middlewares/lvgl/src/core/lv_obj_style.c ****     lv_anim_set_time(&a, time);
 438:Middlewares/lvgl/src/core/lv_obj_style.c ****     lv_anim_set_delay(&a, delay);
 439:Middlewares/lvgl/src/core/lv_obj_style.c ****     lv_anim_start(&a);
 440:Middlewares/lvgl/src/core/lv_obj_style.c **** }
 441:Middlewares/lvgl/src/core/lv_obj_style.c **** 
 442:Middlewares/lvgl/src/core/lv_obj_style.c **** lv_state_t lv_obj_style_get_selector_state(lv_style_selector_t selector)
 443:Middlewares/lvgl/src/core/lv_obj_style.c **** {
 444:Middlewares/lvgl/src/core/lv_obj_style.c ****     return selector & 0xFFFF;
 445:Middlewares/lvgl/src/core/lv_obj_style.c **** }
 446:Middlewares/lvgl/src/core/lv_obj_style.c **** 
 447:Middlewares/lvgl/src/core/lv_obj_style.c **** lv_part_t lv_obj_style_get_selector_part(lv_style_selector_t selector)
 448:Middlewares/lvgl/src/core/lv_obj_style.c **** {
 449:Middlewares/lvgl/src/core/lv_obj_style.c ****     return selector & 0xFF0000;
 450:Middlewares/lvgl/src/core/lv_obj_style.c **** }
 451:Middlewares/lvgl/src/core/lv_obj_style.c **** 
 452:Middlewares/lvgl/src/core/lv_obj_style.c **** /**********************
 453:Middlewares/lvgl/src/core/lv_obj_style.c ****  *   STATIC FUNCTIONS
 454:Middlewares/lvgl/src/core/lv_obj_style.c ****  **********************/
 455:Middlewares/lvgl/src/core/lv_obj_style.c **** 
 456:Middlewares/lvgl/src/core/lv_obj_style.c **** /**
 457:Middlewares/lvgl/src/core/lv_obj_style.c ****  * Get the local style of an object for a given part and for a given state.
 458:Middlewares/lvgl/src/core/lv_obj_style.c ****  * If the local style for the part-state pair doesn't exist allocate and return it.
 459:Middlewares/lvgl/src/core/lv_obj_style.c ****  * @param obj   pointer to an object
 460:Middlewares/lvgl/src/core/lv_obj_style.c ****  * @param part  the part in whose local style to get
 461:Middlewares/lvgl/src/core/lv_obj_style.c ****  * @param state the state in whose local style to get
 462:Middlewares/lvgl/src/core/lv_obj_style.c ****  * @return pointer to the local style
 463:Middlewares/lvgl/src/core/lv_obj_style.c ****  */
 464:Middlewares/lvgl/src/core/lv_obj_style.c **** static lv_style_t * get_local_style(lv_obj_t * obj,  lv_style_selector_t selector)
 465:Middlewares/lvgl/src/core/lv_obj_style.c **** {
 466:Middlewares/lvgl/src/core/lv_obj_style.c ****     uint32_t i;
 467:Middlewares/lvgl/src/core/lv_obj_style.c ****     for(i = 0; i < obj->style_cnt; i++) {
 468:Middlewares/lvgl/src/core/lv_obj_style.c ****         if(obj->styles[i].is_local &&
 469:Middlewares/lvgl/src/core/lv_obj_style.c ****            obj->styles[i].selector == selector)
 470:Middlewares/lvgl/src/core/lv_obj_style.c ****         {
 471:Middlewares/lvgl/src/core/lv_obj_style.c ****             return obj->styles[i].style;
 472:Middlewares/lvgl/src/core/lv_obj_style.c ****         }
 473:Middlewares/lvgl/src/core/lv_obj_style.c ****     }
 474:Middlewares/lvgl/src/core/lv_obj_style.c **** 
 475:Middlewares/lvgl/src/core/lv_obj_style.c ****     obj->style_cnt++;
 476:Middlewares/lvgl/src/core/lv_obj_style.c ****     obj->styles = lv_mem_realloc(obj->styles, obj->style_cnt * sizeof(_lv_obj_style_t));
 477:Middlewares/lvgl/src/core/lv_obj_style.c ****     LV_ASSERT_MALLOC(obj->styles);
 478:Middlewares/lvgl/src/core/lv_obj_style.c **** 
 479:Middlewares/lvgl/src/core/lv_obj_style.c ****     for(i = obj->style_cnt - 1; i > 0 ; i--) {
 480:Middlewares/lvgl/src/core/lv_obj_style.c ****         /*Copy only normal styles (not local and transition).
 481:Middlewares/lvgl/src/core/lv_obj_style.c ****          *The new local style will be added as the last local style*/
 482:Middlewares/lvgl/src/core/lv_obj_style.c ****         if(obj->styles[i - 1].is_local || obj->styles[i - 1].is_trans) break;
 483:Middlewares/lvgl/src/core/lv_obj_style.c ****         obj->styles[i] = obj->styles[i - 1];
 484:Middlewares/lvgl/src/core/lv_obj_style.c ****     }
 485:Middlewares/lvgl/src/core/lv_obj_style.c **** 
 486:Middlewares/lvgl/src/core/lv_obj_style.c ****     lv_memset_00(&obj->styles[i], sizeof(_lv_obj_style_t));
 487:Middlewares/lvgl/src/core/lv_obj_style.c ****     obj->styles[i].style = lv_mem_alloc(sizeof(lv_style_t));
ARM GAS  /tmp/ccoxlgn6.s 			page 10


 488:Middlewares/lvgl/src/core/lv_obj_style.c ****     lv_style_init(obj->styles[i].style);
 489:Middlewares/lvgl/src/core/lv_obj_style.c ****     obj->styles[i].is_local = 1;
 490:Middlewares/lvgl/src/core/lv_obj_style.c ****     obj->styles[i].selector = selector;
 491:Middlewares/lvgl/src/core/lv_obj_style.c ****     return obj->styles[i].style;
 492:Middlewares/lvgl/src/core/lv_obj_style.c **** }
 493:Middlewares/lvgl/src/core/lv_obj_style.c **** 
 494:Middlewares/lvgl/src/core/lv_obj_style.c **** /**
 495:Middlewares/lvgl/src/core/lv_obj_style.c ****  * Get the transition style of an object for a given part and for a given state.
 496:Middlewares/lvgl/src/core/lv_obj_style.c ****  * If the transition style for the part-state pair doesn't exist allocate and return it.
 497:Middlewares/lvgl/src/core/lv_obj_style.c ****  * @param obj   pointer to an object
 498:Middlewares/lvgl/src/core/lv_obj_style.c ****  * @param part  the part in whose local style to get
 499:Middlewares/lvgl/src/core/lv_obj_style.c ****  * @param state the state in whose local style to get
 500:Middlewares/lvgl/src/core/lv_obj_style.c ****  * @return pointer to the transition style
 501:Middlewares/lvgl/src/core/lv_obj_style.c ****  */
 502:Middlewares/lvgl/src/core/lv_obj_style.c **** static _lv_obj_style_t * get_trans_style(lv_obj_t * obj,  lv_style_selector_t selector)
 503:Middlewares/lvgl/src/core/lv_obj_style.c **** {
 504:Middlewares/lvgl/src/core/lv_obj_style.c ****     uint32_t i;
 505:Middlewares/lvgl/src/core/lv_obj_style.c ****     for(i = 0; i < obj->style_cnt; i++) {
 506:Middlewares/lvgl/src/core/lv_obj_style.c ****         if(obj->styles[i].is_trans && obj->styles[i].selector == selector) break;
 507:Middlewares/lvgl/src/core/lv_obj_style.c ****     }
 508:Middlewares/lvgl/src/core/lv_obj_style.c **** 
 509:Middlewares/lvgl/src/core/lv_obj_style.c ****     /*Already have a transition style for it*/
 510:Middlewares/lvgl/src/core/lv_obj_style.c ****     if(i != obj->style_cnt) return &obj->styles[i];
 511:Middlewares/lvgl/src/core/lv_obj_style.c **** 
 512:Middlewares/lvgl/src/core/lv_obj_style.c ****     obj->style_cnt++;
 513:Middlewares/lvgl/src/core/lv_obj_style.c ****     obj->styles = lv_mem_realloc(obj->styles, obj->style_cnt * sizeof(_lv_obj_style_t));
 514:Middlewares/lvgl/src/core/lv_obj_style.c **** 
 515:Middlewares/lvgl/src/core/lv_obj_style.c ****     for(i = obj->style_cnt - 1; i > 0 ; i--) {
 516:Middlewares/lvgl/src/core/lv_obj_style.c ****         obj->styles[i] = obj->styles[i - 1];
 517:Middlewares/lvgl/src/core/lv_obj_style.c ****     }
 518:Middlewares/lvgl/src/core/lv_obj_style.c **** 
 519:Middlewares/lvgl/src/core/lv_obj_style.c ****     lv_memset_00(&obj->styles[0], sizeof(_lv_obj_style_t));
 520:Middlewares/lvgl/src/core/lv_obj_style.c ****     obj->styles[0].style = lv_mem_alloc(sizeof(lv_style_t));
 521:Middlewares/lvgl/src/core/lv_obj_style.c ****     lv_style_init(obj->styles[0].style);
 522:Middlewares/lvgl/src/core/lv_obj_style.c ****     obj->styles[0].is_trans = 1;
 523:Middlewares/lvgl/src/core/lv_obj_style.c ****     obj->styles[0].selector = selector;
 524:Middlewares/lvgl/src/core/lv_obj_style.c ****     return &obj->styles[0];
 525:Middlewares/lvgl/src/core/lv_obj_style.c **** }
 526:Middlewares/lvgl/src/core/lv_obj_style.c **** 
 527:Middlewares/lvgl/src/core/lv_obj_style.c **** 
 528:Middlewares/lvgl/src/core/lv_obj_style.c **** static bool get_prop_core(const lv_obj_t * obj, lv_part_t part, lv_style_prop_t prop, lv_style_valu
 529:Middlewares/lvgl/src/core/lv_obj_style.c **** {
 530:Middlewares/lvgl/src/core/lv_obj_style.c ****     uint8_t group = 1 << _lv_style_get_prop_group(prop);
 531:Middlewares/lvgl/src/core/lv_obj_style.c ****     int32_t weight = -1;
 532:Middlewares/lvgl/src/core/lv_obj_style.c ****     lv_state_t state = obj->state;
 533:Middlewares/lvgl/src/core/lv_obj_style.c ****     lv_state_t state_inv = ~state;
 534:Middlewares/lvgl/src/core/lv_obj_style.c ****     lv_style_value_t value_tmp;
 535:Middlewares/lvgl/src/core/lv_obj_style.c ****     bool skip_trans = obj->skip_trans;
 536:Middlewares/lvgl/src/core/lv_obj_style.c ****     uint32_t i;
 537:Middlewares/lvgl/src/core/lv_obj_style.c ****     bool found;
 538:Middlewares/lvgl/src/core/lv_obj_style.c ****     for(i = 0; i < obj->style_cnt; i++) {
 539:Middlewares/lvgl/src/core/lv_obj_style.c ****         _lv_obj_style_t * obj_style = &obj->styles[i];
 540:Middlewares/lvgl/src/core/lv_obj_style.c ****         if(obj_style->is_trans == false) break;
 541:Middlewares/lvgl/src/core/lv_obj_style.c ****         if(skip_trans) continue;
 542:Middlewares/lvgl/src/core/lv_obj_style.c **** 
 543:Middlewares/lvgl/src/core/lv_obj_style.c ****         lv_part_t part_act = lv_obj_style_get_selector_part(obj->styles[i].selector);
 544:Middlewares/lvgl/src/core/lv_obj_style.c **** 
ARM GAS  /tmp/ccoxlgn6.s 			page 11


 545:Middlewares/lvgl/src/core/lv_obj_style.c ****         if(part_act != part) continue;
 546:Middlewares/lvgl/src/core/lv_obj_style.c ****         if((obj_style->style->has_group & group) == 0) continue;
 547:Middlewares/lvgl/src/core/lv_obj_style.c ****         found = lv_style_get_prop(obj_style->style, prop, &value_tmp);
 548:Middlewares/lvgl/src/core/lv_obj_style.c ****         if(found) {
 549:Middlewares/lvgl/src/core/lv_obj_style.c ****             *v = value_tmp;
 550:Middlewares/lvgl/src/core/lv_obj_style.c ****             return true;
 551:Middlewares/lvgl/src/core/lv_obj_style.c ****         }
 552:Middlewares/lvgl/src/core/lv_obj_style.c ****     }
 553:Middlewares/lvgl/src/core/lv_obj_style.c **** 
 554:Middlewares/lvgl/src/core/lv_obj_style.c ****     for(; i < obj->style_cnt; i++) {
 555:Middlewares/lvgl/src/core/lv_obj_style.c ****         _lv_obj_style_t * obj_style = &obj->styles[i];
 556:Middlewares/lvgl/src/core/lv_obj_style.c ****         lv_part_t part_act = lv_obj_style_get_selector_part(obj->styles[i].selector);
 557:Middlewares/lvgl/src/core/lv_obj_style.c ****         lv_state_t state_act = lv_obj_style_get_selector_state(obj->styles[i].selector);
 558:Middlewares/lvgl/src/core/lv_obj_style.c ****         if(part_act != part) continue;
 559:Middlewares/lvgl/src/core/lv_obj_style.c **** 
 560:Middlewares/lvgl/src/core/lv_obj_style.c ****         if((obj_style->style->has_group & group) == 0) continue;
 561:Middlewares/lvgl/src/core/lv_obj_style.c **** 
 562:Middlewares/lvgl/src/core/lv_obj_style.c ****         /*Be sure the style not specifies other state than the requested.
 563:Middlewares/lvgl/src/core/lv_obj_style.c ****          *E.g. For HOVER+PRESS object state, HOVER style only is OK, but HOVER+FOCUS style is not*/
 564:Middlewares/lvgl/src/core/lv_obj_style.c ****         if((state_act & state_inv)) continue;
 565:Middlewares/lvgl/src/core/lv_obj_style.c **** 
 566:Middlewares/lvgl/src/core/lv_obj_style.c ****         /*Check only better candidates*/
 567:Middlewares/lvgl/src/core/lv_obj_style.c ****         if(state_act <= weight) continue;
 568:Middlewares/lvgl/src/core/lv_obj_style.c **** 
 569:Middlewares/lvgl/src/core/lv_obj_style.c ****         found = lv_style_get_prop(obj_style->style, prop, &value_tmp);
 570:Middlewares/lvgl/src/core/lv_obj_style.c **** 
 571:Middlewares/lvgl/src/core/lv_obj_style.c ****         if(found) {
 572:Middlewares/lvgl/src/core/lv_obj_style.c ****             if(state_act == state) {
 573:Middlewares/lvgl/src/core/lv_obj_style.c ****                 *v = value_tmp;
 574:Middlewares/lvgl/src/core/lv_obj_style.c ****                 return true;
 575:Middlewares/lvgl/src/core/lv_obj_style.c ****             }
 576:Middlewares/lvgl/src/core/lv_obj_style.c ****             if(weight < state_act) {
 577:Middlewares/lvgl/src/core/lv_obj_style.c ****                 weight = state_act;
 578:Middlewares/lvgl/src/core/lv_obj_style.c ****                 *v = value_tmp;
 579:Middlewares/lvgl/src/core/lv_obj_style.c ****             }
 580:Middlewares/lvgl/src/core/lv_obj_style.c ****         }
 581:Middlewares/lvgl/src/core/lv_obj_style.c ****     }
 582:Middlewares/lvgl/src/core/lv_obj_style.c **** 
 583:Middlewares/lvgl/src/core/lv_obj_style.c ****     if(weight >= 0) {
 584:Middlewares/lvgl/src/core/lv_obj_style.c ****         *v = value_tmp;
 585:Middlewares/lvgl/src/core/lv_obj_style.c ****         return true;
 586:Middlewares/lvgl/src/core/lv_obj_style.c ****     }
 587:Middlewares/lvgl/src/core/lv_obj_style.c ****     else return false;
 588:Middlewares/lvgl/src/core/lv_obj_style.c **** }
 589:Middlewares/lvgl/src/core/lv_obj_style.c **** 
 590:Middlewares/lvgl/src/core/lv_obj_style.c **** static lv_style_value_t apply_color_filter(const lv_obj_t * obj, uint32_t part, lv_style_value_t v)
 591:Middlewares/lvgl/src/core/lv_obj_style.c **** {
 592:Middlewares/lvgl/src/core/lv_obj_style.c ****     if(obj == NULL) return v;
 593:Middlewares/lvgl/src/core/lv_obj_style.c ****     const lv_color_filter_dsc_t * f = lv_obj_get_style_color_filter_dsc(obj, part);
 594:Middlewares/lvgl/src/core/lv_obj_style.c ****     if(f && f->filter_cb) {
 595:Middlewares/lvgl/src/core/lv_obj_style.c ****         lv_opa_t f_opa = lv_obj_get_style_color_filter_opa(obj, part);
 596:Middlewares/lvgl/src/core/lv_obj_style.c ****         if(f_opa != 0) v.color = f->filter_cb(f, v.color, f_opa);
 597:Middlewares/lvgl/src/core/lv_obj_style.c ****     }
 598:Middlewares/lvgl/src/core/lv_obj_style.c ****     return v;
 599:Middlewares/lvgl/src/core/lv_obj_style.c **** }
 600:Middlewares/lvgl/src/core/lv_obj_style.c **** 
 601:Middlewares/lvgl/src/core/lv_obj_style.c **** /**
ARM GAS  /tmp/ccoxlgn6.s 			page 12


 602:Middlewares/lvgl/src/core/lv_obj_style.c ****  * Refresh the style of all children of an object. (Called recursively)
 603:Middlewares/lvgl/src/core/lv_obj_style.c ****  * @param style refresh objects only with this
 604:Middlewares/lvgl/src/core/lv_obj_style.c ****  * @param obj pointer to an object
 605:Middlewares/lvgl/src/core/lv_obj_style.c ****  */
 606:Middlewares/lvgl/src/core/lv_obj_style.c **** static void report_style_change_core(void * style, lv_obj_t * obj)
 607:Middlewares/lvgl/src/core/lv_obj_style.c **** {
 608:Middlewares/lvgl/src/core/lv_obj_style.c ****     uint32_t i;
 609:Middlewares/lvgl/src/core/lv_obj_style.c ****     for(i = 0; i < obj->style_cnt; i++) {
 610:Middlewares/lvgl/src/core/lv_obj_style.c ****         if(style == NULL || obj->styles[i].style == style) {
 611:Middlewares/lvgl/src/core/lv_obj_style.c ****             lv_obj_refresh_style(obj, LV_PART_ANY, LV_STYLE_PROP_ANY);
 612:Middlewares/lvgl/src/core/lv_obj_style.c ****             break;
 613:Middlewares/lvgl/src/core/lv_obj_style.c ****         }
 614:Middlewares/lvgl/src/core/lv_obj_style.c ****     }
 615:Middlewares/lvgl/src/core/lv_obj_style.c **** 
 616:Middlewares/lvgl/src/core/lv_obj_style.c ****     uint32_t child_cnt = lv_obj_get_child_cnt(obj);
 617:Middlewares/lvgl/src/core/lv_obj_style.c ****     for(i = 0; i < child_cnt; i++) {
 618:Middlewares/lvgl/src/core/lv_obj_style.c ****         report_style_change_core(style, lv_obj_get_child(obj, i));
 619:Middlewares/lvgl/src/core/lv_obj_style.c ****     }
 620:Middlewares/lvgl/src/core/lv_obj_style.c **** }
 621:Middlewares/lvgl/src/core/lv_obj_style.c **** 
 622:Middlewares/lvgl/src/core/lv_obj_style.c **** /**
 623:Middlewares/lvgl/src/core/lv_obj_style.c ****  * Recursively refresh the style of the children. Go deeper until a not NULL style is found
 624:Middlewares/lvgl/src/core/lv_obj_style.c ****  * because the NULL styles are inherited from the parent
 625:Middlewares/lvgl/src/core/lv_obj_style.c ****  * @param obj pointer to an object
 626:Middlewares/lvgl/src/core/lv_obj_style.c ****  */
 627:Middlewares/lvgl/src/core/lv_obj_style.c **** static void refresh_children_style(lv_obj_t * obj)
 628:Middlewares/lvgl/src/core/lv_obj_style.c **** {
 629:Middlewares/lvgl/src/core/lv_obj_style.c ****     uint32_t i;
 630:Middlewares/lvgl/src/core/lv_obj_style.c ****     uint32_t child_cnt = lv_obj_get_child_cnt(obj);
 631:Middlewares/lvgl/src/core/lv_obj_style.c ****     for(i = 0; i < child_cnt; i++) {
 632:Middlewares/lvgl/src/core/lv_obj_style.c ****         lv_obj_t * child = lv_obj_get_child(obj, i);
 633:Middlewares/lvgl/src/core/lv_obj_style.c ****         lv_obj_invalidate(child);
 634:Middlewares/lvgl/src/core/lv_obj_style.c ****         lv_event_send(child, LV_EVENT_STYLE_CHANGED, NULL);
 635:Middlewares/lvgl/src/core/lv_obj_style.c ****         lv_obj_invalidate(child);
 636:Middlewares/lvgl/src/core/lv_obj_style.c **** 
 637:Middlewares/lvgl/src/core/lv_obj_style.c ****         refresh_children_style(child); /*Check children too*/
 638:Middlewares/lvgl/src/core/lv_obj_style.c ****     }
 639:Middlewares/lvgl/src/core/lv_obj_style.c **** }
 640:Middlewares/lvgl/src/core/lv_obj_style.c **** 
 641:Middlewares/lvgl/src/core/lv_obj_style.c **** /**
 642:Middlewares/lvgl/src/core/lv_obj_style.c ****  * Remove the transition from object's part's property.
 643:Middlewares/lvgl/src/core/lv_obj_style.c ****  * - Remove the transition from `_lv_obj_style_trans_ll` and free it
 644:Middlewares/lvgl/src/core/lv_obj_style.c ****  * - Delete pending transitions
 645:Middlewares/lvgl/src/core/lv_obj_style.c ****  * @param obj pointer to an object which transition(s) should be removed
 646:Middlewares/lvgl/src/core/lv_obj_style.c ****  * @param part a part of object or 0xFF to remove from all parts
 647:Middlewares/lvgl/src/core/lv_obj_style.c ****  * @param prop a property or 0xFF to remove all properties
 648:Middlewares/lvgl/src/core/lv_obj_style.c ****  * @param tr_limit delete transitions only "older" than this. `NULL` if not used
 649:Middlewares/lvgl/src/core/lv_obj_style.c ****  */
 650:Middlewares/lvgl/src/core/lv_obj_style.c **** static bool trans_del(lv_obj_t * obj, lv_part_t part, lv_style_prop_t prop, trans_t * tr_limit)
 651:Middlewares/lvgl/src/core/lv_obj_style.c **** {
  28              		.loc 1 651 1 view -0
  29              		.cfi_startproc
  30              		@ args = 0, pretend = 0, frame = 0
  31              		@ frame_needed = 0, uses_anonymous_args = 0
  32              		.loc 1 651 1 is_stmt 0 view .LVU1
  33 0000 2DE9F84F 		push	{r3, r4, r5, r6, r7, r8, r9, r10, fp, lr}
  34              	.LCFI0:
ARM GAS  /tmp/ccoxlgn6.s 			page 13


  35              		.cfi_def_cfa_offset 40
  36              		.cfi_offset 3, -40
  37              		.cfi_offset 4, -36
  38              		.cfi_offset 5, -32
  39              		.cfi_offset 6, -28
  40              		.cfi_offset 7, -24
  41              		.cfi_offset 8, -20
  42              		.cfi_offset 9, -16
  43              		.cfi_offset 10, -12
  44              		.cfi_offset 11, -8
  45              		.cfi_offset 14, -4
  46 0004 0646     		mov	r6, r0
  47 0006 8946     		mov	r9, r1
  48 0008 9246     		mov	r10, r2
  49 000a 9846     		mov	r8, r3
 652:Middlewares/lvgl/src/core/lv_obj_style.c ****     trans_t * tr;
  50              		.loc 1 652 5 is_stmt 1 view .LVU2
 653:Middlewares/lvgl/src/core/lv_obj_style.c ****     trans_t * tr_prev;
  51              		.loc 1 653 5 view .LVU3
 654:Middlewares/lvgl/src/core/lv_obj_style.c ****     bool removed = false;
  52              		.loc 1 654 5 view .LVU4
  53              	.LVL1:
 655:Middlewares/lvgl/src/core/lv_obj_style.c ****     tr = _lv_ll_get_tail(&LV_GC_ROOT(_lv_obj_style_trans_ll));
  54              		.loc 1 655 5 view .LVU5
  55              		.loc 1 655 10 is_stmt 0 view .LVU6
  56 000c 2848     		ldr	r0, .L16
  57              	.LVL2:
  58              		.loc 1 655 10 view .LVU7
  59 000e FFF7FEFF 		bl	_lv_ll_get_tail
  60              	.LVL3:
  61              		.loc 1 655 10 view .LVU8
  62 0012 0446     		mov	r4, r0
  63              	.LVL4:
 656:Middlewares/lvgl/src/core/lv_obj_style.c ****     while(tr != NULL) {
  64              		.loc 1 656 5 is_stmt 1 view .LVU9
 654:Middlewares/lvgl/src/core/lv_obj_style.c ****     bool removed = false;
  65              		.loc 1 654 10 is_stmt 0 view .LVU10
  66 0014 4FF0000B 		mov	fp, #0
  67              		.loc 1 656 10 view .LVU11
  68 0018 07E0     		b	.L2
  69              	.LVL5:
  70              	.L5:
 657:Middlewares/lvgl/src/core/lv_obj_style.c ****         if(tr == tr_limit) break;
 658:Middlewares/lvgl/src/core/lv_obj_style.c **** 
 659:Middlewares/lvgl/src/core/lv_obj_style.c ****         /*'tr' might be deleted, so get the next object while 'tr' is valid*/
 660:Middlewares/lvgl/src/core/lv_obj_style.c ****         tr_prev = _lv_ll_get_prev(&LV_GC_ROOT(_lv_obj_style_trans_ll), tr);
 661:Middlewares/lvgl/src/core/lv_obj_style.c **** 
 662:Middlewares/lvgl/src/core/lv_obj_style.c ****         if(tr->obj == obj && (part == tr->selector || part == LV_PART_ANY) && (prop == tr->prop || 
  71              		.loc 1 662 90 discriminator 4 view .LVU12
  72 001a A388     		ldrh	r3, [r4, #4]
  73              		.loc 1 662 76 discriminator 4 view .LVU13
  74 001c 5345     		cmp	r3, r10
  75 001e 3FD0     		beq	.L12
  76              		.loc 1 662 97 discriminator 5 view .LVU14
  77 0020 4FF6FF73 		movw	r3, #65535
  78 0024 9A45     		cmp	r10, r3
  79 0026 3DD0     		beq	.L15
ARM GAS  /tmp/ccoxlgn6.s 			page 14


  80              	.LVL6:
  81              	.L4:
  82              		.loc 1 662 97 discriminator 5 view .LVU15
  83 0028 2C46     		mov	r4, r5
  84              	.LVL7:
  85              	.L2:
 656:Middlewares/lvgl/src/core/lv_obj_style.c ****     while(tr != NULL) {
  86              		.loc 1 656 10 is_stmt 1 view .LVU16
  87 002a 002C     		cmp	r4, #0
  88 002c 3CD0     		beq	.L3
 657:Middlewares/lvgl/src/core/lv_obj_style.c ****         if(tr == tr_limit) break;
  89              		.loc 1 657 9 view .LVU17
 657:Middlewares/lvgl/src/core/lv_obj_style.c ****         if(tr == tr_limit) break;
  90              		.loc 1 657 11 is_stmt 0 view .LVU18
  91 002e 4445     		cmp	r4, r8
  92 0030 3AD0     		beq	.L3
 660:Middlewares/lvgl/src/core/lv_obj_style.c **** 
  93              		.loc 1 660 9 is_stmt 1 view .LVU19
 660:Middlewares/lvgl/src/core/lv_obj_style.c **** 
  94              		.loc 1 660 19 is_stmt 0 view .LVU20
  95 0032 2146     		mov	r1, r4
  96 0034 1E48     		ldr	r0, .L16
  97 0036 FFF7FEFF 		bl	_lv_ll_get_prev
  98              	.LVL8:
  99 003a 0546     		mov	r5, r0
 100              	.LVL9:
 101              		.loc 1 662 9 is_stmt 1 view .LVU21
 102              		.loc 1 662 14 is_stmt 0 view .LVU22
 103 003c 2368     		ldr	r3, [r4]
 104              		.loc 1 662 11 view .LVU23
 105 003e B342     		cmp	r3, r6
 106 0040 F2D1     		bne	.L4
 107              		.loc 1 662 41 discriminator 1 view .LVU24
 108 0042 A368     		ldr	r3, [r4, #8]
 109              		.loc 1 662 27 discriminator 1 view .LVU25
 110 0044 4B45     		cmp	r3, r9
 111 0046 E8D0     		beq	.L5
 112              		.loc 1 662 52 discriminator 3 view .LVU26
 113 0048 B9F5702F 		cmp	r9, #983040
 114 004c ECD1     		bne	.L4
 115 004e E4E7     		b	.L5
 116              	.LVL10:
 117              	.L8:
 118              	.LBB49:
 663:Middlewares/lvgl/src/core/lv_obj_style.c ****             /*Remove the transitioned property from trans. style
 664:Middlewares/lvgl/src/core/lv_obj_style.c ****              *to allow changing it by normal styles*/
 665:Middlewares/lvgl/src/core/lv_obj_style.c ****             uint32_t i;
 666:Middlewares/lvgl/src/core/lv_obj_style.c ****             for(i = 0; i < obj->style_cnt; i++) {
 667:Middlewares/lvgl/src/core/lv_obj_style.c ****                 if(obj->styles[i].is_trans && (part == LV_PART_ANY || obj->styles[i].selector == pa
 668:Middlewares/lvgl/src/core/lv_obj_style.c ****                     lv_style_remove_prop(obj->styles[i].style, tr->prop);
 119              		.loc 1 668 21 is_stmt 1 view .LVU27
 120 0050 A188     		ldrh	r1, [r4, #4]
 121 0052 1058     		ldr	r0, [r2, r0]
 122 0054 FFF7FEFF 		bl	lv_style_remove_prop
 123              	.LVL11:
 669:Middlewares/lvgl/src/core/lv_obj_style.c ****                     lv_anim_del(tr, NULL);
 124              		.loc 1 669 21 view .LVU28
ARM GAS  /tmp/ccoxlgn6.s 			page 15


 125 0058 0021     		movs	r1, #0
 126 005a 2046     		mov	r0, r4
 127 005c FFF7FEFF 		bl	lv_anim_del
 128              	.LVL12:
 670:Middlewares/lvgl/src/core/lv_obj_style.c ****                     _lv_ll_remove(&LV_GC_ROOT(_lv_obj_style_trans_ll), tr);
 129              		.loc 1 670 21 view .LVU29
 130 0060 2146     		mov	r1, r4
 131 0062 1348     		ldr	r0, .L16
 132 0064 FFF7FEFF 		bl	_lv_ll_remove
 133              	.LVL13:
 671:Middlewares/lvgl/src/core/lv_obj_style.c ****                     lv_mem_free(tr);
 134              		.loc 1 671 21 view .LVU30
 135 0068 2046     		mov	r0, r4
 136 006a FFF7FEFF 		bl	lv_mem_free
 137              	.LVL14:
 672:Middlewares/lvgl/src/core/lv_obj_style.c ****                     removed = true;
 138              		.loc 1 672 21 view .LVU31
 139              		.loc 1 672 29 is_stmt 0 view .LVU32
 140 006e 4FF0010B 		mov	fp, #1
 141              	.LVL15:
 142              	.L7:
 666:Middlewares/lvgl/src/core/lv_obj_style.c ****                 if(obj->styles[i].is_trans && (part == LV_PART_ANY || obj->styles[i].selector == pa
 143              		.loc 1 666 44 is_stmt 1 discriminator 2 view .LVU33
 666:Middlewares/lvgl/src/core/lv_obj_style.c ****                 if(obj->styles[i].is_trans && (part == LV_PART_ANY || obj->styles[i].selector == pa
 144              		.loc 1 666 45 is_stmt 0 discriminator 2 view .LVU34
 145 0072 0137     		adds	r7, r7, #1
 146              	.LVL16:
 147              	.L9:
 666:Middlewares/lvgl/src/core/lv_obj_style.c ****                 if(obj->styles[i].is_trans && (part == LV_PART_ANY || obj->styles[i].selector == pa
 148              		.loc 1 666 24 is_stmt 1 discriminator 1 view .LVU35
 666:Middlewares/lvgl/src/core/lv_obj_style.c ****                 if(obj->styles[i].is_trans && (part == LV_PART_ANY || obj->styles[i].selector == pa
 149              		.loc 1 666 31 is_stmt 0 discriminator 1 view .LVU36
 150 0074 738C     		ldrh	r3, [r6, #34]
 151 0076 C3F3C503 		ubfx	r3, r3, #3, #6
 666:Middlewares/lvgl/src/core/lv_obj_style.c ****                 if(obj->styles[i].is_trans && (part == LV_PART_ANY || obj->styles[i].selector == pa
 152              		.loc 1 666 13 discriminator 1 view .LVU37
 153 007a BB42     		cmp	r3, r7
 154 007c D4D9     		bls	.L4
 667:Middlewares/lvgl/src/core/lv_obj_style.c ****                     lv_style_remove_prop(obj->styles[i].style, tr->prop);
 155              		.loc 1 667 17 is_stmt 1 view .LVU38
 667:Middlewares/lvgl/src/core/lv_obj_style.c ****                     lv_style_remove_prop(obj->styles[i].style, tr->prop);
 156              		.loc 1 667 23 is_stmt 0 view .LVU39
 157 007e F268     		ldr	r2, [r6, #12]
 667:Middlewares/lvgl/src/core/lv_obj_style.c ****                     lv_style_remove_prop(obj->styles[i].style, tr->prop);
 158              		.loc 1 667 31 view .LVU40
 159 0080 F800     		lsls	r0, r7, #3
 160 0082 02EBC703 		add	r3, r2, r7, lsl #3
 667:Middlewares/lvgl/src/core/lv_obj_style.c ****                     lv_style_remove_prop(obj->styles[i].style, tr->prop);
 161              		.loc 1 667 20 view .LVU41
 162 0086 D979     		ldrb	r1, [r3, #7]	@ zero_extendqisi2
 667:Middlewares/lvgl/src/core/lv_obj_style.c ****                     lv_style_remove_prop(obj->styles[i].style, tr->prop);
 163              		.loc 1 667 19 view .LVU42
 164 0088 11F0020F 		tst	r1, #2
 165 008c F1D0     		beq	.L7
 667:Middlewares/lvgl/src/core/lv_obj_style.c ****                     lv_style_remove_prop(obj->styles[i].style, tr->prop);
 166              		.loc 1 667 44 discriminator 1 view .LVU43
 167 008e B9F5702F 		cmp	r9, #983040
ARM GAS  /tmp/ccoxlgn6.s 			page 16


 168 0092 DDD0     		beq	.L8
 667:Middlewares/lvgl/src/core/lv_obj_style.c ****                     lv_style_remove_prop(obj->styles[i].style, tr->prop);
 169              		.loc 1 667 85 discriminator 2 view .LVU44
 170 0094 5B68     		ldr	r3, [r3, #4]
 171 0096 C3F31703 		ubfx	r3, r3, #0, #24
 667:Middlewares/lvgl/src/core/lv_obj_style.c ****                     lv_style_remove_prop(obj->styles[i].style, tr->prop);
 172              		.loc 1 667 68 discriminator 2 view .LVU45
 173 009a 4B45     		cmp	r3, r9
 174 009c E9D1     		bne	.L7
 175 009e D7E7     		b	.L8
 176              	.LVL17:
 177              	.L12:
 667:Middlewares/lvgl/src/core/lv_obj_style.c ****                     lv_style_remove_prop(obj->styles[i].style, tr->prop);
 178              		.loc 1 667 68 discriminator 2 view .LVU46
 179              	.LBE49:
 180 00a0 0027     		movs	r7, #0
 181 00a2 E7E7     		b	.L9
 182              	.L15:
 183 00a4 0027     		movs	r7, #0
 184 00a6 E5E7     		b	.L9
 185              	.LVL18:
 186              	.L3:
 673:Middlewares/lvgl/src/core/lv_obj_style.c ****                 }
 674:Middlewares/lvgl/src/core/lv_obj_style.c ****             }
 675:Middlewares/lvgl/src/core/lv_obj_style.c **** 
 676:Middlewares/lvgl/src/core/lv_obj_style.c ****         }
 677:Middlewares/lvgl/src/core/lv_obj_style.c ****         tr = tr_prev;
 678:Middlewares/lvgl/src/core/lv_obj_style.c ****     }
 679:Middlewares/lvgl/src/core/lv_obj_style.c ****     return removed;
 187              		.loc 1 679 5 is_stmt 1 view .LVU47
 680:Middlewares/lvgl/src/core/lv_obj_style.c **** }
 188              		.loc 1 680 1 is_stmt 0 view .LVU48
 189 00a8 5846     		mov	r0, fp
 190 00aa BDE8F88F 		pop	{r3, r4, r5, r6, r7, r8, r9, r10, fp, pc}
 191              	.LVL19:
 192              	.L17:
 193              		.loc 1 680 1 view .LVU49
 194 00ae 00BF     		.align	2
 195              	.L16:
 196 00b0 00000000 		.word	_lv_obj_style_trans_ll
 197              		.cfi_endproc
 198              	.LFE175:
 200              		.section	.text.refresh_children_style,"ax",%progbits
 201              		.align	1
 202              		.syntax unified
 203              		.thumb
 204              		.thumb_func
 205              		.fpu fpv5-d16
 207              	refresh_children_style:
 208              	.LVL20:
 209              	.LFB174:
 628:Middlewares/lvgl/src/core/lv_obj_style.c ****     uint32_t i;
 210              		.loc 1 628 1 is_stmt 1 view -0
 211              		.cfi_startproc
 212              		@ args = 0, pretend = 0, frame = 0
 213              		@ frame_needed = 0, uses_anonymous_args = 0
 628:Middlewares/lvgl/src/core/lv_obj_style.c ****     uint32_t i;
ARM GAS  /tmp/ccoxlgn6.s 			page 17


 214              		.loc 1 628 1 is_stmt 0 view .LVU51
 215 0000 F8B5     		push	{r3, r4, r5, r6, r7, lr}
 216              	.LCFI1:
 217              		.cfi_def_cfa_offset 24
 218              		.cfi_offset 3, -24
 219              		.cfi_offset 4, -20
 220              		.cfi_offset 5, -16
 221              		.cfi_offset 6, -12
 222              		.cfi_offset 7, -8
 223              		.cfi_offset 14, -4
 224 0002 0746     		mov	r7, r0
 629:Middlewares/lvgl/src/core/lv_obj_style.c ****     uint32_t child_cnt = lv_obj_get_child_cnt(obj);
 225              		.loc 1 629 5 is_stmt 1 view .LVU52
 630:Middlewares/lvgl/src/core/lv_obj_style.c ****     for(i = 0; i < child_cnt; i++) {
 226              		.loc 1 630 5 view .LVU53
 630:Middlewares/lvgl/src/core/lv_obj_style.c ****     for(i = 0; i < child_cnt; i++) {
 227              		.loc 1 630 26 is_stmt 0 view .LVU54
 228 0004 FFF7FEFF 		bl	lv_obj_get_child_cnt
 229              	.LVL21:
 630:Middlewares/lvgl/src/core/lv_obj_style.c ****     for(i = 0; i < child_cnt; i++) {
 230              		.loc 1 630 26 view .LVU55
 231 0008 0646     		mov	r6, r0
 232              	.LVL22:
 631:Middlewares/lvgl/src/core/lv_obj_style.c ****         lv_obj_t * child = lv_obj_get_child(obj, i);
 233              		.loc 1 631 5 is_stmt 1 view .LVU56
 631:Middlewares/lvgl/src/core/lv_obj_style.c ****         lv_obj_t * child = lv_obj_get_child(obj, i);
 234              		.loc 1 631 11 is_stmt 0 view .LVU57
 235 000a 0025     		movs	r5, #0
 631:Middlewares/lvgl/src/core/lv_obj_style.c ****         lv_obj_t * child = lv_obj_get_child(obj, i);
 236              		.loc 1 631 5 view .LVU58
 237 000c 12E0     		b	.L19
 238              	.LVL23:
 239              	.L20:
 240              	.LBB50:
 632:Middlewares/lvgl/src/core/lv_obj_style.c ****         lv_obj_invalidate(child);
 241              		.loc 1 632 9 is_stmt 1 discriminator 3 view .LVU59
 632:Middlewares/lvgl/src/core/lv_obj_style.c ****         lv_obj_invalidate(child);
 242              		.loc 1 632 28 is_stmt 0 discriminator 3 view .LVU60
 243 000e 2946     		mov	r1, r5
 244 0010 3846     		mov	r0, r7
 245 0012 FFF7FEFF 		bl	lv_obj_get_child
 246              	.LVL24:
 247 0016 0446     		mov	r4, r0
 248              	.LVL25:
 633:Middlewares/lvgl/src/core/lv_obj_style.c ****         lv_event_send(child, LV_EVENT_STYLE_CHANGED, NULL);
 249              		.loc 1 633 9 is_stmt 1 discriminator 3 view .LVU61
 250 0018 FFF7FEFF 		bl	lv_obj_invalidate
 251              	.LVL26:
 634:Middlewares/lvgl/src/core/lv_obj_style.c ****         lv_obj_invalidate(child);
 252              		.loc 1 634 9 discriminator 3 view .LVU62
 253 001c 0022     		movs	r2, #0
 254 001e 2421     		movs	r1, #36
 255 0020 2046     		mov	r0, r4
 256 0022 FFF7FEFF 		bl	lv_event_send
 257              	.LVL27:
 635:Middlewares/lvgl/src/core/lv_obj_style.c **** 
 258              		.loc 1 635 9 discriminator 3 view .LVU63
ARM GAS  /tmp/ccoxlgn6.s 			page 18


 259 0026 2046     		mov	r0, r4
 260 0028 FFF7FEFF 		bl	lv_obj_invalidate
 261              	.LVL28:
 637:Middlewares/lvgl/src/core/lv_obj_style.c ****     }
 262              		.loc 1 637 9 discriminator 3 view .LVU64
 263 002c 2046     		mov	r0, r4
 264 002e FFF7E7FF 		bl	refresh_children_style
 265              	.LVL29:
 266              	.LBE50:
 631:Middlewares/lvgl/src/core/lv_obj_style.c ****         lv_obj_t * child = lv_obj_get_child(obj, i);
 267              		.loc 1 631 31 discriminator 3 view .LVU65
 631:Middlewares/lvgl/src/core/lv_obj_style.c ****         lv_obj_t * child = lv_obj_get_child(obj, i);
 268              		.loc 1 631 32 is_stmt 0 discriminator 3 view .LVU66
 269 0032 0135     		adds	r5, r5, #1
 270              	.LVL30:
 271              	.L19:
 631:Middlewares/lvgl/src/core/lv_obj_style.c ****         lv_obj_t * child = lv_obj_get_child(obj, i);
 272              		.loc 1 631 16 is_stmt 1 discriminator 1 view .LVU67
 631:Middlewares/lvgl/src/core/lv_obj_style.c ****         lv_obj_t * child = lv_obj_get_child(obj, i);
 273              		.loc 1 631 5 is_stmt 0 discriminator 1 view .LVU68
 274 0034 B542     		cmp	r5, r6
 275 0036 EAD3     		bcc	.L20
 639:Middlewares/lvgl/src/core/lv_obj_style.c **** 
 276              		.loc 1 639 1 view .LVU69
 277 0038 F8BD     		pop	{r3, r4, r5, r6, r7, pc}
 639:Middlewares/lvgl/src/core/lv_obj_style.c **** 
 278              		.loc 1 639 1 view .LVU70
 279              		.cfi_endproc
 280              	.LFE174:
 282              		.section	.text.get_local_style,"ax",%progbits
 283              		.align	1
 284              		.syntax unified
 285              		.thumb
 286              		.thumb_func
 287              		.fpu fpv5-d16
 289              	get_local_style:
 290              	.LVL31:
 291              	.LFB169:
 465:Middlewares/lvgl/src/core/lv_obj_style.c ****     uint32_t i;
 292              		.loc 1 465 1 is_stmt 1 view -0
 293              		.cfi_startproc
 294              		@ args = 0, pretend = 0, frame = 0
 295              		@ frame_needed = 0, uses_anonymous_args = 0
 465:Middlewares/lvgl/src/core/lv_obj_style.c ****     uint32_t i;
 296              		.loc 1 465 1 is_stmt 0 view .LVU72
 297 0000 2DE9F041 		push	{r4, r5, r6, r7, r8, lr}
 298              	.LCFI2:
 299              		.cfi_def_cfa_offset 24
 300              		.cfi_offset 4, -24
 301              		.cfi_offset 5, -20
 302              		.cfi_offset 6, -16
 303              		.cfi_offset 7, -12
 304              		.cfi_offset 8, -8
 305              		.cfi_offset 14, -4
 306 0004 0446     		mov	r4, r0
 307 0006 0D46     		mov	r5, r1
 466:Middlewares/lvgl/src/core/lv_obj_style.c ****     for(i = 0; i < obj->style_cnt; i++) {
ARM GAS  /tmp/ccoxlgn6.s 			page 19


 308              		.loc 1 466 5 is_stmt 1 view .LVU73
 467:Middlewares/lvgl/src/core/lv_obj_style.c ****         if(obj->styles[i].is_local &&
 309              		.loc 1 467 5 view .LVU74
 310              	.LVL32:
 467:Middlewares/lvgl/src/core/lv_obj_style.c ****         if(obj->styles[i].is_local &&
 311              		.loc 1 467 11 is_stmt 0 view .LVU75
 312 0008 0022     		movs	r2, #0
 467:Middlewares/lvgl/src/core/lv_obj_style.c ****         if(obj->styles[i].is_local &&
 313              		.loc 1 467 5 view .LVU76
 314 000a 00E0     		b	.L23
 315              	.LVL33:
 316              	.L24:
 467:Middlewares/lvgl/src/core/lv_obj_style.c ****         if(obj->styles[i].is_local &&
 317              		.loc 1 467 36 is_stmt 1 discriminator 2 view .LVU77
 467:Middlewares/lvgl/src/core/lv_obj_style.c ****         if(obj->styles[i].is_local &&
 318              		.loc 1 467 37 is_stmt 0 discriminator 2 view .LVU78
 319 000c 0132     		adds	r2, r2, #1
 320              	.LVL34:
 321              	.L23:
 467:Middlewares/lvgl/src/core/lv_obj_style.c ****         if(obj->styles[i].is_local &&
 322              		.loc 1 467 16 is_stmt 1 discriminator 1 view .LVU79
 467:Middlewares/lvgl/src/core/lv_obj_style.c ****         if(obj->styles[i].is_local &&
 323              		.loc 1 467 23 is_stmt 0 discriminator 1 view .LVU80
 324 000e 638C     		ldrh	r3, [r4, #34]
 325 0010 C3F3C503 		ubfx	r3, r3, #3, #6
 467:Middlewares/lvgl/src/core/lv_obj_style.c ****         if(obj->styles[i].is_local &&
 326              		.loc 1 467 5 discriminator 1 view .LVU81
 327 0014 9342     		cmp	r3, r2
 328 0016 0DD9     		bls	.L33
 468:Middlewares/lvgl/src/core/lv_obj_style.c ****            obj->styles[i].selector == selector)
 329              		.loc 1 468 9 is_stmt 1 view .LVU82
 468:Middlewares/lvgl/src/core/lv_obj_style.c ****            obj->styles[i].selector == selector)
 330              		.loc 1 468 15 is_stmt 0 view .LVU83
 331 0018 E368     		ldr	r3, [r4, #12]
 468:Middlewares/lvgl/src/core/lv_obj_style.c ****            obj->styles[i].selector == selector)
 332              		.loc 1 468 23 view .LVU84
 333 001a 03EBC203 		add	r3, r3, r2, lsl #3
 468:Middlewares/lvgl/src/core/lv_obj_style.c ****            obj->styles[i].selector == selector)
 334              		.loc 1 468 12 view .LVU85
 335 001e D979     		ldrb	r1, [r3, #7]	@ zero_extendqisi2
 468:Middlewares/lvgl/src/core/lv_obj_style.c ****            obj->styles[i].selector == selector)
 336              		.loc 1 468 11 view .LVU86
 337 0020 11F0010F 		tst	r1, #1
 338 0024 F2D0     		beq	.L24
 469:Middlewares/lvgl/src/core/lv_obj_style.c ****         {
 339              		.loc 1 469 26 discriminator 1 view .LVU87
 340 0026 5968     		ldr	r1, [r3, #4]
 341 0028 C1F31701 		ubfx	r1, r1, #0, #24
 468:Middlewares/lvgl/src/core/lv_obj_style.c ****            obj->styles[i].selector == selector)
 342              		.loc 1 468 36 discriminator 1 view .LVU88
 343 002c A942     		cmp	r1, r5
 344 002e EDD1     		bne	.L24
 471:Middlewares/lvgl/src/core/lv_obj_style.c ****         }
 345              		.loc 1 471 13 is_stmt 1 view .LVU89
 471:Middlewares/lvgl/src/core/lv_obj_style.c ****         }
 346              		.loc 1 471 34 is_stmt 0 view .LVU90
 347 0030 1868     		ldr	r0, [r3]
ARM GAS  /tmp/ccoxlgn6.s 			page 20


 348              	.LVL35:
 471:Middlewares/lvgl/src/core/lv_obj_style.c ****         }
 349              		.loc 1 471 34 view .LVU91
 350 0032 46E0     		b	.L22
 351              	.LVL36:
 352              	.L33:
 475:Middlewares/lvgl/src/core/lv_obj_style.c ****     obj->styles = lv_mem_realloc(obj->styles, obj->style_cnt * sizeof(_lv_obj_style_t));
 353              		.loc 1 475 5 is_stmt 1 view .LVU92
 475:Middlewares/lvgl/src/core/lv_obj_style.c ****     obj->styles = lv_mem_realloc(obj->styles, obj->style_cnt * sizeof(_lv_obj_style_t));
 354              		.loc 1 475 19 is_stmt 0 view .LVU93
 355 0034 0133     		adds	r3, r3, #1
 356 0036 03F03F03 		and	r3, r3, #63
 357 003a 628C     		ldrh	r2, [r4, #34]
 358              	.LVL37:
 475:Middlewares/lvgl/src/core/lv_obj_style.c ****     obj->styles = lv_mem_realloc(obj->styles, obj->style_cnt * sizeof(_lv_obj_style_t));
 359              		.loc 1 475 19 view .LVU94
 360 003c 63F3C802 		bfi	r2, r3, #3, #6
 361 0040 6284     		strh	r2, [r4, #34]	@ movhi
 476:Middlewares/lvgl/src/core/lv_obj_style.c ****     LV_ASSERT_MALLOC(obj->styles);
 362              		.loc 1 476 5 is_stmt 1 view .LVU95
 476:Middlewares/lvgl/src/core/lv_obj_style.c ****     LV_ASSERT_MALLOC(obj->styles);
 363              		.loc 1 476 19 is_stmt 0 view .LVU96
 364 0042 D900     		lsls	r1, r3, #3
 365 0044 E068     		ldr	r0, [r4, #12]
 366              	.LVL38:
 476:Middlewares/lvgl/src/core/lv_obj_style.c ****     LV_ASSERT_MALLOC(obj->styles);
 367              		.loc 1 476 19 view .LVU97
 368 0046 FFF7FEFF 		bl	lv_mem_realloc
 369              	.LVL39:
 476:Middlewares/lvgl/src/core/lv_obj_style.c ****     LV_ASSERT_MALLOC(obj->styles);
 370              		.loc 1 476 17 view .LVU98
 371 004a E060     		str	r0, [r4, #12]
 477:Middlewares/lvgl/src/core/lv_obj_style.c **** 
 372              		.loc 1 477 5 is_stmt 1 view .LVU99
 477:Middlewares/lvgl/src/core/lv_obj_style.c **** 
 373              		.loc 1 477 5 view .LVU100
 374 004c B0B1     		cbz	r0, .L28
 477:Middlewares/lvgl/src/core/lv_obj_style.c **** 
 375              		.loc 1 477 5 discriminator 2 view .LVU101
 477:Middlewares/lvgl/src/core/lv_obj_style.c **** 
 376              		.loc 1 477 34 discriminator 2 view .LVU102
 479:Middlewares/lvgl/src/core/lv_obj_style.c ****         /*Copy only normal styles (not local and transition).
 377              		.loc 1 479 5 discriminator 2 view .LVU103
 479:Middlewares/lvgl/src/core/lv_obj_style.c ****         /*Copy only normal styles (not local and transition).
 378              		.loc 1 479 16 is_stmt 0 discriminator 2 view .LVU104
 379 004e 668C     		ldrh	r6, [r4, #34]
 380 0050 C6F3C506 		ubfx	r6, r6, #3, #6
 479:Middlewares/lvgl/src/core/lv_obj_style.c ****         /*Copy only normal styles (not local and transition).
 381              		.loc 1 479 28 discriminator 2 view .LVU105
 382 0054 013E     		subs	r6, r6, #1
 383              	.LVL40:
 384              	.L29:
 479:Middlewares/lvgl/src/core/lv_obj_style.c ****         /*Copy only normal styles (not local and transition).
 385              		.loc 1 479 33 is_stmt 1 discriminator 1 view .LVU106
 479:Middlewares/lvgl/src/core/lv_obj_style.c ****         /*Copy only normal styles (not local and transition).
 386              		.loc 1 479 5 is_stmt 0 discriminator 1 view .LVU107
 387 0056 96B1     		cbz	r6, .L30
ARM GAS  /tmp/ccoxlgn6.s 			page 21


 482:Middlewares/lvgl/src/core/lv_obj_style.c ****         obj->styles[i] = obj->styles[i - 1];
 388              		.loc 1 482 9 is_stmt 1 view .LVU108
 482:Middlewares/lvgl/src/core/lv_obj_style.c ****         obj->styles[i] = obj->styles[i - 1];
 389              		.loc 1 482 15 is_stmt 0 view .LVU109
 390 0058 E268     		ldr	r2, [r4, #12]
 482:Middlewares/lvgl/src/core/lv_obj_style.c ****         obj->styles[i] = obj->styles[i - 1];
 391              		.loc 1 482 23 view .LVU110
 392 005a 6FF06043 		mvn	r3, #-536870912
 393 005e 3344     		add	r3, r3, r6
 394 0060 02EBC303 		add	r3, r2, r3, lsl #3
 482:Middlewares/lvgl/src/core/lv_obj_style.c ****         obj->styles[i] = obj->styles[i - 1];
 395              		.loc 1 482 40 view .LVU111
 396 0064 D979     		ldrb	r1, [r3, #7]	@ zero_extendqisi2
 482:Middlewares/lvgl/src/core/lv_obj_style.c ****         obj->styles[i] = obj->styles[i - 1];
 397              		.loc 1 482 11 view .LVU112
 398 0066 11F0030F 		tst	r1, #3
 399 006a 08D1     		bne	.L30
 483:Middlewares/lvgl/src/core/lv_obj_style.c ****     }
 400              		.loc 1 483 9 is_stmt 1 discriminator 2 view .LVU113
 483:Middlewares/lvgl/src/core/lv_obj_style.c ****     }
 401              		.loc 1 483 20 is_stmt 0 discriminator 2 view .LVU114
 402 006c 02EBC602 		add	r2, r2, r6, lsl #3
 483:Middlewares/lvgl/src/core/lv_obj_style.c ****     }
 403              		.loc 1 483 24 discriminator 2 view .LVU115
 404 0070 93E80300 		ldm	r3, {r0, r1}
 405 0074 82E80300 		stm	r2, {r0, r1}
 479:Middlewares/lvgl/src/core/lv_obj_style.c ****         /*Copy only normal styles (not local and transition).
 406              		.loc 1 479 41 is_stmt 1 discriminator 2 view .LVU116
 479:Middlewares/lvgl/src/core/lv_obj_style.c ****         /*Copy only normal styles (not local and transition).
 407              		.loc 1 479 42 is_stmt 0 discriminator 2 view .LVU117
 408 0078 013E     		subs	r6, r6, #1
 409              	.LVL41:
 479:Middlewares/lvgl/src/core/lv_obj_style.c ****         /*Copy only normal styles (not local and transition).
 410              		.loc 1 479 42 discriminator 2 view .LVU118
 411 007a ECE7     		b	.L29
 412              	.LVL42:
 413              	.L28:
 477:Middlewares/lvgl/src/core/lv_obj_style.c **** 
 414              		.loc 1 477 5 is_stmt 1 discriminator 1 view .LVU119
 477:Middlewares/lvgl/src/core/lv_obj_style.c **** 
 415              		.loc 1 477 5 discriminator 1 view .LVU120
 477:Middlewares/lvgl/src/core/lv_obj_style.c **** 
 416              		.loc 1 477 5 discriminator 1 view .LVU121
 477:Middlewares/lvgl/src/core/lv_obj_style.c **** 
 417              		.loc 1 477 5 discriminator 1 view .LVU122
 418 007c FEE7     		b	.L28
 419              	.LVL43:
 420              	.L30:
 486:Middlewares/lvgl/src/core/lv_obj_style.c ****     obj->styles[i].style = lv_mem_alloc(sizeof(lv_style_t));
 421              		.loc 1 486 5 view .LVU123
 486:Middlewares/lvgl/src/core/lv_obj_style.c ****     obj->styles[i].style = lv_mem_alloc(sizeof(lv_style_t));
 422              		.loc 1 486 22 is_stmt 0 view .LVU124
 423 007e E068     		ldr	r0, [r4, #12]
 486:Middlewares/lvgl/src/core/lv_obj_style.c ****     obj->styles[i].style = lv_mem_alloc(sizeof(lv_style_t));
 424              		.loc 1 486 30 view .LVU125
 425 0080 F700     		lsls	r7, r6, #3
 486:Middlewares/lvgl/src/core/lv_obj_style.c ****     obj->styles[i].style = lv_mem_alloc(sizeof(lv_style_t));
ARM GAS  /tmp/ccoxlgn6.s 			page 22


 426              		.loc 1 486 5 view .LVU126
 427 0082 0821     		movs	r1, #8
 428 0084 00EBC600 		add	r0, r0, r6, lsl #3
 429 0088 FFF7FEFF 		bl	lv_memset_00
 430              	.LVL44:
 487:Middlewares/lvgl/src/core/lv_obj_style.c ****     lv_style_init(obj->styles[i].style);
 431              		.loc 1 487 5 is_stmt 1 view .LVU127
 487:Middlewares/lvgl/src/core/lv_obj_style.c ****     lv_style_init(obj->styles[i].style);
 432              		.loc 1 487 8 is_stmt 0 view .LVU128
 433 008c D4F80C80 		ldr	r8, [r4, #12]
 487:Middlewares/lvgl/src/core/lv_obj_style.c ****     lv_style_init(obj->styles[i].style);
 434              		.loc 1 487 28 view .LVU129
 435 0090 0820     		movs	r0, #8
 436 0092 FFF7FEFF 		bl	lv_mem_alloc
 437              	.LVL45:
 487:Middlewares/lvgl/src/core/lv_obj_style.c ****     lv_style_init(obj->styles[i].style);
 438              		.loc 1 487 26 view .LVU130
 439 0096 48F83600 		str	r0, [r8, r6, lsl #3]
 488:Middlewares/lvgl/src/core/lv_obj_style.c ****     obj->styles[i].is_local = 1;
 440              		.loc 1 488 5 is_stmt 1 view .LVU131
 488:Middlewares/lvgl/src/core/lv_obj_style.c ****     obj->styles[i].is_local = 1;
 441              		.loc 1 488 22 is_stmt 0 view .LVU132
 442 009a E368     		ldr	r3, [r4, #12]
 488:Middlewares/lvgl/src/core/lv_obj_style.c ****     obj->styles[i].is_local = 1;
 443              		.loc 1 488 5 view .LVU133
 444 009c 53F83600 		ldr	r0, [r3, r6, lsl #3]
 445 00a0 FFF7FEFF 		bl	lv_style_init
 446              	.LVL46:
 489:Middlewares/lvgl/src/core/lv_obj_style.c ****     obj->styles[i].selector = selector;
 447              		.loc 1 489 5 is_stmt 1 view .LVU134
 489:Middlewares/lvgl/src/core/lv_obj_style.c ****     obj->styles[i].selector = selector;
 448              		.loc 1 489 8 is_stmt 0 view .LVU135
 449 00a4 E368     		ldr	r3, [r4, #12]
 489:Middlewares/lvgl/src/core/lv_obj_style.c ****     obj->styles[i].selector = selector;
 450              		.loc 1 489 16 view .LVU136
 451 00a6 3B44     		add	r3, r3, r7
 489:Middlewares/lvgl/src/core/lv_obj_style.c ****     obj->styles[i].selector = selector;
 452              		.loc 1 489 29 view .LVU137
 453 00a8 DA79     		ldrb	r2, [r3, #7]	@ zero_extendqisi2
 454 00aa 42F00102 		orr	r2, r2, #1
 455 00ae DA71     		strb	r2, [r3, #7]
 490:Middlewares/lvgl/src/core/lv_obj_style.c ****     return obj->styles[i].style;
 456              		.loc 1 490 5 is_stmt 1 view .LVU138
 490:Middlewares/lvgl/src/core/lv_obj_style.c ****     return obj->styles[i].style;
 457              		.loc 1 490 8 is_stmt 0 view .LVU139
 458 00b0 E368     		ldr	r3, [r4, #12]
 490:Middlewares/lvgl/src/core/lv_obj_style.c ****     return obj->styles[i].style;
 459              		.loc 1 490 16 view .LVU140
 460 00b2 3B44     		add	r3, r3, r7
 490:Middlewares/lvgl/src/core/lv_obj_style.c ****     return obj->styles[i].style;
 461              		.loc 1 490 29 view .LVU141
 462 00b4 5A68     		ldr	r2, [r3, #4]
 463 00b6 65F31702 		bfi	r2, r5, #0, #24
 464              	.LVL47:
 490:Middlewares/lvgl/src/core/lv_obj_style.c ****     return obj->styles[i].style;
 465              		.loc 1 490 29 view .LVU142
 466 00ba 5A60     		str	r2, [r3, #4]
ARM GAS  /tmp/ccoxlgn6.s 			page 23


 491:Middlewares/lvgl/src/core/lv_obj_style.c **** }
 467              		.loc 1 491 5 is_stmt 1 view .LVU143
 491:Middlewares/lvgl/src/core/lv_obj_style.c **** }
 468              		.loc 1 491 15 is_stmt 0 view .LVU144
 469 00bc E368     		ldr	r3, [r4, #12]
 491:Middlewares/lvgl/src/core/lv_obj_style.c **** }
 470              		.loc 1 491 26 view .LVU145
 471 00be 53F83600 		ldr	r0, [r3, r6, lsl #3]
 472              	.LVL48:
 473              	.L22:
 492:Middlewares/lvgl/src/core/lv_obj_style.c **** 
 474              		.loc 1 492 1 view .LVU146
 475 00c2 BDE8F081 		pop	{r4, r5, r6, r7, r8, pc}
 492:Middlewares/lvgl/src/core/lv_obj_style.c **** 
 476              		.loc 1 492 1 view .LVU147
 477              		.cfi_endproc
 478              	.LFE169:
 480              		.section	.text.get_trans_style,"ax",%progbits
 481              		.align	1
 482              		.syntax unified
 483              		.thumb
 484              		.thumb_func
 485              		.fpu fpv5-d16
 487              	get_trans_style:
 488              	.LVL49:
 489              	.LFB170:
 503:Middlewares/lvgl/src/core/lv_obj_style.c ****     uint32_t i;
 490              		.loc 1 503 1 is_stmt 1 view -0
 491              		.cfi_startproc
 492              		@ args = 0, pretend = 0, frame = 0
 493              		@ frame_needed = 0, uses_anonymous_args = 0
 503:Middlewares/lvgl/src/core/lv_obj_style.c ****     uint32_t i;
 494              		.loc 1 503 1 is_stmt 0 view .LVU149
 495 0000 70B5     		push	{r4, r5, r6, lr}
 496              	.LCFI3:
 497              		.cfi_def_cfa_offset 16
 498              		.cfi_offset 4, -16
 499              		.cfi_offset 5, -12
 500              		.cfi_offset 6, -8
 501              		.cfi_offset 14, -4
 502 0002 0446     		mov	r4, r0
 503 0004 0D46     		mov	r5, r1
 504:Middlewares/lvgl/src/core/lv_obj_style.c ****     for(i = 0; i < obj->style_cnt; i++) {
 504              		.loc 1 504 5 is_stmt 1 view .LVU150
 505:Middlewares/lvgl/src/core/lv_obj_style.c ****         if(obj->styles[i].is_trans && obj->styles[i].selector == selector) break;
 505              		.loc 1 505 5 view .LVU151
 506              	.LVL50:
 505:Middlewares/lvgl/src/core/lv_obj_style.c ****         if(obj->styles[i].is_trans && obj->styles[i].selector == selector) break;
 507              		.loc 1 505 11 is_stmt 0 view .LVU152
 508 0006 0020     		movs	r0, #0
 509              	.LVL51:
 505:Middlewares/lvgl/src/core/lv_obj_style.c ****         if(obj->styles[i].is_trans && obj->styles[i].selector == selector) break;
 510              		.loc 1 505 5 view .LVU153
 511 0008 00E0     		b	.L35
 512              	.LVL52:
 513              	.L36:
 505:Middlewares/lvgl/src/core/lv_obj_style.c ****         if(obj->styles[i].is_trans && obj->styles[i].selector == selector) break;
ARM GAS  /tmp/ccoxlgn6.s 			page 24


 514              		.loc 1 505 36 is_stmt 1 discriminator 2 view .LVU154
 505:Middlewares/lvgl/src/core/lv_obj_style.c ****         if(obj->styles[i].is_trans && obj->styles[i].selector == selector) break;
 515              		.loc 1 505 37 is_stmt 0 discriminator 2 view .LVU155
 516 000a 0130     		adds	r0, r0, #1
 517              	.LVL53:
 518              	.L35:
 505:Middlewares/lvgl/src/core/lv_obj_style.c ****         if(obj->styles[i].is_trans && obj->styles[i].selector == selector) break;
 519              		.loc 1 505 16 is_stmt 1 discriminator 1 view .LVU156
 505:Middlewares/lvgl/src/core/lv_obj_style.c ****         if(obj->styles[i].is_trans && obj->styles[i].selector == selector) break;
 520              		.loc 1 505 23 is_stmt 0 discriminator 1 view .LVU157
 521 000c 628C     		ldrh	r2, [r4, #34]
 522 000e C2F3C502 		ubfx	r2, r2, #3, #6
 505:Middlewares/lvgl/src/core/lv_obj_style.c ****         if(obj->styles[i].is_trans && obj->styles[i].selector == selector) break;
 523              		.loc 1 505 5 discriminator 1 view .LVU158
 524 0012 8242     		cmp	r2, r0
 525 0014 0BD9     		bls	.L37
 506:Middlewares/lvgl/src/core/lv_obj_style.c ****     }
 526              		.loc 1 506 9 is_stmt 1 view .LVU159
 506:Middlewares/lvgl/src/core/lv_obj_style.c ****     }
 527              		.loc 1 506 15 is_stmt 0 view .LVU160
 528 0016 E368     		ldr	r3, [r4, #12]
 506:Middlewares/lvgl/src/core/lv_obj_style.c ****     }
 529              		.loc 1 506 23 view .LVU161
 530 0018 03EBC003 		add	r3, r3, r0, lsl #3
 506:Middlewares/lvgl/src/core/lv_obj_style.c ****     }
 531              		.loc 1 506 12 view .LVU162
 532 001c D979     		ldrb	r1, [r3, #7]	@ zero_extendqisi2
 506:Middlewares/lvgl/src/core/lv_obj_style.c ****     }
 533              		.loc 1 506 11 view .LVU163
 534 001e 11F0020F 		tst	r1, #2
 535 0022 F2D0     		beq	.L36
 506:Middlewares/lvgl/src/core/lv_obj_style.c ****     }
 536              		.loc 1 506 53 discriminator 1 view .LVU164
 537 0024 5B68     		ldr	r3, [r3, #4]
 538 0026 C3F31703 		ubfx	r3, r3, #0, #24
 506:Middlewares/lvgl/src/core/lv_obj_style.c ****     }
 539              		.loc 1 506 36 discriminator 1 view .LVU165
 540 002a AB42     		cmp	r3, r5
 541 002c EDD1     		bne	.L36
 542              	.L37:
 510:Middlewares/lvgl/src/core/lv_obj_style.c **** 
 543              		.loc 1 510 5 is_stmt 1 view .LVU166
 510:Middlewares/lvgl/src/core/lv_obj_style.c **** 
 544              		.loc 1 510 7 is_stmt 0 view .LVU167
 545 002e 8242     		cmp	r2, r0
 546 0030 03D0     		beq	.L39
 510:Middlewares/lvgl/src/core/lv_obj_style.c **** 
 547              		.loc 1 510 29 is_stmt 1 discriminator 1 view .LVU168
 510:Middlewares/lvgl/src/core/lv_obj_style.c **** 
 548              		.loc 1 510 40 is_stmt 0 discriminator 1 view .LVU169
 549 0032 E368     		ldr	r3, [r4, #12]
 510:Middlewares/lvgl/src/core/lv_obj_style.c **** 
 550              		.loc 1 510 36 discriminator 1 view .LVU170
 551 0034 03EBC000 		add	r0, r3, r0, lsl #3
 552              	.LVL54:
 553              	.L34:
 525:Middlewares/lvgl/src/core/lv_obj_style.c **** 
ARM GAS  /tmp/ccoxlgn6.s 			page 25


 554              		.loc 1 525 1 view .LVU171
 555 0038 70BD     		pop	{r4, r5, r6, pc}
 556              	.LVL55:
 557              	.L39:
 512:Middlewares/lvgl/src/core/lv_obj_style.c ****     obj->styles = lv_mem_realloc(obj->styles, obj->style_cnt * sizeof(_lv_obj_style_t));
 558              		.loc 1 512 5 is_stmt 1 view .LVU172
 512:Middlewares/lvgl/src/core/lv_obj_style.c ****     obj->styles = lv_mem_realloc(obj->styles, obj->style_cnt * sizeof(_lv_obj_style_t));
 559              		.loc 1 512 19 is_stmt 0 view .LVU173
 560 003a 0132     		adds	r2, r2, #1
 561 003c 02F03F02 		and	r2, r2, #63
 562 0040 638C     		ldrh	r3, [r4, #34]
 563 0042 62F3C803 		bfi	r3, r2, #3, #6
 564 0046 6384     		strh	r3, [r4, #34]	@ movhi
 513:Middlewares/lvgl/src/core/lv_obj_style.c **** 
 565              		.loc 1 513 5 is_stmt 1 view .LVU174
 513:Middlewares/lvgl/src/core/lv_obj_style.c **** 
 566              		.loc 1 513 19 is_stmt 0 view .LVU175
 567 0048 D100     		lsls	r1, r2, #3
 568 004a E068     		ldr	r0, [r4, #12]
 569              	.LVL56:
 513:Middlewares/lvgl/src/core/lv_obj_style.c **** 
 570              		.loc 1 513 19 view .LVU176
 571 004c FFF7FEFF 		bl	lv_mem_realloc
 572              	.LVL57:
 513:Middlewares/lvgl/src/core/lv_obj_style.c **** 
 573              		.loc 1 513 17 view .LVU177
 574 0050 E060     		str	r0, [r4, #12]
 515:Middlewares/lvgl/src/core/lv_obj_style.c ****         obj->styles[i] = obj->styles[i - 1];
 575              		.loc 1 515 5 is_stmt 1 view .LVU178
 515:Middlewares/lvgl/src/core/lv_obj_style.c ****         obj->styles[i] = obj->styles[i - 1];
 576              		.loc 1 515 16 is_stmt 0 view .LVU179
 577 0052 668C     		ldrh	r6, [r4, #34]
 578 0054 C6F3C506 		ubfx	r6, r6, #3, #6
 515:Middlewares/lvgl/src/core/lv_obj_style.c ****         obj->styles[i] = obj->styles[i - 1];
 579              		.loc 1 515 28 view .LVU180
 580 0058 013E     		subs	r6, r6, #1
 581              	.LVL58:
 515:Middlewares/lvgl/src/core/lv_obj_style.c ****         obj->styles[i] = obj->styles[i - 1];
 582              		.loc 1 515 5 view .LVU181
 583 005a 0CE0     		b	.L41
 584              	.L42:
 516:Middlewares/lvgl/src/core/lv_obj_style.c ****     }
 585              		.loc 1 516 9 is_stmt 1 discriminator 3 view .LVU182
 516:Middlewares/lvgl/src/core/lv_obj_style.c ****     }
 586              		.loc 1 516 29 is_stmt 0 discriminator 3 view .LVU183
 587 005c E268     		ldr	r2, [r4, #12]
 516:Middlewares/lvgl/src/core/lv_obj_style.c ****     }
 588              		.loc 1 516 37 discriminator 3 view .LVU184
 589 005e 6FF06043 		mvn	r3, #-536870912
 590 0062 3344     		add	r3, r3, r6
 591 0064 02EBC303 		add	r3, r2, r3, lsl #3
 516:Middlewares/lvgl/src/core/lv_obj_style.c ****     }
 592              		.loc 1 516 20 discriminator 3 view .LVU185
 593 0068 02EBC602 		add	r2, r2, r6, lsl #3
 516:Middlewares/lvgl/src/core/lv_obj_style.c ****     }
 594              		.loc 1 516 24 discriminator 3 view .LVU186
 595 006c 93E80300 		ldm	r3, {r0, r1}
ARM GAS  /tmp/ccoxlgn6.s 			page 26


 596 0070 82E80300 		stm	r2, {r0, r1}
 515:Middlewares/lvgl/src/core/lv_obj_style.c ****         obj->styles[i] = obj->styles[i - 1];
 597              		.loc 1 515 41 is_stmt 1 discriminator 3 view .LVU187
 515:Middlewares/lvgl/src/core/lv_obj_style.c ****         obj->styles[i] = obj->styles[i - 1];
 598              		.loc 1 515 42 is_stmt 0 discriminator 3 view .LVU188
 599 0074 013E     		subs	r6, r6, #1
 600              	.LVL59:
 601              	.L41:
 515:Middlewares/lvgl/src/core/lv_obj_style.c ****         obj->styles[i] = obj->styles[i - 1];
 602              		.loc 1 515 33 is_stmt 1 discriminator 1 view .LVU189
 515:Middlewares/lvgl/src/core/lv_obj_style.c ****         obj->styles[i] = obj->styles[i - 1];
 603              		.loc 1 515 5 is_stmt 0 discriminator 1 view .LVU190
 604 0076 002E     		cmp	r6, #0
 605 0078 F0D1     		bne	.L42
 519:Middlewares/lvgl/src/core/lv_obj_style.c ****     obj->styles[0].style = lv_mem_alloc(sizeof(lv_style_t));
 606              		.loc 1 519 5 is_stmt 1 view .LVU191
 607 007a 0821     		movs	r1, #8
 608 007c E068     		ldr	r0, [r4, #12]
 609 007e FFF7FEFF 		bl	lv_memset_00
 610              	.LVL60:
 520:Middlewares/lvgl/src/core/lv_obj_style.c ****     lv_style_init(obj->styles[0].style);
 611              		.loc 1 520 5 view .LVU192
 520:Middlewares/lvgl/src/core/lv_obj_style.c ****     lv_style_init(obj->styles[0].style);
 612              		.loc 1 520 8 is_stmt 0 view .LVU193
 613 0082 E668     		ldr	r6, [r4, #12]
 614              	.LVL61:
 520:Middlewares/lvgl/src/core/lv_obj_style.c ****     lv_style_init(obj->styles[0].style);
 615              		.loc 1 520 28 view .LVU194
 616 0084 0820     		movs	r0, #8
 617 0086 FFF7FEFF 		bl	lv_mem_alloc
 618              	.LVL62:
 520:Middlewares/lvgl/src/core/lv_obj_style.c ****     lv_style_init(obj->styles[0].style);
 619              		.loc 1 520 26 view .LVU195
 620 008a 3060     		str	r0, [r6]
 521:Middlewares/lvgl/src/core/lv_obj_style.c ****     obj->styles[0].is_trans = 1;
 621              		.loc 1 521 5 is_stmt 1 view .LVU196
 521:Middlewares/lvgl/src/core/lv_obj_style.c ****     obj->styles[0].is_trans = 1;
 622              		.loc 1 521 22 is_stmt 0 view .LVU197
 623 008c E368     		ldr	r3, [r4, #12]
 521:Middlewares/lvgl/src/core/lv_obj_style.c ****     obj->styles[0].is_trans = 1;
 624              		.loc 1 521 5 view .LVU198
 625 008e 1868     		ldr	r0, [r3]
 626 0090 FFF7FEFF 		bl	lv_style_init
 627              	.LVL63:
 522:Middlewares/lvgl/src/core/lv_obj_style.c ****     obj->styles[0].selector = selector;
 628              		.loc 1 522 5 is_stmt 1 view .LVU199
 522:Middlewares/lvgl/src/core/lv_obj_style.c ****     obj->styles[0].selector = selector;
 629              		.loc 1 522 8 is_stmt 0 view .LVU200
 630 0094 E268     		ldr	r2, [r4, #12]
 522:Middlewares/lvgl/src/core/lv_obj_style.c ****     obj->styles[0].selector = selector;
 631              		.loc 1 522 29 view .LVU201
 632 0096 D379     		ldrb	r3, [r2, #7]	@ zero_extendqisi2
 633 0098 43F00203 		orr	r3, r3, #2
 634 009c D371     		strb	r3, [r2, #7]
 523:Middlewares/lvgl/src/core/lv_obj_style.c ****     return &obj->styles[0];
 635              		.loc 1 523 5 is_stmt 1 view .LVU202
 523:Middlewares/lvgl/src/core/lv_obj_style.c ****     return &obj->styles[0];
ARM GAS  /tmp/ccoxlgn6.s 			page 27


 636              		.loc 1 523 8 is_stmt 0 view .LVU203
 637 009e E368     		ldr	r3, [r4, #12]
 523:Middlewares/lvgl/src/core/lv_obj_style.c ****     return &obj->styles[0];
 638              		.loc 1 523 29 view .LVU204
 639 00a0 5A68     		ldr	r2, [r3, #4]
 640 00a2 65F31702 		bfi	r2, r5, #0, #24
 641              	.LVL64:
 523:Middlewares/lvgl/src/core/lv_obj_style.c ****     return &obj->styles[0];
 642              		.loc 1 523 29 view .LVU205
 643 00a6 5A60     		str	r2, [r3, #4]
 524:Middlewares/lvgl/src/core/lv_obj_style.c **** }
 644              		.loc 1 524 5 is_stmt 1 view .LVU206
 524:Middlewares/lvgl/src/core/lv_obj_style.c **** }
 645              		.loc 1 524 12 is_stmt 0 view .LVU207
 646 00a8 E068     		ldr	r0, [r4, #12]
 647 00aa C5E7     		b	.L34
 648              		.cfi_endproc
 649              	.LFE170:
 651              		.section	.text.fade_anim_cb,"ax",%progbits
 652              		.align	1
 653              		.syntax unified
 654              		.thumb
 655              		.thumb_func
 656              		.fpu fpv5-d16
 658              	fade_anim_cb:
 659              	.LVL65:
 660              	.LFB179:
 681:Middlewares/lvgl/src/core/lv_obj_style.c **** 
 682:Middlewares/lvgl/src/core/lv_obj_style.c **** static void trans_anim_cb(void * _tr, int32_t v)
 683:Middlewares/lvgl/src/core/lv_obj_style.c **** {
 684:Middlewares/lvgl/src/core/lv_obj_style.c ****     trans_t * tr = _tr;
 685:Middlewares/lvgl/src/core/lv_obj_style.c ****     lv_obj_t * obj = tr->obj;
 686:Middlewares/lvgl/src/core/lv_obj_style.c **** 
 687:Middlewares/lvgl/src/core/lv_obj_style.c ****     uint32_t i;
 688:Middlewares/lvgl/src/core/lv_obj_style.c ****     for(i = 0; i < obj->style_cnt; i++) {
 689:Middlewares/lvgl/src/core/lv_obj_style.c ****         if(obj->styles[i].is_trans == 0 || obj->styles[i].selector != tr->selector) continue;
 690:Middlewares/lvgl/src/core/lv_obj_style.c **** 
 691:Middlewares/lvgl/src/core/lv_obj_style.c ****         lv_style_value_t value_final;
 692:Middlewares/lvgl/src/core/lv_obj_style.c ****         switch (tr->prop) {
 693:Middlewares/lvgl/src/core/lv_obj_style.c **** 
 694:Middlewares/lvgl/src/core/lv_obj_style.c ****             case LV_STYLE_BORDER_SIDE:
 695:Middlewares/lvgl/src/core/lv_obj_style.c ****             case LV_STYLE_BORDER_POST:
 696:Middlewares/lvgl/src/core/lv_obj_style.c ****             case LV_STYLE_BLEND_MODE:
 697:Middlewares/lvgl/src/core/lv_obj_style.c ****                 if(v < 255) value_final.num = tr->start_value.num;
 698:Middlewares/lvgl/src/core/lv_obj_style.c ****                 else value_final.num = tr->end_value.num;
 699:Middlewares/lvgl/src/core/lv_obj_style.c ****                 break;
 700:Middlewares/lvgl/src/core/lv_obj_style.c ****             case LV_STYLE_TRANSITION:
 701:Middlewares/lvgl/src/core/lv_obj_style.c ****             case LV_STYLE_TEXT_FONT:
 702:Middlewares/lvgl/src/core/lv_obj_style.c ****                 if(v < 255) value_final.ptr = tr->start_value.ptr;
 703:Middlewares/lvgl/src/core/lv_obj_style.c ****                 else value_final.ptr = tr->end_value.ptr;
 704:Middlewares/lvgl/src/core/lv_obj_style.c ****                 break;
 705:Middlewares/lvgl/src/core/lv_obj_style.c ****             case LV_STYLE_COLOR_FILTER_DSC:
 706:Middlewares/lvgl/src/core/lv_obj_style.c ****                 if(tr->start_value.ptr == NULL) value_final.ptr = tr->end_value.ptr;
 707:Middlewares/lvgl/src/core/lv_obj_style.c ****                 else if(tr->end_value.ptr == NULL) value_final.ptr = tr->start_value.ptr;
 708:Middlewares/lvgl/src/core/lv_obj_style.c ****                 else if(v < 128) value_final.ptr = tr->start_value.ptr;
 709:Middlewares/lvgl/src/core/lv_obj_style.c ****                 else value_final.ptr = tr->end_value.ptr;
 710:Middlewares/lvgl/src/core/lv_obj_style.c ****                 break;
ARM GAS  /tmp/ccoxlgn6.s 			page 28


 711:Middlewares/lvgl/src/core/lv_obj_style.c ****             case LV_STYLE_BG_COLOR:
 712:Middlewares/lvgl/src/core/lv_obj_style.c ****             case LV_STYLE_BORDER_COLOR:
 713:Middlewares/lvgl/src/core/lv_obj_style.c ****             case LV_STYLE_TEXT_COLOR:
 714:Middlewares/lvgl/src/core/lv_obj_style.c ****             case LV_STYLE_SHADOW_COLOR:
 715:Middlewares/lvgl/src/core/lv_obj_style.c ****             case LV_STYLE_OUTLINE_COLOR:
 716:Middlewares/lvgl/src/core/lv_obj_style.c ****             case LV_STYLE_IMG_RECOLOR:
 717:Middlewares/lvgl/src/core/lv_obj_style.c ****                 if(v <= 0) value_final.color = tr->start_value.color;
 718:Middlewares/lvgl/src/core/lv_obj_style.c ****                 else if(v >= 255) value_final.color = tr->end_value.color;
 719:Middlewares/lvgl/src/core/lv_obj_style.c ****                 else value_final.color = lv_color_mix(tr->end_value.color, tr->start_value.color, v
 720:Middlewares/lvgl/src/core/lv_obj_style.c ****                 break;
 721:Middlewares/lvgl/src/core/lv_obj_style.c **** 
 722:Middlewares/lvgl/src/core/lv_obj_style.c ****             default:
 723:Middlewares/lvgl/src/core/lv_obj_style.c ****                 if(v == 0) value_final.num = tr->start_value.num;
 724:Middlewares/lvgl/src/core/lv_obj_style.c ****                 else if(v == 255) value_final.num = tr->end_value.num;
 725:Middlewares/lvgl/src/core/lv_obj_style.c ****                 else value_final.num = tr->start_value.num + ((int32_t)((int32_t)(tr->end_value.num
 726:Middlewares/lvgl/src/core/lv_obj_style.c ****                 break;
 727:Middlewares/lvgl/src/core/lv_obj_style.c ****         }
 728:Middlewares/lvgl/src/core/lv_obj_style.c **** 
 729:Middlewares/lvgl/src/core/lv_obj_style.c ****         lv_style_value_t old_value;
 730:Middlewares/lvgl/src/core/lv_obj_style.c ****         bool refr = true;
 731:Middlewares/lvgl/src/core/lv_obj_style.c ****         if(lv_style_get_prop(obj->styles[i].style, tr->prop, &old_value)) {
 732:Middlewares/lvgl/src/core/lv_obj_style.c ****             if(value_final.ptr == old_value.ptr && value_final.color.full == old_value.color.full &
 733:Middlewares/lvgl/src/core/lv_obj_style.c ****                 refr = false;
 734:Middlewares/lvgl/src/core/lv_obj_style.c ****             }
 735:Middlewares/lvgl/src/core/lv_obj_style.c ****         }
 736:Middlewares/lvgl/src/core/lv_obj_style.c ****         lv_style_set_prop(obj->styles[i].style, tr->prop, value_final);
 737:Middlewares/lvgl/src/core/lv_obj_style.c ****         if (refr) lv_obj_refresh_style(tr->obj, tr->selector, tr->prop);
 738:Middlewares/lvgl/src/core/lv_obj_style.c ****         break;
 739:Middlewares/lvgl/src/core/lv_obj_style.c **** 
 740:Middlewares/lvgl/src/core/lv_obj_style.c ****     }
 741:Middlewares/lvgl/src/core/lv_obj_style.c **** 
 742:Middlewares/lvgl/src/core/lv_obj_style.c **** }
 743:Middlewares/lvgl/src/core/lv_obj_style.c **** 
 744:Middlewares/lvgl/src/core/lv_obj_style.c **** static void trans_anim_start_cb(lv_anim_t * a)
 745:Middlewares/lvgl/src/core/lv_obj_style.c **** {
 746:Middlewares/lvgl/src/core/lv_obj_style.c ****     trans_t * tr = a->var;
 747:Middlewares/lvgl/src/core/lv_obj_style.c **** 
 748:Middlewares/lvgl/src/core/lv_obj_style.c ****     lv_part_t part = lv_obj_style_get_selector_part(tr->selector);
 749:Middlewares/lvgl/src/core/lv_obj_style.c ****     tr->start_value = lv_obj_get_style_prop(tr->obj, part, tr->prop);
 750:Middlewares/lvgl/src/core/lv_obj_style.c **** 
 751:Middlewares/lvgl/src/core/lv_obj_style.c ****     /*Init prop to an invalid values to be sure `trans_del` won't delete this added `tr`*/
 752:Middlewares/lvgl/src/core/lv_obj_style.c ****     lv_style_prop_t prop_tmp = tr->prop;
 753:Middlewares/lvgl/src/core/lv_obj_style.c ****     tr->prop = LV_STYLE_PROP_INV;
 754:Middlewares/lvgl/src/core/lv_obj_style.c **** 
 755:Middlewares/lvgl/src/core/lv_obj_style.c ****     /*Delete the related transitions if any*/
 756:Middlewares/lvgl/src/core/lv_obj_style.c ****     trans_del(tr->obj, part, prop_tmp, tr);
 757:Middlewares/lvgl/src/core/lv_obj_style.c **** 
 758:Middlewares/lvgl/src/core/lv_obj_style.c ****     tr->prop = prop_tmp;
 759:Middlewares/lvgl/src/core/lv_obj_style.c **** 
 760:Middlewares/lvgl/src/core/lv_obj_style.c ****     _lv_obj_style_t * style_trans = get_trans_style(tr->obj, tr->selector);
 761:Middlewares/lvgl/src/core/lv_obj_style.c ****     lv_style_set_prop(style_trans->style, tr->prop, tr->start_value);   /*Be sure `trans_style` has
 762:Middlewares/lvgl/src/core/lv_obj_style.c **** 
 763:Middlewares/lvgl/src/core/lv_obj_style.c **** }
 764:Middlewares/lvgl/src/core/lv_obj_style.c **** 
 765:Middlewares/lvgl/src/core/lv_obj_style.c **** static void trans_anim_ready_cb(lv_anim_t * a)
 766:Middlewares/lvgl/src/core/lv_obj_style.c **** {
 767:Middlewares/lvgl/src/core/lv_obj_style.c ****     trans_t * tr = a->var;
ARM GAS  /tmp/ccoxlgn6.s 			page 29


 768:Middlewares/lvgl/src/core/lv_obj_style.c ****     lv_obj_t * obj = tr->obj;
 769:Middlewares/lvgl/src/core/lv_obj_style.c ****     lv_style_prop_t prop = tr->prop;
 770:Middlewares/lvgl/src/core/lv_obj_style.c **** 
 771:Middlewares/lvgl/src/core/lv_obj_style.c ****     /*Remove the transitioned property from trans. style
 772:Middlewares/lvgl/src/core/lv_obj_style.c ****      *if there no more transitions for this property
 773:Middlewares/lvgl/src/core/lv_obj_style.c ****      *It allows changing it by normal styles*/
 774:Middlewares/lvgl/src/core/lv_obj_style.c ****     bool running = false;
 775:Middlewares/lvgl/src/core/lv_obj_style.c ****     trans_t * tr_i;
 776:Middlewares/lvgl/src/core/lv_obj_style.c ****     _LV_LL_READ(&LV_GC_ROOT(_lv_obj_style_trans_ll), tr_i) {
 777:Middlewares/lvgl/src/core/lv_obj_style.c ****         if(tr_i != tr && tr_i->obj == tr->obj && tr_i->selector == tr->selector && tr_i->prop == tr
 778:Middlewares/lvgl/src/core/lv_obj_style.c ****             running = true;
 779:Middlewares/lvgl/src/core/lv_obj_style.c ****             break;
 780:Middlewares/lvgl/src/core/lv_obj_style.c ****         }
 781:Middlewares/lvgl/src/core/lv_obj_style.c ****     }
 782:Middlewares/lvgl/src/core/lv_obj_style.c **** 
 783:Middlewares/lvgl/src/core/lv_obj_style.c ****     if(!running) {
 784:Middlewares/lvgl/src/core/lv_obj_style.c ****         uint32_t i;
 785:Middlewares/lvgl/src/core/lv_obj_style.c ****         for(i = 0; i < obj->style_cnt; i++) {
 786:Middlewares/lvgl/src/core/lv_obj_style.c ****             if(obj->styles[i].is_trans && obj->styles[i].selector == tr->selector) {
 787:Middlewares/lvgl/src/core/lv_obj_style.c ****                 _lv_ll_remove(&LV_GC_ROOT(_lv_obj_style_trans_ll), tr);
 788:Middlewares/lvgl/src/core/lv_obj_style.c ****                 lv_mem_free(tr);
 789:Middlewares/lvgl/src/core/lv_obj_style.c **** 
 790:Middlewares/lvgl/src/core/lv_obj_style.c ****                 _lv_obj_style_t * obj_style = &obj->styles[i];
 791:Middlewares/lvgl/src/core/lv_obj_style.c ****                 lv_style_remove_prop(obj_style->style, prop);
 792:Middlewares/lvgl/src/core/lv_obj_style.c **** 
 793:Middlewares/lvgl/src/core/lv_obj_style.c ****                 if(lv_style_is_empty(obj->styles[i].style)) {
 794:Middlewares/lvgl/src/core/lv_obj_style.c ****                     lv_obj_remove_style(obj, obj_style->style, obj_style->selector);
 795:Middlewares/lvgl/src/core/lv_obj_style.c **** 
 796:Middlewares/lvgl/src/core/lv_obj_style.c ****                 }
 797:Middlewares/lvgl/src/core/lv_obj_style.c ****                 break;
 798:Middlewares/lvgl/src/core/lv_obj_style.c ****             }
 799:Middlewares/lvgl/src/core/lv_obj_style.c ****         }
 800:Middlewares/lvgl/src/core/lv_obj_style.c ****     }
 801:Middlewares/lvgl/src/core/lv_obj_style.c **** }
 802:Middlewares/lvgl/src/core/lv_obj_style.c **** 
 803:Middlewares/lvgl/src/core/lv_obj_style.c **** static void fade_anim_cb(void * obj, int32_t v)
 804:Middlewares/lvgl/src/core/lv_obj_style.c **** {
 661              		.loc 1 804 1 is_stmt 1 view -0
 662              		.cfi_startproc
 663              		@ args = 0, pretend = 0, frame = 0
 664              		@ frame_needed = 0, uses_anonymous_args = 0
 665              		.loc 1 804 1 is_stmt 0 view .LVU209
 666 0000 08B5     		push	{r3, lr}
 667              	.LCFI4:
 668              		.cfi_def_cfa_offset 8
 669              		.cfi_offset 3, -8
 670              		.cfi_offset 14, -4
 805:Middlewares/lvgl/src/core/lv_obj_style.c ****     lv_obj_set_style_opa(obj, v, 0);
 671              		.loc 1 805 5 is_stmt 1 view .LVU210
 672 0002 0022     		movs	r2, #0
 673 0004 C9B2     		uxtb	r1, r1
 674              	.LVL66:
 675              		.loc 1 805 5 is_stmt 0 view .LVU211
 676 0006 FFF7FEFF 		bl	lv_obj_set_style_opa
 677              	.LVL67:
 806:Middlewares/lvgl/src/core/lv_obj_style.c **** }
 678              		.loc 1 806 1 view .LVU212
ARM GAS  /tmp/ccoxlgn6.s 			page 30


 679 000a 08BD     		pop	{r3, pc}
 680              		.cfi_endproc
 681              	.LFE179:
 683              		.section	.text._lv_obj_style_init,"ax",%progbits
 684              		.align	1
 685              		.global	_lv_obj_style_init
 686              		.syntax unified
 687              		.thumb
 688              		.thumb_func
 689              		.fpu fpv5-d16
 691              	_lv_obj_style_init:
 692              	.LFB153:
  72:Middlewares/lvgl/src/core/lv_obj_style.c ****     _lv_ll_init(&LV_GC_ROOT(_lv_obj_style_trans_ll), sizeof(trans_t));
 693              		.loc 1 72 1 is_stmt 1 view -0
 694              		.cfi_startproc
 695              		@ args = 0, pretend = 0, frame = 0
 696              		@ frame_needed = 0, uses_anonymous_args = 0
 697 0000 08B5     		push	{r3, lr}
 698              	.LCFI5:
 699              		.cfi_def_cfa_offset 8
 700              		.cfi_offset 3, -8
 701              		.cfi_offset 14, -4
  73:Middlewares/lvgl/src/core/lv_obj_style.c **** }
 702              		.loc 1 73 5 view .LVU214
 703 0002 1421     		movs	r1, #20
 704 0004 0148     		ldr	r0, .L48
 705 0006 FFF7FEFF 		bl	_lv_ll_init
 706              	.LVL68:
  74:Middlewares/lvgl/src/core/lv_obj_style.c **** 
 707              		.loc 1 74 1 is_stmt 0 view .LVU215
 708 000a 08BD     		pop	{r3, pc}
 709              	.L49:
 710              		.align	2
 711              	.L48:
 712 000c 00000000 		.word	_lv_obj_style_trans_ll
 713              		.cfi_endproc
 714              	.LFE153:
 716              		.section	.text.lv_obj_enable_style_refresh,"ax",%progbits
 717              		.align	1
 718              		.global	lv_obj_enable_style_refresh
 719              		.syntax unified
 720              		.thumb
 721              		.thumb_func
 722              		.fpu fpv5-d16
 724              	lv_obj_enable_style_refresh:
 725              	.LVL69:
 726              	.LFB158:
 202:Middlewares/lvgl/src/core/lv_obj_style.c ****     style_refr = en;
 727              		.loc 1 202 1 is_stmt 1 view -0
 728              		.cfi_startproc
 729              		@ args = 0, pretend = 0, frame = 0
 730              		@ frame_needed = 0, uses_anonymous_args = 0
 731              		@ link register save eliminated.
 203:Middlewares/lvgl/src/core/lv_obj_style.c **** }
 732              		.loc 1 203 5 view .LVU217
 203:Middlewares/lvgl/src/core/lv_obj_style.c **** }
 733              		.loc 1 203 16 is_stmt 0 view .LVU218
ARM GAS  /tmp/ccoxlgn6.s 			page 31


 734 0000 014B     		ldr	r3, .L51
 735 0002 1870     		strb	r0, [r3]
 204:Middlewares/lvgl/src/core/lv_obj_style.c **** 
 736              		.loc 1 204 1 view .LVU219
 737 0004 7047     		bx	lr
 738              	.L52:
 739 0006 00BF     		.align	2
 740              	.L51:
 741 0008 00000000 		.word	.LANCHOR0
 742              		.cfi_endproc
 743              	.LFE158:
 745              		.section	.text.lv_obj_get_local_style_prop,"ax",%progbits
 746              		.align	1
 747              		.global	lv_obj_get_local_style_prop
 748              		.syntax unified
 749              		.thumb
 750              		.thumb_func
 751              		.fpu fpv5-d16
 753              	lv_obj_get_local_style_prop:
 754              	.LVL70:
 755              	.LFB161:
 260:Middlewares/lvgl/src/core/lv_obj_style.c ****     uint32_t i;
 756              		.loc 1 260 1 is_stmt 1 view -0
 757              		.cfi_startproc
 758              		@ args = 0, pretend = 0, frame = 0
 759              		@ frame_needed = 0, uses_anonymous_args = 0
 260:Middlewares/lvgl/src/core/lv_obj_style.c ****     uint32_t i;
 760              		.loc 1 260 1 is_stmt 0 view .LVU221
 761 0000 10B5     		push	{r4, lr}
 762              	.LCFI6:
 763              		.cfi_def_cfa_offset 8
 764              		.cfi_offset 4, -8
 765              		.cfi_offset 14, -4
 261:Middlewares/lvgl/src/core/lv_obj_style.c ****     for(i = 0; i < obj->style_cnt; i++) {
 766              		.loc 1 261 5 is_stmt 1 view .LVU222
 262:Middlewares/lvgl/src/core/lv_obj_style.c ****         if(obj->styles[i].is_local &&
 767              		.loc 1 262 5 view .LVU223
 768              	.LVL71:
 262:Middlewares/lvgl/src/core/lv_obj_style.c ****         if(obj->styles[i].is_local &&
 769              		.loc 1 262 11 is_stmt 0 view .LVU224
 770 0002 4FF0000E 		mov	lr, #0
 262:Middlewares/lvgl/src/core/lv_obj_style.c ****         if(obj->styles[i].is_local &&
 771              		.loc 1 262 5 view .LVU225
 772 0006 01E0     		b	.L54
 773              	.LVL72:
 774              	.L55:
 262:Middlewares/lvgl/src/core/lv_obj_style.c ****         if(obj->styles[i].is_local &&
 775              		.loc 1 262 36 is_stmt 1 discriminator 2 view .LVU226
 262:Middlewares/lvgl/src/core/lv_obj_style.c ****         if(obj->styles[i].is_local &&
 776              		.loc 1 262 37 is_stmt 0 discriminator 2 view .LVU227
 777 0008 0EF1010E 		add	lr, lr, #1
 778              	.LVL73:
 779              	.L54:
 262:Middlewares/lvgl/src/core/lv_obj_style.c ****         if(obj->styles[i].is_local &&
 780              		.loc 1 262 16 is_stmt 1 discriminator 1 view .LVU228
 262:Middlewares/lvgl/src/core/lv_obj_style.c ****         if(obj->styles[i].is_local &&
 781              		.loc 1 262 23 is_stmt 0 discriminator 1 view .LVU229
ARM GAS  /tmp/ccoxlgn6.s 			page 32


 782 000c B0F822C0 		ldrh	ip, [r0, #34]
 783 0010 CCF3C50C 		ubfx	ip, ip, #3, #6
 262:Middlewares/lvgl/src/core/lv_obj_style.c ****         if(obj->styles[i].is_local &&
 784              		.loc 1 262 5 discriminator 1 view .LVU230
 785 0014 F445     		cmp	ip, lr
 786 0016 12D9     		bls	.L59
 263:Middlewares/lvgl/src/core/lv_obj_style.c ****            obj->styles[i].selector ==  selector)
 787              		.loc 1 263 9 is_stmt 1 view .LVU231
 263:Middlewares/lvgl/src/core/lv_obj_style.c ****            obj->styles[i].selector ==  selector)
 788              		.loc 1 263 23 is_stmt 0 view .LVU232
 789 0018 C468     		ldr	r4, [r0, #12]
 790 001a 04EBCE0C 		add	ip, r4, lr, lsl #3
 263:Middlewares/lvgl/src/core/lv_obj_style.c ****            obj->styles[i].selector ==  selector)
 791              		.loc 1 263 12 view .LVU233
 792 001e 9CF80740 		ldrb	r4, [ip, #7]	@ zero_extendqisi2
 263:Middlewares/lvgl/src/core/lv_obj_style.c ****            obj->styles[i].selector ==  selector)
 793              		.loc 1 263 11 view .LVU234
 794 0022 14F0010F 		tst	r4, #1
 795 0026 EFD0     		beq	.L55
 264:Middlewares/lvgl/src/core/lv_obj_style.c ****         {
 796              		.loc 1 264 26 discriminator 1 view .LVU235
 797 0028 DCF80440 		ldr	r4, [ip, #4]
 798 002c C4F31704 		ubfx	r4, r4, #0, #24
 263:Middlewares/lvgl/src/core/lv_obj_style.c ****            obj->styles[i].selector ==  selector)
 799              		.loc 1 263 36 discriminator 1 view .LVU236
 800 0030 9C42     		cmp	r4, r3
 801 0032 E9D1     		bne	.L55
 266:Middlewares/lvgl/src/core/lv_obj_style.c ****         }
 802              		.loc 1 266 13 is_stmt 1 view .LVU237
 266:Middlewares/lvgl/src/core/lv_obj_style.c ****         }
 803              		.loc 1 266 20 is_stmt 0 view .LVU238
 804 0034 DCF80000 		ldr	r0, [ip]
 805              	.LVL74:
 266:Middlewares/lvgl/src/core/lv_obj_style.c ****         }
 806              		.loc 1 266 20 view .LVU239
 807 0038 FFF7FEFF 		bl	lv_style_get_prop
 808              	.LVL75:
 266:Middlewares/lvgl/src/core/lv_obj_style.c ****         }
 809              		.loc 1 266 20 view .LVU240
 810 003c 00E0     		b	.L56
 811              	.LVL76:
 812              	.L59:
 270:Middlewares/lvgl/src/core/lv_obj_style.c **** }
 813              		.loc 1 270 12 view .LVU241
 814 003e 0020     		movs	r0, #0
 815              	.LVL77:
 816              	.L56:
 271:Middlewares/lvgl/src/core/lv_obj_style.c **** 
 817              		.loc 1 271 1 view .LVU242
 818 0040 10BD     		pop	{r4, pc}
 819              		.cfi_endproc
 820              	.LFE161:
 822              		.section	.text.lv_obj_remove_local_style_prop,"ax",%progbits
 823              		.align	1
 824              		.global	lv_obj_remove_local_style_prop
 825              		.syntax unified
 826              		.thumb
ARM GAS  /tmp/ccoxlgn6.s 			page 33


 827              		.thumb_func
 828              		.fpu fpv5-d16
 830              	lv_obj_remove_local_style_prop:
 831              	.LVL78:
 832              	.LFB162:
 274:Middlewares/lvgl/src/core/lv_obj_style.c ****     LV_ASSERT_OBJ(obj, MY_CLASS);
 833              		.loc 1 274 1 is_stmt 1 view -0
 834              		.cfi_startproc
 835              		@ args = 0, pretend = 0, frame = 0
 836              		@ frame_needed = 0, uses_anonymous_args = 0
 274:Middlewares/lvgl/src/core/lv_obj_style.c ****     LV_ASSERT_OBJ(obj, MY_CLASS);
 837              		.loc 1 274 1 is_stmt 0 view .LVU244
 838 0000 10B5     		push	{r4, lr}
 839              	.LCFI7:
 840              		.cfi_def_cfa_offset 8
 841              		.cfi_offset 4, -8
 842              		.cfi_offset 14, -4
 275:Middlewares/lvgl/src/core/lv_obj_style.c **** 
 843              		.loc 1 275 5 is_stmt 1 view .LVU245
 275:Middlewares/lvgl/src/core/lv_obj_style.c **** 
 844              		.loc 1 275 5 view .LVU246
 275:Middlewares/lvgl/src/core/lv_obj_style.c **** 
 845              		.loc 1 275 5 view .LVU247
 277:Middlewares/lvgl/src/core/lv_obj_style.c ****     /*Find the style*/
 846              		.loc 1 277 5 view .LVU248
 279:Middlewares/lvgl/src/core/lv_obj_style.c ****         if(obj->styles[i].is_local &&
 847              		.loc 1 279 5 view .LVU249
 848              	.LVL79:
 279:Middlewares/lvgl/src/core/lv_obj_style.c ****         if(obj->styles[i].is_local &&
 849              		.loc 1 279 11 is_stmt 0 view .LVU250
 850 0002 4FF0000E 		mov	lr, #0
 279:Middlewares/lvgl/src/core/lv_obj_style.c ****         if(obj->styles[i].is_local &&
 851              		.loc 1 279 5 view .LVU251
 852 0006 01E0     		b	.L61
 853              	.LVL80:
 854              	.L62:
 279:Middlewares/lvgl/src/core/lv_obj_style.c ****         if(obj->styles[i].is_local &&
 855              		.loc 1 279 36 is_stmt 1 discriminator 2 view .LVU252
 279:Middlewares/lvgl/src/core/lv_obj_style.c ****         if(obj->styles[i].is_local &&
 856              		.loc 1 279 37 is_stmt 0 discriminator 2 view .LVU253
 857 0008 0EF1010E 		add	lr, lr, #1
 858              	.LVL81:
 859              	.L61:
 279:Middlewares/lvgl/src/core/lv_obj_style.c ****         if(obj->styles[i].is_local &&
 860              		.loc 1 279 16 is_stmt 1 discriminator 1 view .LVU254
 279:Middlewares/lvgl/src/core/lv_obj_style.c ****         if(obj->styles[i].is_local &&
 861              		.loc 1 279 23 is_stmt 0 discriminator 1 view .LVU255
 862 000c B0F822C0 		ldrh	ip, [r0, #34]
 863 0010 CCF3C50C 		ubfx	ip, ip, #3, #6
 279:Middlewares/lvgl/src/core/lv_obj_style.c ****         if(obj->styles[i].is_local &&
 864              		.loc 1 279 5 discriminator 1 view .LVU256
 865 0014 F445     		cmp	ip, lr
 866 0016 0BD9     		bls	.L63
 280:Middlewares/lvgl/src/core/lv_obj_style.c ****            obj->styles[i].selector == selector) {
 867              		.loc 1 280 9 is_stmt 1 view .LVU257
 280:Middlewares/lvgl/src/core/lv_obj_style.c ****            obj->styles[i].selector == selector) {
 868              		.loc 1 280 15 is_stmt 0 view .LVU258
ARM GAS  /tmp/ccoxlgn6.s 			page 34


 869 0018 C368     		ldr	r3, [r0, #12]
 280:Middlewares/lvgl/src/core/lv_obj_style.c ****            obj->styles[i].selector == selector) {
 870              		.loc 1 280 23 view .LVU259
 871 001a 03EBCE03 		add	r3, r3, lr, lsl #3
 280:Middlewares/lvgl/src/core/lv_obj_style.c ****            obj->styles[i].selector == selector) {
 872              		.loc 1 280 12 view .LVU260
 873 001e DC79     		ldrb	r4, [r3, #7]	@ zero_extendqisi2
 280:Middlewares/lvgl/src/core/lv_obj_style.c ****            obj->styles[i].selector == selector) {
 874              		.loc 1 280 11 view .LVU261
 875 0020 14F0010F 		tst	r4, #1
 876 0024 F0D0     		beq	.L62
 281:Middlewares/lvgl/src/core/lv_obj_style.c ****             break;
 877              		.loc 1 281 26 discriminator 1 view .LVU262
 878 0026 5B68     		ldr	r3, [r3, #4]
 879 0028 C3F31703 		ubfx	r3, r3, #0, #24
 280:Middlewares/lvgl/src/core/lv_obj_style.c ****            obj->styles[i].selector == selector) {
 880              		.loc 1 280 36 discriminator 1 view .LVU263
 881 002c 9342     		cmp	r3, r2
 882 002e EBD1     		bne	.L62
 883              	.L63:
 287:Middlewares/lvgl/src/core/lv_obj_style.c **** 
 884              		.loc 1 287 5 is_stmt 1 view .LVU264
 287:Middlewares/lvgl/src/core/lv_obj_style.c **** 
 885              		.loc 1 287 7 is_stmt 0 view .LVU265
 886 0030 F445     		cmp	ip, lr
 887 0032 05D0     		beq	.L66
 289:Middlewares/lvgl/src/core/lv_obj_style.c **** }
 888              		.loc 1 289 5 is_stmt 1 view .LVU266
 289:Middlewares/lvgl/src/core/lv_obj_style.c **** }
 889              		.loc 1 289 36 is_stmt 0 view .LVU267
 890 0034 C368     		ldr	r3, [r0, #12]
 289:Middlewares/lvgl/src/core/lv_obj_style.c **** }
 891              		.loc 1 289 12 view .LVU268
 892 0036 53F83E00 		ldr	r0, [r3, lr, lsl #3]
 893              	.LVL82:
 289:Middlewares/lvgl/src/core/lv_obj_style.c **** }
 894              		.loc 1 289 12 view .LVU269
 895 003a FFF7FEFF 		bl	lv_style_remove_prop
 896              	.LVL83:
 897              	.L65:
 290:Middlewares/lvgl/src/core/lv_obj_style.c **** 
 898              		.loc 1 290 1 view .LVU270
 899 003e 10BD     		pop	{r4, pc}
 900              	.LVL84:
 901              	.L66:
 287:Middlewares/lvgl/src/core/lv_obj_style.c **** 
 902              		.loc 1 287 36 view .LVU271
 903 0040 0020     		movs	r0, #0
 904              	.LVL85:
 287:Middlewares/lvgl/src/core/lv_obj_style.c **** 
 905              		.loc 1 287 36 view .LVU272
 906 0042 FCE7     		b	.L65
 907              		.cfi_endproc
 908              	.LFE162:
 910              		.section	.text.fade_in_anim_ready,"ax",%progbits
 911              		.align	1
 912              		.syntax unified
ARM GAS  /tmp/ccoxlgn6.s 			page 35


 913              		.thumb
 914              		.thumb_func
 915              		.fpu fpv5-d16
 917              	fade_in_anim_ready:
 918              	.LVL86:
 919              	.LFB180:
 807:Middlewares/lvgl/src/core/lv_obj_style.c **** 
 808:Middlewares/lvgl/src/core/lv_obj_style.c **** static void fade_in_anim_ready(lv_anim_t * a)
 809:Middlewares/lvgl/src/core/lv_obj_style.c **** {
 920              		.loc 1 809 1 is_stmt 1 view -0
 921              		.cfi_startproc
 922              		@ args = 0, pretend = 0, frame = 0
 923              		@ frame_needed = 0, uses_anonymous_args = 0
 924              		.loc 1 809 1 is_stmt 0 view .LVU274
 925 0000 08B5     		push	{r3, lr}
 926              	.LCFI8:
 927              		.cfi_def_cfa_offset 8
 928              		.cfi_offset 3, -8
 929              		.cfi_offset 14, -4
 810:Middlewares/lvgl/src/core/lv_obj_style.c ****     lv_obj_remove_local_style_prop(a->var, LV_STYLE_OPA, 0);
 930              		.loc 1 810 5 is_stmt 1 view .LVU275
 931 0002 0022     		movs	r2, #0
 932 0004 40F26241 		movw	r1, #1122
 933 0008 0068     		ldr	r0, [r0]
 934              	.LVL87:
 935              		.loc 1 810 5 is_stmt 0 view .LVU276
 936 000a FFF7FEFF 		bl	lv_obj_remove_local_style_prop
 937              	.LVL88:
 811:Middlewares/lvgl/src/core/lv_obj_style.c **** }
 938              		.loc 1 811 1 view .LVU277
 939 000e 08BD     		pop	{r3, pc}
 940              		.cfi_endproc
 941              	.LFE180:
 943              		.section	.text.lv_obj_fade_in,"ax",%progbits
 944              		.align	1
 945              		.global	lv_obj_fade_in
 946              		.syntax unified
 947              		.thumb
 948              		.thumb_func
 949              		.fpu fpv5-d16
 951              	lv_obj_fade_in:
 952              	.LVL89:
 953              	.LFB165:
 418:Middlewares/lvgl/src/core/lv_obj_style.c ****     lv_anim_t a;
 954              		.loc 1 418 1 is_stmt 1 view -0
 955              		.cfi_startproc
 956              		@ args = 0, pretend = 0, frame = 72
 957              		@ frame_needed = 0, uses_anonymous_args = 0
 418:Middlewares/lvgl/src/core/lv_obj_style.c ****     lv_anim_t a;
 958              		.loc 1 418 1 is_stmt 0 view .LVU279
 959 0000 70B5     		push	{r4, r5, r6, lr}
 960              	.LCFI9:
 961              		.cfi_def_cfa_offset 16
 962              		.cfi_offset 4, -16
 963              		.cfi_offset 5, -12
 964              		.cfi_offset 6, -8
 965              		.cfi_offset 14, -4
ARM GAS  /tmp/ccoxlgn6.s 			page 36


 966 0002 92B0     		sub	sp, sp, #72
 967              	.LCFI10:
 968              		.cfi_def_cfa_offset 88
 969 0004 0646     		mov	r6, r0
 970 0006 0D46     		mov	r5, r1
 971 0008 1446     		mov	r4, r2
 419:Middlewares/lvgl/src/core/lv_obj_style.c ****     lv_anim_init(&a);
 972              		.loc 1 419 5 is_stmt 1 view .LVU280
 420:Middlewares/lvgl/src/core/lv_obj_style.c ****     lv_anim_set_var(&a, obj);
 973              		.loc 1 420 5 view .LVU281
 974 000a 01A8     		add	r0, sp, #4
 975              	.LVL90:
 420:Middlewares/lvgl/src/core/lv_obj_style.c ****     lv_anim_set_var(&a, obj);
 976              		.loc 1 420 5 is_stmt 0 view .LVU282
 977 000c FFF7FEFF 		bl	lv_anim_init
 978              	.LVL91:
 421:Middlewares/lvgl/src/core/lv_obj_style.c ****     lv_anim_set_values(&a, LV_OPA_TRANSP, LV_OPA_COVER);
 979              		.loc 1 421 5 is_stmt 1 view .LVU283
 980              	.LBB51:
 981              	.LBI51:
 982              		.file 2 "Middlewares/lvgl/src/core/../misc/lv_anim.h"
   1:Middlewares/lvgl/src/core/../misc/lv_anim.h **** /**
   2:Middlewares/lvgl/src/core/../misc/lv_anim.h ****  * @file lv_anim.h
   3:Middlewares/lvgl/src/core/../misc/lv_anim.h ****  *
   4:Middlewares/lvgl/src/core/../misc/lv_anim.h ****  */
   5:Middlewares/lvgl/src/core/../misc/lv_anim.h **** 
   6:Middlewares/lvgl/src/core/../misc/lv_anim.h **** #ifndef LV_ANIM_H
   7:Middlewares/lvgl/src/core/../misc/lv_anim.h **** #define LV_ANIM_H
   8:Middlewares/lvgl/src/core/../misc/lv_anim.h **** 
   9:Middlewares/lvgl/src/core/../misc/lv_anim.h **** #ifdef __cplusplus
  10:Middlewares/lvgl/src/core/../misc/lv_anim.h **** extern "C" {
  11:Middlewares/lvgl/src/core/../misc/lv_anim.h **** #endif
  12:Middlewares/lvgl/src/core/../misc/lv_anim.h **** 
  13:Middlewares/lvgl/src/core/../misc/lv_anim.h **** /*********************
  14:Middlewares/lvgl/src/core/../misc/lv_anim.h ****  *      INCLUDES
  15:Middlewares/lvgl/src/core/../misc/lv_anim.h ****  *********************/
  16:Middlewares/lvgl/src/core/../misc/lv_anim.h **** #include "../lv_conf_internal.h"
  17:Middlewares/lvgl/src/core/../misc/lv_anim.h **** 
  18:Middlewares/lvgl/src/core/../misc/lv_anim.h **** #include <stdint.h>
  19:Middlewares/lvgl/src/core/../misc/lv_anim.h **** #include <stdbool.h>
  20:Middlewares/lvgl/src/core/../misc/lv_anim.h **** #include <string.h>
  21:Middlewares/lvgl/src/core/../misc/lv_anim.h **** 
  22:Middlewares/lvgl/src/core/../misc/lv_anim.h **** /*********************
  23:Middlewares/lvgl/src/core/../misc/lv_anim.h ****  *      DEFINES
  24:Middlewares/lvgl/src/core/../misc/lv_anim.h ****  *********************/
  25:Middlewares/lvgl/src/core/../misc/lv_anim.h **** 
  26:Middlewares/lvgl/src/core/../misc/lv_anim.h **** /**********************
  27:Middlewares/lvgl/src/core/../misc/lv_anim.h ****  *      TYPEDEFS
  28:Middlewares/lvgl/src/core/../misc/lv_anim.h ****  **********************/
  29:Middlewares/lvgl/src/core/../misc/lv_anim.h **** 
  30:Middlewares/lvgl/src/core/../misc/lv_anim.h **** /** Can be used to indicate if animations are enabled or disabled in a case*/
  31:Middlewares/lvgl/src/core/../misc/lv_anim.h **** typedef enum {
  32:Middlewares/lvgl/src/core/../misc/lv_anim.h ****     LV_ANIM_OFF,
  33:Middlewares/lvgl/src/core/../misc/lv_anim.h ****     LV_ANIM_ON,
  34:Middlewares/lvgl/src/core/../misc/lv_anim.h **** }lv_anim_enable_t;
  35:Middlewares/lvgl/src/core/../misc/lv_anim.h **** 
  36:Middlewares/lvgl/src/core/../misc/lv_anim.h **** #define LV_ANIM_REPEAT_INFINITE      0xFFFF
ARM GAS  /tmp/ccoxlgn6.s 			page 37


  37:Middlewares/lvgl/src/core/../misc/lv_anim.h **** LV_EXPORT_CONST_INT(LV_ANIM_REPEAT_INFINITE);
  38:Middlewares/lvgl/src/core/../misc/lv_anim.h **** 
  39:Middlewares/lvgl/src/core/../misc/lv_anim.h **** struct _lv_anim_t;
  40:Middlewares/lvgl/src/core/../misc/lv_anim.h **** 
  41:Middlewares/lvgl/src/core/../misc/lv_anim.h **** /** Get the current value during an animation*/
  42:Middlewares/lvgl/src/core/../misc/lv_anim.h **** typedef int32_t (*lv_anim_path_cb_t)(const struct _lv_anim_t *);
  43:Middlewares/lvgl/src/core/../misc/lv_anim.h **** 
  44:Middlewares/lvgl/src/core/../misc/lv_anim.h **** /** Generic prototype of "animator" functions.
  45:Middlewares/lvgl/src/core/../misc/lv_anim.h ****  * First parameter is the variable to animate.
  46:Middlewares/lvgl/src/core/../misc/lv_anim.h ****  * Second parameter is the value to set.
  47:Middlewares/lvgl/src/core/../misc/lv_anim.h ****  * Compatible with `lv_xxx_set_yyy(obj, value)` functions
  48:Middlewares/lvgl/src/core/../misc/lv_anim.h ****  * The `x` in `_xcb_t` means its not a fully generic prototype because
  49:Middlewares/lvgl/src/core/../misc/lv_anim.h ****  * it doesn't receive `lv_anim_t *` as its first argument*/
  50:Middlewares/lvgl/src/core/../misc/lv_anim.h **** typedef void (*lv_anim_exec_xcb_t)(void *, int32_t);
  51:Middlewares/lvgl/src/core/../misc/lv_anim.h **** 
  52:Middlewares/lvgl/src/core/../misc/lv_anim.h **** /** Same as `lv_anim_exec_xcb_t` but receives `lv_anim_t *` as the first parameter.
  53:Middlewares/lvgl/src/core/../misc/lv_anim.h ****  * It's more consistent but less convenient. Might be used by binding generator functions.*/
  54:Middlewares/lvgl/src/core/../misc/lv_anim.h **** typedef void (*lv_anim_custom_exec_cb_t)(struct _lv_anim_t *, int32_t);
  55:Middlewares/lvgl/src/core/../misc/lv_anim.h **** 
  56:Middlewares/lvgl/src/core/../misc/lv_anim.h **** /** Callback to call when the animation is ready*/
  57:Middlewares/lvgl/src/core/../misc/lv_anim.h **** typedef void (*lv_anim_ready_cb_t)(struct _lv_anim_t *);
  58:Middlewares/lvgl/src/core/../misc/lv_anim.h **** 
  59:Middlewares/lvgl/src/core/../misc/lv_anim.h **** /** Callback to call when the animation really stars (considering `delay`)*/
  60:Middlewares/lvgl/src/core/../misc/lv_anim.h **** typedef void (*lv_anim_start_cb_t)(struct _lv_anim_t *);
  61:Middlewares/lvgl/src/core/../misc/lv_anim.h **** 
  62:Middlewares/lvgl/src/core/../misc/lv_anim.h **** /** Callback used when the animation values are relative to get the current value*/
  63:Middlewares/lvgl/src/core/../misc/lv_anim.h **** typedef int32_t (*lv_anim_get_value_cb_t)(struct _lv_anim_t *);
  64:Middlewares/lvgl/src/core/../misc/lv_anim.h **** 
  65:Middlewares/lvgl/src/core/../misc/lv_anim.h **** /** Describes an animation*/
  66:Middlewares/lvgl/src/core/../misc/lv_anim.h **** typedef struct _lv_anim_t {
  67:Middlewares/lvgl/src/core/../misc/lv_anim.h ****     void * var;                          /**<Variable to animate*/
  68:Middlewares/lvgl/src/core/../misc/lv_anim.h ****     lv_anim_exec_xcb_t exec_cb;          /**< Function to execute to animate*/
  69:Middlewares/lvgl/src/core/../misc/lv_anim.h ****     lv_anim_start_cb_t start_cb;         /**< Call it when the animation is starts (considering `de
  70:Middlewares/lvgl/src/core/../misc/lv_anim.h ****     lv_anim_ready_cb_t ready_cb;         /**< Call it when the animation is ready*/
  71:Middlewares/lvgl/src/core/../misc/lv_anim.h ****     lv_anim_get_value_cb_t get_value_cb; /**< Get the current value in relative mode*/
  72:Middlewares/lvgl/src/core/../misc/lv_anim.h **** #if LV_USE_USER_DATA
  73:Middlewares/lvgl/src/core/../misc/lv_anim.h ****     void * user_data; /**< Custom user data*/
  74:Middlewares/lvgl/src/core/../misc/lv_anim.h **** #endif
  75:Middlewares/lvgl/src/core/../misc/lv_anim.h ****     lv_anim_path_cb_t path_cb;         /**< Describe the path (curve) of animations*/
  76:Middlewares/lvgl/src/core/../misc/lv_anim.h ****     int32_t start_value;               /**< Start value*/
  77:Middlewares/lvgl/src/core/../misc/lv_anim.h ****     int32_t current_value;             /**< Current value*/
  78:Middlewares/lvgl/src/core/../misc/lv_anim.h ****     int32_t end_value;                 /**< End value*/
  79:Middlewares/lvgl/src/core/../misc/lv_anim.h ****     int32_t time;                /**< Animation time in ms*/
  80:Middlewares/lvgl/src/core/../misc/lv_anim.h ****     int32_t act_time;            /**< Current time in animation. Set to negative to make delay.*/
  81:Middlewares/lvgl/src/core/../misc/lv_anim.h ****     uint32_t playback_delay;     /**< Wait before play back*/
  82:Middlewares/lvgl/src/core/../misc/lv_anim.h ****     uint32_t playback_time;      /**< Duration of playback animation*/
  83:Middlewares/lvgl/src/core/../misc/lv_anim.h ****     uint32_t repeat_delay;       /**< Wait before repeat*/
  84:Middlewares/lvgl/src/core/../misc/lv_anim.h ****     uint16_t repeat_cnt;         /**< Repeat count for the animation*/
  85:Middlewares/lvgl/src/core/../misc/lv_anim.h ****     uint8_t early_apply  : 1;    /**< 1: Apply start value immediately even is there is `delay`*/
  86:Middlewares/lvgl/src/core/../misc/lv_anim.h **** 
  87:Middlewares/lvgl/src/core/../misc/lv_anim.h ****     /*Animation system use these - user shouldn't set*/
  88:Middlewares/lvgl/src/core/../misc/lv_anim.h ****     uint8_t playback_now : 1; /**< Play back is in progress*/
  89:Middlewares/lvgl/src/core/../misc/lv_anim.h ****     uint8_t run_round : 1;    /**< Indicates the animation has run in this round*/
  90:Middlewares/lvgl/src/core/../misc/lv_anim.h ****     uint8_t start_cb_called : 1;    /**< Indicates that the `start_cb` was already called*/
  91:Middlewares/lvgl/src/core/../misc/lv_anim.h ****     uint32_t time_orig;
  92:Middlewares/lvgl/src/core/../misc/lv_anim.h **** } lv_anim_t;
  93:Middlewares/lvgl/src/core/../misc/lv_anim.h **** 
ARM GAS  /tmp/ccoxlgn6.s 			page 38


  94:Middlewares/lvgl/src/core/../misc/lv_anim.h **** /**********************
  95:Middlewares/lvgl/src/core/../misc/lv_anim.h ****  * GLOBAL PROTOTYPES
  96:Middlewares/lvgl/src/core/../misc/lv_anim.h ****  **********************/
  97:Middlewares/lvgl/src/core/../misc/lv_anim.h **** 
  98:Middlewares/lvgl/src/core/../misc/lv_anim.h **** /**
  99:Middlewares/lvgl/src/core/../misc/lv_anim.h ****  * Init. the animation module
 100:Middlewares/lvgl/src/core/../misc/lv_anim.h ****  */
 101:Middlewares/lvgl/src/core/../misc/lv_anim.h **** void _lv_anim_core_init(void);
 102:Middlewares/lvgl/src/core/../misc/lv_anim.h **** 
 103:Middlewares/lvgl/src/core/../misc/lv_anim.h **** /**
 104:Middlewares/lvgl/src/core/../misc/lv_anim.h ****  * Initialize an animation variable.
 105:Middlewares/lvgl/src/core/../misc/lv_anim.h ****  * E.g.:
 106:Middlewares/lvgl/src/core/../misc/lv_anim.h ****  * lv_anim_t a;
 107:Middlewares/lvgl/src/core/../misc/lv_anim.h ****  * lv_anim_init(&a);
 108:Middlewares/lvgl/src/core/../misc/lv_anim.h ****  * lv_anim_set_...(&a);
 109:Middlewares/lvgl/src/core/../misc/lv_anim.h ****  * lv_anim_start(&a);
 110:Middlewares/lvgl/src/core/../misc/lv_anim.h ****  * @param a     pointer to an `lv_anim_t` variable to initialize
 111:Middlewares/lvgl/src/core/../misc/lv_anim.h ****  */
 112:Middlewares/lvgl/src/core/../misc/lv_anim.h **** void lv_anim_init(lv_anim_t * a);
 113:Middlewares/lvgl/src/core/../misc/lv_anim.h **** 
 114:Middlewares/lvgl/src/core/../misc/lv_anim.h **** /**
 115:Middlewares/lvgl/src/core/../misc/lv_anim.h ****  * Set a variable to animate
 116:Middlewares/lvgl/src/core/../misc/lv_anim.h ****  * @param a     pointer to an initialized `lv_anim_t` variable
 117:Middlewares/lvgl/src/core/../misc/lv_anim.h ****  * @param var   pointer to a variable to animate
 118:Middlewares/lvgl/src/core/../misc/lv_anim.h ****  */
 119:Middlewares/lvgl/src/core/../misc/lv_anim.h **** static inline void lv_anim_set_var(lv_anim_t * a, void * var)
 983              		.loc 2 119 20 view .LVU284
 984              	.LBB52:
 120:Middlewares/lvgl/src/core/../misc/lv_anim.h **** {
 121:Middlewares/lvgl/src/core/../misc/lv_anim.h ****     a->var = var;
 985              		.loc 2 121 5 view .LVU285
 986              		.loc 2 121 12 is_stmt 0 view .LVU286
 987 0010 0196     		str	r6, [sp, #4]
 988              	.LVL92:
 989              		.loc 2 121 12 view .LVU287
 990              	.LBE52:
 991              	.LBE51:
 422:Middlewares/lvgl/src/core/lv_obj_style.c ****     lv_anim_set_exec_cb(&a, fade_anim_cb);
 992              		.loc 1 422 5 is_stmt 1 view .LVU288
 993              	.LBB53:
 994              	.LBI53:
 122:Middlewares/lvgl/src/core/../misc/lv_anim.h **** }
 123:Middlewares/lvgl/src/core/../misc/lv_anim.h **** 
 124:Middlewares/lvgl/src/core/../misc/lv_anim.h **** /**
 125:Middlewares/lvgl/src/core/../misc/lv_anim.h ****  * Set a function to animate `var`
 126:Middlewares/lvgl/src/core/../misc/lv_anim.h ****  * @param a         pointer to an initialized `lv_anim_t` variable
 127:Middlewares/lvgl/src/core/../misc/lv_anim.h ****  * @param exec_cb   a function to execute during animation
 128:Middlewares/lvgl/src/core/../misc/lv_anim.h ****  *                  LVGL's built-in functions can be used.
 129:Middlewares/lvgl/src/core/../misc/lv_anim.h ****  *                  E.g. lv_obj_set_x
 130:Middlewares/lvgl/src/core/../misc/lv_anim.h ****  */
 131:Middlewares/lvgl/src/core/../misc/lv_anim.h **** static inline void lv_anim_set_exec_cb(lv_anim_t * a, lv_anim_exec_xcb_t exec_cb)
 132:Middlewares/lvgl/src/core/../misc/lv_anim.h **** {
 133:Middlewares/lvgl/src/core/../misc/lv_anim.h ****     a->exec_cb = exec_cb;
 134:Middlewares/lvgl/src/core/../misc/lv_anim.h **** }
 135:Middlewares/lvgl/src/core/../misc/lv_anim.h **** 
 136:Middlewares/lvgl/src/core/../misc/lv_anim.h **** /**
 137:Middlewares/lvgl/src/core/../misc/lv_anim.h ****  * Set the duration of an animation
ARM GAS  /tmp/ccoxlgn6.s 			page 39


 138:Middlewares/lvgl/src/core/../misc/lv_anim.h ****  * @param a         pointer to an initialized `lv_anim_t` variable
 139:Middlewares/lvgl/src/core/../misc/lv_anim.h ****  * @param duration  duration of the animation in milliseconds
 140:Middlewares/lvgl/src/core/../misc/lv_anim.h ****  */
 141:Middlewares/lvgl/src/core/../misc/lv_anim.h **** static inline void lv_anim_set_time(lv_anim_t * a, uint32_t duration)
 142:Middlewares/lvgl/src/core/../misc/lv_anim.h **** {
 143:Middlewares/lvgl/src/core/../misc/lv_anim.h ****     a->time = duration;
 144:Middlewares/lvgl/src/core/../misc/lv_anim.h **** }
 145:Middlewares/lvgl/src/core/../misc/lv_anim.h **** 
 146:Middlewares/lvgl/src/core/../misc/lv_anim.h **** /**
 147:Middlewares/lvgl/src/core/../misc/lv_anim.h ****  * Set a delay before starting the animation
 148:Middlewares/lvgl/src/core/../misc/lv_anim.h ****  * @param a         pointer to an initialized `lv_anim_t` variable
 149:Middlewares/lvgl/src/core/../misc/lv_anim.h ****  * @param delay     delay before the animation in milliseconds
 150:Middlewares/lvgl/src/core/../misc/lv_anim.h ****  */
 151:Middlewares/lvgl/src/core/../misc/lv_anim.h **** static inline void lv_anim_set_delay(lv_anim_t * a, uint32_t delay)
 152:Middlewares/lvgl/src/core/../misc/lv_anim.h **** {
 153:Middlewares/lvgl/src/core/../misc/lv_anim.h ****     a->act_time = -(int32_t)(delay);
 154:Middlewares/lvgl/src/core/../misc/lv_anim.h **** }
 155:Middlewares/lvgl/src/core/../misc/lv_anim.h **** 
 156:Middlewares/lvgl/src/core/../misc/lv_anim.h **** /**
 157:Middlewares/lvgl/src/core/../misc/lv_anim.h ****  * Set the start and end values of an animation
 158:Middlewares/lvgl/src/core/../misc/lv_anim.h ****  * @param a         pointer to an initialized `lv_anim_t` variable
 159:Middlewares/lvgl/src/core/../misc/lv_anim.h ****  * @param start     the start value
 160:Middlewares/lvgl/src/core/../misc/lv_anim.h ****  * @param end       the end value
 161:Middlewares/lvgl/src/core/../misc/lv_anim.h ****  */
 162:Middlewares/lvgl/src/core/../misc/lv_anim.h **** static inline void lv_anim_set_values(lv_anim_t * a, int32_t start, int32_t end)
 995              		.loc 2 162 20 view .LVU289
 996              	.LBB54:
 163:Middlewares/lvgl/src/core/../misc/lv_anim.h **** {
 164:Middlewares/lvgl/src/core/../misc/lv_anim.h ****     a->start_value = start;
 997              		.loc 2 164 5 view .LVU290
 998              		.loc 2 164 20 is_stmt 0 view .LVU291
 999 0012 0023     		movs	r3, #0
 1000 0014 0893     		str	r3, [sp, #32]
 165:Middlewares/lvgl/src/core/../misc/lv_anim.h ****     a->current_value = start;
 1001              		.loc 2 165 5 is_stmt 1 view .LVU292
 1002              		.loc 2 165 22 is_stmt 0 view .LVU293
 1003 0016 0993     		str	r3, [sp, #36]
 166:Middlewares/lvgl/src/core/../misc/lv_anim.h ****     a->end_value = end;
 1004              		.loc 2 166 5 is_stmt 1 view .LVU294
 1005              		.loc 2 166 18 is_stmt 0 view .LVU295
 1006 0018 FF23     		movs	r3, #255
 1007 001a 0A93     		str	r3, [sp, #40]
 1008              	.LVL93:
 1009              		.loc 2 166 18 view .LVU296
 1010              	.LBE54:
 1011              	.LBE53:
 423:Middlewares/lvgl/src/core/lv_obj_style.c ****     lv_anim_set_ready_cb(&a, fade_in_anim_ready);
 1012              		.loc 1 423 5 is_stmt 1 view .LVU297
 1013              	.LBB55:
 1014              	.LBI55:
 131:Middlewares/lvgl/src/core/../misc/lv_anim.h **** {
 1015              		.loc 2 131 20 view .LVU298
 1016              	.LBB56:
 133:Middlewares/lvgl/src/core/../misc/lv_anim.h **** }
 1017              		.loc 2 133 5 view .LVU299
 133:Middlewares/lvgl/src/core/../misc/lv_anim.h **** }
 1018              		.loc 2 133 16 is_stmt 0 view .LVU300
ARM GAS  /tmp/ccoxlgn6.s 			page 40


 1019 001c 054B     		ldr	r3, .L72
 1020 001e 0293     		str	r3, [sp, #8]
 1021              	.LVL94:
 133:Middlewares/lvgl/src/core/../misc/lv_anim.h **** }
 1022              		.loc 2 133 16 view .LVU301
 1023              	.LBE56:
 1024              	.LBE55:
 424:Middlewares/lvgl/src/core/lv_obj_style.c ****     lv_anim_set_time(&a, time);
 1025              		.loc 1 424 5 is_stmt 1 view .LVU302
 1026              	.LBB57:
 1027              	.LBI57:
 167:Middlewares/lvgl/src/core/../misc/lv_anim.h **** }
 168:Middlewares/lvgl/src/core/../misc/lv_anim.h **** 
 169:Middlewares/lvgl/src/core/../misc/lv_anim.h **** /**
 170:Middlewares/lvgl/src/core/../misc/lv_anim.h ****  * Similar to `lv_anim_set_exec_cb` but `lv_anim_custom_exec_cb_t` receives
 171:Middlewares/lvgl/src/core/../misc/lv_anim.h ****  * `lv_anim_t * ` as its first parameter instead of `void *`.
 172:Middlewares/lvgl/src/core/../misc/lv_anim.h ****  * This function might be used when LVGL is binded to other languages because
 173:Middlewares/lvgl/src/core/../misc/lv_anim.h ****  * it's more consistent to have `lv_anim_t *` as first parameter.
 174:Middlewares/lvgl/src/core/../misc/lv_anim.h ****  * The variable to animate can be stored in the animation's `user_sata`
 175:Middlewares/lvgl/src/core/../misc/lv_anim.h ****  * @param a         pointer to an initialized `lv_anim_t` variable
 176:Middlewares/lvgl/src/core/../misc/lv_anim.h ****  * @param exec_cb   a function to execute.
 177:Middlewares/lvgl/src/core/../misc/lv_anim.h ****  */
 178:Middlewares/lvgl/src/core/../misc/lv_anim.h **** static inline void lv_anim_set_custom_exec_cb(lv_anim_t * a, lv_anim_custom_exec_cb_t exec_cb)
 179:Middlewares/lvgl/src/core/../misc/lv_anim.h **** {
 180:Middlewares/lvgl/src/core/../misc/lv_anim.h ****     a->var     = a;
 181:Middlewares/lvgl/src/core/../misc/lv_anim.h ****     a->exec_cb = (lv_anim_exec_xcb_t)exec_cb;
 182:Middlewares/lvgl/src/core/../misc/lv_anim.h **** }
 183:Middlewares/lvgl/src/core/../misc/lv_anim.h **** 
 184:Middlewares/lvgl/src/core/../misc/lv_anim.h **** /**
 185:Middlewares/lvgl/src/core/../misc/lv_anim.h ****  * Set the path (curve) of the animation.
 186:Middlewares/lvgl/src/core/../misc/lv_anim.h ****  * @param a         pointer to an initialized `lv_anim_t` variable
 187:Middlewares/lvgl/src/core/../misc/lv_anim.h ****  * @param path_cb a function the get the current value of the animation.
 188:Middlewares/lvgl/src/core/../misc/lv_anim.h ****  */
 189:Middlewares/lvgl/src/core/../misc/lv_anim.h **** static inline void lv_anim_set_path_cb(lv_anim_t * a, lv_anim_path_cb_t path_cb)
 190:Middlewares/lvgl/src/core/../misc/lv_anim.h **** {
 191:Middlewares/lvgl/src/core/../misc/lv_anim.h ****     a->path_cb = path_cb;
 192:Middlewares/lvgl/src/core/../misc/lv_anim.h **** }
 193:Middlewares/lvgl/src/core/../misc/lv_anim.h **** 
 194:Middlewares/lvgl/src/core/../misc/lv_anim.h **** /**
 195:Middlewares/lvgl/src/core/../misc/lv_anim.h ****  * Set a function call when the animation really starts (considering `delay`)
 196:Middlewares/lvgl/src/core/../misc/lv_anim.h ****  * @param a         pointer to an initialized `lv_anim_t` variable
 197:Middlewares/lvgl/src/core/../misc/lv_anim.h ****  * @param start_cb  a function call when the animation starts
 198:Middlewares/lvgl/src/core/../misc/lv_anim.h ****  */
 199:Middlewares/lvgl/src/core/../misc/lv_anim.h **** static inline void lv_anim_set_start_cb(lv_anim_t * a, lv_anim_ready_cb_t start_cb)
 200:Middlewares/lvgl/src/core/../misc/lv_anim.h **** {
 201:Middlewares/lvgl/src/core/../misc/lv_anim.h ****     a->start_cb = start_cb;
 202:Middlewares/lvgl/src/core/../misc/lv_anim.h **** }
 203:Middlewares/lvgl/src/core/../misc/lv_anim.h **** 
 204:Middlewares/lvgl/src/core/../misc/lv_anim.h **** /**
 205:Middlewares/lvgl/src/core/../misc/lv_anim.h ****  * Set a function to use the current value of the variable and make start and end value
 206:Middlewares/lvgl/src/core/../misc/lv_anim.h ****  * relative the the returned current value.
 207:Middlewares/lvgl/src/core/../misc/lv_anim.h ****  * @param a             pointer to an initialized `lv_anim_t` variable
 208:Middlewares/lvgl/src/core/../misc/lv_anim.h ****  * @param get_value_cb  a function call when the animation starts
 209:Middlewares/lvgl/src/core/../misc/lv_anim.h ****  */
 210:Middlewares/lvgl/src/core/../misc/lv_anim.h **** static inline void lv_anim_set_get_value_cb(lv_anim_t * a, lv_anim_get_value_cb_t get_value_cb)
 211:Middlewares/lvgl/src/core/../misc/lv_anim.h **** {
 212:Middlewares/lvgl/src/core/../misc/lv_anim.h ****     a->get_value_cb = get_value_cb;
ARM GAS  /tmp/ccoxlgn6.s 			page 41


 213:Middlewares/lvgl/src/core/../misc/lv_anim.h **** }
 214:Middlewares/lvgl/src/core/../misc/lv_anim.h **** 
 215:Middlewares/lvgl/src/core/../misc/lv_anim.h **** /**
 216:Middlewares/lvgl/src/core/../misc/lv_anim.h ****  * Set a function call when the animation is ready
 217:Middlewares/lvgl/src/core/../misc/lv_anim.h ****  * @param a         pointer to an initialized `lv_anim_t` variable
 218:Middlewares/lvgl/src/core/../misc/lv_anim.h ****  * @param ready_cb  a function call when the animation is ready
 219:Middlewares/lvgl/src/core/../misc/lv_anim.h ****  */
 220:Middlewares/lvgl/src/core/../misc/lv_anim.h **** static inline void lv_anim_set_ready_cb(lv_anim_t * a, lv_anim_ready_cb_t ready_cb)
 1028              		.loc 2 220 20 view .LVU303
 1029              	.LBB58:
 221:Middlewares/lvgl/src/core/../misc/lv_anim.h **** {
 222:Middlewares/lvgl/src/core/../misc/lv_anim.h ****     a->ready_cb = ready_cb;
 1030              		.loc 2 222 5 view .LVU304
 1031              		.loc 2 222 17 is_stmt 0 view .LVU305
 1032 0020 054B     		ldr	r3, .L72+4
 1033 0022 0493     		str	r3, [sp, #16]
 1034              	.LVL95:
 1035              		.loc 2 222 17 view .LVU306
 1036              	.LBE58:
 1037              	.LBE57:
 425:Middlewares/lvgl/src/core/lv_obj_style.c ****     lv_anim_set_delay(&a, delay);
 1038              		.loc 1 425 5 is_stmt 1 view .LVU307
 1039              	.LBB59:
 1040              	.LBI59:
 141:Middlewares/lvgl/src/core/../misc/lv_anim.h **** {
 1041              		.loc 2 141 20 view .LVU308
 1042              	.LBB60:
 143:Middlewares/lvgl/src/core/../misc/lv_anim.h **** }
 1043              		.loc 2 143 5 view .LVU309
 143:Middlewares/lvgl/src/core/../misc/lv_anim.h **** }
 1044              		.loc 2 143 13 is_stmt 0 view .LVU310
 1045 0024 0B95     		str	r5, [sp, #44]
 1046              	.LVL96:
 143:Middlewares/lvgl/src/core/../misc/lv_anim.h **** }
 1047              		.loc 2 143 13 view .LVU311
 1048              	.LBE60:
 1049              	.LBE59:
 426:Middlewares/lvgl/src/core/lv_obj_style.c ****     lv_anim_start(&a);
 1050              		.loc 1 426 5 is_stmt 1 view .LVU312
 1051              	.LBB61:
 1052              	.LBI61:
 151:Middlewares/lvgl/src/core/../misc/lv_anim.h **** {
 1053              		.loc 2 151 20 view .LVU313
 1054              	.LBB62:
 153:Middlewares/lvgl/src/core/../misc/lv_anim.h **** }
 1055              		.loc 2 153 5 view .LVU314
 153:Middlewares/lvgl/src/core/../misc/lv_anim.h **** }
 1056              		.loc 2 153 19 is_stmt 0 view .LVU315
 1057 0026 6442     		rsbs	r4, r4, #0
 1058              	.LVL97:
 153:Middlewares/lvgl/src/core/../misc/lv_anim.h **** }
 1059              		.loc 2 153 17 view .LVU316
 1060 0028 0C94     		str	r4, [sp, #48]
 1061              	.LVL98:
 153:Middlewares/lvgl/src/core/../misc/lv_anim.h **** }
 1062              		.loc 2 153 17 view .LVU317
 1063              	.LBE62:
ARM GAS  /tmp/ccoxlgn6.s 			page 42


 1064              	.LBE61:
 427:Middlewares/lvgl/src/core/lv_obj_style.c **** }
 1065              		.loc 1 427 5 is_stmt 1 view .LVU318
 1066 002a 01A8     		add	r0, sp, #4
 1067 002c FFF7FEFF 		bl	lv_anim_start
 1068              	.LVL99:
 428:Middlewares/lvgl/src/core/lv_obj_style.c **** 
 1069              		.loc 1 428 1 is_stmt 0 view .LVU319
 1070 0030 12B0     		add	sp, sp, #72
 1071              	.LCFI11:
 1072              		.cfi_def_cfa_offset 16
 1073              		@ sp needed
 1074 0032 70BD     		pop	{r4, r5, r6, pc}
 1075              	.LVL100:
 1076              	.L73:
 428:Middlewares/lvgl/src/core/lv_obj_style.c **** 
 1077              		.loc 1 428 1 view .LVU320
 1078              		.align	2
 1079              	.L72:
 1080 0034 00000000 		.word	fade_anim_cb
 1081 0038 00000000 		.word	fade_in_anim_ready
 1082              		.cfi_endproc
 1083              	.LFE165:
 1085              		.section	.text.lv_obj_fade_out,"ax",%progbits
 1086              		.align	1
 1087              		.global	lv_obj_fade_out
 1088              		.syntax unified
 1089              		.thumb
 1090              		.thumb_func
 1091              		.fpu fpv5-d16
 1093              	lv_obj_fade_out:
 1094              	.LVL101:
 1095              	.LFB166:
 431:Middlewares/lvgl/src/core/lv_obj_style.c ****     lv_anim_t a;
 1096              		.loc 1 431 1 is_stmt 1 view -0
 1097              		.cfi_startproc
 1098              		@ args = 0, pretend = 0, frame = 72
 1099              		@ frame_needed = 0, uses_anonymous_args = 0
 431:Middlewares/lvgl/src/core/lv_obj_style.c ****     lv_anim_t a;
 1100              		.loc 1 431 1 is_stmt 0 view .LVU322
 1101 0000 70B5     		push	{r4, r5, r6, lr}
 1102              	.LCFI12:
 1103              		.cfi_def_cfa_offset 16
 1104              		.cfi_offset 4, -16
 1105              		.cfi_offset 5, -12
 1106              		.cfi_offset 6, -8
 1107              		.cfi_offset 14, -4
 1108 0002 92B0     		sub	sp, sp, #72
 1109              	.LCFI13:
 1110              		.cfi_def_cfa_offset 88
 1111 0004 0646     		mov	r6, r0
 1112 0006 0D46     		mov	r5, r1
 1113 0008 1446     		mov	r4, r2
 432:Middlewares/lvgl/src/core/lv_obj_style.c ****     lv_anim_init(&a);
 1114              		.loc 1 432 5 is_stmt 1 view .LVU323
 433:Middlewares/lvgl/src/core/lv_obj_style.c ****     lv_anim_set_var(&a, obj);
 1115              		.loc 1 433 5 view .LVU324
ARM GAS  /tmp/ccoxlgn6.s 			page 43


 1116 000a 01A8     		add	r0, sp, #4
 1117              	.LVL102:
 433:Middlewares/lvgl/src/core/lv_obj_style.c ****     lv_anim_set_var(&a, obj);
 1118              		.loc 1 433 5 is_stmt 0 view .LVU325
 1119 000c FFF7FEFF 		bl	lv_anim_init
 1120              	.LVL103:
 434:Middlewares/lvgl/src/core/lv_obj_style.c ****     lv_anim_set_values(&a, LV_OPA_COVER, LV_OPA_TRANSP);
 1121              		.loc 1 434 5 is_stmt 1 view .LVU326
 1122              	.LBB63:
 1123              	.LBI63:
 119:Middlewares/lvgl/src/core/../misc/lv_anim.h **** {
 1124              		.loc 2 119 20 view .LVU327
 1125              	.LBB64:
 121:Middlewares/lvgl/src/core/../misc/lv_anim.h **** }
 1126              		.loc 2 121 5 view .LVU328
 121:Middlewares/lvgl/src/core/../misc/lv_anim.h **** }
 1127              		.loc 2 121 12 is_stmt 0 view .LVU329
 1128 0010 0196     		str	r6, [sp, #4]
 1129              	.LVL104:
 121:Middlewares/lvgl/src/core/../misc/lv_anim.h **** }
 1130              		.loc 2 121 12 view .LVU330
 1131              	.LBE64:
 1132              	.LBE63:
 435:Middlewares/lvgl/src/core/lv_obj_style.c ****     lv_anim_set_exec_cb(&a, fade_anim_cb);
 1133              		.loc 1 435 5 is_stmt 1 view .LVU331
 1134              	.LBB65:
 1135              	.LBI65:
 162:Middlewares/lvgl/src/core/../misc/lv_anim.h **** {
 1136              		.loc 2 162 20 view .LVU332
 1137              	.LBB66:
 164:Middlewares/lvgl/src/core/../misc/lv_anim.h ****     a->current_value = start;
 1138              		.loc 2 164 5 view .LVU333
 164:Middlewares/lvgl/src/core/../misc/lv_anim.h ****     a->current_value = start;
 1139              		.loc 2 164 20 is_stmt 0 view .LVU334
 1140 0012 FF23     		movs	r3, #255
 1141 0014 0893     		str	r3, [sp, #32]
 165:Middlewares/lvgl/src/core/../misc/lv_anim.h ****     a->end_value = end;
 1142              		.loc 2 165 5 is_stmt 1 view .LVU335
 165:Middlewares/lvgl/src/core/../misc/lv_anim.h ****     a->end_value = end;
 1143              		.loc 2 165 22 is_stmt 0 view .LVU336
 1144 0016 0993     		str	r3, [sp, #36]
 166:Middlewares/lvgl/src/core/../misc/lv_anim.h **** }
 1145              		.loc 2 166 5 is_stmt 1 view .LVU337
 166:Middlewares/lvgl/src/core/../misc/lv_anim.h **** }
 1146              		.loc 2 166 18 is_stmt 0 view .LVU338
 1147 0018 0023     		movs	r3, #0
 1148 001a 0A93     		str	r3, [sp, #40]
 1149              	.LVL105:
 166:Middlewares/lvgl/src/core/../misc/lv_anim.h **** }
 1150              		.loc 2 166 18 view .LVU339
 1151              	.LBE66:
 1152              	.LBE65:
 436:Middlewares/lvgl/src/core/lv_obj_style.c ****     lv_anim_set_time(&a, time);
 1153              		.loc 1 436 5 is_stmt 1 view .LVU340
 1154              	.LBB67:
 1155              	.LBI67:
 131:Middlewares/lvgl/src/core/../misc/lv_anim.h **** {
ARM GAS  /tmp/ccoxlgn6.s 			page 44


 1156              		.loc 2 131 20 view .LVU341
 1157              	.LBB68:
 133:Middlewares/lvgl/src/core/../misc/lv_anim.h **** }
 1158              		.loc 2 133 5 view .LVU342
 133:Middlewares/lvgl/src/core/../misc/lv_anim.h **** }
 1159              		.loc 2 133 16 is_stmt 0 view .LVU343
 1160 001c 044B     		ldr	r3, .L76
 1161 001e 0293     		str	r3, [sp, #8]
 1162              	.LVL106:
 133:Middlewares/lvgl/src/core/../misc/lv_anim.h **** }
 1163              		.loc 2 133 16 view .LVU344
 1164              	.LBE68:
 1165              	.LBE67:
 437:Middlewares/lvgl/src/core/lv_obj_style.c ****     lv_anim_set_delay(&a, delay);
 1166              		.loc 1 437 5 is_stmt 1 view .LVU345
 1167              	.LBB69:
 1168              	.LBI69:
 141:Middlewares/lvgl/src/core/../misc/lv_anim.h **** {
 1169              		.loc 2 141 20 view .LVU346
 1170              	.LBB70:
 143:Middlewares/lvgl/src/core/../misc/lv_anim.h **** }
 1171              		.loc 2 143 5 view .LVU347
 143:Middlewares/lvgl/src/core/../misc/lv_anim.h **** }
 1172              		.loc 2 143 13 is_stmt 0 view .LVU348
 1173 0020 0B95     		str	r5, [sp, #44]
 1174              	.LVL107:
 143:Middlewares/lvgl/src/core/../misc/lv_anim.h **** }
 1175              		.loc 2 143 13 view .LVU349
 1176              	.LBE70:
 1177              	.LBE69:
 438:Middlewares/lvgl/src/core/lv_obj_style.c ****     lv_anim_start(&a);
 1178              		.loc 1 438 5 is_stmt 1 view .LVU350
 1179              	.LBB71:
 1180              	.LBI71:
 151:Middlewares/lvgl/src/core/../misc/lv_anim.h **** {
 1181              		.loc 2 151 20 view .LVU351
 1182              	.LBB72:
 153:Middlewares/lvgl/src/core/../misc/lv_anim.h **** }
 1183              		.loc 2 153 5 view .LVU352
 153:Middlewares/lvgl/src/core/../misc/lv_anim.h **** }
 1184              		.loc 2 153 19 is_stmt 0 view .LVU353
 1185 0022 6442     		rsbs	r4, r4, #0
 1186              	.LVL108:
 153:Middlewares/lvgl/src/core/../misc/lv_anim.h **** }
 1187              		.loc 2 153 17 view .LVU354
 1188 0024 0C94     		str	r4, [sp, #48]
 1189              	.LVL109:
 153:Middlewares/lvgl/src/core/../misc/lv_anim.h **** }
 1190              		.loc 2 153 17 view .LVU355
 1191              	.LBE72:
 1192              	.LBE71:
 439:Middlewares/lvgl/src/core/lv_obj_style.c **** }
 1193              		.loc 1 439 5 is_stmt 1 view .LVU356
 1194 0026 01A8     		add	r0, sp, #4
 1195 0028 FFF7FEFF 		bl	lv_anim_start
 1196              	.LVL110:
 440:Middlewares/lvgl/src/core/lv_obj_style.c **** 
ARM GAS  /tmp/ccoxlgn6.s 			page 45


 1197              		.loc 1 440 1 is_stmt 0 view .LVU357
 1198 002c 12B0     		add	sp, sp, #72
 1199              	.LCFI14:
 1200              		.cfi_def_cfa_offset 16
 1201              		@ sp needed
 1202 002e 70BD     		pop	{r4, r5, r6, pc}
 1203              	.LVL111:
 1204              	.L77:
 440:Middlewares/lvgl/src/core/lv_obj_style.c **** 
 1205              		.loc 1 440 1 view .LVU358
 1206              		.align	2
 1207              	.L76:
 1208 0030 00000000 		.word	fade_anim_cb
 1209              		.cfi_endproc
 1210              	.LFE166:
 1212              		.section	.text.lv_obj_style_get_selector_state,"ax",%progbits
 1213              		.align	1
 1214              		.global	lv_obj_style_get_selector_state
 1215              		.syntax unified
 1216              		.thumb
 1217              		.thumb_func
 1218              		.fpu fpv5-d16
 1220              	lv_obj_style_get_selector_state:
 1221              	.LVL112:
 1222              	.LFB167:
 443:Middlewares/lvgl/src/core/lv_obj_style.c ****     return selector & 0xFFFF;
 1223              		.loc 1 443 1 is_stmt 1 view -0
 1224              		.cfi_startproc
 1225              		@ args = 0, pretend = 0, frame = 0
 1226              		@ frame_needed = 0, uses_anonymous_args = 0
 1227              		@ link register save eliminated.
 444:Middlewares/lvgl/src/core/lv_obj_style.c **** }
 1228              		.loc 1 444 5 view .LVU360
 445:Middlewares/lvgl/src/core/lv_obj_style.c **** 
 1229              		.loc 1 445 1 is_stmt 0 view .LVU361
 1230 0000 80B2     		uxth	r0, r0
 1231              	.LVL113:
 445:Middlewares/lvgl/src/core/lv_obj_style.c **** 
 1232              		.loc 1 445 1 view .LVU362
 1233 0002 7047     		bx	lr
 1234              		.cfi_endproc
 1235              	.LFE167:
 1237              		.section	.text.lv_obj_style_get_selector_part,"ax",%progbits
 1238              		.align	1
 1239              		.global	lv_obj_style_get_selector_part
 1240              		.syntax unified
 1241              		.thumb
 1242              		.thumb_func
 1243              		.fpu fpv5-d16
 1245              	lv_obj_style_get_selector_part:
 1246              	.LVL114:
 1247              	.LFB168:
 448:Middlewares/lvgl/src/core/lv_obj_style.c ****     return selector & 0xFF0000;
 1248              		.loc 1 448 1 is_stmt 1 view -0
 1249              		.cfi_startproc
 1250              		@ args = 0, pretend = 0, frame = 0
 1251              		@ frame_needed = 0, uses_anonymous_args = 0
ARM GAS  /tmp/ccoxlgn6.s 			page 46


 1252              		@ link register save eliminated.
 449:Middlewares/lvgl/src/core/lv_obj_style.c **** }
 1253              		.loc 1 449 5 view .LVU364
 450:Middlewares/lvgl/src/core/lv_obj_style.c **** 
 1254              		.loc 1 450 1 is_stmt 0 view .LVU365
 1255 0000 00F47F00 		and	r0, r0, #16711680
 1256              	.LVL115:
 450:Middlewares/lvgl/src/core/lv_obj_style.c **** 
 1257              		.loc 1 450 1 view .LVU366
 1258 0004 7047     		bx	lr
 1259              		.cfi_endproc
 1260              	.LFE168:
 1262              		.section	.text.lv_obj_refresh_style,"ax",%progbits
 1263              		.align	1
 1264              		.global	lv_obj_refresh_style
 1265              		.syntax unified
 1266              		.thumb
 1267              		.thumb_func
 1268              		.fpu fpv5-d16
 1270              	lv_obj_refresh_style:
 1271              	.LVL116:
 1272              	.LFB157:
 169:Middlewares/lvgl/src/core/lv_obj_style.c ****     LV_ASSERT_OBJ(obj, MY_CLASS);
 1273              		.loc 1 169 1 is_stmt 1 view -0
 1274              		.cfi_startproc
 1275              		@ args = 0, pretend = 0, frame = 0
 1276              		@ frame_needed = 0, uses_anonymous_args = 0
 169:Middlewares/lvgl/src/core/lv_obj_style.c ****     LV_ASSERT_OBJ(obj, MY_CLASS);
 1277              		.loc 1 169 1 is_stmt 0 view .LVU368
 1278 0000 F8B5     		push	{r3, r4, r5, r6, r7, lr}
 1279              	.LCFI15:
 1280              		.cfi_def_cfa_offset 24
 1281              		.cfi_offset 3, -24
 1282              		.cfi_offset 4, -20
 1283              		.cfi_offset 5, -16
 1284              		.cfi_offset 6, -12
 1285              		.cfi_offset 7, -8
 1286              		.cfi_offset 14, -4
 170:Middlewares/lvgl/src/core/lv_obj_style.c **** 
 1287              		.loc 1 170 5 is_stmt 1 view .LVU369
 170:Middlewares/lvgl/src/core/lv_obj_style.c **** 
 1288              		.loc 1 170 5 view .LVU370
 170:Middlewares/lvgl/src/core/lv_obj_style.c **** 
 1289              		.loc 1 170 5 view .LVU371
 172:Middlewares/lvgl/src/core/lv_obj_style.c **** 
 1290              		.loc 1 172 5 view .LVU372
 172:Middlewares/lvgl/src/core/lv_obj_style.c **** 
 1291              		.loc 1 172 8 is_stmt 0 view .LVU373
 1292 0002 284B     		ldr	r3, .L91
 1293 0004 1B78     		ldrb	r3, [r3]	@ zero_extendqisi2
 172:Middlewares/lvgl/src/core/lv_obj_style.c **** 
 1294              		.loc 1 172 7 view .LVU374
 1295 0006 03B9     		cbnz	r3, .L90
 1296              	.LVL117:
 1297              	.L80:
 199:Middlewares/lvgl/src/core/lv_obj_style.c **** 
 1298              		.loc 1 199 1 view .LVU375
ARM GAS  /tmp/ccoxlgn6.s 			page 47


 1299 0008 F8BD     		pop	{r3, r4, r5, r6, r7, pc}
 1300              	.LVL118:
 1301              	.L90:
 199:Middlewares/lvgl/src/core/lv_obj_style.c **** 
 1302              		.loc 1 199 1 view .LVU376
 1303 000a 0646     		mov	r6, r0
 1304 000c 0D46     		mov	r5, r1
 1305 000e 1446     		mov	r4, r2
 174:Middlewares/lvgl/src/core/lv_obj_style.c **** 
 1306              		.loc 1 174 5 is_stmt 1 view .LVU377
 1307 0010 FFF7FEFF 		bl	lv_obj_invalidate
 1308              	.LVL119:
 176:Middlewares/lvgl/src/core/lv_obj_style.c **** 
 1309              		.loc 1 176 5 view .LVU378
 176:Middlewares/lvgl/src/core/lv_obj_style.c **** 
 1310              		.loc 1 176 22 is_stmt 0 view .LVU379
 1311 0014 2846     		mov	r0, r5
 1312 0016 FFF7FEFF 		bl	lv_obj_style_get_selector_part
 1313              	.LVL120:
 1314 001a 0546     		mov	r5, r0
 1315              	.LVL121:
 178:Middlewares/lvgl/src/core/lv_obj_style.c ****         lv_event_send(obj, LV_EVENT_STYLE_CHANGED, NULL);
 1316              		.loc 1 178 5 is_stmt 1 view .LVU380
 178:Middlewares/lvgl/src/core/lv_obj_style.c ****         lv_event_send(obj, LV_EVENT_STYLE_CHANGED, NULL);
 1317              		.loc 1 178 7 is_stmt 0 view .LVU381
 1318 001c 0028     		cmp	r0, #0
 1319 001e 18BF     		it	ne
 1320 0020 B0F5702F 		cmpne	r0, #983040
 1321 0024 0CBF     		ite	eq
 1322 0026 0127     		moveq	r7, #1
 1323 0028 0027     		movne	r7, #0
 1324 002a 0ED1     		bne	.L82
 178:Middlewares/lvgl/src/core/lv_obj_style.c ****         lv_event_send(obj, LV_EVENT_STYLE_CHANGED, NULL);
 1325              		.loc 1 178 54 discriminator 1 view .LVU382
 1326 002c 4FF6FF73 		movw	r3, #65535
 1327 0030 9C42     		cmp	r4, r3
 1328 0032 02D0     		beq	.L83
 178:Middlewares/lvgl/src/core/lv_obj_style.c ****         lv_event_send(obj, LV_EVENT_STYLE_CHANGED, NULL);
 1329              		.loc 1 178 84 discriminator 2 view .LVU383
 1330 0034 14F4805F 		tst	r4, #4096
 1331 0038 07D0     		beq	.L82
 1332              	.L83:
 179:Middlewares/lvgl/src/core/lv_obj_style.c ****         lv_obj_mark_layout_as_dirty(obj);
 1333              		.loc 1 179 9 is_stmt 1 view .LVU384
 1334 003a 0022     		movs	r2, #0
 1335 003c 2421     		movs	r1, #36
 1336 003e 3046     		mov	r0, r6
 1337              	.LVL122:
 179:Middlewares/lvgl/src/core/lv_obj_style.c ****         lv_obj_mark_layout_as_dirty(obj);
 1338              		.loc 1 179 9 is_stmt 0 view .LVU385
 1339 0040 FFF7FEFF 		bl	lv_event_send
 1340              	.LVL123:
 180:Middlewares/lvgl/src/core/lv_obj_style.c ****     }
 1341              		.loc 1 180 9 is_stmt 1 view .LVU386
 1342 0044 3046     		mov	r0, r6
 1343 0046 FFF7FEFF 		bl	lv_obj_mark_layout_as_dirty
 1344              	.LVL124:
ARM GAS  /tmp/ccoxlgn6.s 			page 48


 1345              	.L82:
 182:Middlewares/lvgl/src/core/lv_obj_style.c ****         lv_obj_t * parent = lv_obj_get_parent(obj);
 1346              		.loc 1 182 5 view .LVU387
 182:Middlewares/lvgl/src/core/lv_obj_style.c ****         lv_obj_t * parent = lv_obj_get_parent(obj);
 1347              		.loc 1 182 7 is_stmt 0 view .LVU388
 1348 004a 67B1     		cbz	r7, .L84
 182:Middlewares/lvgl/src/core/lv_obj_style.c ****         lv_obj_t * parent = lv_obj_get_parent(obj);
 1349              		.loc 1 182 54 discriminator 1 view .LVU389
 1350 004c 4FF6FF73 		movw	r3, #65535
 1351 0050 9C42     		cmp	r4, r3
 1352 0052 02D0     		beq	.L85
 182:Middlewares/lvgl/src/core/lv_obj_style.c ****         lv_obj_t * parent = lv_obj_get_parent(obj);
 1353              		.loc 1 182 84 discriminator 2 view .LVU390
 1354 0054 14F4005F 		tst	r4, #8192
 1355 0058 05D0     		beq	.L84
 1356              	.L85:
 1357              	.LBB73:
 183:Middlewares/lvgl/src/core/lv_obj_style.c ****         if(parent) lv_obj_mark_layout_as_dirty(parent);
 1358              		.loc 1 183 9 is_stmt 1 view .LVU391
 183:Middlewares/lvgl/src/core/lv_obj_style.c ****         if(parent) lv_obj_mark_layout_as_dirty(parent);
 1359              		.loc 1 183 29 is_stmt 0 view .LVU392
 1360 005a 3046     		mov	r0, r6
 1361 005c FFF7FEFF 		bl	lv_obj_get_parent
 1362              	.LVL125:
 184:Middlewares/lvgl/src/core/lv_obj_style.c ****     }
 1363              		.loc 1 184 9 is_stmt 1 view .LVU393
 184:Middlewares/lvgl/src/core/lv_obj_style.c ****     }
 1364              		.loc 1 184 11 is_stmt 0 view .LVU394
 1365 0060 08B1     		cbz	r0, .L84
 184:Middlewares/lvgl/src/core/lv_obj_style.c ****     }
 1366              		.loc 1 184 20 is_stmt 1 discriminator 1 view .LVU395
 1367 0062 FFF7FEFF 		bl	lv_obj_mark_layout_as_dirty
 1368              	.LVL126:
 1369              	.L84:
 184:Middlewares/lvgl/src/core/lv_obj_style.c ****     }
 1370              		.loc 1 184 20 is_stmt 0 discriminator 1 view .LVU396
 1371              	.LBE73:
 187:Middlewares/lvgl/src/core/lv_obj_style.c ****         lv_obj_refresh_ext_draw_size(obj);
 1372              		.loc 1 187 5 is_stmt 1 view .LVU397
 187:Middlewares/lvgl/src/core/lv_obj_style.c ****         lv_obj_refresh_ext_draw_size(obj);
 1373              		.loc 1 187 7 is_stmt 0 view .LVU398
 1374 0066 4FF6FF73 		movw	r3, #65535
 1375 006a 9C42     		cmp	r4, r3
 1376 006c 02D0     		beq	.L86
 187:Middlewares/lvgl/src/core/lv_obj_style.c ****         lv_obj_refresh_ext_draw_size(obj);
 1377              		.loc 1 187 34 discriminator 1 view .LVU399
 1378 006e 14F4006F 		tst	r4, #2048
 1379 0072 02D0     		beq	.L87
 1380              	.L86:
 188:Middlewares/lvgl/src/core/lv_obj_style.c ****     }
 1381              		.loc 1 188 9 is_stmt 1 view .LVU400
 1382 0074 3046     		mov	r0, r6
 1383 0076 FFF7FEFF 		bl	lv_obj_refresh_ext_draw_size
 1384              	.LVL127:
 1385              	.L87:
 190:Middlewares/lvgl/src/core/lv_obj_style.c **** 
 1386              		.loc 1 190 5 view .LVU401
ARM GAS  /tmp/ccoxlgn6.s 			page 49


 1387 007a 3046     		mov	r0, r6
 1388 007c FFF7FEFF 		bl	lv_obj_invalidate
 1389              	.LVL128:
 192:Middlewares/lvgl/src/core/lv_obj_style.c ****       ((prop & LV_STYLE_PROP_INHERIT) && ((prop & LV_STYLE_PROP_EXT_DRAW) || (prop & LV_STYLE_PROP_
 1390              		.loc 1 192 5 view .LVU402
 192:Middlewares/lvgl/src/core/lv_obj_style.c ****       ((prop & LV_STYLE_PROP_INHERIT) && ((prop & LV_STYLE_PROP_EXT_DRAW) || (prop & LV_STYLE_PROP_
 1391              		.loc 1 192 7 is_stmt 0 view .LVU403
 1392 0080 4FF6FF73 		movw	r3, #65535
 1393 0084 9C42     		cmp	r4, r3
 1394 0086 05D0     		beq	.L88
 192:Middlewares/lvgl/src/core/lv_obj_style.c ****       ((prop & LV_STYLE_PROP_INHERIT) && ((prop & LV_STYLE_PROP_EXT_DRAW) || (prop & LV_STYLE_PROP_
 1395              		.loc 1 192 34 discriminator 1 view .LVU404
 1396 0088 14F4806F 		tst	r4, #1024
 1397 008c BCD0     		beq	.L80
 193:Middlewares/lvgl/src/core/lv_obj_style.c ****     {
 1398              		.loc 1 193 39 view .LVU405
 1399 008e 14F4C05F 		tst	r4, #6144
 1400 0092 B9D0     		beq	.L80
 1401              	.L88:
 195:Middlewares/lvgl/src/core/lv_obj_style.c ****             refresh_children_style(obj);
 1402              		.loc 1 195 9 is_stmt 1 view .LVU406
 195:Middlewares/lvgl/src/core/lv_obj_style.c ****             refresh_children_style(obj);
 1403              		.loc 1 195 11 is_stmt 0 view .LVU407
 1404 0094 B5F5803F 		cmp	r5, #65536
 1405 0098 B6D0     		beq	.L80
 196:Middlewares/lvgl/src/core/lv_obj_style.c ****         }
 1406              		.loc 1 196 13 is_stmt 1 view .LVU408
 1407 009a 3046     		mov	r0, r6
 1408 009c FFF7FEFF 		bl	refresh_children_style
 1409              	.LVL129:
 1410 00a0 B2E7     		b	.L80
 1411              	.L92:
 1412 00a2 00BF     		.align	2
 1413              	.L91:
 1414 00a4 00000000 		.word	.LANCHOR0
 1415              		.cfi_endproc
 1416              	.LFE157:
 1418              		.section	.text.lv_obj_add_style,"ax",%progbits
 1419              		.align	1
 1420              		.global	lv_obj_add_style
 1421              		.syntax unified
 1422              		.thumb
 1423              		.thumb_func
 1424              		.fpu fpv5-d16
 1426              	lv_obj_add_style:
 1427              	.LVL130:
 1428              	.LFB154:
  77:Middlewares/lvgl/src/core/lv_obj_style.c ****     trans_del(obj, selector, LV_STYLE_PROP_ANY, NULL);
 1429              		.loc 1 77 1 view -0
 1430              		.cfi_startproc
 1431              		@ args = 0, pretend = 0, frame = 0
 1432              		@ frame_needed = 0, uses_anonymous_args = 0
  77:Middlewares/lvgl/src/core/lv_obj_style.c ****     trans_del(obj, selector, LV_STYLE_PROP_ANY, NULL);
 1433              		.loc 1 77 1 is_stmt 0 view .LVU410
 1434 0000 2DE9F041 		push	{r4, r5, r6, r7, r8, lr}
 1435              	.LCFI16:
 1436              		.cfi_def_cfa_offset 24
ARM GAS  /tmp/ccoxlgn6.s 			page 50


 1437              		.cfi_offset 4, -24
 1438              		.cfi_offset 5, -20
 1439              		.cfi_offset 6, -16
 1440              		.cfi_offset 7, -12
 1441              		.cfi_offset 8, -8
 1442              		.cfi_offset 14, -4
 1443 0004 0546     		mov	r5, r0
 1444 0006 8846     		mov	r8, r1
 1445 0008 1746     		mov	r7, r2
  78:Middlewares/lvgl/src/core/lv_obj_style.c **** 
 1446              		.loc 1 78 5 is_stmt 1 view .LVU411
 1447 000a 0023     		movs	r3, #0
 1448 000c 4FF6FF72 		movw	r2, #65535
 1449              	.LVL131:
  78:Middlewares/lvgl/src/core/lv_obj_style.c **** 
 1450              		.loc 1 78 5 is_stmt 0 view .LVU412
 1451 0010 3946     		mov	r1, r7
 1452              	.LVL132:
  78:Middlewares/lvgl/src/core/lv_obj_style.c **** 
 1453              		.loc 1 78 5 view .LVU413
 1454 0012 FFF7FEFF 		bl	trans_del
 1455              	.LVL133:
  80:Middlewares/lvgl/src/core/lv_obj_style.c ****     /*Go after the transition and local styles*/
 1456              		.loc 1 80 5 is_stmt 1 view .LVU414
  82:Middlewares/lvgl/src/core/lv_obj_style.c ****         if(obj->styles[i].is_trans) continue;
 1457              		.loc 1 82 5 view .LVU415
  82:Middlewares/lvgl/src/core/lv_obj_style.c ****         if(obj->styles[i].is_trans) continue;
 1458              		.loc 1 82 11 is_stmt 0 view .LVU416
 1459 0016 0026     		movs	r6, #0
  82:Middlewares/lvgl/src/core/lv_obj_style.c ****         if(obj->styles[i].is_trans) continue;
 1460              		.loc 1 82 5 view .LVU417
 1461 0018 00E0     		b	.L94
 1462              	.LVL134:
 1463              	.L95:
  82:Middlewares/lvgl/src/core/lv_obj_style.c ****         if(obj->styles[i].is_trans) continue;
 1464              		.loc 1 82 36 is_stmt 1 discriminator 2 view .LVU418
  82:Middlewares/lvgl/src/core/lv_obj_style.c ****         if(obj->styles[i].is_trans) continue;
 1465              		.loc 1 82 37 is_stmt 0 discriminator 2 view .LVU419
 1466 001a 0136     		adds	r6, r6, #1
 1467              	.LVL135:
 1468              	.L94:
  82:Middlewares/lvgl/src/core/lv_obj_style.c ****         if(obj->styles[i].is_trans) continue;
 1469              		.loc 1 82 16 is_stmt 1 discriminator 1 view .LVU420
  82:Middlewares/lvgl/src/core/lv_obj_style.c ****         if(obj->styles[i].is_trans) continue;
 1470              		.loc 1 82 23 is_stmt 0 discriminator 1 view .LVU421
 1471 001c 698C     		ldrh	r1, [r5, #34]
 1472 001e C1F3C501 		ubfx	r1, r1, #3, #6
  82:Middlewares/lvgl/src/core/lv_obj_style.c ****         if(obj->styles[i].is_trans) continue;
 1473              		.loc 1 82 5 discriminator 1 view .LVU422
 1474 0022 B142     		cmp	r1, r6
 1475 0024 09D9     		bls	.L96
  83:Middlewares/lvgl/src/core/lv_obj_style.c ****         if(obj->styles[i].is_local) continue;
 1476              		.loc 1 83 9 is_stmt 1 view .LVU423
  83:Middlewares/lvgl/src/core/lv_obj_style.c ****         if(obj->styles[i].is_local) continue;
 1477              		.loc 1 83 15 is_stmt 0 view .LVU424
 1478 0026 EB68     		ldr	r3, [r5, #12]
  83:Middlewares/lvgl/src/core/lv_obj_style.c ****         if(obj->styles[i].is_local) continue;
ARM GAS  /tmp/ccoxlgn6.s 			page 51


 1479              		.loc 1 83 23 view .LVU425
 1480 0028 03EBC603 		add	r3, r3, r6, lsl #3
  83:Middlewares/lvgl/src/core/lv_obj_style.c ****         if(obj->styles[i].is_local) continue;
 1481              		.loc 1 83 12 view .LVU426
 1482 002c DB79     		ldrb	r3, [r3, #7]	@ zero_extendqisi2
  83:Middlewares/lvgl/src/core/lv_obj_style.c ****         if(obj->styles[i].is_local) continue;
 1483              		.loc 1 83 11 view .LVU427
 1484 002e 13F0020F 		tst	r3, #2
 1485 0032 F2D1     		bne	.L95
  84:Middlewares/lvgl/src/core/lv_obj_style.c ****         break;
 1486              		.loc 1 84 9 is_stmt 1 view .LVU428
  84:Middlewares/lvgl/src/core/lv_obj_style.c ****         break;
 1487              		.loc 1 84 11 is_stmt 0 view .LVU429
 1488 0034 13F0010F 		tst	r3, #1
 1489 0038 EFD1     		bne	.L95
 1490              	.L96:
  91:Middlewares/lvgl/src/core/lv_obj_style.c ****     obj->styles = lv_mem_realloc(obj->styles, obj->style_cnt * sizeof(_lv_obj_style_t));
 1491              		.loc 1 91 5 is_stmt 1 view .LVU430
  91:Middlewares/lvgl/src/core/lv_obj_style.c ****     obj->styles = lv_mem_realloc(obj->styles, obj->style_cnt * sizeof(_lv_obj_style_t));
 1492              		.loc 1 91 19 is_stmt 0 view .LVU431
 1493 003a 0131     		adds	r1, r1, #1
 1494 003c 01F03F01 		and	r1, r1, #63
 1495 0040 6B8C     		ldrh	r3, [r5, #34]
 1496 0042 61F3C803 		bfi	r3, r1, #3, #6
 1497 0046 6B84     		strh	r3, [r5, #34]	@ movhi
  92:Middlewares/lvgl/src/core/lv_obj_style.c **** 
 1498              		.loc 1 92 5 is_stmt 1 view .LVU432
  92:Middlewares/lvgl/src/core/lv_obj_style.c **** 
 1499              		.loc 1 92 19 is_stmt 0 view .LVU433
 1500 0048 C900     		lsls	r1, r1, #3
 1501 004a E868     		ldr	r0, [r5, #12]
 1502 004c FFF7FEFF 		bl	lv_mem_realloc
 1503              	.LVL136:
  92:Middlewares/lvgl/src/core/lv_obj_style.c **** 
 1504              		.loc 1 92 17 view .LVU434
 1505 0050 E860     		str	r0, [r5, #12]
  94:Middlewares/lvgl/src/core/lv_obj_style.c ****     for(j = obj->style_cnt - 1; j > i ; j--) {
 1506              		.loc 1 94 5 is_stmt 1 view .LVU435
  95:Middlewares/lvgl/src/core/lv_obj_style.c ****         obj->styles[j] = obj->styles[j - 1];
 1507              		.loc 1 95 5 view .LVU436
  95:Middlewares/lvgl/src/core/lv_obj_style.c ****         obj->styles[j] = obj->styles[j - 1];
 1508              		.loc 1 95 16 is_stmt 0 view .LVU437
 1509 0052 6A8C     		ldrh	r2, [r5, #34]
 1510 0054 C2F3C502 		ubfx	r2, r2, #3, #6
  95:Middlewares/lvgl/src/core/lv_obj_style.c ****         obj->styles[j] = obj->styles[j - 1];
 1511              		.loc 1 95 28 view .LVU438
 1512 0058 013A     		subs	r2, r2, #1
 1513              	.LVL137:
  95:Middlewares/lvgl/src/core/lv_obj_style.c ****         obj->styles[j] = obj->styles[j - 1];
 1514              		.loc 1 95 5 view .LVU439
 1515 005a 0CE0     		b	.L98
 1516              	.L99:
  96:Middlewares/lvgl/src/core/lv_obj_style.c ****     }
 1517              		.loc 1 96 9 is_stmt 1 discriminator 3 view .LVU440
  96:Middlewares/lvgl/src/core/lv_obj_style.c ****     }
 1518              		.loc 1 96 29 is_stmt 0 discriminator 3 view .LVU441
 1519 005c EC68     		ldr	r4, [r5, #12]
ARM GAS  /tmp/ccoxlgn6.s 			page 52


  96:Middlewares/lvgl/src/core/lv_obj_style.c ****     }
 1520              		.loc 1 96 37 discriminator 3 view .LVU442
 1521 005e 6FF06043 		mvn	r3, #-536870912
 1522 0062 1344     		add	r3, r3, r2
 1523 0064 04EBC303 		add	r3, r4, r3, lsl #3
  96:Middlewares/lvgl/src/core/lv_obj_style.c ****     }
 1524              		.loc 1 96 20 discriminator 3 view .LVU443
 1525 0068 04EBC20C 		add	ip, r4, r2, lsl #3
  96:Middlewares/lvgl/src/core/lv_obj_style.c ****     }
 1526              		.loc 1 96 24 discriminator 3 view .LVU444
 1527 006c 93E80300 		ldm	r3, {r0, r1}
 1528 0070 8CE80300 		stm	ip, {r0, r1}
  95:Middlewares/lvgl/src/core/lv_obj_style.c ****         obj->styles[j] = obj->styles[j - 1];
 1529              		.loc 1 95 41 is_stmt 1 discriminator 3 view .LVU445
  95:Middlewares/lvgl/src/core/lv_obj_style.c ****         obj->styles[j] = obj->styles[j - 1];
 1530              		.loc 1 95 42 is_stmt 0 discriminator 3 view .LVU446
 1531 0074 013A     		subs	r2, r2, #1
 1532              	.LVL138:
 1533              	.L98:
  95:Middlewares/lvgl/src/core/lv_obj_style.c ****         obj->styles[j] = obj->styles[j - 1];
 1534              		.loc 1 95 33 is_stmt 1 discriminator 1 view .LVU447
  95:Middlewares/lvgl/src/core/lv_obj_style.c ****         obj->styles[j] = obj->styles[j - 1];
 1535              		.loc 1 95 5 is_stmt 0 discriminator 1 view .LVU448
 1536 0076 9642     		cmp	r6, r2
 1537 0078 F0D3     		bcc	.L99
  99:Middlewares/lvgl/src/core/lv_obj_style.c ****     obj->styles[i].style = style;
 1538              		.loc 1 99 5 is_stmt 1 view .LVU449
  99:Middlewares/lvgl/src/core/lv_obj_style.c ****     obj->styles[i].style = style;
 1539              		.loc 1 99 22 is_stmt 0 view .LVU450
 1540 007a E868     		ldr	r0, [r5, #12]
  99:Middlewares/lvgl/src/core/lv_obj_style.c ****     obj->styles[i].style = style;
 1541              		.loc 1 99 30 view .LVU451
 1542 007c F400     		lsls	r4, r6, #3
  99:Middlewares/lvgl/src/core/lv_obj_style.c ****     obj->styles[i].style = style;
 1543              		.loc 1 99 5 view .LVU452
 1544 007e 0821     		movs	r1, #8
 1545 0080 00EBC600 		add	r0, r0, r6, lsl #3
 1546 0084 FFF7FEFF 		bl	lv_memset_00
 1547              	.LVL139:
 100:Middlewares/lvgl/src/core/lv_obj_style.c ****     obj->styles[i].selector = selector;
 1548              		.loc 1 100 5 is_stmt 1 view .LVU453
 100:Middlewares/lvgl/src/core/lv_obj_style.c ****     obj->styles[i].selector = selector;
 1549              		.loc 1 100 8 is_stmt 0 view .LVU454
 1550 0088 EB68     		ldr	r3, [r5, #12]
 100:Middlewares/lvgl/src/core/lv_obj_style.c ****     obj->styles[i].selector = selector;
 1551              		.loc 1 100 26 view .LVU455
 1552 008a 43F83680 		str	r8, [r3, r6, lsl #3]
 101:Middlewares/lvgl/src/core/lv_obj_style.c **** 
 1553              		.loc 1 101 5 is_stmt 1 view .LVU456
 101:Middlewares/lvgl/src/core/lv_obj_style.c **** 
 1554              		.loc 1 101 8 is_stmt 0 view .LVU457
 1555 008e EB68     		ldr	r3, [r5, #12]
 101:Middlewares/lvgl/src/core/lv_obj_style.c **** 
 1556              		.loc 1 101 16 view .LVU458
 1557 0090 2344     		add	r3, r3, r4
 101:Middlewares/lvgl/src/core/lv_obj_style.c **** 
 1558              		.loc 1 101 29 view .LVU459
ARM GAS  /tmp/ccoxlgn6.s 			page 53


 1559 0092 5A68     		ldr	r2, [r3, #4]
 1560 0094 67F31702 		bfi	r2, r7, #0, #24
 1561              	.LVL140:
 101:Middlewares/lvgl/src/core/lv_obj_style.c **** 
 1562              		.loc 1 101 29 view .LVU460
 1563 0098 5A60     		str	r2, [r3, #4]
 103:Middlewares/lvgl/src/core/lv_obj_style.c **** }
 1564              		.loc 1 103 5 is_stmt 1 view .LVU461
 1565 009a 4FF6FF72 		movw	r2, #65535
 1566 009e 3946     		mov	r1, r7
 1567 00a0 2846     		mov	r0, r5
 1568 00a2 FFF7FEFF 		bl	lv_obj_refresh_style
 1569              	.LVL141:
 104:Middlewares/lvgl/src/core/lv_obj_style.c **** 
 1570              		.loc 1 104 1 is_stmt 0 view .LVU462
 1571 00a6 BDE8F081 		pop	{r4, r5, r6, r7, r8, pc}
 104:Middlewares/lvgl/src/core/lv_obj_style.c **** 
 1572              		.loc 1 104 1 view .LVU463
 1573              		.cfi_endproc
 1574              	.LFE154:
 1576              		.section	.text.report_style_change_core,"ax",%progbits
 1577              		.align	1
 1578              		.syntax unified
 1579              		.thumb
 1580              		.thumb_func
 1581              		.fpu fpv5-d16
 1583              	report_style_change_core:
 1584              	.LVL142:
 1585              	.LFB173:
 607:Middlewares/lvgl/src/core/lv_obj_style.c ****     uint32_t i;
 1586              		.loc 1 607 1 is_stmt 1 view -0
 1587              		.cfi_startproc
 1588              		@ args = 0, pretend = 0, frame = 0
 1589              		@ frame_needed = 0, uses_anonymous_args = 0
 607:Middlewares/lvgl/src/core/lv_obj_style.c ****     uint32_t i;
 1590              		.loc 1 607 1 is_stmt 0 view .LVU465
 1591 0000 F8B5     		push	{r3, r4, r5, r6, r7, lr}
 1592              	.LCFI17:
 1593              		.cfi_def_cfa_offset 24
 1594              		.cfi_offset 3, -24
 1595              		.cfi_offset 4, -20
 1596              		.cfi_offset 5, -16
 1597              		.cfi_offset 6, -12
 1598              		.cfi_offset 7, -8
 1599              		.cfi_offset 14, -4
 1600 0002 0546     		mov	r5, r0
 1601 0004 0C46     		mov	r4, r1
 608:Middlewares/lvgl/src/core/lv_obj_style.c ****     for(i = 0; i < obj->style_cnt; i++) {
 1602              		.loc 1 608 5 is_stmt 1 view .LVU466
 609:Middlewares/lvgl/src/core/lv_obj_style.c ****         if(style == NULL || obj->styles[i].style == style) {
 1603              		.loc 1 609 5 view .LVU467
 1604              	.LVL143:
 609:Middlewares/lvgl/src/core/lv_obj_style.c ****         if(style == NULL || obj->styles[i].style == style) {
 1605              		.loc 1 609 11 is_stmt 0 view .LVU468
 1606 0006 0022     		movs	r2, #0
 609:Middlewares/lvgl/src/core/lv_obj_style.c ****         if(style == NULL || obj->styles[i].style == style) {
 1607              		.loc 1 609 5 view .LVU469
ARM GAS  /tmp/ccoxlgn6.s 			page 54


 1608 0008 00E0     		b	.L102
 1609              	.LVL144:
 1610              	.L104:
 609:Middlewares/lvgl/src/core/lv_obj_style.c ****         if(style == NULL || obj->styles[i].style == style) {
 1611              		.loc 1 609 36 is_stmt 1 discriminator 2 view .LVU470
 609:Middlewares/lvgl/src/core/lv_obj_style.c ****         if(style == NULL || obj->styles[i].style == style) {
 1612              		.loc 1 609 37 is_stmt 0 discriminator 2 view .LVU471
 1613 000a 0132     		adds	r2, r2, #1
 1614              	.LVL145:
 1615              	.L102:
 609:Middlewares/lvgl/src/core/lv_obj_style.c ****         if(style == NULL || obj->styles[i].style == style) {
 1616              		.loc 1 609 16 is_stmt 1 discriminator 1 view .LVU472
 609:Middlewares/lvgl/src/core/lv_obj_style.c ****         if(style == NULL || obj->styles[i].style == style) {
 1617              		.loc 1 609 23 is_stmt 0 discriminator 1 view .LVU473
 1618 000c 638C     		ldrh	r3, [r4, #34]
 1619 000e C3F3C503 		ubfx	r3, r3, #3, #6
 609:Middlewares/lvgl/src/core/lv_obj_style.c ****         if(style == NULL || obj->styles[i].style == style) {
 1620              		.loc 1 609 5 discriminator 1 view .LVU474
 1621 0012 9342     		cmp	r3, r2
 1622 0014 0CD9     		bls	.L105
 610:Middlewares/lvgl/src/core/lv_obj_style.c ****             lv_obj_refresh_style(obj, LV_PART_ANY, LV_STYLE_PROP_ANY);
 1623              		.loc 1 610 9 is_stmt 1 view .LVU475
 610:Middlewares/lvgl/src/core/lv_obj_style.c ****             lv_obj_refresh_style(obj, LV_PART_ANY, LV_STYLE_PROP_ANY);
 1624              		.loc 1 610 11 is_stmt 0 view .LVU476
 1625 0016 25B1     		cbz	r5, .L103
 610:Middlewares/lvgl/src/core/lv_obj_style.c ****             lv_obj_refresh_style(obj, LV_PART_ANY, LV_STYLE_PROP_ANY);
 1626              		.loc 1 610 32 discriminator 1 view .LVU477
 1627 0018 E368     		ldr	r3, [r4, #12]
 610:Middlewares/lvgl/src/core/lv_obj_style.c ****             lv_obj_refresh_style(obj, LV_PART_ANY, LV_STYLE_PROP_ANY);
 1628              		.loc 1 610 43 discriminator 1 view .LVU478
 1629 001a 53F83230 		ldr	r3, [r3, r2, lsl #3]
 610:Middlewares/lvgl/src/core/lv_obj_style.c ****             lv_obj_refresh_style(obj, LV_PART_ANY, LV_STYLE_PROP_ANY);
 1630              		.loc 1 610 26 discriminator 1 view .LVU479
 1631 001e AB42     		cmp	r3, r5
 1632 0020 F3D1     		bne	.L104
 1633              	.L103:
 611:Middlewares/lvgl/src/core/lv_obj_style.c ****             break;
 1634              		.loc 1 611 13 is_stmt 1 view .LVU480
 1635 0022 4FF6FF72 		movw	r2, #65535
 1636              	.LVL146:
 611:Middlewares/lvgl/src/core/lv_obj_style.c ****             break;
 1637              		.loc 1 611 13 is_stmt 0 view .LVU481
 1638 0026 4FF47021 		mov	r1, #983040
 1639              	.LVL147:
 611:Middlewares/lvgl/src/core/lv_obj_style.c ****             break;
 1640              		.loc 1 611 13 view .LVU482
 1641 002a 2046     		mov	r0, r4
 1642              	.LVL148:
 611:Middlewares/lvgl/src/core/lv_obj_style.c ****             break;
 1643              		.loc 1 611 13 view .LVU483
 1644 002c FFF7FEFF 		bl	lv_obj_refresh_style
 1645              	.LVL149:
 612:Middlewares/lvgl/src/core/lv_obj_style.c ****         }
 1646              		.loc 1 612 13 is_stmt 1 view .LVU484
 1647              	.L105:
 616:Middlewares/lvgl/src/core/lv_obj_style.c ****     for(i = 0; i < child_cnt; i++) {
 1648              		.loc 1 616 5 view .LVU485
ARM GAS  /tmp/ccoxlgn6.s 			page 55


 616:Middlewares/lvgl/src/core/lv_obj_style.c ****     for(i = 0; i < child_cnt; i++) {
 1649              		.loc 1 616 26 is_stmt 0 view .LVU486
 1650 0030 2046     		mov	r0, r4
 1651 0032 FFF7FEFF 		bl	lv_obj_get_child_cnt
 1652              	.LVL150:
 1653 0036 0746     		mov	r7, r0
 1654              	.LVL151:
 617:Middlewares/lvgl/src/core/lv_obj_style.c ****         report_style_change_core(style, lv_obj_get_child(obj, i));
 1655              		.loc 1 617 5 is_stmt 1 view .LVU487
 617:Middlewares/lvgl/src/core/lv_obj_style.c ****         report_style_change_core(style, lv_obj_get_child(obj, i));
 1656              		.loc 1 617 11 is_stmt 0 view .LVU488
 1657 0038 0026     		movs	r6, #0
 617:Middlewares/lvgl/src/core/lv_obj_style.c ****         report_style_change_core(style, lv_obj_get_child(obj, i));
 1658              		.loc 1 617 5 view .LVU489
 1659 003a 08E0     		b	.L107
 1660              	.LVL152:
 1661              	.L108:
 618:Middlewares/lvgl/src/core/lv_obj_style.c ****     }
 1662              		.loc 1 618 9 is_stmt 1 discriminator 3 view .LVU490
 618:Middlewares/lvgl/src/core/lv_obj_style.c ****     }
 1663              		.loc 1 618 41 is_stmt 0 discriminator 3 view .LVU491
 1664 003c 3146     		mov	r1, r6
 1665 003e 2046     		mov	r0, r4
 1666 0040 FFF7FEFF 		bl	lv_obj_get_child
 1667              	.LVL153:
 1668 0044 0146     		mov	r1, r0
 618:Middlewares/lvgl/src/core/lv_obj_style.c ****     }
 1669              		.loc 1 618 9 discriminator 3 view .LVU492
 1670 0046 2846     		mov	r0, r5
 1671 0048 FFF7DAFF 		bl	report_style_change_core
 1672              	.LVL154:
 617:Middlewares/lvgl/src/core/lv_obj_style.c ****         report_style_change_core(style, lv_obj_get_child(obj, i));
 1673              		.loc 1 617 31 is_stmt 1 discriminator 3 view .LVU493
 617:Middlewares/lvgl/src/core/lv_obj_style.c ****         report_style_change_core(style, lv_obj_get_child(obj, i));
 1674              		.loc 1 617 32 is_stmt 0 discriminator 3 view .LVU494
 1675 004c 0136     		adds	r6, r6, #1
 1676              	.LVL155:
 1677              	.L107:
 617:Middlewares/lvgl/src/core/lv_obj_style.c ****         report_style_change_core(style, lv_obj_get_child(obj, i));
 1678              		.loc 1 617 16 is_stmt 1 discriminator 1 view .LVU495
 617:Middlewares/lvgl/src/core/lv_obj_style.c ****         report_style_change_core(style, lv_obj_get_child(obj, i));
 1679              		.loc 1 617 5 is_stmt 0 discriminator 1 view .LVU496
 1680 004e BE42     		cmp	r6, r7
 1681 0050 F4D3     		bcc	.L108
 620:Middlewares/lvgl/src/core/lv_obj_style.c **** 
 1682              		.loc 1 620 1 view .LVU497
 1683 0052 F8BD     		pop	{r3, r4, r5, r6, r7, pc}
 620:Middlewares/lvgl/src/core/lv_obj_style.c **** 
 1684              		.loc 1 620 1 view .LVU498
 1685              		.cfi_endproc
 1686              	.LFE173:
 1688              		.section	.text.lv_obj_report_style_change,"ax",%progbits
 1689              		.align	1
 1690              		.global	lv_obj_report_style_change
 1691              		.syntax unified
 1692              		.thumb
 1693              		.thumb_func
ARM GAS  /tmp/ccoxlgn6.s 			page 56


 1694              		.fpu fpv5-d16
 1696              	lv_obj_report_style_change:
 1697              	.LVL156:
 1698              	.LFB156:
 155:Middlewares/lvgl/src/core/lv_obj_style.c ****     if(!style_refr) return;
 1699              		.loc 1 155 1 is_stmt 1 view -0
 1700              		.cfi_startproc
 1701              		@ args = 0, pretend = 0, frame = 0
 1702              		@ frame_needed = 0, uses_anonymous_args = 0
 156:Middlewares/lvgl/src/core/lv_obj_style.c ****     lv_disp_t * d = lv_disp_get_next(NULL);
 1703              		.loc 1 156 5 view .LVU500
 156:Middlewares/lvgl/src/core/lv_obj_style.c ****     lv_disp_t * d = lv_disp_get_next(NULL);
 1704              		.loc 1 156 8 is_stmt 0 view .LVU501
 1705 0000 0E4B     		ldr	r3, .L122
 1706 0002 1B78     		ldrb	r3, [r3]	@ zero_extendqisi2
 156:Middlewares/lvgl/src/core/lv_obj_style.c ****     lv_disp_t * d = lv_disp_get_next(NULL);
 1707              		.loc 1 156 7 view .LVU502
 1708 0004 03B9     		cbnz	r3, .L120
 1709 0006 7047     		bx	lr
 1710              	.L120:
 155:Middlewares/lvgl/src/core/lv_obj_style.c ****     if(!style_refr) return;
 1711              		.loc 1 155 1 view .LVU503
 1712 0008 70B5     		push	{r4, r5, r6, lr}
 1713              	.LCFI18:
 1714              		.cfi_def_cfa_offset 16
 1715              		.cfi_offset 4, -16
 1716              		.cfi_offset 5, -12
 1717              		.cfi_offset 6, -8
 1718              		.cfi_offset 14, -4
 1719 000a 0646     		mov	r6, r0
 157:Middlewares/lvgl/src/core/lv_obj_style.c **** 
 1720              		.loc 1 157 5 is_stmt 1 view .LVU504
 157:Middlewares/lvgl/src/core/lv_obj_style.c **** 
 1721              		.loc 1 157 21 is_stmt 0 view .LVU505
 1722 000c 0020     		movs	r0, #0
 1723              	.LVL157:
 157:Middlewares/lvgl/src/core/lv_obj_style.c **** 
 1724              		.loc 1 157 21 view .LVU506
 1725 000e FFF7FEFF 		bl	lv_disp_get_next
 1726              	.LVL158:
 1727 0012 0546     		mov	r5, r0
 1728              	.LVL159:
 159:Middlewares/lvgl/src/core/lv_obj_style.c ****         uint32_t i;
 1729              		.loc 1 159 5 is_stmt 1 view .LVU507
 159:Middlewares/lvgl/src/core/lv_obj_style.c ****         uint32_t i;
 1730              		.loc 1 159 10 is_stmt 0 view .LVU508
 1731 0014 0DE0     		b	.L112
 1732              	.LVL160:
 1733              	.L113:
 1734              	.LBB74:
 162:Middlewares/lvgl/src/core/lv_obj_style.c ****         }
 1735              		.loc 1 162 13 is_stmt 1 discriminator 3 view .LVU509
 162:Middlewares/lvgl/src/core/lv_obj_style.c ****         }
 1736              		.loc 1 162 46 is_stmt 0 discriminator 3 view .LVU510
 1737 0016 EB68     		ldr	r3, [r5, #12]
 162:Middlewares/lvgl/src/core/lv_obj_style.c ****         }
 1738              		.loc 1 162 13 discriminator 3 view .LVU511
ARM GAS  /tmp/ccoxlgn6.s 			page 57


 1739 0018 53F82410 		ldr	r1, [r3, r4, lsl #2]
 1740 001c 3046     		mov	r0, r6
 1741 001e FFF7FEFF 		bl	report_style_change_core
 1742              	.LVL161:
 161:Middlewares/lvgl/src/core/lv_obj_style.c ****             report_style_change_core(style, d->screens[i]);
 1743              		.loc 1 161 39 is_stmt 1 discriminator 3 view .LVU512
 161:Middlewares/lvgl/src/core/lv_obj_style.c ****             report_style_change_core(style, d->screens[i]);
 1744              		.loc 1 161 40 is_stmt 0 discriminator 3 view .LVU513
 1745 0022 0134     		adds	r4, r4, #1
 1746              	.LVL162:
 1747              	.L114:
 161:Middlewares/lvgl/src/core/lv_obj_style.c ****             report_style_change_core(style, d->screens[i]);
 1748              		.loc 1 161 20 is_stmt 1 discriminator 1 view .LVU514
 161:Middlewares/lvgl/src/core/lv_obj_style.c ****             report_style_change_core(style, d->screens[i]);
 1749              		.loc 1 161 25 is_stmt 0 discriminator 1 view .LVU515
 1750 0024 6B6A     		ldr	r3, [r5, #36]
 161:Middlewares/lvgl/src/core/lv_obj_style.c ****             report_style_change_core(style, d->screens[i]);
 1751              		.loc 1 161 9 discriminator 1 view .LVU516
 1752 0026 A342     		cmp	r3, r4
 1753 0028 F5D8     		bhi	.L113
 164:Middlewares/lvgl/src/core/lv_obj_style.c ****     }
 1754              		.loc 1 164 9 is_stmt 1 view .LVU517
 164:Middlewares/lvgl/src/core/lv_obj_style.c ****     }
 1755              		.loc 1 164 13 is_stmt 0 view .LVU518
 1756 002a 2846     		mov	r0, r5
 1757 002c FFF7FEFF 		bl	lv_disp_get_next
 1758              	.LVL163:
 1759 0030 0546     		mov	r5, r0
 1760              	.LVL164:
 1761              	.L112:
 164:Middlewares/lvgl/src/core/lv_obj_style.c ****     }
 1762              		.loc 1 164 13 view .LVU519
 1763              	.LBE74:
 159:Middlewares/lvgl/src/core/lv_obj_style.c ****         uint32_t i;
 1764              		.loc 1 159 10 is_stmt 1 view .LVU520
 1765 0032 0DB1     		cbz	r5, .L121
 1766              	.LBB75:
 161:Middlewares/lvgl/src/core/lv_obj_style.c ****             report_style_change_core(style, d->screens[i]);
 1767              		.loc 1 161 15 is_stmt 0 view .LVU521
 1768 0034 0024     		movs	r4, #0
 1769 0036 F5E7     		b	.L114
 1770              	.L121:
 1771              	.LBE75:
 166:Middlewares/lvgl/src/core/lv_obj_style.c **** 
 1772              		.loc 1 166 1 view .LVU522
 1773 0038 70BD     		pop	{r4, r5, r6, pc}
 1774              	.LVL165:
 1775              	.L123:
 166:Middlewares/lvgl/src/core/lv_obj_style.c **** 
 1776              		.loc 1 166 1 view .LVU523
 1777 003a 00BF     		.align	2
 1778              	.L122:
 1779 003c 00000000 		.word	.LANCHOR0
 1780              		.cfi_endproc
 1781              	.LFE156:
 1783              		.section	.text.lv_obj_set_local_style_prop,"ax",%progbits
 1784              		.align	1
ARM GAS  /tmp/ccoxlgn6.s 			page 58


 1785              		.global	lv_obj_set_local_style_prop
 1786              		.syntax unified
 1787              		.thumb
 1788              		.thumb_func
 1789              		.fpu fpv5-d16
 1791              	lv_obj_set_local_style_prop:
 1792              	.LVL166:
 1793              	.LFB160:
 252:Middlewares/lvgl/src/core/lv_obj_style.c ****     lv_style_t * style = get_local_style(obj, selector);
 1794              		.loc 1 252 1 is_stmt 1 view -0
 1795              		.cfi_startproc
 1796              		@ args = 0, pretend = 0, frame = 0
 1797              		@ frame_needed = 0, uses_anonymous_args = 0
 252:Middlewares/lvgl/src/core/lv_obj_style.c ****     lv_style_t * style = get_local_style(obj, selector);
 1798              		.loc 1 252 1 is_stmt 0 view .LVU525
 1799 0000 F8B5     		push	{r3, r4, r5, r6, r7, lr}
 1800              	.LCFI19:
 1801              		.cfi_def_cfa_offset 24
 1802              		.cfi_offset 3, -24
 1803              		.cfi_offset 4, -20
 1804              		.cfi_offset 5, -16
 1805              		.cfi_offset 6, -12
 1806              		.cfi_offset 7, -8
 1807              		.cfi_offset 14, -4
 1808 0002 0646     		mov	r6, r0
 1809 0004 0D46     		mov	r5, r1
 1810 0006 1746     		mov	r7, r2
 1811              	.LVL167:
 252:Middlewares/lvgl/src/core/lv_obj_style.c ****     lv_style_t * style = get_local_style(obj, selector);
 1812              		.loc 1 252 1 view .LVU526
 1813 0008 1C46     		mov	r4, r3
 253:Middlewares/lvgl/src/core/lv_obj_style.c ****     lv_style_set_prop(style, prop, value);
 1814              		.loc 1 253 5 is_stmt 1 view .LVU527
 253:Middlewares/lvgl/src/core/lv_obj_style.c ****     lv_style_set_prop(style, prop, value);
 1815              		.loc 1 253 26 is_stmt 0 view .LVU528
 1816 000a 1946     		mov	r1, r3
 1817              	.LVL168:
 253:Middlewares/lvgl/src/core/lv_obj_style.c ****     lv_style_set_prop(style, prop, value);
 1818              		.loc 1 253 26 view .LVU529
 1819 000c FFF7FEFF 		bl	get_local_style
 1820              	.LVL169:
 254:Middlewares/lvgl/src/core/lv_obj_style.c ****     lv_obj_refresh_style(obj, selector, prop);
 1821              		.loc 1 254 5 is_stmt 1 view .LVU530
 254:Middlewares/lvgl/src/core/lv_obj_style.c ****     lv_obj_refresh_style(obj, selector, prop);
 1822              		.loc 1 254 5 is_stmt 0 view .LVU531
 1823 0010 3A46     		mov	r2, r7
 1824 0012 2946     		mov	r1, r5
 1825 0014 FFF7FEFF 		bl	lv_style_set_prop
 1826              	.LVL170:
 255:Middlewares/lvgl/src/core/lv_obj_style.c **** }
 1827              		.loc 1 255 5 is_stmt 1 view .LVU532
 1828 0018 2A46     		mov	r2, r5
 1829 001a 2146     		mov	r1, r4
 1830 001c 3046     		mov	r0, r6
 1831 001e FFF7FEFF 		bl	lv_obj_refresh_style
 1832              	.LVL171:
 256:Middlewares/lvgl/src/core/lv_obj_style.c **** 
ARM GAS  /tmp/ccoxlgn6.s 			page 59


 1833              		.loc 1 256 1 is_stmt 0 view .LVU533
 1834 0022 F8BD     		pop	{r3, r4, r5, r6, r7, pc}
 256:Middlewares/lvgl/src/core/lv_obj_style.c **** 
 1835              		.loc 1 256 1 view .LVU534
 1836              		.cfi_endproc
 1837              	.LFE160:
 1839              		.section	.text.trans_anim_cb,"ax",%progbits
 1840              		.align	1
 1841              		.syntax unified
 1842              		.thumb
 1843              		.thumb_func
 1844              		.fpu fpv5-d16
 1846              	trans_anim_cb:
 1847              	.LVL172:
 1848              	.LFB176:
 683:Middlewares/lvgl/src/core/lv_obj_style.c ****     trans_t * tr = _tr;
 1849              		.loc 1 683 1 is_stmt 1 view -0
 1850              		.cfi_startproc
 1851              		@ args = 0, pretend = 0, frame = 8
 1852              		@ frame_needed = 0, uses_anonymous_args = 0
 683:Middlewares/lvgl/src/core/lv_obj_style.c ****     trans_t * tr = _tr;
 1853              		.loc 1 683 1 is_stmt 0 view .LVU536
 1854 0000 2DE9F043 		push	{r4, r5, r6, r7, r8, r9, lr}
 1855              	.LCFI20:
 1856              		.cfi_def_cfa_offset 28
 1857              		.cfi_offset 4, -28
 1858              		.cfi_offset 5, -24
 1859              		.cfi_offset 6, -20
 1860              		.cfi_offset 7, -16
 1861              		.cfi_offset 8, -12
 1862              		.cfi_offset 9, -8
 1863              		.cfi_offset 14, -4
 1864 0004 83B0     		sub	sp, sp, #12
 1865              	.LCFI21:
 1866              		.cfi_def_cfa_offset 40
 1867 0006 0446     		mov	r4, r0
 1868 0008 0F46     		mov	r7, r1
 684:Middlewares/lvgl/src/core/lv_obj_style.c ****     lv_obj_t * obj = tr->obj;
 1869              		.loc 1 684 5 is_stmt 1 view .LVU537
 1870              	.LVL173:
 685:Middlewares/lvgl/src/core/lv_obj_style.c **** 
 1871              		.loc 1 685 5 view .LVU538
 685:Middlewares/lvgl/src/core/lv_obj_style.c **** 
 1872              		.loc 1 685 16 is_stmt 0 view .LVU539
 1873 000a 0568     		ldr	r5, [r0]
 1874              	.LVL174:
 687:Middlewares/lvgl/src/core/lv_obj_style.c ****     for(i = 0; i < obj->style_cnt; i++) {
 1875              		.loc 1 687 5 is_stmt 1 view .LVU540
 688:Middlewares/lvgl/src/core/lv_obj_style.c ****         if(obj->styles[i].is_trans == 0 || obj->styles[i].selector != tr->selector) continue;
 1876              		.loc 1 688 5 view .LVU541
 688:Middlewares/lvgl/src/core/lv_obj_style.c ****         if(obj->styles[i].is_trans == 0 || obj->styles[i].selector != tr->selector) continue;
 1877              		.loc 1 688 11 is_stmt 0 view .LVU542
 1878 000c 0022     		movs	r2, #0
 688:Middlewares/lvgl/src/core/lv_obj_style.c ****         if(obj->styles[i].is_trans == 0 || obj->styles[i].selector != tr->selector) continue;
 1879              		.loc 1 688 5 view .LVU543
 1880 000e 00E0     		b	.L127
 1881              	.LVL175:
ARM GAS  /tmp/ccoxlgn6.s 			page 60


 1882              	.L128:
 1883              	.LBB79:
 689:Middlewares/lvgl/src/core/lv_obj_style.c **** 
 1884              		.loc 1 689 85 is_stmt 1 discriminator 3 view .LVU544
 1885              	.LBE79:
 688:Middlewares/lvgl/src/core/lv_obj_style.c ****         if(obj->styles[i].is_trans == 0 || obj->styles[i].selector != tr->selector) continue;
 1886              		.loc 1 688 36 discriminator 3 view .LVU545
 688:Middlewares/lvgl/src/core/lv_obj_style.c ****         if(obj->styles[i].is_trans == 0 || obj->styles[i].selector != tr->selector) continue;
 1887              		.loc 1 688 37 is_stmt 0 discriminator 3 view .LVU546
 1888 0010 0132     		adds	r2, r2, #1
 1889              	.LVL176:
 1890              	.L127:
 688:Middlewares/lvgl/src/core/lv_obj_style.c ****         if(obj->styles[i].is_trans == 0 || obj->styles[i].selector != tr->selector) continue;
 1891              		.loc 1 688 16 is_stmt 1 discriminator 1 view .LVU547
 688:Middlewares/lvgl/src/core/lv_obj_style.c ****         if(obj->styles[i].is_trans == 0 || obj->styles[i].selector != tr->selector) continue;
 1892              		.loc 1 688 23 is_stmt 0 discriminator 1 view .LVU548
 1893 0012 6B8C     		ldrh	r3, [r5, #34]
 1894 0014 C3F3C503 		ubfx	r3, r3, #3, #6
 688:Middlewares/lvgl/src/core/lv_obj_style.c ****         if(obj->styles[i].is_trans == 0 || obj->styles[i].selector != tr->selector) continue;
 1895              		.loc 1 688 5 discriminator 1 view .LVU549
 1896 0018 9342     		cmp	r3, r2
 1897 001a 40F2D980 		bls	.L126
 1898              	.LBB82:
 689:Middlewares/lvgl/src/core/lv_obj_style.c **** 
 1899              		.loc 1 689 9 is_stmt 1 view .LVU550
 689:Middlewares/lvgl/src/core/lv_obj_style.c **** 
 1900              		.loc 1 689 15 is_stmt 0 view .LVU551
 1901 001e EB68     		ldr	r3, [r5, #12]
 689:Middlewares/lvgl/src/core/lv_obj_style.c **** 
 1902              		.loc 1 689 23 view .LVU552
 1903 0020 D600     		lsls	r6, r2, #3
 1904 0022 03EBC203 		add	r3, r3, r2, lsl #3
 689:Middlewares/lvgl/src/core/lv_obj_style.c **** 
 1905              		.loc 1 689 36 view .LVU553
 1906 0026 D879     		ldrb	r0, [r3, #7]	@ zero_extendqisi2
 689:Middlewares/lvgl/src/core/lv_obj_style.c **** 
 1907              		.loc 1 689 11 view .LVU554
 1908 0028 10F0020F 		tst	r0, #2
 1909 002c F0D0     		beq	.L128
 689:Middlewares/lvgl/src/core/lv_obj_style.c **** 
 1910              		.loc 1 689 58 discriminator 2 view .LVU555
 1911 002e 5868     		ldr	r0, [r3, #4]
 1912 0030 C0F31700 		ubfx	r0, r0, #0, #24
 689:Middlewares/lvgl/src/core/lv_obj_style.c **** 
 1913              		.loc 1 689 73 discriminator 2 view .LVU556
 1914 0034 A168     		ldr	r1, [r4, #8]
 689:Middlewares/lvgl/src/core/lv_obj_style.c **** 
 1915              		.loc 1 689 41 discriminator 2 view .LVU557
 1916 0036 8842     		cmp	r0, r1
 1917 0038 EAD1     		bne	.L128
 691:Middlewares/lvgl/src/core/lv_obj_style.c ****         switch (tr->prop) {
 1918              		.loc 1 691 9 is_stmt 1 view .LVU558
 692:Middlewares/lvgl/src/core/lv_obj_style.c **** 
 1919              		.loc 1 692 9 view .LVU559
 692:Middlewares/lvgl/src/core/lv_obj_style.c **** 
 1920              		.loc 1 692 19 is_stmt 0 view .LVU560
 1921 003a A188     		ldrh	r1, [r4, #4]
ARM GAS  /tmp/ccoxlgn6.s 			page 61


 692:Middlewares/lvgl/src/core/lv_obj_style.c **** 
 1922              		.loc 1 692 9 view .LVU561
 1923 003c 6829     		cmp	r1, #104
 1924 003e 2ED8     		bhi	.L130
 1925 0040 2029     		cmp	r1, #32
 1926 0042 C0F0A780 		bcc	.L131
 1927 0046 A1F12002 		sub	r2, r1, #32
 1928              	.LVL177:
 692:Middlewares/lvgl/src/core/lv_obj_style.c **** 
 1929              		.loc 1 692 9 view .LVU562
 1930 004a 482A     		cmp	r2, #72
 1931 004c 00F2A280 		bhi	.L131
 1932 0050 DFE802F0 		tbb	[pc, r2]
 1933              	.L133:
 1934 0054 52       		.byte	(.L136-.L133)/2
 1935 0055 A0       		.byte	(.L131-.L133)/2
 1936 0056 A0       		.byte	(.L131-.L133)/2
 1937 0057 A0       		.byte	(.L131-.L133)/2
 1938 0058 A0       		.byte	(.L131-.L133)/2
 1939 0059 A0       		.byte	(.L131-.L133)/2
 1940 005a A0       		.byte	(.L131-.L133)/2
 1941 005b A0       		.byte	(.L131-.L133)/2
 1942 005c A0       		.byte	(.L131-.L133)/2
 1943 005d A0       		.byte	(.L131-.L133)/2
 1944 005e A0       		.byte	(.L131-.L133)/2
 1945 005f A0       		.byte	(.L131-.L133)/2
 1946 0060 A0       		.byte	(.L131-.L133)/2
 1947 0061 A0       		.byte	(.L131-.L133)/2
 1948 0062 A0       		.byte	(.L131-.L133)/2
 1949 0063 A0       		.byte	(.L131-.L133)/2
 1950 0064 52       		.byte	(.L136-.L133)/2
 1951 0065 A0       		.byte	(.L131-.L133)/2
 1952 0066 A0       		.byte	(.L131-.L133)/2
 1953 0067 31       		.byte	(.L132-.L133)/2
 1954 0068 31       		.byte	(.L132-.L133)/2
 1955 0069 A0       		.byte	(.L131-.L133)/2
 1956 006a A0       		.byte	(.L131-.L133)/2
 1957 006b A0       		.byte	(.L131-.L133)/2
 1958 006c A0       		.byte	(.L131-.L133)/2
 1959 006d A0       		.byte	(.L131-.L133)/2
 1960 006e A0       		.byte	(.L131-.L133)/2
 1961 006f 52       		.byte	(.L136-.L133)/2
 1962 0070 A0       		.byte	(.L131-.L133)/2
 1963 0071 A0       		.byte	(.L131-.L133)/2
 1964 0072 A0       		.byte	(.L131-.L133)/2
 1965 0073 A0       		.byte	(.L131-.L133)/2
 1966 0074 A0       		.byte	(.L131-.L133)/2
 1967 0075 A0       		.byte	(.L131-.L133)/2
 1968 0076 A0       		.byte	(.L131-.L133)/2
 1969 0077 A0       		.byte	(.L131-.L133)/2
 1970 0078 52       		.byte	(.L136-.L133)/2
 1971 0079 A0       		.byte	(.L131-.L133)/2
 1972 007a A0       		.byte	(.L131-.L133)/2
 1973 007b 52       		.byte	(.L136-.L133)/2
 1974 007c A0       		.byte	(.L131-.L133)/2
 1975 007d A0       		.byte	(.L131-.L133)/2
 1976 007e A0       		.byte	(.L131-.L133)/2
ARM GAS  /tmp/ccoxlgn6.s 			page 62


 1977 007f A0       		.byte	(.L131-.L133)/2
 1978 0080 A0       		.byte	(.L131-.L133)/2
 1979 0081 A0       		.byte	(.L131-.L133)/2
 1980 0082 A0       		.byte	(.L131-.L133)/2
 1981 0083 A0       		.byte	(.L131-.L133)/2
 1982 0084 A0       		.byte	(.L131-.L133)/2
 1983 0085 A0       		.byte	(.L131-.L133)/2
 1984 0086 A0       		.byte	(.L131-.L133)/2
 1985 0087 A0       		.byte	(.L131-.L133)/2
 1986 0088 A0       		.byte	(.L131-.L133)/2
 1987 0089 A0       		.byte	(.L131-.L133)/2
 1988 008a A0       		.byte	(.L131-.L133)/2
 1989 008b A0       		.byte	(.L131-.L133)/2
 1990 008c A0       		.byte	(.L131-.L133)/2
 1991 008d A0       		.byte	(.L131-.L133)/2
 1992 008e A0       		.byte	(.L131-.L133)/2
 1993 008f A0       		.byte	(.L131-.L133)/2
 1994 0090 A0       		.byte	(.L131-.L133)/2
 1995 0091 A0       		.byte	(.L131-.L133)/2
 1996 0092 A0       		.byte	(.L131-.L133)/2
 1997 0093 A0       		.byte	(.L131-.L133)/2
 1998 0094 A0       		.byte	(.L131-.L133)/2
 1999 0095 A0       		.byte	(.L131-.L133)/2
 2000 0096 A0       		.byte	(.L131-.L133)/2
 2001 0097 44       		.byte	(.L135-.L133)/2
 2002 0098 A0       		.byte	(.L131-.L133)/2
 2003 0099 A0       		.byte	(.L131-.L133)/2
 2004 009a A0       		.byte	(.L131-.L133)/2
 2005 009b 2D       		.byte	(.L134-.L133)/2
 2006 009c 31       		.byte	(.L132-.L133)/2
 2007              	.LVL178:
 2008 009d 00       		.p2align 1
 2009              	.L130:
 692:Middlewares/lvgl/src/core/lv_obj_style.c **** 
 2010              		.loc 1 692 9 view .LVU563
 2011 009e 40F25742 		movw	r2, #1111
 2012              	.LVL179:
 692:Middlewares/lvgl/src/core/lv_obj_style.c **** 
 2013              		.loc 1 692 9 view .LVU564
 2014 00a2 9142     		cmp	r1, r2
 2015 00a4 28D0     		beq	.L136
 2016 00a6 41F25942 		movw	r2, #5209
 2017 00aa 9142     		cmp	r1, r2
 2018 00ac 72D1     		bne	.L131
 2019              	.L134:
 702:Middlewares/lvgl/src/core/lv_obj_style.c ****                 else value_final.ptr = tr->end_value.ptr;
 2020              		.loc 1 702 17 is_stmt 1 view .LVU565
 702:Middlewares/lvgl/src/core/lv_obj_style.c ****                 else value_final.ptr = tr->end_value.ptr;
 2021              		.loc 1 702 19 is_stmt 0 view .LVU566
 2022 00ae FE2F     		cmp	r7, #254
 2023 00b0 12DC     		bgt	.L139
 702:Middlewares/lvgl/src/core/lv_obj_style.c ****                 else value_final.ptr = tr->end_value.ptr;
 2024              		.loc 1 702 29 is_stmt 1 discriminator 1 view .LVU567
 702:Middlewares/lvgl/src/core/lv_obj_style.c ****                 else value_final.ptr = tr->end_value.ptr;
 2025              		.loc 1 702 62 is_stmt 0 discriminator 1 view .LVU568
 2026 00b2 E768     		ldr	r7, [r4, #12]
 2027              	.LVL180:
ARM GAS  /tmp/ccoxlgn6.s 			page 63


 702:Middlewares/lvgl/src/core/lv_obj_style.c ****                 else value_final.ptr = tr->end_value.ptr;
 2028              		.loc 1 702 62 discriminator 1 view .LVU569
 2029 00b4 02E0     		b	.L138
 2030              	.LVL181:
 2031              	.L132:
 697:Middlewares/lvgl/src/core/lv_obj_style.c ****                 else value_final.num = tr->end_value.num;
 2032              		.loc 1 697 17 is_stmt 1 view .LVU570
 697:Middlewares/lvgl/src/core/lv_obj_style.c ****                 else value_final.num = tr->end_value.num;
 2033              		.loc 1 697 19 is_stmt 0 view .LVU571
 2034 00b6 FE2F     		cmp	r7, #254
 2035 00b8 0CDC     		bgt	.L137
 697:Middlewares/lvgl/src/core/lv_obj_style.c ****                 else value_final.num = tr->end_value.num;
 2036              		.loc 1 697 29 is_stmt 1 discriminator 1 view .LVU572
 697:Middlewares/lvgl/src/core/lv_obj_style.c ****                 else value_final.num = tr->end_value.num;
 2037              		.loc 1 697 62 is_stmt 0 discriminator 1 view .LVU573
 2038 00ba E768     		ldr	r7, [r4, #12]
 2039              	.LVL182:
 2040              	.L138:
 729:Middlewares/lvgl/src/core/lv_obj_style.c ****         bool refr = true;
 2041              		.loc 1 729 9 is_stmt 1 view .LVU574
 730:Middlewares/lvgl/src/core/lv_obj_style.c ****         if(lv_style_get_prop(obj->styles[i].style, tr->prop, &old_value)) {
 2042              		.loc 1 730 9 view .LVU575
 731:Middlewares/lvgl/src/core/lv_obj_style.c ****             if(value_final.ptr == old_value.ptr && value_final.color.full == old_value.color.full &
 2043              		.loc 1 731 9 view .LVU576
 731:Middlewares/lvgl/src/core/lv_obj_style.c ****             if(value_final.ptr == old_value.ptr && value_final.color.full == old_value.color.full &
 2044              		.loc 1 731 12 is_stmt 0 view .LVU577
 2045 00bc 01AA     		add	r2, sp, #4
 2046 00be 1868     		ldr	r0, [r3]
 2047 00c0 FFF7FEFF 		bl	lv_style_get_prop
 2048              	.LVL183:
 731:Middlewares/lvgl/src/core/lv_obj_style.c ****             if(value_final.ptr == old_value.ptr && value_final.color.full == old_value.color.full &
 2049              		.loc 1 731 11 view .LVU578
 2050 00c4 0028     		cmp	r0, #0
 2051 00c6 78D0     		beq	.L151
 732:Middlewares/lvgl/src/core/lv_obj_style.c ****                 refr = false;
 2052              		.loc 1 732 13 is_stmt 1 view .LVU579
 732:Middlewares/lvgl/src/core/lv_obj_style.c ****                 refr = false;
 2053              		.loc 1 732 44 is_stmt 0 view .LVU580
 2054 00c8 019B     		ldr	r3, [sp, #4]
 732:Middlewares/lvgl/src/core/lv_obj_style.c ****                 refr = false;
 2055              		.loc 1 732 15 view .LVU581
 2056 00ca 9F42     		cmp	r7, r3
 2057 00cc 71D0     		beq	.L155
 730:Middlewares/lvgl/src/core/lv_obj_style.c ****         if(lv_style_get_prop(obj->styles[i].style, tr->prop, &old_value)) {
 2058              		.loc 1 730 14 view .LVU582
 2059 00ce 4FF00108 		mov	r8, #1
 2060 00d2 74E0     		b	.L147
 2061              	.LVL184:
 2062              	.L137:
 698:Middlewares/lvgl/src/core/lv_obj_style.c ****                 break;
 2063              		.loc 1 698 22 is_stmt 1 view .LVU583
 698:Middlewares/lvgl/src/core/lv_obj_style.c ****                 break;
 2064              		.loc 1 698 53 is_stmt 0 view .LVU584
 2065 00d4 2769     		ldr	r7, [r4, #16]
 2066              	.LVL185:
 698:Middlewares/lvgl/src/core/lv_obj_style.c ****                 break;
 2067              		.loc 1 698 53 view .LVU585
ARM GAS  /tmp/ccoxlgn6.s 			page 64


 2068 00d6 F1E7     		b	.L138
 2069              	.LVL186:
 2070              	.L139:
 703:Middlewares/lvgl/src/core/lv_obj_style.c ****                 break;
 2071              		.loc 1 703 22 is_stmt 1 view .LVU586
 703:Middlewares/lvgl/src/core/lv_obj_style.c ****                 break;
 2072              		.loc 1 703 53 is_stmt 0 view .LVU587
 2073 00d8 2769     		ldr	r7, [r4, #16]
 2074              	.LVL187:
 703:Middlewares/lvgl/src/core/lv_obj_style.c ****                 break;
 2075              		.loc 1 703 53 view .LVU588
 2076 00da EFE7     		b	.L138
 2077              	.LVL188:
 2078              	.L135:
 706:Middlewares/lvgl/src/core/lv_obj_style.c ****                 else if(tr->end_value.ptr == NULL) value_final.ptr = tr->start_value.ptr;
 2079              		.loc 1 706 17 is_stmt 1 view .LVU589
 706:Middlewares/lvgl/src/core/lv_obj_style.c ****                 else if(tr->end_value.ptr == NULL) value_final.ptr = tr->start_value.ptr;
 2080              		.loc 1 706 35 is_stmt 0 view .LVU590
 2081 00dc E268     		ldr	r2, [r4, #12]
 706:Middlewares/lvgl/src/core/lv_obj_style.c ****                 else if(tr->end_value.ptr == NULL) value_final.ptr = tr->start_value.ptr;
 2082              		.loc 1 706 19 view .LVU591
 2083 00de 2AB1     		cbz	r2, .L156
 707:Middlewares/lvgl/src/core/lv_obj_style.c ****                 else if(v < 128) value_final.ptr = tr->start_value.ptr;
 2084              		.loc 1 707 22 is_stmt 1 view .LVU592
 707:Middlewares/lvgl/src/core/lv_obj_style.c ****                 else if(v < 128) value_final.ptr = tr->start_value.ptr;
 2085              		.loc 1 707 38 is_stmt 0 view .LVU593
 2086 00e0 2069     		ldr	r0, [r4, #16]
 707:Middlewares/lvgl/src/core/lv_obj_style.c ****                 else if(v < 128) value_final.ptr = tr->start_value.ptr;
 2087              		.loc 1 707 24 view .LVU594
 2088 00e2 28B1     		cbz	r0, .L157
 708:Middlewares/lvgl/src/core/lv_obj_style.c ****                 else value_final.ptr = tr->end_value.ptr;
 2089              		.loc 1 708 22 is_stmt 1 view .LVU595
 708:Middlewares/lvgl/src/core/lv_obj_style.c ****                 else value_final.ptr = tr->end_value.ptr;
 2090              		.loc 1 708 24 is_stmt 0 view .LVU596
 2091 00e4 7F2F     		cmp	r7, #127
 2092 00e6 05DC     		bgt	.L142
 708:Middlewares/lvgl/src/core/lv_obj_style.c ****                 else value_final.ptr = tr->end_value.ptr;
 2093              		.loc 1 708 34 is_stmt 1 discriminator 1 view .LVU597
 708:Middlewares/lvgl/src/core/lv_obj_style.c ****                 else value_final.ptr = tr->end_value.ptr;
 2094              		.loc 1 708 50 is_stmt 0 discriminator 1 view .LVU598
 2095 00e8 1746     		mov	r7, r2
 2096              	.LVL189:
 708:Middlewares/lvgl/src/core/lv_obj_style.c ****                 else value_final.ptr = tr->end_value.ptr;
 2097              		.loc 1 708 50 discriminator 1 view .LVU599
 2098 00ea E7E7     		b	.L138
 2099              	.LVL190:
 2100              	.L156:
 706:Middlewares/lvgl/src/core/lv_obj_style.c ****                 else if(tr->end_value.ptr == NULL) value_final.ptr = tr->start_value.ptr;
 2101              		.loc 1 706 49 is_stmt 1 discriminator 1 view .LVU600
 706:Middlewares/lvgl/src/core/lv_obj_style.c ****                 else if(tr->end_value.ptr == NULL) value_final.ptr = tr->start_value.ptr;
 2102              		.loc 1 706 80 is_stmt 0 discriminator 1 view .LVU601
 2103 00ec 2769     		ldr	r7, [r4, #16]
 2104              	.LVL191:
 706:Middlewares/lvgl/src/core/lv_obj_style.c ****                 else if(tr->end_value.ptr == NULL) value_final.ptr = tr->start_value.ptr;
 2105              		.loc 1 706 80 discriminator 1 view .LVU602
 2106 00ee E5E7     		b	.L138
 2107              	.LVL192:
ARM GAS  /tmp/ccoxlgn6.s 			page 65


 2108              	.L157:
 707:Middlewares/lvgl/src/core/lv_obj_style.c ****                 else if(v < 128) value_final.ptr = tr->start_value.ptr;
 2109              		.loc 1 707 52 is_stmt 1 discriminator 1 view .LVU603
 707:Middlewares/lvgl/src/core/lv_obj_style.c ****                 else if(v < 128) value_final.ptr = tr->start_value.ptr;
 2110              		.loc 1 707 68 is_stmt 0 discriminator 1 view .LVU604
 2111 00f0 1746     		mov	r7, r2
 2112              	.LVL193:
 707:Middlewares/lvgl/src/core/lv_obj_style.c ****                 else if(v < 128) value_final.ptr = tr->start_value.ptr;
 2113              		.loc 1 707 68 discriminator 1 view .LVU605
 2114 00f2 E3E7     		b	.L138
 2115              	.LVL194:
 2116              	.L142:
 709:Middlewares/lvgl/src/core/lv_obj_style.c ****                 break;
 2117              		.loc 1 709 22 is_stmt 1 view .LVU606
 709:Middlewares/lvgl/src/core/lv_obj_style.c ****                 break;
 2118              		.loc 1 709 38 is_stmt 0 view .LVU607
 2119 00f4 0746     		mov	r7, r0
 2120              	.LVL195:
 709:Middlewares/lvgl/src/core/lv_obj_style.c ****                 break;
 2121              		.loc 1 709 38 view .LVU608
 2122 00f6 E1E7     		b	.L138
 2123              	.LVL196:
 2124              	.L136:
 717:Middlewares/lvgl/src/core/lv_obj_style.c ****                 else if(v >= 255) value_final.color = tr->end_value.color;
 2125              		.loc 1 717 17 is_stmt 1 view .LVU609
 717:Middlewares/lvgl/src/core/lv_obj_style.c ****                 else if(v >= 255) value_final.color = tr->end_value.color;
 2126              		.loc 1 717 19 is_stmt 0 view .LVU610
 2127 00f8 002F     		cmp	r7, #0
 2128 00fa 06DD     		ble	.L158
 718:Middlewares/lvgl/src/core/lv_obj_style.c ****                 else value_final.color = lv_color_mix(tr->end_value.color, tr->start_value.color, v
 2129              		.loc 1 718 22 is_stmt 1 view .LVU611
 718:Middlewares/lvgl/src/core/lv_obj_style.c ****                 else value_final.color = lv_color_mix(tr->end_value.color, tr->start_value.color, v
 2130              		.loc 1 718 24 is_stmt 0 view .LVU612
 2131 00fc FE2F     		cmp	r7, #254
 2132 00fe 09DD     		ble	.L144
 718:Middlewares/lvgl/src/core/lv_obj_style.c ****                 else value_final.color = lv_color_mix(tr->end_value.color, tr->start_value.color, v
 2133              		.loc 1 718 35 is_stmt 1 discriminator 1 view .LVU613
 718:Middlewares/lvgl/src/core/lv_obj_style.c ****                 else value_final.color = lv_color_mix(tr->end_value.color, tr->start_value.color, v
 2134              		.loc 1 718 53 is_stmt 0 discriminator 1 view .LVU614
 2135 0100 228A     		ldrh	r2, [r4, #16]
 2136 0102 0027     		movs	r7, #0
 2137              	.LVL197:
 718:Middlewares/lvgl/src/core/lv_obj_style.c ****                 else value_final.color = lv_color_mix(tr->end_value.color, tr->start_value.color, v
 2138              		.loc 1 718 53 discriminator 1 view .LVU615
 2139 0104 62F30F07 		bfi	r7, r2, #0, #16
 2140              	.LVL198:
 718:Middlewares/lvgl/src/core/lv_obj_style.c ****                 else value_final.color = lv_color_mix(tr->end_value.color, tr->start_value.color, v
 2141              		.loc 1 718 53 discriminator 1 view .LVU616
 2142 0108 D8E7     		b	.L138
 2143              	.LVL199:
 2144              	.L158:
 717:Middlewares/lvgl/src/core/lv_obj_style.c ****                 else if(v >= 255) value_final.color = tr->end_value.color;
 2145              		.loc 1 717 28 is_stmt 1 discriminator 1 view .LVU617
 717:Middlewares/lvgl/src/core/lv_obj_style.c ****                 else if(v >= 255) value_final.color = tr->end_value.color;
 2146              		.loc 1 717 46 is_stmt 0 discriminator 1 view .LVU618
 2147 010a A289     		ldrh	r2, [r4, #12]
 2148 010c 0027     		movs	r7, #0
ARM GAS  /tmp/ccoxlgn6.s 			page 66


 2149              	.LVL200:
 717:Middlewares/lvgl/src/core/lv_obj_style.c ****                 else if(v >= 255) value_final.color = tr->end_value.color;
 2150              		.loc 1 717 46 discriminator 1 view .LVU619
 2151 010e 62F30F07 		bfi	r7, r2, #0, #16
 2152              	.LVL201:
 717:Middlewares/lvgl/src/core/lv_obj_style.c ****                 else if(v >= 255) value_final.color = tr->end_value.color;
 2153              		.loc 1 717 46 discriminator 1 view .LVU620
 2154 0112 D3E7     		b	.L138
 2155              	.LVL202:
 2156              	.L144:
 719:Middlewares/lvgl/src/core/lv_obj_style.c ****                 break;
 2157              		.loc 1 719 22 is_stmt 1 view .LVU621
 719:Middlewares/lvgl/src/core/lv_obj_style.c ****                 break;
 2158              		.loc 1 719 42 is_stmt 0 view .LVU622
 2159 0114 FFB2     		uxtb	r7, r7
 2160              	.LVL203:
 719:Middlewares/lvgl/src/core/lv_obj_style.c ****                 break;
 2161              		.loc 1 719 42 view .LVU623
 2162 0116 B4F810E0 		ldrh	lr, [r4, #16]
 2163 011a B4F80C80 		ldrh	r8, [r4, #12]
 2164              	.LVL204:
 2165              	.LBB80:
 2166              	.LBI80:
 2167              		.file 3 "Middlewares/lvgl/src/core/../misc/lv_color.h"
   1:Middlewares/lvgl/src/core/../misc/lv_color.h **** /**
   2:Middlewares/lvgl/src/core/../misc/lv_color.h ****  * @file lv_color.h
   3:Middlewares/lvgl/src/core/../misc/lv_color.h ****  *
   4:Middlewares/lvgl/src/core/../misc/lv_color.h ****  */
   5:Middlewares/lvgl/src/core/../misc/lv_color.h **** 
   6:Middlewares/lvgl/src/core/../misc/lv_color.h **** #ifndef LV_COLOR_H
   7:Middlewares/lvgl/src/core/../misc/lv_color.h **** #define LV_COLOR_H
   8:Middlewares/lvgl/src/core/../misc/lv_color.h **** 
   9:Middlewares/lvgl/src/core/../misc/lv_color.h **** #ifdef __cplusplus
  10:Middlewares/lvgl/src/core/../misc/lv_color.h **** extern "C" {
  11:Middlewares/lvgl/src/core/../misc/lv_color.h **** #endif
  12:Middlewares/lvgl/src/core/../misc/lv_color.h **** 
  13:Middlewares/lvgl/src/core/../misc/lv_color.h **** /*********************
  14:Middlewares/lvgl/src/core/../misc/lv_color.h ****  *      INCLUDES
  15:Middlewares/lvgl/src/core/../misc/lv_color.h ****  *********************/
  16:Middlewares/lvgl/src/core/../misc/lv_color.h **** #include "../lv_conf_internal.h"
  17:Middlewares/lvgl/src/core/../misc/lv_color.h **** #include "lv_math.h"
  18:Middlewares/lvgl/src/core/../misc/lv_color.h **** #include "lv_types.h"
  19:Middlewares/lvgl/src/core/../misc/lv_color.h **** 
  20:Middlewares/lvgl/src/core/../misc/lv_color.h **** /*Error checking*/
  21:Middlewares/lvgl/src/core/../misc/lv_color.h **** #if LV_COLOR_DEPTH == 24
  22:Middlewares/lvgl/src/core/../misc/lv_color.h **** #error "LV_COLOR_DEPTH 24 is deprecated. Use LV_COLOR_DEPTH 32 instead (lv_conf.h)"
  23:Middlewares/lvgl/src/core/../misc/lv_color.h **** #endif
  24:Middlewares/lvgl/src/core/../misc/lv_color.h **** 
  25:Middlewares/lvgl/src/core/../misc/lv_color.h **** #if LV_COLOR_DEPTH != 32 && LV_COLOR_SCREEN_TRANSP != 0
  26:Middlewares/lvgl/src/core/../misc/lv_color.h **** #error "LV_COLOR_SCREEN_TRANSP requires LV_COLOR_DEPTH == 32. Set it in lv_conf.h"
  27:Middlewares/lvgl/src/core/../misc/lv_color.h **** #endif
  28:Middlewares/lvgl/src/core/../misc/lv_color.h **** 
  29:Middlewares/lvgl/src/core/../misc/lv_color.h **** #if LV_COLOR_DEPTH != 16 && LV_COLOR_16_SWAP != 0
  30:Middlewares/lvgl/src/core/../misc/lv_color.h **** #error "LV_COLOR_16_SWAP requires LV_COLOR_DEPTH == 16. Set it in lv_conf.h"
  31:Middlewares/lvgl/src/core/../misc/lv_color.h **** #endif
  32:Middlewares/lvgl/src/core/../misc/lv_color.h **** 
  33:Middlewares/lvgl/src/core/../misc/lv_color.h **** #include <stdint.h>
ARM GAS  /tmp/ccoxlgn6.s 			page 67


  34:Middlewares/lvgl/src/core/../misc/lv_color.h **** 
  35:Middlewares/lvgl/src/core/../misc/lv_color.h **** /*********************
  36:Middlewares/lvgl/src/core/../misc/lv_color.h ****  *      DEFINES
  37:Middlewares/lvgl/src/core/../misc/lv_color.h ****  *********************/
  38:Middlewares/lvgl/src/core/../misc/lv_color.h **** 
  39:Middlewares/lvgl/src/core/../misc/lv_color.h **** /**
  40:Middlewares/lvgl/src/core/../misc/lv_color.h ****  * Opacity percentages.
  41:Middlewares/lvgl/src/core/../misc/lv_color.h ****  */
  42:Middlewares/lvgl/src/core/../misc/lv_color.h **** enum {
  43:Middlewares/lvgl/src/core/../misc/lv_color.h ****     LV_OPA_TRANSP = 0,
  44:Middlewares/lvgl/src/core/../misc/lv_color.h ****     LV_OPA_0      = 0,
  45:Middlewares/lvgl/src/core/../misc/lv_color.h ****     LV_OPA_10     = 25,
  46:Middlewares/lvgl/src/core/../misc/lv_color.h ****     LV_OPA_20     = 51,
  47:Middlewares/lvgl/src/core/../misc/lv_color.h ****     LV_OPA_30     = 76,
  48:Middlewares/lvgl/src/core/../misc/lv_color.h ****     LV_OPA_40     = 102,
  49:Middlewares/lvgl/src/core/../misc/lv_color.h ****     LV_OPA_50     = 127,
  50:Middlewares/lvgl/src/core/../misc/lv_color.h ****     LV_OPA_60     = 153,
  51:Middlewares/lvgl/src/core/../misc/lv_color.h ****     LV_OPA_70     = 178,
  52:Middlewares/lvgl/src/core/../misc/lv_color.h ****     LV_OPA_80     = 204,
  53:Middlewares/lvgl/src/core/../misc/lv_color.h ****     LV_OPA_90     = 229,
  54:Middlewares/lvgl/src/core/../misc/lv_color.h ****     LV_OPA_100    = 255,
  55:Middlewares/lvgl/src/core/../misc/lv_color.h ****     LV_OPA_COVER  = 255,
  56:Middlewares/lvgl/src/core/../misc/lv_color.h **** };
  57:Middlewares/lvgl/src/core/../misc/lv_color.h **** 
  58:Middlewares/lvgl/src/core/../misc/lv_color.h **** #define LV_OPA_MIN 2    /*Opacities below this will be transparent*/
  59:Middlewares/lvgl/src/core/../misc/lv_color.h **** #define LV_OPA_MAX 253  /*Opacities above this will fully cover*/
  60:Middlewares/lvgl/src/core/../misc/lv_color.h **** 
  61:Middlewares/lvgl/src/core/../misc/lv_color.h **** #if LV_COLOR_DEPTH == 1
  62:Middlewares/lvgl/src/core/../misc/lv_color.h **** #define LV_COLOR_SIZE 8
  63:Middlewares/lvgl/src/core/../misc/lv_color.h **** #elif LV_COLOR_DEPTH == 8
  64:Middlewares/lvgl/src/core/../misc/lv_color.h **** #define LV_COLOR_SIZE 8
  65:Middlewares/lvgl/src/core/../misc/lv_color.h **** #elif LV_COLOR_DEPTH == 16
  66:Middlewares/lvgl/src/core/../misc/lv_color.h **** #define LV_COLOR_SIZE 16
  67:Middlewares/lvgl/src/core/../misc/lv_color.h **** #elif LV_COLOR_DEPTH == 32
  68:Middlewares/lvgl/src/core/../misc/lv_color.h **** #define LV_COLOR_SIZE 32
  69:Middlewares/lvgl/src/core/../misc/lv_color.h **** #else
  70:Middlewares/lvgl/src/core/../misc/lv_color.h **** #error "Invalid LV_COLOR_DEPTH in lv_conf.h! Set it to 1, 8, 16 or 32!"
  71:Middlewares/lvgl/src/core/../misc/lv_color.h **** #endif
  72:Middlewares/lvgl/src/core/../misc/lv_color.h **** 
  73:Middlewares/lvgl/src/core/../misc/lv_color.h **** /**
  74:Middlewares/lvgl/src/core/../misc/lv_color.h ****  * Adjust color mix functions rounding.
  75:Middlewares/lvgl/src/core/../misc/lv_color.h ****  * GPUs might calculate color mix (blending) differently.
  76:Middlewares/lvgl/src/core/../misc/lv_color.h ****  * Should be in range of 0..254
  77:Middlewares/lvgl/src/core/../misc/lv_color.h ****  * 0: no adjustment, get the integer part of the result (round down)
  78:Middlewares/lvgl/src/core/../misc/lv_color.h ****  * 64: round up from x.75
  79:Middlewares/lvgl/src/core/../misc/lv_color.h ****  * 128: round up from half
  80:Middlewares/lvgl/src/core/../misc/lv_color.h ****  * 192: round up from x.25
  81:Middlewares/lvgl/src/core/../misc/lv_color.h ****  * 254: round up*/
  82:Middlewares/lvgl/src/core/../misc/lv_color.h **** #ifndef LV_COLOR_MIX_ROUND_OFS
  83:Middlewares/lvgl/src/core/../misc/lv_color.h **** #if LV_COLOR_DEPTH == 32
  84:Middlewares/lvgl/src/core/../misc/lv_color.h **** #define LV_COLOR_MIX_ROUND_OFS 0
  85:Middlewares/lvgl/src/core/../misc/lv_color.h **** #else
  86:Middlewares/lvgl/src/core/../misc/lv_color.h **** #define LV_COLOR_MIX_ROUND_OFS 128
  87:Middlewares/lvgl/src/core/../misc/lv_color.h **** #endif
  88:Middlewares/lvgl/src/core/../misc/lv_color.h **** #endif
  89:Middlewares/lvgl/src/core/../misc/lv_color.h **** 
  90:Middlewares/lvgl/src/core/../misc/lv_color.h **** #if defined(__cplusplus) && !defined(_LV_COLOR_HAS_MODERN_CPP)
ARM GAS  /tmp/ccoxlgn6.s 			page 68


  91:Middlewares/lvgl/src/core/../misc/lv_color.h **** /**
  92:Middlewares/lvgl/src/core/../misc/lv_color.h **** * MSVC compiler's definition of the __cplusplus indicating 199711L regardless to C++ standard versi
  93:Middlewares/lvgl/src/core/../misc/lv_color.h **** * see https://devblogs.microsoft.com/cppblog/msvc-now-correctly-reports-cplusplus
  94:Middlewares/lvgl/src/core/../misc/lv_color.h **** * so we use _MSC_VER macro instead of __cplusplus
  95:Middlewares/lvgl/src/core/../misc/lv_color.h **** */
  96:Middlewares/lvgl/src/core/../misc/lv_color.h **** #ifdef _MSC_VER
  97:Middlewares/lvgl/src/core/../misc/lv_color.h **** #if _MSC_VER >= 1900 /*Visual Studio 2015*/
  98:Middlewares/lvgl/src/core/../misc/lv_color.h **** #define _LV_COLOR_HAS_MODERN_CPP 1
  99:Middlewares/lvgl/src/core/../misc/lv_color.h **** #endif
 100:Middlewares/lvgl/src/core/../misc/lv_color.h **** #else
 101:Middlewares/lvgl/src/core/../misc/lv_color.h **** #if __cplusplus >= 201103L
 102:Middlewares/lvgl/src/core/../misc/lv_color.h **** #define _LV_COLOR_HAS_MODERN_CPP 1
 103:Middlewares/lvgl/src/core/../misc/lv_color.h **** #endif
 104:Middlewares/lvgl/src/core/../misc/lv_color.h **** #endif
 105:Middlewares/lvgl/src/core/../misc/lv_color.h **** #endif /*__cplusplus*/
 106:Middlewares/lvgl/src/core/../misc/lv_color.h **** 
 107:Middlewares/lvgl/src/core/../misc/lv_color.h **** #ifndef _LV_COLOR_HAS_MODERN_CPP
 108:Middlewares/lvgl/src/core/../misc/lv_color.h **** #define _LV_COLOR_HAS_MODERN_CPP 0
 109:Middlewares/lvgl/src/core/../misc/lv_color.h **** #endif
 110:Middlewares/lvgl/src/core/../misc/lv_color.h **** 
 111:Middlewares/lvgl/src/core/../misc/lv_color.h **** #if _LV_COLOR_HAS_MODERN_CPP
 112:Middlewares/lvgl/src/core/../misc/lv_color.h **** /*Fix msvc compiler error C4576 inside C++ code*/
 113:Middlewares/lvgl/src/core/../misc/lv_color.h **** #define _LV_COLOR_MAKE_TYPE_HELPER lv_color_t
 114:Middlewares/lvgl/src/core/../misc/lv_color.h **** #else
 115:Middlewares/lvgl/src/core/../misc/lv_color.h **** #define _LV_COLOR_MAKE_TYPE_HELPER (lv_color_t)
 116:Middlewares/lvgl/src/core/../misc/lv_color.h **** #endif
 117:Middlewares/lvgl/src/core/../misc/lv_color.h **** 
 118:Middlewares/lvgl/src/core/../misc/lv_color.h **** /*---------------------------------------
 119:Middlewares/lvgl/src/core/../misc/lv_color.h ****  * Macros for all existing color depths
 120:Middlewares/lvgl/src/core/../misc/lv_color.h ****  * to set/get values of the color channels
 121:Middlewares/lvgl/src/core/../misc/lv_color.h ****  *------------------------------------------*/
 122:Middlewares/lvgl/src/core/../misc/lv_color.h **** # define LV_COLOR_SET_R1(c, v) (c).ch.red = (uint8_t)((v) & 0x1)
 123:Middlewares/lvgl/src/core/../misc/lv_color.h **** # define LV_COLOR_SET_G1(c, v) (c).ch.green = (uint8_t)((v) & 0x1)
 124:Middlewares/lvgl/src/core/../misc/lv_color.h **** # define LV_COLOR_SET_B1(c, v) (c).ch.blue = (uint8_t)((v) & 0x1)
 125:Middlewares/lvgl/src/core/../misc/lv_color.h **** # define LV_COLOR_SET_A1(c, v) do {} while(0)
 126:Middlewares/lvgl/src/core/../misc/lv_color.h **** 
 127:Middlewares/lvgl/src/core/../misc/lv_color.h **** # define LV_COLOR_GET_R1(c) (c).ch.red
 128:Middlewares/lvgl/src/core/../misc/lv_color.h **** # define LV_COLOR_GET_G1(c) (c).ch.green
 129:Middlewares/lvgl/src/core/../misc/lv_color.h **** # define LV_COLOR_GET_B1(c) (c).ch.blue
 130:Middlewares/lvgl/src/core/../misc/lv_color.h **** # define LV_COLOR_GET_A1(c) 0xFF
 131:Middlewares/lvgl/src/core/../misc/lv_color.h **** 
 132:Middlewares/lvgl/src/core/../misc/lv_color.h **** # define _LV_COLOR_ZERO_INITIALIZER1 {0x00}
 133:Middlewares/lvgl/src/core/../misc/lv_color.h **** # define LV_COLOR_MAKE1(r8, g8, b8)  {(uint8_t)((b8 >> 7) | (g8 >> 7) | (r8 >> 7))}
 134:Middlewares/lvgl/src/core/../misc/lv_color.h **** 
 135:Middlewares/lvgl/src/core/../misc/lv_color.h **** # define LV_COLOR_SET_R8(c, v) (c).ch.red = (uint8_t)((v) & 0x7U)
 136:Middlewares/lvgl/src/core/../misc/lv_color.h **** # define LV_COLOR_SET_G8(c, v) (c).ch.green = (uint8_t)((v) & 0x7U)
 137:Middlewares/lvgl/src/core/../misc/lv_color.h **** # define LV_COLOR_SET_B8(c, v) (c).ch.blue = (uint8_t)((v) & 0x3U)
 138:Middlewares/lvgl/src/core/../misc/lv_color.h **** # define LV_COLOR_SET_A8(c, v) do {} while(0)
 139:Middlewares/lvgl/src/core/../misc/lv_color.h **** 
 140:Middlewares/lvgl/src/core/../misc/lv_color.h **** # define LV_COLOR_GET_R8(c) (c).ch.red
 141:Middlewares/lvgl/src/core/../misc/lv_color.h **** # define LV_COLOR_GET_G8(c) (c).ch.green
 142:Middlewares/lvgl/src/core/../misc/lv_color.h **** # define LV_COLOR_GET_B8(c) (c).ch.blue
 143:Middlewares/lvgl/src/core/../misc/lv_color.h **** # define LV_COLOR_GET_A8(c) 0xFF
 144:Middlewares/lvgl/src/core/../misc/lv_color.h **** 
 145:Middlewares/lvgl/src/core/../misc/lv_color.h **** # define _LV_COLOR_ZERO_INITIALIZER8 _LV_COLOR_MAKE_TYPE_HELPER {{0x00, 0x00, 0x00}}
 146:Middlewares/lvgl/src/core/../misc/lv_color.h **** # define LV_COLOR_MAKE8(r8, g8, b8) _LV_COLOR_MAKE_TYPE_HELPER  {{(uint8_t)((b8 >> 6) & 0x3U), (uin
 147:Middlewares/lvgl/src/core/../misc/lv_color.h **** 
ARM GAS  /tmp/ccoxlgn6.s 			page 69


 148:Middlewares/lvgl/src/core/../misc/lv_color.h **** # define LV_COLOR_SET_R16(c, v) (c).ch.red = (uint8_t)((v) & 0x1FU)
 149:Middlewares/lvgl/src/core/../misc/lv_color.h **** #if LV_COLOR_16_SWAP == 0
 150:Middlewares/lvgl/src/core/../misc/lv_color.h **** # define LV_COLOR_SET_G16(c, v) (c).ch.green = (uint8_t)((v) & 0x3FU)
 151:Middlewares/lvgl/src/core/../misc/lv_color.h **** #else
 152:Middlewares/lvgl/src/core/../misc/lv_color.h **** # define LV_COLOR_SET_G16(c, v) {(c).ch.green_h = (uint8_t)(((v) >> 3) & 0x7); (c).ch.green_l = (ui
 153:Middlewares/lvgl/src/core/../misc/lv_color.h **** #endif
 154:Middlewares/lvgl/src/core/../misc/lv_color.h **** # define LV_COLOR_SET_B16(c, v) (c).ch.blue = (uint8_t)((v) & 0x1FU)
 155:Middlewares/lvgl/src/core/../misc/lv_color.h **** # define LV_COLOR_SET_A16(c, v) do {} while(0)
 156:Middlewares/lvgl/src/core/../misc/lv_color.h **** 
 157:Middlewares/lvgl/src/core/../misc/lv_color.h **** # define LV_COLOR_GET_R16(c) (c).ch.red
 158:Middlewares/lvgl/src/core/../misc/lv_color.h **** #if LV_COLOR_16_SWAP == 0
 159:Middlewares/lvgl/src/core/../misc/lv_color.h **** # define LV_COLOR_GET_G16(c) (c).ch.green
 160:Middlewares/lvgl/src/core/../misc/lv_color.h **** #else
 161:Middlewares/lvgl/src/core/../misc/lv_color.h **** # define LV_COLOR_GET_G16(c) (((c).ch.green_h << 3) + (c).ch.green_l)
 162:Middlewares/lvgl/src/core/../misc/lv_color.h **** #endif
 163:Middlewares/lvgl/src/core/../misc/lv_color.h **** # define LV_COLOR_GET_B16(c) (c).ch.blue
 164:Middlewares/lvgl/src/core/../misc/lv_color.h **** # define LV_COLOR_GET_A16(c) 0xFF
 165:Middlewares/lvgl/src/core/../misc/lv_color.h **** 
 166:Middlewares/lvgl/src/core/../misc/lv_color.h **** #if LV_COLOR_16_SWAP == 0
 167:Middlewares/lvgl/src/core/../misc/lv_color.h **** # define _LV_COLOR_ZERO_INITIALIZER16  {{0x00, 0x00, 0x00}}
 168:Middlewares/lvgl/src/core/../misc/lv_color.h **** # define LV_COLOR_MAKE16(r8, g8, b8) {{(uint8_t)((b8 >> 3) & 0x1FU), (uint8_t)((g8 >> 2) & 0x3FU), 
 169:Middlewares/lvgl/src/core/../misc/lv_color.h **** #else
 170:Middlewares/lvgl/src/core/../misc/lv_color.h **** # define _LV_COLOR_ZERO_INITIALIZER16 {{0x00, 0x00, 0x00, 0x00}}
 171:Middlewares/lvgl/src/core/../misc/lv_color.h **** # define LV_COLOR_MAKE16(r8, g8, b8) {{(uint8_t)((g8 >> 5) & 0x7U), (uint8_t)((r8 >> 3) & 0x1FU), (
 172:Middlewares/lvgl/src/core/../misc/lv_color.h **** #endif
 173:Middlewares/lvgl/src/core/../misc/lv_color.h **** 
 174:Middlewares/lvgl/src/core/../misc/lv_color.h **** # define LV_COLOR_SET_R32(c, v) (c).ch.red = (uint8_t)((v) & 0xFF)
 175:Middlewares/lvgl/src/core/../misc/lv_color.h **** # define LV_COLOR_SET_G32(c, v) (c).ch.green = (uint8_t)((v) & 0xFF)
 176:Middlewares/lvgl/src/core/../misc/lv_color.h **** # define LV_COLOR_SET_B32(c, v) (c).ch.blue = (uint8_t)((v) & 0xFF)
 177:Middlewares/lvgl/src/core/../misc/lv_color.h **** # define LV_COLOR_SET_A32(c, v) (c).ch.alpha = (uint8_t)((v) & 0xFF)
 178:Middlewares/lvgl/src/core/../misc/lv_color.h **** 
 179:Middlewares/lvgl/src/core/../misc/lv_color.h **** # define LV_COLOR_GET_R32(c) (c).ch.red
 180:Middlewares/lvgl/src/core/../misc/lv_color.h **** # define LV_COLOR_GET_G32(c) (c).ch.green
 181:Middlewares/lvgl/src/core/../misc/lv_color.h **** # define LV_COLOR_GET_B32(c) (c).ch.blue
 182:Middlewares/lvgl/src/core/../misc/lv_color.h **** # define LV_COLOR_GET_A32(c) (c).ch.alpha
 183:Middlewares/lvgl/src/core/../misc/lv_color.h **** 
 184:Middlewares/lvgl/src/core/../misc/lv_color.h **** # define _LV_COLOR_ZERO_INITIALIZER32  {{0x00, 0x00, 0x00, 0x00}}
 185:Middlewares/lvgl/src/core/../misc/lv_color.h **** # define LV_COLOR_MAKE32(r8, g8, b8) {{b8, g8, r8, 0xff}} /*Fix 0xff alpha*/
 186:Middlewares/lvgl/src/core/../misc/lv_color.h **** 
 187:Middlewares/lvgl/src/core/../misc/lv_color.h **** /*---------------------------------------
 188:Middlewares/lvgl/src/core/../misc/lv_color.h ****  * Macros for the current color depth
 189:Middlewares/lvgl/src/core/../misc/lv_color.h ****  * to set/get values of the color channels
 190:Middlewares/lvgl/src/core/../misc/lv_color.h ****  *------------------------------------------*/
 191:Middlewares/lvgl/src/core/../misc/lv_color.h **** #define LV_COLOR_SET_R(c, v) LV_CONCAT(LV_COLOR_SET_R, LV_COLOR_DEPTH)(c, v)
 192:Middlewares/lvgl/src/core/../misc/lv_color.h **** #define LV_COLOR_SET_G(c, v) LV_CONCAT(LV_COLOR_SET_G, LV_COLOR_DEPTH)(c, v)
 193:Middlewares/lvgl/src/core/../misc/lv_color.h **** #define LV_COLOR_SET_B(c, v) LV_CONCAT(LV_COLOR_SET_B, LV_COLOR_DEPTH)(c, v)
 194:Middlewares/lvgl/src/core/../misc/lv_color.h **** #define LV_COLOR_SET_A(c, v) LV_CONCAT(LV_COLOR_SET_A, LV_COLOR_DEPTH)(c, v)
 195:Middlewares/lvgl/src/core/../misc/lv_color.h **** 
 196:Middlewares/lvgl/src/core/../misc/lv_color.h **** #define LV_COLOR_GET_R(c) LV_CONCAT(LV_COLOR_GET_R, LV_COLOR_DEPTH)(c)
 197:Middlewares/lvgl/src/core/../misc/lv_color.h **** #define LV_COLOR_GET_G(c) LV_CONCAT(LV_COLOR_GET_G, LV_COLOR_DEPTH)(c)
 198:Middlewares/lvgl/src/core/../misc/lv_color.h **** #define LV_COLOR_GET_B(c) LV_CONCAT(LV_COLOR_GET_B, LV_COLOR_DEPTH)(c)
 199:Middlewares/lvgl/src/core/../misc/lv_color.h **** #define LV_COLOR_GET_A(c) LV_CONCAT(LV_COLOR_GET_A, LV_COLOR_DEPTH)(c)
 200:Middlewares/lvgl/src/core/../misc/lv_color.h **** 
 201:Middlewares/lvgl/src/core/../misc/lv_color.h **** #define _LV_COLOR_ZERO_INITIALIZER LV_CONCAT(_LV_COLOR_ZERO_INITIALIZER, LV_COLOR_DEPTH)
 202:Middlewares/lvgl/src/core/../misc/lv_color.h **** #define LV_COLOR_MAKE(r8, g8, b8) LV_CONCAT(LV_COLOR_MAKE, LV_COLOR_DEPTH)(r8, g8, b8)
 203:Middlewares/lvgl/src/core/../misc/lv_color.h **** 
 204:Middlewares/lvgl/src/core/../misc/lv_color.h **** #define LV_UDIV255(x) ((uint32_t)((uint32_t) (x) * 0x8081) >> 0x17)
ARM GAS  /tmp/ccoxlgn6.s 			page 70


 205:Middlewares/lvgl/src/core/../misc/lv_color.h **** 
 206:Middlewares/lvgl/src/core/../misc/lv_color.h **** /**********************
 207:Middlewares/lvgl/src/core/../misc/lv_color.h ****  *      TYPEDEFS
 208:Middlewares/lvgl/src/core/../misc/lv_color.h ****  **********************/
 209:Middlewares/lvgl/src/core/../misc/lv_color.h **** 
 210:Middlewares/lvgl/src/core/../misc/lv_color.h **** typedef union {
 211:Middlewares/lvgl/src/core/../misc/lv_color.h ****     uint8_t full; /*must be declared first to set all bits of byte via initializer list*/
 212:Middlewares/lvgl/src/core/../misc/lv_color.h ****     union {
 213:Middlewares/lvgl/src/core/../misc/lv_color.h ****         uint8_t blue : 1;
 214:Middlewares/lvgl/src/core/../misc/lv_color.h ****         uint8_t green : 1;
 215:Middlewares/lvgl/src/core/../misc/lv_color.h ****         uint8_t red : 1;
 216:Middlewares/lvgl/src/core/../misc/lv_color.h ****     } ch;
 217:Middlewares/lvgl/src/core/../misc/lv_color.h **** } lv_color1_t;
 218:Middlewares/lvgl/src/core/../misc/lv_color.h **** 
 219:Middlewares/lvgl/src/core/../misc/lv_color.h **** typedef union {
 220:Middlewares/lvgl/src/core/../misc/lv_color.h ****     struct {
 221:Middlewares/lvgl/src/core/../misc/lv_color.h ****         uint8_t blue : 2;
 222:Middlewares/lvgl/src/core/../misc/lv_color.h ****         uint8_t green : 3;
 223:Middlewares/lvgl/src/core/../misc/lv_color.h ****         uint8_t red : 3;
 224:Middlewares/lvgl/src/core/../misc/lv_color.h ****     } ch;
 225:Middlewares/lvgl/src/core/../misc/lv_color.h ****     uint8_t full;
 226:Middlewares/lvgl/src/core/../misc/lv_color.h **** } lv_color8_t;
 227:Middlewares/lvgl/src/core/../misc/lv_color.h **** 
 228:Middlewares/lvgl/src/core/../misc/lv_color.h **** typedef union {
 229:Middlewares/lvgl/src/core/../misc/lv_color.h ****     struct {
 230:Middlewares/lvgl/src/core/../misc/lv_color.h **** #if LV_COLOR_16_SWAP == 0
 231:Middlewares/lvgl/src/core/../misc/lv_color.h ****         uint16_t blue : 5;
 232:Middlewares/lvgl/src/core/../misc/lv_color.h ****         uint16_t green : 6;
 233:Middlewares/lvgl/src/core/../misc/lv_color.h ****         uint16_t red : 5;
 234:Middlewares/lvgl/src/core/../misc/lv_color.h **** #else
 235:Middlewares/lvgl/src/core/../misc/lv_color.h ****         uint16_t green_h : 3;
 236:Middlewares/lvgl/src/core/../misc/lv_color.h ****         uint16_t red : 5;
 237:Middlewares/lvgl/src/core/../misc/lv_color.h ****         uint16_t blue : 5;
 238:Middlewares/lvgl/src/core/../misc/lv_color.h ****         uint16_t green_l : 3;
 239:Middlewares/lvgl/src/core/../misc/lv_color.h **** #endif
 240:Middlewares/lvgl/src/core/../misc/lv_color.h ****     } ch;
 241:Middlewares/lvgl/src/core/../misc/lv_color.h ****     uint16_t full;
 242:Middlewares/lvgl/src/core/../misc/lv_color.h **** } lv_color16_t;
 243:Middlewares/lvgl/src/core/../misc/lv_color.h **** 
 244:Middlewares/lvgl/src/core/../misc/lv_color.h **** typedef union {
 245:Middlewares/lvgl/src/core/../misc/lv_color.h ****     struct {
 246:Middlewares/lvgl/src/core/../misc/lv_color.h ****         uint8_t blue;
 247:Middlewares/lvgl/src/core/../misc/lv_color.h ****         uint8_t green;
