ARM GAS  /tmp/cckMVbUO.s 			page 1


   1              		.cpu cortex-m7
   2              		.arch armv7e-m
   3              		.fpu fpv5-d16
   4              		.eabi_attribute 28, 1
   5              		.eabi_attribute 20, 1
   6              		.eabi_attribute 21, 1
   7              		.eabi_attribute 23, 3
   8              		.eabi_attribute 24, 1
   9              		.eabi_attribute 25, 1
  10              		.eabi_attribute 26, 1
  11              		.eabi_attribute 30, 1
  12              		.eabi_attribute 34, 1
  13              		.eabi_attribute 18, 4
  14              		.file	"lv_obj_draw.c"
  15              		.text
  16              	.Ltext0:
  17              		.cfi_sections	.debug_frame
  18              		.section	.text.lv_obj_init_draw_rect_dsc,"ax",%progbits
  19              		.align	1
  20              		.global	lv_obj_init_draw_rect_dsc
  21              		.syntax unified
  22              		.thumb
  23              		.thumb_func
  25              	lv_obj_init_draw_rect_dsc:
  26              	.LVL0:
  27              	.LFB153:
  28              		.file 1 "Middlewares/lvgl/src/core/lv_obj_draw.c"
   1:Middlewares/lvgl/src/core/lv_obj_draw.c **** /**
   2:Middlewares/lvgl/src/core/lv_obj_draw.c ****  * @file lv_obj_draw.c
   3:Middlewares/lvgl/src/core/lv_obj_draw.c ****  *
   4:Middlewares/lvgl/src/core/lv_obj_draw.c ****  */
   5:Middlewares/lvgl/src/core/lv_obj_draw.c **** 
   6:Middlewares/lvgl/src/core/lv_obj_draw.c **** /*********************
   7:Middlewares/lvgl/src/core/lv_obj_draw.c ****  *      INCLUDES
   8:Middlewares/lvgl/src/core/lv_obj_draw.c ****  *********************/
   9:Middlewares/lvgl/src/core/lv_obj_draw.c **** #include "lv_obj_draw.h"
  10:Middlewares/lvgl/src/core/lv_obj_draw.c **** #include "lv_obj.h"
  11:Middlewares/lvgl/src/core/lv_obj_draw.c **** #include "lv_disp.h"
  12:Middlewares/lvgl/src/core/lv_obj_draw.c **** #include "lv_indev.h"
  13:Middlewares/lvgl/src/core/lv_obj_draw.c **** 
  14:Middlewares/lvgl/src/core/lv_obj_draw.c **** /*********************
  15:Middlewares/lvgl/src/core/lv_obj_draw.c ****  *      DEFINES
  16:Middlewares/lvgl/src/core/lv_obj_draw.c ****  *********************/
  17:Middlewares/lvgl/src/core/lv_obj_draw.c **** #define MY_CLASS &lv_obj_class
  18:Middlewares/lvgl/src/core/lv_obj_draw.c **** 
  19:Middlewares/lvgl/src/core/lv_obj_draw.c **** /**********************
  20:Middlewares/lvgl/src/core/lv_obj_draw.c ****  *      TYPEDEFS
  21:Middlewares/lvgl/src/core/lv_obj_draw.c ****  **********************/
  22:Middlewares/lvgl/src/core/lv_obj_draw.c **** 
  23:Middlewares/lvgl/src/core/lv_obj_draw.c **** /**********************
  24:Middlewares/lvgl/src/core/lv_obj_draw.c ****  *  STATIC PROTOTYPES
  25:Middlewares/lvgl/src/core/lv_obj_draw.c ****  **********************/
  26:Middlewares/lvgl/src/core/lv_obj_draw.c **** 
  27:Middlewares/lvgl/src/core/lv_obj_draw.c **** /**********************
  28:Middlewares/lvgl/src/core/lv_obj_draw.c ****  *  STATIC VARIABLES
  29:Middlewares/lvgl/src/core/lv_obj_draw.c ****  **********************/
  30:Middlewares/lvgl/src/core/lv_obj_draw.c **** 
ARM GAS  /tmp/cckMVbUO.s 			page 2


  31:Middlewares/lvgl/src/core/lv_obj_draw.c **** /**********************
  32:Middlewares/lvgl/src/core/lv_obj_draw.c ****  *      MACROS
  33:Middlewares/lvgl/src/core/lv_obj_draw.c ****  **********************/
  34:Middlewares/lvgl/src/core/lv_obj_draw.c **** 
  35:Middlewares/lvgl/src/core/lv_obj_draw.c **** /**********************
  36:Middlewares/lvgl/src/core/lv_obj_draw.c ****  *   GLOBAL FUNCTIONS
  37:Middlewares/lvgl/src/core/lv_obj_draw.c ****  **********************/
  38:Middlewares/lvgl/src/core/lv_obj_draw.c **** 
  39:Middlewares/lvgl/src/core/lv_obj_draw.c **** void lv_obj_init_draw_rect_dsc(lv_obj_t * obj, uint32_t part, lv_draw_rect_dsc_t * draw_dsc)
  40:Middlewares/lvgl/src/core/lv_obj_draw.c **** {
  29              		.loc 1 40 1 view -0
  30              		.cfi_startproc
  31              		@ args = 0, pretend = 0, frame = 0
  32              		@ frame_needed = 0, uses_anonymous_args = 0
  33              		.loc 1 40 1 is_stmt 0 view .LVU1
  34 0000 2DE9F041 		push	{r4, r5, r6, r7, r8, lr}
  35              	.LCFI0:
  36              		.cfi_def_cfa_offset 24
  37              		.cfi_offset 4, -24
  38              		.cfi_offset 5, -20
  39              		.cfi_offset 6, -16
  40              		.cfi_offset 7, -12
  41              		.cfi_offset 8, -8
  42              		.cfi_offset 14, -4
  43 0004 0646     		mov	r6, r0
  44 0006 0D46     		mov	r5, r1
  45 0008 1446     		mov	r4, r2
  41:Middlewares/lvgl/src/core/lv_obj_draw.c **** 
  42:Middlewares/lvgl/src/core/lv_obj_draw.c **** #if LV_DRAW_COMPLEX
  43:Middlewares/lvgl/src/core/lv_obj_draw.c ****     draw_dsc->radius = lv_obj_get_style_radius(obj, part);
  46              		.loc 1 43 5 is_stmt 1 view .LVU2
  47              	.LVL1:
  48              	.LBB150:
  49              	.LBI150:
  50              		.file 2 "Middlewares/lvgl/src/core/lv_obj_style_gen.h"
   1:Middlewares/lvgl/src/core/lv_obj_style_gen.h **** static inline lv_coord_t lv_obj_get_style_width(const struct _lv_obj_t * obj, uint32_t part)
   2:Middlewares/lvgl/src/core/lv_obj_style_gen.h **** {
   3:Middlewares/lvgl/src/core/lv_obj_style_gen.h ****     lv_style_value_t v = lv_obj_get_style_prop(obj, part, LV_STYLE_WIDTH);
   4:Middlewares/lvgl/src/core/lv_obj_style_gen.h ****     return (lv_coord_t)v.num;
   5:Middlewares/lvgl/src/core/lv_obj_style_gen.h **** }
   6:Middlewares/lvgl/src/core/lv_obj_style_gen.h **** 
   7:Middlewares/lvgl/src/core/lv_obj_style_gen.h **** static inline lv_coord_t lv_obj_get_style_min_width(const struct _lv_obj_t * obj, uint32_t part)
   8:Middlewares/lvgl/src/core/lv_obj_style_gen.h **** {
   9:Middlewares/lvgl/src/core/lv_obj_style_gen.h ****     lv_style_value_t v = lv_obj_get_style_prop(obj, part, LV_STYLE_MIN_WIDTH);
  10:Middlewares/lvgl/src/core/lv_obj_style_gen.h ****     return (lv_coord_t)v.num;
  11:Middlewares/lvgl/src/core/lv_obj_style_gen.h **** }
  12:Middlewares/lvgl/src/core/lv_obj_style_gen.h **** 
  13:Middlewares/lvgl/src/core/lv_obj_style_gen.h **** static inline lv_coord_t lv_obj_get_style_max_width(const struct _lv_obj_t * obj, uint32_t part)
  14:Middlewares/lvgl/src/core/lv_obj_style_gen.h **** {
  15:Middlewares/lvgl/src/core/lv_obj_style_gen.h ****     lv_style_value_t v = lv_obj_get_style_prop(obj, part, LV_STYLE_MAX_WIDTH);
  16:Middlewares/lvgl/src/core/lv_obj_style_gen.h ****     return (lv_coord_t)v.num;
  17:Middlewares/lvgl/src/core/lv_obj_style_gen.h **** }
  18:Middlewares/lvgl/src/core/lv_obj_style_gen.h **** 
  19:Middlewares/lvgl/src/core/lv_obj_style_gen.h **** static inline lv_coord_t lv_obj_get_style_height(const struct _lv_obj_t * obj, uint32_t part)
  20:Middlewares/lvgl/src/core/lv_obj_style_gen.h **** {
  21:Middlewares/lvgl/src/core/lv_obj_style_gen.h ****     lv_style_value_t v = lv_obj_get_style_prop(obj, part, LV_STYLE_HEIGHT);
  22:Middlewares/lvgl/src/core/lv_obj_style_gen.h ****     return (lv_coord_t)v.num;
ARM GAS  /tmp/cckMVbUO.s 			page 3


  23:Middlewares/lvgl/src/core/lv_obj_style_gen.h **** }
  24:Middlewares/lvgl/src/core/lv_obj_style_gen.h **** 
  25:Middlewares/lvgl/src/core/lv_obj_style_gen.h **** static inline lv_coord_t lv_obj_get_style_min_height(const struct _lv_obj_t * obj, uint32_t part)
  26:Middlewares/lvgl/src/core/lv_obj_style_gen.h **** {
  27:Middlewares/lvgl/src/core/lv_obj_style_gen.h ****     lv_style_value_t v = lv_obj_get_style_prop(obj, part, LV_STYLE_MIN_HEIGHT);
  28:Middlewares/lvgl/src/core/lv_obj_style_gen.h ****     return (lv_coord_t)v.num;
  29:Middlewares/lvgl/src/core/lv_obj_style_gen.h **** }
  30:Middlewares/lvgl/src/core/lv_obj_style_gen.h **** 
  31:Middlewares/lvgl/src/core/lv_obj_style_gen.h **** static inline lv_coord_t lv_obj_get_style_max_height(const struct _lv_obj_t * obj, uint32_t part)
  32:Middlewares/lvgl/src/core/lv_obj_style_gen.h **** {
  33:Middlewares/lvgl/src/core/lv_obj_style_gen.h ****     lv_style_value_t v = lv_obj_get_style_prop(obj, part, LV_STYLE_MAX_HEIGHT);
  34:Middlewares/lvgl/src/core/lv_obj_style_gen.h ****     return (lv_coord_t)v.num;
  35:Middlewares/lvgl/src/core/lv_obj_style_gen.h **** }
  36:Middlewares/lvgl/src/core/lv_obj_style_gen.h **** 
  37:Middlewares/lvgl/src/core/lv_obj_style_gen.h **** static inline lv_coord_t lv_obj_get_style_x(const struct _lv_obj_t * obj, uint32_t part)
  38:Middlewares/lvgl/src/core/lv_obj_style_gen.h **** {
  39:Middlewares/lvgl/src/core/lv_obj_style_gen.h ****     lv_style_value_t v = lv_obj_get_style_prop(obj, part, LV_STYLE_X);
  40:Middlewares/lvgl/src/core/lv_obj_style_gen.h ****     return (lv_coord_t)v.num;
  41:Middlewares/lvgl/src/core/lv_obj_style_gen.h **** }
  42:Middlewares/lvgl/src/core/lv_obj_style_gen.h **** 
  43:Middlewares/lvgl/src/core/lv_obj_style_gen.h **** static inline lv_coord_t lv_obj_get_style_y(const struct _lv_obj_t * obj, uint32_t part)
  44:Middlewares/lvgl/src/core/lv_obj_style_gen.h **** {
  45:Middlewares/lvgl/src/core/lv_obj_style_gen.h ****     lv_style_value_t v = lv_obj_get_style_prop(obj, part, LV_STYLE_Y);
  46:Middlewares/lvgl/src/core/lv_obj_style_gen.h ****     return (lv_coord_t)v.num;
  47:Middlewares/lvgl/src/core/lv_obj_style_gen.h **** }
  48:Middlewares/lvgl/src/core/lv_obj_style_gen.h **** 
  49:Middlewares/lvgl/src/core/lv_obj_style_gen.h **** static inline lv_align_t lv_obj_get_style_align(const struct _lv_obj_t * obj, uint32_t part)
  50:Middlewares/lvgl/src/core/lv_obj_style_gen.h **** {
  51:Middlewares/lvgl/src/core/lv_obj_style_gen.h ****     lv_style_value_t v = lv_obj_get_style_prop(obj, part, LV_STYLE_ALIGN);
  52:Middlewares/lvgl/src/core/lv_obj_style_gen.h ****     return (lv_align_t)v.num;
  53:Middlewares/lvgl/src/core/lv_obj_style_gen.h **** }
  54:Middlewares/lvgl/src/core/lv_obj_style_gen.h **** 
  55:Middlewares/lvgl/src/core/lv_obj_style_gen.h **** static inline lv_coord_t lv_obj_get_style_transform_width(const struct _lv_obj_t * obj, uint32_t pa
  56:Middlewares/lvgl/src/core/lv_obj_style_gen.h **** {
  57:Middlewares/lvgl/src/core/lv_obj_style_gen.h ****     lv_style_value_t v = lv_obj_get_style_prop(obj, part, LV_STYLE_TRANSFORM_WIDTH);
  58:Middlewares/lvgl/src/core/lv_obj_style_gen.h ****     return (lv_coord_t)v.num;
  59:Middlewares/lvgl/src/core/lv_obj_style_gen.h **** }
  60:Middlewares/lvgl/src/core/lv_obj_style_gen.h **** 
  61:Middlewares/lvgl/src/core/lv_obj_style_gen.h **** static inline lv_coord_t lv_obj_get_style_transform_height(const struct _lv_obj_t * obj, uint32_t p
  62:Middlewares/lvgl/src/core/lv_obj_style_gen.h **** {
  63:Middlewares/lvgl/src/core/lv_obj_style_gen.h ****     lv_style_value_t v = lv_obj_get_style_prop(obj, part, LV_STYLE_TRANSFORM_HEIGHT);
  64:Middlewares/lvgl/src/core/lv_obj_style_gen.h ****     return (lv_coord_t)v.num;
  65:Middlewares/lvgl/src/core/lv_obj_style_gen.h **** }
  66:Middlewares/lvgl/src/core/lv_obj_style_gen.h **** 
  67:Middlewares/lvgl/src/core/lv_obj_style_gen.h **** static inline lv_coord_t lv_obj_get_style_translate_x(const struct _lv_obj_t * obj, uint32_t part)
  68:Middlewares/lvgl/src/core/lv_obj_style_gen.h **** {
  69:Middlewares/lvgl/src/core/lv_obj_style_gen.h ****     lv_style_value_t v = lv_obj_get_style_prop(obj, part, LV_STYLE_TRANSLATE_X);
  70:Middlewares/lvgl/src/core/lv_obj_style_gen.h ****     return (lv_coord_t)v.num;
  71:Middlewares/lvgl/src/core/lv_obj_style_gen.h **** }
  72:Middlewares/lvgl/src/core/lv_obj_style_gen.h **** 
  73:Middlewares/lvgl/src/core/lv_obj_style_gen.h **** static inline lv_coord_t lv_obj_get_style_translate_y(const struct _lv_obj_t * obj, uint32_t part)
  74:Middlewares/lvgl/src/core/lv_obj_style_gen.h **** {
  75:Middlewares/lvgl/src/core/lv_obj_style_gen.h ****     lv_style_value_t v = lv_obj_get_style_prop(obj, part, LV_STYLE_TRANSLATE_Y);
  76:Middlewares/lvgl/src/core/lv_obj_style_gen.h ****     return (lv_coord_t)v.num;
  77:Middlewares/lvgl/src/core/lv_obj_style_gen.h **** }
  78:Middlewares/lvgl/src/core/lv_obj_style_gen.h **** 
  79:Middlewares/lvgl/src/core/lv_obj_style_gen.h **** static inline lv_coord_t lv_obj_get_style_transform_zoom(const struct _lv_obj_t * obj, uint32_t par
ARM GAS  /tmp/cckMVbUO.s 			page 4


  80:Middlewares/lvgl/src/core/lv_obj_style_gen.h **** {
  81:Middlewares/lvgl/src/core/lv_obj_style_gen.h ****     lv_style_value_t v = lv_obj_get_style_prop(obj, part, LV_STYLE_TRANSFORM_ZOOM);
  82:Middlewares/lvgl/src/core/lv_obj_style_gen.h ****     return (lv_coord_t)v.num;
  83:Middlewares/lvgl/src/core/lv_obj_style_gen.h **** }
  84:Middlewares/lvgl/src/core/lv_obj_style_gen.h **** 
  85:Middlewares/lvgl/src/core/lv_obj_style_gen.h **** static inline lv_coord_t lv_obj_get_style_transform_angle(const struct _lv_obj_t * obj, uint32_t pa
  86:Middlewares/lvgl/src/core/lv_obj_style_gen.h **** {
  87:Middlewares/lvgl/src/core/lv_obj_style_gen.h ****     lv_style_value_t v = lv_obj_get_style_prop(obj, part, LV_STYLE_TRANSFORM_ANGLE);
  88:Middlewares/lvgl/src/core/lv_obj_style_gen.h ****     return (lv_coord_t)v.num;
  89:Middlewares/lvgl/src/core/lv_obj_style_gen.h **** }
  90:Middlewares/lvgl/src/core/lv_obj_style_gen.h **** 
  91:Middlewares/lvgl/src/core/lv_obj_style_gen.h **** static inline lv_coord_t lv_obj_get_style_pad_top(const struct _lv_obj_t * obj, uint32_t part)
  92:Middlewares/lvgl/src/core/lv_obj_style_gen.h **** {
  93:Middlewares/lvgl/src/core/lv_obj_style_gen.h ****     lv_style_value_t v = lv_obj_get_style_prop(obj, part, LV_STYLE_PAD_TOP);
  94:Middlewares/lvgl/src/core/lv_obj_style_gen.h ****     return (lv_coord_t)v.num;
  95:Middlewares/lvgl/src/core/lv_obj_style_gen.h **** }
  96:Middlewares/lvgl/src/core/lv_obj_style_gen.h **** 
  97:Middlewares/lvgl/src/core/lv_obj_style_gen.h **** static inline lv_coord_t lv_obj_get_style_pad_bottom(const struct _lv_obj_t * obj, uint32_t part)
  98:Middlewares/lvgl/src/core/lv_obj_style_gen.h **** {
  99:Middlewares/lvgl/src/core/lv_obj_style_gen.h ****     lv_style_value_t v = lv_obj_get_style_prop(obj, part, LV_STYLE_PAD_BOTTOM);
 100:Middlewares/lvgl/src/core/lv_obj_style_gen.h ****     return (lv_coord_t)v.num;
 101:Middlewares/lvgl/src/core/lv_obj_style_gen.h **** }
 102:Middlewares/lvgl/src/core/lv_obj_style_gen.h **** 
 103:Middlewares/lvgl/src/core/lv_obj_style_gen.h **** static inline lv_coord_t lv_obj_get_style_pad_left(const struct _lv_obj_t * obj, uint32_t part)
 104:Middlewares/lvgl/src/core/lv_obj_style_gen.h **** {
 105:Middlewares/lvgl/src/core/lv_obj_style_gen.h ****     lv_style_value_t v = lv_obj_get_style_prop(obj, part, LV_STYLE_PAD_LEFT);
 106:Middlewares/lvgl/src/core/lv_obj_style_gen.h ****     return (lv_coord_t)v.num;
 107:Middlewares/lvgl/src/core/lv_obj_style_gen.h **** }
 108:Middlewares/lvgl/src/core/lv_obj_style_gen.h **** 
 109:Middlewares/lvgl/src/core/lv_obj_style_gen.h **** static inline lv_coord_t lv_obj_get_style_pad_right(const struct _lv_obj_t * obj, uint32_t part)
 110:Middlewares/lvgl/src/core/lv_obj_style_gen.h **** {
 111:Middlewares/lvgl/src/core/lv_obj_style_gen.h ****     lv_style_value_t v = lv_obj_get_style_prop(obj, part, LV_STYLE_PAD_RIGHT);
 112:Middlewares/lvgl/src/core/lv_obj_style_gen.h ****     return (lv_coord_t)v.num;
 113:Middlewares/lvgl/src/core/lv_obj_style_gen.h **** }
 114:Middlewares/lvgl/src/core/lv_obj_style_gen.h **** 
 115:Middlewares/lvgl/src/core/lv_obj_style_gen.h **** static inline lv_coord_t lv_obj_get_style_pad_row(const struct _lv_obj_t * obj, uint32_t part)
 116:Middlewares/lvgl/src/core/lv_obj_style_gen.h **** {
 117:Middlewares/lvgl/src/core/lv_obj_style_gen.h ****     lv_style_value_t v = lv_obj_get_style_prop(obj, part, LV_STYLE_PAD_ROW);
 118:Middlewares/lvgl/src/core/lv_obj_style_gen.h ****     return (lv_coord_t)v.num;
 119:Middlewares/lvgl/src/core/lv_obj_style_gen.h **** }
 120:Middlewares/lvgl/src/core/lv_obj_style_gen.h **** 
 121:Middlewares/lvgl/src/core/lv_obj_style_gen.h **** static inline lv_coord_t lv_obj_get_style_pad_column(const struct _lv_obj_t * obj, uint32_t part)
 122:Middlewares/lvgl/src/core/lv_obj_style_gen.h **** {
 123:Middlewares/lvgl/src/core/lv_obj_style_gen.h ****     lv_style_value_t v = lv_obj_get_style_prop(obj, part, LV_STYLE_PAD_COLUMN);
 124:Middlewares/lvgl/src/core/lv_obj_style_gen.h ****     return (lv_coord_t)v.num;
 125:Middlewares/lvgl/src/core/lv_obj_style_gen.h **** }
 126:Middlewares/lvgl/src/core/lv_obj_style_gen.h **** 
 127:Middlewares/lvgl/src/core/lv_obj_style_gen.h **** static inline lv_coord_t lv_obj_get_style_radius(const struct _lv_obj_t * obj, uint32_t part)
  51              		.loc 2 127 26 view .LVU3
  52              	.LBB151:
 128:Middlewares/lvgl/src/core/lv_obj_style_gen.h **** {
 129:Middlewares/lvgl/src/core/lv_obj_style_gen.h ****     lv_style_value_t v = lv_obj_get_style_prop(obj, part, LV_STYLE_RADIUS);
  53              		.loc 2 129 5 view .LVU4
  54              		.loc 2 129 26 is_stmt 0 view .LVU5
  55 000a 6022     		movs	r2, #96
  56              	.LVL2:
  57              		.loc 2 129 26 view .LVU6
ARM GAS  /tmp/cckMVbUO.s 			page 5


  58 000c FFF7FEFF 		bl	lv_obj_get_style_prop
  59              	.LVL3:
 130:Middlewares/lvgl/src/core/lv_obj_style_gen.h ****     return (lv_coord_t)v.num;
  60              		.loc 2 130 5 is_stmt 1 view .LVU7
  61              		.loc 2 130 5 is_stmt 0 view .LVU8
  62              	.LBE151:
  63              	.LBE150:
  64              		.loc 1 43 22 view .LVU9
  65 0010 2080     		strh	r0, [r4]	@ movhi
  44:Middlewares/lvgl/src/core/lv_obj_draw.c **** 
  45:Middlewares/lvgl/src/core/lv_obj_draw.c ****     lv_opa_t main_opa = part != LV_PART_MAIN ? lv_obj_get_style_opa(obj, part) : LV_OPA_COVER;
  66              		.loc 1 45 5 is_stmt 1 view .LVU10
  67              		.loc 1 45 14 is_stmt 0 view .LVU11
  68 0012 B5B9     		cbnz	r5, .L14
  69 0014 4FF0FF08 		mov	r8, #255
  70              	.L2:
  71              	.LVL4:
  46:Middlewares/lvgl/src/core/lv_obj_draw.c ****     lv_opa_t opa = lv_obj_get_style_opa(obj, part);
  72              		.loc 1 46 5 is_stmt 1 discriminator 4 view .LVU12
  73              	.LBB152:
  74              	.LBI152:
 131:Middlewares/lvgl/src/core/lv_obj_style_gen.h **** }
 132:Middlewares/lvgl/src/core/lv_obj_style_gen.h **** 
 133:Middlewares/lvgl/src/core/lv_obj_style_gen.h **** static inline bool lv_obj_get_style_clip_corner(const struct _lv_obj_t * obj, uint32_t part)
 134:Middlewares/lvgl/src/core/lv_obj_style_gen.h **** {
 135:Middlewares/lvgl/src/core/lv_obj_style_gen.h ****     lv_style_value_t v = lv_obj_get_style_prop(obj, part, LV_STYLE_CLIP_CORNER);
 136:Middlewares/lvgl/src/core/lv_obj_style_gen.h ****     return (bool)v.num;
 137:Middlewares/lvgl/src/core/lv_obj_style_gen.h **** }
 138:Middlewares/lvgl/src/core/lv_obj_style_gen.h **** 
 139:Middlewares/lvgl/src/core/lv_obj_style_gen.h **** static inline lv_opa_t lv_obj_get_style_opa(const struct _lv_obj_t * obj, uint32_t part)
  75              		.loc 2 139 24 discriminator 4 view .LVU13
  76              	.LBB153:
 140:Middlewares/lvgl/src/core/lv_obj_style_gen.h **** {
 141:Middlewares/lvgl/src/core/lv_obj_style_gen.h ****     lv_style_value_t v = lv_obj_get_style_prop(obj, part, LV_STYLE_OPA);
  77              		.loc 2 141 5 discriminator 4 view .LVU14
  78              		.loc 2 141 26 is_stmt 0 discriminator 4 view .LVU15
  79 0018 40F26242 		movw	r2, #1122
  80 001c 2946     		mov	r1, r5
  81 001e 3046     		mov	r0, r6
  82 0020 FFF7FEFF 		bl	lv_obj_get_style_prop
  83              	.LVL5:
 142:Middlewares/lvgl/src/core/lv_obj_style_gen.h ****     return (lv_opa_t)v.num;
  84              		.loc 2 142 5 is_stmt 1 discriminator 4 view .LVU16
  85              		.loc 2 142 12 is_stmt 0 discriminator 4 view .LVU17
  86 0024 C7B2     		uxtb	r7, r0
  87              	.LVL6:
  88              		.loc 2 142 12 discriminator 4 view .LVU18
  89              	.LBE153:
  90              	.LBE152:
  47:Middlewares/lvgl/src/core/lv_obj_draw.c ****     if(opa <= LV_OPA_MIN || main_opa <= LV_OPA_MIN) {
  91              		.loc 1 47 5 is_stmt 1 discriminator 4 view .LVU19
  92              		.loc 1 47 7 is_stmt 0 discriminator 4 view .LVU20
  93 0026 B8F1020F 		cmp	r8, #2
  94 002a 88BF     		it	hi
  95 002c 022F     		cmphi	r7, #2
  96 002e 11D8     		bhi	.L3
  48:Middlewares/lvgl/src/core/lv_obj_draw.c ****         draw_dsc->bg_opa = LV_OPA_TRANSP;
ARM GAS  /tmp/cckMVbUO.s 			page 6


  97              		.loc 1 48 9 is_stmt 1 view .LVU21
  98              		.loc 1 48 26 is_stmt 0 view .LVU22
  99 0030 0023     		movs	r3, #0
 100 0032 A372     		strb	r3, [r4, #10]
  49:Middlewares/lvgl/src/core/lv_obj_draw.c ****         draw_dsc->border_opa = LV_OPA_TRANSP;
 101              		.loc 1 49 9 is_stmt 1 view .LVU23
 102              		.loc 1 49 30 is_stmt 0 view .LVU24
 103 0034 A377     		strb	r3, [r4, #30]
  50:Middlewares/lvgl/src/core/lv_obj_draw.c ****         draw_dsc->shadow_opa = LV_OPA_TRANSP;
 104              		.loc 1 50 9 is_stmt 1 view .LVU25
 105              		.loc 1 50 30 is_stmt 0 view .LVU26
 106 0036 84F83230 		strb	r3, [r4, #50]
  51:Middlewares/lvgl/src/core/lv_obj_draw.c ****         draw_dsc->outline_opa = LV_OPA_TRANSP;
 107              		.loc 1 51 9 is_stmt 1 view .LVU27
 108              		.loc 1 51 31 is_stmt 0 view .LVU28
 109 003a 84F82630 		strb	r3, [r4, #38]
  52:Middlewares/lvgl/src/core/lv_obj_draw.c ****         return;
 110              		.loc 1 52 9 is_stmt 1 view .LVU29
 111              	.LVL7:
 112              	.L1:
  53:Middlewares/lvgl/src/core/lv_obj_draw.c ****     }
  54:Middlewares/lvgl/src/core/lv_obj_draw.c **** 
  55:Middlewares/lvgl/src/core/lv_obj_draw.c ****     draw_dsc->blend_mode = lv_obj_get_style_blend_mode(obj, part);
  56:Middlewares/lvgl/src/core/lv_obj_draw.c **** 
  57:Middlewares/lvgl/src/core/lv_obj_draw.c ****     if(draw_dsc->bg_opa != LV_OPA_TRANSP) {
  58:Middlewares/lvgl/src/core/lv_obj_draw.c ****         draw_dsc->bg_opa = lv_obj_get_style_bg_opa(obj, part);
  59:Middlewares/lvgl/src/core/lv_obj_draw.c ****         if(draw_dsc->bg_opa > LV_OPA_MIN) {
  60:Middlewares/lvgl/src/core/lv_obj_draw.c ****             draw_dsc->bg_color = lv_obj_get_style_bg_color_filtered(obj, part);
  61:Middlewares/lvgl/src/core/lv_obj_draw.c ****             draw_dsc->bg_grad_dir =  lv_obj_get_style_bg_grad_dir(obj, part);
  62:Middlewares/lvgl/src/core/lv_obj_draw.c ****             if(draw_dsc->bg_grad_dir != LV_GRAD_DIR_NONE) {
  63:Middlewares/lvgl/src/core/lv_obj_draw.c ****                 draw_dsc->bg_grad_color = lv_obj_get_style_bg_grad_color_filtered(obj, part);
  64:Middlewares/lvgl/src/core/lv_obj_draw.c ****                 draw_dsc->bg_main_color_stop =  lv_obj_get_style_bg_main_stop(obj, part);
  65:Middlewares/lvgl/src/core/lv_obj_draw.c ****                 draw_dsc->bg_grad_color_stop =  lv_obj_get_style_bg_grad_stop(obj, part);
  66:Middlewares/lvgl/src/core/lv_obj_draw.c ****             }
  67:Middlewares/lvgl/src/core/lv_obj_draw.c ****         }
  68:Middlewares/lvgl/src/core/lv_obj_draw.c ****     }
  69:Middlewares/lvgl/src/core/lv_obj_draw.c **** 
  70:Middlewares/lvgl/src/core/lv_obj_draw.c ****     draw_dsc->border_width = lv_obj_get_style_border_width(obj, part);
  71:Middlewares/lvgl/src/core/lv_obj_draw.c ****     if(draw_dsc->border_width) {
  72:Middlewares/lvgl/src/core/lv_obj_draw.c ****         if(draw_dsc->border_opa != LV_OPA_TRANSP) {
  73:Middlewares/lvgl/src/core/lv_obj_draw.c ****             draw_dsc->border_opa = lv_obj_get_style_border_opa(obj, part);
  74:Middlewares/lvgl/src/core/lv_obj_draw.c ****             if(draw_dsc->border_opa > LV_OPA_MIN) {
  75:Middlewares/lvgl/src/core/lv_obj_draw.c ****                 draw_dsc->border_side = lv_obj_get_style_border_side(obj, part);
  76:Middlewares/lvgl/src/core/lv_obj_draw.c ****                 draw_dsc->border_color = lv_obj_get_style_border_color_filtered(obj, part);
  77:Middlewares/lvgl/src/core/lv_obj_draw.c ****             }
  78:Middlewares/lvgl/src/core/lv_obj_draw.c ****         }
  79:Middlewares/lvgl/src/core/lv_obj_draw.c ****     }
  80:Middlewares/lvgl/src/core/lv_obj_draw.c **** 
  81:Middlewares/lvgl/src/core/lv_obj_draw.c ****     draw_dsc->outline_width = lv_obj_get_style_outline_width(obj, part);
  82:Middlewares/lvgl/src/core/lv_obj_draw.c ****     if(draw_dsc->outline_width) {
  83:Middlewares/lvgl/src/core/lv_obj_draw.c ****         if(draw_dsc->outline_opa != LV_OPA_TRANSP) {
  84:Middlewares/lvgl/src/core/lv_obj_draw.c ****             draw_dsc->outline_opa = lv_obj_get_style_outline_opa(obj, part);
  85:Middlewares/lvgl/src/core/lv_obj_draw.c ****             if(draw_dsc->outline_opa > LV_OPA_MIN) {
  86:Middlewares/lvgl/src/core/lv_obj_draw.c ****                 draw_dsc->outline_pad = lv_obj_get_style_outline_pad(obj, part);
  87:Middlewares/lvgl/src/core/lv_obj_draw.c ****                 draw_dsc->outline_color = lv_obj_get_style_outline_color(obj, part);
  88:Middlewares/lvgl/src/core/lv_obj_draw.c ****             }
  89:Middlewares/lvgl/src/core/lv_obj_draw.c ****         }
ARM GAS  /tmp/cckMVbUO.s 			page 7


  90:Middlewares/lvgl/src/core/lv_obj_draw.c ****     }
  91:Middlewares/lvgl/src/core/lv_obj_draw.c **** 
  92:Middlewares/lvgl/src/core/lv_obj_draw.c ****     if(draw_dsc->bg_img_opa != LV_OPA_TRANSP) {
  93:Middlewares/lvgl/src/core/lv_obj_draw.c ****         draw_dsc->bg_img_src = lv_obj_get_style_bg_img_src(obj, part);
  94:Middlewares/lvgl/src/core/lv_obj_draw.c ****         if(draw_dsc->bg_img_src) {
  95:Middlewares/lvgl/src/core/lv_obj_draw.c ****             draw_dsc->bg_img_opa = lv_obj_get_style_bg_img_opa(obj, part);
  96:Middlewares/lvgl/src/core/lv_obj_draw.c ****             if(draw_dsc->bg_img_opa > LV_OPA_MIN) {
  97:Middlewares/lvgl/src/core/lv_obj_draw.c ****                 if(lv_img_src_get_type(draw_dsc->bg_img_src) == LV_IMG_SRC_SYMBOL) {
  98:Middlewares/lvgl/src/core/lv_obj_draw.c ****                     draw_dsc->bg_img_symbol_font= lv_obj_get_style_text_font(obj, part);
  99:Middlewares/lvgl/src/core/lv_obj_draw.c ****                     draw_dsc->bg_img_recolor = lv_obj_get_style_text_color(obj, part);
 100:Middlewares/lvgl/src/core/lv_obj_draw.c ****                 } else {
 101:Middlewares/lvgl/src/core/lv_obj_draw.c ****                     draw_dsc->bg_img_recolor = lv_obj_get_style_bg_img_recolor(obj, part);
 102:Middlewares/lvgl/src/core/lv_obj_draw.c ****                     draw_dsc->bg_img_recolor_opa = lv_obj_get_style_bg_img_recolor_opa(obj, part);
 103:Middlewares/lvgl/src/core/lv_obj_draw.c ****                     draw_dsc->bg_img_tiled = lv_obj_get_style_bg_img_tiled(obj, part);
 104:Middlewares/lvgl/src/core/lv_obj_draw.c ****                 }
 105:Middlewares/lvgl/src/core/lv_obj_draw.c ****             }
 106:Middlewares/lvgl/src/core/lv_obj_draw.c ****         }
 107:Middlewares/lvgl/src/core/lv_obj_draw.c ****     }
 108:Middlewares/lvgl/src/core/lv_obj_draw.c **** 
 109:Middlewares/lvgl/src/core/lv_obj_draw.c ****     if(draw_dsc->shadow_opa) {
 110:Middlewares/lvgl/src/core/lv_obj_draw.c ****         draw_dsc->shadow_width = lv_obj_get_style_shadow_width(obj, part);
 111:Middlewares/lvgl/src/core/lv_obj_draw.c ****         if(draw_dsc->shadow_width) {
 112:Middlewares/lvgl/src/core/lv_obj_draw.c ****             if(draw_dsc->shadow_opa > LV_OPA_MIN) {
 113:Middlewares/lvgl/src/core/lv_obj_draw.c ****                 draw_dsc->shadow_opa = lv_obj_get_style_shadow_opa(obj, part);
 114:Middlewares/lvgl/src/core/lv_obj_draw.c ****                 if(draw_dsc->shadow_opa > LV_OPA_MIN) {
 115:Middlewares/lvgl/src/core/lv_obj_draw.c ****                     draw_dsc->shadow_ofs_x = lv_obj_get_style_shadow_ofs_x(obj, part);
 116:Middlewares/lvgl/src/core/lv_obj_draw.c ****                     draw_dsc->shadow_ofs_y = lv_obj_get_style_shadow_ofs_y(obj, part);
 117:Middlewares/lvgl/src/core/lv_obj_draw.c ****                     draw_dsc->shadow_spread = lv_obj_get_style_shadow_spread(obj, part);
 118:Middlewares/lvgl/src/core/lv_obj_draw.c ****                     draw_dsc->shadow_color = lv_obj_get_style_shadow_color_filtered(obj, part);
 119:Middlewares/lvgl/src/core/lv_obj_draw.c ****                 }
 120:Middlewares/lvgl/src/core/lv_obj_draw.c ****             }
 121:Middlewares/lvgl/src/core/lv_obj_draw.c ****         }
 122:Middlewares/lvgl/src/core/lv_obj_draw.c ****     }
 123:Middlewares/lvgl/src/core/lv_obj_draw.c **** 
 124:Middlewares/lvgl/src/core/lv_obj_draw.c ****     if(main_opa < LV_OPA_MAX) {
 125:Middlewares/lvgl/src/core/lv_obj_draw.c ****         opa = (uint16_t)((uint16_t) main_opa * opa) >> 8;
 126:Middlewares/lvgl/src/core/lv_obj_draw.c ****     }
 127:Middlewares/lvgl/src/core/lv_obj_draw.c **** 
 128:Middlewares/lvgl/src/core/lv_obj_draw.c ****     if(opa < LV_OPA_MAX) {
 129:Middlewares/lvgl/src/core/lv_obj_draw.c ****         draw_dsc->bg_opa = (uint16_t)((uint16_t)draw_dsc->bg_opa * opa) >> 8;
 130:Middlewares/lvgl/src/core/lv_obj_draw.c ****         draw_dsc->border_opa = (uint16_t)((uint16_t)draw_dsc->border_opa * opa) >> 8;
 131:Middlewares/lvgl/src/core/lv_obj_draw.c ****         draw_dsc->shadow_opa = (uint16_t)((uint16_t)draw_dsc->shadow_opa * opa) >> 8;
 132:Middlewares/lvgl/src/core/lv_obj_draw.c ****         draw_dsc->outline_opa = (uint16_t)((uint16_t)draw_dsc->outline_opa * opa) >> 8;
 133:Middlewares/lvgl/src/core/lv_obj_draw.c ****     }
 134:Middlewares/lvgl/src/core/lv_obj_draw.c **** #else /*LV_DRAW_COMPLEX*/
 135:Middlewares/lvgl/src/core/lv_obj_draw.c ****     if(draw_dsc->bg_opa != LV_OPA_TRANSP) {
 136:Middlewares/lvgl/src/core/lv_obj_draw.c ****         draw_dsc->bg_opa = lv_obj_get_style_bg_opa(obj, part);
 137:Middlewares/lvgl/src/core/lv_obj_draw.c ****         if(draw_dsc->bg_opa > LV_OPA_MIN) {
 138:Middlewares/lvgl/src/core/lv_obj_draw.c ****             draw_dsc->bg_color = lv_obj_get_style_bg_color_filtered(obj, part);
 139:Middlewares/lvgl/src/core/lv_obj_draw.c ****         }
 140:Middlewares/lvgl/src/core/lv_obj_draw.c ****     }
 141:Middlewares/lvgl/src/core/lv_obj_draw.c **** 
 142:Middlewares/lvgl/src/core/lv_obj_draw.c ****     draw_dsc->border_width = lv_obj_get_style_border_width(obj, part);
 143:Middlewares/lvgl/src/core/lv_obj_draw.c ****     if(draw_dsc->border_width) {
 144:Middlewares/lvgl/src/core/lv_obj_draw.c ****         if(draw_dsc->border_opa != LV_OPA_TRANSP) {
 145:Middlewares/lvgl/src/core/lv_obj_draw.c ****             draw_dsc->border_opa = lv_obj_get_style_border_opa(obj, part);
 146:Middlewares/lvgl/src/core/lv_obj_draw.c ****             if(draw_dsc->border_opa > LV_OPA_MIN) {
ARM GAS  /tmp/cckMVbUO.s 			page 8


 147:Middlewares/lvgl/src/core/lv_obj_draw.c ****                 draw_dsc->border_color = lv_obj_get_style_border_color_filtered(obj, part);
 148:Middlewares/lvgl/src/core/lv_obj_draw.c ****                 draw_dsc->border_side = lv_obj_get_style_border_side(obj, part);
 149:Middlewares/lvgl/src/core/lv_obj_draw.c ****             }
 150:Middlewares/lvgl/src/core/lv_obj_draw.c ****         }
 151:Middlewares/lvgl/src/core/lv_obj_draw.c ****     }
 152:Middlewares/lvgl/src/core/lv_obj_draw.c **** 
 153:Middlewares/lvgl/src/core/lv_obj_draw.c ****     draw_dsc->outline_width = lv_obj_get_style_outline_width(obj, part);
 154:Middlewares/lvgl/src/core/lv_obj_draw.c ****     if(draw_dsc->outline_width) {
 155:Middlewares/lvgl/src/core/lv_obj_draw.c ****         if(draw_dsc->outline_opa != LV_OPA_TRANSP) {
 156:Middlewares/lvgl/src/core/lv_obj_draw.c ****             draw_dsc->outline_opa = lv_obj_get_style_outline_opa(obj, part);
 157:Middlewares/lvgl/src/core/lv_obj_draw.c ****             if(draw_dsc->outline_opa > LV_OPA_MIN) {
 158:Middlewares/lvgl/src/core/lv_obj_draw.c ****                 draw_dsc->outline_pad = lv_obj_get_style_outline_pad(obj, part);
 159:Middlewares/lvgl/src/core/lv_obj_draw.c ****                 draw_dsc->outline_color = lv_obj_get_style_outline_color(obj, part);
 160:Middlewares/lvgl/src/core/lv_obj_draw.c ****             }
 161:Middlewares/lvgl/src/core/lv_obj_draw.c ****         }
 162:Middlewares/lvgl/src/core/lv_obj_draw.c ****     }
 163:Middlewares/lvgl/src/core/lv_obj_draw.c **** 
 164:Middlewares/lvgl/src/core/lv_obj_draw.c ****     if(draw_dsc->bg_img_opa != LV_OPA_TRANSP) {
 165:Middlewares/lvgl/src/core/lv_obj_draw.c ****         draw_dsc->bg_img_src = lv_obj_get_style_bg_img_src(obj, part);
 166:Middlewares/lvgl/src/core/lv_obj_draw.c ****         if(draw_dsc->bg_img_src) {
 167:Middlewares/lvgl/src/core/lv_obj_draw.c ****             draw_dsc->bg_img_opa = lv_obj_get_style_bg_img_opa(obj, part);
 168:Middlewares/lvgl/src/core/lv_obj_draw.c ****             if(draw_dsc->bg_img_opa > LV_OPA_MIN) {
 169:Middlewares/lvgl/src/core/lv_obj_draw.c ****                 if(lv_img_src_get_type(draw_dsc->bg_img_src) == LV_IMG_SRC_SYMBOL) {
 170:Middlewares/lvgl/src/core/lv_obj_draw.c ****                    draw_dsc->bg_img_symbol_font= lv_obj_get_style_text_font(obj, part);
 171:Middlewares/lvgl/src/core/lv_obj_draw.c ****                    draw_dsc->bg_img_recolor = lv_obj_get_style_text_color(obj, part);
 172:Middlewares/lvgl/src/core/lv_obj_draw.c ****                } else {
 173:Middlewares/lvgl/src/core/lv_obj_draw.c ****                    draw_dsc->bg_img_recolor = lv_obj_get_style_bg_img_recolor(obj, part);
 174:Middlewares/lvgl/src/core/lv_obj_draw.c ****                    draw_dsc->bg_img_recolor_opa = lv_obj_get_style_bg_img_recolor_opa(obj, part);
 175:Middlewares/lvgl/src/core/lv_obj_draw.c ****                    draw_dsc->bg_img_tiled = lv_obj_get_style_bg_img_tiled(obj, part);
 176:Middlewares/lvgl/src/core/lv_obj_draw.c ****                }
 177:Middlewares/lvgl/src/core/lv_obj_draw.c ****             }
 178:Middlewares/lvgl/src/core/lv_obj_draw.c ****         }
 179:Middlewares/lvgl/src/core/lv_obj_draw.c ****     }
 180:Middlewares/lvgl/src/core/lv_obj_draw.c **** #endif
 181:Middlewares/lvgl/src/core/lv_obj_draw.c **** }
 113              		.loc 1 181 1 is_stmt 0 view .LVU30
 114 003e BDE8F081 		pop	{r4, r5, r6, r7, r8, pc}
 115              	.LVL8:
 116              	.L14:
 117              	.LBB154:
 118              	.LBI154:
 139:Middlewares/lvgl/src/core/lv_obj_style_gen.h **** {
 119              		.loc 2 139 24 is_stmt 1 view .LVU31
 120              	.LBB155:
 141:Middlewares/lvgl/src/core/lv_obj_style_gen.h ****     return (lv_opa_t)v.num;
 121              		.loc 2 141 5 view .LVU32
 141:Middlewares/lvgl/src/core/lv_obj_style_gen.h ****     return (lv_opa_t)v.num;
 122              		.loc 2 141 26 is_stmt 0 view .LVU33
 123 0042 40F26242 		movw	r2, #1122
 124 0046 2946     		mov	r1, r5
 125 0048 3046     		mov	r0, r6
 126 004a FFF7FEFF 		bl	lv_obj_get_style_prop
 127              	.LVL9:
 128              		.loc 2 142 5 is_stmt 1 view .LVU34
 129              		.loc 2 142 12 is_stmt 0 view .LVU35
 130 004e 5FFA80F8 		uxtb	r8, r0
 131              	.LVL10:
ARM GAS  /tmp/cckMVbUO.s 			page 9


 132              		.loc 2 142 12 view .LVU36
 133              	.LBE155:
 134              	.LBE154:
 135 0052 E1E7     		b	.L2
 136              	.LVL11:
 137              	.L3:
  55:Middlewares/lvgl/src/core/lv_obj_draw.c **** 
 138              		.loc 1 55 5 is_stmt 1 view .LVU37
 139              	.LBB156:
 140              	.LBI156:
 143:Middlewares/lvgl/src/core/lv_obj_style_gen.h **** }
 144:Middlewares/lvgl/src/core/lv_obj_style_gen.h **** 
 145:Middlewares/lvgl/src/core/lv_obj_style_gen.h **** static inline const lv_color_filter_dsc_t * lv_obj_get_style_color_filter_dsc(const struct _lv_obj_
 146:Middlewares/lvgl/src/core/lv_obj_style_gen.h **** {
 147:Middlewares/lvgl/src/core/lv_obj_style_gen.h ****     lv_style_value_t v = lv_obj_get_style_prop(obj, part, LV_STYLE_COLOR_FILTER_DSC);
 148:Middlewares/lvgl/src/core/lv_obj_style_gen.h ****     return (const lv_color_filter_dsc_t *)v.ptr;
 149:Middlewares/lvgl/src/core/lv_obj_style_gen.h **** }
 150:Middlewares/lvgl/src/core/lv_obj_style_gen.h **** 
 151:Middlewares/lvgl/src/core/lv_obj_style_gen.h **** static inline lv_opa_t lv_obj_get_style_color_filter_opa(const struct _lv_obj_t * obj, uint32_t par
 152:Middlewares/lvgl/src/core/lv_obj_style_gen.h **** {
 153:Middlewares/lvgl/src/core/lv_obj_style_gen.h ****     lv_style_value_t v = lv_obj_get_style_prop(obj, part, LV_STYLE_COLOR_FILTER_OPA);
 154:Middlewares/lvgl/src/core/lv_obj_style_gen.h ****     return (lv_opa_t)v.num;
 155:Middlewares/lvgl/src/core/lv_obj_style_gen.h **** }
 156:Middlewares/lvgl/src/core/lv_obj_style_gen.h **** 
 157:Middlewares/lvgl/src/core/lv_obj_style_gen.h **** static inline uint32_t lv_obj_get_style_anim_time(const struct _lv_obj_t * obj, uint32_t part)
 158:Middlewares/lvgl/src/core/lv_obj_style_gen.h **** {
 159:Middlewares/lvgl/src/core/lv_obj_style_gen.h ****     lv_style_value_t v = lv_obj_get_style_prop(obj, part, LV_STYLE_ANIM_TIME);
 160:Middlewares/lvgl/src/core/lv_obj_style_gen.h ****     return (uint32_t)v.num;
 161:Middlewares/lvgl/src/core/lv_obj_style_gen.h **** }
 162:Middlewares/lvgl/src/core/lv_obj_style_gen.h **** 
 163:Middlewares/lvgl/src/core/lv_obj_style_gen.h **** static inline uint32_t lv_obj_get_style_anim_speed(const struct _lv_obj_t * obj, uint32_t part)
 164:Middlewares/lvgl/src/core/lv_obj_style_gen.h **** {
 165:Middlewares/lvgl/src/core/lv_obj_style_gen.h ****     lv_style_value_t v = lv_obj_get_style_prop(obj, part, LV_STYLE_ANIM_SPEED);
 166:Middlewares/lvgl/src/core/lv_obj_style_gen.h ****     return (uint32_t)v.num;
 167:Middlewares/lvgl/src/core/lv_obj_style_gen.h **** }
 168:Middlewares/lvgl/src/core/lv_obj_style_gen.h **** 
 169:Middlewares/lvgl/src/core/lv_obj_style_gen.h **** static inline const lv_style_transition_dsc_t * lv_obj_get_style_transition(const struct _lv_obj_t 
 170:Middlewares/lvgl/src/core/lv_obj_style_gen.h **** {
 171:Middlewares/lvgl/src/core/lv_obj_style_gen.h ****     lv_style_value_t v = lv_obj_get_style_prop(obj, part, LV_STYLE_TRANSITION);
 172:Middlewares/lvgl/src/core/lv_obj_style_gen.h ****     return (const lv_style_transition_dsc_t *)v.ptr;
 173:Middlewares/lvgl/src/core/lv_obj_style_gen.h **** }
 174:Middlewares/lvgl/src/core/lv_obj_style_gen.h **** 
 175:Middlewares/lvgl/src/core/lv_obj_style_gen.h **** static inline lv_blend_mode_t lv_obj_get_style_blend_mode(const struct _lv_obj_t * obj, uint32_t pa
 141              		.loc 2 175 31 view .LVU38
 142              	.LBB157:
 176:Middlewares/lvgl/src/core/lv_obj_style_gen.h **** {
 177:Middlewares/lvgl/src/core/lv_obj_style_gen.h ****     lv_style_value_t v = lv_obj_get_style_prop(obj, part, LV_STYLE_BLEND_MODE);
 143              		.loc 2 177 5 view .LVU39
 144              		.loc 2 177 26 is_stmt 0 view .LVU40
 145 0054 6822     		movs	r2, #104
 146 0056 2946     		mov	r1, r5
 147 0058 3046     		mov	r0, r6
 148 005a FFF7FEFF 		bl	lv_obj_get_style_prop
 149              	.LVL12:
 178:Middlewares/lvgl/src/core/lv_obj_style_gen.h ****     return (lv_blend_mode_t)v.num;
 150              		.loc 2 178 5 is_stmt 1 view .LVU41
 151              		.loc 2 178 5 is_stmt 0 view .LVU42
ARM GAS  /tmp/cckMVbUO.s 			page 10


 152              	.LBE157:
 153              	.LBE156:
  55:Middlewares/lvgl/src/core/lv_obj_draw.c **** 
 154              		.loc 1 55 26 view .LVU43
 155 005e A070     		strb	r0, [r4, #2]
  57:Middlewares/lvgl/src/core/lv_obj_draw.c ****         draw_dsc->bg_opa = lv_obj_get_style_bg_opa(obj, part);
 156              		.loc 1 57 5 is_stmt 1 view .LVU44
  57:Middlewares/lvgl/src/core/lv_obj_draw.c ****         draw_dsc->bg_opa = lv_obj_get_style_bg_opa(obj, part);
 157              		.loc 1 57 16 is_stmt 0 view .LVU45
 158 0060 A37A     		ldrb	r3, [r4, #10]	@ zero_extendqisi2
  57:Middlewares/lvgl/src/core/lv_obj_draw.c ****         draw_dsc->bg_opa = lv_obj_get_style_bg_opa(obj, part);
 159              		.loc 1 57 7 view .LVU46
 160 0062 002B     		cmp	r3, #0
 161 0064 43D1     		bne	.L15
 162              	.L5:
  70:Middlewares/lvgl/src/core/lv_obj_draw.c ****     if(draw_dsc->border_width) {
 163              		.loc 1 70 5 is_stmt 1 view .LVU47
 164              	.LVL13:
 165              	.LBB158:
 166              	.LBI158:
 179:Middlewares/lvgl/src/core/lv_obj_style_gen.h **** }
 180:Middlewares/lvgl/src/core/lv_obj_style_gen.h **** 
 181:Middlewares/lvgl/src/core/lv_obj_style_gen.h **** static inline uint16_t lv_obj_get_style_layout(const struct _lv_obj_t * obj, uint32_t part)
 182:Middlewares/lvgl/src/core/lv_obj_style_gen.h **** {
 183:Middlewares/lvgl/src/core/lv_obj_style_gen.h ****     lv_style_value_t v = lv_obj_get_style_prop(obj, part, LV_STYLE_LAYOUT);
 184:Middlewares/lvgl/src/core/lv_obj_style_gen.h ****     return (uint16_t)v.num;
 185:Middlewares/lvgl/src/core/lv_obj_style_gen.h **** }
 186:Middlewares/lvgl/src/core/lv_obj_style_gen.h **** 
 187:Middlewares/lvgl/src/core/lv_obj_style_gen.h **** static inline lv_base_dir_t lv_obj_get_style_base_dir(const struct _lv_obj_t * obj, uint32_t part)
 188:Middlewares/lvgl/src/core/lv_obj_style_gen.h **** {
 189:Middlewares/lvgl/src/core/lv_obj_style_gen.h ****     lv_style_value_t v = lv_obj_get_style_prop(obj, part, LV_STYLE_BASE_DIR);
 190:Middlewares/lvgl/src/core/lv_obj_style_gen.h ****     return (lv_base_dir_t)v.num;
 191:Middlewares/lvgl/src/core/lv_obj_style_gen.h **** }
 192:Middlewares/lvgl/src/core/lv_obj_style_gen.h **** 
 193:Middlewares/lvgl/src/core/lv_obj_style_gen.h **** static inline lv_color_t lv_obj_get_style_bg_color(const struct _lv_obj_t * obj, uint32_t part)
 194:Middlewares/lvgl/src/core/lv_obj_style_gen.h **** {
 195:Middlewares/lvgl/src/core/lv_obj_style_gen.h ****     lv_style_value_t v = lv_obj_get_style_prop(obj, part, LV_STYLE_BG_COLOR);
 196:Middlewares/lvgl/src/core/lv_obj_style_gen.h ****     return v.color;
 197:Middlewares/lvgl/src/core/lv_obj_style_gen.h **** }
 198:Middlewares/lvgl/src/core/lv_obj_style_gen.h **** 
 199:Middlewares/lvgl/src/core/lv_obj_style_gen.h **** static inline lv_color_t lv_obj_get_style_bg_color_filtered(const struct _lv_obj_t * obj, uint32_t 
 200:Middlewares/lvgl/src/core/lv_obj_style_gen.h **** {
 201:Middlewares/lvgl/src/core/lv_obj_style_gen.h ****     lv_style_value_t v = lv_obj_get_style_prop(obj, part, LV_STYLE_BG_COLOR_FILTERED);
 202:Middlewares/lvgl/src/core/lv_obj_style_gen.h ****     return v.color;
 203:Middlewares/lvgl/src/core/lv_obj_style_gen.h **** }
 204:Middlewares/lvgl/src/core/lv_obj_style_gen.h **** 
 205:Middlewares/lvgl/src/core/lv_obj_style_gen.h **** static inline lv_opa_t lv_obj_get_style_bg_opa(const struct _lv_obj_t * obj, uint32_t part)
 206:Middlewares/lvgl/src/core/lv_obj_style_gen.h **** {
 207:Middlewares/lvgl/src/core/lv_obj_style_gen.h ****     lv_style_value_t v = lv_obj_get_style_prop(obj, part, LV_STYLE_BG_OPA);
 208:Middlewares/lvgl/src/core/lv_obj_style_gen.h ****     return (lv_opa_t)v.num;
 209:Middlewares/lvgl/src/core/lv_obj_style_gen.h **** }
 210:Middlewares/lvgl/src/core/lv_obj_style_gen.h **** 
 211:Middlewares/lvgl/src/core/lv_obj_style_gen.h **** static inline lv_color_t lv_obj_get_style_bg_grad_color(const struct _lv_obj_t * obj, uint32_t part
 212:Middlewares/lvgl/src/core/lv_obj_style_gen.h **** {
 213:Middlewares/lvgl/src/core/lv_obj_style_gen.h ****     lv_style_value_t v = lv_obj_get_style_prop(obj, part, LV_STYLE_BG_GRAD_COLOR);
 214:Middlewares/lvgl/src/core/lv_obj_style_gen.h ****     return v.color;
 215:Middlewares/lvgl/src/core/lv_obj_style_gen.h **** }
ARM GAS  /tmp/cckMVbUO.s 			page 11


 216:Middlewares/lvgl/src/core/lv_obj_style_gen.h **** 
 217:Middlewares/lvgl/src/core/lv_obj_style_gen.h **** static inline lv_color_t lv_obj_get_style_bg_grad_color_filtered(const struct _lv_obj_t * obj, uint
 218:Middlewares/lvgl/src/core/lv_obj_style_gen.h **** {
 219:Middlewares/lvgl/src/core/lv_obj_style_gen.h ****     lv_style_value_t v = lv_obj_get_style_prop(obj, part, LV_STYLE_BG_GRAD_COLOR_FILTERED);
 220:Middlewares/lvgl/src/core/lv_obj_style_gen.h ****     return v.color;
 221:Middlewares/lvgl/src/core/lv_obj_style_gen.h **** }
 222:Middlewares/lvgl/src/core/lv_obj_style_gen.h **** 
 223:Middlewares/lvgl/src/core/lv_obj_style_gen.h **** static inline lv_grad_dir_t lv_obj_get_style_bg_grad_dir(const struct _lv_obj_t * obj, uint32_t par
 224:Middlewares/lvgl/src/core/lv_obj_style_gen.h **** {
 225:Middlewares/lvgl/src/core/lv_obj_style_gen.h ****     lv_style_value_t v = lv_obj_get_style_prop(obj, part, LV_STYLE_BG_GRAD_DIR);
 226:Middlewares/lvgl/src/core/lv_obj_style_gen.h ****     return (lv_grad_dir_t)v.num;
 227:Middlewares/lvgl/src/core/lv_obj_style_gen.h **** }
 228:Middlewares/lvgl/src/core/lv_obj_style_gen.h **** 
 229:Middlewares/lvgl/src/core/lv_obj_style_gen.h **** static inline lv_coord_t lv_obj_get_style_bg_main_stop(const struct _lv_obj_t * obj, uint32_t part)
 230:Middlewares/lvgl/src/core/lv_obj_style_gen.h **** {
 231:Middlewares/lvgl/src/core/lv_obj_style_gen.h ****     lv_style_value_t v = lv_obj_get_style_prop(obj, part, LV_STYLE_BG_MAIN_STOP);
 232:Middlewares/lvgl/src/core/lv_obj_style_gen.h ****     return (lv_coord_t)v.num;
 233:Middlewares/lvgl/src/core/lv_obj_style_gen.h **** }
 234:Middlewares/lvgl/src/core/lv_obj_style_gen.h **** 
 235:Middlewares/lvgl/src/core/lv_obj_style_gen.h **** static inline lv_coord_t lv_obj_get_style_bg_grad_stop(const struct _lv_obj_t * obj, uint32_t part)
 236:Middlewares/lvgl/src/core/lv_obj_style_gen.h **** {
 237:Middlewares/lvgl/src/core/lv_obj_style_gen.h ****     lv_style_value_t v = lv_obj_get_style_prop(obj, part, LV_STYLE_BG_GRAD_STOP);
 238:Middlewares/lvgl/src/core/lv_obj_style_gen.h ****     return (lv_coord_t)v.num;
 239:Middlewares/lvgl/src/core/lv_obj_style_gen.h **** }
 240:Middlewares/lvgl/src/core/lv_obj_style_gen.h **** 
 241:Middlewares/lvgl/src/core/lv_obj_style_gen.h **** static inline const void * lv_obj_get_style_bg_img_src(const struct _lv_obj_t * obj, uint32_t part)
 242:Middlewares/lvgl/src/core/lv_obj_style_gen.h **** {
 243:Middlewares/lvgl/src/core/lv_obj_style_gen.h ****     lv_style_value_t v = lv_obj_get_style_prop(obj, part, LV_STYLE_BG_IMG_SRC);
 244:Middlewares/lvgl/src/core/lv_obj_style_gen.h ****     return (const void *)v.ptr;
 245:Middlewares/lvgl/src/core/lv_obj_style_gen.h **** }
 246:Middlewares/lvgl/src/core/lv_obj_style_gen.h **** 
 247:Middlewares/lvgl/src/core/lv_obj_style_gen.h **** static inline lv_opa_t lv_obj_get_style_bg_img_opa(const struct _lv_obj_t * obj, uint32_t part)
 248:Middlewares/lvgl/src/core/lv_obj_style_gen.h **** {
 249:Middlewares/lvgl/src/core/lv_obj_style_gen.h ****     lv_style_value_t v = lv_obj_get_style_prop(obj, part, LV_STYLE_BG_IMG_OPA);
 250:Middlewares/lvgl/src/core/lv_obj_style_gen.h ****     return (lv_opa_t)v.num;
 251:Middlewares/lvgl/src/core/lv_obj_style_gen.h **** }
 252:Middlewares/lvgl/src/core/lv_obj_style_gen.h **** 
 253:Middlewares/lvgl/src/core/lv_obj_style_gen.h **** static inline lv_color_t lv_obj_get_style_bg_img_recolor(const struct _lv_obj_t * obj, uint32_t par
 254:Middlewares/lvgl/src/core/lv_obj_style_gen.h **** {
 255:Middlewares/lvgl/src/core/lv_obj_style_gen.h ****     lv_style_value_t v = lv_obj_get_style_prop(obj, part, LV_STYLE_BG_IMG_RECOLOR);
 256:Middlewares/lvgl/src/core/lv_obj_style_gen.h ****     return v.color;
 257:Middlewares/lvgl/src/core/lv_obj_style_gen.h **** }
 258:Middlewares/lvgl/src/core/lv_obj_style_gen.h **** 
 259:Middlewares/lvgl/src/core/lv_obj_style_gen.h **** static inline lv_color_t lv_obj_get_style_bg_img_recolor_filtered(const struct _lv_obj_t * obj, uin
 260:Middlewares/lvgl/src/core/lv_obj_style_gen.h **** {
 261:Middlewares/lvgl/src/core/lv_obj_style_gen.h ****     lv_style_value_t v = lv_obj_get_style_prop(obj, part, LV_STYLE_BG_IMG_RECOLOR_FILTERED);
 262:Middlewares/lvgl/src/core/lv_obj_style_gen.h ****     return v.color;
 263:Middlewares/lvgl/src/core/lv_obj_style_gen.h **** }
 264:Middlewares/lvgl/src/core/lv_obj_style_gen.h **** 
 265:Middlewares/lvgl/src/core/lv_obj_style_gen.h **** static inline lv_opa_t lv_obj_get_style_bg_img_recolor_opa(const struct _lv_obj_t * obj, uint32_t p
 266:Middlewares/lvgl/src/core/lv_obj_style_gen.h **** {
 267:Middlewares/lvgl/src/core/lv_obj_style_gen.h ****     lv_style_value_t v = lv_obj_get_style_prop(obj, part, LV_STYLE_BG_IMG_RECOLOR_OPA);
 268:Middlewares/lvgl/src/core/lv_obj_style_gen.h ****     return (lv_opa_t)v.num;
 269:Middlewares/lvgl/src/core/lv_obj_style_gen.h **** }
 270:Middlewares/lvgl/src/core/lv_obj_style_gen.h **** 
 271:Middlewares/lvgl/src/core/lv_obj_style_gen.h **** static inline bool lv_obj_get_style_bg_img_tiled(const struct _lv_obj_t * obj, uint32_t part)
 272:Middlewares/lvgl/src/core/lv_obj_style_gen.h **** {
ARM GAS  /tmp/cckMVbUO.s 			page 12


 273:Middlewares/lvgl/src/core/lv_obj_style_gen.h ****     lv_style_value_t v = lv_obj_get_style_prop(obj, part, LV_STYLE_BG_IMG_TILED);
 274:Middlewares/lvgl/src/core/lv_obj_style_gen.h ****     return (bool)v.num;
 275:Middlewares/lvgl/src/core/lv_obj_style_gen.h **** }
 276:Middlewares/lvgl/src/core/lv_obj_style_gen.h **** 
 277:Middlewares/lvgl/src/core/lv_obj_style_gen.h **** static inline lv_color_t lv_obj_get_style_border_color(const struct _lv_obj_t * obj, uint32_t part)
 278:Middlewares/lvgl/src/core/lv_obj_style_gen.h **** {
 279:Middlewares/lvgl/src/core/lv_obj_style_gen.h ****     lv_style_value_t v = lv_obj_get_style_prop(obj, part, LV_STYLE_BORDER_COLOR);
 280:Middlewares/lvgl/src/core/lv_obj_style_gen.h ****     return v.color;
 281:Middlewares/lvgl/src/core/lv_obj_style_gen.h **** }
 282:Middlewares/lvgl/src/core/lv_obj_style_gen.h **** 
 283:Middlewares/lvgl/src/core/lv_obj_style_gen.h **** static inline lv_color_t lv_obj_get_style_border_color_filtered(const struct _lv_obj_t * obj, uint3
 284:Middlewares/lvgl/src/core/lv_obj_style_gen.h **** {
 285:Middlewares/lvgl/src/core/lv_obj_style_gen.h ****     lv_style_value_t v = lv_obj_get_style_prop(obj, part, LV_STYLE_BORDER_COLOR_FILTERED);
 286:Middlewares/lvgl/src/core/lv_obj_style_gen.h ****     return v.color;
 287:Middlewares/lvgl/src/core/lv_obj_style_gen.h **** }
 288:Middlewares/lvgl/src/core/lv_obj_style_gen.h **** 
 289:Middlewares/lvgl/src/core/lv_obj_style_gen.h **** static inline lv_opa_t lv_obj_get_style_border_opa(const struct _lv_obj_t * obj, uint32_t part)
 290:Middlewares/lvgl/src/core/lv_obj_style_gen.h **** {
 291:Middlewares/lvgl/src/core/lv_obj_style_gen.h ****     lv_style_value_t v = lv_obj_get_style_prop(obj, part, LV_STYLE_BORDER_OPA);
 292:Middlewares/lvgl/src/core/lv_obj_style_gen.h ****     return (lv_opa_t)v.num;
 293:Middlewares/lvgl/src/core/lv_obj_style_gen.h **** }
 294:Middlewares/lvgl/src/core/lv_obj_style_gen.h **** 
 295:Middlewares/lvgl/src/core/lv_obj_style_gen.h **** static inline lv_coord_t lv_obj_get_style_border_width(const struct _lv_obj_t * obj, uint32_t part)
 167              		.loc 2 295 26 view .LVU48
 168              	.LBB159:
 296:Middlewares/lvgl/src/core/lv_obj_style_gen.h **** {
 297:Middlewares/lvgl/src/core/lv_obj_style_gen.h ****     lv_style_value_t v = lv_obj_get_style_prop(obj, part, LV_STYLE_BORDER_WIDTH);
 169              		.loc 2 297 5 view .LVU49
 170              		.loc 2 297 26 is_stmt 0 view .LVU50
 171 0066 41F23202 		movw	r2, #4146
 172 006a 2946     		mov	r1, r5
 173 006c 3046     		mov	r0, r6
 174 006e FFF7FEFF 		bl	lv_obj_get_style_prop
 175              	.LVL14:
 298:Middlewares/lvgl/src/core/lv_obj_style_gen.h ****     return (lv_coord_t)v.num;
 176              		.loc 2 298 5 is_stmt 1 view .LVU51
 177              		.loc 2 298 12 is_stmt 0 view .LVU52
 178 0072 00B2     		sxth	r0, r0
 179              	.LVL15:
 180              		.loc 2 298 12 view .LVU53
 181              	.LBE159:
 182              	.LBE158:
  70:Middlewares/lvgl/src/core/lv_obj_draw.c ****     if(draw_dsc->border_width) {
 183              		.loc 1 70 28 view .LVU54
 184 0074 A083     		strh	r0, [r4, #28]	@ movhi
  71:Middlewares/lvgl/src/core/lv_obj_draw.c ****         if(draw_dsc->border_opa != LV_OPA_TRANSP) {
 185              		.loc 1 71 5 is_stmt 1 view .LVU55
  71:Middlewares/lvgl/src/core/lv_obj_draw.c ****         if(draw_dsc->border_opa != LV_OPA_TRANSP) {
 186              		.loc 1 71 7 is_stmt 0 view .LVU56
 187 0076 10B1     		cbz	r0, .L6
  72:Middlewares/lvgl/src/core/lv_obj_draw.c ****             draw_dsc->border_opa = lv_obj_get_style_border_opa(obj, part);
 188              		.loc 1 72 9 is_stmt 1 view .LVU57
  72:Middlewares/lvgl/src/core/lv_obj_draw.c ****             draw_dsc->border_opa = lv_obj_get_style_border_opa(obj, part);
 189              		.loc 1 72 20 is_stmt 0 view .LVU58
 190 0078 A37F     		ldrb	r3, [r4, #30]	@ zero_extendqisi2
  72:Middlewares/lvgl/src/core/lv_obj_draw.c ****             draw_dsc->border_opa = lv_obj_get_style_border_opa(obj, part);
 191              		.loc 1 72 11 view .LVU59
ARM GAS  /tmp/cckMVbUO.s 			page 13


 192 007a 002B     		cmp	r3, #0
 193 007c 68D1     		bne	.L16
 194              	.L6:
  81:Middlewares/lvgl/src/core/lv_obj_draw.c ****     if(draw_dsc->outline_width) {
 195              		.loc 1 81 5 is_stmt 1 view .LVU60
 196              	.LVL16:
 197              	.LBB160:
 198              	.LBI160:
 299:Middlewares/lvgl/src/core/lv_obj_style_gen.h **** }
 300:Middlewares/lvgl/src/core/lv_obj_style_gen.h **** 
 301:Middlewares/lvgl/src/core/lv_obj_style_gen.h **** static inline lv_border_side_t lv_obj_get_style_border_side(const struct _lv_obj_t * obj, uint32_t 
 302:Middlewares/lvgl/src/core/lv_obj_style_gen.h **** {
 303:Middlewares/lvgl/src/core/lv_obj_style_gen.h ****     lv_style_value_t v = lv_obj_get_style_prop(obj, part, LV_STYLE_BORDER_SIDE);
 304:Middlewares/lvgl/src/core/lv_obj_style_gen.h ****     return (lv_border_side_t)v.num;
 305:Middlewares/lvgl/src/core/lv_obj_style_gen.h **** }
 306:Middlewares/lvgl/src/core/lv_obj_style_gen.h **** 
 307:Middlewares/lvgl/src/core/lv_obj_style_gen.h **** static inline bool lv_obj_get_style_border_post(const struct _lv_obj_t * obj, uint32_t part)
 308:Middlewares/lvgl/src/core/lv_obj_style_gen.h **** {
 309:Middlewares/lvgl/src/core/lv_obj_style_gen.h ****     lv_style_value_t v = lv_obj_get_style_prop(obj, part, LV_STYLE_BORDER_POST);
 310:Middlewares/lvgl/src/core/lv_obj_style_gen.h ****     return (bool)v.num;
 311:Middlewares/lvgl/src/core/lv_obj_style_gen.h **** }
 312:Middlewares/lvgl/src/core/lv_obj_style_gen.h **** 
 313:Middlewares/lvgl/src/core/lv_obj_style_gen.h **** static inline lv_color_t lv_obj_get_style_text_color(const struct _lv_obj_t * obj, uint32_t part)
 314:Middlewares/lvgl/src/core/lv_obj_style_gen.h **** {
 315:Middlewares/lvgl/src/core/lv_obj_style_gen.h ****     lv_style_value_t v = lv_obj_get_style_prop(obj, part, LV_STYLE_TEXT_COLOR);
 316:Middlewares/lvgl/src/core/lv_obj_style_gen.h ****     return v.color;
 317:Middlewares/lvgl/src/core/lv_obj_style_gen.h **** }
 318:Middlewares/lvgl/src/core/lv_obj_style_gen.h **** 
 319:Middlewares/lvgl/src/core/lv_obj_style_gen.h **** static inline lv_color_t lv_obj_get_style_text_color_filtered(const struct _lv_obj_t * obj, uint32_
 320:Middlewares/lvgl/src/core/lv_obj_style_gen.h **** {
 321:Middlewares/lvgl/src/core/lv_obj_style_gen.h ****     lv_style_value_t v = lv_obj_get_style_prop(obj, part, LV_STYLE_TEXT_COLOR_FILTERED);
 322:Middlewares/lvgl/src/core/lv_obj_style_gen.h ****     return v.color;
 323:Middlewares/lvgl/src/core/lv_obj_style_gen.h **** }
 324:Middlewares/lvgl/src/core/lv_obj_style_gen.h **** 
 325:Middlewares/lvgl/src/core/lv_obj_style_gen.h **** static inline lv_opa_t lv_obj_get_style_text_opa(const struct _lv_obj_t * obj, uint32_t part)
 326:Middlewares/lvgl/src/core/lv_obj_style_gen.h **** {
 327:Middlewares/lvgl/src/core/lv_obj_style_gen.h ****     lv_style_value_t v = lv_obj_get_style_prop(obj, part, LV_STYLE_TEXT_OPA);
 328:Middlewares/lvgl/src/core/lv_obj_style_gen.h ****     return (lv_opa_t)v.num;
 329:Middlewares/lvgl/src/core/lv_obj_style_gen.h **** }
 330:Middlewares/lvgl/src/core/lv_obj_style_gen.h **** 
 331:Middlewares/lvgl/src/core/lv_obj_style_gen.h **** static inline const lv_font_t * lv_obj_get_style_text_font(const struct _lv_obj_t * obj, uint32_t p
 332:Middlewares/lvgl/src/core/lv_obj_style_gen.h **** {
 333:Middlewares/lvgl/src/core/lv_obj_style_gen.h ****     lv_style_value_t v = lv_obj_get_style_prop(obj, part, LV_STYLE_TEXT_FONT);
 334:Middlewares/lvgl/src/core/lv_obj_style_gen.h ****     return (const lv_font_t *)v.ptr;
 335:Middlewares/lvgl/src/core/lv_obj_style_gen.h **** }
 336:Middlewares/lvgl/src/core/lv_obj_style_gen.h **** 
 337:Middlewares/lvgl/src/core/lv_obj_style_gen.h **** static inline lv_coord_t lv_obj_get_style_text_letter_space(const struct _lv_obj_t * obj, uint32_t 
 338:Middlewares/lvgl/src/core/lv_obj_style_gen.h **** {
 339:Middlewares/lvgl/src/core/lv_obj_style_gen.h ****     lv_style_value_t v = lv_obj_get_style_prop(obj, part, LV_STYLE_TEXT_LETTER_SPACE);
 340:Middlewares/lvgl/src/core/lv_obj_style_gen.h ****     return (lv_coord_t)v.num;
 341:Middlewares/lvgl/src/core/lv_obj_style_gen.h **** }
 342:Middlewares/lvgl/src/core/lv_obj_style_gen.h **** 
 343:Middlewares/lvgl/src/core/lv_obj_style_gen.h **** static inline lv_coord_t lv_obj_get_style_text_line_space(const struct _lv_obj_t * obj, uint32_t pa
 344:Middlewares/lvgl/src/core/lv_obj_style_gen.h **** {
 345:Middlewares/lvgl/src/core/lv_obj_style_gen.h ****     lv_style_value_t v = lv_obj_get_style_prop(obj, part, LV_STYLE_TEXT_LINE_SPACE);
 346:Middlewares/lvgl/src/core/lv_obj_style_gen.h ****     return (lv_coord_t)v.num;
 347:Middlewares/lvgl/src/core/lv_obj_style_gen.h **** }
ARM GAS  /tmp/cckMVbUO.s 			page 14


 348:Middlewares/lvgl/src/core/lv_obj_style_gen.h **** 
 349:Middlewares/lvgl/src/core/lv_obj_style_gen.h **** static inline lv_text_decor_t lv_obj_get_style_text_decor(const struct _lv_obj_t * obj, uint32_t pa
 350:Middlewares/lvgl/src/core/lv_obj_style_gen.h **** {
 351:Middlewares/lvgl/src/core/lv_obj_style_gen.h ****     lv_style_value_t v = lv_obj_get_style_prop(obj, part, LV_STYLE_TEXT_DECOR);
 352:Middlewares/lvgl/src/core/lv_obj_style_gen.h ****     return (lv_text_decor_t)v.num;
 353:Middlewares/lvgl/src/core/lv_obj_style_gen.h **** }
 354:Middlewares/lvgl/src/core/lv_obj_style_gen.h **** 
 355:Middlewares/lvgl/src/core/lv_obj_style_gen.h **** static inline lv_text_align_t lv_obj_get_style_text_align(const struct _lv_obj_t * obj, uint32_t pa
 356:Middlewares/lvgl/src/core/lv_obj_style_gen.h **** {
 357:Middlewares/lvgl/src/core/lv_obj_style_gen.h ****     lv_style_value_t v = lv_obj_get_style_prop(obj, part, LV_STYLE_TEXT_ALIGN);
 358:Middlewares/lvgl/src/core/lv_obj_style_gen.h ****     return (lv_text_align_t)v.num;
 359:Middlewares/lvgl/src/core/lv_obj_style_gen.h **** }
 360:Middlewares/lvgl/src/core/lv_obj_style_gen.h **** 
 361:Middlewares/lvgl/src/core/lv_obj_style_gen.h **** static inline lv_opa_t lv_obj_get_style_img_opa(const struct _lv_obj_t * obj, uint32_t part)
 362:Middlewares/lvgl/src/core/lv_obj_style_gen.h **** {
 363:Middlewares/lvgl/src/core/lv_obj_style_gen.h ****     lv_style_value_t v = lv_obj_get_style_prop(obj, part, LV_STYLE_IMG_OPA);
 364:Middlewares/lvgl/src/core/lv_obj_style_gen.h ****     return (lv_opa_t)v.num;
 365:Middlewares/lvgl/src/core/lv_obj_style_gen.h **** }
 366:Middlewares/lvgl/src/core/lv_obj_style_gen.h **** 
 367:Middlewares/lvgl/src/core/lv_obj_style_gen.h **** static inline lv_color_t lv_obj_get_style_img_recolor(const struct _lv_obj_t * obj, uint32_t part)
 368:Middlewares/lvgl/src/core/lv_obj_style_gen.h **** {
 369:Middlewares/lvgl/src/core/lv_obj_style_gen.h ****     lv_style_value_t v = lv_obj_get_style_prop(obj, part, LV_STYLE_IMG_RECOLOR);
 370:Middlewares/lvgl/src/core/lv_obj_style_gen.h ****     return v.color;
 371:Middlewares/lvgl/src/core/lv_obj_style_gen.h **** }
 372:Middlewares/lvgl/src/core/lv_obj_style_gen.h **** 
 373:Middlewares/lvgl/src/core/lv_obj_style_gen.h **** static inline lv_color_t lv_obj_get_style_img_recolor_filtered(const struct _lv_obj_t * obj, uint32
 374:Middlewares/lvgl/src/core/lv_obj_style_gen.h **** {
 375:Middlewares/lvgl/src/core/lv_obj_style_gen.h ****     lv_style_value_t v = lv_obj_get_style_prop(obj, part, LV_STYLE_IMG_RECOLOR_FILTERED);
 376:Middlewares/lvgl/src/core/lv_obj_style_gen.h ****     return v.color;
 377:Middlewares/lvgl/src/core/lv_obj_style_gen.h **** }
 378:Middlewares/lvgl/src/core/lv_obj_style_gen.h **** 
 379:Middlewares/lvgl/src/core/lv_obj_style_gen.h **** static inline lv_opa_t lv_obj_get_style_img_recolor_opa(const struct _lv_obj_t * obj, uint32_t part
 380:Middlewares/lvgl/src/core/lv_obj_style_gen.h **** {
 381:Middlewares/lvgl/src/core/lv_obj_style_gen.h ****     lv_style_value_t v = lv_obj_get_style_prop(obj, part, LV_STYLE_IMG_RECOLOR_OPA);
 382:Middlewares/lvgl/src/core/lv_obj_style_gen.h ****     return (lv_opa_t)v.num;
 383:Middlewares/lvgl/src/core/lv_obj_style_gen.h **** }
 384:Middlewares/lvgl/src/core/lv_obj_style_gen.h **** 
 385:Middlewares/lvgl/src/core/lv_obj_style_gen.h **** static inline lv_coord_t lv_obj_get_style_outline_width(const struct _lv_obj_t * obj, uint32_t part
 199              		.loc 2 385 26 view .LVU61
 200              	.LBB161:
 386:Middlewares/lvgl/src/core/lv_obj_style_gen.h **** {
 387:Middlewares/lvgl/src/core/lv_obj_style_gen.h ****     lv_style_value_t v = lv_obj_get_style_prop(obj, part, LV_STYLE_OUTLINE_WIDTH);
 201              		.loc 2 387 5 view .LVU62
 202              		.loc 2 387 26 is_stmt 0 view .LVU63
 203 007e 40F63A02 		movw	r2, #2106
 204 0082 2946     		mov	r1, r5
 205 0084 3046     		mov	r0, r6
 206 0086 FFF7FEFF 		bl	lv_obj_get_style_prop
 207              	.LVL17:
 388:Middlewares/lvgl/src/core/lv_obj_style_gen.h ****     return (lv_coord_t)v.num;
 208              		.loc 2 388 5 is_stmt 1 view .LVU64
 209              		.loc 2 388 12 is_stmt 0 view .LVU65
 210 008a 00B2     		sxth	r0, r0
 211              	.LVL18:
 212              		.loc 2 388 12 view .LVU66
 213              	.LBE161:
 214              	.LBE160:
ARM GAS  /tmp/cckMVbUO.s 			page 15


  81:Middlewares/lvgl/src/core/lv_obj_draw.c ****     if(draw_dsc->outline_width) {
 215              		.loc 1 81 29 view .LVU67
 216 008c 6084     		strh	r0, [r4, #34]	@ movhi
  82:Middlewares/lvgl/src/core/lv_obj_draw.c ****         if(draw_dsc->outline_opa != LV_OPA_TRANSP) {
 217              		.loc 1 82 5 is_stmt 1 view .LVU68
  82:Middlewares/lvgl/src/core/lv_obj_draw.c ****         if(draw_dsc->outline_opa != LV_OPA_TRANSP) {
 218              		.loc 1 82 7 is_stmt 0 view .LVU69
 219 008e 18B1     		cbz	r0, .L7
  83:Middlewares/lvgl/src/core/lv_obj_draw.c ****             draw_dsc->outline_opa = lv_obj_get_style_outline_opa(obj, part);
 220              		.loc 1 83 9 is_stmt 1 view .LVU70
  83:Middlewares/lvgl/src/core/lv_obj_draw.c ****             draw_dsc->outline_opa = lv_obj_get_style_outline_opa(obj, part);
 221              		.loc 1 83 20 is_stmt 0 view .LVU71
 222 0090 94F82630 		ldrb	r3, [r4, #38]	@ zero_extendqisi2
  83:Middlewares/lvgl/src/core/lv_obj_draw.c ****             draw_dsc->outline_opa = lv_obj_get_style_outline_opa(obj, part);
 223              		.loc 1 83 11 view .LVU72
 224 0094 002B     		cmp	r3, #0
 225 0096 75D1     		bne	.L17
 226              	.L7:
  92:Middlewares/lvgl/src/core/lv_obj_draw.c ****         draw_dsc->bg_img_src = lv_obj_get_style_bg_img_src(obj, part);
 227              		.loc 1 92 5 is_stmt 1 view .LVU73
  92:Middlewares/lvgl/src/core/lv_obj_draw.c ****         draw_dsc->bg_img_src = lv_obj_get_style_bg_img_src(obj, part);
 228              		.loc 1 92 16 is_stmt 0 view .LVU74
 229 0098 A37D     		ldrb	r3, [r4, #22]	@ zero_extendqisi2
  92:Middlewares/lvgl/src/core/lv_obj_draw.c ****         draw_dsc->bg_img_src = lv_obj_get_style_bg_img_src(obj, part);
 230              		.loc 1 92 7 view .LVU75
 231 009a 002B     		cmp	r3, #0
 232 009c 40F08C80 		bne	.L18
 233              	.LVL19:
 234              	.L8:
 109:Middlewares/lvgl/src/core/lv_obj_draw.c ****         draw_dsc->shadow_width = lv_obj_get_style_shadow_width(obj, part);
 235              		.loc 1 109 5 is_stmt 1 view .LVU76
 109:Middlewares/lvgl/src/core/lv_obj_draw.c ****         draw_dsc->shadow_width = lv_obj_get_style_shadow_width(obj, part);
 236              		.loc 1 109 16 is_stmt 0 view .LVU77
 237 00a0 94F83230 		ldrb	r3, [r4, #50]	@ zero_extendqisi2
 109:Middlewares/lvgl/src/core/lv_obj_draw.c ****         draw_dsc->shadow_width = lv_obj_get_style_shadow_width(obj, part);
 238              		.loc 1 109 7 view .LVU78
 239 00a4 002B     		cmp	r3, #0
 240 00a6 40F0C480 		bne	.L19
 241              	.L10:
 124:Middlewares/lvgl/src/core/lv_obj_draw.c ****         opa = (uint16_t)((uint16_t) main_opa * opa) >> 8;
 242              		.loc 1 124 5 is_stmt 1 view .LVU79
 124:Middlewares/lvgl/src/core/lv_obj_draw.c ****         opa = (uint16_t)((uint16_t) main_opa * opa) >> 8;
 243              		.loc 1 124 7 is_stmt 0 view .LVU80
 244 00aa B8F1FC0F 		cmp	r8, #252
 245 00ae 03D8     		bhi	.L11
 125:Middlewares/lvgl/src/core/lv_obj_draw.c ****     }
 246              		.loc 1 125 9 is_stmt 1 view .LVU81
 125:Middlewares/lvgl/src/core/lv_obj_draw.c ****     }
 247              		.loc 1 125 15 is_stmt 0 view .LVU82
 248 00b0 08FB07F7 		mul	r7, r8, r7
 249              	.LVL20:
 125:Middlewares/lvgl/src/core/lv_obj_draw.c ****     }
 250              		.loc 1 125 13 view .LVU83
 251 00b4 C7F30727 		ubfx	r7, r7, #8, #8
 252              	.LVL21:
 253              	.L11:
 128:Middlewares/lvgl/src/core/lv_obj_draw.c ****         draw_dsc->bg_opa = (uint16_t)((uint16_t)draw_dsc->bg_opa * opa) >> 8;
ARM GAS  /tmp/cckMVbUO.s 			page 16


 254              		.loc 1 128 5 is_stmt 1 view .LVU84
 128:Middlewares/lvgl/src/core/lv_obj_draw.c ****         draw_dsc->bg_opa = (uint16_t)((uint16_t)draw_dsc->bg_opa * opa) >> 8;
 255              		.loc 1 128 7 is_stmt 0 view .LVU85
 256 00b8 FC2F     		cmp	r7, #252
 257 00ba C0D8     		bhi	.L1
 129:Middlewares/lvgl/src/core/lv_obj_draw.c ****         draw_dsc->border_opa = (uint16_t)((uint16_t)draw_dsc->border_opa * opa) >> 8;
 258              		.loc 1 129 9 is_stmt 1 view .LVU86
 129:Middlewares/lvgl/src/core/lv_obj_draw.c ****         draw_dsc->border_opa = (uint16_t)((uint16_t)draw_dsc->border_opa * opa) >> 8;
 259              		.loc 1 129 57 is_stmt 0 view .LVU87
 260 00bc A37A     		ldrb	r3, [r4, #10]	@ zero_extendqisi2
 129:Middlewares/lvgl/src/core/lv_obj_draw.c ****         draw_dsc->border_opa = (uint16_t)((uint16_t)draw_dsc->border_opa * opa) >> 8;
 261              		.loc 1 129 28 view .LVU88
 262 00be 07FB03F3 		mul	r3, r7, r3
 129:Middlewares/lvgl/src/core/lv_obj_draw.c ****         draw_dsc->border_opa = (uint16_t)((uint16_t)draw_dsc->border_opa * opa) >> 8;
 263              		.loc 1 129 26 view .LVU89
 264 00c2 1B0A     		lsrs	r3, r3, #8
 265 00c4 A372     		strb	r3, [r4, #10]
 130:Middlewares/lvgl/src/core/lv_obj_draw.c ****         draw_dsc->shadow_opa = (uint16_t)((uint16_t)draw_dsc->shadow_opa * opa) >> 8;
 266              		.loc 1 130 9 is_stmt 1 view .LVU90
 130:Middlewares/lvgl/src/core/lv_obj_draw.c ****         draw_dsc->shadow_opa = (uint16_t)((uint16_t)draw_dsc->shadow_opa * opa) >> 8;
 267              		.loc 1 130 61 is_stmt 0 view .LVU91
 268 00c6 A37F     		ldrb	r3, [r4, #30]	@ zero_extendqisi2
 130:Middlewares/lvgl/src/core/lv_obj_draw.c ****         draw_dsc->shadow_opa = (uint16_t)((uint16_t)draw_dsc->shadow_opa * opa) >> 8;
 269              		.loc 1 130 32 view .LVU92
 270 00c8 07FB03F3 		mul	r3, r7, r3
 130:Middlewares/lvgl/src/core/lv_obj_draw.c ****         draw_dsc->shadow_opa = (uint16_t)((uint16_t)draw_dsc->shadow_opa * opa) >> 8;
 271              		.loc 1 130 30 view .LVU93
 272 00cc 1B0A     		lsrs	r3, r3, #8
 273 00ce A377     		strb	r3, [r4, #30]
 131:Middlewares/lvgl/src/core/lv_obj_draw.c ****         draw_dsc->outline_opa = (uint16_t)((uint16_t)draw_dsc->outline_opa * opa) >> 8;
 274              		.loc 1 131 9 is_stmt 1 view .LVU94
 131:Middlewares/lvgl/src/core/lv_obj_draw.c ****         draw_dsc->outline_opa = (uint16_t)((uint16_t)draw_dsc->outline_opa * opa) >> 8;
 275              		.loc 1 131 61 is_stmt 0 view .LVU95
 276 00d0 94F83230 		ldrb	r3, [r4, #50]	@ zero_extendqisi2
 131:Middlewares/lvgl/src/core/lv_obj_draw.c ****         draw_dsc->outline_opa = (uint16_t)((uint16_t)draw_dsc->outline_opa * opa) >> 8;
 277              		.loc 1 131 32 view .LVU96
 278 00d4 07FB03F3 		mul	r3, r7, r3
 131:Middlewares/lvgl/src/core/lv_obj_draw.c ****         draw_dsc->outline_opa = (uint16_t)((uint16_t)draw_dsc->outline_opa * opa) >> 8;
 279              		.loc 1 131 30 view .LVU97
 280 00d8 1B0A     		lsrs	r3, r3, #8
 281 00da 84F83230 		strb	r3, [r4, #50]
 132:Middlewares/lvgl/src/core/lv_obj_draw.c ****     }
 282              		.loc 1 132 9 is_stmt 1 view .LVU98
 132:Middlewares/lvgl/src/core/lv_obj_draw.c ****     }
 283              		.loc 1 132 62 is_stmt 0 view .LVU99
 284 00de 94F82600 		ldrb	r0, [r4, #38]	@ zero_extendqisi2
 285              	.LVL22:
 132:Middlewares/lvgl/src/core/lv_obj_draw.c ****     }
 286              		.loc 1 132 33 view .LVU100
 287 00e2 00FB07F7 		mul	r7, r0, r7
 288              	.LVL23:
 132:Middlewares/lvgl/src/core/lv_obj_draw.c ****     }
 289              		.loc 1 132 31 view .LVU101
 290 00e6 3F0A     		lsrs	r7, r7, #8
 291 00e8 84F82670 		strb	r7, [r4, #38]
 292 00ec A7E7     		b	.L1
 293              	.LVL24:
ARM GAS  /tmp/cckMVbUO.s 			page 17


 294              	.L15:
  58:Middlewares/lvgl/src/core/lv_obj_draw.c ****         if(draw_dsc->bg_opa > LV_OPA_MIN) {
 295              		.loc 1 58 9 is_stmt 1 view .LVU102
 296              	.LBB162:
 297              	.LBI162:
 205:Middlewares/lvgl/src/core/lv_obj_style_gen.h **** {
 298              		.loc 2 205 24 view .LVU103
 299              	.LBB163:
 207:Middlewares/lvgl/src/core/lv_obj_style_gen.h ****     return (lv_opa_t)v.num;
 300              		.loc 2 207 5 view .LVU104
 207:Middlewares/lvgl/src/core/lv_obj_style_gen.h ****     return (lv_opa_t)v.num;
 301              		.loc 2 207 26 is_stmt 0 view .LVU105
 302 00ee 2122     		movs	r2, #33
 303 00f0 2946     		mov	r1, r5
 304 00f2 3046     		mov	r0, r6
 305 00f4 FFF7FEFF 		bl	lv_obj_get_style_prop
 306              	.LVL25:
 208:Middlewares/lvgl/src/core/lv_obj_style_gen.h **** }
 307              		.loc 2 208 5 is_stmt 1 view .LVU106
 208:Middlewares/lvgl/src/core/lv_obj_style_gen.h **** }
 308              		.loc 2 208 12 is_stmt 0 view .LVU107
 309 00f8 C0B2     		uxtb	r0, r0
 310              	.LVL26:
 208:Middlewares/lvgl/src/core/lv_obj_style_gen.h **** }
 311              		.loc 2 208 12 view .LVU108
 312              	.LBE163:
 313              	.LBE162:
  58:Middlewares/lvgl/src/core/lv_obj_draw.c ****         if(draw_dsc->bg_opa > LV_OPA_MIN) {
 314              		.loc 1 58 26 view .LVU109
 315 00fa A072     		strb	r0, [r4, #10]
  59:Middlewares/lvgl/src/core/lv_obj_draw.c ****             draw_dsc->bg_color = lv_obj_get_style_bg_color_filtered(obj, part);
 316              		.loc 1 59 9 is_stmt 1 view .LVU110
  59:Middlewares/lvgl/src/core/lv_obj_draw.c ****             draw_dsc->bg_color = lv_obj_get_style_bg_color_filtered(obj, part);
 317              		.loc 1 59 11 is_stmt 0 view .LVU111
 318 00fc 0228     		cmp	r0, #2
 319 00fe B2D9     		bls	.L5
  60:Middlewares/lvgl/src/core/lv_obj_draw.c ****             draw_dsc->bg_grad_dir =  lv_obj_get_style_bg_grad_dir(obj, part);
 320              		.loc 1 60 13 is_stmt 1 view .LVU112
 321              	.LVL27:
 322              	.LBB164:
 323              	.LBI164:
 199:Middlewares/lvgl/src/core/lv_obj_style_gen.h **** {
 324              		.loc 2 199 26 view .LVU113
 325              	.LBB165:
 201:Middlewares/lvgl/src/core/lv_obj_style_gen.h ****     return v.color;
 326              		.loc 2 201 5 view .LVU114
 201:Middlewares/lvgl/src/core/lv_obj_style_gen.h ****     return v.color;
 327              		.loc 2 201 26 is_stmt 0 view .LVU115
 328 0100 44F22002 		movw	r2, #16416
 329 0104 2946     		mov	r1, r5
 330 0106 3046     		mov	r0, r6
 331 0108 FFF7FEFF 		bl	lv_obj_get_style_prop
 332              	.LVL28:
 202:Middlewares/lvgl/src/core/lv_obj_style_gen.h **** }
 333              		.loc 2 202 5 is_stmt 1 view .LVU116
 202:Middlewares/lvgl/src/core/lv_obj_style_gen.h **** }
 334              		.loc 2 202 5 is_stmt 0 view .LVU117
ARM GAS  /tmp/cckMVbUO.s 			page 18


 335              	.LBE165:
 336              	.LBE164:
  60:Middlewares/lvgl/src/core/lv_obj_draw.c ****             draw_dsc->bg_grad_dir =  lv_obj_get_style_bg_grad_dir(obj, part);
 337              		.loc 1 60 34 view .LVU118
 338 010c A080     		strh	r0, [r4, #4]	@ movhi
  61:Middlewares/lvgl/src/core/lv_obj_draw.c ****             if(draw_dsc->bg_grad_dir != LV_GRAD_DIR_NONE) {
 339              		.loc 1 61 13 is_stmt 1 view .LVU119
 340              	.LVL29:
 341              	.LBB166:
 342              	.LBI166:
 223:Middlewares/lvgl/src/core/lv_obj_style_gen.h **** {
 343              		.loc 2 223 29 view .LVU120
 344              	.LBB167:
 225:Middlewares/lvgl/src/core/lv_obj_style_gen.h ****     return (lv_grad_dir_t)v.num;
 345              		.loc 2 225 5 view .LVU121
 225:Middlewares/lvgl/src/core/lv_obj_style_gen.h ****     return (lv_grad_dir_t)v.num;
 346              		.loc 2 225 26 is_stmt 0 view .LVU122
 347 010e 2322     		movs	r2, #35
 348 0110 2946     		mov	r1, r5
 349 0112 3046     		mov	r0, r6
 350 0114 FFF7FEFF 		bl	lv_obj_get_style_prop
 351              	.LVL30:
 226:Middlewares/lvgl/src/core/lv_obj_style_gen.h **** }
 352              		.loc 2 226 5 is_stmt 1 view .LVU123
 226:Middlewares/lvgl/src/core/lv_obj_style_gen.h **** }
 353              		.loc 2 226 5 is_stmt 0 view .LVU124
 354              	.LBE167:
 355              	.LBE166:
  61:Middlewares/lvgl/src/core/lv_obj_draw.c ****             if(draw_dsc->bg_grad_dir != LV_GRAD_DIR_NONE) {
 356              		.loc 1 61 35 view .LVU125
 357 0118 E37A     		ldrb	r3, [r4, #11]	@ zero_extendqisi2
 358 011a 60F30203 		bfi	r3, r0, #0, #3
 359 011e E372     		strb	r3, [r4, #11]
  62:Middlewares/lvgl/src/core/lv_obj_draw.c ****                 draw_dsc->bg_grad_color = lv_obj_get_style_bg_grad_color_filtered(obj, part);
 360              		.loc 1 62 13 is_stmt 1 view .LVU126
  62:Middlewares/lvgl/src/core/lv_obj_draw.c ****                 draw_dsc->bg_grad_color = lv_obj_get_style_bg_grad_color_filtered(obj, part);
 361              		.loc 1 62 38 is_stmt 0 view .LVU127
 362 0120 DBB2     		uxtb	r3, r3
  62:Middlewares/lvgl/src/core/lv_obj_draw.c ****                 draw_dsc->bg_grad_color = lv_obj_get_style_bg_grad_color_filtered(obj, part);
 363              		.loc 1 62 15 view .LVU128
 364 0122 13F0070F 		tst	r3, #7
 365 0126 9ED0     		beq	.L5
  63:Middlewares/lvgl/src/core/lv_obj_draw.c ****                 draw_dsc->bg_main_color_stop =  lv_obj_get_style_bg_main_stop(obj, part);
 366              		.loc 1 63 17 is_stmt 1 view .LVU129
 367              	.LVL31:
 368              	.LBB168:
 369              	.LBI168:
 217:Middlewares/lvgl/src/core/lv_obj_style_gen.h **** {
 370              		.loc 2 217 26 view .LVU130
 371              	.LBB169:
 219:Middlewares/lvgl/src/core/lv_obj_style_gen.h ****     return v.color;
 372              		.loc 2 219 5 view .LVU131
 219:Middlewares/lvgl/src/core/lv_obj_style_gen.h ****     return v.color;
 373              		.loc 2 219 26 is_stmt 0 view .LVU132
 374 0128 44F22202 		movw	r2, #16418
 375 012c 2946     		mov	r1, r5
 376 012e 3046     		mov	r0, r6
ARM GAS  /tmp/cckMVbUO.s 			page 19


 377 0130 FFF7FEFF 		bl	lv_obj_get_style_prop
 378              	.LVL32:
 220:Middlewares/lvgl/src/core/lv_obj_style_gen.h **** }
 379              		.loc 2 220 5 is_stmt 1 view .LVU133
 220:Middlewares/lvgl/src/core/lv_obj_style_gen.h **** }
 380              		.loc 2 220 5 is_stmt 0 view .LVU134
 381              	.LBE169:
 382              	.LBE168:
  63:Middlewares/lvgl/src/core/lv_obj_draw.c ****                 draw_dsc->bg_main_color_stop =  lv_obj_get_style_bg_main_stop(obj, part);
 383              		.loc 1 63 43 view .LVU135
 384 0134 E080     		strh	r0, [r4, #6]	@ movhi
  64:Middlewares/lvgl/src/core/lv_obj_draw.c ****                 draw_dsc->bg_grad_color_stop =  lv_obj_get_style_bg_grad_stop(obj, part);
 385              		.loc 1 64 17 is_stmt 1 view .LVU136
 386              	.LVL33:
 387              	.LBB170:
 388              	.LBI170:
 229:Middlewares/lvgl/src/core/lv_obj_style_gen.h **** {
 389              		.loc 2 229 26 view .LVU137
 390              	.LBB171:
 231:Middlewares/lvgl/src/core/lv_obj_style_gen.h ****     return (lv_coord_t)v.num;
 391              		.loc 2 231 5 view .LVU138
 231:Middlewares/lvgl/src/core/lv_obj_style_gen.h ****     return (lv_coord_t)v.num;
 392              		.loc 2 231 26 is_stmt 0 view .LVU139
 393 0136 2422     		movs	r2, #36
 394 0138 2946     		mov	r1, r5
 395 013a 3046     		mov	r0, r6
 396 013c FFF7FEFF 		bl	lv_obj_get_style_prop
 397              	.LVL34:
 232:Middlewares/lvgl/src/core/lv_obj_style_gen.h **** }
 398              		.loc 2 232 5 is_stmt 1 view .LVU140
 232:Middlewares/lvgl/src/core/lv_obj_style_gen.h **** }
 399              		.loc 2 232 5 is_stmt 0 view .LVU141
 400              	.LBE171:
 401              	.LBE170:
  64:Middlewares/lvgl/src/core/lv_obj_draw.c ****                 draw_dsc->bg_grad_color_stop =  lv_obj_get_style_bg_grad_stop(obj, part);
 402              		.loc 1 64 46 view .LVU142
 403 0140 2072     		strb	r0, [r4, #8]
  65:Middlewares/lvgl/src/core/lv_obj_draw.c ****             }
 404              		.loc 1 65 17 is_stmt 1 view .LVU143
 405              	.LVL35:
 406              	.LBB172:
 407              	.LBI172:
 235:Middlewares/lvgl/src/core/lv_obj_style_gen.h **** {
 408              		.loc 2 235 26 view .LVU144
 409              	.LBB173:
 237:Middlewares/lvgl/src/core/lv_obj_style_gen.h ****     return (lv_coord_t)v.num;
 410              		.loc 2 237 5 view .LVU145
 237:Middlewares/lvgl/src/core/lv_obj_style_gen.h ****     return (lv_coord_t)v.num;
 411              		.loc 2 237 26 is_stmt 0 view .LVU146
 412 0142 2522     		movs	r2, #37
 413 0144 2946     		mov	r1, r5
 414 0146 3046     		mov	r0, r6
 415 0148 FFF7FEFF 		bl	lv_obj_get_style_prop
 416              	.LVL36:
 238:Middlewares/lvgl/src/core/lv_obj_style_gen.h **** }
 417              		.loc 2 238 5 is_stmt 1 view .LVU147
 238:Middlewares/lvgl/src/core/lv_obj_style_gen.h **** }
ARM GAS  /tmp/cckMVbUO.s 			page 20


 418              		.loc 2 238 5 is_stmt 0 view .LVU148
 419              	.LBE173:
 420              	.LBE172:
  65:Middlewares/lvgl/src/core/lv_obj_draw.c ****             }
 421              		.loc 1 65 46 view .LVU149
 422 014c 6072     		strb	r0, [r4, #9]
 423 014e 8AE7     		b	.L5
 424              	.L16:
  73:Middlewares/lvgl/src/core/lv_obj_draw.c ****             if(draw_dsc->border_opa > LV_OPA_MIN) {
 425              		.loc 1 73 13 is_stmt 1 view .LVU150
 426              	.LVL37:
 427              	.LBB174:
 428              	.LBI174:
 289:Middlewares/lvgl/src/core/lv_obj_style_gen.h **** {
 429              		.loc 2 289 24 view .LVU151
 430              	.LBB175:
 291:Middlewares/lvgl/src/core/lv_obj_style_gen.h ****     return (lv_opa_t)v.num;
 431              		.loc 2 291 5 view .LVU152
 291:Middlewares/lvgl/src/core/lv_obj_style_gen.h ****     return (lv_opa_t)v.num;
 432              		.loc 2 291 26 is_stmt 0 view .LVU153
 433 0150 3122     		movs	r2, #49
 434 0152 2946     		mov	r1, r5
 435 0154 3046     		mov	r0, r6
 436 0156 FFF7FEFF 		bl	lv_obj_get_style_prop
 437              	.LVL38:
 292:Middlewares/lvgl/src/core/lv_obj_style_gen.h **** }
 438              		.loc 2 292 5 is_stmt 1 view .LVU154
 292:Middlewares/lvgl/src/core/lv_obj_style_gen.h **** }
 439              		.loc 2 292 12 is_stmt 0 view .LVU155
 440 015a C0B2     		uxtb	r0, r0
 441              	.LVL39:
 292:Middlewares/lvgl/src/core/lv_obj_style_gen.h **** }
 442              		.loc 2 292 12 view .LVU156
 443              	.LBE175:
 444              	.LBE174:
  73:Middlewares/lvgl/src/core/lv_obj_draw.c ****             if(draw_dsc->border_opa > LV_OPA_MIN) {
 445              		.loc 1 73 34 view .LVU157
 446 015c A077     		strb	r0, [r4, #30]
  74:Middlewares/lvgl/src/core/lv_obj_draw.c ****                 draw_dsc->border_side = lv_obj_get_style_border_side(obj, part);
 447              		.loc 1 74 13 is_stmt 1 view .LVU158
  74:Middlewares/lvgl/src/core/lv_obj_draw.c ****                 draw_dsc->border_side = lv_obj_get_style_border_side(obj, part);
 448              		.loc 1 74 15 is_stmt 0 view .LVU159
 449 015e 0228     		cmp	r0, #2
 450 0160 8DD9     		bls	.L6
  75:Middlewares/lvgl/src/core/lv_obj_draw.c ****                 draw_dsc->border_color = lv_obj_get_style_border_color_filtered(obj, part);
 451              		.loc 1 75 17 is_stmt 1 view .LVU160
 452              	.LVL40:
 453              	.LBB176:
 454              	.LBI176:
 301:Middlewares/lvgl/src/core/lv_obj_style_gen.h **** {
 455              		.loc 2 301 32 view .LVU161
 456              	.LBB177:
 303:Middlewares/lvgl/src/core/lv_obj_style_gen.h ****     return (lv_border_side_t)v.num;
 457              		.loc 2 303 5 view .LVU162
 303:Middlewares/lvgl/src/core/lv_obj_style_gen.h ****     return (lv_border_side_t)v.num;
 458              		.loc 2 303 26 is_stmt 0 view .LVU163
 459 0162 3322     		movs	r2, #51
ARM GAS  /tmp/cckMVbUO.s 			page 21


 460 0164 2946     		mov	r1, r5
 461 0166 3046     		mov	r0, r6
 462 0168 FFF7FEFF 		bl	lv_obj_get_style_prop
 463              	.LVL41:
 304:Middlewares/lvgl/src/core/lv_obj_style_gen.h **** }
 464              		.loc 2 304 5 is_stmt 1 view .LVU164
 304:Middlewares/lvgl/src/core/lv_obj_style_gen.h **** }
 465              		.loc 2 304 5 is_stmt 0 view .LVU165
 466              	.LBE177:
 467              	.LBE176:
  75:Middlewares/lvgl/src/core/lv_obj_draw.c ****                 draw_dsc->border_color = lv_obj_get_style_border_color_filtered(obj, part);
 468              		.loc 1 75 39 view .LVU166
 469 016c E37F     		ldrb	r3, [r4, #31]	@ zero_extendqisi2
 470 016e 60F34503 		bfi	r3, r0, #1, #5
 471 0172 E377     		strb	r3, [r4, #31]
  76:Middlewares/lvgl/src/core/lv_obj_draw.c ****             }
 472              		.loc 1 76 17 is_stmt 1 view .LVU167
 473              	.LVL42:
 474              	.LBB178:
 475              	.LBI178:
 283:Middlewares/lvgl/src/core/lv_obj_style_gen.h **** {
 476              		.loc 2 283 26 view .LVU168
 477              	.LBB179:
 285:Middlewares/lvgl/src/core/lv_obj_style_gen.h ****     return v.color;
 478              		.loc 2 285 5 view .LVU169
 285:Middlewares/lvgl/src/core/lv_obj_style_gen.h ****     return v.color;
 479              		.loc 2 285 26 is_stmt 0 view .LVU170
 480 0174 44F23002 		movw	r2, #16432
 481 0178 2946     		mov	r1, r5
 482 017a 3046     		mov	r0, r6
 483 017c FFF7FEFF 		bl	lv_obj_get_style_prop
 484              	.LVL43:
 286:Middlewares/lvgl/src/core/lv_obj_style_gen.h **** }
 485              		.loc 2 286 5 is_stmt 1 view .LVU171
 286:Middlewares/lvgl/src/core/lv_obj_style_gen.h **** }
 486              		.loc 2 286 5 is_stmt 0 view .LVU172
 487              	.LBE179:
 488              	.LBE178:
  76:Middlewares/lvgl/src/core/lv_obj_draw.c ****             }
 489              		.loc 1 76 42 view .LVU173
 490 0180 6083     		strh	r0, [r4, #26]	@ movhi
 491 0182 7CE7     		b	.L6
 492              	.L17:
  84:Middlewares/lvgl/src/core/lv_obj_draw.c ****             if(draw_dsc->outline_opa > LV_OPA_MIN) {
 493              		.loc 1 84 13 is_stmt 1 view .LVU174
 494              	.LVL44:
 495              	.LBB180:
 496              	.LBI180:
 389:Middlewares/lvgl/src/core/lv_obj_style_gen.h **** }
 390:Middlewares/lvgl/src/core/lv_obj_style_gen.h **** 
 391:Middlewares/lvgl/src/core/lv_obj_style_gen.h **** static inline lv_color_t lv_obj_get_style_outline_color(const struct _lv_obj_t * obj, uint32_t part
 392:Middlewares/lvgl/src/core/lv_obj_style_gen.h **** {
 393:Middlewares/lvgl/src/core/lv_obj_style_gen.h ****     lv_style_value_t v = lv_obj_get_style_prop(obj, part, LV_STYLE_OUTLINE_COLOR);
 394:Middlewares/lvgl/src/core/lv_obj_style_gen.h ****     return v.color;
 395:Middlewares/lvgl/src/core/lv_obj_style_gen.h **** }
 396:Middlewares/lvgl/src/core/lv_obj_style_gen.h **** 
 397:Middlewares/lvgl/src/core/lv_obj_style_gen.h **** static inline lv_color_t lv_obj_get_style_outline_color_filtered(const struct _lv_obj_t * obj, uint
ARM GAS  /tmp/cckMVbUO.s 			page 22


 398:Middlewares/lvgl/src/core/lv_obj_style_gen.h **** {
 399:Middlewares/lvgl/src/core/lv_obj_style_gen.h ****     lv_style_value_t v = lv_obj_get_style_prop(obj, part, LV_STYLE_OUTLINE_COLOR_FILTERED);
 400:Middlewares/lvgl/src/core/lv_obj_style_gen.h ****     return v.color;
 401:Middlewares/lvgl/src/core/lv_obj_style_gen.h **** }
 402:Middlewares/lvgl/src/core/lv_obj_style_gen.h **** 
 403:Middlewares/lvgl/src/core/lv_obj_style_gen.h **** static inline lv_opa_t lv_obj_get_style_outline_opa(const struct _lv_obj_t * obj, uint32_t part)
 497              		.loc 2 403 24 view .LVU175
 498              	.LBB181:
 404:Middlewares/lvgl/src/core/lv_obj_style_gen.h **** {
 405:Middlewares/lvgl/src/core/lv_obj_style_gen.h ****     lv_style_value_t v = lv_obj_get_style_prop(obj, part, LV_STYLE_OUTLINE_OPA);
 499              		.loc 2 405 5 view .LVU176
 500              		.loc 2 405 26 is_stmt 0 view .LVU177
 501 0184 40F63C02 		movw	r2, #2108
 502 0188 2946     		mov	r1, r5
 503 018a 3046     		mov	r0, r6
 504 018c FFF7FEFF 		bl	lv_obj_get_style_prop
 505              	.LVL45:
 406:Middlewares/lvgl/src/core/lv_obj_style_gen.h ****     return (lv_opa_t)v.num;
 506              		.loc 2 406 5 is_stmt 1 view .LVU178
 507              		.loc 2 406 12 is_stmt 0 view .LVU179
 508 0190 C0B2     		uxtb	r0, r0
 509              	.LVL46:
 510              		.loc 2 406 12 view .LVU180
 511              	.LBE181:
 512              	.LBE180:
  84:Middlewares/lvgl/src/core/lv_obj_draw.c ****             if(draw_dsc->outline_opa > LV_OPA_MIN) {
 513              		.loc 1 84 35 view .LVU181
 514 0192 84F82600 		strb	r0, [r4, #38]
  85:Middlewares/lvgl/src/core/lv_obj_draw.c ****                 draw_dsc->outline_pad = lv_obj_get_style_outline_pad(obj, part);
 515              		.loc 1 85 13 is_stmt 1 view .LVU182
  85:Middlewares/lvgl/src/core/lv_obj_draw.c ****                 draw_dsc->outline_pad = lv_obj_get_style_outline_pad(obj, part);
 516              		.loc 1 85 15 is_stmt 0 view .LVU183
 517 0196 0228     		cmp	r0, #2
 518 0198 7FF67EAF 		bls	.L7
  86:Middlewares/lvgl/src/core/lv_obj_draw.c ****                 draw_dsc->outline_color = lv_obj_get_style_outline_color(obj, part);
 519              		.loc 1 86 17 is_stmt 1 view .LVU184
 520              	.LVL47:
 521              	.LBB182:
 522              	.LBI182:
 407:Middlewares/lvgl/src/core/lv_obj_style_gen.h **** }
 408:Middlewares/lvgl/src/core/lv_obj_style_gen.h **** 
 409:Middlewares/lvgl/src/core/lv_obj_style_gen.h **** static inline lv_coord_t lv_obj_get_style_outline_pad(const struct _lv_obj_t * obj, uint32_t part)
 523              		.loc 2 409 26 view .LVU185
 524              	.LBB183:
 410:Middlewares/lvgl/src/core/lv_obj_style_gen.h **** {
 411:Middlewares/lvgl/src/core/lv_obj_style_gen.h ****     lv_style_value_t v = lv_obj_get_style_prop(obj, part, LV_STYLE_OUTLINE_PAD);
 525              		.loc 2 411 5 view .LVU186
 526              		.loc 2 411 26 is_stmt 0 view .LVU187
 527 019c 40F63D02 		movw	r2, #2109
 528 01a0 2946     		mov	r1, r5
 529 01a2 3046     		mov	r0, r6
 530 01a4 FFF7FEFF 		bl	lv_obj_get_style_prop
 531              	.LVL48:
 412:Middlewares/lvgl/src/core/lv_obj_style_gen.h ****     return (lv_coord_t)v.num;
 532              		.loc 2 412 5 is_stmt 1 view .LVU188
 533              		.loc 2 412 5 is_stmt 0 view .LVU189
 534              	.LBE183:
ARM GAS  /tmp/cckMVbUO.s 			page 23


 535              	.LBE182:
  86:Middlewares/lvgl/src/core/lv_obj_draw.c ****                 draw_dsc->outline_color = lv_obj_get_style_outline_color(obj, part);
 536              		.loc 1 86 39 view .LVU190
 537 01a8 A084     		strh	r0, [r4, #36]	@ movhi
  87:Middlewares/lvgl/src/core/lv_obj_draw.c ****             }
 538              		.loc 1 87 17 is_stmt 1 view .LVU191
 539              	.LVL49:
 540              	.LBB184:
 541              	.LBI184:
 391:Middlewares/lvgl/src/core/lv_obj_style_gen.h **** {
 542              		.loc 2 391 26 view .LVU192
 543              	.LBB185:
 393:Middlewares/lvgl/src/core/lv_obj_style_gen.h ****     return v.color;
 544              		.loc 2 393 5 view .LVU193
 393:Middlewares/lvgl/src/core/lv_obj_style_gen.h ****     return v.color;
 545              		.loc 2 393 26 is_stmt 0 view .LVU194
 546 01aa 3B22     		movs	r2, #59
 547 01ac 2946     		mov	r1, r5
 548 01ae 3046     		mov	r0, r6
 549 01b0 FFF7FEFF 		bl	lv_obj_get_style_prop
 550              	.LVL50:
 394:Middlewares/lvgl/src/core/lv_obj_style_gen.h **** }
 551              		.loc 2 394 5 is_stmt 1 view .LVU195
 394:Middlewares/lvgl/src/core/lv_obj_style_gen.h **** }
 552              		.loc 2 394 5 is_stmt 0 view .LVU196
 553              	.LBE185:
 554              	.LBE184:
  87:Middlewares/lvgl/src/core/lv_obj_draw.c ****             }
 555              		.loc 1 87 43 view .LVU197
 556 01b4 2084     		strh	r0, [r4, #32]	@ movhi
 557 01b6 6FE7     		b	.L7
 558              	.L18:
  93:Middlewares/lvgl/src/core/lv_obj_draw.c ****         if(draw_dsc->bg_img_src) {
 559              		.loc 1 93 9 is_stmt 1 view .LVU198
 560              	.LVL51:
 561              	.LBB186:
 562              	.LBI186:
 241:Middlewares/lvgl/src/core/lv_obj_style_gen.h **** {
 563              		.loc 2 241 28 view .LVU199
 564              	.LBB187:
 243:Middlewares/lvgl/src/core/lv_obj_style_gen.h ****     return (const void *)v.ptr;
 565              		.loc 2 243 5 view .LVU200
 243:Middlewares/lvgl/src/core/lv_obj_style_gen.h ****     return (const void *)v.ptr;
 566              		.loc 2 243 26 is_stmt 0 view .LVU201
 567 01b8 2622     		movs	r2, #38
 568 01ba 2946     		mov	r1, r5
 569 01bc 3046     		mov	r0, r6
 570 01be FFF7FEFF 		bl	lv_obj_get_style_prop
 571              	.LVL52:
 244:Middlewares/lvgl/src/core/lv_obj_style_gen.h **** }
 572              		.loc 2 244 5 is_stmt 1 view .LVU202
 244:Middlewares/lvgl/src/core/lv_obj_style_gen.h **** }
 573              		.loc 2 244 5 is_stmt 0 view .LVU203
 574              	.LBE187:
 575              	.LBE186:
  93:Middlewares/lvgl/src/core/lv_obj_draw.c ****         if(draw_dsc->bg_img_src) {
 576              		.loc 1 93 30 view .LVU204
ARM GAS  /tmp/cckMVbUO.s 			page 24


 577 01c2 E060     		str	r0, [r4, #12]
  94:Middlewares/lvgl/src/core/lv_obj_draw.c ****             draw_dsc->bg_img_opa = lv_obj_get_style_bg_img_opa(obj, part);
 578              		.loc 1 94 9 is_stmt 1 view .LVU205
  94:Middlewares/lvgl/src/core/lv_obj_draw.c ****             draw_dsc->bg_img_opa = lv_obj_get_style_bg_img_opa(obj, part);
 579              		.loc 1 94 11 is_stmt 0 view .LVU206
 580 01c4 0028     		cmp	r0, #0
 581 01c6 3FF46BAF 		beq	.L8
  95:Middlewares/lvgl/src/core/lv_obj_draw.c ****             if(draw_dsc->bg_img_opa > LV_OPA_MIN) {
 582              		.loc 1 95 13 is_stmt 1 view .LVU207
 583              	.LVL53:
 584              	.LBB188:
 585              	.LBI188:
 247:Middlewares/lvgl/src/core/lv_obj_style_gen.h **** {
 586              		.loc 2 247 24 view .LVU208
 587              	.LBB189:
 249:Middlewares/lvgl/src/core/lv_obj_style_gen.h ****     return (lv_opa_t)v.num;
 588              		.loc 2 249 5 view .LVU209
 249:Middlewares/lvgl/src/core/lv_obj_style_gen.h ****     return (lv_opa_t)v.num;
 589              		.loc 2 249 26 is_stmt 0 view .LVU210
 590 01ca 2722     		movs	r2, #39
 591 01cc 2946     		mov	r1, r5
 592 01ce 3046     		mov	r0, r6
 593              	.LVL54:
 249:Middlewares/lvgl/src/core/lv_obj_style_gen.h ****     return (lv_opa_t)v.num;
 594              		.loc 2 249 26 view .LVU211
 595 01d0 FFF7FEFF 		bl	lv_obj_get_style_prop
 596              	.LVL55:
 250:Middlewares/lvgl/src/core/lv_obj_style_gen.h **** }
 597              		.loc 2 250 5 is_stmt 1 view .LVU212
 250:Middlewares/lvgl/src/core/lv_obj_style_gen.h **** }
 598              		.loc 2 250 12 is_stmt 0 view .LVU213
 599 01d4 C0B2     		uxtb	r0, r0
 600              	.LVL56:
 250:Middlewares/lvgl/src/core/lv_obj_style_gen.h **** }
 601              		.loc 2 250 12 view .LVU214
 602              	.LBE189:
 603              	.LBE188:
  95:Middlewares/lvgl/src/core/lv_obj_draw.c ****             if(draw_dsc->bg_img_opa > LV_OPA_MIN) {
 604              		.loc 1 95 34 view .LVU215
 605 01d6 A075     		strb	r0, [r4, #22]
  96:Middlewares/lvgl/src/core/lv_obj_draw.c ****                 if(lv_img_src_get_type(draw_dsc->bg_img_src) == LV_IMG_SRC_SYMBOL) {
 606              		.loc 1 96 13 is_stmt 1 view .LVU216
  96:Middlewares/lvgl/src/core/lv_obj_draw.c ****                 if(lv_img_src_get_type(draw_dsc->bg_img_src) == LV_IMG_SRC_SYMBOL) {
 607              		.loc 1 96 15 is_stmt 0 view .LVU217
 608 01d8 0228     		cmp	r0, #2
 609 01da 7FF661AF 		bls	.L8
  97:Middlewares/lvgl/src/core/lv_obj_draw.c ****                     draw_dsc->bg_img_symbol_font= lv_obj_get_style_text_font(obj, part);
 610              		.loc 1 97 17 is_stmt 1 view .LVU218
  97:Middlewares/lvgl/src/core/lv_obj_draw.c ****                     draw_dsc->bg_img_symbol_font= lv_obj_get_style_text_font(obj, part);
 611              		.loc 1 97 20 is_stmt 0 view .LVU219
 612 01de E068     		ldr	r0, [r4, #12]
 613 01e0 FFF7FEFF 		bl	lv_img_src_get_type
 614              	.LVL57:
  97:Middlewares/lvgl/src/core/lv_obj_draw.c ****                     draw_dsc->bg_img_symbol_font= lv_obj_get_style_text_font(obj, part);
 615              		.loc 1 97 19 view .LVU220
 616 01e4 0228     		cmp	r0, #2
 617 01e6 15D0     		beq	.L20
ARM GAS  /tmp/cckMVbUO.s 			page 25


 101:Middlewares/lvgl/src/core/lv_obj_draw.c ****                     draw_dsc->bg_img_recolor_opa = lv_obj_get_style_bg_img_recolor_opa(obj, part);
 618              		.loc 1 101 21 is_stmt 1 view .LVU221
 619              	.LVL58:
 620              	.LBB190:
 621              	.LBI190:
 253:Middlewares/lvgl/src/core/lv_obj_style_gen.h **** {
 622              		.loc 2 253 26 view .LVU222
 623              	.LBB191:
 255:Middlewares/lvgl/src/core/lv_obj_style_gen.h ****     return v.color;
 624              		.loc 2 255 5 view .LVU223
 255:Middlewares/lvgl/src/core/lv_obj_style_gen.h ****     return v.color;
 625              		.loc 2 255 26 is_stmt 0 view .LVU224
 626 01e8 2822     		movs	r2, #40
 627 01ea 2946     		mov	r1, r5
 628 01ec 3046     		mov	r0, r6
 629 01ee FFF7FEFF 		bl	lv_obj_get_style_prop
 630              	.LVL59:
 256:Middlewares/lvgl/src/core/lv_obj_style_gen.h **** }
 631              		.loc 2 256 5 is_stmt 1 view .LVU225
 256:Middlewares/lvgl/src/core/lv_obj_style_gen.h **** }
 632              		.loc 2 256 5 is_stmt 0 view .LVU226
 633              	.LBE191:
 634              	.LBE190:
 101:Middlewares/lvgl/src/core/lv_obj_draw.c ****                     draw_dsc->bg_img_recolor_opa = lv_obj_get_style_bg_img_recolor_opa(obj, part);
 635              		.loc 1 101 48 view .LVU227
 636 01f2 A082     		strh	r0, [r4, #20]	@ movhi
 102:Middlewares/lvgl/src/core/lv_obj_draw.c ****                     draw_dsc->bg_img_tiled = lv_obj_get_style_bg_img_tiled(obj, part);
 637              		.loc 1 102 21 is_stmt 1 view .LVU228
 638              	.LVL60:
 639              	.LBB192:
 640              	.LBI192:
 265:Middlewares/lvgl/src/core/lv_obj_style_gen.h **** {
 641              		.loc 2 265 24 view .LVU229
 642              	.LBB193:
 267:Middlewares/lvgl/src/core/lv_obj_style_gen.h ****     return (lv_opa_t)v.num;
 643              		.loc 2 267 5 view .LVU230
 267:Middlewares/lvgl/src/core/lv_obj_style_gen.h ****     return (lv_opa_t)v.num;
 644              		.loc 2 267 26 is_stmt 0 view .LVU231
 645 01f4 2922     		movs	r2, #41
 646 01f6 2946     		mov	r1, r5
 647 01f8 3046     		mov	r0, r6
 648 01fa FFF7FEFF 		bl	lv_obj_get_style_prop
 649              	.LVL61:
 268:Middlewares/lvgl/src/core/lv_obj_style_gen.h **** }
 650              		.loc 2 268 5 is_stmt 1 view .LVU232
 268:Middlewares/lvgl/src/core/lv_obj_style_gen.h **** }
 651              		.loc 2 268 5 is_stmt 0 view .LVU233
 652              	.LBE193:
 653              	.LBE192:
 102:Middlewares/lvgl/src/core/lv_obj_draw.c ****                     draw_dsc->bg_img_tiled = lv_obj_get_style_bg_img_tiled(obj, part);
 654              		.loc 1 102 50 view .LVU234
 655 01fe E075     		strb	r0, [r4, #23]
 103:Middlewares/lvgl/src/core/lv_obj_draw.c ****                 }
 656              		.loc 1 103 21 is_stmt 1 view .LVU235
 657              	.LVL62:
 658              	.LBB194:
 659              	.LBI194:
ARM GAS  /tmp/cckMVbUO.s 			page 26


 271:Middlewares/lvgl/src/core/lv_obj_style_gen.h **** {
 660              		.loc 2 271 20 view .LVU236
 661              	.LBB195:
 273:Middlewares/lvgl/src/core/lv_obj_style_gen.h ****     return (bool)v.num;
 662              		.loc 2 273 5 view .LVU237
 273:Middlewares/lvgl/src/core/lv_obj_style_gen.h ****     return (bool)v.num;
 663              		.loc 2 273 26 is_stmt 0 view .LVU238
 664 0200 2A22     		movs	r2, #42
 665 0202 2946     		mov	r1, r5
 666 0204 3046     		mov	r0, r6
 667 0206 FFF7FEFF 		bl	lv_obj_get_style_prop
 668              	.LVL63:
 274:Middlewares/lvgl/src/core/lv_obj_style_gen.h **** }
 669              		.loc 2 274 5 is_stmt 1 view .LVU239
 274:Middlewares/lvgl/src/core/lv_obj_style_gen.h **** }
 670              		.loc 2 274 12 is_stmt 0 view .LVU240
 671 020a 0038     		subs	r0, r0, #0
 672 020c 18BF     		it	ne
 673 020e 0120     		movne	r0, #1
 674              	.LVL64:
 274:Middlewares/lvgl/src/core/lv_obj_style_gen.h **** }
 675              		.loc 2 274 12 view .LVU241
 676              	.LBE195:
 677              	.LBE194:
 103:Middlewares/lvgl/src/core/lv_obj_draw.c ****                 }
 678              		.loc 1 103 44 view .LVU242
 679 0210 2076     		strb	r0, [r4, #24]
 680 0212 45E7     		b	.L8
 681              	.L20:
  98:Middlewares/lvgl/src/core/lv_obj_draw.c ****                     draw_dsc->bg_img_recolor = lv_obj_get_style_text_color(obj, part);
 682              		.loc 1 98 21 is_stmt 1 view .LVU243
 683              	.LVL65:
 684              	.LBB196:
 685              	.LBI196:
 331:Middlewares/lvgl/src/core/lv_obj_style_gen.h **** {
 686              		.loc 2 331 33 view .LVU244
 687              	.LBB197:
 333:Middlewares/lvgl/src/core/lv_obj_style_gen.h ****     return (const lv_font_t *)v.ptr;
 688              		.loc 2 333 5 view .LVU245
 333:Middlewares/lvgl/src/core/lv_obj_style_gen.h ****     return (const lv_font_t *)v.ptr;
 689              		.loc 2 333 26 is_stmt 0 view .LVU246
 690 0214 41F25942 		movw	r2, #5209
 691 0218 2946     		mov	r1, r5
 692 021a 3046     		mov	r0, r6
 693 021c FFF7FEFF 		bl	lv_obj_get_style_prop
 694              	.LVL66:
 334:Middlewares/lvgl/src/core/lv_obj_style_gen.h **** }
 695              		.loc 2 334 5 is_stmt 1 view .LVU247
 334:Middlewares/lvgl/src/core/lv_obj_style_gen.h **** }
 696              		.loc 2 334 5 is_stmt 0 view .LVU248
 697              	.LBE197:
 698              	.LBE196:
  98:Middlewares/lvgl/src/core/lv_obj_draw.c ****                     draw_dsc->bg_img_recolor = lv_obj_get_style_text_color(obj, part);
 699              		.loc 1 98 49 view .LVU249
 700 0220 2061     		str	r0, [r4, #16]
  99:Middlewares/lvgl/src/core/lv_obj_draw.c ****                 } else {
 701              		.loc 1 99 21 is_stmt 1 view .LVU250
ARM GAS  /tmp/cckMVbUO.s 			page 27


 702              	.LVL67:
 703              	.LBB198:
 704              	.LBI198:
 313:Middlewares/lvgl/src/core/lv_obj_style_gen.h **** {
 705              		.loc 2 313 26 view .LVU251
 706              	.LBB199:
 315:Middlewares/lvgl/src/core/lv_obj_style_gen.h ****     return v.color;
 707              		.loc 2 315 5 view .LVU252
 315:Middlewares/lvgl/src/core/lv_obj_style_gen.h ****     return v.color;
 708              		.loc 2 315 26 is_stmt 0 view .LVU253
 709 0222 40F25742 		movw	r2, #1111
 710 0226 2946     		mov	r1, r5
 711 0228 3046     		mov	r0, r6
 712 022a FFF7FEFF 		bl	lv_obj_get_style_prop
 713              	.LVL68:
 316:Middlewares/lvgl/src/core/lv_obj_style_gen.h **** }
 714              		.loc 2 316 5 is_stmt 1 view .LVU254
 316:Middlewares/lvgl/src/core/lv_obj_style_gen.h **** }
 715              		.loc 2 316 5 is_stmt 0 view .LVU255
 716              	.LBE199:
 717              	.LBE198:
  99:Middlewares/lvgl/src/core/lv_obj_draw.c ****                 } else {
 718              		.loc 1 99 48 view .LVU256
 719 022e A082     		strh	r0, [r4, #20]	@ movhi
 720 0230 36E7     		b	.L8
 721              	.LVL69:
 722              	.L19:
 110:Middlewares/lvgl/src/core/lv_obj_draw.c ****         if(draw_dsc->shadow_width) {
 723              		.loc 1 110 9 is_stmt 1 view .LVU257
 724              	.LBB200:
 725              	.LBI200:
 413:Middlewares/lvgl/src/core/lv_obj_style_gen.h **** }
 414:Middlewares/lvgl/src/core/lv_obj_style_gen.h **** 
 415:Middlewares/lvgl/src/core/lv_obj_style_gen.h **** static inline lv_coord_t lv_obj_get_style_shadow_width(const struct _lv_obj_t * obj, uint32_t part)
 726              		.loc 2 415 26 view .LVU258
 727              	.LBB201:
 416:Middlewares/lvgl/src/core/lv_obj_style_gen.h **** {
 417:Middlewares/lvgl/src/core/lv_obj_style_gen.h ****     lv_style_value_t v = lv_obj_get_style_prop(obj, part, LV_STYLE_SHADOW_WIDTH);
 728              		.loc 2 417 5 view .LVU259
 729              		.loc 2 417 26 is_stmt 0 view .LVU260
 730 0232 4FF40462 		mov	r2, #2112
 731 0236 2946     		mov	r1, r5
 732 0238 3046     		mov	r0, r6
 733              	.LVL70:
 734              		.loc 2 417 26 view .LVU261
 735 023a FFF7FEFF 		bl	lv_obj_get_style_prop
 736              	.LVL71:
 418:Middlewares/lvgl/src/core/lv_obj_style_gen.h ****     return (lv_coord_t)v.num;
 737              		.loc 2 418 5 is_stmt 1 view .LVU262
 738              		.loc 2 418 12 is_stmt 0 view .LVU263
 739 023e 00B2     		sxth	r0, r0
 740              	.LVL72:
 741              		.loc 2 418 12 view .LVU264
 742              	.LBE201:
 743              	.LBE200:
 110:Middlewares/lvgl/src/core/lv_obj_draw.c ****         if(draw_dsc->shadow_width) {
 744              		.loc 1 110 32 view .LVU265
ARM GAS  /tmp/cckMVbUO.s 			page 28


 745 0240 6085     		strh	r0, [r4, #42]	@ movhi
 111:Middlewares/lvgl/src/core/lv_obj_draw.c ****             if(draw_dsc->shadow_opa > LV_OPA_MIN) {
 746              		.loc 1 111 9 is_stmt 1 view .LVU266
 111:Middlewares/lvgl/src/core/lv_obj_draw.c ****             if(draw_dsc->shadow_opa > LV_OPA_MIN) {
 747              		.loc 1 111 11 is_stmt 0 view .LVU267
 748 0242 0028     		cmp	r0, #0
 749 0244 3FF431AF 		beq	.L10
 112:Middlewares/lvgl/src/core/lv_obj_draw.c ****                 draw_dsc->shadow_opa = lv_obj_get_style_shadow_opa(obj, part);
 750              		.loc 1 112 13 is_stmt 1 view .LVU268
 112:Middlewares/lvgl/src/core/lv_obj_draw.c ****                 draw_dsc->shadow_opa = lv_obj_get_style_shadow_opa(obj, part);
 751              		.loc 1 112 24 is_stmt 0 view .LVU269
 752 0248 94F83230 		ldrb	r3, [r4, #50]	@ zero_extendqisi2
 112:Middlewares/lvgl/src/core/lv_obj_draw.c ****                 draw_dsc->shadow_opa = lv_obj_get_style_shadow_opa(obj, part);
 753              		.loc 1 112 15 view .LVU270
 754 024c 022B     		cmp	r3, #2
 755 024e 7FF62CAF 		bls	.L10
 113:Middlewares/lvgl/src/core/lv_obj_draw.c ****                 if(draw_dsc->shadow_opa > LV_OPA_MIN) {
 756              		.loc 1 113 17 is_stmt 1 view .LVU271
 757              	.LVL73:
 758              	.LBB202:
 759              	.LBI202:
 419:Middlewares/lvgl/src/core/lv_obj_style_gen.h **** }
 420:Middlewares/lvgl/src/core/lv_obj_style_gen.h **** 
 421:Middlewares/lvgl/src/core/lv_obj_style_gen.h **** static inline lv_coord_t lv_obj_get_style_shadow_ofs_x(const struct _lv_obj_t * obj, uint32_t part)
 422:Middlewares/lvgl/src/core/lv_obj_style_gen.h **** {
 423:Middlewares/lvgl/src/core/lv_obj_style_gen.h ****     lv_style_value_t v = lv_obj_get_style_prop(obj, part, LV_STYLE_SHADOW_OFS_X);
 424:Middlewares/lvgl/src/core/lv_obj_style_gen.h ****     return (lv_coord_t)v.num;
 425:Middlewares/lvgl/src/core/lv_obj_style_gen.h **** }
 426:Middlewares/lvgl/src/core/lv_obj_style_gen.h **** 
 427:Middlewares/lvgl/src/core/lv_obj_style_gen.h **** static inline lv_coord_t lv_obj_get_style_shadow_ofs_y(const struct _lv_obj_t * obj, uint32_t part)
 428:Middlewares/lvgl/src/core/lv_obj_style_gen.h **** {
 429:Middlewares/lvgl/src/core/lv_obj_style_gen.h ****     lv_style_value_t v = lv_obj_get_style_prop(obj, part, LV_STYLE_SHADOW_OFS_Y);
 430:Middlewares/lvgl/src/core/lv_obj_style_gen.h ****     return (lv_coord_t)v.num;
 431:Middlewares/lvgl/src/core/lv_obj_style_gen.h **** }
 432:Middlewares/lvgl/src/core/lv_obj_style_gen.h **** 
 433:Middlewares/lvgl/src/core/lv_obj_style_gen.h **** static inline lv_coord_t lv_obj_get_style_shadow_spread(const struct _lv_obj_t * obj, uint32_t part
 434:Middlewares/lvgl/src/core/lv_obj_style_gen.h **** {
 435:Middlewares/lvgl/src/core/lv_obj_style_gen.h ****     lv_style_value_t v = lv_obj_get_style_prop(obj, part, LV_STYLE_SHADOW_SPREAD);
 436:Middlewares/lvgl/src/core/lv_obj_style_gen.h ****     return (lv_coord_t)v.num;
 437:Middlewares/lvgl/src/core/lv_obj_style_gen.h **** }
 438:Middlewares/lvgl/src/core/lv_obj_style_gen.h **** 
 439:Middlewares/lvgl/src/core/lv_obj_style_gen.h **** static inline lv_color_t lv_obj_get_style_shadow_color(const struct _lv_obj_t * obj, uint32_t part)
 440:Middlewares/lvgl/src/core/lv_obj_style_gen.h **** {
 441:Middlewares/lvgl/src/core/lv_obj_style_gen.h ****     lv_style_value_t v = lv_obj_get_style_prop(obj, part, LV_STYLE_SHADOW_COLOR);
 442:Middlewares/lvgl/src/core/lv_obj_style_gen.h ****     return v.color;
 443:Middlewares/lvgl/src/core/lv_obj_style_gen.h **** }
 444:Middlewares/lvgl/src/core/lv_obj_style_gen.h **** 
 445:Middlewares/lvgl/src/core/lv_obj_style_gen.h **** static inline lv_color_t lv_obj_get_style_shadow_color_filtered(const struct _lv_obj_t * obj, uint3
 446:Middlewares/lvgl/src/core/lv_obj_style_gen.h **** {
 447:Middlewares/lvgl/src/core/lv_obj_style_gen.h ****     lv_style_value_t v = lv_obj_get_style_prop(obj, part, LV_STYLE_SHADOW_COLOR_FILTERED);
 448:Middlewares/lvgl/src/core/lv_obj_style_gen.h ****     return v.color;
 449:Middlewares/lvgl/src/core/lv_obj_style_gen.h **** }
 450:Middlewares/lvgl/src/core/lv_obj_style_gen.h **** 
 451:Middlewares/lvgl/src/core/lv_obj_style_gen.h **** static inline lv_opa_t lv_obj_get_style_shadow_opa(const struct _lv_obj_t * obj, uint32_t part)
 760              		.loc 2 451 24 view .LVU272
 761              	.LBB203:
 452:Middlewares/lvgl/src/core/lv_obj_style_gen.h **** {
ARM GAS  /tmp/cckMVbUO.s 			page 29


 453:Middlewares/lvgl/src/core/lv_obj_style_gen.h ****     lv_style_value_t v = lv_obj_get_style_prop(obj, part, LV_STYLE_SHADOW_OPA);
 762              		.loc 2 453 5 view .LVU273
 763              		.loc 2 453 26 is_stmt 0 view .LVU274
 764 0252 40F64502 		movw	r2, #2117
 765 0256 2946     		mov	r1, r5
 766 0258 3046     		mov	r0, r6
 767 025a FFF7FEFF 		bl	lv_obj_get_style_prop
 768              	.LVL74:
 454:Middlewares/lvgl/src/core/lv_obj_style_gen.h ****     return (lv_opa_t)v.num;
 769              		.loc 2 454 5 is_stmt 1 view .LVU275
 770              		.loc 2 454 12 is_stmt 0 view .LVU276
 771 025e C0B2     		uxtb	r0, r0
 772              	.LVL75:
 773              		.loc 2 454 12 view .LVU277
 774              	.LBE203:
 775              	.LBE202:
 113:Middlewares/lvgl/src/core/lv_obj_draw.c ****                 if(draw_dsc->shadow_opa > LV_OPA_MIN) {
 776              		.loc 1 113 38 view .LVU278
 777 0260 84F83200 		strb	r0, [r4, #50]
 114:Middlewares/lvgl/src/core/lv_obj_draw.c ****                     draw_dsc->shadow_ofs_x = lv_obj_get_style_shadow_ofs_x(obj, part);
 778              		.loc 1 114 17 is_stmt 1 view .LVU279
 114:Middlewares/lvgl/src/core/lv_obj_draw.c ****                     draw_dsc->shadow_ofs_x = lv_obj_get_style_shadow_ofs_x(obj, part);
 779              		.loc 1 114 19 is_stmt 0 view .LVU280
 780 0264 0228     		cmp	r0, #2
 781 0266 7FF620AF 		bls	.L10
 115:Middlewares/lvgl/src/core/lv_obj_draw.c ****                     draw_dsc->shadow_ofs_y = lv_obj_get_style_shadow_ofs_y(obj, part);
 782              		.loc 1 115 21 is_stmt 1 view .LVU281
 783              	.LVL76:
 784              	.LBB204:
 785              	.LBI204:
 421:Middlewares/lvgl/src/core/lv_obj_style_gen.h **** {
 786              		.loc 2 421 26 view .LVU282
 787              	.LBB205:
 423:Middlewares/lvgl/src/core/lv_obj_style_gen.h ****     return (lv_coord_t)v.num;
 788              		.loc 2 423 5 view .LVU283
 423:Middlewares/lvgl/src/core/lv_obj_style_gen.h ****     return (lv_coord_t)v.num;
 789              		.loc 2 423 26 is_stmt 0 view .LVU284
 790 026a 40F64102 		movw	r2, #2113
 791 026e 2946     		mov	r1, r5
 792 0270 3046     		mov	r0, r6
 793 0272 FFF7FEFF 		bl	lv_obj_get_style_prop
 794              	.LVL77:
 424:Middlewares/lvgl/src/core/lv_obj_style_gen.h **** }
 795              		.loc 2 424 5 is_stmt 1 view .LVU285
 424:Middlewares/lvgl/src/core/lv_obj_style_gen.h **** }
 796              		.loc 2 424 5 is_stmt 0 view .LVU286
 797              	.LBE205:
 798              	.LBE204:
 115:Middlewares/lvgl/src/core/lv_obj_draw.c ****                     draw_dsc->shadow_ofs_y = lv_obj_get_style_shadow_ofs_y(obj, part);
 799              		.loc 1 115 44 view .LVU287
 800 0276 A085     		strh	r0, [r4, #44]	@ movhi
 116:Middlewares/lvgl/src/core/lv_obj_draw.c ****                     draw_dsc->shadow_spread = lv_obj_get_style_shadow_spread(obj, part);
 801              		.loc 1 116 21 is_stmt 1 view .LVU288
 802              	.LVL78:
 803              	.LBB206:
 804              	.LBI206:
 427:Middlewares/lvgl/src/core/lv_obj_style_gen.h **** {
ARM GAS  /tmp/cckMVbUO.s 			page 30


 805              		.loc 2 427 26 view .LVU289
 806              	.LBB207:
 429:Middlewares/lvgl/src/core/lv_obj_style_gen.h ****     return (lv_coord_t)v.num;
 807              		.loc 2 429 5 view .LVU290
 429:Middlewares/lvgl/src/core/lv_obj_style_gen.h ****     return (lv_coord_t)v.num;
 808              		.loc 2 429 26 is_stmt 0 view .LVU291
 809 0278 40F64202 		movw	r2, #2114
 810 027c 2946     		mov	r1, r5
 811 027e 3046     		mov	r0, r6
 812 0280 FFF7FEFF 		bl	lv_obj_get_style_prop
 813              	.LVL79:
 430:Middlewares/lvgl/src/core/lv_obj_style_gen.h **** }
 814              		.loc 2 430 5 is_stmt 1 view .LVU292
 430:Middlewares/lvgl/src/core/lv_obj_style_gen.h **** }
 815              		.loc 2 430 5 is_stmt 0 view .LVU293
 816              	.LBE207:
 817              	.LBE206:
 116:Middlewares/lvgl/src/core/lv_obj_draw.c ****                     draw_dsc->shadow_spread = lv_obj_get_style_shadow_spread(obj, part);
 818              		.loc 1 116 44 view .LVU294
 819 0284 E085     		strh	r0, [r4, #46]	@ movhi
 117:Middlewares/lvgl/src/core/lv_obj_draw.c ****                     draw_dsc->shadow_color = lv_obj_get_style_shadow_color_filtered(obj, part);
 820              		.loc 1 117 21 is_stmt 1 view .LVU295
 821              	.LVL80:
 822              	.LBB208:
 823              	.LBI208:
 433:Middlewares/lvgl/src/core/lv_obj_style_gen.h **** {
 824              		.loc 2 433 26 view .LVU296
 825              	.LBB209:
 435:Middlewares/lvgl/src/core/lv_obj_style_gen.h ****     return (lv_coord_t)v.num;
 826              		.loc 2 435 5 view .LVU297
 435:Middlewares/lvgl/src/core/lv_obj_style_gen.h ****     return (lv_coord_t)v.num;
 827              		.loc 2 435 26 is_stmt 0 view .LVU298
 828 0286 40F64302 		movw	r2, #2115
 829 028a 2946     		mov	r1, r5
 830 028c 3046     		mov	r0, r6
 831 028e FFF7FEFF 		bl	lv_obj_get_style_prop
 832              	.LVL81:
 436:Middlewares/lvgl/src/core/lv_obj_style_gen.h **** }
 833              		.loc 2 436 5 is_stmt 1 view .LVU299
 436:Middlewares/lvgl/src/core/lv_obj_style_gen.h **** }
 834              		.loc 2 436 5 is_stmt 0 view .LVU300
 835              	.LBE209:
 836              	.LBE208:
 117:Middlewares/lvgl/src/core/lv_obj_draw.c ****                     draw_dsc->shadow_color = lv_obj_get_style_shadow_color_filtered(obj, part);
 837              		.loc 1 117 45 view .LVU301
 838 0292 2086     		strh	r0, [r4, #48]	@ movhi
 118:Middlewares/lvgl/src/core/lv_obj_draw.c ****                 }
 839              		.loc 1 118 21 is_stmt 1 view .LVU302
 840              	.LVL82:
 841              	.LBB210:
 842              	.LBI210:
 445:Middlewares/lvgl/src/core/lv_obj_style_gen.h **** {
 843              		.loc 2 445 26 view .LVU303
 844              	.LBB211:
 447:Middlewares/lvgl/src/core/lv_obj_style_gen.h ****     return v.color;
 845              		.loc 2 447 5 view .LVU304
 447:Middlewares/lvgl/src/core/lv_obj_style_gen.h ****     return v.color;
ARM GAS  /tmp/cckMVbUO.s 			page 31


 846              		.loc 2 447 26 is_stmt 0 view .LVU305
 847 0294 44F24402 		movw	r2, #16452
 848 0298 2946     		mov	r1, r5
 849 029a 3046     		mov	r0, r6
 850 029c FFF7FEFF 		bl	lv_obj_get_style_prop
 851              	.LVL83:
 448:Middlewares/lvgl/src/core/lv_obj_style_gen.h **** }
 852              		.loc 2 448 5 is_stmt 1 view .LVU306
 448:Middlewares/lvgl/src/core/lv_obj_style_gen.h **** }
 853              		.loc 2 448 5 is_stmt 0 view .LVU307
 854              	.LBE211:
 855              	.LBE210:
 118:Middlewares/lvgl/src/core/lv_obj_draw.c ****                 }
 856              		.loc 1 118 46 view .LVU308
 857 02a0 2085     		strh	r0, [r4, #40]	@ movhi
 858 02a2 02E7     		b	.L10
 859              		.cfi_endproc
 860              	.LFE153:
 862              		.section	.text.lv_obj_init_draw_label_dsc,"ax",%progbits
 863              		.align	1
 864              		.global	lv_obj_init_draw_label_dsc
 865              		.syntax unified
 866              		.thumb
 867              		.thumb_func
 869              	lv_obj_init_draw_label_dsc:
 870              	.LVL84:
 871              	.LFB154:
 182:Middlewares/lvgl/src/core/lv_obj_draw.c **** 
 183:Middlewares/lvgl/src/core/lv_obj_draw.c **** void lv_obj_init_draw_label_dsc(lv_obj_t * obj, uint32_t part, lv_draw_label_dsc_t * draw_dsc)
 184:Middlewares/lvgl/src/core/lv_obj_draw.c **** {
 872              		.loc 1 184 1 is_stmt 1 view -0
 873              		.cfi_startproc
 874              		@ args = 0, pretend = 0, frame = 0
 875              		@ frame_needed = 0, uses_anonymous_args = 0
 876              		.loc 1 184 1 is_stmt 0 view .LVU310
 877 0000 70B5     		push	{r4, r5, r6, lr}
 878              	.LCFI1:
 879              		.cfi_def_cfa_offset 16
 880              		.cfi_offset 4, -16
 881              		.cfi_offset 5, -12
 882              		.cfi_offset 6, -8
 883              		.cfi_offset 14, -4
 884 0002 0546     		mov	r5, r0
 885 0004 0E46     		mov	r6, r1
 886 0006 1446     		mov	r4, r2
 185:Middlewares/lvgl/src/core/lv_obj_draw.c ****     draw_dsc->opa = lv_obj_get_style_text_opa(obj, part);
 887              		.loc 1 185 5 is_stmt 1 view .LVU311
 888              	.LVL85:
 889              	.LBB212:
 890              	.LBI212:
 325:Middlewares/lvgl/src/core/lv_obj_style_gen.h **** {
 891              		.loc 2 325 24 view .LVU312
 892              	.LBB213:
 327:Middlewares/lvgl/src/core/lv_obj_style_gen.h ****     return (lv_opa_t)v.num;
 893              		.loc 2 327 5 view .LVU313
 327:Middlewares/lvgl/src/core/lv_obj_style_gen.h ****     return (lv_opa_t)v.num;
 894              		.loc 2 327 26 is_stmt 0 view .LVU314
ARM GAS  /tmp/cckMVbUO.s 			page 32


 895 0008 4FF48B62 		mov	r2, #1112
 896              	.LVL86:
 327:Middlewares/lvgl/src/core/lv_obj_style_gen.h ****     return (lv_opa_t)v.num;
 897              		.loc 2 327 26 view .LVU315
 898 000c FFF7FEFF 		bl	lv_obj_get_style_prop
 899              	.LVL87:
 328:Middlewares/lvgl/src/core/lv_obj_style_gen.h **** }
 900              		.loc 2 328 5 is_stmt 1 view .LVU316
 328:Middlewares/lvgl/src/core/lv_obj_style_gen.h **** }
 901              		.loc 2 328 12 is_stmt 0 view .LVU317
 902 0010 C3B2     		uxtb	r3, r0
 903              	.LVL88:
 328:Middlewares/lvgl/src/core/lv_obj_style_gen.h **** }
 904              		.loc 2 328 12 view .LVU318
 905              	.LBE213:
 906              	.LBE212:
 907              		.loc 1 185 19 view .LVU319
 908 0012 A376     		strb	r3, [r4, #26]
 186:Middlewares/lvgl/src/core/lv_obj_draw.c ****     if(draw_dsc->opa <= LV_OPA_MIN) return;
 909              		.loc 1 186 5 is_stmt 1 view .LVU320
 910              		.loc 1 186 7 is_stmt 0 view .LVU321
 911 0014 022B     		cmp	r3, #2
 912 0016 00D8     		bhi	.L26
 913              	.L21:
 187:Middlewares/lvgl/src/core/lv_obj_draw.c **** 
 188:Middlewares/lvgl/src/core/lv_obj_draw.c ****     lv_opa_t opa = lv_obj_get_style_opa(obj, part);
 189:Middlewares/lvgl/src/core/lv_obj_draw.c ****     if(opa < LV_OPA_MAX) {
 190:Middlewares/lvgl/src/core/lv_obj_draw.c ****         draw_dsc->opa = (uint16_t)((uint16_t)draw_dsc->opa * opa) >> 8;
 191:Middlewares/lvgl/src/core/lv_obj_draw.c ****     }
 192:Middlewares/lvgl/src/core/lv_obj_draw.c ****     if(draw_dsc->opa <= LV_OPA_MIN) return;
 193:Middlewares/lvgl/src/core/lv_obj_draw.c **** 
 194:Middlewares/lvgl/src/core/lv_obj_draw.c ****     draw_dsc->color = lv_obj_get_style_text_color_filtered(obj, part);
 195:Middlewares/lvgl/src/core/lv_obj_draw.c ****     draw_dsc->letter_space = lv_obj_get_style_text_letter_space(obj, part);
 196:Middlewares/lvgl/src/core/lv_obj_draw.c ****     draw_dsc->line_space = lv_obj_get_style_text_line_space(obj, part);
 197:Middlewares/lvgl/src/core/lv_obj_draw.c ****     draw_dsc->decor = lv_obj_get_style_text_decor(obj, part);
 198:Middlewares/lvgl/src/core/lv_obj_draw.c **** #if LV_DRAW_COMPLEX
 199:Middlewares/lvgl/src/core/lv_obj_draw.c ****     draw_dsc->blend_mode = lv_obj_get_style_blend_mode(obj, part);
 200:Middlewares/lvgl/src/core/lv_obj_draw.c **** #endif
 201:Middlewares/lvgl/src/core/lv_obj_draw.c **** 
 202:Middlewares/lvgl/src/core/lv_obj_draw.c ****     draw_dsc->font = lv_obj_get_style_text_font(obj, part);
 203:Middlewares/lvgl/src/core/lv_obj_draw.c **** 
 204:Middlewares/lvgl/src/core/lv_obj_draw.c **** #if LV_USE_BIDI
 205:Middlewares/lvgl/src/core/lv_obj_draw.c ****     draw_dsc->bidi_dir = lv_obj_get_style_base_dir(obj, LV_PART_MAIN);
 206:Middlewares/lvgl/src/core/lv_obj_draw.c **** #endif
 207:Middlewares/lvgl/src/core/lv_obj_draw.c **** 
 208:Middlewares/lvgl/src/core/lv_obj_draw.c ****     draw_dsc->align = lv_obj_get_style_text_align(obj, part);
 209:Middlewares/lvgl/src/core/lv_obj_draw.c ****     if(draw_dsc->align == LV_TEXT_ALIGN_AUTO) {
 210:Middlewares/lvgl/src/core/lv_obj_draw.c ****         if(draw_dsc->bidi_dir == LV_BASE_DIR_RTL) draw_dsc->align = LV_TEXT_ALIGN_RIGHT;
 211:Middlewares/lvgl/src/core/lv_obj_draw.c ****         else draw_dsc->align = LV_TEXT_ALIGN_LEFT;
 212:Middlewares/lvgl/src/core/lv_obj_draw.c ****     }
 213:Middlewares/lvgl/src/core/lv_obj_draw.c **** }
 914              		.loc 1 213 1 view .LVU322
 915 0018 70BD     		pop	{r4, r5, r6, pc}
 916              	.LVL89:
 917              	.L26:
 188:Middlewares/lvgl/src/core/lv_obj_draw.c ****     if(opa < LV_OPA_MAX) {
 918              		.loc 1 188 5 is_stmt 1 view .LVU323
ARM GAS  /tmp/cckMVbUO.s 			page 33


 919              	.LBB214:
 920              	.LBI214:
 139:Middlewares/lvgl/src/core/lv_obj_style_gen.h **** {
 921              		.loc 2 139 24 view .LVU324
 922              	.LBB215:
 141:Middlewares/lvgl/src/core/lv_obj_style_gen.h ****     return (lv_opa_t)v.num;
 923              		.loc 2 141 5 view .LVU325
 141:Middlewares/lvgl/src/core/lv_obj_style_gen.h ****     return (lv_opa_t)v.num;
 924              		.loc 2 141 26 is_stmt 0 view .LVU326
 925 001a 40F26242 		movw	r2, #1122
 926 001e 3146     		mov	r1, r6
 927 0020 2846     		mov	r0, r5
 928 0022 FFF7FEFF 		bl	lv_obj_get_style_prop
 929              	.LVL90:
 142:Middlewares/lvgl/src/core/lv_obj_style_gen.h **** }
 930              		.loc 2 142 5 is_stmt 1 view .LVU327
 142:Middlewares/lvgl/src/core/lv_obj_style_gen.h **** }
 931              		.loc 2 142 12 is_stmt 0 view .LVU328
 932 0026 C3B2     		uxtb	r3, r0
 933              	.LVL91:
 142:Middlewares/lvgl/src/core/lv_obj_style_gen.h **** }
 934              		.loc 2 142 12 view .LVU329
 935              	.LBE215:
 936              	.LBE214:
 189:Middlewares/lvgl/src/core/lv_obj_draw.c ****         draw_dsc->opa = (uint16_t)((uint16_t)draw_dsc->opa * opa) >> 8;
 937              		.loc 1 189 5 is_stmt 1 view .LVU330
 189:Middlewares/lvgl/src/core/lv_obj_draw.c ****         draw_dsc->opa = (uint16_t)((uint16_t)draw_dsc->opa * opa) >> 8;
 938              		.loc 1 189 7 is_stmt 0 view .LVU331
 939 0028 FC2B     		cmp	r3, #252
 940 002a 04D8     		bhi	.L23
 190:Middlewares/lvgl/src/core/lv_obj_draw.c ****     }
 941              		.loc 1 190 9 is_stmt 1 view .LVU332
 190:Middlewares/lvgl/src/core/lv_obj_draw.c ****     }
 942              		.loc 1 190 54 is_stmt 0 view .LVU333
 943 002c A07E     		ldrb	r0, [r4, #26]	@ zero_extendqisi2
 190:Middlewares/lvgl/src/core/lv_obj_draw.c ****     }
 944              		.loc 1 190 25 view .LVU334
 945 002e 00FB03F3 		mul	r3, r0, r3
 946              	.LVL92:
 190:Middlewares/lvgl/src/core/lv_obj_draw.c ****     }
 947              		.loc 1 190 23 view .LVU335
 948 0032 1B0A     		lsrs	r3, r3, #8
 949 0034 A376     		strb	r3, [r4, #26]
 950              	.L23:
 192:Middlewares/lvgl/src/core/lv_obj_draw.c **** 
 951              		.loc 1 192 5 is_stmt 1 view .LVU336
 192:Middlewares/lvgl/src/core/lv_obj_draw.c **** 
 952              		.loc 1 192 16 is_stmt 0 view .LVU337
 953 0036 A37E     		ldrb	r3, [r4, #26]	@ zero_extendqisi2
 192:Middlewares/lvgl/src/core/lv_obj_draw.c **** 
 954              		.loc 1 192 7 view .LVU338
 955 0038 022B     		cmp	r3, #2
 956 003a EDD9     		bls	.L21
 194:Middlewares/lvgl/src/core/lv_obj_draw.c ****     draw_dsc->letter_space = lv_obj_get_style_text_letter_space(obj, part);
 957              		.loc 1 194 5 is_stmt 1 view .LVU339
 958              	.LVL93:
 959              	.LBB216:
ARM GAS  /tmp/cckMVbUO.s 			page 34


 960              	.LBI216:
 319:Middlewares/lvgl/src/core/lv_obj_style_gen.h **** {
 961              		.loc 2 319 26 view .LVU340
 962              	.LBB217:
 321:Middlewares/lvgl/src/core/lv_obj_style_gen.h ****     return v.color;
 963              		.loc 2 321 5 view .LVU341
 321:Middlewares/lvgl/src/core/lv_obj_style_gen.h ****     return v.color;
 964              		.loc 2 321 26 is_stmt 0 view .LVU342
 965 003c 44F25742 		movw	r2, #17495
 966 0040 3146     		mov	r1, r6
 967 0042 2846     		mov	r0, r5
 968 0044 FFF7FEFF 		bl	lv_obj_get_style_prop
 969              	.LVL94:
 322:Middlewares/lvgl/src/core/lv_obj_style_gen.h **** }
 970              		.loc 2 322 5 is_stmt 1 view .LVU343
 322:Middlewares/lvgl/src/core/lv_obj_style_gen.h **** }
 971              		.loc 2 322 5 is_stmt 0 view .LVU344
 972              	.LBE217:
 973              	.LBE216:
 194:Middlewares/lvgl/src/core/lv_obj_draw.c ****     draw_dsc->letter_space = lv_obj_get_style_text_letter_space(obj, part);
 974              		.loc 1 194 23 view .LVU345
 975 0048 A081     		strh	r0, [r4, #12]	@ movhi
 195:Middlewares/lvgl/src/core/lv_obj_draw.c ****     draw_dsc->line_space = lv_obj_get_style_text_line_space(obj, part);
 976              		.loc 1 195 5 is_stmt 1 view .LVU346
 977              	.LVL95:
 978              	.LBB218:
 979              	.LBI218:
 337:Middlewares/lvgl/src/core/lv_obj_style_gen.h **** {
 980              		.loc 2 337 26 view .LVU347
 981              	.LBB219:
 339:Middlewares/lvgl/src/core/lv_obj_style_gen.h ****     return (lv_coord_t)v.num;
 982              		.loc 2 339 5 view .LVU348
 339:Middlewares/lvgl/src/core/lv_obj_style_gen.h ****     return (lv_coord_t)v.num;
 983              		.loc 2 339 26 is_stmt 0 view .LVU349
 984 004a 41F25A42 		movw	r2, #5210
 985 004e 3146     		mov	r1, r6
 986 0050 2846     		mov	r0, r5
 987 0052 FFF7FEFF 		bl	lv_obj_get_style_prop
 988              	.LVL96:
 340:Middlewares/lvgl/src/core/lv_obj_style_gen.h **** }
 989              		.loc 2 340 5 is_stmt 1 view .LVU350
 340:Middlewares/lvgl/src/core/lv_obj_style_gen.h **** }
 990              		.loc 2 340 5 is_stmt 0 view .LVU351
 991              	.LBE219:
 992              	.LBE218:
 195:Middlewares/lvgl/src/core/lv_obj_draw.c ****     draw_dsc->line_space = lv_obj_get_style_text_line_space(obj, part);
 993              		.loc 1 195 28 view .LVU352
 994 0056 A082     		strh	r0, [r4, #20]	@ movhi
 196:Middlewares/lvgl/src/core/lv_obj_draw.c ****     draw_dsc->decor = lv_obj_get_style_text_decor(obj, part);
 995              		.loc 1 196 5 is_stmt 1 view .LVU353
 996              	.LVL97:
 997              	.LBB220:
 998              	.LBI220:
 343:Middlewares/lvgl/src/core/lv_obj_style_gen.h **** {
 999              		.loc 2 343 26 view .LVU354
 1000              	.LBB221:
 345:Middlewares/lvgl/src/core/lv_obj_style_gen.h ****     return (lv_coord_t)v.num;
ARM GAS  /tmp/cckMVbUO.s 			page 35


 1001              		.loc 2 345 5 view .LVU355
 345:Middlewares/lvgl/src/core/lv_obj_style_gen.h ****     return (lv_coord_t)v.num;
 1002              		.loc 2 345 26 is_stmt 0 view .LVU356
 1003 0058 41F25B42 		movw	r2, #5211
 1004 005c 3146     		mov	r1, r6
 1005 005e 2846     		mov	r0, r5
 1006 0060 FFF7FEFF 		bl	lv_obj_get_style_prop
 1007              	.LVL98:
 346:Middlewares/lvgl/src/core/lv_obj_style_gen.h **** }
 1008              		.loc 2 346 5 is_stmt 1 view .LVU357
 346:Middlewares/lvgl/src/core/lv_obj_style_gen.h **** }
 1009              		.loc 2 346 5 is_stmt 0 view .LVU358
 1010              	.LBE221:
 1011              	.LBE220:
 196:Middlewares/lvgl/src/core/lv_obj_draw.c ****     draw_dsc->decor = lv_obj_get_style_text_decor(obj, part);
 1012              		.loc 1 196 26 view .LVU359
 1013 0064 6082     		strh	r0, [r4, #18]	@ movhi
 197:Middlewares/lvgl/src/core/lv_obj_draw.c **** #if LV_DRAW_COMPLEX
 1014              		.loc 1 197 5 is_stmt 1 view .LVU360
 1015              	.LVL99:
 1016              	.LBB222:
 1017              	.LBI222:
 349:Middlewares/lvgl/src/core/lv_obj_style_gen.h **** {
 1018              		.loc 2 349 31 view .LVU361
 1019              	.LBB223:
 351:Middlewares/lvgl/src/core/lv_obj_style_gen.h ****     return (lv_text_decor_t)v.num;
 1020              		.loc 2 351 5 view .LVU362
 351:Middlewares/lvgl/src/core/lv_obj_style_gen.h ****     return (lv_text_decor_t)v.num;
 1021              		.loc 2 351 26 is_stmt 0 view .LVU363
 1022 0066 40F25C42 		movw	r2, #1116
 1023 006a 3146     		mov	r1, r6
 1024 006c 2846     		mov	r0, r5
 1025 006e FFF7FEFF 		bl	lv_obj_get_style_prop
 1026              	.LVL100:
 352:Middlewares/lvgl/src/core/lv_obj_style_gen.h **** }
 1027              		.loc 2 352 5 is_stmt 1 view .LVU364
 352:Middlewares/lvgl/src/core/lv_obj_style_gen.h **** }
 1028              		.loc 2 352 5 is_stmt 0 view .LVU365
 1029              	.LBE223:
 1030              	.LBE222:
 197:Middlewares/lvgl/src/core/lv_obj_draw.c **** #if LV_DRAW_COMPLEX
 1031              		.loc 1 197 21 view .LVU366
 1032 0072 637F     		ldrb	r3, [r4, #29]	@ zero_extendqisi2
 1033 0074 60F38403 		bfi	r3, r0, #2, #3
 1034 0078 6377     		strb	r3, [r4, #29]
 199:Middlewares/lvgl/src/core/lv_obj_draw.c **** #endif
 1035              		.loc 1 199 5 is_stmt 1 view .LVU367
 1036              	.LVL101:
 1037              	.LBB224:
 1038              	.LBI224:
 175:Middlewares/lvgl/src/core/lv_obj_style_gen.h **** {
 1039              		.loc 2 175 31 view .LVU368
 1040              	.LBB225:
 177:Middlewares/lvgl/src/core/lv_obj_style_gen.h ****     return (lv_blend_mode_t)v.num;
 1041              		.loc 2 177 5 view .LVU369
 177:Middlewares/lvgl/src/core/lv_obj_style_gen.h ****     return (lv_blend_mode_t)v.num;
 1042              		.loc 2 177 26 is_stmt 0 view .LVU370
ARM GAS  /tmp/cckMVbUO.s 			page 36


 1043 007a 6822     		movs	r2, #104
 1044 007c 3146     		mov	r1, r6
 1045 007e 2846     		mov	r0, r5
 1046 0080 FFF7FEFF 		bl	lv_obj_get_style_prop
 1047              	.LVL102:
 178:Middlewares/lvgl/src/core/lv_obj_style_gen.h **** }
 1048              		.loc 2 178 5 is_stmt 1 view .LVU371
 178:Middlewares/lvgl/src/core/lv_obj_style_gen.h **** }
 1049              		.loc 2 178 5 is_stmt 0 view .LVU372
 1050              	.LBE225:
 1051              	.LBE224:
 199:Middlewares/lvgl/src/core/lv_obj_draw.c **** #endif
 1052              		.loc 1 199 26 view .LVU373
 1053 0084 637F     		ldrb	r3, [r4, #29]	@ zero_extendqisi2
 1054 0086 60F34713 		bfi	r3, r0, #5, #3
 1055 008a 6377     		strb	r3, [r4, #29]
 202:Middlewares/lvgl/src/core/lv_obj_draw.c **** 
 1056              		.loc 1 202 5 is_stmt 1 view .LVU374
 1057              	.LVL103:
 1058              	.LBB226:
 1059              	.LBI226:
 331:Middlewares/lvgl/src/core/lv_obj_style_gen.h **** {
 1060              		.loc 2 331 33 view .LVU375
 1061              	.LBB227:
 333:Middlewares/lvgl/src/core/lv_obj_style_gen.h ****     return (const lv_font_t *)v.ptr;
 1062              		.loc 2 333 5 view .LVU376
 333:Middlewares/lvgl/src/core/lv_obj_style_gen.h ****     return (const lv_font_t *)v.ptr;
 1063              		.loc 2 333 26 is_stmt 0 view .LVU377
 1064 008c 41F25942 		movw	r2, #5209
 1065 0090 3146     		mov	r1, r6
 1066 0092 2846     		mov	r0, r5
 1067 0094 FFF7FEFF 		bl	lv_obj_get_style_prop
 1068              	.LVL104:
 334:Middlewares/lvgl/src/core/lv_obj_style_gen.h **** }
 1069              		.loc 2 334 5 is_stmt 1 view .LVU378
 334:Middlewares/lvgl/src/core/lv_obj_style_gen.h **** }
 1070              		.loc 2 334 5 is_stmt 0 view .LVU379
 1071              	.LBE227:
 1072              	.LBE226:
 202:Middlewares/lvgl/src/core/lv_obj_draw.c **** 
 1073              		.loc 1 202 20 view .LVU380
 1074 0098 2060     		str	r0, [r4]
 208:Middlewares/lvgl/src/core/lv_obj_draw.c ****     if(draw_dsc->align == LV_TEXT_ALIGN_AUTO) {
 1075              		.loc 1 208 5 is_stmt 1 view .LVU381
 1076              	.LVL105:
 1077              	.LBB228:
 1078              	.LBI228:
 355:Middlewares/lvgl/src/core/lv_obj_style_gen.h **** {
 1079              		.loc 2 355 31 view .LVU382
 1080              	.LBB229:
 357:Middlewares/lvgl/src/core/lv_obj_style_gen.h ****     return (lv_text_align_t)v.num;
 1081              		.loc 2 357 5 view .LVU383
 357:Middlewares/lvgl/src/core/lv_obj_style_gen.h ****     return (lv_text_align_t)v.num;
 1082              		.loc 2 357 26 is_stmt 0 view .LVU384
 1083 009a 41F25D42 		movw	r2, #5213
 1084 009e 3146     		mov	r1, r6
 1085 00a0 2846     		mov	r0, r5
ARM GAS  /tmp/cckMVbUO.s 			page 37


 1086 00a2 FFF7FEFF 		bl	lv_obj_get_style_prop
 1087              	.LVL106:
 358:Middlewares/lvgl/src/core/lv_obj_style_gen.h **** }
 1088              		.loc 2 358 5 is_stmt 1 view .LVU385
 358:Middlewares/lvgl/src/core/lv_obj_style_gen.h **** }
 1089              		.loc 2 358 5 is_stmt 0 view .LVU386
 1090              	.LBE229:
 1091              	.LBE228:
 208:Middlewares/lvgl/src/core/lv_obj_draw.c ****     if(draw_dsc->align == LV_TEXT_ALIGN_AUTO) {
 1092              		.loc 1 208 21 view .LVU387
 1093 00a6 637F     		ldrb	r3, [r4, #29]	@ zero_extendqisi2
 1094 00a8 60F30103 		bfi	r3, r0, #0, #2
 1095 00ac 6377     		strb	r3, [r4, #29]
 209:Middlewares/lvgl/src/core/lv_obj_draw.c ****         if(draw_dsc->bidi_dir == LV_BASE_DIR_RTL) draw_dsc->align = LV_TEXT_ALIGN_RIGHT;
 1096              		.loc 1 209 5 is_stmt 1 view .LVU388
 209:Middlewares/lvgl/src/core/lv_obj_draw.c ****         if(draw_dsc->bidi_dir == LV_BASE_DIR_RTL) draw_dsc->align = LV_TEXT_ALIGN_RIGHT;
 1097              		.loc 1 209 24 is_stmt 0 view .LVU389
 1098 00ae DBB2     		uxtb	r3, r3
 209:Middlewares/lvgl/src/core/lv_obj_draw.c ****         if(draw_dsc->bidi_dir == LV_BASE_DIR_RTL) draw_dsc->align = LV_TEXT_ALIGN_RIGHT;
 1099              		.loc 1 209 7 view .LVU390
 1100 00b0 13F0030F 		tst	r3, #3
 1101 00b4 B0D1     		bne	.L21
 210:Middlewares/lvgl/src/core/lv_obj_draw.c ****         else draw_dsc->align = LV_TEXT_ALIGN_LEFT;
 1102              		.loc 1 210 9 is_stmt 1 view .LVU391
 210:Middlewares/lvgl/src/core/lv_obj_draw.c ****         else draw_dsc->align = LV_TEXT_ALIGN_LEFT;
 1103              		.loc 1 210 20 is_stmt 0 view .LVU392
 1104 00b6 E37E     		ldrb	r3, [r4, #27]	@ zero_extendqisi2
 210:Middlewares/lvgl/src/core/lv_obj_draw.c ****         else draw_dsc->align = LV_TEXT_ALIGN_LEFT;
 1105              		.loc 1 210 11 view .LVU393
 1106 00b8 012B     		cmp	r3, #1
 1107 00ba 05D0     		beq	.L27
 211:Middlewares/lvgl/src/core/lv_obj_draw.c ****     }
 1108              		.loc 1 211 14 is_stmt 1 view .LVU394
 211:Middlewares/lvgl/src/core/lv_obj_draw.c ****     }
 1109              		.loc 1 211 30 is_stmt 0 view .LVU395
 1110 00bc 637F     		ldrb	r3, [r4, #29]	@ zero_extendqisi2
 1111 00be 0122     		movs	r2, #1
 1112 00c0 62F30103 		bfi	r3, r2, #0, #2
 1113 00c4 6377     		strb	r3, [r4, #29]
 1114 00c6 A7E7     		b	.L21
 1115              	.L27:
 210:Middlewares/lvgl/src/core/lv_obj_draw.c ****         else draw_dsc->align = LV_TEXT_ALIGN_LEFT;
 1116              		.loc 1 210 51 is_stmt 1 discriminator 1 view .LVU396
 210:Middlewares/lvgl/src/core/lv_obj_draw.c ****         else draw_dsc->align = LV_TEXT_ALIGN_LEFT;
 1117              		.loc 1 210 67 is_stmt 0 discriminator 1 view .LVU397
 1118 00c8 637F     		ldrb	r3, [r4, #29]	@ zero_extendqisi2
 1119 00ca 43F00303 		orr	r3, r3, #3
 1120 00ce 6377     		strb	r3, [r4, #29]
 1121 00d0 A2E7     		b	.L21
 1122              		.cfi_endproc
 1123              	.LFE154:
 1125              		.section	.text.lv_obj_init_draw_img_dsc,"ax",%progbits
 1126              		.align	1
 1127              		.global	lv_obj_init_draw_img_dsc
 1128              		.syntax unified
 1129              		.thumb
 1130              		.thumb_func
ARM GAS  /tmp/cckMVbUO.s 			page 38


 1132              	lv_obj_init_draw_img_dsc:
 1133              	.LVL107:
 1134              	.LFB155:
 214:Middlewares/lvgl/src/core/lv_obj_draw.c **** 
 215:Middlewares/lvgl/src/core/lv_obj_draw.c **** void lv_obj_init_draw_img_dsc(lv_obj_t * obj, uint32_t part, lv_draw_img_dsc_t * draw_dsc)
 216:Middlewares/lvgl/src/core/lv_obj_draw.c **** {
 1135              		.loc 1 216 1 is_stmt 1 view -0
 1136              		.cfi_startproc
 1137              		@ args = 0, pretend = 0, frame = 0
 1138              		@ frame_needed = 0, uses_anonymous_args = 0
 1139              		.loc 1 216 1 is_stmt 0 view .LVU399
 1140 0000 70B5     		push	{r4, r5, r6, lr}
 1141              	.LCFI2:
 1142              		.cfi_def_cfa_offset 16
 1143              		.cfi_offset 4, -16
 1144              		.cfi_offset 5, -12
 1145              		.cfi_offset 6, -8
 1146              		.cfi_offset 14, -4
 1147 0002 0546     		mov	r5, r0
 1148 0004 0E46     		mov	r6, r1
 1149 0006 1446     		mov	r4, r2
 217:Middlewares/lvgl/src/core/lv_obj_draw.c ****     draw_dsc->opa = lv_obj_get_style_img_opa(obj, part);
 1150              		.loc 1 217 5 is_stmt 1 view .LVU400
 1151              	.LVL108:
 1152              	.LBB230:
 1153              	.LBI230:
 361:Middlewares/lvgl/src/core/lv_obj_style_gen.h **** {
 1154              		.loc 2 361 24 view .LVU401
 1155              	.LBB231:
 363:Middlewares/lvgl/src/core/lv_obj_style_gen.h ****     return (lv_opa_t)v.num;
 1156              		.loc 2 363 5 view .LVU402
 363:Middlewares/lvgl/src/core/lv_obj_style_gen.h ****     return (lv_opa_t)v.num;
 1157              		.loc 2 363 26 is_stmt 0 view .LVU403
 1158 0008 4622     		movs	r2, #70
 1159              	.LVL109:
 363:Middlewares/lvgl/src/core/lv_obj_style_gen.h ****     return (lv_opa_t)v.num;
 1160              		.loc 2 363 26 view .LVU404
 1161 000a FFF7FEFF 		bl	lv_obj_get_style_prop
 1162              	.LVL110:
 364:Middlewares/lvgl/src/core/lv_obj_style_gen.h **** }
 1163              		.loc 2 364 5 is_stmt 1 view .LVU405
 364:Middlewares/lvgl/src/core/lv_obj_style_gen.h **** }
 1164              		.loc 2 364 12 is_stmt 0 view .LVU406
 1165 000e C3B2     		uxtb	r3, r0
 1166              	.LVL111:
 364:Middlewares/lvgl/src/core/lv_obj_style_gen.h **** }
 1167              		.loc 2 364 12 view .LVU407
 1168              	.LBE231:
 1169              	.LBE230:
 1170              		.loc 1 217 19 view .LVU408
 1171 0010 E372     		strb	r3, [r4, #11]
 218:Middlewares/lvgl/src/core/lv_obj_draw.c ****     if(draw_dsc->opa <= LV_OPA_MIN)  return;
 1172              		.loc 1 218 5 is_stmt 1 view .LVU409
 1173              		.loc 1 218 7 is_stmt 0 view .LVU410
 1174 0012 022B     		cmp	r3, #2
 1175 0014 00D8     		bhi	.L35
 1176              	.L28:
ARM GAS  /tmp/cckMVbUO.s 			page 39


 219:Middlewares/lvgl/src/core/lv_obj_draw.c **** 
 220:Middlewares/lvgl/src/core/lv_obj_draw.c ****     lv_opa_t opa_scale = lv_obj_get_style_opa(obj, part);
 221:Middlewares/lvgl/src/core/lv_obj_draw.c ****     if(opa_scale < LV_OPA_MAX) {
 222:Middlewares/lvgl/src/core/lv_obj_draw.c ****         draw_dsc->opa = (uint16_t)((uint16_t)draw_dsc->opa * opa_scale) >> 8;
 223:Middlewares/lvgl/src/core/lv_obj_draw.c ****     }
 224:Middlewares/lvgl/src/core/lv_obj_draw.c ****     if(draw_dsc->opa <= LV_OPA_MIN)  return;
 225:Middlewares/lvgl/src/core/lv_obj_draw.c **** 
 226:Middlewares/lvgl/src/core/lv_obj_draw.c ****     draw_dsc->angle = 0;
 227:Middlewares/lvgl/src/core/lv_obj_draw.c ****     draw_dsc->zoom = LV_IMG_ZOOM_NONE;
 228:Middlewares/lvgl/src/core/lv_obj_draw.c ****     draw_dsc->pivot.x = lv_area_get_width(&obj->coords) / 2;
 229:Middlewares/lvgl/src/core/lv_obj_draw.c ****     draw_dsc->pivot.y = lv_area_get_height(&obj->coords) / 2;
 230:Middlewares/lvgl/src/core/lv_obj_draw.c **** 
 231:Middlewares/lvgl/src/core/lv_obj_draw.c ****     draw_dsc->recolor_opa = lv_obj_get_style_img_recolor_opa(obj, part);
 232:Middlewares/lvgl/src/core/lv_obj_draw.c ****     if(draw_dsc->recolor_opa > 0) {
 233:Middlewares/lvgl/src/core/lv_obj_draw.c ****         draw_dsc->recolor = lv_obj_get_style_img_recolor(obj, part);
 234:Middlewares/lvgl/src/core/lv_obj_draw.c ****     }
 235:Middlewares/lvgl/src/core/lv_obj_draw.c **** #if LV_DRAW_COMPLEX
 236:Middlewares/lvgl/src/core/lv_obj_draw.c ****     draw_dsc->blend_mode = lv_obj_get_style_blend_mode(obj, part);
 237:Middlewares/lvgl/src/core/lv_obj_draw.c **** #endif
 238:Middlewares/lvgl/src/core/lv_obj_draw.c **** }
 1177              		.loc 1 238 1 view .LVU411
 1178 0016 70BD     		pop	{r4, r5, r6, pc}
 1179              	.LVL112:
 1180              	.L35:
 220:Middlewares/lvgl/src/core/lv_obj_draw.c ****     if(opa_scale < LV_OPA_MAX) {
 1181              		.loc 1 220 5 is_stmt 1 view .LVU412
 1182              	.LBB232:
 1183              	.LBI232:
 139:Middlewares/lvgl/src/core/lv_obj_style_gen.h **** {
 1184              		.loc 2 139 24 view .LVU413
 1185              	.LBB233:
 141:Middlewares/lvgl/src/core/lv_obj_style_gen.h ****     return (lv_opa_t)v.num;
 1186              		.loc 2 141 5 view .LVU414
 141:Middlewares/lvgl/src/core/lv_obj_style_gen.h ****     return (lv_opa_t)v.num;
 1187              		.loc 2 141 26 is_stmt 0 view .LVU415
 1188 0018 40F26242 		movw	r2, #1122
 1189 001c 3146     		mov	r1, r6
 1190 001e 2846     		mov	r0, r5
 1191 0020 FFF7FEFF 		bl	lv_obj_get_style_prop
 1192              	.LVL113:
 142:Middlewares/lvgl/src/core/lv_obj_style_gen.h **** }
 1193              		.loc 2 142 5 is_stmt 1 view .LVU416
 142:Middlewares/lvgl/src/core/lv_obj_style_gen.h **** }
 1194              		.loc 2 142 12 is_stmt 0 view .LVU417
 1195 0024 C0B2     		uxtb	r0, r0
 1196              	.LVL114:
 142:Middlewares/lvgl/src/core/lv_obj_style_gen.h **** }
 1197              		.loc 2 142 12 view .LVU418
 1198              	.LBE233:
 1199              	.LBE232:
 221:Middlewares/lvgl/src/core/lv_obj_draw.c ****         draw_dsc->opa = (uint16_t)((uint16_t)draw_dsc->opa * opa_scale) >> 8;
 1200              		.loc 1 221 5 is_stmt 1 view .LVU419
 221:Middlewares/lvgl/src/core/lv_obj_draw.c ****         draw_dsc->opa = (uint16_t)((uint16_t)draw_dsc->opa * opa_scale) >> 8;
 1201              		.loc 1 221 7 is_stmt 0 view .LVU420
 1202 0026 FC28     		cmp	r0, #252
 1203 0028 04D8     		bhi	.L30
 222:Middlewares/lvgl/src/core/lv_obj_draw.c ****     }
ARM GAS  /tmp/cckMVbUO.s 			page 40


 1204              		.loc 1 222 9 is_stmt 1 view .LVU421
 222:Middlewares/lvgl/src/core/lv_obj_draw.c ****     }
 1205              		.loc 1 222 54 is_stmt 0 view .LVU422
 1206 002a E37A     		ldrb	r3, [r4, #11]	@ zero_extendqisi2
 222:Middlewares/lvgl/src/core/lv_obj_draw.c ****     }
 1207              		.loc 1 222 25 view .LVU423
 1208 002c 03FB00F0 		mul	r0, r3, r0
 1209              	.LVL115:
 222:Middlewares/lvgl/src/core/lv_obj_draw.c ****     }
 1210              		.loc 1 222 23 view .LVU424
 1211 0030 000A     		lsrs	r0, r0, #8
 1212 0032 E072     		strb	r0, [r4, #11]
 1213              	.L30:
 224:Middlewares/lvgl/src/core/lv_obj_draw.c **** 
 1214              		.loc 1 224 5 is_stmt 1 view .LVU425
 224:Middlewares/lvgl/src/core/lv_obj_draw.c **** 
 1215              		.loc 1 224 16 is_stmt 0 view .LVU426
 1216 0034 E37A     		ldrb	r3, [r4, #11]	@ zero_extendqisi2
 224:Middlewares/lvgl/src/core/lv_obj_draw.c **** 
 1217              		.loc 1 224 7 view .LVU427
 1218 0036 022B     		cmp	r3, #2
 1219 0038 EDD9     		bls	.L28
 226:Middlewares/lvgl/src/core/lv_obj_draw.c ****     draw_dsc->zoom = LV_IMG_ZOOM_NONE;
 1220              		.loc 1 226 5 is_stmt 1 view .LVU428
 226:Middlewares/lvgl/src/core/lv_obj_draw.c ****     draw_dsc->zoom = LV_IMG_ZOOM_NONE;
 1221              		.loc 1 226 21 is_stmt 0 view .LVU429
 1222 003a 0023     		movs	r3, #0
 1223 003c 2380     		strh	r3, [r4]	@ movhi
 227:Middlewares/lvgl/src/core/lv_obj_draw.c ****     draw_dsc->pivot.x = lv_area_get_width(&obj->coords) / 2;
 1224              		.loc 1 227 5 is_stmt 1 view .LVU430
 227:Middlewares/lvgl/src/core/lv_obj_draw.c ****     draw_dsc->pivot.x = lv_area_get_width(&obj->coords) / 2;
 1225              		.loc 1 227 20 is_stmt 0 view .LVU431
 1226 003e 4FF48073 		mov	r3, #256
 1227 0042 6380     		strh	r3, [r4, #2]	@ movhi
 228:Middlewares/lvgl/src/core/lv_obj_draw.c ****     draw_dsc->pivot.y = lv_area_get_height(&obj->coords) / 2;
 1228              		.loc 1 228 5 is_stmt 1 view .LVU432
 1229              	.LVL116:
 1230              	.LBB234:
 1231              	.LBI234:
 1232              		.file 3 "Middlewares/lvgl/src/core/../draw/../misc/../font/../misc/lv_area.h"
   1:Middlewares/lvgl/src/core/../draw/../misc/../font/../misc/lv_area.h **** /**
   2:Middlewares/lvgl/src/core/../draw/../misc/../font/../misc/lv_area.h ****  * @file lv_area.h
   3:Middlewares/lvgl/src/core/../draw/../misc/../font/../misc/lv_area.h ****  *
   4:Middlewares/lvgl/src/core/../draw/../misc/../font/../misc/lv_area.h ****  */
   5:Middlewares/lvgl/src/core/../draw/../misc/../font/../misc/lv_area.h **** 
   6:Middlewares/lvgl/src/core/../draw/../misc/../font/../misc/lv_area.h **** #ifndef LV_AREA_H
   7:Middlewares/lvgl/src/core/../draw/../misc/../font/../misc/lv_area.h **** #define LV_AREA_H
   8:Middlewares/lvgl/src/core/../draw/../misc/../font/../misc/lv_area.h **** 
   9:Middlewares/lvgl/src/core/../draw/../misc/../font/../misc/lv_area.h **** #ifdef __cplusplus
  10:Middlewares/lvgl/src/core/../draw/../misc/../font/../misc/lv_area.h **** extern "C" {
  11:Middlewares/lvgl/src/core/../draw/../misc/../font/../misc/lv_area.h **** #endif
  12:Middlewares/lvgl/src/core/../draw/../misc/../font/../misc/lv_area.h **** 
  13:Middlewares/lvgl/src/core/../draw/../misc/../font/../misc/lv_area.h **** /*********************
  14:Middlewares/lvgl/src/core/../draw/../misc/../font/../misc/lv_area.h ****  *      INCLUDES
  15:Middlewares/lvgl/src/core/../draw/../misc/../font/../misc/lv_area.h ****  *********************/
  16:Middlewares/lvgl/src/core/../draw/../misc/../font/../misc/lv_area.h **** #include "../lv_conf_internal.h"
  17:Middlewares/lvgl/src/core/../draw/../misc/../font/../misc/lv_area.h **** #include <string.h>
ARM GAS  /tmp/cckMVbUO.s 			page 41


  18:Middlewares/lvgl/src/core/../draw/../misc/../font/../misc/lv_area.h **** #include <stdbool.h>
  19:Middlewares/lvgl/src/core/../draw/../misc/../font/../misc/lv_area.h **** #include <stdint.h>
  20:Middlewares/lvgl/src/core/../draw/../misc/../font/../misc/lv_area.h **** 
  21:Middlewares/lvgl/src/core/../draw/../misc/../font/../misc/lv_area.h **** /*********************
  22:Middlewares/lvgl/src/core/../draw/../misc/../font/../misc/lv_area.h ****  *      DEFINES
  23:Middlewares/lvgl/src/core/../draw/../misc/../font/../misc/lv_area.h ****  *********************/
  24:Middlewares/lvgl/src/core/../draw/../misc/../font/../misc/lv_area.h **** 
  25:Middlewares/lvgl/src/core/../draw/../misc/../font/../misc/lv_area.h **** #define _LV_COORD_MAX_REDUCE    8192
  26:Middlewares/lvgl/src/core/../draw/../misc/../font/../misc/lv_area.h **** 
  27:Middlewares/lvgl/src/core/../draw/../misc/../font/../misc/lv_area.h **** #if LV_USE_LARGE_COORD
  28:Middlewares/lvgl/src/core/../draw/../misc/../font/../misc/lv_area.h **** typedef int32_t lv_coord_t;
  29:Middlewares/lvgl/src/core/../draw/../misc/../font/../misc/lv_area.h **** #else
  30:Middlewares/lvgl/src/core/../draw/../misc/../font/../misc/lv_area.h **** typedef int16_t lv_coord_t;
  31:Middlewares/lvgl/src/core/../draw/../misc/../font/../misc/lv_area.h **** #endif
  32:Middlewares/lvgl/src/core/../draw/../misc/../font/../misc/lv_area.h **** 
  33:Middlewares/lvgl/src/core/../draw/../misc/../font/../misc/lv_area.h **** /*To allow some special values in the end reduce the max value*/
  34:Middlewares/lvgl/src/core/../draw/../misc/../font/../misc/lv_area.h **** #define LV_COORD_MAX ((lv_coord_t)((uint32_t)((uint32_t)1 << (8 * sizeof(lv_coord_t) - 1)) - _LV_CO
  35:Middlewares/lvgl/src/core/../draw/../misc/../font/../misc/lv_area.h **** #define LV_COORD_MIN (-LV_COORD_MAX)
  36:Middlewares/lvgl/src/core/../draw/../misc/../font/../misc/lv_area.h **** 
  37:Middlewares/lvgl/src/core/../draw/../misc/../font/../misc/lv_area.h **** LV_EXPORT_CONST_INT(LV_COORD_MAX);
  38:Middlewares/lvgl/src/core/../draw/../misc/../font/../misc/lv_area.h **** LV_EXPORT_CONST_INT(LV_COORD_MIN);
  39:Middlewares/lvgl/src/core/../draw/../misc/../font/../misc/lv_area.h **** 
  40:Middlewares/lvgl/src/core/../draw/../misc/../font/../misc/lv_area.h **** /**********************
  41:Middlewares/lvgl/src/core/../draw/../misc/../font/../misc/lv_area.h ****  *      TYPEDEFS
  42:Middlewares/lvgl/src/core/../draw/../misc/../font/../misc/lv_area.h ****  **********************/
  43:Middlewares/lvgl/src/core/../draw/../misc/../font/../misc/lv_area.h **** 
  44:Middlewares/lvgl/src/core/../draw/../misc/../font/../misc/lv_area.h **** /**
  45:Middlewares/lvgl/src/core/../draw/../misc/../font/../misc/lv_area.h ****  * Represents a point on the screen.
  46:Middlewares/lvgl/src/core/../draw/../misc/../font/../misc/lv_area.h ****  */
  47:Middlewares/lvgl/src/core/../draw/../misc/../font/../misc/lv_area.h **** typedef struct {
  48:Middlewares/lvgl/src/core/../draw/../misc/../font/../misc/lv_area.h ****     lv_coord_t x;
  49:Middlewares/lvgl/src/core/../draw/../misc/../font/../misc/lv_area.h ****     lv_coord_t y;
  50:Middlewares/lvgl/src/core/../draw/../misc/../font/../misc/lv_area.h **** } lv_point_t;
  51:Middlewares/lvgl/src/core/../draw/../misc/../font/../misc/lv_area.h **** 
  52:Middlewares/lvgl/src/core/../draw/../misc/../font/../misc/lv_area.h **** /** Represents an area of the screen.*/
  53:Middlewares/lvgl/src/core/../draw/../misc/../font/../misc/lv_area.h **** typedef struct {
  54:Middlewares/lvgl/src/core/../draw/../misc/../font/../misc/lv_area.h ****     lv_coord_t x1;
  55:Middlewares/lvgl/src/core/../draw/../misc/../font/../misc/lv_area.h ****     lv_coord_t y1;
  56:Middlewares/lvgl/src/core/../draw/../misc/../font/../misc/lv_area.h ****     lv_coord_t x2;
  57:Middlewares/lvgl/src/core/../draw/../misc/../font/../misc/lv_area.h ****     lv_coord_t y2;
  58:Middlewares/lvgl/src/core/../draw/../misc/../font/../misc/lv_area.h **** } lv_area_t;
  59:Middlewares/lvgl/src/core/../draw/../misc/../font/../misc/lv_area.h **** 
  60:Middlewares/lvgl/src/core/../draw/../misc/../font/../misc/lv_area.h **** /** Alignments*/
  61:Middlewares/lvgl/src/core/../draw/../misc/../font/../misc/lv_area.h **** enum {
  62:Middlewares/lvgl/src/core/../draw/../misc/../font/../misc/lv_area.h ****     LV_ALIGN_DEFAULT = 0,
  63:Middlewares/lvgl/src/core/../draw/../misc/../font/../misc/lv_area.h ****     LV_ALIGN_TOP_LEFT,
  64:Middlewares/lvgl/src/core/../draw/../misc/../font/../misc/lv_area.h ****     LV_ALIGN_TOP_MID,
  65:Middlewares/lvgl/src/core/../draw/../misc/../font/../misc/lv_area.h ****     LV_ALIGN_TOP_RIGHT,
  66:Middlewares/lvgl/src/core/../draw/../misc/../font/../misc/lv_area.h ****     LV_ALIGN_BOTTOM_LEFT,
  67:Middlewares/lvgl/src/core/../draw/../misc/../font/../misc/lv_area.h ****     LV_ALIGN_BOTTOM_MID,
  68:Middlewares/lvgl/src/core/../draw/../misc/../font/../misc/lv_area.h ****     LV_ALIGN_BOTTOM_RIGHT,
  69:Middlewares/lvgl/src/core/../draw/../misc/../font/../misc/lv_area.h ****     LV_ALIGN_LEFT_MID,
  70:Middlewares/lvgl/src/core/../draw/../misc/../font/../misc/lv_area.h ****     LV_ALIGN_RIGHT_MID,
  71:Middlewares/lvgl/src/core/../draw/../misc/../font/../misc/lv_area.h ****     LV_ALIGN_CENTER,
  72:Middlewares/lvgl/src/core/../draw/../misc/../font/../misc/lv_area.h **** 
  73:Middlewares/lvgl/src/core/../draw/../misc/../font/../misc/lv_area.h ****     LV_ALIGN_OUT_TOP_LEFT,
  74:Middlewares/lvgl/src/core/../draw/../misc/../font/../misc/lv_area.h ****     LV_ALIGN_OUT_TOP_MID,
ARM GAS  /tmp/cckMVbUO.s 			page 42


  75:Middlewares/lvgl/src/core/../draw/../misc/../font/../misc/lv_area.h ****     LV_ALIGN_OUT_TOP_RIGHT,
  76:Middlewares/lvgl/src/core/../draw/../misc/../font/../misc/lv_area.h ****     LV_ALIGN_OUT_BOTTOM_LEFT,
  77:Middlewares/lvgl/src/core/../draw/../misc/../font/../misc/lv_area.h ****     LV_ALIGN_OUT_BOTTOM_MID,
  78:Middlewares/lvgl/src/core/../draw/../misc/../font/../misc/lv_area.h ****     LV_ALIGN_OUT_BOTTOM_RIGHT,
  79:Middlewares/lvgl/src/core/../draw/../misc/../font/../misc/lv_area.h ****     LV_ALIGN_OUT_LEFT_TOP,
  80:Middlewares/lvgl/src/core/../draw/../misc/../font/../misc/lv_area.h ****     LV_ALIGN_OUT_LEFT_MID,
  81:Middlewares/lvgl/src/core/../draw/../misc/../font/../misc/lv_area.h ****     LV_ALIGN_OUT_LEFT_BOTTOM,
  82:Middlewares/lvgl/src/core/../draw/../misc/../font/../misc/lv_area.h ****     LV_ALIGN_OUT_RIGHT_TOP,
  83:Middlewares/lvgl/src/core/../draw/../misc/../font/../misc/lv_area.h ****     LV_ALIGN_OUT_RIGHT_MID,
  84:Middlewares/lvgl/src/core/../draw/../misc/../font/../misc/lv_area.h ****     LV_ALIGN_OUT_RIGHT_BOTTOM,
  85:Middlewares/lvgl/src/core/../draw/../misc/../font/../misc/lv_area.h **** };
  86:Middlewares/lvgl/src/core/../draw/../misc/../font/../misc/lv_area.h **** typedef uint8_t lv_align_t;
  87:Middlewares/lvgl/src/core/../draw/../misc/../font/../misc/lv_area.h **** 
  88:Middlewares/lvgl/src/core/../draw/../misc/../font/../misc/lv_area.h **** enum {
  89:Middlewares/lvgl/src/core/../draw/../misc/../font/../misc/lv_area.h ****     LV_DIR_NONE     = 0x00,
  90:Middlewares/lvgl/src/core/../draw/../misc/../font/../misc/lv_area.h ****     LV_DIR_LEFT     = (1 << 0),
  91:Middlewares/lvgl/src/core/../draw/../misc/../font/../misc/lv_area.h ****     LV_DIR_RIGHT    = (1 << 1),
  92:Middlewares/lvgl/src/core/../draw/../misc/../font/../misc/lv_area.h ****     LV_DIR_TOP      = (1 << 2),
  93:Middlewares/lvgl/src/core/../draw/../misc/../font/../misc/lv_area.h ****     LV_DIR_BOTTOM   = (1 << 3),
  94:Middlewares/lvgl/src/core/../draw/../misc/../font/../misc/lv_area.h ****     LV_DIR_HOR      = LV_DIR_LEFT | LV_DIR_RIGHT,
  95:Middlewares/lvgl/src/core/../draw/../misc/../font/../misc/lv_area.h ****     LV_DIR_VER      = LV_DIR_TOP | LV_DIR_BOTTOM,
  96:Middlewares/lvgl/src/core/../draw/../misc/../font/../misc/lv_area.h ****     LV_DIR_ALL      = LV_DIR_HOR | LV_DIR_VER,
  97:Middlewares/lvgl/src/core/../draw/../misc/../font/../misc/lv_area.h **** };
  98:Middlewares/lvgl/src/core/../draw/../misc/../font/../misc/lv_area.h **** 
  99:Middlewares/lvgl/src/core/../draw/../misc/../font/../misc/lv_area.h **** typedef uint8_t lv_dir_t;
 100:Middlewares/lvgl/src/core/../draw/../misc/../font/../misc/lv_area.h **** 
 101:Middlewares/lvgl/src/core/../draw/../misc/../font/../misc/lv_area.h **** /**********************
 102:Middlewares/lvgl/src/core/../draw/../misc/../font/../misc/lv_area.h ****  * GLOBAL PROTOTYPES
 103:Middlewares/lvgl/src/core/../draw/../misc/../font/../misc/lv_area.h ****  **********************/
 104:Middlewares/lvgl/src/core/../draw/../misc/../font/../misc/lv_area.h **** 
 105:Middlewares/lvgl/src/core/../draw/../misc/../font/../misc/lv_area.h **** /**
 106:Middlewares/lvgl/src/core/../draw/../misc/../font/../misc/lv_area.h ****  * Initialize an area
 107:Middlewares/lvgl/src/core/../draw/../misc/../font/../misc/lv_area.h ****  * @param area_p pointer to an area
 108:Middlewares/lvgl/src/core/../draw/../misc/../font/../misc/lv_area.h ****  * @param x1 left coordinate of the area
 109:Middlewares/lvgl/src/core/../draw/../misc/../font/../misc/lv_area.h ****  * @param y1 top coordinate of the area
 110:Middlewares/lvgl/src/core/../draw/../misc/../font/../misc/lv_area.h ****  * @param x2 right coordinate of the area
 111:Middlewares/lvgl/src/core/../draw/../misc/../font/../misc/lv_area.h ****  * @param y2 bottom coordinate of the area
 112:Middlewares/lvgl/src/core/../draw/../misc/../font/../misc/lv_area.h ****  */
 113:Middlewares/lvgl/src/core/../draw/../misc/../font/../misc/lv_area.h **** void lv_area_set(lv_area_t * area_p, lv_coord_t x1, lv_coord_t y1, lv_coord_t x2, lv_coord_t y2);
 114:Middlewares/lvgl/src/core/../draw/../misc/../font/../misc/lv_area.h **** 
 115:Middlewares/lvgl/src/core/../draw/../misc/../font/../misc/lv_area.h **** /**
 116:Middlewares/lvgl/src/core/../draw/../misc/../font/../misc/lv_area.h ****  * Copy an area
 117:Middlewares/lvgl/src/core/../draw/../misc/../font/../misc/lv_area.h ****  * @param dest pointer to the destination area
 118:Middlewares/lvgl/src/core/../draw/../misc/../font/../misc/lv_area.h ****  * @param src pointer to the source area
 119:Middlewares/lvgl/src/core/../draw/../misc/../font/../misc/lv_area.h ****  */
 120:Middlewares/lvgl/src/core/../draw/../misc/../font/../misc/lv_area.h **** inline static void lv_area_copy(lv_area_t * dest, const lv_area_t * src)
 121:Middlewares/lvgl/src/core/../draw/../misc/../font/../misc/lv_area.h **** {
 122:Middlewares/lvgl/src/core/../draw/../misc/../font/../misc/lv_area.h ****     dest->x1 = src->x1;
 123:Middlewares/lvgl/src/core/../draw/../misc/../font/../misc/lv_area.h ****     dest->y1 = src->y1;
 124:Middlewares/lvgl/src/core/../draw/../misc/../font/../misc/lv_area.h ****     dest->x2 = src->x2;
 125:Middlewares/lvgl/src/core/../draw/../misc/../font/../misc/lv_area.h ****     dest->y2 = src->y2;
 126:Middlewares/lvgl/src/core/../draw/../misc/../font/../misc/lv_area.h **** }
 127:Middlewares/lvgl/src/core/../draw/../misc/../font/../misc/lv_area.h **** 
 128:Middlewares/lvgl/src/core/../draw/../misc/../font/../misc/lv_area.h **** /**
 129:Middlewares/lvgl/src/core/../draw/../misc/../font/../misc/lv_area.h ****  * Get the width of an area
 130:Middlewares/lvgl/src/core/../draw/../misc/../font/../misc/lv_area.h ****  * @param area_p pointer to an area
 131:Middlewares/lvgl/src/core/../draw/../misc/../font/../misc/lv_area.h ****  * @return the width of the area (if x1 == x2 -> width = 1)
ARM GAS  /tmp/cckMVbUO.s 			page 43


 132:Middlewares/lvgl/src/core/../draw/../misc/../font/../misc/lv_area.h ****  */
 133:Middlewares/lvgl/src/core/../draw/../misc/../font/../misc/lv_area.h **** static inline lv_coord_t lv_area_get_width(const lv_area_t * area_p)
 1233              		.loc 3 133 26 view .LVU433
 1234              	.LBB235:
 134:Middlewares/lvgl/src/core/../draw/../misc/../font/../misc/lv_area.h **** {
 135:Middlewares/lvgl/src/core/../draw/../misc/../font/../misc/lv_area.h ****     return (lv_coord_t)(area_p->x2 - area_p->x1 + 1);
 1235              		.loc 3 135 5 view .LVU434
 1236              		.loc 3 135 31 is_stmt 0 view .LVU435
 1237 0044 2B8B     		ldrh	r3, [r5, #24]
 1238              		.loc 3 135 44 view .LVU436
 1239 0046 AA8A     		ldrh	r2, [r5, #20]
 1240              		.loc 3 135 36 view .LVU437
 1241 0048 9B1A     		subs	r3, r3, r2
 1242 004a 9BB2     		uxth	r3, r3
 1243              		.loc 3 135 49 view .LVU438
 1244 004c 0133     		adds	r3, r3, #1
 1245              		.loc 3 135 12 view .LVU439
 1246 004e 1BB2     		sxth	r3, r3
 1247              	.LVL117:
 1248              		.loc 3 135 12 view .LVU440
 1249              	.LBE235:
 1250              	.LBE234:
 228:Middlewares/lvgl/src/core/lv_obj_draw.c ****     draw_dsc->pivot.y = lv_area_get_height(&obj->coords) / 2;
 1251              		.loc 1 228 23 view .LVU441
 1252 0050 002B     		cmp	r3, #0
 1253 0052 1DDB     		blt	.L36
 1254              	.L31:
 1255 0054 5B10     		asrs	r3, r3, #1
 1256 0056 A380     		strh	r3, [r4, #4]	@ movhi
 229:Middlewares/lvgl/src/core/lv_obj_draw.c **** 
 1257              		.loc 1 229 5 is_stmt 1 view .LVU442
 1258              	.LVL118:
 1259              	.LBB236:
 1260              	.LBI236:
 136:Middlewares/lvgl/src/core/../draw/../misc/../font/../misc/lv_area.h **** }
 137:Middlewares/lvgl/src/core/../draw/../misc/../font/../misc/lv_area.h **** 
 138:Middlewares/lvgl/src/core/../draw/../misc/../font/../misc/lv_area.h **** /**
 139:Middlewares/lvgl/src/core/../draw/../misc/../font/../misc/lv_area.h ****  * Get the height of an area
 140:Middlewares/lvgl/src/core/../draw/../misc/../font/../misc/lv_area.h ****  * @param area_p pointer to an area
 141:Middlewares/lvgl/src/core/../draw/../misc/../font/../misc/lv_area.h ****  * @return the height of the area (if y1 == y2 -> height = 1)
 142:Middlewares/lvgl/src/core/../draw/../misc/../font/../misc/lv_area.h ****  */
 143:Middlewares/lvgl/src/core/../draw/../misc/../font/../misc/lv_area.h **** static inline lv_coord_t lv_area_get_height(const lv_area_t * area_p)
 1261              		.loc 3 143 26 view .LVU443
 1262              	.LBB237:
 144:Middlewares/lvgl/src/core/../draw/../misc/../font/../misc/lv_area.h **** {
 145:Middlewares/lvgl/src/core/../draw/../misc/../font/../misc/lv_area.h ****     return (lv_coord_t)(area_p->y2 - area_p->y1 + 1);
 1263              		.loc 3 145 5 view .LVU444
 1264              		.loc 3 145 31 is_stmt 0 view .LVU445
 1265 0058 6B8B     		ldrh	r3, [r5, #26]
 1266              		.loc 3 145 44 view .LVU446
 1267 005a EA8A     		ldrh	r2, [r5, #22]
 1268              		.loc 3 145 36 view .LVU447
 1269 005c 9B1A     		subs	r3, r3, r2
 1270 005e 9BB2     		uxth	r3, r3
 1271              		.loc 3 145 49 view .LVU448
 1272 0060 0133     		adds	r3, r3, #1
 1273              		.loc 3 145 12 view .LVU449
ARM GAS  /tmp/cckMVbUO.s 			page 44


 1274 0062 1BB2     		sxth	r3, r3
 1275              	.LVL119:
 1276              		.loc 3 145 12 view .LVU450
 1277              	.LBE237:
 1278              	.LBE236:
 229:Middlewares/lvgl/src/core/lv_obj_draw.c **** 
 1279              		.loc 1 229 23 view .LVU451
 1280 0064 002B     		cmp	r3, #0
 1281 0066 15DB     		blt	.L37
 1282              	.L32:
 1283 0068 5B10     		asrs	r3, r3, #1
 1284 006a E380     		strh	r3, [r4, #6]	@ movhi
 231:Middlewares/lvgl/src/core/lv_obj_draw.c ****     if(draw_dsc->recolor_opa > 0) {
 1285              		.loc 1 231 5 is_stmt 1 view .LVU452
 1286              	.LVL120:
 1287              	.LBB238:
 1288              	.LBI238:
 379:Middlewares/lvgl/src/core/lv_obj_style_gen.h **** {
 1289              		.loc 2 379 24 view .LVU453
 1290              	.LBB239:
 381:Middlewares/lvgl/src/core/lv_obj_style_gen.h ****     return (lv_opa_t)v.num;
 1291              		.loc 2 381 5 view .LVU454
 381:Middlewares/lvgl/src/core/lv_obj_style_gen.h ****     return (lv_opa_t)v.num;
 1292              		.loc 2 381 26 is_stmt 0 view .LVU455
 1293 006c 4822     		movs	r2, #72
 1294 006e 3146     		mov	r1, r6
 1295 0070 2846     		mov	r0, r5
 1296 0072 FFF7FEFF 		bl	lv_obj_get_style_prop
 1297              	.LVL121:
 382:Middlewares/lvgl/src/core/lv_obj_style_gen.h **** }
 1298              		.loc 2 382 5 is_stmt 1 view .LVU456
 382:Middlewares/lvgl/src/core/lv_obj_style_gen.h **** }
 1299              		.loc 2 382 12 is_stmt 0 view .LVU457
 1300 0076 C0B2     		uxtb	r0, r0
 1301              	.LVL122:
 382:Middlewares/lvgl/src/core/lv_obj_style_gen.h **** }
 1302              		.loc 2 382 12 view .LVU458
 1303              	.LBE239:
 1304              	.LBE238:
 231:Middlewares/lvgl/src/core/lv_obj_draw.c ****     if(draw_dsc->recolor_opa > 0) {
 1305              		.loc 1 231 27 view .LVU459
 1306 0078 A072     		strb	r0, [r4, #10]
 232:Middlewares/lvgl/src/core/lv_obj_draw.c ****         draw_dsc->recolor = lv_obj_get_style_img_recolor(obj, part);
 1307              		.loc 1 232 5 is_stmt 1 view .LVU460
 232:Middlewares/lvgl/src/core/lv_obj_draw.c ****         draw_dsc->recolor = lv_obj_get_style_img_recolor(obj, part);
 1308              		.loc 1 232 7 is_stmt 0 view .LVU461
 1309 007a 68B9     		cbnz	r0, .L38
 1310              	.L33:
 236:Middlewares/lvgl/src/core/lv_obj_draw.c **** #endif
 1311              		.loc 1 236 5 is_stmt 1 view .LVU462
 1312              	.LVL123:
 1313              	.LBB240:
 1314              	.LBI240:
 175:Middlewares/lvgl/src/core/lv_obj_style_gen.h **** {
 1315              		.loc 2 175 31 view .LVU463
 1316              	.LBB241:
 177:Middlewares/lvgl/src/core/lv_obj_style_gen.h ****     return (lv_blend_mode_t)v.num;
ARM GAS  /tmp/cckMVbUO.s 			page 45


 1317              		.loc 2 177 5 view .LVU464
 177:Middlewares/lvgl/src/core/lv_obj_style_gen.h ****     return (lv_blend_mode_t)v.num;
 1318              		.loc 2 177 26 is_stmt 0 view .LVU465
 1319 007c 6822     		movs	r2, #104
 1320 007e 3146     		mov	r1, r6
 1321 0080 2846     		mov	r0, r5
 1322 0082 FFF7FEFF 		bl	lv_obj_get_style_prop
 1323              	.LVL124:
 178:Middlewares/lvgl/src/core/lv_obj_style_gen.h **** }
 1324              		.loc 2 178 5 is_stmt 1 view .LVU466
 178:Middlewares/lvgl/src/core/lv_obj_style_gen.h **** }
 1325              		.loc 2 178 5 is_stmt 0 view .LVU467
 1326              	.LBE241:
 1327              	.LBE240:
 236:Middlewares/lvgl/src/core/lv_obj_draw.c **** #endif
 1328              		.loc 1 236 26 view .LVU468
 1329 0086 237B     		ldrb	r3, [r4, #12]	@ zero_extendqisi2
 1330 0088 60F30303 		bfi	r3, r0, #0, #4
 1331 008c 2373     		strb	r3, [r4, #12]
 1332 008e C2E7     		b	.L28
 1333              	.L36:
 228:Middlewares/lvgl/src/core/lv_obj_draw.c ****     draw_dsc->pivot.y = lv_area_get_height(&obj->coords) / 2;
 1334              		.loc 1 228 23 view .LVU469
 1335 0090 0133     		adds	r3, r3, #1
 1336 0092 DFE7     		b	.L31
 1337              	.L37:
 229:Middlewares/lvgl/src/core/lv_obj_draw.c **** 
 1338              		.loc 1 229 23 view .LVU470
 1339 0094 0133     		adds	r3, r3, #1
 1340 0096 E7E7     		b	.L32
 1341              	.L38:
 233:Middlewares/lvgl/src/core/lv_obj_draw.c ****     }
 1342              		.loc 1 233 9 is_stmt 1 view .LVU471
 1343              	.LVL125:
 1344              	.LBB242:
 1345              	.LBI242:
 367:Middlewares/lvgl/src/core/lv_obj_style_gen.h **** {
 1346              		.loc 2 367 26 view .LVU472
 1347              	.LBB243:
 369:Middlewares/lvgl/src/core/lv_obj_style_gen.h ****     return v.color;
 1348              		.loc 2 369 5 view .LVU473
 369:Middlewares/lvgl/src/core/lv_obj_style_gen.h ****     return v.color;
 1349              		.loc 2 369 26 is_stmt 0 view .LVU474
 1350 0098 4722     		movs	r2, #71
 1351 009a 3146     		mov	r1, r6
 1352 009c 2846     		mov	r0, r5
 1353 009e FFF7FEFF 		bl	lv_obj_get_style_prop
 1354              	.LVL126:
 370:Middlewares/lvgl/src/core/lv_obj_style_gen.h **** }
 1355              		.loc 2 370 5 is_stmt 1 view .LVU475
 370:Middlewares/lvgl/src/core/lv_obj_style_gen.h **** }
 1356              		.loc 2 370 5 is_stmt 0 view .LVU476
 1357              	.LBE243:
 1358              	.LBE242:
 233:Middlewares/lvgl/src/core/lv_obj_draw.c ****     }
 1359              		.loc 1 233 29 view .LVU477
 1360 00a2 2081     		strh	r0, [r4, #8]	@ movhi
ARM GAS  /tmp/cckMVbUO.s 			page 46


 1361 00a4 EAE7     		b	.L33
 1362              		.cfi_endproc
 1363              	.LFE155:
 1365              		.section	.text.lv_obj_init_draw_line_dsc,"ax",%progbits
 1366              		.align	1
 1367              		.global	lv_obj_init_draw_line_dsc
 1368              		.syntax unified
 1369              		.thumb
 1370              		.thumb_func
 1372              	lv_obj_init_draw_line_dsc:
 1373              	.LVL127:
 1374              	.LFB156:
 239:Middlewares/lvgl/src/core/lv_obj_draw.c **** 
 240:Middlewares/lvgl/src/core/lv_obj_draw.c **** void lv_obj_init_draw_line_dsc(lv_obj_t * obj, uint32_t part, lv_draw_line_dsc_t * draw_dsc)
 241:Middlewares/lvgl/src/core/lv_obj_draw.c **** {
 1375              		.loc 1 241 1 is_stmt 1 view -0
 1376              		.cfi_startproc
 1377              		@ args = 0, pretend = 0, frame = 0
 1378              		@ frame_needed = 0, uses_anonymous_args = 0
 1379              		.loc 1 241 1 is_stmt 0 view .LVU479
 1380 0000 70B5     		push	{r4, r5, r6, lr}
 1381              	.LCFI3:
 1382              		.cfi_def_cfa_offset 16
 1383              		.cfi_offset 4, -16
 1384              		.cfi_offset 5, -12
 1385              		.cfi_offset 6, -8
 1386              		.cfi_offset 14, -4
 1387 0002 0546     		mov	r5, r0
 1388 0004 0E46     		mov	r6, r1
 1389 0006 1446     		mov	r4, r2
 242:Middlewares/lvgl/src/core/lv_obj_draw.c ****     draw_dsc->width = lv_obj_get_style_line_width(obj, part);
 1390              		.loc 1 242 5 is_stmt 1 view .LVU480
 1391              	.LVL128:
 1392              	.LBB244:
 1393              	.LBI244:
 455:Middlewares/lvgl/src/core/lv_obj_style_gen.h **** }
 456:Middlewares/lvgl/src/core/lv_obj_style_gen.h **** 
 457:Middlewares/lvgl/src/core/lv_obj_style_gen.h **** static inline lv_coord_t lv_obj_get_style_line_width(const struct _lv_obj_t * obj, uint32_t part)
 1394              		.loc 2 457 26 view .LVU481
 1395              	.LBB245:
 458:Middlewares/lvgl/src/core/lv_obj_style_gen.h **** {
 459:Middlewares/lvgl/src/core/lv_obj_style_gen.h ****     lv_style_value_t v = lv_obj_get_style_prop(obj, part, LV_STYLE_LINE_WIDTH);
 1396              		.loc 2 459 5 view .LVU482
 1397              		.loc 2 459 26 is_stmt 0 view .LVU483
 1398 0008 40F64902 		movw	r2, #2121
 1399              	.LVL129:
 1400              		.loc 2 459 26 view .LVU484
 1401 000c FFF7FEFF 		bl	lv_obj_get_style_prop
 1402              	.LVL130:
 460:Middlewares/lvgl/src/core/lv_obj_style_gen.h ****     return (lv_coord_t)v.num;
 1403              		.loc 2 460 5 is_stmt 1 view .LVU485
 1404              		.loc 2 460 12 is_stmt 0 view .LVU486
 1405 0010 00B2     		sxth	r0, r0
 1406              	.LVL131:
 1407              		.loc 2 460 12 view .LVU487
 1408              	.LBE245:
 1409              	.LBE244:
ARM GAS  /tmp/cckMVbUO.s 			page 47


 1410              		.loc 1 242 21 view .LVU488
 1411 0012 6080     		strh	r0, [r4, #2]	@ movhi
 243:Middlewares/lvgl/src/core/lv_obj_draw.c ****     if(draw_dsc->width == 0) return;
 1412              		.loc 1 243 5 is_stmt 1 view .LVU489
 1413              		.loc 1 243 7 is_stmt 0 view .LVU490
 1414 0014 00B9     		cbnz	r0, .L44
 1415              	.L39:
 244:Middlewares/lvgl/src/core/lv_obj_draw.c **** 
 245:Middlewares/lvgl/src/core/lv_obj_draw.c ****     draw_dsc->opa = lv_obj_get_style_line_opa(obj, part);
 246:Middlewares/lvgl/src/core/lv_obj_draw.c ****     if(draw_dsc->opa <= LV_OPA_MIN)  return;
 247:Middlewares/lvgl/src/core/lv_obj_draw.c **** 
 248:Middlewares/lvgl/src/core/lv_obj_draw.c ****     lv_opa_t opa = lv_obj_get_style_opa(obj, part);
 249:Middlewares/lvgl/src/core/lv_obj_draw.c ****     if(opa < LV_OPA_MAX) {
 250:Middlewares/lvgl/src/core/lv_obj_draw.c ****         draw_dsc->opa = (uint16_t)((uint16_t)draw_dsc->opa * opa) >> 8;
 251:Middlewares/lvgl/src/core/lv_obj_draw.c ****     }
 252:Middlewares/lvgl/src/core/lv_obj_draw.c ****     if(draw_dsc->opa <= LV_OPA_MIN)  return;
 253:Middlewares/lvgl/src/core/lv_obj_draw.c **** 
 254:Middlewares/lvgl/src/core/lv_obj_draw.c ****     draw_dsc->color = lv_obj_get_style_line_color(obj, part);
 255:Middlewares/lvgl/src/core/lv_obj_draw.c **** 
 256:Middlewares/lvgl/src/core/lv_obj_draw.c ****     draw_dsc->dash_width = lv_obj_get_style_line_dash_width(obj, part);
 257:Middlewares/lvgl/src/core/lv_obj_draw.c ****     if(draw_dsc->dash_width) {
 258:Middlewares/lvgl/src/core/lv_obj_draw.c ****         draw_dsc->dash_gap = lv_obj_get_style_line_dash_gap(obj, part);
 259:Middlewares/lvgl/src/core/lv_obj_draw.c ****     }
 260:Middlewares/lvgl/src/core/lv_obj_draw.c **** 
 261:Middlewares/lvgl/src/core/lv_obj_draw.c ****     draw_dsc->round_start = lv_obj_get_style_line_rounded(obj, part);
 262:Middlewares/lvgl/src/core/lv_obj_draw.c ****     draw_dsc->round_end = draw_dsc->round_start;
 263:Middlewares/lvgl/src/core/lv_obj_draw.c **** 
 264:Middlewares/lvgl/src/core/lv_obj_draw.c **** #if LV_DRAW_COMPLEX
 265:Middlewares/lvgl/src/core/lv_obj_draw.c ****     draw_dsc->blend_mode = lv_obj_get_style_blend_mode(obj, part);
 266:Middlewares/lvgl/src/core/lv_obj_draw.c **** #endif
 267:Middlewares/lvgl/src/core/lv_obj_draw.c **** }
 1416              		.loc 1 267 1 view .LVU491
 1417 0016 70BD     		pop	{r4, r5, r6, pc}
 1418              	.LVL132:
 1419              	.L44:
 245:Middlewares/lvgl/src/core/lv_obj_draw.c ****     if(draw_dsc->opa <= LV_OPA_MIN)  return;
 1420              		.loc 1 245 5 is_stmt 1 view .LVU492
 1421              	.LBB246:
 1422              	.LBI246:
 461:Middlewares/lvgl/src/core/lv_obj_style_gen.h **** }
 462:Middlewares/lvgl/src/core/lv_obj_style_gen.h **** 
 463:Middlewares/lvgl/src/core/lv_obj_style_gen.h **** static inline lv_coord_t lv_obj_get_style_line_dash_width(const struct _lv_obj_t * obj, uint32_t pa
 464:Middlewares/lvgl/src/core/lv_obj_style_gen.h **** {
 465:Middlewares/lvgl/src/core/lv_obj_style_gen.h ****     lv_style_value_t v = lv_obj_get_style_prop(obj, part, LV_STYLE_LINE_DASH_WIDTH);
 466:Middlewares/lvgl/src/core/lv_obj_style_gen.h ****     return (lv_coord_t)v.num;
 467:Middlewares/lvgl/src/core/lv_obj_style_gen.h **** }
 468:Middlewares/lvgl/src/core/lv_obj_style_gen.h **** 
 469:Middlewares/lvgl/src/core/lv_obj_style_gen.h **** static inline lv_coord_t lv_obj_get_style_line_dash_gap(const struct _lv_obj_t * obj, uint32_t part
 470:Middlewares/lvgl/src/core/lv_obj_style_gen.h **** {
 471:Middlewares/lvgl/src/core/lv_obj_style_gen.h ****     lv_style_value_t v = lv_obj_get_style_prop(obj, part, LV_STYLE_LINE_DASH_GAP);
 472:Middlewares/lvgl/src/core/lv_obj_style_gen.h ****     return (lv_coord_t)v.num;
 473:Middlewares/lvgl/src/core/lv_obj_style_gen.h **** }
 474:Middlewares/lvgl/src/core/lv_obj_style_gen.h **** 
 475:Middlewares/lvgl/src/core/lv_obj_style_gen.h **** static inline lv_coord_t lv_obj_get_style_line_rounded(const struct _lv_obj_t * obj, uint32_t part)
 476:Middlewares/lvgl/src/core/lv_obj_style_gen.h **** {
 477:Middlewares/lvgl/src/core/lv_obj_style_gen.h ****     lv_style_value_t v = lv_obj_get_style_prop(obj, part, LV_STYLE_LINE_ROUNDED);
 478:Middlewares/lvgl/src/core/lv_obj_style_gen.h ****     return (lv_coord_t)v.num;
ARM GAS  /tmp/cckMVbUO.s 			page 48


 479:Middlewares/lvgl/src/core/lv_obj_style_gen.h **** }
 480:Middlewares/lvgl/src/core/lv_obj_style_gen.h **** 
 481:Middlewares/lvgl/src/core/lv_obj_style_gen.h **** static inline lv_color_t lv_obj_get_style_line_color(const struct _lv_obj_t * obj, uint32_t part)
 482:Middlewares/lvgl/src/core/lv_obj_style_gen.h **** {
 483:Middlewares/lvgl/src/core/lv_obj_style_gen.h ****     lv_style_value_t v = lv_obj_get_style_prop(obj, part, LV_STYLE_LINE_COLOR);
 484:Middlewares/lvgl/src/core/lv_obj_style_gen.h ****     return v.color;
 485:Middlewares/lvgl/src/core/lv_obj_style_gen.h **** }
 486:Middlewares/lvgl/src/core/lv_obj_style_gen.h **** 
 487:Middlewares/lvgl/src/core/lv_obj_style_gen.h **** static inline lv_color_t lv_obj_get_style_line_color_filtered(const struct _lv_obj_t * obj, uint32_
 488:Middlewares/lvgl/src/core/lv_obj_style_gen.h **** {
 489:Middlewares/lvgl/src/core/lv_obj_style_gen.h ****     lv_style_value_t v = lv_obj_get_style_prop(obj, part, LV_STYLE_LINE_COLOR_FILTERED);
 490:Middlewares/lvgl/src/core/lv_obj_style_gen.h ****     return v.color;
 491:Middlewares/lvgl/src/core/lv_obj_style_gen.h **** }
 492:Middlewares/lvgl/src/core/lv_obj_style_gen.h **** 
 493:Middlewares/lvgl/src/core/lv_obj_style_gen.h **** static inline lv_opa_t lv_obj_get_style_line_opa(const struct _lv_obj_t * obj, uint32_t part)
 1423              		.loc 2 493 24 view .LVU493
 1424              	.LBB247:
 494:Middlewares/lvgl/src/core/lv_obj_style_gen.h **** {
 495:Middlewares/lvgl/src/core/lv_obj_style_gen.h ****     lv_style_value_t v = lv_obj_get_style_prop(obj, part, LV_STYLE_LINE_OPA);
 1425              		.loc 2 495 5 view .LVU494
 1426              		.loc 2 495 26 is_stmt 0 view .LVU495
 1427 0018 4E22     		movs	r2, #78
 1428 001a 3146     		mov	r1, r6
 1429 001c 2846     		mov	r0, r5
 1430 001e FFF7FEFF 		bl	lv_obj_get_style_prop
 1431              	.LVL133:
 496:Middlewares/lvgl/src/core/lv_obj_style_gen.h ****     return (lv_opa_t)v.num;
 1432              		.loc 2 496 5 is_stmt 1 view .LVU496
 1433              		.loc 2 496 12 is_stmt 0 view .LVU497
 1434 0022 C3B2     		uxtb	r3, r0
 1435              	.LVL134:
 1436              		.loc 2 496 12 view .LVU498
 1437              	.LBE247:
 1438              	.LBE246:
 245:Middlewares/lvgl/src/core/lv_obj_draw.c ****     if(draw_dsc->opa <= LV_OPA_MIN)  return;
 1439              		.loc 1 245 19 view .LVU499
 1440 0024 2372     		strb	r3, [r4, #8]
 246:Middlewares/lvgl/src/core/lv_obj_draw.c **** 
 1441              		.loc 1 246 5 is_stmt 1 view .LVU500
 246:Middlewares/lvgl/src/core/lv_obj_draw.c **** 
 1442              		.loc 1 246 7 is_stmt 0 view .LVU501
 1443 0026 022B     		cmp	r3, #2
 1444 0028 F5D9     		bls	.L39
 248:Middlewares/lvgl/src/core/lv_obj_draw.c ****     if(opa < LV_OPA_MAX) {
 1445              		.loc 1 248 5 is_stmt 1 view .LVU502
 1446              	.LVL135:
 1447              	.LBB248:
 1448              	.LBI248:
 139:Middlewares/lvgl/src/core/lv_obj_style_gen.h **** {
 1449              		.loc 2 139 24 view .LVU503
 1450              	.LBB249:
 141:Middlewares/lvgl/src/core/lv_obj_style_gen.h ****     return (lv_opa_t)v.num;
 1451              		.loc 2 141 5 view .LVU504
 141:Middlewares/lvgl/src/core/lv_obj_style_gen.h ****     return (lv_opa_t)v.num;
 1452              		.loc 2 141 26 is_stmt 0 view .LVU505
 1453 002a 40F26242 		movw	r2, #1122
 1454 002e 3146     		mov	r1, r6
ARM GAS  /tmp/cckMVbUO.s 			page 49


 1455 0030 2846     		mov	r0, r5
 1456 0032 FFF7FEFF 		bl	lv_obj_get_style_prop
 1457              	.LVL136:
 142:Middlewares/lvgl/src/core/lv_obj_style_gen.h **** }
 1458              		.loc 2 142 5 is_stmt 1 view .LVU506
 142:Middlewares/lvgl/src/core/lv_obj_style_gen.h **** }
 1459              		.loc 2 142 12 is_stmt 0 view .LVU507
 1460 0036 C0B2     		uxtb	r0, r0
 1461              	.LVL137:
 142:Middlewares/lvgl/src/core/lv_obj_style_gen.h **** }
 1462              		.loc 2 142 12 view .LVU508
 1463              	.LBE249:
 1464              	.LBE248:
 249:Middlewares/lvgl/src/core/lv_obj_draw.c ****         draw_dsc->opa = (uint16_t)((uint16_t)draw_dsc->opa * opa) >> 8;
 1465              		.loc 1 249 5 is_stmt 1 view .LVU509
 249:Middlewares/lvgl/src/core/lv_obj_draw.c ****         draw_dsc->opa = (uint16_t)((uint16_t)draw_dsc->opa * opa) >> 8;
 1466              		.loc 1 249 7 is_stmt 0 view .LVU510
 1467 0038 FC28     		cmp	r0, #252
 1468 003a 04D8     		bhi	.L41
 250:Middlewares/lvgl/src/core/lv_obj_draw.c ****     }
 1469              		.loc 1 250 9 is_stmt 1 view .LVU511
 250:Middlewares/lvgl/src/core/lv_obj_draw.c ****     }
 1470              		.loc 1 250 54 is_stmt 0 view .LVU512
 1471 003c 237A     		ldrb	r3, [r4, #8]	@ zero_extendqisi2
 250:Middlewares/lvgl/src/core/lv_obj_draw.c ****     }
 1472              		.loc 1 250 25 view .LVU513
 1473 003e 03FB00F0 		mul	r0, r3, r0
 1474              	.LVL138:
 250:Middlewares/lvgl/src/core/lv_obj_draw.c ****     }
 1475              		.loc 1 250 23 view .LVU514
 1476 0042 000A     		lsrs	r0, r0, #8
 1477 0044 2072     		strb	r0, [r4, #8]
 1478              	.L41:
 252:Middlewares/lvgl/src/core/lv_obj_draw.c **** 
 1479              		.loc 1 252 5 is_stmt 1 view .LVU515
 252:Middlewares/lvgl/src/core/lv_obj_draw.c **** 
 1480              		.loc 1 252 16 is_stmt 0 view .LVU516
 1481 0046 237A     		ldrb	r3, [r4, #8]	@ zero_extendqisi2
 252:Middlewares/lvgl/src/core/lv_obj_draw.c **** 
 1482              		.loc 1 252 7 view .LVU517
 1483 0048 022B     		cmp	r3, #2
 1484 004a E4D9     		bls	.L39
 254:Middlewares/lvgl/src/core/lv_obj_draw.c **** 
 1485              		.loc 1 254 5 is_stmt 1 view .LVU518
 1486              	.LVL139:
 1487              	.LBB250:
 1488              	.LBI250:
 481:Middlewares/lvgl/src/core/lv_obj_style_gen.h **** {
 1489              		.loc 2 481 26 view .LVU519
 1490              	.LBB251:
 483:Middlewares/lvgl/src/core/lv_obj_style_gen.h ****     return v.color;
 1491              		.loc 2 483 5 view .LVU520
 483:Middlewares/lvgl/src/core/lv_obj_style_gen.h ****     return v.color;
 1492              		.loc 2 483 26 is_stmt 0 view .LVU521
 1493 004c 4D22     		movs	r2, #77
 1494 004e 3146     		mov	r1, r6
 1495 0050 2846     		mov	r0, r5
ARM GAS  /tmp/cckMVbUO.s 			page 50


 1496 0052 FFF7FEFF 		bl	lv_obj_get_style_prop
 1497              	.LVL140:
 484:Middlewares/lvgl/src/core/lv_obj_style_gen.h **** }
 1498              		.loc 2 484 5 is_stmt 1 view .LVU522
 484:Middlewares/lvgl/src/core/lv_obj_style_gen.h **** }
 1499              		.loc 2 484 5 is_stmt 0 view .LVU523
 1500              	.LBE251:
 1501              	.LBE250:
 254:Middlewares/lvgl/src/core/lv_obj_draw.c **** 
 1502              		.loc 1 254 23 view .LVU524
 1503 0056 2080     		strh	r0, [r4]	@ movhi
 256:Middlewares/lvgl/src/core/lv_obj_draw.c ****     if(draw_dsc->dash_width) {
 1504              		.loc 1 256 5 is_stmt 1 view .LVU525
 1505              	.LVL141:
 1506              	.LBB252:
 1507              	.LBI252:
 463:Middlewares/lvgl/src/core/lv_obj_style_gen.h **** {
 1508              		.loc 2 463 26 view .LVU526
 1509              	.LBB253:
 465:Middlewares/lvgl/src/core/lv_obj_style_gen.h ****     return (lv_coord_t)v.num;
 1510              		.loc 2 465 5 view .LVU527
 465:Middlewares/lvgl/src/core/lv_obj_style_gen.h ****     return (lv_coord_t)v.num;
 1511              		.loc 2 465 26 is_stmt 0 view .LVU528
 1512 0058 4A22     		movs	r2, #74
 1513 005a 3146     		mov	r1, r6
 1514 005c 2846     		mov	r0, r5
 1515 005e FFF7FEFF 		bl	lv_obj_get_style_prop
 1516              	.LVL142:
 466:Middlewares/lvgl/src/core/lv_obj_style_gen.h **** }
 1517              		.loc 2 466 5 is_stmt 1 view .LVU529
 466:Middlewares/lvgl/src/core/lv_obj_style_gen.h **** }
 1518              		.loc 2 466 12 is_stmt 0 view .LVU530
 1519 0062 00B2     		sxth	r0, r0
 1520              	.LVL143:
 466:Middlewares/lvgl/src/core/lv_obj_style_gen.h **** }
 1521              		.loc 2 466 12 view .LVU531
 1522              	.LBE253:
 1523              	.LBE252:
 256:Middlewares/lvgl/src/core/lv_obj_draw.c ****     if(draw_dsc->dash_width) {
 1524              		.loc 1 256 26 view .LVU532
 1525 0064 A080     		strh	r0, [r4, #4]	@ movhi
 257:Middlewares/lvgl/src/core/lv_obj_draw.c ****         draw_dsc->dash_gap = lv_obj_get_style_line_dash_gap(obj, part);
 1526              		.loc 1 257 5 is_stmt 1 view .LVU533
 257:Middlewares/lvgl/src/core/lv_obj_draw.c ****         draw_dsc->dash_gap = lv_obj_get_style_line_dash_gap(obj, part);
 1527              		.loc 1 257 7 is_stmt 0 view .LVU534
 1528 0066 C0B9     		cbnz	r0, .L45
 1529              	.L42:
 261:Middlewares/lvgl/src/core/lv_obj_draw.c ****     draw_dsc->round_end = draw_dsc->round_start;
 1530              		.loc 1 261 5 is_stmt 1 view .LVU535
 1531              	.LVL144:
 1532              	.LBB254:
 1533              	.LBI254:
 475:Middlewares/lvgl/src/core/lv_obj_style_gen.h **** {
 1534              		.loc 2 475 26 view .LVU536
 1535              	.LBB255:
 477:Middlewares/lvgl/src/core/lv_obj_style_gen.h ****     return (lv_coord_t)v.num;
 1536              		.loc 2 477 5 view .LVU537
ARM GAS  /tmp/cckMVbUO.s 			page 51


 477:Middlewares/lvgl/src/core/lv_obj_style_gen.h ****     return (lv_coord_t)v.num;
 1537              		.loc 2 477 26 is_stmt 0 view .LVU538
 1538 0068 4C22     		movs	r2, #76
 1539 006a 3146     		mov	r1, r6
 1540 006c 2846     		mov	r0, r5
 1541 006e FFF7FEFF 		bl	lv_obj_get_style_prop
 1542              	.LVL145:
 478:Middlewares/lvgl/src/core/lv_obj_style_gen.h **** }
 1543              		.loc 2 478 5 is_stmt 1 view .LVU539
 478:Middlewares/lvgl/src/core/lv_obj_style_gen.h **** }
 1544              		.loc 2 478 5 is_stmt 0 view .LVU540
 1545              	.LBE255:
 1546              	.LBE254:
 261:Middlewares/lvgl/src/core/lv_obj_draw.c ****     draw_dsc->round_end = draw_dsc->round_start;
 1547              		.loc 1 261 29 view .LVU541
 1548 0072 00F00100 		and	r0, r0, #1
 261:Middlewares/lvgl/src/core/lv_obj_draw.c ****     draw_dsc->round_end = draw_dsc->round_start;
 1549              		.loc 1 261 27 view .LVU542
 1550 0076 637A     		ldrb	r3, [r4, #9]	@ zero_extendqisi2
 1551 0078 60F38203 		bfi	r3, r0, #2, #1
 1552 007c 6372     		strb	r3, [r4, #9]
 262:Middlewares/lvgl/src/core/lv_obj_draw.c **** 
 1553              		.loc 1 262 5 is_stmt 1 view .LVU543
 262:Middlewares/lvgl/src/core/lv_obj_draw.c **** 
 1554              		.loc 1 262 25 is_stmt 0 view .LVU544
 1555 007e DBB2     		uxtb	r3, r3
 1556 0080 60F3C303 		bfi	r3, r0, #3, #1
 1557 0084 6372     		strb	r3, [r4, #9]
 265:Middlewares/lvgl/src/core/lv_obj_draw.c **** #endif
 1558              		.loc 1 265 5 is_stmt 1 view .LVU545
 1559              	.LVL146:
 1560              	.LBB256:
 1561              	.LBI256:
 175:Middlewares/lvgl/src/core/lv_obj_style_gen.h **** {
 1562              		.loc 2 175 31 view .LVU546
 1563              	.LBB257:
 177:Middlewares/lvgl/src/core/lv_obj_style_gen.h ****     return (lv_blend_mode_t)v.num;
 1564              		.loc 2 177 5 view .LVU547
 177:Middlewares/lvgl/src/core/lv_obj_style_gen.h ****     return (lv_blend_mode_t)v.num;
 1565              		.loc 2 177 26 is_stmt 0 view .LVU548
 1566 0086 6822     		movs	r2, #104
 1567 0088 3146     		mov	r1, r6
 1568 008a 2846     		mov	r0, r5
 1569 008c FFF7FEFF 		bl	lv_obj_get_style_prop
 1570              	.LVL147:
 178:Middlewares/lvgl/src/core/lv_obj_style_gen.h **** }
 1571              		.loc 2 178 5 is_stmt 1 view .LVU549
 178:Middlewares/lvgl/src/core/lv_obj_style_gen.h **** }
 1572              		.loc 2 178 5 is_stmt 0 view .LVU550
 1573              	.LBE257:
 1574              	.LBE256:
 265:Middlewares/lvgl/src/core/lv_obj_draw.c **** #endif
 1575              		.loc 1 265 26 view .LVU551
 1576 0090 637A     		ldrb	r3, [r4, #9]	@ zero_extendqisi2
 1577 0092 60F30103 		bfi	r3, r0, #0, #2
 1578 0096 6372     		strb	r3, [r4, #9]
 1579 0098 BDE7     		b	.L39
ARM GAS  /tmp/cckMVbUO.s 			page 52


 1580              	.L45:
 258:Middlewares/lvgl/src/core/lv_obj_draw.c ****     }
 1581              		.loc 1 258 9 is_stmt 1 view .LVU552
 1582              	.LVL148:
 1583              	.LBB258:
 1584              	.LBI258:
 469:Middlewares/lvgl/src/core/lv_obj_style_gen.h **** {
 1585              		.loc 2 469 26 view .LVU553
 1586              	.LBB259:
 471:Middlewares/lvgl/src/core/lv_obj_style_gen.h ****     return (lv_coord_t)v.num;
 1587              		.loc 2 471 5 view .LVU554
 471:Middlewares/lvgl/src/core/lv_obj_style_gen.h ****     return (lv_coord_t)v.num;
 1588              		.loc 2 471 26 is_stmt 0 view .LVU555
 1589 009a 4B22     		movs	r2, #75
 1590 009c 3146     		mov	r1, r6
 1591 009e 2846     		mov	r0, r5
 1592 00a0 FFF7FEFF 		bl	lv_obj_get_style_prop
 1593              	.LVL149:
 472:Middlewares/lvgl/src/core/lv_obj_style_gen.h **** }
 1594              		.loc 2 472 5 is_stmt 1 view .LVU556
 472:Middlewares/lvgl/src/core/lv_obj_style_gen.h **** }
 1595              		.loc 2 472 5 is_stmt 0 view .LVU557
 1596              	.LBE259:
 1597              	.LBE258:
 258:Middlewares/lvgl/src/core/lv_obj_draw.c ****     }
 1598              		.loc 1 258 28 view .LVU558
 1599 00a4 E080     		strh	r0, [r4, #6]	@ movhi
 1600 00a6 DFE7     		b	.L42
 1601              		.cfi_endproc
 1602              	.LFE156:
 1604              		.section	.text.lv_obj_init_draw_arc_dsc,"ax",%progbits
 1605              		.align	1
 1606              		.global	lv_obj_init_draw_arc_dsc
 1607              		.syntax unified
 1608              		.thumb
 1609              		.thumb_func
 1611              	lv_obj_init_draw_arc_dsc:
 1612              	.LVL150:
 1613              	.LFB157:
 268:Middlewares/lvgl/src/core/lv_obj_draw.c **** 
 269:Middlewares/lvgl/src/core/lv_obj_draw.c **** void lv_obj_init_draw_arc_dsc(lv_obj_t * obj, uint32_t part, lv_draw_arc_dsc_t * draw_dsc)
 270:Middlewares/lvgl/src/core/lv_obj_draw.c **** {
 1614              		.loc 1 270 1 is_stmt 1 view -0
 1615              		.cfi_startproc
 1616              		@ args = 0, pretend = 0, frame = 0
 1617              		@ frame_needed = 0, uses_anonymous_args = 0
 1618              		.loc 1 270 1 is_stmt 0 view .LVU560
 1619 0000 70B5     		push	{r4, r5, r6, lr}
 1620              	.LCFI4:
 1621              		.cfi_def_cfa_offset 16
 1622              		.cfi_offset 4, -16
 1623              		.cfi_offset 5, -12
 1624              		.cfi_offset 6, -8
 1625              		.cfi_offset 14, -4
 1626 0002 0546     		mov	r5, r0
 1627 0004 0E46     		mov	r6, r1
 1628 0006 1446     		mov	r4, r2
ARM GAS  /tmp/cckMVbUO.s 			page 53


 271:Middlewares/lvgl/src/core/lv_obj_draw.c ****     draw_dsc->width = lv_obj_get_style_arc_width(obj, part);
 1629              		.loc 1 271 5 is_stmt 1 view .LVU561
 1630              	.LVL151:
 1631              	.LBB260:
 1632              	.LBI260:
 497:Middlewares/lvgl/src/core/lv_obj_style_gen.h **** }
 498:Middlewares/lvgl/src/core/lv_obj_style_gen.h **** 
 499:Middlewares/lvgl/src/core/lv_obj_style_gen.h **** static inline lv_coord_t lv_obj_get_style_arc_width(const struct _lv_obj_t * obj, uint32_t part)
 1633              		.loc 2 499 26 view .LVU562
 1634              	.LBB261:
 500:Middlewares/lvgl/src/core/lv_obj_style_gen.h **** {
 501:Middlewares/lvgl/src/core/lv_obj_style_gen.h ****     lv_style_value_t v = lv_obj_get_style_prop(obj, part, LV_STYLE_ARC_WIDTH);
 1635              		.loc 2 501 5 view .LVU563
 1636              		.loc 2 501 26 is_stmt 0 view .LVU564
 1637 0008 4FF40562 		mov	r2, #2128
 1638              	.LVL152:
 1639              		.loc 2 501 26 view .LVU565
 1640 000c FFF7FEFF 		bl	lv_obj_get_style_prop
 1641              	.LVL153:
 502:Middlewares/lvgl/src/core/lv_obj_style_gen.h ****     return (lv_coord_t)v.num;
 1642              		.loc 2 502 5 is_stmt 1 view .LVU566
 1643              		.loc 2 502 12 is_stmt 0 view .LVU567
 1644 0010 00B2     		sxth	r0, r0
 1645              	.LVL154:
 1646              		.loc 2 502 12 view .LVU568
 1647              	.LBE261:
 1648              	.LBE260:
 1649              		.loc 1 271 21 view .LVU569
 1650 0012 6080     		strh	r0, [r4, #2]	@ movhi
 272:Middlewares/lvgl/src/core/lv_obj_draw.c ****     if(draw_dsc->width == 0) return;
 1651              		.loc 1 272 5 is_stmt 1 view .LVU570
 1652              		.loc 1 272 7 is_stmt 0 view .LVU571
 1653 0014 00B9     		cbnz	r0, .L50
 1654              	.L46:
 273:Middlewares/lvgl/src/core/lv_obj_draw.c **** 
 274:Middlewares/lvgl/src/core/lv_obj_draw.c ****     draw_dsc->opa = lv_obj_get_style_arc_opa(obj, part);
 275:Middlewares/lvgl/src/core/lv_obj_draw.c ****     if(draw_dsc->opa <= LV_OPA_MIN)  return;
 276:Middlewares/lvgl/src/core/lv_obj_draw.c **** 
 277:Middlewares/lvgl/src/core/lv_obj_draw.c ****     lv_opa_t opa = lv_obj_get_style_opa(obj, part);
 278:Middlewares/lvgl/src/core/lv_obj_draw.c ****     if(opa < LV_OPA_MAX) {
 279:Middlewares/lvgl/src/core/lv_obj_draw.c ****         draw_dsc->opa = (uint16_t)((uint16_t)draw_dsc->opa * opa) >> 8;
 280:Middlewares/lvgl/src/core/lv_obj_draw.c ****     }
 281:Middlewares/lvgl/src/core/lv_obj_draw.c ****     if(draw_dsc->opa <= LV_OPA_MIN)  return;
 282:Middlewares/lvgl/src/core/lv_obj_draw.c **** 
 283:Middlewares/lvgl/src/core/lv_obj_draw.c ****     draw_dsc->color = lv_obj_get_style_arc_color(obj, part);
 284:Middlewares/lvgl/src/core/lv_obj_draw.c ****     draw_dsc->img_src = lv_obj_get_style_arc_img_src(obj, part);
 285:Middlewares/lvgl/src/core/lv_obj_draw.c **** 
 286:Middlewares/lvgl/src/core/lv_obj_draw.c ****     draw_dsc->rounded = lv_obj_get_style_arc_rounded(obj, part);
 287:Middlewares/lvgl/src/core/lv_obj_draw.c **** 
 288:Middlewares/lvgl/src/core/lv_obj_draw.c **** #if LV_DRAW_COMPLEX
 289:Middlewares/lvgl/src/core/lv_obj_draw.c ****     draw_dsc->blend_mode = lv_obj_get_style_blend_mode(obj, part);
 290:Middlewares/lvgl/src/core/lv_obj_draw.c **** #endif
 291:Middlewares/lvgl/src/core/lv_obj_draw.c **** }
 1655              		.loc 1 291 1 view .LVU572
 1656 0016 70BD     		pop	{r4, r5, r6, pc}
 1657              	.LVL155:
 1658              	.L50:
ARM GAS  /tmp/cckMVbUO.s 			page 54


 274:Middlewares/lvgl/src/core/lv_obj_draw.c ****     if(draw_dsc->opa <= LV_OPA_MIN)  return;
 1659              		.loc 1 274 5 is_stmt 1 view .LVU573
 1660              	.LBB262:
 1661              	.LBI262:
 503:Middlewares/lvgl/src/core/lv_obj_style_gen.h **** }
 504:Middlewares/lvgl/src/core/lv_obj_style_gen.h **** 
 505:Middlewares/lvgl/src/core/lv_obj_style_gen.h **** static inline lv_coord_t lv_obj_get_style_arc_rounded(const struct _lv_obj_t * obj, uint32_t part)
 506:Middlewares/lvgl/src/core/lv_obj_style_gen.h **** {
 507:Middlewares/lvgl/src/core/lv_obj_style_gen.h ****     lv_style_value_t v = lv_obj_get_style_prop(obj, part, LV_STYLE_ARC_ROUNDED);
 508:Middlewares/lvgl/src/core/lv_obj_style_gen.h ****     return (lv_coord_t)v.num;
 509:Middlewares/lvgl/src/core/lv_obj_style_gen.h **** }
 510:Middlewares/lvgl/src/core/lv_obj_style_gen.h **** 
 511:Middlewares/lvgl/src/core/lv_obj_style_gen.h **** static inline lv_color_t lv_obj_get_style_arc_color(const struct _lv_obj_t * obj, uint32_t part)
 512:Middlewares/lvgl/src/core/lv_obj_style_gen.h **** {
 513:Middlewares/lvgl/src/core/lv_obj_style_gen.h ****     lv_style_value_t v = lv_obj_get_style_prop(obj, part, LV_STYLE_ARC_COLOR);
 514:Middlewares/lvgl/src/core/lv_obj_style_gen.h ****     return v.color;
 515:Middlewares/lvgl/src/core/lv_obj_style_gen.h **** }
 516:Middlewares/lvgl/src/core/lv_obj_style_gen.h **** 
 517:Middlewares/lvgl/src/core/lv_obj_style_gen.h **** static inline lv_color_t lv_obj_get_style_arc_color_filtered(const struct _lv_obj_t * obj, uint32_t
 518:Middlewares/lvgl/src/core/lv_obj_style_gen.h **** {
 519:Middlewares/lvgl/src/core/lv_obj_style_gen.h ****     lv_style_value_t v = lv_obj_get_style_prop(obj, part, LV_STYLE_ARC_COLOR_FILTERED);
 520:Middlewares/lvgl/src/core/lv_obj_style_gen.h ****     return v.color;
 521:Middlewares/lvgl/src/core/lv_obj_style_gen.h **** }
 522:Middlewares/lvgl/src/core/lv_obj_style_gen.h **** 
 523:Middlewares/lvgl/src/core/lv_obj_style_gen.h **** static inline lv_opa_t lv_obj_get_style_arc_opa(const struct _lv_obj_t * obj, uint32_t part)
 1662              		.loc 2 523 24 view .LVU574
 1663              	.LBB263:
 524:Middlewares/lvgl/src/core/lv_obj_style_gen.h **** {
 525:Middlewares/lvgl/src/core/lv_obj_style_gen.h ****     lv_style_value_t v = lv_obj_get_style_prop(obj, part, LV_STYLE_ARC_OPA);
 1664              		.loc 2 525 5 view .LVU575
 1665              		.loc 2 525 26 is_stmt 0 view .LVU576
 1666 0018 5322     		movs	r2, #83
 1667 001a 3146     		mov	r1, r6
 1668 001c 2846     		mov	r0, r5
 1669 001e FFF7FEFF 		bl	lv_obj_get_style_prop
 1670              	.LVL156:
 526:Middlewares/lvgl/src/core/lv_obj_style_gen.h ****     return (lv_opa_t)v.num;
 1671              		.loc 2 526 5 is_stmt 1 view .LVU577
 1672              		.loc 2 526 12 is_stmt 0 view .LVU578
 1673 0022 C3B2     		uxtb	r3, r0
 1674              	.LVL157:
 1675              		.loc 2 526 12 view .LVU579
 1676              	.LBE263:
 1677              	.LBE262:
 274:Middlewares/lvgl/src/core/lv_obj_draw.c ****     if(draw_dsc->opa <= LV_OPA_MIN)  return;
 1678              		.loc 1 274 19 view .LVU580
 1679 0024 2372     		strb	r3, [r4, #8]
 275:Middlewares/lvgl/src/core/lv_obj_draw.c **** 
 1680              		.loc 1 275 5 is_stmt 1 view .LVU581
 275:Middlewares/lvgl/src/core/lv_obj_draw.c **** 
 1681              		.loc 1 275 7 is_stmt 0 view .LVU582
 1682 0026 022B     		cmp	r3, #2
 1683 0028 F5D9     		bls	.L46
 277:Middlewares/lvgl/src/core/lv_obj_draw.c ****     if(opa < LV_OPA_MAX) {
 1684              		.loc 1 277 5 is_stmt 1 view .LVU583
 1685              	.LVL158:
 1686              	.LBB264:
ARM GAS  /tmp/cckMVbUO.s 			page 55


 1687              	.LBI264:
 139:Middlewares/lvgl/src/core/lv_obj_style_gen.h **** {
 1688              		.loc 2 139 24 view .LVU584
 1689              	.LBB265:
 141:Middlewares/lvgl/src/core/lv_obj_style_gen.h ****     return (lv_opa_t)v.num;
 1690              		.loc 2 141 5 view .LVU585
 141:Middlewares/lvgl/src/core/lv_obj_style_gen.h ****     return (lv_opa_t)v.num;
 1691              		.loc 2 141 26 is_stmt 0 view .LVU586
 1692 002a 40F26242 		movw	r2, #1122
 1693 002e 3146     		mov	r1, r6
 1694 0030 2846     		mov	r0, r5
 1695 0032 FFF7FEFF 		bl	lv_obj_get_style_prop
 1696              	.LVL159:
 142:Middlewares/lvgl/src/core/lv_obj_style_gen.h **** }
 1697              		.loc 2 142 5 is_stmt 1 view .LVU587
 142:Middlewares/lvgl/src/core/lv_obj_style_gen.h **** }
 1698              		.loc 2 142 12 is_stmt 0 view .LVU588
 1699 0036 C0B2     		uxtb	r0, r0
 1700              	.LVL160:
 142:Middlewares/lvgl/src/core/lv_obj_style_gen.h **** }
 1701              		.loc 2 142 12 view .LVU589
 1702              	.LBE265:
 1703              	.LBE264:
 278:Middlewares/lvgl/src/core/lv_obj_draw.c ****         draw_dsc->opa = (uint16_t)((uint16_t)draw_dsc->opa * opa) >> 8;
 1704              		.loc 1 278 5 is_stmt 1 view .LVU590
 278:Middlewares/lvgl/src/core/lv_obj_draw.c ****         draw_dsc->opa = (uint16_t)((uint16_t)draw_dsc->opa * opa) >> 8;
 1705              		.loc 1 278 7 is_stmt 0 view .LVU591
 1706 0038 FC28     		cmp	r0, #252
 1707 003a 04D8     		bhi	.L48
 279:Middlewares/lvgl/src/core/lv_obj_draw.c ****     }
 1708              		.loc 1 279 9 is_stmt 1 view .LVU592
 279:Middlewares/lvgl/src/core/lv_obj_draw.c ****     }
 1709              		.loc 1 279 54 is_stmt 0 view .LVU593
 1710 003c 237A     		ldrb	r3, [r4, #8]	@ zero_extendqisi2
 279:Middlewares/lvgl/src/core/lv_obj_draw.c ****     }
 1711              		.loc 1 279 25 view .LVU594
 1712 003e 03FB00F0 		mul	r0, r3, r0
 1713              	.LVL161:
 279:Middlewares/lvgl/src/core/lv_obj_draw.c ****     }
 1714              		.loc 1 279 23 view .LVU595
 1715 0042 000A     		lsrs	r0, r0, #8
 1716 0044 2072     		strb	r0, [r4, #8]
 1717              	.L48:
 281:Middlewares/lvgl/src/core/lv_obj_draw.c **** 
 1718              		.loc 1 281 5 is_stmt 1 view .LVU596
 281:Middlewares/lvgl/src/core/lv_obj_draw.c **** 
 1719              		.loc 1 281 16 is_stmt 0 view .LVU597
 1720 0046 237A     		ldrb	r3, [r4, #8]	@ zero_extendqisi2
 281:Middlewares/lvgl/src/core/lv_obj_draw.c **** 
 1721              		.loc 1 281 7 view .LVU598
 1722 0048 022B     		cmp	r3, #2
 1723 004a E4D9     		bls	.L46
 283:Middlewares/lvgl/src/core/lv_obj_draw.c ****     draw_dsc->img_src = lv_obj_get_style_arc_img_src(obj, part);
 1724              		.loc 1 283 5 is_stmt 1 view .LVU599
 1725              	.LVL162:
 1726              	.LBB266:
 1727              	.LBI266:
ARM GAS  /tmp/cckMVbUO.s 			page 56


 511:Middlewares/lvgl/src/core/lv_obj_style_gen.h **** {
 1728              		.loc 2 511 26 view .LVU600
 1729              	.LBB267:
 513:Middlewares/lvgl/src/core/lv_obj_style_gen.h ****     return v.color;
 1730              		.loc 2 513 5 view .LVU601
 513:Middlewares/lvgl/src/core/lv_obj_style_gen.h ****     return v.color;
 1731              		.loc 2 513 26 is_stmt 0 view .LVU602
 1732 004c 5222     		movs	r2, #82
 1733 004e 3146     		mov	r1, r6
 1734 0050 2846     		mov	r0, r5
 1735 0052 FFF7FEFF 		bl	lv_obj_get_style_prop
 1736              	.LVL163:
 514:Middlewares/lvgl/src/core/lv_obj_style_gen.h **** }
 1737              		.loc 2 514 5 is_stmt 1 view .LVU603
 514:Middlewares/lvgl/src/core/lv_obj_style_gen.h **** }
 1738              		.loc 2 514 5 is_stmt 0 view .LVU604
 1739              	.LBE267:
 1740              	.LBE266:
 283:Middlewares/lvgl/src/core/lv_obj_draw.c ****     draw_dsc->img_src = lv_obj_get_style_arc_img_src(obj, part);
 1741              		.loc 1 283 23 view .LVU605
 1742 0056 2080     		strh	r0, [r4]	@ movhi
 284:Middlewares/lvgl/src/core/lv_obj_draw.c **** 
 1743              		.loc 1 284 5 is_stmt 1 view .LVU606
 1744              	.LVL164:
 1745              	.LBB268:
 1746              	.LBI268:
 527:Middlewares/lvgl/src/core/lv_obj_style_gen.h **** }
 528:Middlewares/lvgl/src/core/lv_obj_style_gen.h **** 
 529:Middlewares/lvgl/src/core/lv_obj_style_gen.h **** static inline const void * lv_obj_get_style_arc_img_src(const struct _lv_obj_t * obj, uint32_t part
 1747              		.loc 2 529 28 view .LVU607
 1748              	.LBB269:
 530:Middlewares/lvgl/src/core/lv_obj_style_gen.h **** {
 531:Middlewares/lvgl/src/core/lv_obj_style_gen.h ****     lv_style_value_t v = lv_obj_get_style_prop(obj, part, LV_STYLE_ARC_IMG_SRC);
 1749              		.loc 2 531 5 view .LVU608
 1750              		.loc 2 531 26 is_stmt 0 view .LVU609
 1751 0058 5422     		movs	r2, #84
 1752 005a 3146     		mov	r1, r6
 1753 005c 2846     		mov	r0, r5
 1754 005e FFF7FEFF 		bl	lv_obj_get_style_prop
 1755              	.LVL165:
 532:Middlewares/lvgl/src/core/lv_obj_style_gen.h ****     return (const void *)v.ptr;
 1756              		.loc 2 532 5 is_stmt 1 view .LVU610
 1757              		.loc 2 532 5 is_stmt 0 view .LVU611
 1758              	.LBE269:
 1759              	.LBE268:
 284:Middlewares/lvgl/src/core/lv_obj_draw.c **** 
 1760              		.loc 1 284 23 view .LVU612
 1761 0062 6060     		str	r0, [r4, #4]
 286:Middlewares/lvgl/src/core/lv_obj_draw.c **** 
 1762              		.loc 1 286 5 is_stmt 1 view .LVU613
 1763              	.LVL166:
 1764              	.LBB270:
 1765              	.LBI270:
 505:Middlewares/lvgl/src/core/lv_obj_style_gen.h **** {
 1766              		.loc 2 505 26 view .LVU614
 1767              	.LBB271:
 507:Middlewares/lvgl/src/core/lv_obj_style_gen.h ****     return (lv_coord_t)v.num;
ARM GAS  /tmp/cckMVbUO.s 			page 57


 1768              		.loc 2 507 5 view .LVU615
 507:Middlewares/lvgl/src/core/lv_obj_style_gen.h ****     return (lv_coord_t)v.num;
 1769              		.loc 2 507 26 is_stmt 0 view .LVU616
 1770 0064 5122     		movs	r2, #81
 1771 0066 3146     		mov	r1, r6
 1772 0068 2846     		mov	r0, r5
 1773 006a FFF7FEFF 		bl	lv_obj_get_style_prop
 1774              	.LVL167:
 508:Middlewares/lvgl/src/core/lv_obj_style_gen.h **** }
 1775              		.loc 2 508 5 is_stmt 1 view .LVU617
 508:Middlewares/lvgl/src/core/lv_obj_style_gen.h **** }
 1776              		.loc 2 508 5 is_stmt 0 view .LVU618
 1777              	.LBE271:
 1778              	.LBE270:
 286:Middlewares/lvgl/src/core/lv_obj_draw.c **** 
 1779              		.loc 1 286 23 view .LVU619
 1780 006e 637A     		ldrb	r3, [r4, #9]	@ zero_extendqisi2
 1781 0070 60F38203 		bfi	r3, r0, #2, #1
 1782 0074 6372     		strb	r3, [r4, #9]
 289:Middlewares/lvgl/src/core/lv_obj_draw.c **** #endif
 1783              		.loc 1 289 5 is_stmt 1 view .LVU620
 1784              	.LVL168:
 1785              	.LBB272:
 1786              	.LBI272:
 175:Middlewares/lvgl/src/core/lv_obj_style_gen.h **** {
 1787              		.loc 2 175 31 view .LVU621
 1788              	.LBB273:
 177:Middlewares/lvgl/src/core/lv_obj_style_gen.h ****     return (lv_blend_mode_t)v.num;
 1789              		.loc 2 177 5 view .LVU622
 177:Middlewares/lvgl/src/core/lv_obj_style_gen.h ****     return (lv_blend_mode_t)v.num;
 1790              		.loc 2 177 26 is_stmt 0 view .LVU623
 1791 0076 6822     		movs	r2, #104
 1792 0078 3146     		mov	r1, r6
 1793 007a 2846     		mov	r0, r5
 1794 007c FFF7FEFF 		bl	lv_obj_get_style_prop
 1795              	.LVL169:
 178:Middlewares/lvgl/src/core/lv_obj_style_gen.h **** }
 1796              		.loc 2 178 5 is_stmt 1 view .LVU624
 178:Middlewares/lvgl/src/core/lv_obj_style_gen.h **** }
 1797              		.loc 2 178 5 is_stmt 0 view .LVU625
 1798              	.LBE273:
 1799              	.LBE272:
 289:Middlewares/lvgl/src/core/lv_obj_draw.c **** #endif
 1800              		.loc 1 289 26 view .LVU626
 1801 0080 637A     		ldrb	r3, [r4, #9]	@ zero_extendqisi2
 1802 0082 60F30103 		bfi	r3, r0, #0, #2
 1803 0086 6372     		strb	r3, [r4, #9]
 1804 0088 C5E7     		b	.L46
 1805              		.cfi_endproc
 1806              	.LFE157:
 1808              		.section	.text.lv_obj_calculate_ext_draw_size,"ax",%progbits
 1809              		.align	1
 1810              		.global	lv_obj_calculate_ext_draw_size
 1811              		.syntax unified
 1812              		.thumb
 1813              		.thumb_func
 1815              	lv_obj_calculate_ext_draw_size:
ARM GAS  /tmp/cckMVbUO.s 			page 58


 1816              	.LVL170:
 1817              	.LFB158:
 292:Middlewares/lvgl/src/core/lv_obj_draw.c **** 
 293:Middlewares/lvgl/src/core/lv_obj_draw.c **** lv_coord_t lv_obj_calculate_ext_draw_size(lv_obj_t * obj, uint32_t part)
 294:Middlewares/lvgl/src/core/lv_obj_draw.c **** {
 1818              		.loc 1 294 1 is_stmt 1 view -0
 1819              		.cfi_startproc
 1820              		@ args = 0, pretend = 0, frame = 0
 1821              		@ frame_needed = 0, uses_anonymous_args = 0
 1822              		.loc 1 294 1 is_stmt 0 view .LVU628
 1823 0000 F8B5     		push	{r3, r4, r5, r6, r7, lr}
 1824              	.LCFI5:
 1825              		.cfi_def_cfa_offset 24
 1826              		.cfi_offset 3, -24
 1827              		.cfi_offset 4, -20
 1828              		.cfi_offset 5, -16
 1829              		.cfi_offset 6, -12
 1830              		.cfi_offset 7, -8
 1831              		.cfi_offset 14, -4
 1832 0002 0546     		mov	r5, r0
 1833 0004 0E46     		mov	r6, r1
 295:Middlewares/lvgl/src/core/lv_obj_draw.c ****     lv_coord_t s = 0;
 1834              		.loc 1 295 5 is_stmt 1 view .LVU629
 1835              	.LVL171:
 296:Middlewares/lvgl/src/core/lv_obj_draw.c **** 
 297:Middlewares/lvgl/src/core/lv_obj_draw.c ****     lv_coord_t sh_width = lv_obj_get_style_shadow_width(obj, part);
 1836              		.loc 1 297 5 view .LVU630
 1837              	.LBB274:
 1838              	.LBI274:
 415:Middlewares/lvgl/src/core/lv_obj_style_gen.h **** {
 1839              		.loc 2 415 26 view .LVU631
 1840              	.LBB275:
 417:Middlewares/lvgl/src/core/lv_obj_style_gen.h ****     return (lv_coord_t)v.num;
 1841              		.loc 2 417 5 view .LVU632
 417:Middlewares/lvgl/src/core/lv_obj_style_gen.h ****     return (lv_coord_t)v.num;
 1842              		.loc 2 417 26 is_stmt 0 view .LVU633
 1843 0006 4FF40462 		mov	r2, #2112
 1844 000a FFF7FEFF 		bl	lv_obj_get_style_prop
 1845              	.LVL172:
 418:Middlewares/lvgl/src/core/lv_obj_style_gen.h **** }
 1846              		.loc 2 418 5 is_stmt 1 view .LVU634
 418:Middlewares/lvgl/src/core/lv_obj_style_gen.h **** }
 1847              		.loc 2 418 12 is_stmt 0 view .LVU635
 1848 000e 04B2     		sxth	r4, r0
 1849              	.LVL173:
 418:Middlewares/lvgl/src/core/lv_obj_style_gen.h **** }
 1850              		.loc 2 418 12 view .LVU636
 1851              	.LBE275:
 1852              	.LBE274:
 298:Middlewares/lvgl/src/core/lv_obj_draw.c ****     if(sh_width) {
 1853              		.loc 1 298 5 is_stmt 1 view .LVU637
 1854              		.loc 1 298 7 is_stmt 0 view .LVU638
 1855 0010 FCB9     		cbnz	r4, .L58
 1856              	.LVL174:
 1857              	.L52:
 299:Middlewares/lvgl/src/core/lv_obj_draw.c ****         lv_opa_t sh_opa = lv_obj_get_style_shadow_opa(obj, part);
 300:Middlewares/lvgl/src/core/lv_obj_draw.c ****         if(sh_opa > LV_OPA_MIN) {
ARM GAS  /tmp/cckMVbUO.s 			page 59


 301:Middlewares/lvgl/src/core/lv_obj_draw.c ****             sh_width = sh_width / 2 + 1;    /*The blur adds only half width*/
 302:Middlewares/lvgl/src/core/lv_obj_draw.c ****             sh_width += lv_obj_get_style_shadow_spread(obj, part);
 303:Middlewares/lvgl/src/core/lv_obj_draw.c ****             lv_coord_t sh_ofs_x = lv_obj_get_style_shadow_ofs_x(obj, part);
 304:Middlewares/lvgl/src/core/lv_obj_draw.c ****             lv_coord_t sh_ofs_y = lv_obj_get_style_shadow_ofs_y(obj, part);
 305:Middlewares/lvgl/src/core/lv_obj_draw.c ****             sh_width += LV_MAX(LV_ABS(sh_ofs_x), LV_ABS(sh_ofs_y));
 306:Middlewares/lvgl/src/core/lv_obj_draw.c ****             s = LV_MAX(s, sh_width);
 307:Middlewares/lvgl/src/core/lv_obj_draw.c ****         }
 308:Middlewares/lvgl/src/core/lv_obj_draw.c ****     }
 309:Middlewares/lvgl/src/core/lv_obj_draw.c **** 
 310:Middlewares/lvgl/src/core/lv_obj_draw.c ****     lv_coord_t outline_width = lv_obj_get_style_outline_width(obj, part);
 1858              		.loc 1 310 5 is_stmt 1 view .LVU639
 1859              	.LBB276:
 1860              	.LBI276:
 385:Middlewares/lvgl/src/core/lv_obj_style_gen.h **** {
 1861              		.loc 2 385 26 view .LVU640
 1862              	.LBB277:
 387:Middlewares/lvgl/src/core/lv_obj_style_gen.h ****     return (lv_coord_t)v.num;
 1863              		.loc 2 387 5 view .LVU641
 387:Middlewares/lvgl/src/core/lv_obj_style_gen.h ****     return (lv_coord_t)v.num;
 1864              		.loc 2 387 26 is_stmt 0 view .LVU642
 1865 0012 40F63A02 		movw	r2, #2106
 1866 0016 3146     		mov	r1, r6
 1867 0018 2846     		mov	r0, r5
 1868 001a FFF7FEFF 		bl	lv_obj_get_style_prop
 1869              	.LVL175:
 388:Middlewares/lvgl/src/core/lv_obj_style_gen.h **** }
 1870              		.loc 2 388 5 is_stmt 1 view .LVU643
 388:Middlewares/lvgl/src/core/lv_obj_style_gen.h **** }
 1871              		.loc 2 388 12 is_stmt 0 view .LVU644
 1872 001e 07B2     		sxth	r7, r0
 1873              	.LVL176:
 388:Middlewares/lvgl/src/core/lv_obj_style_gen.h **** }
 1874              		.loc 2 388 12 view .LVU645
 1875              	.LBE277:
 1876              	.LBE276:
 311:Middlewares/lvgl/src/core/lv_obj_draw.c ****     if(outline_width) {
 1877              		.loc 1 311 5 is_stmt 1 view .LVU646
 1878              		.loc 1 311 7 is_stmt 0 view .LVU647
 1879 0020 002F     		cmp	r7, #0
 1880 0022 50D1     		bne	.L59
 1881              	.LVL177:
 1882              	.L54:
 312:Middlewares/lvgl/src/core/lv_obj_draw.c ****         lv_opa_t outline_opa = lv_obj_get_style_outline_opa(obj, part);
 313:Middlewares/lvgl/src/core/lv_obj_draw.c ****         if(outline_opa > LV_OPA_MIN) {
 314:Middlewares/lvgl/src/core/lv_obj_draw.c ****             lv_coord_t outline_pad = lv_obj_get_style_outline_pad(obj, part);
 315:Middlewares/lvgl/src/core/lv_obj_draw.c ****             s = LV_MAX(s, outline_pad + outline_width);
 316:Middlewares/lvgl/src/core/lv_obj_draw.c ****         }
 317:Middlewares/lvgl/src/core/lv_obj_draw.c ****     }
 318:Middlewares/lvgl/src/core/lv_obj_draw.c **** 
 319:Middlewares/lvgl/src/core/lv_obj_draw.c ****     lv_coord_t w = lv_obj_get_style_transform_width(obj, part);
 1883              		.loc 1 319 5 is_stmt 1 view .LVU648
 1884              	.LBB278:
 1885              	.LBI278:
  55:Middlewares/lvgl/src/core/lv_obj_style_gen.h **** {
 1886              		.loc 2 55 26 view .LVU649
 1887              	.LBB279:
  57:Middlewares/lvgl/src/core/lv_obj_style_gen.h ****     return (lv_coord_t)v.num;
ARM GAS  /tmp/cckMVbUO.s 			page 60


 1888              		.loc 2 57 5 view .LVU650
  57:Middlewares/lvgl/src/core/lv_obj_style_gen.h ****     return (lv_coord_t)v.num;
 1889              		.loc 2 57 26 is_stmt 0 view .LVU651
 1890 0024 40F60A02 		movw	r2, #2058
 1891 0028 3146     		mov	r1, r6
 1892 002a 2846     		mov	r0, r5
 1893 002c FFF7FEFF 		bl	lv_obj_get_style_prop
 1894              	.LVL178:
  58:Middlewares/lvgl/src/core/lv_obj_style_gen.h **** }
 1895              		.loc 2 58 5 is_stmt 1 view .LVU652
  58:Middlewares/lvgl/src/core/lv_obj_style_gen.h **** }
 1896              		.loc 2 58 12 is_stmt 0 view .LVU653
 1897 0030 07B2     		sxth	r7, r0
 1898              	.LVL179:
  58:Middlewares/lvgl/src/core/lv_obj_style_gen.h **** }
 1899              		.loc 2 58 12 view .LVU654
 1900              	.LBE279:
 1901              	.LBE278:
 320:Middlewares/lvgl/src/core/lv_obj_draw.c ****     lv_coord_t h = lv_obj_get_style_transform_height(obj, part);
 1902              		.loc 1 320 5 is_stmt 1 view .LVU655
 1903              	.LBB280:
 1904              	.LBI280:
  61:Middlewares/lvgl/src/core/lv_obj_style_gen.h **** {
 1905              		.loc 2 61 26 view .LVU656
 1906              	.LBB281:
  63:Middlewares/lvgl/src/core/lv_obj_style_gen.h ****     return (lv_coord_t)v.num;
 1907              		.loc 2 63 5 view .LVU657
  63:Middlewares/lvgl/src/core/lv_obj_style_gen.h ****     return (lv_coord_t)v.num;
 1908              		.loc 2 63 26 is_stmt 0 view .LVU658
 1909 0032 40F60B02 		movw	r2, #2059
 1910 0036 3146     		mov	r1, r6
 1911 0038 2846     		mov	r0, r5
 1912 003a FFF7FEFF 		bl	lv_obj_get_style_prop
 1913              	.LVL180:
  64:Middlewares/lvgl/src/core/lv_obj_style_gen.h **** }
 1914              		.loc 2 64 5 is_stmt 1 view .LVU659
  64:Middlewares/lvgl/src/core/lv_obj_style_gen.h **** }
 1915              		.loc 2 64 12 is_stmt 0 view .LVU660
 1916 003e 00B2     		sxth	r0, r0
 1917              	.LVL181:
  64:Middlewares/lvgl/src/core/lv_obj_style_gen.h **** }
 1918              		.loc 2 64 12 view .LVU661
 1919              	.LBE281:
 1920              	.LBE280:
 321:Middlewares/lvgl/src/core/lv_obj_draw.c ****     lv_coord_t wh = LV_MAX(w, h);
 1921              		.loc 1 321 5 is_stmt 1 view .LVU662
 1922              		.loc 1 321 16 is_stmt 0 view .LVU663
 1923 0040 B842     		cmp	r0, r7
 1924 0042 B8BF     		it	lt
 1925 0044 3846     		movlt	r0, r7
 1926              	.LVL182:
 322:Middlewares/lvgl/src/core/lv_obj_draw.c ****     if(wh > 0) s += wh;
 1927              		.loc 1 322 5 is_stmt 1 view .LVU664
 1928              		.loc 1 322 7 is_stmt 0 view .LVU665
 1929 0046 0028     		cmp	r0, #0
 1930 0048 01DD     		ble	.L55
 1931              		.loc 1 322 16 is_stmt 1 discriminator 1 view .LVU666
ARM GAS  /tmp/cckMVbUO.s 			page 61


 1932              		.loc 1 322 18 is_stmt 0 discriminator 1 view .LVU667
 1933 004a 0444     		add	r4, r4, r0
 1934              	.LVL183:
 1935              		.loc 1 322 18 discriminator 1 view .LVU668
 1936 004c 24B2     		sxth	r4, r4
 1937              	.LVL184:
 1938              	.L55:
 323:Middlewares/lvgl/src/core/lv_obj_draw.c **** 
 324:Middlewares/lvgl/src/core/lv_obj_draw.c ****     return s;
 1939              		.loc 1 324 5 is_stmt 1 view .LVU669
 325:Middlewares/lvgl/src/core/lv_obj_draw.c **** }
 1940              		.loc 1 325 1 is_stmt 0 view .LVU670
 1941 004e 2046     		mov	r0, r4
 1942              	.LVL185:
 1943              		.loc 1 325 1 view .LVU671
 1944 0050 F8BD     		pop	{r3, r4, r5, r6, r7, pc}
 1945              	.LVL186:
 1946              	.L58:
 1947              	.LBB282:
 299:Middlewares/lvgl/src/core/lv_obj_draw.c ****         if(sh_opa > LV_OPA_MIN) {
 1948              		.loc 1 299 9 is_stmt 1 view .LVU672
 1949              	.LBB283:
 1950              	.LBI283:
 451:Middlewares/lvgl/src/core/lv_obj_style_gen.h **** {
 1951              		.loc 2 451 24 view .LVU673
 1952              	.LBB284:
 453:Middlewares/lvgl/src/core/lv_obj_style_gen.h ****     return (lv_opa_t)v.num;
 1953              		.loc 2 453 5 view .LVU674
 453:Middlewares/lvgl/src/core/lv_obj_style_gen.h ****     return (lv_opa_t)v.num;
 1954              		.loc 2 453 26 is_stmt 0 view .LVU675
 1955 0052 40F64502 		movw	r2, #2117
 1956 0056 3146     		mov	r1, r6
 1957 0058 2846     		mov	r0, r5
 1958 005a FFF7FEFF 		bl	lv_obj_get_style_prop
 1959              	.LVL187:
 454:Middlewares/lvgl/src/core/lv_obj_style_gen.h **** }
 1960              		.loc 2 454 5 is_stmt 1 view .LVU676
 454:Middlewares/lvgl/src/core/lv_obj_style_gen.h **** }
 1961              		.loc 2 454 12 is_stmt 0 view .LVU677
 1962 005e C0B2     		uxtb	r0, r0
 1963              	.LVL188:
 454:Middlewares/lvgl/src/core/lv_obj_style_gen.h **** }
 1964              		.loc 2 454 12 view .LVU678
 1965              	.LBE284:
 1966              	.LBE283:
 300:Middlewares/lvgl/src/core/lv_obj_draw.c ****             sh_width = sh_width / 2 + 1;    /*The blur adds only half width*/
 1967              		.loc 1 300 9 is_stmt 1 view .LVU679
 300:Middlewares/lvgl/src/core/lv_obj_draw.c ****             sh_width = sh_width / 2 + 1;    /*The blur adds only half width*/
 1968              		.loc 1 300 11 is_stmt 0 view .LVU680
 1969 0060 0228     		cmp	r0, #2
 1970 0062 01D8     		bhi	.L60
 1971              	.LBE282:
 295:Middlewares/lvgl/src/core/lv_obj_draw.c **** 
 1972              		.loc 1 295 16 view .LVU681
 1973 0064 0024     		movs	r4, #0
 1974              	.LVL189:
 295:Middlewares/lvgl/src/core/lv_obj_draw.c **** 
ARM GAS  /tmp/cckMVbUO.s 			page 62


 1975              		.loc 1 295 16 view .LVU682
 1976 0066 D4E7     		b	.L52
 1977              	.LVL190:
 1978              	.L60:
 1979              	.LBB292:
 1980              	.LBB285:
 301:Middlewares/lvgl/src/core/lv_obj_draw.c ****             sh_width += lv_obj_get_style_shadow_spread(obj, part);
 1981              		.loc 1 301 13 is_stmt 1 view .LVU683
 301:Middlewares/lvgl/src/core/lv_obj_draw.c ****             sh_width += lv_obj_get_style_shadow_spread(obj, part);
 1982              		.loc 1 301 37 is_stmt 0 view .LVU684
 1983 0068 2346     		mov	r3, r4
 1984 006a 002C     		cmp	r4, #0
 1985 006c 29DB     		blt	.L61
 1986              	.L53:
 1987 006e 5C10     		asrs	r4, r3, #1
 1988              	.LVL191:
 301:Middlewares/lvgl/src/core/lv_obj_draw.c ****             sh_width += lv_obj_get_style_shadow_spread(obj, part);
 1989              		.loc 1 301 37 view .LVU685
 1990 0070 0134     		adds	r4, r4, #1
 1991 0072 A4B2     		uxth	r4, r4
 1992              	.LVL192:
 302:Middlewares/lvgl/src/core/lv_obj_draw.c ****             lv_coord_t sh_ofs_x = lv_obj_get_style_shadow_ofs_x(obj, part);
 1993              		.loc 1 302 13 is_stmt 1 view .LVU686
 1994              	.LBB286:
 1995              	.LBI286:
 433:Middlewares/lvgl/src/core/lv_obj_style_gen.h **** {
 1996              		.loc 2 433 26 view .LVU687
 1997              	.LBB287:
 435:Middlewares/lvgl/src/core/lv_obj_style_gen.h ****     return (lv_coord_t)v.num;
 1998              		.loc 2 435 5 view .LVU688
 435:Middlewares/lvgl/src/core/lv_obj_style_gen.h ****     return (lv_coord_t)v.num;
 1999              		.loc 2 435 26 is_stmt 0 view .LVU689
 2000 0074 40F64302 		movw	r2, #2115
 2001 0078 3146     		mov	r1, r6
 2002 007a 2846     		mov	r0, r5
 2003              	.LVL193:
 435:Middlewares/lvgl/src/core/lv_obj_style_gen.h ****     return (lv_coord_t)v.num;
 2004              		.loc 2 435 26 view .LVU690
 2005 007c FFF7FEFF 		bl	lv_obj_get_style_prop
 2006              	.LVL194:
 436:Middlewares/lvgl/src/core/lv_obj_style_gen.h **** }
 2007              		.loc 2 436 5 is_stmt 1 view .LVU691
 436:Middlewares/lvgl/src/core/lv_obj_style_gen.h **** }
 2008              		.loc 2 436 5 is_stmt 0 view .LVU692
 2009              	.LBE287:
 2010              	.LBE286:
 302:Middlewares/lvgl/src/core/lv_obj_draw.c ****             lv_coord_t sh_ofs_x = lv_obj_get_style_shadow_ofs_x(obj, part);
 2011              		.loc 1 302 22 view .LVU693
 2012 0080 14FA80F4 		uxtah	r4, r4, r0
 2013              	.LVL195:
 302:Middlewares/lvgl/src/core/lv_obj_draw.c ****             lv_coord_t sh_ofs_x = lv_obj_get_style_shadow_ofs_x(obj, part);
 2014              		.loc 1 302 22 view .LVU694
 2015 0084 A4B2     		uxth	r4, r4
 2016              	.LVL196:
 303:Middlewares/lvgl/src/core/lv_obj_draw.c ****             lv_coord_t sh_ofs_y = lv_obj_get_style_shadow_ofs_y(obj, part);
 2017              		.loc 1 303 13 is_stmt 1 view .LVU695
 2018              	.LBB288:
ARM GAS  /tmp/cckMVbUO.s 			page 63


 2019              	.LBI288:
 421:Middlewares/lvgl/src/core/lv_obj_style_gen.h **** {
 2020              		.loc 2 421 26 view .LVU696
 2021              	.LBB289:
 423:Middlewares/lvgl/src/core/lv_obj_style_gen.h ****     return (lv_coord_t)v.num;
 2022              		.loc 2 423 5 view .LVU697
 423:Middlewares/lvgl/src/core/lv_obj_style_gen.h ****     return (lv_coord_t)v.num;
 2023              		.loc 2 423 26 is_stmt 0 view .LVU698
 2024 0086 40F64102 		movw	r2, #2113
 2025 008a 3146     		mov	r1, r6
 2026 008c 2846     		mov	r0, r5
 2027 008e FFF7FEFF 		bl	lv_obj_get_style_prop
 2028              	.LVL197:
 424:Middlewares/lvgl/src/core/lv_obj_style_gen.h **** }
 2029              		.loc 2 424 5 is_stmt 1 view .LVU699
 424:Middlewares/lvgl/src/core/lv_obj_style_gen.h **** }
 2030              		.loc 2 424 12 is_stmt 0 view .LVU700
 2031 0092 07B2     		sxth	r7, r0
 2032              	.LVL198:
 424:Middlewares/lvgl/src/core/lv_obj_style_gen.h **** }
 2033              		.loc 2 424 12 view .LVU701
 2034              	.LBE289:
 2035              	.LBE288:
 304:Middlewares/lvgl/src/core/lv_obj_draw.c ****             sh_width += LV_MAX(LV_ABS(sh_ofs_x), LV_ABS(sh_ofs_y));
 2036              		.loc 1 304 13 is_stmt 1 view .LVU702
 2037              	.LBB290:
 2038              	.LBI290:
 427:Middlewares/lvgl/src/core/lv_obj_style_gen.h **** {
 2039              		.loc 2 427 26 view .LVU703
 2040              	.LBB291:
 429:Middlewares/lvgl/src/core/lv_obj_style_gen.h ****     return (lv_coord_t)v.num;
 2041              		.loc 2 429 5 view .LVU704
 429:Middlewares/lvgl/src/core/lv_obj_style_gen.h ****     return (lv_coord_t)v.num;
 2042              		.loc 2 429 26 is_stmt 0 view .LVU705
 2043 0094 40F64202 		movw	r2, #2114
 2044 0098 3146     		mov	r1, r6
 2045 009a 2846     		mov	r0, r5
 2046 009c FFF7FEFF 		bl	lv_obj_get_style_prop
 2047              	.LVL199:
 430:Middlewares/lvgl/src/core/lv_obj_style_gen.h **** }
 2048              		.loc 2 430 5 is_stmt 1 view .LVU706
 430:Middlewares/lvgl/src/core/lv_obj_style_gen.h **** }
 2049              		.loc 2 430 12 is_stmt 0 view .LVU707
 2050 00a0 03B2     		sxth	r3, r0
 2051              	.LVL200:
 430:Middlewares/lvgl/src/core/lv_obj_style_gen.h **** }
 2052              		.loc 2 430 12 view .LVU708
 2053              	.LBE291:
 2054              	.LBE290:
 305:Middlewares/lvgl/src/core/lv_obj_draw.c ****             s = LV_MAX(s, sh_width);
 2055              		.loc 1 305 13 is_stmt 1 view .LVU709
 305:Middlewares/lvgl/src/core/lv_obj_draw.c ****             s = LV_MAX(s, sh_width);
 2056              		.loc 1 305 25 is_stmt 0 view .LVU710
 2057 00a2 002B     		cmp	r3, #0
 2058 00a4 B8BF     		it	lt
 2059 00a6 5B42     		rsblt	r3, r3, #0
 2060              	.LVL201:
ARM GAS  /tmp/cckMVbUO.s 			page 64


 305:Middlewares/lvgl/src/core/lv_obj_draw.c ****             s = LV_MAX(s, sh_width);
 2061              		.loc 1 305 25 view .LVU711
 2062 00a8 9BB2     		uxth	r3, r3
 2063 00aa 002F     		cmp	r7, #0
 2064 00ac B8BF     		it	lt
 2065 00ae 7F42     		rsblt	r7, r7, #0
 2066              	.LVL202:
 305:Middlewares/lvgl/src/core/lv_obj_draw.c ****             s = LV_MAX(s, sh_width);
 2067              		.loc 1 305 25 view .LVU712
 2068 00b0 BFB2     		uxth	r7, r7
 305:Middlewares/lvgl/src/core/lv_obj_draw.c ****             s = LV_MAX(s, sh_width);
 2069              		.loc 1 305 22 view .LVU713
 2070 00b2 BB42     		cmp	r3, r7
 2071 00b4 2CBF     		ite	cs
 2072 00b6 E418     		addcs	r4, r4, r3
 2073 00b8 E419     		addcc	r4, r4, r7
 2074              	.LVL203:
 305:Middlewares/lvgl/src/core/lv_obj_draw.c ****             s = LV_MAX(s, sh_width);
 2075              		.loc 1 305 22 view .LVU714
 2076 00ba 24B2     		sxth	r4, r4
 2077              	.LVL204:
 306:Middlewares/lvgl/src/core/lv_obj_draw.c ****         }
 2078              		.loc 1 306 13 is_stmt 1 view .LVU715
 306:Middlewares/lvgl/src/core/lv_obj_draw.c ****         }
 2079              		.loc 1 306 15 is_stmt 0 view .LVU716
 2080 00bc 24EAE474 		bic	r4, r4, r4, asr #31
 2081              	.LVL205:
 306:Middlewares/lvgl/src/core/lv_obj_draw.c ****         }
 2082              		.loc 1 306 15 view .LVU717
 2083 00c0 A7E7     		b	.L52
 2084              	.LVL206:
 2085              	.L61:
 301:Middlewares/lvgl/src/core/lv_obj_draw.c ****             sh_width += lv_obj_get_style_shadow_spread(obj, part);
 2086              		.loc 1 301 37 view .LVU718
 2087 00c2 631C     		adds	r3, r4, #1
 2088 00c4 D3E7     		b	.L53
 2089              	.LVL207:
 2090              	.L59:
 301:Middlewares/lvgl/src/core/lv_obj_draw.c ****             sh_width += lv_obj_get_style_shadow_spread(obj, part);
 2091              		.loc 1 301 37 view .LVU719
 2092              	.LBE285:
 2093              	.LBE292:
 2094              	.LBB293:
 312:Middlewares/lvgl/src/core/lv_obj_draw.c ****         if(outline_opa > LV_OPA_MIN) {
 2095              		.loc 1 312 9 is_stmt 1 view .LVU720
 2096              	.LBB294:
 2097              	.LBI294:
 403:Middlewares/lvgl/src/core/lv_obj_style_gen.h **** {
 2098              		.loc 2 403 24 view .LVU721
 2099              	.LBB295:
 405:Middlewares/lvgl/src/core/lv_obj_style_gen.h ****     return (lv_opa_t)v.num;
 2100              		.loc 2 405 5 view .LVU722
 405:Middlewares/lvgl/src/core/lv_obj_style_gen.h ****     return (lv_opa_t)v.num;
 2101              		.loc 2 405 26 is_stmt 0 view .LVU723
 2102 00c6 40F63C02 		movw	r2, #2108
 2103 00ca 3146     		mov	r1, r6
 2104 00cc 2846     		mov	r0, r5
ARM GAS  /tmp/cckMVbUO.s 			page 65


 2105 00ce FFF7FEFF 		bl	lv_obj_get_style_prop
 2106              	.LVL208:
 406:Middlewares/lvgl/src/core/lv_obj_style_gen.h **** }
 2107              		.loc 2 406 5 is_stmt 1 view .LVU724
 406:Middlewares/lvgl/src/core/lv_obj_style_gen.h **** }
 2108              		.loc 2 406 12 is_stmt 0 view .LVU725
 2109 00d2 C0B2     		uxtb	r0, r0
 2110              	.LVL209:
 406:Middlewares/lvgl/src/core/lv_obj_style_gen.h **** }
 2111              		.loc 2 406 12 view .LVU726
 2112              	.LBE295:
 2113              	.LBE294:
 313:Middlewares/lvgl/src/core/lv_obj_draw.c ****             lv_coord_t outline_pad = lv_obj_get_style_outline_pad(obj, part);
 2114              		.loc 1 313 9 is_stmt 1 view .LVU727
 313:Middlewares/lvgl/src/core/lv_obj_draw.c ****             lv_coord_t outline_pad = lv_obj_get_style_outline_pad(obj, part);
 2115              		.loc 1 313 11 is_stmt 0 view .LVU728
 2116 00d4 0228     		cmp	r0, #2
 2117 00d6 A5D9     		bls	.L54
 2118              	.LBB296:
 314:Middlewares/lvgl/src/core/lv_obj_draw.c ****             s = LV_MAX(s, outline_pad + outline_width);
 2119              		.loc 1 314 13 is_stmt 1 view .LVU729
 2120              	.LVL210:
 2121              	.LBB297:
 2122              	.LBI297:
 409:Middlewares/lvgl/src/core/lv_obj_style_gen.h **** {
 2123              		.loc 2 409 26 view .LVU730
 2124              	.LBB298:
 411:Middlewares/lvgl/src/core/lv_obj_style_gen.h ****     return (lv_coord_t)v.num;
 2125              		.loc 2 411 5 view .LVU731
 411:Middlewares/lvgl/src/core/lv_obj_style_gen.h ****     return (lv_coord_t)v.num;
 2126              		.loc 2 411 26 is_stmt 0 view .LVU732
 2127 00d8 40F63D02 		movw	r2, #2109
 2128 00dc 3146     		mov	r1, r6
 2129 00de 2846     		mov	r0, r5
 2130              	.LVL211:
 411:Middlewares/lvgl/src/core/lv_obj_style_gen.h ****     return (lv_coord_t)v.num;
 2131              		.loc 2 411 26 view .LVU733
 2132 00e0 FFF7FEFF 		bl	lv_obj_get_style_prop
 2133              	.LVL212:
 412:Middlewares/lvgl/src/core/lv_obj_style_gen.h **** }
 2134              		.loc 2 412 5 is_stmt 1 view .LVU734
 412:Middlewares/lvgl/src/core/lv_obj_style_gen.h **** }
 2135              		.loc 2 412 5 is_stmt 0 view .LVU735
 2136              	.LBE298:
 2137              	.LBE297:
 315:Middlewares/lvgl/src/core/lv_obj_draw.c ****         }
 2138              		.loc 1 315 13 is_stmt 1 view .LVU736
 315:Middlewares/lvgl/src/core/lv_obj_draw.c ****         }
 2139              		.loc 1 315 17 is_stmt 0 view .LVU737
 2140 00e4 07FA80F7 		sxtah	r7, r7, r0
 2141              	.LVL213:
 315:Middlewares/lvgl/src/core/lv_obj_draw.c ****         }
 2142              		.loc 1 315 17 view .LVU738
 2143 00e8 BC42     		cmp	r4, r7
 2144 00ea B8BF     		it	lt
 2145 00ec 3C46     		movlt	r4, r7
 2146              	.LVL214:
ARM GAS  /tmp/cckMVbUO.s 			page 66


 315:Middlewares/lvgl/src/core/lv_obj_draw.c ****         }
 2147              		.loc 1 315 15 view .LVU739
 2148 00ee 24B2     		sxth	r4, r4
 2149              	.LVL215:
 315:Middlewares/lvgl/src/core/lv_obj_draw.c ****         }
 2150              		.loc 1 315 15 view .LVU740
 2151 00f0 98E7     		b	.L54
 2152              	.LBE296:
 2153              	.LBE293:
 2154              		.cfi_endproc
 2155              	.LFE158:
 2157              		.section	.text.lv_obj_draw_dsc_init,"ax",%progbits
 2158              		.align	1
 2159              		.global	lv_obj_draw_dsc_init
 2160              		.syntax unified
 2161              		.thumb
 2162              		.thumb_func
 2164              	lv_obj_draw_dsc_init:
 2165              	.LVL216:
 2166              	.LFB159:
 326:Middlewares/lvgl/src/core/lv_obj_draw.c **** 
 327:Middlewares/lvgl/src/core/lv_obj_draw.c **** void lv_obj_draw_dsc_init(lv_obj_draw_part_dsc_t * dsc, const lv_area_t * clip_area)
 328:Middlewares/lvgl/src/core/lv_obj_draw.c **** {
 2167              		.loc 1 328 1 is_stmt 1 view -0
 2168              		.cfi_startproc
 2169              		@ args = 0, pretend = 0, frame = 0
 2170              		@ frame_needed = 0, uses_anonymous_args = 0
 2171              		.loc 1 328 1 is_stmt 0 view .LVU742
 2172 0000 38B5     		push	{r3, r4, r5, lr}
 2173              	.LCFI6:
 2174              		.cfi_def_cfa_offset 16
 2175              		.cfi_offset 3, -16
 2176              		.cfi_offset 4, -12
 2177              		.cfi_offset 5, -8
 2178              		.cfi_offset 14, -4
 2179 0002 0446     		mov	r4, r0
 2180 0004 0D46     		mov	r5, r1
 329:Middlewares/lvgl/src/core/lv_obj_draw.c ****     lv_memset_00(dsc, sizeof(lv_obj_draw_part_dsc_t));
 2181              		.loc 1 329 5 is_stmt 1 view .LVU743
 2182 0006 4821     		movs	r1, #72
 2183              	.LVL217:
 2184              		.loc 1 329 5 is_stmt 0 view .LVU744
 2185 0008 FFF7FEFF 		bl	lv_memset_00
 2186              	.LVL218:
 330:Middlewares/lvgl/src/core/lv_obj_draw.c ****     dsc->clip_area = clip_area;
 2187              		.loc 1 330 5 is_stmt 1 view .LVU745
 2188              		.loc 1 330 20 is_stmt 0 view .LVU746
 2189 000c 2560     		str	r5, [r4]
 331:Middlewares/lvgl/src/core/lv_obj_draw.c **** }
 2190              		.loc 1 331 1 view .LVU747
 2191 000e 38BD     		pop	{r3, r4, r5, pc}
 2192              		.loc 1 331 1 view .LVU748
 2193              		.cfi_endproc
 2194              	.LFE159:
 2196              		.section	.text._lv_obj_get_ext_draw_size,"ax",%progbits
 2197              		.align	1
 2198              		.global	_lv_obj_get_ext_draw_size
ARM GAS  /tmp/cckMVbUO.s 			page 67


 2199              		.syntax unified
 2200              		.thumb
 2201              		.thumb_func
 2203              	_lv_obj_get_ext_draw_size:
 2204              	.LVL219:
 2205              	.LFB161:
 332:Middlewares/lvgl/src/core/lv_obj_draw.c **** 
 333:Middlewares/lvgl/src/core/lv_obj_draw.c **** void lv_obj_refresh_ext_draw_size(lv_obj_t * obj)
 334:Middlewares/lvgl/src/core/lv_obj_draw.c **** {
 335:Middlewares/lvgl/src/core/lv_obj_draw.c ****     LV_ASSERT_OBJ(obj, MY_CLASS);
 336:Middlewares/lvgl/src/core/lv_obj_draw.c **** 
 337:Middlewares/lvgl/src/core/lv_obj_draw.c ****     lv_coord_t s_old = _lv_obj_get_ext_draw_size(obj);
 338:Middlewares/lvgl/src/core/lv_obj_draw.c ****     lv_coord_t s_new = 0;
 339:Middlewares/lvgl/src/core/lv_obj_draw.c ****     lv_event_send(obj, LV_EVENT_REFR_EXT_DRAW_SIZE, &s_new);
 340:Middlewares/lvgl/src/core/lv_obj_draw.c **** 
 341:Middlewares/lvgl/src/core/lv_obj_draw.c ****     if(s_new != s_old) lv_obj_invalidate(obj);
 342:Middlewares/lvgl/src/core/lv_obj_draw.c **** 
 343:Middlewares/lvgl/src/core/lv_obj_draw.c ****     /*Store the result if the special attrs already allocated*/
 344:Middlewares/lvgl/src/core/lv_obj_draw.c ****     if(obj->spec_attr) {
 345:Middlewares/lvgl/src/core/lv_obj_draw.c ****         obj->spec_attr->ext_draw_size = s_new;
 346:Middlewares/lvgl/src/core/lv_obj_draw.c ****     }
 347:Middlewares/lvgl/src/core/lv_obj_draw.c ****     /*Allocate spec. attrs. only if the result is not zero.
 348:Middlewares/lvgl/src/core/lv_obj_draw.c ****      *Zero is the default value if the spec. attr. are not defined.*/
 349:Middlewares/lvgl/src/core/lv_obj_draw.c ****     else if(s_new != 0) {
 350:Middlewares/lvgl/src/core/lv_obj_draw.c ****         lv_obj_allocate_spec_attr(obj);
 351:Middlewares/lvgl/src/core/lv_obj_draw.c ****         obj->spec_attr->ext_draw_size = s_new;
 352:Middlewares/lvgl/src/core/lv_obj_draw.c ****     }
 353:Middlewares/lvgl/src/core/lv_obj_draw.c **** 
 354:Middlewares/lvgl/src/core/lv_obj_draw.c ****     if(s_new != s_old) lv_obj_invalidate(obj);
 355:Middlewares/lvgl/src/core/lv_obj_draw.c **** }
 356:Middlewares/lvgl/src/core/lv_obj_draw.c **** 
 357:Middlewares/lvgl/src/core/lv_obj_draw.c **** lv_coord_t _lv_obj_get_ext_draw_size(const lv_obj_t * obj)
 358:Middlewares/lvgl/src/core/lv_obj_draw.c **** {
 2206              		.loc 1 358 1 is_stmt 1 view -0
 2207              		.cfi_startproc
 2208              		@ args = 0, pretend = 0, frame = 0
 2209              		@ frame_needed = 0, uses_anonymous_args = 0
 2210              		@ link register save eliminated.
 359:Middlewares/lvgl/src/core/lv_obj_draw.c ****     if(obj->spec_attr) return obj->spec_attr->ext_draw_size;
 2211              		.loc 1 359 5 view .LVU750
 2212              		.loc 1 359 11 is_stmt 0 view .LVU751
 2213 0000 8368     		ldr	r3, [r0, #8]
 2214              		.loc 1 359 7 view .LVU752
 2215 0002 13B1     		cbz	r3, .L66
 2216              		.loc 1 359 24 is_stmt 1 discriminator 1 view .LVU753
 2217              		.loc 1 359 45 is_stmt 0 discriminator 1 view .LVU754
 2218 0004 B3F91600 		ldrsh	r0, [r3, #22]
 2219              	.LVL220:
 2220              		.loc 1 359 45 discriminator 1 view .LVU755
 2221 0008 7047     		bx	lr
 2222              	.LVL221:
 2223              	.L66:
 360:Middlewares/lvgl/src/core/lv_obj_draw.c ****     else return 0;
 2224              		.loc 1 360 17 view .LVU756
 2225 000a 0020     		movs	r0, #0
 2226              	.LVL222:
 361:Middlewares/lvgl/src/core/lv_obj_draw.c **** }
ARM GAS  /tmp/cckMVbUO.s 			page 68


 2227              		.loc 1 361 1 view .LVU757
 2228 000c 7047     		bx	lr
 2229              		.cfi_endproc
 2230              	.LFE161:
 2232              		.section	.text.lv_obj_refresh_ext_draw_size,"ax",%progbits
 2233              		.align	1
 2234              		.global	lv_obj_refresh_ext_draw_size
 2235              		.syntax unified
 2236              		.thumb
 2237              		.thumb_func
 2239              	lv_obj_refresh_ext_draw_size:
 2240              	.LVL223:
 2241              	.LFB160:
 334:Middlewares/lvgl/src/core/lv_obj_draw.c ****     LV_ASSERT_OBJ(obj, MY_CLASS);
 2242              		.loc 1 334 1 is_stmt 1 view -0
 2243              		.cfi_startproc
 2244              		@ args = 0, pretend = 0, frame = 8
 2245              		@ frame_needed = 0, uses_anonymous_args = 0
 334:Middlewares/lvgl/src/core/lv_obj_draw.c ****     LV_ASSERT_OBJ(obj, MY_CLASS);
 2246              		.loc 1 334 1 is_stmt 0 view .LVU759
 2247 0000 30B5     		push	{r4, r5, lr}
 2248              	.LCFI7:
 2249              		.cfi_def_cfa_offset 12
 2250              		.cfi_offset 4, -12
 2251              		.cfi_offset 5, -8
 2252              		.cfi_offset 14, -4
 2253 0002 83B0     		sub	sp, sp, #12
 2254              	.LCFI8:
 2255              		.cfi_def_cfa_offset 24
 2256 0004 0446     		mov	r4, r0
 335:Middlewares/lvgl/src/core/lv_obj_draw.c **** 
 2257              		.loc 1 335 5 is_stmt 1 view .LVU760
 335:Middlewares/lvgl/src/core/lv_obj_draw.c **** 
 2258              		.loc 1 335 5 view .LVU761
 335:Middlewares/lvgl/src/core/lv_obj_draw.c **** 
 2259              		.loc 1 335 5 view .LVU762
 337:Middlewares/lvgl/src/core/lv_obj_draw.c ****     lv_coord_t s_new = 0;
 2260              		.loc 1 337 5 view .LVU763
 337:Middlewares/lvgl/src/core/lv_obj_draw.c ****     lv_coord_t s_new = 0;
 2261              		.loc 1 337 24 is_stmt 0 view .LVU764
 2262 0006 FFF7FEFF 		bl	_lv_obj_get_ext_draw_size
 2263              	.LVL224:
 337:Middlewares/lvgl/src/core/lv_obj_draw.c ****     lv_coord_t s_new = 0;
 2264              		.loc 1 337 24 view .LVU765
 2265 000a 0546     		mov	r5, r0
 2266              	.LVL225:
 338:Middlewares/lvgl/src/core/lv_obj_draw.c ****     lv_event_send(obj, LV_EVENT_REFR_EXT_DRAW_SIZE, &s_new);
 2267              		.loc 1 338 5 is_stmt 1 view .LVU766
 338:Middlewares/lvgl/src/core/lv_obj_draw.c ****     lv_event_send(obj, LV_EVENT_REFR_EXT_DRAW_SIZE, &s_new);
 2268              		.loc 1 338 16 is_stmt 0 view .LVU767
 2269 000c 0023     		movs	r3, #0
 2270 000e ADF80630 		strh	r3, [sp, #6]	@ movhi
 339:Middlewares/lvgl/src/core/lv_obj_draw.c **** 
 2271              		.loc 1 339 5 is_stmt 1 view .LVU768
 2272 0012 0DF10602 		add	r2, sp, #6
 2273 0016 1321     		movs	r1, #19
 2274 0018 2046     		mov	r0, r4
ARM GAS  /tmp/cckMVbUO.s 			page 69


 2275 001a FFF7FEFF 		bl	lv_event_send
 2276              	.LVL226:
 341:Middlewares/lvgl/src/core/lv_obj_draw.c **** 
 2277              		.loc 1 341 5 view .LVU769
 341:Middlewares/lvgl/src/core/lv_obj_draw.c **** 
 2278              		.loc 1 341 14 is_stmt 0 view .LVU770
 2279 001e BDF90630 		ldrsh	r3, [sp, #6]
 341:Middlewares/lvgl/src/core/lv_obj_draw.c **** 
 2280              		.loc 1 341 7 view .LVU771
 2281 0022 AB42     		cmp	r3, r5
 2282 0024 0AD1     		bne	.L73
 2283              	.L68:
 344:Middlewares/lvgl/src/core/lv_obj_draw.c ****         obj->spec_attr->ext_draw_size = s_new;
 2284              		.loc 1 344 5 is_stmt 1 view .LVU772
 344:Middlewares/lvgl/src/core/lv_obj_draw.c ****         obj->spec_attr->ext_draw_size = s_new;
 2285              		.loc 1 344 11 is_stmt 0 view .LVU773
 2286 0026 A368     		ldr	r3, [r4, #8]
 344:Middlewares/lvgl/src/core/lv_obj_draw.c ****         obj->spec_attr->ext_draw_size = s_new;
 2287              		.loc 1 344 7 view .LVU774
 2288 0028 63B1     		cbz	r3, .L69
 345:Middlewares/lvgl/src/core/lv_obj_draw.c ****     }
 2289              		.loc 1 345 9 is_stmt 1 view .LVU775
 345:Middlewares/lvgl/src/core/lv_obj_draw.c ****     }
 2290              		.loc 1 345 39 is_stmt 0 view .LVU776
 2291 002a BDF80620 		ldrh	r2, [sp, #6]
 2292 002e DA82     		strh	r2, [r3, #22]	@ movhi
 2293              	.L70:
 354:Middlewares/lvgl/src/core/lv_obj_draw.c **** }
 2294              		.loc 1 354 5 is_stmt 1 view .LVU777
 354:Middlewares/lvgl/src/core/lv_obj_draw.c **** }
 2295              		.loc 1 354 14 is_stmt 0 view .LVU778
 2296 0030 BDF90630 		ldrsh	r3, [sp, #6]
 354:Middlewares/lvgl/src/core/lv_obj_draw.c **** }
 2297              		.loc 1 354 7 view .LVU779
 2298 0034 AB42     		cmp	r3, r5
 2299 0036 11D1     		bne	.L74
 2300              	.L67:
 355:Middlewares/lvgl/src/core/lv_obj_draw.c **** 
 2301              		.loc 1 355 1 view .LVU780
 2302 0038 03B0     		add	sp, sp, #12
 2303              	.LCFI9:
 2304              		.cfi_remember_state
 2305              		.cfi_def_cfa_offset 12
 2306              		@ sp needed
 2307 003a 30BD     		pop	{r4, r5, pc}
 2308              	.LVL227:
 2309              	.L73:
 2310              	.LCFI10:
 2311              		.cfi_restore_state
 341:Middlewares/lvgl/src/core/lv_obj_draw.c **** 
 2312              		.loc 1 341 24 is_stmt 1 discriminator 1 view .LVU781
 2313 003c 2046     		mov	r0, r4
 2314 003e FFF7FEFF 		bl	lv_obj_invalidate
 2315              	.LVL228:
 2316 0042 F0E7     		b	.L68
 2317              	.L69:
 349:Middlewares/lvgl/src/core/lv_obj_draw.c ****         lv_obj_allocate_spec_attr(obj);
ARM GAS  /tmp/cckMVbUO.s 			page 70


 2318              		.loc 1 349 10 view .LVU782
 349:Middlewares/lvgl/src/core/lv_obj_draw.c ****         lv_obj_allocate_spec_attr(obj);
 2319              		.loc 1 349 19 is_stmt 0 view .LVU783
 2320 0044 BDF90630 		ldrsh	r3, [sp, #6]
 349:Middlewares/lvgl/src/core/lv_obj_draw.c ****         lv_obj_allocate_spec_attr(obj);
 2321              		.loc 1 349 12 view .LVU784
 2322 0048 002B     		cmp	r3, #0
 2323 004a F1D0     		beq	.L70
 350:Middlewares/lvgl/src/core/lv_obj_draw.c ****         obj->spec_attr->ext_draw_size = s_new;
 2324              		.loc 1 350 9 is_stmt 1 view .LVU785
 2325 004c 2046     		mov	r0, r4
 2326 004e FFF7FEFF 		bl	lv_obj_allocate_spec_attr
 2327              	.LVL229:
 351:Middlewares/lvgl/src/core/lv_obj_draw.c ****     }
 2328              		.loc 1 351 9 view .LVU786
 351:Middlewares/lvgl/src/core/lv_obj_draw.c ****     }
 2329              		.loc 1 351 12 is_stmt 0 view .LVU787
 2330 0052 A368     		ldr	r3, [r4, #8]
 351:Middlewares/lvgl/src/core/lv_obj_draw.c ****     }
 2331              		.loc 1 351 39 view .LVU788
 2332 0054 BDF80620 		ldrh	r2, [sp, #6]
 2333 0058 DA82     		strh	r2, [r3, #22]	@ movhi
 2334 005a E9E7     		b	.L70
 2335              	.L74:
 354:Middlewares/lvgl/src/core/lv_obj_draw.c **** }
 2336              		.loc 1 354 24 is_stmt 1 discriminator 1 view .LVU789
 2337 005c 2046     		mov	r0, r4
 2338 005e FFF7FEFF 		bl	lv_obj_invalidate
 2339              	.LVL230:
 355:Middlewares/lvgl/src/core/lv_obj_draw.c **** 
 2340              		.loc 1 355 1 is_stmt 0 discriminator 1 view .LVU790
 2341 0062 E9E7     		b	.L67
 2342              		.cfi_endproc
 2343              	.LFE160:
 2345              		.text
 2346              	.Letext0:
 2347              		.file 4 "/home/akinya/gcc-arm-none-eabi/arm-none-eabi/include/machine/_default_types.h"
 2348              		.file 5 "/home/akinya/gcc-arm-none-eabi/arm-none-eabi/include/sys/_stdint.h"
 2349              		.file 6 "Middlewares/lvgl/src/core/../draw/../misc/../font/lv_font.h"
 2350              		.file 7 "Middlewares/lvgl/src/core/../draw/../misc/lv_color.h"
 2351              		.file 8 "Middlewares/lvgl/src/core/../draw/../misc/lv_txt.h"
 2352              		.file 9 "Middlewares/lvgl/src/core/../draw/../misc/lv_bidi.h"
 2353              		.file 10 "Middlewares/lvgl/src/core/../draw/../misc/lv_style.h"
 2354              		.file 11 "Middlewares/lvgl/src/core/../draw/lv_img_decoder.h"
 2355              		.file 12 "Middlewares/lvgl/src/core/../draw/lv_draw_rect.h"
 2356              		.file 13 "Middlewares/lvgl/src/core/../draw/lv_draw_label.h"
 2357              		.file 14 "Middlewares/lvgl/src/core/../draw/lv_draw_img.h"
 2358              		.file 15 "Middlewares/lvgl/src/core/../draw/lv_draw_line.h"
 2359              		.file 16 "Middlewares/lvgl/src/core/../draw/lv_draw_arc.h"
 2360              		.file 17 "Middlewares/lvgl/src/core/lv_obj_draw.h"
 2361              		.file 18 "Middlewares/lvgl/src/core/../hal/../misc/lv_ll.h"
 2362              		.file 19 "Middlewares/lvgl/src/core/lv_obj.h"
 2363              		.file 20 "Middlewares/lvgl/src/core/lv_group.h"
 2364              		.file 21 "Middlewares/lvgl/src/core/lv_obj_scroll.h"
 2365              		.file 22 "Middlewares/lvgl/src/core/lv_obj_style.h"
 2366              		.file 23 "Middlewares/lvgl/src/core/lv_obj_class.h"
 2367              		.file 24 "Middlewares/lvgl/src/core/lv_event.h"
ARM GAS  /tmp/cckMVbUO.s 			page 71


 2368              		.file 25 "Middlewares/lvgl/src/core/lv_obj_pos.h"
 2369              		.file 26 "Middlewares/lvgl/src/core/../hal/../misc/lv_mem.h"
ARM GAS  /tmp/cckMVbUO.s 			page 72


DEFINED SYMBOLS
                            *ABS*:0000000000000000 lv_obj_draw.c
     /tmp/cckMVbUO.s:19     .text.lv_obj_init_draw_rect_dsc:0000000000000000 $t
     /tmp/cckMVbUO.s:25     .text.lv_obj_init_draw_rect_dsc:0000000000000000 lv_obj_init_draw_rect_dsc
     /tmp/cckMVbUO.s:863    .text.lv_obj_init_draw_label_dsc:0000000000000000 $t
     /tmp/cckMVbUO.s:869    .text.lv_obj_init_draw_label_dsc:0000000000000000 lv_obj_init_draw_label_dsc
     /tmp/cckMVbUO.s:1126   .text.lv_obj_init_draw_img_dsc:0000000000000000 $t
     /tmp/cckMVbUO.s:1132   .text.lv_obj_init_draw_img_dsc:0000000000000000 lv_obj_init_draw_img_dsc
     /tmp/cckMVbUO.s:1366   .text.lv_obj_init_draw_line_dsc:0000000000000000 $t
     /tmp/cckMVbUO.s:1372   .text.lv_obj_init_draw_line_dsc:0000000000000000 lv_obj_init_draw_line_dsc
     /tmp/cckMVbUO.s:1605   .text.lv_obj_init_draw_arc_dsc:0000000000000000 $t
     /tmp/cckMVbUO.s:1611   .text.lv_obj_init_draw_arc_dsc:0000000000000000 lv_obj_init_draw_arc_dsc
     /tmp/cckMVbUO.s:1809   .text.lv_obj_calculate_ext_draw_size:0000000000000000 $t
     /tmp/cckMVbUO.s:1815   .text.lv_obj_calculate_ext_draw_size:0000000000000000 lv_obj_calculate_ext_draw_size
     /tmp/cckMVbUO.s:2158   .text.lv_obj_draw_dsc_init:0000000000000000 $t
     /tmp/cckMVbUO.s:2164   .text.lv_obj_draw_dsc_init:0000000000000000 lv_obj_draw_dsc_init
     /tmp/cckMVbUO.s:2197   .text._lv_obj_get_ext_draw_size:0000000000000000 $t
     /tmp/cckMVbUO.s:2203   .text._lv_obj_get_ext_draw_size:0000000000000000 _lv_obj_get_ext_draw_size
     /tmp/cckMVbUO.s:2233   .text.lv_obj_refresh_ext_draw_size:0000000000000000 $t
     /tmp/cckMVbUO.s:2239   .text.lv_obj_refresh_ext_draw_size:0000000000000000 lv_obj_refresh_ext_draw_size

UNDEFINED SYMBOLS
lv_obj_get_style_prop
lv_img_src_get_type
lv_memset_00
lv_event_send
lv_obj_invalidate
lv_obj_allocate_spec_attr
