ARM GAS  /tmp/ccoxlgn6.s 			page 1


   1              		.cpu cortex-m7
   2              		.eabi_attribute 28, 1
   3              		.eabi_attribute 20, 1
   4              		.eabi_attribute 21, 1
   5              		.eabi_attribute 23, 3
   6              		.eabi_attribute 24, 1
   7              		.eabi_attribute 25, 1
   8              		.eabi_attribute 26, 1
   9              		.eabi_attribute 30, 1
  10              		.eabi_attribute 34, 1
  11              		.eabi_attribute 18, 4
  12              		.file	"lv_obj_style.c"
  13              		.text
  14              	.Ltext0:
  15              		.cfi_sections	.debug_frame
  16              		.section	.text.trans_del,"ax",%progbits
  17              		.align	1
  18              		.arch armv7e-m
  19              		.syntax unified
  20              		.thumb
  21              		.thumb_func
  22              		.fpu fpv5-d16
  24              	trans_del:
  25              	.LVL0:
  26              	.LFB175:
  27              		.file 1 "Middlewares/lvgl/src/core/lv_obj_style.c"
   1:Middlewares/lvgl/src/core/lv_obj_style.c **** /**
   2:Middlewares/lvgl/src/core/lv_obj_style.c ****  * @file lv_obj_style.c
   3:Middlewares/lvgl/src/core/lv_obj_style.c ****  *
   4:Middlewares/lvgl/src/core/lv_obj_style.c ****  */
   5:Middlewares/lvgl/src/core/lv_obj_style.c **** 
   6:Middlewares/lvgl/src/core/lv_obj_style.c **** /*********************
   7:Middlewares/lvgl/src/core/lv_obj_style.c ****  *      INCLUDES
   8:Middlewares/lvgl/src/core/lv_obj_style.c ****  *********************/
   9:Middlewares/lvgl/src/core/lv_obj_style.c **** #include "lv_obj.h"
  10:Middlewares/lvgl/src/core/lv_obj_style.c **** #include "lv_disp.h"
  11:Middlewares/lvgl/src/core/lv_obj_style.c **** #include "../misc/lv_gc.h"
  12:Middlewares/lvgl/src/core/lv_obj_style.c **** 
  13:Middlewares/lvgl/src/core/lv_obj_style.c **** /*********************
  14:Middlewares/lvgl/src/core/lv_obj_style.c ****  *      DEFINES
  15:Middlewares/lvgl/src/core/lv_obj_style.c ****  *********************/
  16:Middlewares/lvgl/src/core/lv_obj_style.c **** #define MY_CLASS &lv_obj_class
  17:Middlewares/lvgl/src/core/lv_obj_style.c **** 
  18:Middlewares/lvgl/src/core/lv_obj_style.c **** /**********************
  19:Middlewares/lvgl/src/core/lv_obj_style.c ****  *      TYPEDEFS
  20:Middlewares/lvgl/src/core/lv_obj_style.c ****  **********************/
  21:Middlewares/lvgl/src/core/lv_obj_style.c **** 
  22:Middlewares/lvgl/src/core/lv_obj_style.c **** typedef struct {
  23:Middlewares/lvgl/src/core/lv_obj_style.c ****     lv_obj_t * obj;
  24:Middlewares/lvgl/src/core/lv_obj_style.c ****     lv_style_prop_t prop;
  25:Middlewares/lvgl/src/core/lv_obj_style.c ****     lv_style_selector_t selector;
  26:Middlewares/lvgl/src/core/lv_obj_style.c ****     lv_style_value_t start_value;
  27:Middlewares/lvgl/src/core/lv_obj_style.c ****     lv_style_value_t end_value;
  28:Middlewares/lvgl/src/core/lv_obj_style.c **** } trans_t;
  29:Middlewares/lvgl/src/core/lv_obj_style.c **** 
  30:Middlewares/lvgl/src/core/lv_obj_style.c **** typedef enum {
  31:Middlewares/lvgl/src/core/lv_obj_style.c ****     CACHE_ZERO = 0,
ARM GAS  /tmp/ccoxlgn6.s 			page 2


  32:Middlewares/lvgl/src/core/lv_obj_style.c ****     CACHE_TRUE = 1,
  33:Middlewares/lvgl/src/core/lv_obj_style.c ****     CACHE_UNSET = 2,
  34:Middlewares/lvgl/src/core/lv_obj_style.c ****     CACHE_255 = 3,
  35:Middlewares/lvgl/src/core/lv_obj_style.c ****     CACHE_NEED_CHECK = 4,
  36:Middlewares/lvgl/src/core/lv_obj_style.c **** }cache_t;
  37:Middlewares/lvgl/src/core/lv_obj_style.c **** 
  38:Middlewares/lvgl/src/core/lv_obj_style.c **** /**********************
  39:Middlewares/lvgl/src/core/lv_obj_style.c ****  *  GLOBAL PROTOTYPES
  40:Middlewares/lvgl/src/core/lv_obj_style.c ****  **********************/
  41:Middlewares/lvgl/src/core/lv_obj_style.c **** 
  42:Middlewares/lvgl/src/core/lv_obj_style.c **** /**********************
  43:Middlewares/lvgl/src/core/lv_obj_style.c ****  *  STATIC PROTOTYPES
  44:Middlewares/lvgl/src/core/lv_obj_style.c ****  **********************/
  45:Middlewares/lvgl/src/core/lv_obj_style.c **** static lv_style_t * get_local_style(lv_obj_t * obj, lv_style_selector_t selector);
  46:Middlewares/lvgl/src/core/lv_obj_style.c **** static _lv_obj_style_t * get_trans_style(lv_obj_t * obj, uint32_t part);
  47:Middlewares/lvgl/src/core/lv_obj_style.c **** static bool get_prop_core(const lv_obj_t * obj, lv_part_t part, lv_style_prop_t prop, lv_style_valu
  48:Middlewares/lvgl/src/core/lv_obj_style.c **** static lv_style_value_t apply_color_filter(const lv_obj_t * obj, uint32_t part, lv_style_value_t v)
  49:Middlewares/lvgl/src/core/lv_obj_style.c **** static void report_style_change_core(void * style, lv_obj_t * obj);
  50:Middlewares/lvgl/src/core/lv_obj_style.c **** static void refresh_children_style(lv_obj_t * obj);
  51:Middlewares/lvgl/src/core/lv_obj_style.c **** static bool trans_del(lv_obj_t * obj, lv_part_t part, lv_style_prop_t prop, trans_t * tr_limit);
  52:Middlewares/lvgl/src/core/lv_obj_style.c **** static void trans_anim_cb(void * _tr, int32_t v);
  53:Middlewares/lvgl/src/core/lv_obj_style.c **** static void trans_anim_start_cb(lv_anim_t * a);
  54:Middlewares/lvgl/src/core/lv_obj_style.c **** static void trans_anim_ready_cb(lv_anim_t * a);
  55:Middlewares/lvgl/src/core/lv_obj_style.c **** static void fade_anim_cb(void * obj, int32_t v);
  56:Middlewares/lvgl/src/core/lv_obj_style.c **** static void fade_in_anim_ready(lv_anim_t * a);
  57:Middlewares/lvgl/src/core/lv_obj_style.c **** 
  58:Middlewares/lvgl/src/core/lv_obj_style.c **** /**********************
  59:Middlewares/lvgl/src/core/lv_obj_style.c ****  *  STATIC VARIABLES
  60:Middlewares/lvgl/src/core/lv_obj_style.c ****  **********************/
  61:Middlewares/lvgl/src/core/lv_obj_style.c **** static bool style_refr = true;
  62:Middlewares/lvgl/src/core/lv_obj_style.c **** 
  63:Middlewares/lvgl/src/core/lv_obj_style.c **** /**********************
  64:Middlewares/lvgl/src/core/lv_obj_style.c ****  *      MACROS
  65:Middlewares/lvgl/src/core/lv_obj_style.c ****  **********************/
  66:Middlewares/lvgl/src/core/lv_obj_style.c **** 
  67:Middlewares/lvgl/src/core/lv_obj_style.c **** /**********************
  68:Middlewares/lvgl/src/core/lv_obj_style.c ****  *   GLOBAL FUNCTIONS
  69:Middlewares/lvgl/src/core/lv_obj_style.c ****  **********************/
  70:Middlewares/lvgl/src/core/lv_obj_style.c **** 
  71:Middlewares/lvgl/src/core/lv_obj_style.c **** void _lv_obj_style_init(void)
  72:Middlewares/lvgl/src/core/lv_obj_style.c **** {
  73:Middlewares/lvgl/src/core/lv_obj_style.c ****     _lv_ll_init(&LV_GC_ROOT(_lv_obj_style_trans_ll), sizeof(trans_t));
  74:Middlewares/lvgl/src/core/lv_obj_style.c **** }
  75:Middlewares/lvgl/src/core/lv_obj_style.c **** 
  76:Middlewares/lvgl/src/core/lv_obj_style.c **** void lv_obj_add_style(lv_obj_t * obj, lv_style_t * style, lv_style_selector_t selector)
  77:Middlewares/lvgl/src/core/lv_obj_style.c **** {
  78:Middlewares/lvgl/src/core/lv_obj_style.c ****     trans_del(obj, selector, LV_STYLE_PROP_ANY, NULL);
  79:Middlewares/lvgl/src/core/lv_obj_style.c **** 
  80:Middlewares/lvgl/src/core/lv_obj_style.c ****     uint32_t i;
  81:Middlewares/lvgl/src/core/lv_obj_style.c ****     /*Go after the transition and local styles*/
  82:Middlewares/lvgl/src/core/lv_obj_style.c ****     for(i = 0; i < obj->style_cnt; i++) {
  83:Middlewares/lvgl/src/core/lv_obj_style.c ****         if(obj->styles[i].is_trans) continue;
  84:Middlewares/lvgl/src/core/lv_obj_style.c ****         if(obj->styles[i].is_local) continue;
  85:Middlewares/lvgl/src/core/lv_obj_style.c ****         break;
  86:Middlewares/lvgl/src/core/lv_obj_style.c ****     }
  87:Middlewares/lvgl/src/core/lv_obj_style.c **** 
  88:Middlewares/lvgl/src/core/lv_obj_style.c ****     /*Now `i` is at the first normal style. Insert the new style before this*/
ARM GAS  /tmp/ccoxlgn6.s 			page 3


  89:Middlewares/lvgl/src/core/lv_obj_style.c **** 
  90:Middlewares/lvgl/src/core/lv_obj_style.c ****     /*Allocate space for the new style and shift the rest of the style to the end*/
  91:Middlewares/lvgl/src/core/lv_obj_style.c ****     obj->style_cnt++;
  92:Middlewares/lvgl/src/core/lv_obj_style.c ****     obj->styles = lv_mem_realloc(obj->styles, obj->style_cnt * sizeof(_lv_obj_style_t));
  93:Middlewares/lvgl/src/core/lv_obj_style.c **** 
  94:Middlewares/lvgl/src/core/lv_obj_style.c ****     uint32_t j;
  95:Middlewares/lvgl/src/core/lv_obj_style.c ****     for(j = obj->style_cnt - 1; j > i ; j--) {
  96:Middlewares/lvgl/src/core/lv_obj_style.c ****         obj->styles[j] = obj->styles[j - 1];
  97:Middlewares/lvgl/src/core/lv_obj_style.c ****     }
  98:Middlewares/lvgl/src/core/lv_obj_style.c **** 
  99:Middlewares/lvgl/src/core/lv_obj_style.c ****     lv_memset_00(&obj->styles[i], sizeof(_lv_obj_style_t));
 100:Middlewares/lvgl/src/core/lv_obj_style.c ****     obj->styles[i].style = style;
 101:Middlewares/lvgl/src/core/lv_obj_style.c ****     obj->styles[i].selector = selector;
 102:Middlewares/lvgl/src/core/lv_obj_style.c **** 
 103:Middlewares/lvgl/src/core/lv_obj_style.c ****     lv_obj_refresh_style(obj, selector, LV_STYLE_PROP_ANY);
 104:Middlewares/lvgl/src/core/lv_obj_style.c **** }
 105:Middlewares/lvgl/src/core/lv_obj_style.c **** 
 106:Middlewares/lvgl/src/core/lv_obj_style.c **** void lv_obj_remove_style(lv_obj_t * obj, lv_style_t * style, lv_style_selector_t selector)
 107:Middlewares/lvgl/src/core/lv_obj_style.c **** {
 108:Middlewares/lvgl/src/core/lv_obj_style.c ****     lv_state_t state = lv_obj_style_get_selector_state(selector);
 109:Middlewares/lvgl/src/core/lv_obj_style.c ****     lv_part_t part = lv_obj_style_get_selector_part(selector);
 110:Middlewares/lvgl/src/core/lv_obj_style.c ****     lv_style_prop_t prop = LV_STYLE_PROP_ANY;
 111:Middlewares/lvgl/src/core/lv_obj_style.c ****     if(style && style->prop_cnt == 0) prop = LV_STYLE_PROP_INV;
 112:Middlewares/lvgl/src/core/lv_obj_style.c **** 
 113:Middlewares/lvgl/src/core/lv_obj_style.c ****     uint32_t i = 0;
 114:Middlewares/lvgl/src/core/lv_obj_style.c ****     bool deleted = false;
 115:Middlewares/lvgl/src/core/lv_obj_style.c ****     while(i <  obj->style_cnt) {
 116:Middlewares/lvgl/src/core/lv_obj_style.c ****         lv_state_t state_act = lv_obj_style_get_selector_state(obj->styles[i].selector);
 117:Middlewares/lvgl/src/core/lv_obj_style.c ****         lv_part_t part_act = lv_obj_style_get_selector_part(obj->styles[i].selector);
 118:Middlewares/lvgl/src/core/lv_obj_style.c ****         if((state != LV_STATE_ANY && state_act != state) ||
 119:Middlewares/lvgl/src/core/lv_obj_style.c ****            (part != LV_PART_ANY && part_act != part) ||
 120:Middlewares/lvgl/src/core/lv_obj_style.c ****            (style != NULL && style != obj->styles[i].style))
 121:Middlewares/lvgl/src/core/lv_obj_style.c ****         {
 122:Middlewares/lvgl/src/core/lv_obj_style.c ****             i++;
 123:Middlewares/lvgl/src/core/lv_obj_style.c ****             continue;
 124:Middlewares/lvgl/src/core/lv_obj_style.c ****         }
 125:Middlewares/lvgl/src/core/lv_obj_style.c **** 
 126:Middlewares/lvgl/src/core/lv_obj_style.c ****         if(obj->styles[i].is_trans) {
 127:Middlewares/lvgl/src/core/lv_obj_style.c ****             trans_del(obj, part, LV_STYLE_PROP_ANY, NULL);
 128:Middlewares/lvgl/src/core/lv_obj_style.c ****         }
 129:Middlewares/lvgl/src/core/lv_obj_style.c **** 
 130:Middlewares/lvgl/src/core/lv_obj_style.c ****         if(obj->styles[i].is_local || obj->styles[i].is_trans) {
 131:Middlewares/lvgl/src/core/lv_obj_style.c ****             lv_style_reset(obj->styles[i].style);
 132:Middlewares/lvgl/src/core/lv_obj_style.c ****             lv_mem_free(obj->styles[i].style);
 133:Middlewares/lvgl/src/core/lv_obj_style.c ****             obj->styles[i].style = NULL;
 134:Middlewares/lvgl/src/core/lv_obj_style.c ****         }
 135:Middlewares/lvgl/src/core/lv_obj_style.c **** 
 136:Middlewares/lvgl/src/core/lv_obj_style.c ****         /*Shift the styles after `i` by one*/
 137:Middlewares/lvgl/src/core/lv_obj_style.c ****         uint32_t j;
 138:Middlewares/lvgl/src/core/lv_obj_style.c ****         for(j = i; j < (uint32_t)obj->style_cnt - 1 ; j++) {
 139:Middlewares/lvgl/src/core/lv_obj_style.c ****             obj->styles[j] = obj->styles[j + 1];
 140:Middlewares/lvgl/src/core/lv_obj_style.c ****         }
 141:Middlewares/lvgl/src/core/lv_obj_style.c **** 
 142:Middlewares/lvgl/src/core/lv_obj_style.c ****         obj->style_cnt--;
 143:Middlewares/lvgl/src/core/lv_obj_style.c ****         obj->styles = lv_mem_realloc(obj->styles, obj->style_cnt * sizeof(_lv_obj_style_t));
 144:Middlewares/lvgl/src/core/lv_obj_style.c **** 
 145:Middlewares/lvgl/src/core/lv_obj_style.c ****         deleted = true;
ARM GAS  /tmp/ccoxlgn6.s 			page 4


 146:Middlewares/lvgl/src/core/lv_obj_style.c ****         /*The style from the current `i` index is removed, so `i` points to the next style.
 147:Middlewares/lvgl/src/core/lv_obj_style.c ****          *Therefore it doesn't needs to be incremented*/
 148:Middlewares/lvgl/src/core/lv_obj_style.c ****     }
 149:Middlewares/lvgl/src/core/lv_obj_style.c ****     if(deleted && prop != LV_STYLE_PROP_INV) {
 150:Middlewares/lvgl/src/core/lv_obj_style.c ****         lv_obj_refresh_style(obj, part, prop);
 151:Middlewares/lvgl/src/core/lv_obj_style.c ****     }
 152:Middlewares/lvgl/src/core/lv_obj_style.c **** }
 153:Middlewares/lvgl/src/core/lv_obj_style.c **** 
 154:Middlewares/lvgl/src/core/lv_obj_style.c **** void lv_obj_report_style_change(lv_style_t * style)
 155:Middlewares/lvgl/src/core/lv_obj_style.c **** {
 156:Middlewares/lvgl/src/core/lv_obj_style.c ****     if(!style_refr) return;
 157:Middlewares/lvgl/src/core/lv_obj_style.c ****     lv_disp_t * d = lv_disp_get_next(NULL);
 158:Middlewares/lvgl/src/core/lv_obj_style.c **** 
 159:Middlewares/lvgl/src/core/lv_obj_style.c ****     while(d) {
 160:Middlewares/lvgl/src/core/lv_obj_style.c ****         uint32_t i;
 161:Middlewares/lvgl/src/core/lv_obj_style.c ****         for(i = 0; i < d->screen_cnt; i++) {
 162:Middlewares/lvgl/src/core/lv_obj_style.c ****             report_style_change_core(style, d->screens[i]);
 163:Middlewares/lvgl/src/core/lv_obj_style.c ****         }
 164:Middlewares/lvgl/src/core/lv_obj_style.c ****         d = lv_disp_get_next(d);
 165:Middlewares/lvgl/src/core/lv_obj_style.c ****     }
 166:Middlewares/lvgl/src/core/lv_obj_style.c **** }
 167:Middlewares/lvgl/src/core/lv_obj_style.c **** 
 168:Middlewares/lvgl/src/core/lv_obj_style.c **** void lv_obj_refresh_style(lv_obj_t * obj, lv_style_selector_t selector, lv_style_prop_t prop)
 169:Middlewares/lvgl/src/core/lv_obj_style.c **** {
 170:Middlewares/lvgl/src/core/lv_obj_style.c ****     LV_ASSERT_OBJ(obj, MY_CLASS);
 171:Middlewares/lvgl/src/core/lv_obj_style.c **** 
 172:Middlewares/lvgl/src/core/lv_obj_style.c ****     if(!style_refr) return;
 173:Middlewares/lvgl/src/core/lv_obj_style.c **** 
 174:Middlewares/lvgl/src/core/lv_obj_style.c ****     lv_obj_invalidate(obj);
 175:Middlewares/lvgl/src/core/lv_obj_style.c **** 
 176:Middlewares/lvgl/src/core/lv_obj_style.c ****     lv_part_t part = lv_obj_style_get_selector_part(selector);
 177:Middlewares/lvgl/src/core/lv_obj_style.c **** 
 178:Middlewares/lvgl/src/core/lv_obj_style.c ****     if((part == LV_PART_ANY || part == LV_PART_MAIN) && (prop == LV_STYLE_PROP_ANY || (prop & LV_ST
 179:Middlewares/lvgl/src/core/lv_obj_style.c ****         lv_event_send(obj, LV_EVENT_STYLE_CHANGED, NULL);
 180:Middlewares/lvgl/src/core/lv_obj_style.c ****         lv_obj_mark_layout_as_dirty(obj);
 181:Middlewares/lvgl/src/core/lv_obj_style.c ****     }
 182:Middlewares/lvgl/src/core/lv_obj_style.c ****     if((part == LV_PART_ANY || part == LV_PART_MAIN) && (prop == LV_STYLE_PROP_ANY || (prop & LV_ST
 183:Middlewares/lvgl/src/core/lv_obj_style.c ****         lv_obj_t * parent = lv_obj_get_parent(obj);
 184:Middlewares/lvgl/src/core/lv_obj_style.c ****         if(parent) lv_obj_mark_layout_as_dirty(parent);
 185:Middlewares/lvgl/src/core/lv_obj_style.c ****     }
 186:Middlewares/lvgl/src/core/lv_obj_style.c **** 
 187:Middlewares/lvgl/src/core/lv_obj_style.c ****     if(prop == LV_STYLE_PROP_ANY || (prop & LV_STYLE_PROP_EXT_DRAW)) {
 188:Middlewares/lvgl/src/core/lv_obj_style.c ****         lv_obj_refresh_ext_draw_size(obj);
 189:Middlewares/lvgl/src/core/lv_obj_style.c ****     }
 190:Middlewares/lvgl/src/core/lv_obj_style.c ****     lv_obj_invalidate(obj);
 191:Middlewares/lvgl/src/core/lv_obj_style.c **** 
 192:Middlewares/lvgl/src/core/lv_obj_style.c ****     if(prop == LV_STYLE_PROP_ANY ||
 193:Middlewares/lvgl/src/core/lv_obj_style.c ****       ((prop & LV_STYLE_PROP_INHERIT) && ((prop & LV_STYLE_PROP_EXT_DRAW) || (prop & LV_STYLE_PROP_
 194:Middlewares/lvgl/src/core/lv_obj_style.c ****     {
 195:Middlewares/lvgl/src/core/lv_obj_style.c ****         if(part != LV_PART_SCROLLBAR) {
 196:Middlewares/lvgl/src/core/lv_obj_style.c ****             refresh_children_style(obj);
 197:Middlewares/lvgl/src/core/lv_obj_style.c ****         }
 198:Middlewares/lvgl/src/core/lv_obj_style.c ****     }
 199:Middlewares/lvgl/src/core/lv_obj_style.c **** }
 200:Middlewares/lvgl/src/core/lv_obj_style.c **** 
 201:Middlewares/lvgl/src/core/lv_obj_style.c **** void lv_obj_enable_style_refresh(bool en)
 202:Middlewares/lvgl/src/core/lv_obj_style.c **** {
ARM GAS  /tmp/ccoxlgn6.s 			page 5


 203:Middlewares/lvgl/src/core/lv_obj_style.c ****     style_refr = en;
 204:Middlewares/lvgl/src/core/lv_obj_style.c **** }
 205:Middlewares/lvgl/src/core/lv_obj_style.c **** 
 206:Middlewares/lvgl/src/core/lv_obj_style.c **** lv_style_value_t lv_obj_get_style_prop(const lv_obj_t * obj, lv_part_t part, lv_style_prop_t prop)
 207:Middlewares/lvgl/src/core/lv_obj_style.c **** {
 208:Middlewares/lvgl/src/core/lv_obj_style.c ****     lv_style_value_t value_act;
 209:Middlewares/lvgl/src/core/lv_obj_style.c ****     bool inherit = prop & LV_STYLE_PROP_INHERIT ? true : false;
 210:Middlewares/lvgl/src/core/lv_obj_style.c ****     bool filter = prop & LV_STYLE_PROP_FILTER ? true : false;
 211:Middlewares/lvgl/src/core/lv_obj_style.c ****     if(filter) {
 212:Middlewares/lvgl/src/core/lv_obj_style.c ****         prop &= ~LV_STYLE_PROP_FILTER;
 213:Middlewares/lvgl/src/core/lv_obj_style.c ****     }
 214:Middlewares/lvgl/src/core/lv_obj_style.c ****     bool found = false;
 215:Middlewares/lvgl/src/core/lv_obj_style.c ****     while(obj) {
 216:Middlewares/lvgl/src/core/lv_obj_style.c ****         found = get_prop_core(obj, part, prop, &value_act);
 217:Middlewares/lvgl/src/core/lv_obj_style.c ****         if(found) break;
 218:Middlewares/lvgl/src/core/lv_obj_style.c ****         if(!inherit) break;
 219:Middlewares/lvgl/src/core/lv_obj_style.c **** 
 220:Middlewares/lvgl/src/core/lv_obj_style.c ****         /*If not found, check the `MAIN` style first*/
 221:Middlewares/lvgl/src/core/lv_obj_style.c ****         if(part != LV_PART_MAIN) {
 222:Middlewares/lvgl/src/core/lv_obj_style.c ****             part = LV_PART_MAIN;
 223:Middlewares/lvgl/src/core/lv_obj_style.c ****             continue;
 224:Middlewares/lvgl/src/core/lv_obj_style.c ****         }
 225:Middlewares/lvgl/src/core/lv_obj_style.c **** 
 226:Middlewares/lvgl/src/core/lv_obj_style.c ****         /*Check the parent too.*/
 227:Middlewares/lvgl/src/core/lv_obj_style.c ****         obj = lv_obj_get_parent(obj);
 228:Middlewares/lvgl/src/core/lv_obj_style.c ****     }
 229:Middlewares/lvgl/src/core/lv_obj_style.c **** 
 230:Middlewares/lvgl/src/core/lv_obj_style.c ****     if(!found) {
 231:Middlewares/lvgl/src/core/lv_obj_style.c ****         if(part == LV_PART_MAIN && (prop == LV_STYLE_WIDTH || prop == LV_STYLE_HEIGHT)) {
 232:Middlewares/lvgl/src/core/lv_obj_style.c ****             const lv_obj_class_t * cls = obj->class_p;
 233:Middlewares/lvgl/src/core/lv_obj_style.c ****             while(cls) {
 234:Middlewares/lvgl/src/core/lv_obj_style.c ****                 if(prop == LV_STYLE_WIDTH) {
 235:Middlewares/lvgl/src/core/lv_obj_style.c ****                     if(cls->width_def != 0) break;
 236:Middlewares/lvgl/src/core/lv_obj_style.c ****                 } else {
 237:Middlewares/lvgl/src/core/lv_obj_style.c ****                     if(cls->height_def != 0) break;
 238:Middlewares/lvgl/src/core/lv_obj_style.c ****                 }
 239:Middlewares/lvgl/src/core/lv_obj_style.c ****                 cls = cls->base_class;
 240:Middlewares/lvgl/src/core/lv_obj_style.c ****             }
 241:Middlewares/lvgl/src/core/lv_obj_style.c **** 
 242:Middlewares/lvgl/src/core/lv_obj_style.c ****             value_act.num = prop == LV_STYLE_WIDTH ? cls->width_def : cls->height_def;
 243:Middlewares/lvgl/src/core/lv_obj_style.c ****         } else {
 244:Middlewares/lvgl/src/core/lv_obj_style.c ****             value_act = lv_style_prop_get_default(prop);
 245:Middlewares/lvgl/src/core/lv_obj_style.c ****         }
 246:Middlewares/lvgl/src/core/lv_obj_style.c ****     }
 247:Middlewares/lvgl/src/core/lv_obj_style.c ****     if(filter) value_act = apply_color_filter(obj, part, value_act);
 248:Middlewares/lvgl/src/core/lv_obj_style.c ****     return value_act;
 249:Middlewares/lvgl/src/core/lv_obj_style.c **** }
 250:Middlewares/lvgl/src/core/lv_obj_style.c **** 
 251:Middlewares/lvgl/src/core/lv_obj_style.c **** void lv_obj_set_local_style_prop(lv_obj_t * obj, lv_style_prop_t prop, lv_style_value_t value, lv_s
 252:Middlewares/lvgl/src/core/lv_obj_style.c **** {
 253:Middlewares/lvgl/src/core/lv_obj_style.c ****     lv_style_t * style = get_local_style(obj, selector);
 254:Middlewares/lvgl/src/core/lv_obj_style.c ****     lv_style_set_prop(style, prop, value);
 255:Middlewares/lvgl/src/core/lv_obj_style.c ****     lv_obj_refresh_style(obj, selector, prop);
 256:Middlewares/lvgl/src/core/lv_obj_style.c **** }
 257:Middlewares/lvgl/src/core/lv_obj_style.c **** 
 258:Middlewares/lvgl/src/core/lv_obj_style.c **** 
 259:Middlewares/lvgl/src/core/lv_obj_style.c **** lv_res_t lv_obj_get_local_style_prop(lv_obj_t * obj, lv_style_prop_t prop, lv_style_value_t * value
ARM GAS  /tmp/ccoxlgn6.s 			page 6


 260:Middlewares/lvgl/src/core/lv_obj_style.c **** {
 261:Middlewares/lvgl/src/core/lv_obj_style.c ****     uint32_t i;
 262:Middlewares/lvgl/src/core/lv_obj_style.c ****     for(i = 0; i < obj->style_cnt; i++) {
 263:Middlewares/lvgl/src/core/lv_obj_style.c ****         if(obj->styles[i].is_local &&
 264:Middlewares/lvgl/src/core/lv_obj_style.c ****            obj->styles[i].selector ==  selector)
 265:Middlewares/lvgl/src/core/lv_obj_style.c ****         {
 266:Middlewares/lvgl/src/core/lv_obj_style.c ****             return lv_style_get_prop(obj->styles[i].style, prop, value);
 267:Middlewares/lvgl/src/core/lv_obj_style.c ****         }
 268:Middlewares/lvgl/src/core/lv_obj_style.c ****     }
 269:Middlewares/lvgl/src/core/lv_obj_style.c **** 
 270:Middlewares/lvgl/src/core/lv_obj_style.c ****     return LV_RES_INV;
 271:Middlewares/lvgl/src/core/lv_obj_style.c **** }
 272:Middlewares/lvgl/src/core/lv_obj_style.c **** 
 273:Middlewares/lvgl/src/core/lv_obj_style.c **** bool lv_obj_remove_local_style_prop(lv_obj_t * obj, lv_style_prop_t prop, lv_style_selector_t selec
 274:Middlewares/lvgl/src/core/lv_obj_style.c **** {
 275:Middlewares/lvgl/src/core/lv_obj_style.c ****     LV_ASSERT_OBJ(obj, MY_CLASS);
 276:Middlewares/lvgl/src/core/lv_obj_style.c **** 
 277:Middlewares/lvgl/src/core/lv_obj_style.c ****     uint32_t i;
 278:Middlewares/lvgl/src/core/lv_obj_style.c ****     /*Find the style*/
 279:Middlewares/lvgl/src/core/lv_obj_style.c ****     for(i = 0; i < obj->style_cnt; i++) {
 280:Middlewares/lvgl/src/core/lv_obj_style.c ****         if(obj->styles[i].is_local &&
 281:Middlewares/lvgl/src/core/lv_obj_style.c ****            obj->styles[i].selector == selector) {
 282:Middlewares/lvgl/src/core/lv_obj_style.c ****             break;
 283:Middlewares/lvgl/src/core/lv_obj_style.c ****         }
 284:Middlewares/lvgl/src/core/lv_obj_style.c ****     }
 285:Middlewares/lvgl/src/core/lv_obj_style.c **** 
 286:Middlewares/lvgl/src/core/lv_obj_style.c ****     /*The style is not found*/
 287:Middlewares/lvgl/src/core/lv_obj_style.c ****     if(i == obj->style_cnt) return false;
 288:Middlewares/lvgl/src/core/lv_obj_style.c **** 
 289:Middlewares/lvgl/src/core/lv_obj_style.c ****     return lv_style_remove_prop(obj->styles[i].style, prop);
 290:Middlewares/lvgl/src/core/lv_obj_style.c **** }
 291:Middlewares/lvgl/src/core/lv_obj_style.c **** 
 292:Middlewares/lvgl/src/core/lv_obj_style.c **** void _lv_obj_style_create_transition(lv_obj_t * obj, lv_part_t part, lv_state_t prev_state, lv_stat
 293:Middlewares/lvgl/src/core/lv_obj_style.c **** {
 294:Middlewares/lvgl/src/core/lv_obj_style.c ****     trans_t * tr;
 295:Middlewares/lvgl/src/core/lv_obj_style.c **** 
 296:Middlewares/lvgl/src/core/lv_obj_style.c ****     /*Get the previous and current values*/
 297:Middlewares/lvgl/src/core/lv_obj_style.c ****     obj->skip_trans = 1;
 298:Middlewares/lvgl/src/core/lv_obj_style.c ****     obj->state = prev_state;
 299:Middlewares/lvgl/src/core/lv_obj_style.c ****     lv_style_value_t v1 = lv_obj_get_style_prop(obj, part, tr_dsc->prop);
 300:Middlewares/lvgl/src/core/lv_obj_style.c ****     obj->state = new_state;
 301:Middlewares/lvgl/src/core/lv_obj_style.c ****     lv_style_value_t v2 = lv_obj_get_style_prop(obj, part, tr_dsc->prop);
 302:Middlewares/lvgl/src/core/lv_obj_style.c ****     obj->skip_trans = 0;
 303:Middlewares/lvgl/src/core/lv_obj_style.c **** 
 304:Middlewares/lvgl/src/core/lv_obj_style.c ****     if(v1.ptr == v2.ptr && v1.num == v2.num && v1.color.full == v2.color.full)  return;
 305:Middlewares/lvgl/src/core/lv_obj_style.c ****     obj->state = prev_state;
 306:Middlewares/lvgl/src/core/lv_obj_style.c ****     v1 = lv_obj_get_style_prop(obj, part, tr_dsc->prop);
 307:Middlewares/lvgl/src/core/lv_obj_style.c ****     obj->state = new_state;
 308:Middlewares/lvgl/src/core/lv_obj_style.c **** 
 309:Middlewares/lvgl/src/core/lv_obj_style.c ****     _lv_obj_style_t * style_trans = get_trans_style(obj, part);
 310:Middlewares/lvgl/src/core/lv_obj_style.c ****     lv_style_set_prop(style_trans->style, tr_dsc->prop, v1);   /*Be sure `trans_style` has a valid 
 311:Middlewares/lvgl/src/core/lv_obj_style.c **** 
 312:Middlewares/lvgl/src/core/lv_obj_style.c ****     if(tr_dsc->prop == LV_STYLE_RADIUS) {
 313:Middlewares/lvgl/src/core/lv_obj_style.c ****         if(v1.num == LV_RADIUS_CIRCLE || v2.num == LV_RADIUS_CIRCLE) {
 314:Middlewares/lvgl/src/core/lv_obj_style.c ****             lv_coord_t whalf = lv_obj_get_width(obj) / 2;
 315:Middlewares/lvgl/src/core/lv_obj_style.c ****             lv_coord_t hhalf = lv_obj_get_width(obj) / 2;
 316:Middlewares/lvgl/src/core/lv_obj_style.c ****             if(v1.num == LV_RADIUS_CIRCLE) v1.num = LV_MIN(whalf + 1, hhalf + 1);
ARM GAS  /tmp/ccoxlgn6.s 			page 7


 317:Middlewares/lvgl/src/core/lv_obj_style.c ****             if(v2.num == LV_RADIUS_CIRCLE) v2.num = LV_MIN(whalf + 1, hhalf + 1);
 318:Middlewares/lvgl/src/core/lv_obj_style.c ****         }
 319:Middlewares/lvgl/src/core/lv_obj_style.c ****     }
 320:Middlewares/lvgl/src/core/lv_obj_style.c **** 
 321:Middlewares/lvgl/src/core/lv_obj_style.c ****     tr = _lv_ll_ins_head(&LV_GC_ROOT(_lv_obj_style_trans_ll));
 322:Middlewares/lvgl/src/core/lv_obj_style.c ****     LV_ASSERT_MALLOC(tr);
 323:Middlewares/lvgl/src/core/lv_obj_style.c ****     if(tr == NULL) return;
 324:Middlewares/lvgl/src/core/lv_obj_style.c ****     tr->start_value = v1;
 325:Middlewares/lvgl/src/core/lv_obj_style.c ****     tr->end_value = v2;
 326:Middlewares/lvgl/src/core/lv_obj_style.c **** 
 327:Middlewares/lvgl/src/core/lv_obj_style.c ****     if(tr) {
 328:Middlewares/lvgl/src/core/lv_obj_style.c ****         tr->obj = obj;
 329:Middlewares/lvgl/src/core/lv_obj_style.c ****         tr->prop = tr_dsc->prop;
 330:Middlewares/lvgl/src/core/lv_obj_style.c ****         tr->selector = part;
 331:Middlewares/lvgl/src/core/lv_obj_style.c **** 
 332:Middlewares/lvgl/src/core/lv_obj_style.c ****         lv_anim_t a;
 333:Middlewares/lvgl/src/core/lv_obj_style.c ****         lv_anim_init(&a);
 334:Middlewares/lvgl/src/core/lv_obj_style.c ****         lv_anim_set_var(&a, tr);
 335:Middlewares/lvgl/src/core/lv_obj_style.c ****         lv_anim_set_exec_cb(&a, trans_anim_cb);
 336:Middlewares/lvgl/src/core/lv_obj_style.c ****         lv_anim_set_start_cb(&a, trans_anim_start_cb);
 337:Middlewares/lvgl/src/core/lv_obj_style.c ****         lv_anim_set_ready_cb(&a, trans_anim_ready_cb);
 338:Middlewares/lvgl/src/core/lv_obj_style.c ****         lv_anim_set_values(&a, 0x00, 0xFF);
 339:Middlewares/lvgl/src/core/lv_obj_style.c ****         lv_anim_set_time(&a, tr_dsc->time);
 340:Middlewares/lvgl/src/core/lv_obj_style.c ****         lv_anim_set_delay(&a, tr_dsc->delay);
 341:Middlewares/lvgl/src/core/lv_obj_style.c ****         lv_anim_set_path_cb(&a, tr_dsc->path_cb);
 342:Middlewares/lvgl/src/core/lv_obj_style.c ****         lv_anim_set_early_apply(&a, false);
 343:Middlewares/lvgl/src/core/lv_obj_style.c **** #if LV_USE_USER_DATA
 344:Middlewares/lvgl/src/core/lv_obj_style.c ****         a.user_data = tr_dsc->user_data;
 345:Middlewares/lvgl/src/core/lv_obj_style.c **** #endif
 346:Middlewares/lvgl/src/core/lv_obj_style.c ****         lv_anim_start(&a);
 347:Middlewares/lvgl/src/core/lv_obj_style.c ****     }
 348:Middlewares/lvgl/src/core/lv_obj_style.c **** }
 349:Middlewares/lvgl/src/core/lv_obj_style.c **** 
 350:Middlewares/lvgl/src/core/lv_obj_style.c **** _lv_style_state_cmp_t _lv_obj_style_state_compare(lv_obj_t * obj, lv_state_t state1, lv_state_t sta
 351:Middlewares/lvgl/src/core/lv_obj_style.c **** {
 352:Middlewares/lvgl/src/core/lv_obj_style.c ****     _lv_style_state_cmp_t res = _LV_STYLE_STATE_CMP_SAME;
 353:Middlewares/lvgl/src/core/lv_obj_style.c **** 
 354:Middlewares/lvgl/src/core/lv_obj_style.c ****     /*Are there any new styles for the new state?*/
 355:Middlewares/lvgl/src/core/lv_obj_style.c ****     uint32_t i;
 356:Middlewares/lvgl/src/core/lv_obj_style.c ****     for(i = 0; i < obj->style_cnt; i++) {
 357:Middlewares/lvgl/src/core/lv_obj_style.c ****         if(obj->styles[i].is_trans) continue;
 358:Middlewares/lvgl/src/core/lv_obj_style.c **** 
 359:Middlewares/lvgl/src/core/lv_obj_style.c ****         lv_state_t state_act = lv_obj_style_get_selector_state(obj->styles[i].selector);
 360:Middlewares/lvgl/src/core/lv_obj_style.c ****         lv_part_t part_act = lv_obj_style_get_selector_part(obj->styles[i].selector);
 361:Middlewares/lvgl/src/core/lv_obj_style.c ****         /*The style is valid for a stat but not the other*/
 362:Middlewares/lvgl/src/core/lv_obj_style.c ****         bool valid1 = state_act & (~state1) ? false : true;
 363:Middlewares/lvgl/src/core/lv_obj_style.c ****         bool valid2 = state_act & (~state2) ? false : true;
 364:Middlewares/lvgl/src/core/lv_obj_style.c ****         if(valid1 != valid2) {
 365:Middlewares/lvgl/src/core/lv_obj_style.c ****             lv_style_t * style = obj->styles[i].style;
 366:Middlewares/lvgl/src/core/lv_obj_style.c ****             lv_style_value_t v;
 367:Middlewares/lvgl/src/core/lv_obj_style.c ****             /*If there is layout difference on the main part, return immediately. There is no more 
 368:Middlewares/lvgl/src/core/lv_obj_style.c ****             bool layout_diff = false;
 369:Middlewares/lvgl/src/core/lv_obj_style.c ****             if(lv_style_get_prop(style, LV_STYLE_PAD_TOP, &v))layout_diff = true;
 370:Middlewares/lvgl/src/core/lv_obj_style.c ****             else if(lv_style_get_prop(style, LV_STYLE_PAD_BOTTOM, &v)) layout_diff = true;
 371:Middlewares/lvgl/src/core/lv_obj_style.c ****             else if(lv_style_get_prop(style, LV_STYLE_PAD_LEFT, &v)) layout_diff = true;
 372:Middlewares/lvgl/src/core/lv_obj_style.c ****             else if(lv_style_get_prop(style, LV_STYLE_PAD_RIGHT, &v)) layout_diff = true;
 373:Middlewares/lvgl/src/core/lv_obj_style.c ****             else if(lv_style_get_prop(style, LV_STYLE_PAD_COLUMN, &v)) layout_diff = true;
ARM GAS  /tmp/ccoxlgn6.s 			page 8


 374:Middlewares/lvgl/src/core/lv_obj_style.c ****             else if(lv_style_get_prop(style, LV_STYLE_PAD_ROW, &v)) layout_diff = true;
 375:Middlewares/lvgl/src/core/lv_obj_style.c ****             else if(lv_style_get_prop(style, LV_STYLE_LAYOUT, &v)) layout_diff = true;
 376:Middlewares/lvgl/src/core/lv_obj_style.c ****             else if(lv_style_get_prop(style, LV_STYLE_TRANSLATE_X, &v)) layout_diff = true;
 377:Middlewares/lvgl/src/core/lv_obj_style.c ****             else if(lv_style_get_prop(style, LV_STYLE_TRANSLATE_Y, &v)) layout_diff = true;
 378:Middlewares/lvgl/src/core/lv_obj_style.c ****             else if(lv_style_get_prop(style, LV_STYLE_WIDTH, &v)) layout_diff = true;
 379:Middlewares/lvgl/src/core/lv_obj_style.c ****             else if(lv_style_get_prop(style, LV_STYLE_HEIGHT, &v)) layout_diff = true;
 380:Middlewares/lvgl/src/core/lv_obj_style.c ****             else if(lv_style_get_prop(style, LV_STYLE_MIN_WIDTH, &v)) layout_diff = true;
 381:Middlewares/lvgl/src/core/lv_obj_style.c ****             else if(lv_style_get_prop(style, LV_STYLE_MAX_WIDTH, &v)) layout_diff = true;
 382:Middlewares/lvgl/src/core/lv_obj_style.c ****             else if(lv_style_get_prop(style, LV_STYLE_MIN_HEIGHT, &v)) layout_diff = true;
 383:Middlewares/lvgl/src/core/lv_obj_style.c ****             else if(lv_style_get_prop(style, LV_STYLE_MAX_HEIGHT, &v)) layout_diff = true;
 384:Middlewares/lvgl/src/core/lv_obj_style.c ****             else if(lv_style_get_prop(style, LV_STYLE_BORDER_WIDTH, &v)) layout_diff = true;
 385:Middlewares/lvgl/src/core/lv_obj_style.c **** 
 386:Middlewares/lvgl/src/core/lv_obj_style.c ****             if(layout_diff) {
 387:Middlewares/lvgl/src/core/lv_obj_style.c ****                 if(part_act == LV_PART_MAIN) {
 388:Middlewares/lvgl/src/core/lv_obj_style.c ****                     return _LV_STYLE_STATE_CMP_DIFF_LAYOUT;
 389:Middlewares/lvgl/src/core/lv_obj_style.c ****                 }
 390:Middlewares/lvgl/src/core/lv_obj_style.c ****                 else {
 391:Middlewares/lvgl/src/core/lv_obj_style.c ****                     res = _LV_STYLE_STATE_CMP_DIFF_DRAW_PAD;
 392:Middlewares/lvgl/src/core/lv_obj_style.c ****                     continue;
 393:Middlewares/lvgl/src/core/lv_obj_style.c ****                 }
 394:Middlewares/lvgl/src/core/lv_obj_style.c ****             }
 395:Middlewares/lvgl/src/core/lv_obj_style.c **** 
 396:Middlewares/lvgl/src/core/lv_obj_style.c ****             /*Check for draw pad changes*/
 397:Middlewares/lvgl/src/core/lv_obj_style.c ****             if(lv_style_get_prop(style, LV_STYLE_TRANSFORM_WIDTH, &v)) res = _LV_STYLE_STATE_CMP_DI
 398:Middlewares/lvgl/src/core/lv_obj_style.c ****             else if(lv_style_get_prop(style, LV_STYLE_TRANSFORM_HEIGHT, &v)) res = _LV_STYLE_STATE_
 399:Middlewares/lvgl/src/core/lv_obj_style.c ****             else if(lv_style_get_prop(style, LV_STYLE_TRANSFORM_ANGLE, &v)) res = _LV_STYLE_STATE_C
 400:Middlewares/lvgl/src/core/lv_obj_style.c ****             else if(lv_style_get_prop(style, LV_STYLE_TRANSFORM_ZOOM, &v)) res = _LV_STYLE_STATE_CM
 401:Middlewares/lvgl/src/core/lv_obj_style.c ****             else if(lv_style_get_prop(style, LV_STYLE_OUTLINE_OPA, &v)) res = _LV_STYLE_STATE_CMP_D
 402:Middlewares/lvgl/src/core/lv_obj_style.c ****             else if(lv_style_get_prop(style, LV_STYLE_OUTLINE_PAD, &v)) res = _LV_STYLE_STATE_CMP_D
 403:Middlewares/lvgl/src/core/lv_obj_style.c ****             else if(lv_style_get_prop(style, LV_STYLE_OUTLINE_WIDTH, &v)) res = _LV_STYLE_STATE_CMP
 404:Middlewares/lvgl/src/core/lv_obj_style.c ****             else if(lv_style_get_prop(style, LV_STYLE_SHADOW_WIDTH, &v)) res = _LV_STYLE_STATE_CMP_
 405:Middlewares/lvgl/src/core/lv_obj_style.c ****             else if(lv_style_get_prop(style, LV_STYLE_SHADOW_OPA, &v)) res = _LV_STYLE_STATE_CMP_DI
 406:Middlewares/lvgl/src/core/lv_obj_style.c ****             else if(lv_style_get_prop(style, LV_STYLE_SHADOW_OFS_X, &v)) res = _LV_STYLE_STATE_CMP_
 407:Middlewares/lvgl/src/core/lv_obj_style.c ****             else if(lv_style_get_prop(style, LV_STYLE_SHADOW_OFS_Y, &v)) res = _LV_STYLE_STATE_CMP_
 408:Middlewares/lvgl/src/core/lv_obj_style.c ****             else if(lv_style_get_prop(style, LV_STYLE_SHADOW_SPREAD, &v)) res = _LV_STYLE_STATE_CMP
 409:Middlewares/lvgl/src/core/lv_obj_style.c ****             else if(lv_style_get_prop(style, LV_STYLE_LINE_WIDTH, &v)) res = _LV_STYLE_STATE_CMP_DI
 410:Middlewares/lvgl/src/core/lv_obj_style.c ****             else if(res == _LV_STYLE_STATE_CMP_SAME) res = _LV_STYLE_STATE_CMP_DIFF_REDRAW;
 411:Middlewares/lvgl/src/core/lv_obj_style.c ****         }
 412:Middlewares/lvgl/src/core/lv_obj_style.c ****     }
 413:Middlewares/lvgl/src/core/lv_obj_style.c **** 
 414:Middlewares/lvgl/src/core/lv_obj_style.c ****     return res;
 415:Middlewares/lvgl/src/core/lv_obj_style.c **** }
 416:Middlewares/lvgl/src/core/lv_obj_style.c **** 
 417:Middlewares/lvgl/src/core/lv_obj_style.c **** void lv_obj_fade_in(lv_obj_t * obj, uint32_t time, uint32_t delay)
 418:Middlewares/lvgl/src/core/lv_obj_style.c **** {
 419:Middlewares/lvgl/src/core/lv_obj_style.c ****     lv_anim_t a;
 420:Middlewares/lvgl/src/core/lv_obj_style.c ****     lv_anim_init(&a);
 421:Middlewares/lvgl/src/core/lv_obj_style.c ****     lv_anim_set_var(&a, obj);
 422:Middlewares/lvgl/src/core/lv_obj_style.c ****     lv_anim_set_values(&a, LV_OPA_TRANSP, LV_OPA_COVER);
 423:Middlewares/lvgl/src/core/lv_obj_style.c ****     lv_anim_set_exec_cb(&a, fade_anim_cb);
 424:Middlewares/lvgl/src/core/lv_obj_style.c ****     lv_anim_set_ready_cb(&a, fade_in_anim_ready);
 425:Middlewares/lvgl/src/core/lv_obj_style.c ****     lv_anim_set_time(&a, time);
 426:Middlewares/lvgl/src/core/lv_obj_style.c ****     lv_anim_set_delay(&a, delay);
 427:Middlewares/lvgl/src/core/lv_obj_style.c ****     lv_anim_start(&a);
 428:Middlewares/lvgl/src/core/lv_obj_style.c **** }
 429:Middlewares/lvgl/src/core/lv_obj_style.c **** 
 430:Middlewares/lvgl/src/core/lv_obj_style.c **** void lv_obj_fade_out(lv_obj_t * obj, uint32_t time, uint32_t delay)
ARM GAS  /tmp/ccoxlgn6.s 			page 9


 431:Middlewares/lvgl/src/core/lv_obj_style.c **** {
 432:Middlewares/lvgl/src/core/lv_obj_style.c ****     lv_anim_t a;
 433:Middlewares/lvgl/src/core/lv_obj_style.c ****     lv_anim_init(&a);
 434:Middlewares/lvgl/src/core/lv_obj_style.c ****     lv_anim_set_var(&a, obj);
 435:Middlewares/lvgl/src/core/lv_obj_style.c ****     lv_anim_set_values(&a, LV_OPA_COVER, LV_OPA_TRANSP);
 436:Middlewares/lvgl/src/core/lv_obj_style.c ****     lv_anim_set_exec_cb(&a, fade_anim_cb);
 437:Middlewares/lvgl/src/core/lv_obj_style.c ****     lv_anim_set_time(&a, time);
 438:Middlewares/lvgl/src/core/lv_obj_style.c ****     lv_anim_set_delay(&a, delay);
 439:Middlewares/lvgl/src/core/lv_obj_style.c ****     lv_anim_start(&a);
 440:Middlewares/lvgl/src/core/lv_obj_style.c **** }
 441:Middlewares/lvgl/src/core/lv_obj_style.c **** 
 442:Middlewares/lvgl/src/core/lv_obj_style.c **** lv_state_t lv_obj_style_get_selector_state(lv_style_selector_t selector)
 443:Middlewares/lvgl/src/core/lv_obj_style.c **** {
 444:Middlewares/lvgl/src/core/lv_obj_style.c ****     return selector & 0xFFFF;
 445:Middlewares/lvgl/src/core/lv_obj_style.c **** }
 446:Middlewares/lvgl/src/core/lv_obj_style.c **** 
 447:Middlewares/lvgl/src/core/lv_obj_style.c **** lv_part_t lv_obj_style_get_selector_part(lv_style_selector_t selector)
 448:Middlewares/lvgl/src/core/lv_obj_style.c **** {
 449:Middlewares/lvgl/src/core/lv_obj_style.c ****     return selector & 0xFF0000;
 450:Middlewares/lvgl/src/core/lv_obj_style.c **** }
 451:Middlewares/lvgl/src/core/lv_obj_style.c **** 
 452:Middlewares/lvgl/src/core/lv_obj_style.c **** /**********************
 453:Middlewares/lvgl/src/core/lv_obj_style.c ****  *   STATIC FUNCTIONS
 454:Middlewares/lvgl/src/core/lv_obj_style.c ****  **********************/
 455:Middlewares/lvgl/src/core/lv_obj_style.c **** 
 456:Middlewares/lvgl/src/core/lv_obj_style.c **** /**
 457:Middlewares/lvgl/src/core/lv_obj_style.c ****  * Get the local style of an object for a given part and for a given state.
 458:Middlewares/lvgl/src/core/lv_obj_style.c ****  * If the local style for the part-state pair doesn't exist allocate and return it.
 459:Middlewares/lvgl/src/core/lv_obj_style.c ****  * @param obj   pointer to an object
 460:Middlewares/lvgl/src/core/lv_obj_style.c ****  * @param part  the part in whose local style to get
 461:Middlewares/lvgl/src/core/lv_obj_style.c ****  * @param state the state in whose local style to get
 462:Middlewares/lvgl/src/core/lv_obj_style.c ****  * @return pointer to the local style
 463:Middlewares/lvgl/src/core/lv_obj_style.c ****  */
 464:Middlewares/lvgl/src/core/lv_obj_style.c **** static lv_style_t * get_local_style(lv_obj_t * obj,  lv_style_selector_t selector)
 465:Middlewares/lvgl/src/core/lv_obj_style.c **** {
 466:Middlewares/lvgl/src/core/lv_obj_style.c ****     uint32_t i;
 467:Middlewares/lvgl/src/core/lv_obj_style.c ****     for(i = 0; i < obj->style_cnt; i++) {
 468:Middlewares/lvgl/src/core/lv_obj_style.c ****         if(obj->styles[i].is_local &&
 469:Middlewares/lvgl/src/core/lv_obj_style.c ****            obj->styles[i].selector == selector)
 470:Middlewares/lvgl/src/core/lv_obj_style.c ****         {
 471:Middlewares/lvgl/src/core/lv_obj_style.c ****             return obj->styles[i].style;
 472:Middlewares/lvgl/src/core/lv_obj_style.c ****         }
 473:Middlewares/lvgl/src/core/lv_obj_style.c ****     }
 474:Middlewares/lvgl/src/core/lv_obj_style.c **** 
 475:Middlewares/lvgl/src/core/lv_obj_style.c ****     obj->style_cnt++;
 476:Middlewares/lvgl/src/core/lv_obj_style.c ****     obj->styles = lv_mem_realloc(obj->styles, obj->style_cnt * sizeof(_lv_obj_style_t));
 477:Middlewares/lvgl/src/core/lv_obj_style.c ****     LV_ASSERT_MALLOC(obj->styles);
 478:Middlewares/lvgl/src/core/lv_obj_style.c **** 
 479:Middlewares/lvgl/src/core/lv_obj_style.c ****     for(i = obj->style_cnt - 1; i > 0 ; i--) {
 480:Middlewares/lvgl/src/core/lv_obj_style.c ****         /*Copy only normal styles (not local and transition).
 481:Middlewares/lvgl/src/core/lv_obj_style.c ****          *The new local style will be added as the last local style*/
 482:Middlewares/lvgl/src/core/lv_obj_style.c ****         if(obj->styles[i - 1].is_local || obj->styles[i - 1].is_trans) break;
 483:Middlewares/lvgl/src/core/lv_obj_style.c ****         obj->styles[i] = obj->styles[i - 1];
 484:Middlewares/lvgl/src/core/lv_obj_style.c ****     }
 485:Middlewares/lvgl/src/core/lv_obj_style.c **** 
 486:Middlewares/lvgl/src/core/lv_obj_style.c ****     lv_memset_00(&obj->styles[i], sizeof(_lv_obj_style_t));
 487:Middlewares/lvgl/src/core/lv_obj_style.c ****     obj->styles[i].style = lv_mem_alloc(sizeof(lv_style_t));
ARM GAS  /tmp/ccoxlgn6.s 			page 10


 488:Middlewares/lvgl/src/core/lv_obj_style.c ****     lv_style_init(obj->styles[i].style);
 489:Middlewares/lvgl/src/core/lv_obj_style.c ****     obj->styles[i].is_local = 1;
 490:Middlewares/lvgl/src/core/lv_obj_style.c ****     obj->styles[i].selector = selector;
 491:Middlewares/lvgl/src/core/lv_obj_style.c ****     return obj->styles[i].style;
 492:Middlewares/lvgl/src/core/lv_obj_style.c **** }
 493:Middlewares/lvgl/src/core/lv_obj_style.c **** 
 494:Middlewares/lvgl/src/core/lv_obj_style.c **** /**
 495:Middlewares/lvgl/src/core/lv_obj_style.c ****  * Get the transition style of an object for a given part and for a given state.
 496:Middlewares/lvgl/src/core/lv_obj_style.c ****  * If the transition style for the part-state pair doesn't exist allocate and return it.
 497:Middlewares/lvgl/src/core/lv_obj_style.c ****  * @param obj   pointer to an object
 498:Middlewares/lvgl/src/core/lv_obj_style.c ****  * @param part  the part in whose local style to get
 499:Middlewares/lvgl/src/core/lv_obj_style.c ****  * @param state the state in whose local style to get
 500:Middlewares/lvgl/src/core/lv_obj_style.c ****  * @return pointer to the transition style
 501:Middlewares/lvgl/src/core/lv_obj_style.c ****  */
 502:Middlewares/lvgl/src/core/lv_obj_style.c **** static _lv_obj_style_t * get_trans_style(lv_obj_t * obj,  lv_style_selector_t selector)
 503:Middlewares/lvgl/src/core/lv_obj_style.c **** {
 504:Middlewares/lvgl/src/core/lv_obj_style.c ****     uint32_t i;
 505:Middlewares/lvgl/src/core/lv_obj_style.c ****     for(i = 0; i < obj->style_cnt; i++) {
 506:Middlewares/lvgl/src/core/lv_obj_style.c ****         if(obj->styles[i].is_trans && obj->styles[i].selector == selector) break;
 507:Middlewares/lvgl/src/core/lv_obj_style.c ****     }
 508:Middlewares/lvgl/src/core/lv_obj_style.c **** 
 509:Middlewares/lvgl/src/core/lv_obj_style.c ****     /*Already have a transition style for it*/
 510:Middlewares/lvgl/src/core/lv_obj_style.c ****     if(i != obj->style_cnt) return &obj->styles[i];
 511:Middlewares/lvgl/src/core/lv_obj_style.c **** 
 512:Middlewares/lvgl/src/core/lv_obj_style.c ****     obj->style_cnt++;
 513:Middlewares/lvgl/src/core/lv_obj_style.c ****     obj->styles = lv_mem_realloc(obj->styles, obj->style_cnt * sizeof(_lv_obj_style_t));
 514:Middlewares/lvgl/src/core/lv_obj_style.c **** 
 515:Middlewares/lvgl/src/core/lv_obj_style.c ****     for(i = obj->style_cnt - 1; i > 0 ; i--) {
 516:Middlewares/lvgl/src/core/lv_obj_style.c ****         obj->styles[i] = obj->styles[i - 1];
 517:Middlewares/lvgl/src/core/lv_obj_style.c ****     }
 518:Middlewares/lvgl/src/core/lv_obj_style.c **** 
 519:Middlewares/lvgl/src/core/lv_obj_style.c ****     lv_memset_00(&obj->styles[0], sizeof(_lv_obj_style_t));
 520:Middlewares/lvgl/src/core/lv_obj_style.c ****     obj->styles[0].style = lv_mem_alloc(sizeof(lv_style_t));
 521:Middlewares/lvgl/src/core/lv_obj_style.c ****     lv_style_init(obj->styles[0].style);
 522:Middlewares/lvgl/src/core/lv_obj_style.c ****     obj->styles[0].is_trans = 1;
 523:Middlewares/lvgl/src/core/lv_obj_style.c ****     obj->styles[0].selector = selector;
 524:Middlewares/lvgl/src/core/lv_obj_style.c ****     return &obj->styles[0];
 525:Middlewares/lvgl/src/core/lv_obj_style.c **** }
 526:Middlewares/lvgl/src/core/lv_obj_style.c **** 
 527:Middlewares/lvgl/src/core/lv_obj_style.c **** 
 528:Middlewares/lvgl/src/core/lv_obj_style.c **** static bool get_prop_core(const lv_obj_t * obj, lv_part_t part, lv_style_prop_t prop, lv_style_valu
 529:Middlewares/lvgl/src/core/lv_obj_style.c **** {
 530:Middlewares/lvgl/src/core/lv_obj_style.c ****     uint8_t group = 1 << _lv_style_get_prop_group(prop);
 531:Middlewares/lvgl/src/core/lv_obj_style.c ****     int32_t weight = -1;
 532:Middlewares/lvgl/src/core/lv_obj_style.c ****     lv_state_t state = obj->state;
 533:Middlewares/lvgl/src/core/lv_obj_style.c ****     lv_state_t state_inv = ~state;
 534:Middlewares/lvgl/src/core/lv_obj_style.c ****     lv_style_value_t value_tmp;
 535:Middlewares/lvgl/src/core/lv_obj_style.c ****     bool skip_trans = obj->skip_trans;
 536:Middlewares/lvgl/src/core/lv_obj_style.c ****     uint32_t i;
 537:Middlewares/lvgl/src/core/lv_obj_style.c ****     bool found;
 538:Middlewares/lvgl/src/core/lv_obj_style.c ****     for(i = 0; i < obj->style_cnt; i++) {
 539:Middlewares/lvgl/src/core/lv_obj_style.c ****         _lv_obj_style_t * obj_style = &obj->styles[i];
 540:Middlewares/lvgl/src/core/lv_obj_style.c ****         if(obj_style->is_trans == false) break;
 541:Middlewares/lvgl/src/core/lv_obj_style.c ****         if(skip_trans) continue;
 542:Middlewares/lvgl/src/core/lv_obj_style.c **** 
 543:Middlewares/lvgl/src/core/lv_obj_style.c ****         lv_part_t part_act = lv_obj_style_get_selector_part(obj->styles[i].selector);
 544:Middlewares/lvgl/src/core/lv_obj_style.c **** 
ARM GAS  /tmp/ccoxlgn6.s 			page 11


 545:Middlewares/lvgl/src/core/lv_obj_style.c ****         if(part_act != part) continue;
 546:Middlewares/lvgl/src/core/lv_obj_style.c ****         if((obj_style->style->has_group & group) == 0) continue;
 547:Middlewares/lvgl/src/core/lv_obj_style.c ****         found = lv_style_get_prop(obj_style->style, prop, &value_tmp);
 548:Middlewares/lvgl/src/core/lv_obj_style.c ****         if(found) {
 549:Middlewares/lvgl/src/core/lv_obj_style.c ****             *v = value_tmp;
 550:Middlewares/lvgl/src/core/lv_obj_style.c ****             return true;
 551:Middlewares/lvgl/src/core/lv_obj_style.c ****         }
 552:Middlewares/lvgl/src/core/lv_obj_style.c ****     }
 553:Middlewares/lvgl/src/core/lv_obj_style.c **** 
 554:Middlewares/lvgl/src/core/lv_obj_style.c ****     for(; i < obj->style_cnt; i++) {
 555:Middlewares/lvgl/src/core/lv_obj_style.c ****         _lv_obj_style_t * obj_style = &obj->styles[i];
 556:Middlewares/lvgl/src/core/lv_obj_style.c ****         lv_part_t part_act = lv_obj_style_get_selector_part(obj->styles[i].selector);
 557:Middlewares/lvgl/src/core/lv_obj_style.c ****         lv_state_t state_act = lv_obj_style_get_selector_state(obj->styles[i].selector);
 558:Middlewares/lvgl/src/core/lv_obj_style.c ****         if(part_act != part) continue;
 559:Middlewares/lvgl/src/core/lv_obj_style.c **** 
 560:Middlewares/lvgl/src/core/lv_obj_style.c ****         if((obj_style->style->has_group & group) == 0) continue;
 561:Middlewares/lvgl/src/core/lv_obj_style.c **** 
 562:Middlewares/lvgl/src/core/lv_obj_style.c ****         /*Be sure the style not specifies other state than the requested.
 563:Middlewares/lvgl/src/core/lv_obj_style.c ****          *E.g. For HOVER+PRESS object state, HOVER style only is OK, but HOVER+FOCUS style is not*/
 564:Middlewares/lvgl/src/core/lv_obj_style.c ****         if((state_act & state_inv)) continue;
 565:Middlewares/lvgl/src/core/lv_obj_style.c **** 
 566:Middlewares/lvgl/src/core/lv_obj_style.c ****         /*Check only better candidates*/
 567:Middlewares/lvgl/src/core/lv_obj_style.c ****         if(state_act <= weight) continue;
 568:Middlewares/lvgl/src/core/lv_obj_style.c **** 
 569:Middlewares/lvgl/src/core/lv_obj_style.c ****         found = lv_style_get_prop(obj_style->style, prop, &value_tmp);
 570:Middlewares/lvgl/src/core/lv_obj_style.c **** 
 571:Middlewares/lvgl/src/core/lv_obj_style.c ****         if(found) {
 572:Middlewares/lvgl/src/core/lv_obj_style.c ****             if(state_act == state) {
 573:Middlewares/lvgl/src/core/lv_obj_style.c ****                 *v = value_tmp;
 574:Middlewares/lvgl/src/core/lv_obj_style.c ****                 return true;
 575:Middlewares/lvgl/src/core/lv_obj_style.c ****             }
 576:Middlewares/lvgl/src/core/lv_obj_style.c ****             if(weight < state_act) {
 577:Middlewares/lvgl/src/core/lv_obj_style.c ****                 weight = state_act;
 578:Middlewares/lvgl/src/core/lv_obj_style.c ****                 *v = value_tmp;
 579:Middlewares/lvgl/src/core/lv_obj_style.c ****             }
 580:Middlewares/lvgl/src/core/lv_obj_style.c ****         }
 581:Middlewares/lvgl/src/core/lv_obj_style.c ****     }
 582:Middlewares/lvgl/src/core/lv_obj_style.c **** 
 583:Middlewares/lvgl/src/core/lv_obj_style.c ****     if(weight >= 0) {
 584:Middlewares/lvgl/src/core/lv_obj_style.c ****         *v = value_tmp;
 585:Middlewares/lvgl/src/core/lv_obj_style.c ****         return true;
 586:Middlewares/lvgl/src/core/lv_obj_style.c ****     }
 587:Middlewares/lvgl/src/core/lv_obj_style.c ****     else return false;
 588:Middlewares/lvgl/src/core/lv_obj_style.c **** }
 589:Middlewares/lvgl/src/core/lv_obj_style.c **** 
 590:Middlewares/lvgl/src/core/lv_obj_style.c **** static lv_style_value_t apply_color_filter(const lv_obj_t * obj, uint32_t part, lv_style_value_t v)
 591:Middlewares/lvgl/src/core/lv_obj_style.c **** {
 592:Middlewares/lvgl/src/core/lv_obj_style.c ****     if(obj == NULL) return v;
 593:Middlewares/lvgl/src/core/lv_obj_style.c ****     const lv_color_filter_dsc_t * f = lv_obj_get_style_color_filter_dsc(obj, part);
 594:Middlewares/lvgl/src/core/lv_obj_style.c ****     if(f && f->filter_cb) {
 595:Middlewares/lvgl/src/core/lv_obj_style.c ****         lv_opa_t f_opa = lv_obj_get_style_color_filter_opa(obj, part);
 596:Middlewares/lvgl/src/core/lv_obj_style.c ****         if(f_opa != 0) v.color = f->filter_cb(f, v.color, f_opa);
 597:Middlewares/lvgl/src/core/lv_obj_style.c ****     }
 598:Middlewares/lvgl/src/core/lv_obj_style.c ****     return v;
 599:Middlewares/lvgl/src/core/lv_obj_style.c **** }
 600:Middlewares/lvgl/src/core/lv_obj_style.c **** 
 601:Middlewares/lvgl/src/core/lv_obj_style.c **** /**
ARM GAS  /tmp/ccoxlgn6.s 			page 12


 602:Middlewares/lvgl/src/core/lv_obj_style.c ****  * Refresh the style of all children of an object. (Called recursively)
 603:Middlewares/lvgl/src/core/lv_obj_style.c ****  * @param style refresh objects only with this
 604:Middlewares/lvgl/src/core/lv_obj_style.c ****  * @param obj pointer to an object
 605:Middlewares/lvgl/src/core/lv_obj_style.c ****  */
 606:Middlewares/lvgl/src/core/lv_obj_style.c **** static void report_style_change_core(void * style, lv_obj_t * obj)
 607:Middlewares/lvgl/src/core/lv_obj_style.c **** {
 608:Middlewares/lvgl/src/core/lv_obj_style.c ****     uint32_t i;
 609:Middlewares/lvgl/src/core/lv_obj_style.c ****     for(i = 0; i < obj->style_cnt; i++) {
 610:Middlewares/lvgl/src/core/lv_obj_style.c ****         if(style == NULL || obj->styles[i].style == style) {
 611:Middlewares/lvgl/src/core/lv_obj_style.c ****             lv_obj_refresh_style(obj, LV_PART_ANY, LV_STYLE_PROP_ANY);
 612:Middlewares/lvgl/src/core/lv_obj_style.c ****             break;
 613:Middlewares/lvgl/src/core/lv_obj_style.c ****         }
 614:Middlewares/lvgl/src/core/lv_obj_style.c ****     }
 615:Middlewares/lvgl/src/core/lv_obj_style.c **** 
 616:Middlewares/lvgl/src/core/lv_obj_style.c ****     uint32_t child_cnt = lv_obj_get_child_cnt(obj);
 617:Middlewares/lvgl/src/core/lv_obj_style.c ****     for(i = 0; i < child_cnt; i++) {
 618:Middlewares/lvgl/src/core/lv_obj_style.c ****         report_style_change_core(style, lv_obj_get_child(obj, i));
 619:Middlewares/lvgl/src/core/lv_obj_style.c ****     }
 620:Middlewares/lvgl/src/core/lv_obj_style.c **** }
 621:Middlewares/lvgl/src/core/lv_obj_style.c **** 
 622:Middlewares/lvgl/src/core/lv_obj_style.c **** /**
 623:Middlewares/lvgl/src/core/lv_obj_style.c ****  * Recursively refresh the style of the children. Go deeper until a not NULL style is found
 624:Middlewares/lvgl/src/core/lv_obj_style.c ****  * because the NULL styles are inherited from the parent
 625:Middlewares/lvgl/src/core/lv_obj_style.c ****  * @param obj pointer to an object
 626:Middlewares/lvgl/src/core/lv_obj_style.c ****  */
 627:Middlewares/lvgl/src/core/lv_obj_style.c **** static void refresh_children_style(lv_obj_t * obj)
 628:Middlewares/lvgl/src/core/lv_obj_style.c **** {
 629:Middlewares/lvgl/src/core/lv_obj_style.c ****     uint32_t i;
 630:Middlewares/lvgl/src/core/lv_obj_style.c ****     uint32_t child_cnt = lv_obj_get_child_cnt(obj);
 631:Middlewares/lvgl/src/core/lv_obj_style.c ****     for(i = 0; i < child_cnt; i++) {
 632:Middlewares/lvgl/src/core/lv_obj_style.c ****         lv_obj_t * child = lv_obj_get_child(obj, i);
 633:Middlewares/lvgl/src/core/lv_obj_style.c ****         lv_obj_invalidate(child);
 634:Middlewares/lvgl/src/core/lv_obj_style.c ****         lv_event_send(child, LV_EVENT_STYLE_CHANGED, NULL);
 635:Middlewares/lvgl/src/core/lv_obj_style.c ****         lv_obj_invalidate(child);
 636:Middlewares/lvgl/src/core/lv_obj_style.c **** 
 637:Middlewares/lvgl/src/core/lv_obj_style.c ****         refresh_children_style(child); /*Check children too*/
 638:Middlewares/lvgl/src/core/lv_obj_style.c ****     }
 639:Middlewares/lvgl/src/core/lv_obj_style.c **** }
 640:Middlewares/lvgl/src/core/lv_obj_style.c **** 
 641:Middlewares/lvgl/src/core/lv_obj_style.c **** /**
 642:Middlewares/lvgl/src/core/lv_obj_style.c ****  * Remove the transition from object's part's property.
 643:Middlewares/lvgl/src/core/lv_obj_style.c ****  * - Remove the transition from `_lv_obj_style_trans_ll` and free it
 644:Middlewares/lvgl/src/core/lv_obj_style.c ****  * - Delete pending transitions
 645:Middlewares/lvgl/src/core/lv_obj_style.c ****  * @param obj pointer to an object which transition(s) should be removed
 646:Middlewares/lvgl/src/core/lv_obj_style.c ****  * @param part a part of object or 0xFF to remove from all parts
 647:Middlewares/lvgl/src/core/lv_obj_style.c ****  * @param prop a property or 0xFF to remove all properties
 648:Middlewares/lvgl/src/core/lv_obj_style.c ****  * @param tr_limit delete transitions only "older" than this. `NULL` if not used
 649:Middlewares/lvgl/src/core/lv_obj_style.c ****  */
 650:Middlewares/lvgl/src/core/lv_obj_style.c **** static bool trans_del(lv_obj_t * obj, lv_part_t part, lv_style_prop_t prop, trans_t * tr_limit)
 651:Middlewares/lvgl/src/core/lv_obj_style.c **** {
  28              		.loc 1 651 1 view -0
  29              		.cfi_startproc
  30              		@ args = 0, pretend = 0, frame = 0
  31              		@ frame_needed = 0, uses_anonymous_args = 0
  32              		.loc 1 651 1 is_stmt 0 view .LVU1
  33 0000 2DE9F84F 		push	{r3, r4, r5, r6, r7, r8, r9, r10, fp, lr}
  34              	.LCFI0:
ARM GAS  /tmp/ccoxlgn6.s 			page 13


  35              		.cfi_def_cfa_offset 40
  36              		.cfi_offset 3, -40
  37              		.cfi_offset 4, -36
  38              		.cfi_offset 5, -32
  39              		.cfi_offset 6, -28
  40              		.cfi_offset 7, -24
  41              		.cfi_offset 8, -20
  42              		.cfi_offset 9, -16
  43              		.cfi_offset 10, -12
  44              		.cfi_offset 11, -8
  45              		.cfi_offset 14, -4
  46 0004 0646     		mov	r6, r0
  47 0006 8946     		mov	r9, r1
  48 0008 9246     		mov	r10, r2
  49 000a 9846     		mov	r8, r3
 652:Middlewares/lvgl/src/core/lv_obj_style.c ****     trans_t * tr;
  50              		.loc 1 652 5 is_stmt 1 view .LVU2
 653:Middlewares/lvgl/src/core/lv_obj_style.c ****     trans_t * tr_prev;
  51              		.loc 1 653 5 view .LVU3
 654:Middlewares/lvgl/src/core/lv_obj_style.c ****     bool removed = false;
  52              		.loc 1 654 5 view .LVU4
  53              	.LVL1:
 655:Middlewares/lvgl/src/core/lv_obj_style.c ****     tr = _lv_ll_get_tail(&LV_GC_ROOT(_lv_obj_style_trans_ll));
  54              		.loc 1 655 5 view .LVU5
  55              		.loc 1 655 10 is_stmt 0 view .LVU6
  56 000c 2848     		ldr	r0, .L16
  57              	.LVL2:
  58              		.loc 1 655 10 view .LVU7
  59 000e FFF7FEFF 		bl	_lv_ll_get_tail
  60              	.LVL3:
  61              		.loc 1 655 10 view .LVU8
  62 0012 0446     		mov	r4, r0
  63              	.LVL4:
 656:Middlewares/lvgl/src/core/lv_obj_style.c ****     while(tr != NULL) {
  64              		.loc 1 656 5 is_stmt 1 view .LVU9
 654:Middlewares/lvgl/src/core/lv_obj_style.c ****     bool removed = false;
  65              		.loc 1 654 10 is_stmt 0 view .LVU10
  66 0014 4FF0000B 		mov	fp, #0
  67              		.loc 1 656 10 view .LVU11
  68 0018 07E0     		b	.L2
  69              	.LVL5:
  70              	.L5:
 657:Middlewares/lvgl/src/core/lv_obj_style.c ****         if(tr == tr_limit) break;
 658:Middlewares/lvgl/src/core/lv_obj_style.c **** 
 659:Middlewares/lvgl/src/core/lv_obj_style.c ****         /*'tr' might be deleted, so get the next object while 'tr' is valid*/
 660:Middlewares/lvgl/src/core/lv_obj_style.c ****         tr_prev = _lv_ll_get_prev(&LV_GC_ROOT(_lv_obj_style_trans_ll), tr);
 661:Middlewares/lvgl/src/core/lv_obj_style.c **** 
 662:Middlewares/lvgl/src/core/lv_obj_style.c ****         if(tr->obj == obj && (part == tr->selector || part == LV_PART_ANY) && (prop == tr->prop || 
  71              		.loc 1 662 90 discriminator 4 view .LVU12
  72 001a A388     		ldrh	r3, [r4, #4]
  73              		.loc 1 662 76 discriminator 4 view .LVU13
  74 001c 5345     		cmp	r3, r10
  75 001e 3FD0     		beq	.L12
  76              		.loc 1 662 97 discriminator 5 view .LVU14
  77 0020 4FF6FF73 		movw	r3, #65535
  78 0024 9A45     		cmp	r10, r3
  79 0026 3DD0     		beq	.L15
ARM GAS  /tmp/ccoxlgn6.s 			page 14


  80              	.LVL6:
  81              	.L4:
  82              		.loc 1 662 97 discriminator 5 view .LVU15
  83 0028 2C46     		mov	r4, r5
  84              	.LVL7:
  85              	.L2:
 656:Middlewares/lvgl/src/core/lv_obj_style.c ****     while(tr != NULL) {
  86              		.loc 1 656 10 is_stmt 1 view .LVU16
  87 002a 002C     		cmp	r4, #0
  88 002c 3CD0     		beq	.L3
 657:Middlewares/lvgl/src/core/lv_obj_style.c ****         if(tr == tr_limit) break;
  89              		.loc 1 657 9 view .LVU17
 657:Middlewares/lvgl/src/core/lv_obj_style.c ****         if(tr == tr_limit) break;
  90              		.loc 1 657 11 is_stmt 0 view .LVU18
  91 002e 4445     		cmp	r4, r8
  92 0030 3AD0     		beq	.L3
 660:Middlewares/lvgl/src/core/lv_obj_style.c **** 
  93              		.loc 1 660 9 is_stmt 1 view .LVU19
 660:Middlewares/lvgl/src/core/lv_obj_style.c **** 
  94              		.loc 1 660 19 is_stmt 0 view .LVU20
  95 0032 2146     		mov	r1, r4
  96 0034 1E48     		ldr	r0, .L16
  97 0036 FFF7FEFF 		bl	_lv_ll_get_prev
  98              	.LVL8:
  99 003a 0546     		mov	r5, r0
 100              	.LVL9:
 101              		.loc 1 662 9 is_stmt 1 view .LVU21
 102              		.loc 1 662 14 is_stmt 0 view .LVU22
 103 003c 2368     		ldr	r3, [r4]
 104              		.loc 1 662 11 view .LVU23
 105 003e B342     		cmp	r3, r6
 106 0040 F2D1     		bne	.L4
 107              		.loc 1 662 41 discriminator 1 view .LVU24
 108 0042 A368     		ldr	r3, [r4, #8]
 109              		.loc 1 662 27 discriminator 1 view .LVU25
 110 0044 4B45     		cmp	r3, r9
 111 0046 E8D0     		beq	.L5
 112              		.loc 1 662 52 discriminator 3 view .LVU26
 113 0048 B9F5702F 		cmp	r9, #983040
 114 004c ECD1     		bne	.L4
 115 004e E4E7     		b	.L5
 116              	.LVL10:
 117              	.L8:
 118              	.LBB49:
 663:Middlewares/lvgl/src/core/lv_obj_style.c ****             /*Remove the transitioned property from trans. style
 664:Middlewares/lvgl/src/core/lv_obj_style.c ****              *to allow changing it by normal styles*/
 665:Middlewares/lvgl/src/core/lv_obj_style.c ****             uint32_t i;
 666:Middlewares/lvgl/src/core/lv_obj_style.c ****             for(i = 0; i < obj->style_cnt; i++) {
 667:Middlewares/lvgl/src/core/lv_obj_style.c ****                 if(obj->styles[i].is_trans && (part == LV_PART_ANY || obj->styles[i].selector == pa
 668:Middlewares/lvgl/src/core/lv_obj_style.c ****                     lv_style_remove_prop(obj->styles[i].style, tr->prop);
 119              		.loc 1 668 21 is_stmt 1 view .LVU27
 120 0050 A188     		ldrh	r1, [r4, #4]
 121 0052 1058     		ldr	r0, [r2, r0]
 122 0054 FFF7FEFF 		bl	lv_style_remove_prop
 123              	.LVL11:
 669:Middlewares/lvgl/src/core/lv_obj_style.c ****                     lv_anim_del(tr, NULL);
 124              		.loc 1 669 21 view .LVU28
ARM GAS  /tmp/ccoxlgn6.s 			page 15


 125 0058 0021     		movs	r1, #0
 126 005a 2046     		mov	r0, r4
 127 005c FFF7FEFF 		bl	lv_anim_del
 128              	.LVL12:
 670:Middlewares/lvgl/src/core/lv_obj_style.c ****                     _lv_ll_remove(&LV_GC_ROOT(_lv_obj_style_trans_ll), tr);
 129              		.loc 1 670 21 view .LVU29
 130 0060 2146     		mov	r1, r4
 131 0062 1348     		ldr	r0, .L16
 132 0064 FFF7FEFF 		bl	_lv_ll_remove
 133              	.LVL13:
 671:Middlewares/lvgl/src/core/lv_obj_style.c ****                     lv_mem_free(tr);
 134              		.loc 1 671 21 view .LVU30
 135 0068 2046     		mov	r0, r4
 136 006a FFF7FEFF 		bl	lv_mem_free
 137              	.LVL14:
 672:Middlewares/lvgl/src/core/lv_obj_style.c ****                     removed = true;
 138              		.loc 1 672 21 view .LVU31
 139              		.loc 1 672 29 is_stmt 0 view .LVU32
 140 006e 4FF0010B 		mov	fp, #1
 141              	.LVL15:
 142              	.L7:
 666:Middlewares/lvgl/src/core/lv_obj_style.c ****                 if(obj->styles[i].is_trans && (part == LV_PART_ANY || obj->styles[i].selector == pa
 143              		.loc 1 666 44 is_stmt 1 discriminator 2 view .LVU33
 666:Middlewares/lvgl/src/core/lv_obj_style.c ****                 if(obj->styles[i].is_trans && (part == LV_PART_ANY || obj->styles[i].selector == pa
 144              		.loc 1 666 45 is_stmt 0 discriminator 2 view .LVU34
 145 0072 0137     		adds	r7, r7, #1
 146              	.LVL16:
 147              	.L9:
 666:Middlewares/lvgl/src/core/lv_obj_style.c ****                 if(obj->styles[i].is_trans && (part == LV_PART_ANY || obj->styles[i].selector == pa
 148              		.loc 1 666 24 is_stmt 1 discriminator 1 view .LVU35
 666:Middlewares/lvgl/src/core/lv_obj_style.c ****                 if(obj->styles[i].is_trans && (part == LV_PART_ANY || obj->styles[i].selector == pa
 149              		.loc 1 666 31 is_stmt 0 discriminator 1 view .LVU36
 150 0074 738C     		ldrh	r3, [r6, #34]
 151 0076 C3F3C503 		ubfx	r3, r3, #3, #6
 666:Middlewares/lvgl/src/core/lv_obj_style.c ****                 if(obj->styles[i].is_trans && (part == LV_PART_ANY || obj->styles[i].selector == pa
 152              		.loc 1 666 13 discriminator 1 view .LVU37
 153 007a BB42     		cmp	r3, r7
 154 007c D4D9     		bls	.L4
 667:Middlewares/lvgl/src/core/lv_obj_style.c ****                     lv_style_remove_prop(obj->styles[i].style, tr->prop);
 155              		.loc 1 667 17 is_stmt 1 view .LVU38
 667:Middlewares/lvgl/src/core/lv_obj_style.c ****                     lv_style_remove_prop(obj->styles[i].style, tr->prop);
 156              		.loc 1 667 23 is_stmt 0 view .LVU39
 157 007e F268     		ldr	r2, [r6, #12]
 667:Middlewares/lvgl/src/core/lv_obj_style.c ****                     lv_style_remove_prop(obj->styles[i].style, tr->prop);
 158              		.loc 1 667 31 view .LVU40
 159 0080 F800     		lsls	r0, r7, #3
 160 0082 02EBC703 		add	r3, r2, r7, lsl #3
 667:Middlewares/lvgl/src/core/lv_obj_style.c ****                     lv_style_remove_prop(obj->styles[i].style, tr->prop);
 161              		.loc 1 667 20 view .LVU41
 162 0086 D979     		ldrb	r1, [r3, #7]	@ zero_extendqisi2
 667:Middlewares/lvgl/src/core/lv_obj_style.c ****                     lv_style_remove_prop(obj->styles[i].style, tr->prop);
 163              		.loc 1 667 19 view .LVU42
 164 0088 11F0020F 		tst	r1, #2
 165 008c F1D0     		beq	.L7
 667:Middlewares/lvgl/src/core/lv_obj_style.c ****                     lv_style_remove_prop(obj->styles[i].style, tr->prop);
 166              		.loc 1 667 44 discriminator 1 view .LVU43
 167 008e B9F5702F 		cmp	r9, #983040
ARM GAS  /tmp/ccoxlgn6.s 			page 16


 168 0092 DDD0     		beq	.L8
 667:Middlewares/lvgl/src/core/lv_obj_style.c ****                     lv_style_remove_prop(obj->styles[i].style, tr->prop);
 169              		.loc 1 667 85 discriminator 2 view .LVU44
 170 0094 5B68     		ldr	r3, [r3, #4]
 171 0096 C3F31703 		ubfx	r3, r3, #0, #24
 667:Middlewares/lvgl/src/core/lv_obj_style.c ****                     lv_style_remove_prop(obj->styles[i].style, tr->prop);
 172              		.loc 1 667 68 discriminator 2 view .LVU45
 173 009a 4B45     		cmp	r3, r9
 174 009c E9D1     		bne	.L7
 175 009e D7E7     		b	.L8
 176              	.LVL17:
 177              	.L12:
 667:Middlewares/lvgl/src/core/lv_obj_style.c ****                     lv_style_remove_prop(obj->styles[i].style, tr->prop);
 178              		.loc 1 667 68 discriminator 2 view .LVU46
 179              	.LBE49:
 180 00a0 0027     		movs	r7, #0
 181 00a2 E7E7     		b	.L9
 182              	.L15:
 183 00a4 0027     		movs	r7, #0
 184 00a6 E5E7     		b	.L9
 185              	.LVL18:
 186              	.L3:
 673:Middlewares/lvgl/src/core/lv_obj_style.c ****                 }
 674:Middlewares/lvgl/src/core/lv_obj_style.c ****             }
 675:Middlewares/lvgl/src/core/lv_obj_style.c **** 
 676:Middlewares/lvgl/src/core/lv_obj_style.c ****         }
 677:Middlewares/lvgl/src/core/lv_obj_style.c ****         tr = tr_prev;
 678:Middlewares/lvgl/src/core/lv_obj_style.c ****     }
 679:Middlewares/lvgl/src/core/lv_obj_style.c ****     return removed;
 187              		.loc 1 679 5 is_stmt 1 view .LVU47
 680:Middlewares/lvgl/src/core/lv_obj_style.c **** }
 188              		.loc 1 680 1 is_stmt 0 view .LVU48
 189 00a8 5846     		mov	r0, fp
 190 00aa BDE8F88F 		pop	{r3, r4, r5, r6, r7, r8, r9, r10, fp, pc}
 191              	.LVL19:
 192              	.L17:
 193              		.loc 1 680 1 view .LVU49
 194 00ae 00BF     		.align	2
 195              	.L16:
 196 00b0 00000000 		.word	_lv_obj_style_trans_ll
 197              		.cfi_endproc
 198              	.LFE175:
 200              		.section	.text.refresh_children_style,"ax",%progbits
 201              		.align	1
 202              		.syntax unified
 203              		.thumb
 204              		.thumb_func
 205              		.fpu fpv5-d16
 207              	refresh_children_style:
 208              	.LVL20:
 209              	.LFB174:
 628:Middlewares/lvgl/src/core/lv_obj_style.c ****     uint32_t i;
 210              		.loc 1 628 1 is_stmt 1 view -0
 211              		.cfi_startproc
 212              		@ args = 0, pretend = 0, frame = 0
 213              		@ frame_needed = 0, uses_anonymous_args = 0
 628:Middlewares/lvgl/src/core/lv_obj_style.c ****     uint32_t i;
ARM GAS  /tmp/ccoxlgn6.s 			page 17


 214              		.loc 1 628 1 is_stmt 0 view .LVU51
 215 0000 F8B5     		push	{r3, r4, r5, r6, r7, lr}
 216              	.LCFI1:
 217              		.cfi_def_cfa_offset 24
 218              		.cfi_offset 3, -24
 219              		.cfi_offset 4, -20
 220              		.cfi_offset 5, -16
 221              		.cfi_offset 6, -12
 222              		.cfi_offset 7, -8
 223              		.cfi_offset 14, -4
 224 0002 0746     		mov	r7, r0
 629:Middlewares/lvgl/src/core/lv_obj_style.c ****     uint32_t child_cnt = lv_obj_get_child_cnt(obj);
 225              		.loc 1 629 5 is_stmt 1 view .LVU52
 630:Middlewares/lvgl/src/core/lv_obj_style.c ****     for(i = 0; i < child_cnt; i++) {
 226              		.loc 1 630 5 view .LVU53
 630:Middlewares/lvgl/src/core/lv_obj_style.c ****     for(i = 0; i < child_cnt; i++) {
 227              		.loc 1 630 26 is_stmt 0 view .LVU54
 228 0004 FFF7FEFF 		bl	lv_obj_get_child_cnt
 229              	.LVL21:
 630:Middlewares/lvgl/src/core/lv_obj_style.c ****     for(i = 0; i < child_cnt; i++) {
 230              		.loc 1 630 26 view .LVU55
 231 0008 0646     		mov	r6, r0
 232              	.LVL22:
 631:Middlewares/lvgl/src/core/lv_obj_style.c ****         lv_obj_t * child = lv_obj_get_child(obj, i);
 233              		.loc 1 631 5 is_stmt 1 view .LVU56
 631:Middlewares/lvgl/src/core/lv_obj_style.c ****         lv_obj_t * child = lv_obj_get_child(obj, i);
 234              		.loc 1 631 11 is_stmt 0 view .LVU57
 235 000a 0025     		movs	r5, #0
 631:Middlewares/lvgl/src/core/lv_obj_style.c ****         lv_obj_t * child = lv_obj_get_child(obj, i);
 236              		.loc 1 631 5 view .LVU58
 237 000c 12E0     		b	.L19
 238              	.LVL23:
 239              	.L20:
 240              	.LBB50:
 632:Middlewares/lvgl/src/core/lv_obj_style.c ****         lv_obj_invalidate(child);
 241              		.loc 1 632 9 is_stmt 1 discriminator 3 view .LVU59
 632:Middlewares/lvgl/src/core/lv_obj_style.c ****         lv_obj_invalidate(child);
 242              		.loc 1 632 28 is_stmt 0 discriminator 3 view .LVU60
 243 000e 2946     		mov	r1, r5
 244 0010 3846     		mov	r0, r7
 245 0012 FFF7FEFF 		bl	lv_obj_get_child
 246              	.LVL24:
 247 0016 0446     		mov	r4, r0
 248              	.LVL25:
 633:Middlewares/lvgl/src/core/lv_obj_style.c ****         lv_event_send(child, LV_EVENT_STYLE_CHANGED, NULL);
 249              		.loc 1 633 9 is_stmt 1 discriminator 3 view .LVU61
 250 0018 FFF7FEFF 		bl	lv_obj_invalidate
 251              	.LVL26:
 634:Middlewares/lvgl/src/core/lv_obj_style.c ****         lv_obj_invalidate(child);
 252              		.loc 1 634 9 discriminator 3 view .LVU62
 253 001c 0022     		movs	r2, #0
 254 001e 2421     		movs	r1, #36
 255 0020 2046     		mov	r0, r4
 256 0022 FFF7FEFF 		bl	lv_event_send
 257              	.LVL27:
 635:Middlewares/lvgl/src/core/lv_obj_style.c **** 
 258              		.loc 1 635 9 discriminator 3 view .LVU63
ARM GAS  /tmp/ccoxlgn6.s 			page 18


 259 0026 2046     		mov	r0, r4
 260 0028 FFF7FEFF 		bl	lv_obj_invalidate
 261              	.LVL28:
 637:Middlewares/lvgl/src/core/lv_obj_style.c ****     }
 262              		.loc 1 637 9 discriminator 3 view .LVU64
 263 002c 2046     		mov	r0, r4
 264 002e FFF7E7FF 		bl	refresh_children_style
 265              	.LVL29:
 266              	.LBE50:
 631:Middlewares/lvgl/src/core/lv_obj_style.c ****         lv_obj_t * child = lv_obj_get_child(obj, i);
 267              		.loc 1 631 31 discriminator 3 view .LVU65
 631:Middlewares/lvgl/src/core/lv_obj_style.c ****         lv_obj_t * child = lv_obj_get_child(obj, i);
 268              		.loc 1 631 32 is_stmt 0 discriminator 3 view .LVU66
 269 0032 0135     		adds	r5, r5, #1
 270              	.LVL30:
 271              	.L19:
 631:Middlewares/lvgl/src/core/lv_obj_style.c ****         lv_obj_t * child = lv_obj_get_child(obj, i);
 272              		.loc 1 631 16 is_stmt 1 discriminator 1 view .LVU67
 631:Middlewares/lvgl/src/core/lv_obj_style.c ****         lv_obj_t * child = lv_obj_get_child(obj, i);
 273              		.loc 1 631 5 is_stmt 0 discriminator 1 view .LVU68
 274 0034 B542     		cmp	r5, r6
 275 0036 EAD3     		bcc	.L20
 639:Middlewares/lvgl/src/core/lv_obj_style.c **** 
 276              		.loc 1 639 1 view .LVU69
 277 0038 F8BD     		pop	{r3, r4, r5, r6, r7, pc}
 639:Middlewares/lvgl/src/core/lv_obj_style.c **** 
 278              		.loc 1 639 1 view .LVU70
 279              		.cfi_endproc
 280              	.LFE174:
 282              		.section	.text.get_local_style,"ax",%progbits
 283              		.align	1
 284              		.syntax unified
 285              		.thumb
 286              		.thumb_func
 287              		.fpu fpv5-d16
 289              	get_local_style:
 290              	.LVL31:
 291              	.LFB169:
 465:Middlewares/lvgl/src/core/lv_obj_style.c ****     uint32_t i;
 292              		.loc 1 465 1 is_stmt 1 view -0
 293              		.cfi_startproc
 294              		@ args = 0, pretend = 0, frame = 0
 295              		@ frame_needed = 0, uses_anonymous_args = 0
 465:Middlewares/lvgl/src/core/lv_obj_style.c ****     uint32_t i;
 296              		.loc 1 465 1 is_stmt 0 view .LVU72
 297 0000 2DE9F041 		push	{r4, r5, r6, r7, r8, lr}
 298              	.LCFI2:
 299              		.cfi_def_cfa_offset 24
 300              		.cfi_offset 4, -24
 301              		.cfi_offset 5, -20
 302              		.cfi_offset 6, -16
 303              		.cfi_offset 7, -12
 304              		.cfi_offset 8, -8
 305              		.cfi_offset 14, -4
 306 0004 0446     		mov	r4, r0
 307 0006 0D46     		mov	r5, r1
 466:Middlewares/lvgl/src/core/lv_obj_style.c ****     for(i = 0; i < obj->style_cnt; i++) {
ARM GAS  /tmp/ccoxlgn6.s 			page 19


 308              		.loc 1 466 5 is_stmt 1 view .LVU73
 467:Middlewares/lvgl/src/core/lv_obj_style.c ****         if(obj->styles[i].is_local &&
 309              		.loc 1 467 5 view .LVU74
 310              	.LVL32:
 467:Middlewares/lvgl/src/core/lv_obj_style.c ****         if(obj->styles[i].is_local &&
 311              		.loc 1 467 11 is_stmt 0 view .LVU75
 312 0008 0022     		movs	r2, #0
 467:Middlewares/lvgl/src/core/lv_obj_style.c ****         if(obj->styles[i].is_local &&
 313              		.loc 1 467 5 view .LVU76
 314 000a 00E0     		b	.L23
 315              	.LVL33:
 316              	.L24:
 467:Middlewares/lvgl/src/core/lv_obj_style.c ****         if(obj->styles[i].is_local &&
 317              		.loc 1 467 36 is_stmt 1 discriminator 2 view .LVU77
 467:Middlewares/lvgl/src/core/lv_obj_style.c ****         if(obj->styles[i].is_local &&
 318              		.loc 1 467 37 is_stmt 0 discriminator 2 view .LVU78
 319 000c 0132     		adds	r2, r2, #1
 320              	.LVL34:
 321              	.L23:
 467:Middlewares/lvgl/src/core/lv_obj_style.c ****         if(obj->styles[i].is_local &&
 322              		.loc 1 467 16 is_stmt 1 discriminator 1 view .LVU79
 467:Middlewares/lvgl/src/core/lv_obj_style.c ****         if(obj->styles[i].is_local &&
 323              		.loc 1 467 23 is_stmt 0 discriminator 1 view .LVU80
 324 000e 638C     		ldrh	r3, [r4, #34]
 325 0010 C3F3C503 		ubfx	r3, r3, #3, #6
 467:Middlewares/lvgl/src/core/lv_obj_style.c ****         if(obj->styles[i].is_local &&
 326              		.loc 1 467 5 discriminator 1 view .LVU81
 327 0014 9342     		cmp	r3, r2
 328 0016 0DD9     		bls	.L33
 468:Middlewares/lvgl/src/core/lv_obj_style.c ****            obj->styles[i].selector == selector)
 329              		.loc 1 468 9 is_stmt 1 view .LVU82
 468:Middlewares/lvgl/src/core/lv_obj_style.c ****            obj->styles[i].selector == selector)
 330              		.loc 1 468 15 is_stmt 0 view .LVU83
 331 0018 E368     		ldr	r3, [r4, #12]
 468:Middlewares/lvgl/src/core/lv_obj_style.c ****            obj->styles[i].selector == selector)
 332              		.loc 1 468 23 view .LVU84
 333 001a 03EBC203 		add	r3, r3, r2, lsl #3
 468:Middlewares/lvgl/src/core/lv_obj_style.c ****            obj->styles[i].selector == selector)
 334              		.loc 1 468 12 view .LVU85
 335 001e D979     		ldrb	r1, [r3, #7]	@ zero_extendqisi2
 468:Middlewares/lvgl/src/core/lv_obj_style.c ****            obj->styles[i].selector == selector)
 336              		.loc 1 468 11 view .LVU86
 337 0020 11F0010F 		tst	r1, #1
 338 0024 F2D0     		beq	.L24
 469:Middlewares/lvgl/src/core/lv_obj_style.c ****         {
 339              		.loc 1 469 26 discriminator 1 view .LVU87
 340 0026 5968     		ldr	r1, [r3, #4]
 341 0028 C1F31701 		ubfx	r1, r1, #0, #24
 468:Middlewares/lvgl/src/core/lv_obj_style.c ****            obj->styles[i].selector == selector)
 342              		.loc 1 468 36 discriminator 1 view .LVU88
 343 002c A942     		cmp	r1, r5
 344 002e EDD1     		bne	.L24
 471:Middlewares/lvgl/src/core/lv_obj_style.c ****         }
 345              		.loc 1 471 13 is_stmt 1 view .LVU89
 471:Middlewares/lvgl/src/core/lv_obj_style.c ****         }
 346              		.loc 1 471 34 is_stmt 0 view .LVU90
 347 0030 1868     		ldr	r0, [r3]
ARM GAS  /tmp/ccoxlgn6.s 			page 20


 348              	.LVL35:
 471:Middlewares/lvgl/src/core/lv_obj_style.c ****         }
 349              		.loc 1 471 34 view .LVU91
 350 0032 46E0     		b	.L22
 351              	.LVL36:
 352              	.L33:
 475:Middlewares/lvgl/src/core/lv_obj_style.c ****     obj->styles = lv_mem_realloc(obj->styles, obj->style_cnt * sizeof(_lv_obj_style_t));
 353              		.loc 1 475 5 is_stmt 1 view .LVU92
 475:Middlewares/lvgl/src/core/lv_obj_style.c ****     obj->styles = lv_mem_realloc(obj->styles, obj->style_cnt * sizeof(_lv_obj_style_t));
 354              		.loc 1 475 19 is_stmt 0 view .LVU93
 355 0034 0133     		adds	r3, r3, #1
 356 0036 03F03F03 		and	r3, r3, #63
 357 003a 628C     		ldrh	r2, [r4, #34]
 358              	.LVL37:
 475:Middlewares/lvgl/src/core/lv_obj_style.c ****     obj->styles = lv_mem_realloc(obj->styles, obj->style_cnt * sizeof(_lv_obj_style_t));
 359              		.loc 1 475 19 view .LVU94
 360 003c 63F3C802 		bfi	r2, r3, #3, #6
 361 0040 6284     		strh	r2, [r4, #34]	@ movhi
 476:Middlewares/lvgl/src/core/lv_obj_style.c ****     LV_ASSERT_MALLOC(obj->styles);
 362              		.loc 1 476 5 is_stmt 1 view .LVU95
 476:Middlewares/lvgl/src/core/lv_obj_style.c ****     LV_ASSERT_MALLOC(obj->styles);
 363              		.loc 1 476 19 is_stmt 0 view .LVU96
 364 0042 D900     		lsls	r1, r3, #3
 365 0044 E068     		ldr	r0, [r4, #12]
 366              	.LVL38:
 476:Middlewares/lvgl/src/core/lv_obj_style.c ****     LV_ASSERT_MALLOC(obj->styles);
 367              		.loc 1 476 19 view .LVU97
 368 0046 FFF7FEFF 		bl	lv_mem_realloc
 369              	.LVL39:
 476:Middlewares/lvgl/src/core/lv_obj_style.c ****     LV_ASSERT_MALLOC(obj->styles);
 370              		.loc 1 476 17 view .LVU98
 371 004a E060     		str	r0, [r4, #12]
 477:Middlewares/lvgl/src/core/lv_obj_style.c **** 
 372              		.loc 1 477 5 is_stmt 1 view .LVU99
 477:Middlewares/lvgl/src/core/lv_obj_style.c **** 
 373              		.loc 1 477 5 view .LVU100
 374 004c B0B1     		cbz	r0, .L28
 477:Middlewares/lvgl/src/core/lv_obj_style.c **** 
 375              		.loc 1 477 5 discriminator 2 view .LVU101
 477:Middlewares/lvgl/src/core/lv_obj_style.c **** 
 376              		.loc 1 477 34 discriminator 2 view .LVU102
 479:Middlewares/lvgl/src/core/lv_obj_style.c ****         /*Copy only normal styles (not local and transition).
 377              		.loc 1 479 5 discriminator 2 view .LVU103
 479:Middlewares/lvgl/src/core/lv_obj_style.c ****         /*Copy only normal styles (not local and transition).
 378              		.loc 1 479 16 is_stmt 0 discriminator 2 view .LVU104
 379 004e 668C     		ldrh	r6, [r4, #34]
 380 0050 C6F3C506 		ubfx	r6, r6, #3, #6
 479:Middlewares/lvgl/src/core/lv_obj_style.c ****         /*Copy only normal styles (not local and transition).
 381              		.loc 1 479 28 discriminator 2 view .LVU105
 382 0054 013E     		subs	r6, r6, #1
 383              	.LVL40:
 384              	.L29:
 479:Middlewares/lvgl/src/core/lv_obj_style.c ****         /*Copy only normal styles (not local and transition).
 385              		.loc 1 479 33 is_stmt 1 discriminator 1 view .LVU106
 479:Middlewares/lvgl/src/core/lv_obj_style.c ****         /*Copy only normal styles (not local and transition).
 386              		.loc 1 479 5 is_stmt 0 discriminator 1 view .LVU107
 387 0056 96B1     		cbz	r6, .L30
ARM GAS  /tmp/ccoxlgn6.s 			page 21


 482:Middlewares/lvgl/src/core/lv_obj_style.c ****         obj->styles[i] = obj->styles[i - 1];
 388              		.loc 1 482 9 is_stmt 1 view .LVU108
 482:Middlewares/lvgl/src/core/lv_obj_style.c ****         obj->styles[i] = obj->styles[i - 1];
 389              		.loc 1 482 15 is_stmt 0 view .LVU109
 390 0058 E268     		ldr	r2, [r4, #12]
 482:Middlewares/lvgl/src/core/lv_obj_style.c ****         obj->styles[i] = obj->styles[i - 1];
 391              		.loc 1 482 23 view .LVU110
 392 005a 6FF06043 		mvn	r3, #-536870912
 393 005e 3344     		add	r3, r3, r6
 394 0060 02EBC303 		add	r3, r2, r3, lsl #3
 482:Middlewares/lvgl/src/core/lv_obj_style.c ****         obj->styles[i] = obj->styles[i - 1];
 395              		.loc 1 482 40 view .LVU111
 396 0064 D979     		ldrb	r1, [r3, #7]	@ zero_extendqisi2
 482:Middlewares/lvgl/src/core/lv_obj_style.c ****         obj->styles[i] = obj->styles[i - 1];
 397              		.loc 1 482 11 view .LVU112
 398 0066 11F0030F 		tst	r1, #3
 399 006a 08D1     		bne	.L30
 483:Middlewares/lvgl/src/core/lv_obj_style.c ****     }
 400              		.loc 1 483 9 is_stmt 1 discriminator 2 view .LVU113
 483:Middlewares/lvgl/src/core/lv_obj_style.c ****     }
 401              		.loc 1 483 20 is_stmt 0 discriminator 2 view .LVU114
 402 006c 02EBC602 		add	r2, r2, r6, lsl #3
 483:Middlewares/lvgl/src/core/lv_obj_style.c ****     }
 403              		.loc 1 483 24 discriminator 2 view .LVU115
 404 0070 93E80300 		ldm	r3, {r0, r1}
 405 0074 82E80300 		stm	r2, {r0, r1}
 479:Middlewares/lvgl/src/core/lv_obj_style.c ****         /*Copy only normal styles (not local and transition).
 406              		.loc 1 479 41 is_stmt 1 discriminator 2 view .LVU116
 479:Middlewares/lvgl/src/core/lv_obj_style.c ****         /*Copy only normal styles (not local and transition).
 407              		.loc 1 479 42 is_stmt 0 discriminator 2 view .LVU117
 408 0078 013E     		subs	r6, r6, #1
 409              	.LVL41:
 479:Middlewares/lvgl/src/core/lv_obj_style.c ****         /*Copy only normal styles (not local and transition).
 410              		.loc 1 479 42 discriminator 2 view .LVU118
 411 007a ECE7     		b	.L29
 412              	.LVL42:
 413              	.L28:
 477:Middlewares/lvgl/src/core/lv_obj_style.c **** 
 414              		.loc 1 477 5 is_stmt 1 discriminator 1 view .LVU119
 477:Middlewares/lvgl/src/core/lv_obj_style.c **** 
 415              		.loc 1 477 5 discriminator 1 view .LVU120
 477:Middlewares/lvgl/src/core/lv_obj_style.c **** 
 416              		.loc 1 477 5 discriminator 1 view .LVU121
 477:Middlewares/lvgl/src/core/lv_obj_style.c **** 
 417              		.loc 1 477 5 discriminator 1 view .LVU122
 418 007c FEE7     		b	.L28
 419              	.LVL43:
 420              	.L30:
 486:Middlewares/lvgl/src/core/lv_obj_style.c ****     obj->styles[i].style = lv_mem_alloc(sizeof(lv_style_t));
 421              		.loc 1 486 5 view .LVU123
 486:Middlewares/lvgl/src/core/lv_obj_style.c ****     obj->styles[i].style = lv_mem_alloc(sizeof(lv_style_t));
 422              		.loc 1 486 22 is_stmt 0 view .LVU124
 423 007e E068     		ldr	r0, [r4, #12]
 486:Middlewares/lvgl/src/core/lv_obj_style.c ****     obj->styles[i].style = lv_mem_alloc(sizeof(lv_style_t));
 424              		.loc 1 486 30 view .LVU125
 425 0080 F700     		lsls	r7, r6, #3
 486:Middlewares/lvgl/src/core/lv_obj_style.c ****     obj->styles[i].style = lv_mem_alloc(sizeof(lv_style_t));
ARM GAS  /tmp/ccoxlgn6.s 			page 22


 426              		.loc 1 486 5 view .LVU126
 427 0082 0821     		movs	r1, #8
 428 0084 00EBC600 		add	r0, r0, r6, lsl #3
 429 0088 FFF7FEFF 		bl	lv_memset_00
 430              	.LVL44:
 487:Middlewares/lvgl/src/core/lv_obj_style.c ****     lv_style_init(obj->styles[i].style);
 431              		.loc 1 487 5 is_stmt 1 view .LVU127
 487:Middlewares/lvgl/src/core/lv_obj_style.c ****     lv_style_init(obj->styles[i].style);
 432              		.loc 1 487 8 is_stmt 0 view .LVU128
 433 008c D4F80C80 		ldr	r8, [r4, #12]
 487:Middlewares/lvgl/src/core/lv_obj_style.c ****     lv_style_init(obj->styles[i].style);
 434              		.loc 1 487 28 view .LVU129
 435 0090 0820     		movs	r0, #8
 436 0092 FFF7FEFF 		bl	lv_mem_alloc
 437              	.LVL45:
 487:Middlewares/lvgl/src/core/lv_obj_style.c ****     lv_style_init(obj->styles[i].style);
 438              		.loc 1 487 26 view .LVU130
 439 0096 48F83600 		str	r0, [r8, r6, lsl #3]
 488:Middlewares/lvgl/src/core/lv_obj_style.c ****     obj->styles[i].is_local = 1;
 440              		.loc 1 488 5 is_stmt 1 view .LVU131
 488:Middlewares/lvgl/src/core/lv_obj_style.c ****     obj->styles[i].is_local = 1;
 441              		.loc 1 488 22 is_stmt 0 view .LVU132
 442 009a E368     		ldr	r3, [r4, #12]
 488:Middlewares/lvgl/src/core/lv_obj_style.c ****     obj->styles[i].is_local = 1;
 443              		.loc 1 488 5 view .LVU133
 444 009c 53F83600 		ldr	r0, [r3, r6, lsl #3]
 445 00a0 FFF7FEFF 		bl	lv_style_init
 446              	.LVL46:
 489:Middlewares/lvgl/src/core/lv_obj_style.c ****     obj->styles[i].selector = selector;
 447              		.loc 1 489 5 is_stmt 1 view .LVU134
 489:Middlewares/lvgl/src/core/lv_obj_style.c ****     obj->styles[i].selector = selector;
 448              		.loc 1 489 8 is_stmt 0 view .LVU135
 449 00a4 E368     		ldr	r3, [r4, #12]
 489:Middlewares/lvgl/src/core/lv_obj_style.c ****     obj->styles[i].selector = selector;
 450              		.loc 1 489 16 view .LVU136
 451 00a6 3B44     		add	r3, r3, r7
 489:Middlewares/lvgl/src/core/lv_obj_style.c ****     obj->styles[i].selector = selector;
 452              		.loc 1 489 29 view .LVU137
 453 00a8 DA79     		ldrb	r2, [r3, #7]	@ zero_extendqisi2
 454 00aa 42F00102 		orr	r2, r2, #1
 455 00ae DA71     		strb	r2, [r3, #7]
 490:Middlewares/lvgl/src/core/lv_obj_style.c ****     return obj->styles[i].style;
 456              		.loc 1 490 5 is_stmt 1 view .LVU138
 490:Middlewares/lvgl/src/core/lv_obj_style.c ****     return obj->styles[i].style;
 457              		.loc 1 490 8 is_stmt 0 view .LVU139
 458 00b0 E368     		ldr	r3, [r4, #12]
 490:Middlewares/lvgl/src/core/lv_obj_style.c ****     return obj->styles[i].style;
 459              		.loc 1 490 16 view .LVU140
 460 00b2 3B44     		add	r3, r3, r7
 490:Middlewares/lvgl/src/core/lv_obj_style.c ****     return obj->styles[i].style;
 461              		.loc 1 490 29 view .LVU141
 462 00b4 5A68     		ldr	r2, [r3, #4]
 463 00b6 65F31702 		bfi	r2, r5, #0, #24
 464              	.LVL47:
 490:Middlewares/lvgl/src/core/lv_obj_style.c ****     return obj->styles[i].style;
 465              		.loc 1 490 29 view .LVU142
 466 00ba 5A60     		str	r2, [r3, #4]
ARM GAS  /tmp/ccoxlgn6.s 			page 23


 491:Middlewares/lvgl/src/core/lv_obj_style.c **** }
 467              		.loc 1 491 5 is_stmt 1 view .LVU143
 491:Middlewares/lvgl/src/core/lv_obj_style.c **** }
 468              		.loc 1 491 15 is_stmt 0 view .LVU144
 469 00bc E368     		ldr	r3, [r4, #12]
 491:Middlewares/lvgl/src/core/lv_obj_style.c **** }
 470              		.loc 1 491 26 view .LVU145
 471 00be 53F83600 		ldr	r0, [r3, r6, lsl #3]
 472              	.LVL48:
 473              	.L22:
 492:Middlewares/lvgl/src/core/lv_obj_style.c **** 
 474              		.loc 1 492 1 view .LVU146
 475 00c2 BDE8F081 		pop	{r4, r5, r6, r7, r8, pc}
 492:Middlewares/lvgl/src/core/lv_obj_style.c **** 
 476              		.loc 1 492 1 view .LVU147
 477              		.cfi_endproc
 478              	.LFE169:
 480              		.section	.text.get_trans_style,"ax",%progbits
 481              		.align	1
 482              		.syntax unified
 483              		.thumb
 484              		.thumb_func
 485              		.fpu fpv5-d16
 487              	get_trans_style:
 488              	.LVL49:
 489              	.LFB170:
 503:Middlewares/lvgl/src/core/lv_obj_style.c ****     uint32_t i;
 490              		.loc 1 503 1 is_stmt 1 view -0
 491              		.cfi_startproc
 492              		@ args = 0, pretend = 0, frame = 0
 493              		@ frame_needed = 0, uses_anonymous_args = 0
 503:Middlewares/lvgl/src/core/lv_obj_style.c ****     uint32_t i;
 494              		.loc 1 503 1 is_stmt 0 view .LVU149
 495 0000 70B5     		push	{r4, r5, r6, lr}
 496              	.LCFI3:
 497              		.cfi_def_cfa_offset 16
 498              		.cfi_offset 4, -16
 499              		.cfi_offset 5, -12
 500              		.cfi_offset 6, -8
 501              		.cfi_offset 14, -4
 502 0002 0446     		mov	r4, r0
 503 0004 0D46     		mov	r5, r1
 504:Middlewares/lvgl/src/core/lv_obj_style.c ****     for(i = 0; i < obj->style_cnt; i++) {
 504              		.loc 1 504 5 is_stmt 1 view .LVU150
 505:Middlewares/lvgl/src/core/lv_obj_style.c ****         if(obj->styles[i].is_trans && obj->styles[i].selector == selector) break;
 505              		.loc 1 505 5 view .LVU151
 506              	.LVL50:
 505:Middlewares/lvgl/src/core/lv_obj_style.c ****         if(obj->styles[i].is_trans && obj->styles[i].selector == selector) break;
 507              		.loc 1 505 11 is_stmt 0 view .LVU152
 508 0006 0020     		movs	r0, #0
 509              	.LVL51:
 505:Middlewares/lvgl/src/core/lv_obj_style.c ****         if(obj->styles[i].is_trans && obj->styles[i].selector == selector) break;
 510              		.loc 1 505 5 view .LVU153
 511 0008 00E0     		b	.L35
 512              	.LVL52:
 513              	.L36:
 505:Middlewares/lvgl/src/core/lv_obj_style.c ****         if(obj->styles[i].is_trans && obj->styles[i].selector == selector) break;
ARM GAS  /tmp/ccoxlgn6.s 			page 24


 514              		.loc 1 505 36 is_stmt 1 discriminator 2 view .LVU154
 505:Middlewares/lvgl/src/core/lv_obj_style.c ****         if(obj->styles[i].is_trans && obj->styles[i].selector == selector) break;
 515              		.loc 1 505 37 is_stmt 0 discriminator 2 view .LVU155
 516 000a 0130     		adds	r0, r0, #1
 517              	.LVL53:
 518              	.L35:
 505:Middlewares/lvgl/src/core/lv_obj_style.c ****         if(obj->styles[i].is_trans && obj->styles[i].selector == selector) break;
 519              		.loc 1 505 16 is_stmt 1 discriminator 1 view .LVU156
 505:Middlewares/lvgl/src/core/lv_obj_style.c ****         if(obj->styles[i].is_trans && obj->styles[i].selector == selector) break;
 520              		.loc 1 505 23 is_stmt 0 discriminator 1 view .LVU157
 521 000c 628C     		ldrh	r2, [r4, #34]
 522 000e C2F3C502 		ubfx	r2, r2, #3, #6
 505:Middlewares/lvgl/src/core/lv_obj_style.c ****         if(obj->styles[i].is_trans && obj->styles[i].selector == selector) break;
 523              		.loc 1 505 5 discriminator 1 view .LVU158
 524 0012 8242     		cmp	r2, r0
 525 0014 0BD9     		bls	.L37
 506:Middlewares/lvgl/src/core/lv_obj_style.c ****     }
 526              		.loc 1 506 9 is_stmt 1 view .LVU159
 506:Middlewares/lvgl/src/core/lv_obj_style.c ****     }
 527              		.loc 1 506 15 is_stmt 0 view .LVU160
 528 0016 E368     		ldr	r3, [r4, #12]
 506:Middlewares/lvgl/src/core/lv_obj_style.c ****     }
 529              		.loc 1 506 23 view .LVU161
 530 0018 03EBC003 		add	r3, r3, r0, lsl #3
 506:Middlewares/lvgl/src/core/lv_obj_style.c ****     }
 531              		.loc 1 506 12 view .LVU162
 532 001c D979     		ldrb	r1, [r3, #7]	@ zero_extendqisi2
 506:Middlewares/lvgl/src/core/lv_obj_style.c ****     }
 533              		.loc 1 506 11 view .LVU163
 534 001e 11F0020F 		tst	r1, #2
 535 0022 F2D0     		beq	.L36
 506:Middlewares/lvgl/src/core/lv_obj_style.c ****     }
 536              		.loc 1 506 53 discriminator 1 view .LVU164
 537 0024 5B68     		ldr	r3, [r3, #4]
 538 0026 C3F31703 		ubfx	r3, r3, #0, #24
 506:Middlewares/lvgl/src/core/lv_obj_style.c ****     }
 539              		.loc 1 506 36 discriminator 1 view .LVU165
 540 002a AB42     		cmp	r3, r5
 541 002c EDD1     		bne	.L36
 542              	.L37:
 510:Middlewares/lvgl/src/core/lv_obj_style.c **** 
 543              		.loc 1 510 5 is_stmt 1 view .LVU166
 510:Middlewares/lvgl/src/core/lv_obj_style.c **** 
 544              		.loc 1 510 7 is_stmt 0 view .LVU167
 545 002e 8242     		cmp	r2, r0
 546 0030 03D0     		beq	.L39
 510:Middlewares/lvgl/src/core/lv_obj_style.c **** 
 547              		.loc 1 510 29 is_stmt 1 discriminator 1 view .LVU168
 510:Middlewares/lvgl/src/core/lv_obj_style.c **** 
 548              		.loc 1 510 40 is_stmt 0 discriminator 1 view .LVU169
 549 0032 E368     		ldr	r3, [r4, #12]
 510:Middlewares/lvgl/src/core/lv_obj_style.c **** 
 550              		.loc 1 510 36 discriminator 1 view .LVU170
 551 0034 03EBC000 		add	r0, r3, r0, lsl #3
 552              	.LVL54:
 553              	.L34:
 525:Middlewares/lvgl/src/core/lv_obj_style.c **** 
ARM GAS  /tmp/ccoxlgn6.s 			page 25


 554              		.loc 1 525 1 view .LVU171
 555 0038 70BD     		pop	{r4, r5, r6, pc}
 556              	.LVL55:
 557              	.L39:
 512:Middlewares/lvgl/src/core/lv_obj_style.c ****     obj->styles = lv_mem_realloc(obj->styles, obj->style_cnt * sizeof(_lv_obj_style_t));
 558              		.loc 1 512 5 is_stmt 1 view .LVU172
 512:Middlewares/lvgl/src/core/lv_obj_style.c ****     obj->styles = lv_mem_realloc(obj->styles, obj->style_cnt * sizeof(_lv_obj_style_t));
 559              		.loc 1 512 19 is_stmt 0 view .LVU173
 560 003a 0132     		adds	r2, r2, #1
 561 003c 02F03F02 		and	r2, r2, #63
 562 0040 638C     		ldrh	r3, [r4, #34]
 563 0042 62F3C803 		bfi	r3, r2, #3, #6
 564 0046 6384     		strh	r3, [r4, #34]	@ movhi
 513:Middlewares/lvgl/src/core/lv_obj_style.c **** 
 565              		.loc 1 513 5 is_stmt 1 view .LVU174
 513:Middlewares/lvgl/src/core/lv_obj_style.c **** 
 566              		.loc 1 513 19 is_stmt 0 view .LVU175
 567 0048 D100     		lsls	r1, r2, #3
 568 004a E068     		ldr	r0, [r4, #12]
 569              	.LVL56:
 513:Middlewares/lvgl/src/core/lv_obj_style.c **** 
 570              		.loc 1 513 19 view .LVU176
 571 004c FFF7FEFF 		bl	lv_mem_realloc
 572              	.LVL57:
 513:Middlewares/lvgl/src/core/lv_obj_style.c **** 
 573              		.loc 1 513 17 view .LVU177
 574 0050 E060     		str	r0, [r4, #12]
 515:Middlewares/lvgl/src/core/lv_obj_style.c ****         obj->styles[i] = obj->styles[i - 1];
 575              		.loc 1 515 5 is_stmt 1 view .LVU178
 515:Middlewares/lvgl/src/core/lv_obj_style.c ****         obj->styles[i] = obj->styles[i - 1];
 576              		.loc 1 515 16 is_stmt 0 view .LVU179
 577 0052 668C     		ldrh	r6, [r4, #34]
 578 0054 C6F3C506 		ubfx	r6, r6, #3, #6
 515:Middlewares/lvgl/src/core/lv_obj_style.c ****         obj->styles[i] = obj->styles[i - 1];
 579              		.loc 1 515 28 view .LVU180
 580 0058 013E     		subs	r6, r6, #1
 581              	.LVL58:
 515:Middlewares/lvgl/src/core/lv_obj_style.c ****         obj->styles[i] = obj->styles[i - 1];
 582              		.loc 1 515 5 view .LVU181
 583 005a 0CE0     		b	.L41
 584              	.L42:
 516:Middlewares/lvgl/src/core/lv_obj_style.c ****     }
 585              		.loc 1 516 9 is_stmt 1 discriminator 3 view .LVU182
 516:Middlewares/lvgl/src/core/lv_obj_style.c ****     }
 586              		.loc 1 516 29 is_stmt 0 discriminator 3 view .LVU183
 587 005c E268     		ldr	r2, [r4, #12]
 516:Middlewares/lvgl/src/core/lv_obj_style.c ****     }
 588              		.loc 1 516 37 discriminator 3 view .LVU184
 589 005e 6FF06043 		mvn	r3, #-536870912
 590 0062 3344     		add	r3, r3, r6
 591 0064 02EBC303 		add	r3, r2, r3, lsl #3
 516:Middlewares/lvgl/src/core/lv_obj_style.c ****     }
 592              		.loc 1 516 20 discriminator 3 view .LVU185
 593 0068 02EBC602 		add	r2, r2, r6, lsl #3
 516:Middlewares/lvgl/src/core/lv_obj_style.c ****     }
 594              		.loc 1 516 24 discriminator 3 view .LVU186
 595 006c 93E80300 		ldm	r3, {r0, r1}
ARM GAS  /tmp/ccoxlgn6.s 			page 26


 596 0070 82E80300 		stm	r2, {r0, r1}
 515:Middlewares/lvgl/src/core/lv_obj_style.c ****         obj->styles[i] = obj->styles[i - 1];
 597              		.loc 1 515 41 is_stmt 1 discriminator 3 view .LVU187
 515:Middlewares/lvgl/src/core/lv_obj_style.c ****         obj->styles[i] = obj->styles[i - 1];
 598              		.loc 1 515 42 is_stmt 0 discriminator 3 view .LVU188
 599 0074 013E     		subs	r6, r6, #1
 600              	.LVL59:
 601              	.L41:
 515:Middlewares/lvgl/src/core/lv_obj_style.c ****         obj->styles[i] = obj->styles[i - 1];
 602              		.loc 1 515 33 is_stmt 1 discriminator 1 view .LVU189
 515:Middlewares/lvgl/src/core/lv_obj_style.c ****         obj->styles[i] = obj->styles[i - 1];
 603              		.loc 1 515 5 is_stmt 0 discriminator 1 view .LVU190
 604 0076 002E     		cmp	r6, #0
 605 0078 F0D1     		bne	.L42
 519:Middlewares/lvgl/src/core/lv_obj_style.c ****     obj->styles[0].style = lv_mem_alloc(sizeof(lv_style_t));
 606              		.loc 1 519 5 is_stmt 1 view .LVU191
 607 007a 0821     		movs	r1, #8
 608 007c E068     		ldr	r0, [r4, #12]
 609 007e FFF7FEFF 		bl	lv_memset_00
 610              	.LVL60:
 520:Middlewares/lvgl/src/core/lv_obj_style.c ****     lv_style_init(obj->styles[0].style);
 611              		.loc 1 520 5 view .LVU192
 520:Middlewares/lvgl/src/core/lv_obj_style.c ****     lv_style_init(obj->styles[0].style);
 612              		.loc 1 520 8 is_stmt 0 view .LVU193
 613 0082 E668     		ldr	r6, [r4, #12]
 614              	.LVL61:
 520:Middlewares/lvgl/src/core/lv_obj_style.c ****     lv_style_init(obj->styles[0].style);
 615              		.loc 1 520 28 view .LVU194
 616 0084 0820     		movs	r0, #8
 617 0086 FFF7FEFF 		bl	lv_mem_alloc
 618              	.LVL62:
 520:Middlewares/lvgl/src/core/lv_obj_style.c ****     lv_style_init(obj->styles[0].style);
 619              		.loc 1 520 26 view .LVU195
 620 008a 3060     		str	r0, [r6]
 521:Middlewares/lvgl/src/core/lv_obj_style.c ****     obj->styles[0].is_trans = 1;
 621              		.loc 1 521 5 is_stmt 1 view .LVU196
 521:Middlewares/lvgl/src/core/lv_obj_style.c ****     obj->styles[0].is_trans = 1;
 622              		.loc 1 521 22 is_stmt 0 view .LVU197
 623 008c E368     		ldr	r3, [r4, #12]
 521:Middlewares/lvgl/src/core/lv_obj_style.c ****     obj->styles[0].is_trans = 1;
 624              		.loc 1 521 5 view .LVU198
 625 008e 1868     		ldr	r0, [r3]
 626 0090 FFF7FEFF 		bl	lv_style_init
 627              	.LVL63:
 522:Middlewares/lvgl/src/core/lv_obj_style.c ****     obj->styles[0].selector = selector;
 628              		.loc 1 522 5 is_stmt 1 view .LVU199
 522:Middlewares/lvgl/src/core/lv_obj_style.c ****     obj->styles[0].selector = selector;
 629              		.loc 1 522 8 is_stmt 0 view .LVU200
 630 0094 E268     		ldr	r2, [r4, #12]
 522:Middlewares/lvgl/src/core/lv_obj_style.c ****     obj->styles[0].selector = selector;
 631              		.loc 1 522 29 view .LVU201
 632 0096 D379     		ldrb	r3, [r2, #7]	@ zero_extendqisi2
 633 0098 43F00203 		orr	r3, r3, #2
 634 009c D371     		strb	r3, [r2, #7]
 523:Middlewares/lvgl/src/core/lv_obj_style.c ****     return &obj->styles[0];
 635              		.loc 1 523 5 is_stmt 1 view .LVU202
 523:Middlewares/lvgl/src/core/lv_obj_style.c ****     return &obj->styles[0];
ARM GAS  /tmp/ccoxlgn6.s 			page 27


 636              		.loc 1 523 8 is_stmt 0 view .LVU203
 637 009e E368     		ldr	r3, [r4, #12]
 523:Middlewares/lvgl/src/core/lv_obj_style.c ****     return &obj->styles[0];
 638              		.loc 1 523 29 view .LVU204
 639 00a0 5A68     		ldr	r2, [r3, #4]
 640 00a2 65F31702 		bfi	r2, r5, #0, #24
 641              	.LVL64:
 523:Middlewares/lvgl/src/core/lv_obj_style.c ****     return &obj->styles[0];
 642              		.loc 1 523 29 view .LVU205
 643 00a6 5A60     		str	r2, [r3, #4]
 524:Middlewares/lvgl/src/core/lv_obj_style.c **** }
 644              		.loc 1 524 5 is_stmt 1 view .LVU206
 524:Middlewares/lvgl/src/core/lv_obj_style.c **** }
 645              		.loc 1 524 12 is_stmt 0 view .LVU207
 646 00a8 E068     		ldr	r0, [r4, #12]
 647 00aa C5E7     		b	.L34
 648              		.cfi_endproc
 649              	.LFE170:
 651              		.section	.text.fade_anim_cb,"ax",%progbits
 652              		.align	1
 653              		.syntax unified
 654              		.thumb
 655              		.thumb_func
 656              		.fpu fpv5-d16
 658              	fade_anim_cb:
 659              	.LVL65:
 660              	.LFB179:
 681:Middlewares/lvgl/src/core/lv_obj_style.c **** 
 682:Middlewares/lvgl/src/core/lv_obj_style.c **** static void trans_anim_cb(void * _tr, int32_t v)
 683:Middlewares/lvgl/src/core/lv_obj_style.c **** {
 684:Middlewares/lvgl/src/core/lv_obj_style.c ****     trans_t * tr = _tr;
 685:Middlewares/lvgl/src/core/lv_obj_style.c ****     lv_obj_t * obj = tr->obj;
 686:Middlewares/lvgl/src/core/lv_obj_style.c **** 
 687:Middlewares/lvgl/src/core/lv_obj_style.c ****     uint32_t i;
 688:Middlewares/lvgl/src/core/lv_obj_style.c ****     for(i = 0; i < obj->style_cnt; i++) {
 689:Middlewares/lvgl/src/core/lv_obj_style.c ****         if(obj->styles[i].is_trans == 0 || obj->styles[i].selector != tr->selector) continue;
 690:Middlewares/lvgl/src/core/lv_obj_style.c **** 
 691:Middlewares/lvgl/src/core/lv_obj_style.c ****         lv_style_value_t value_final;
 692:Middlewares/lvgl/src/core/lv_obj_style.c ****         switch (tr->prop) {
 693:Middlewares/lvgl/src/core/lv_obj_style.c **** 
 694:Middlewares/lvgl/src/core/lv_obj_style.c ****             case LV_STYLE_BORDER_SIDE:
 695:Middlewares/lvgl/src/core/lv_obj_style.c ****             case LV_STYLE_BORDER_POST:
 696:Middlewares/lvgl/src/core/lv_obj_style.c ****             case LV_STYLE_BLEND_MODE:
 697:Middlewares/lvgl/src/core/lv_obj_style.c ****                 if(v < 255) value_final.num = tr->start_value.num;
 698:Middlewares/lvgl/src/core/lv_obj_style.c ****                 else value_final.num = tr->end_value.num;
 699:Middlewares/lvgl/src/core/lv_obj_style.c ****                 break;
 700:Middlewares/lvgl/src/core/lv_obj_style.c ****             case LV_STYLE_TRANSITION:
 701:Middlewares/lvgl/src/core/lv_obj_style.c ****             case LV_STYLE_TEXT_FONT:
 702:Middlewares/lvgl/src/core/lv_obj_style.c ****                 if(v < 255) value_final.ptr = tr->start_value.ptr;
 703:Middlewares/lvgl/src/core/lv_obj_style.c ****                 else value_final.ptr = tr->end_value.ptr;
 704:Middlewares/lvgl/src/core/lv_obj_style.c ****                 break;
 705:Middlewares/lvgl/src/core/lv_obj_style.c ****             case LV_STYLE_COLOR_FILTER_DSC:
 706:Middlewares/lvgl/src/core/lv_obj_style.c ****                 if(tr->start_value.ptr == NULL) value_final.ptr = tr->end_value.ptr;
 707:Middlewares/lvgl/src/core/lv_obj_style.c ****                 else if(tr->end_value.ptr == NULL) value_final.ptr = tr->start_value.ptr;
 708:Middlewares/lvgl/src/core/lv_obj_style.c ****                 else if(v < 128) value_final.ptr = tr->start_value.ptr;
 709:Middlewares/lvgl/src/core/lv_obj_style.c ****                 else value_final.ptr = tr->end_value.ptr;
 710:Middlewares/lvgl/src/core/lv_obj_style.c ****                 break;
ARM GAS  /tmp/ccoxlgn6.s 			page 28


 711:Middlewares/lvgl/src/core/lv_obj_style.c ****             case LV_STYLE_BG_COLOR:
 712:Middlewares/lvgl/src/core/lv_obj_style.c ****             case LV_STYLE_BORDER_COLOR:
 713:Middlewares/lvgl/src/core/lv_obj_style.c ****             case LV_STYLE_TEXT_COLOR:
 714:Middlewares/lvgl/src/core/lv_obj_style.c ****             case LV_STYLE_SHADOW_COLOR:
 715:Middlewares/lvgl/src/core/lv_obj_style.c ****             case LV_STYLE_OUTLINE_COLOR:
 716:Middlewares/lvgl/src/core/lv_obj_style.c ****             case LV_STYLE_IMG_RECOLOR:
 717:Middlewares/lvgl/src/core/lv_obj_style.c ****                 if(v <= 0) value_final.color = tr->start_value.color;
 718:Middlewares/lvgl/src/core/lv_obj_style.c ****                 else if(v >= 255) value_final.color = tr->end_value.color;
 719:Middlewares/lvgl/src/core/lv_obj_style.c ****                 else value_final.color = lv_color_mix(tr->end_value.color, tr->start_value.color, v
 720:Middlewares/lvgl/src/core/lv_obj_style.c ****                 break;
 721:Middlewares/lvgl/src/core/lv_obj_style.c **** 
 722:Middlewares/lvgl/src/core/lv_obj_style.c ****             default:
 723:Middlewares/lvgl/src/core/lv_obj_style.c ****                 if(v == 0) value_final.num = tr->start_value.num;
 724:Middlewares/lvgl/src/core/lv_obj_style.c ****                 else if(v == 255) value_final.num = tr->end_value.num;
 725:Middlewares/lvgl/src/core/lv_obj_style.c ****                 else value_final.num = tr->start_value.num + ((int32_t)((int32_t)(tr->end_value.num
 726:Middlewares/lvgl/src/core/lv_obj_style.c ****                 break;
 727:Middlewares/lvgl/src/core/lv_obj_style.c ****         }
 728:Middlewares/lvgl/src/core/lv_obj_style.c **** 
 729:Middlewares/lvgl/src/core/lv_obj_style.c ****         lv_style_value_t old_value;
 730:Middlewares/lvgl/src/core/lv_obj_style.c ****         bool refr = true;
 731:Middlewares/lvgl/src/core/lv_obj_style.c ****         if(lv_style_get_prop(obj->styles[i].style, tr->prop, &old_value)) {
 732:Middlewares/lvgl/src/core/lv_obj_style.c ****             if(value_final.ptr == old_value.ptr && value_final.color.full == old_value.color.full &
 733:Middlewares/lvgl/src/core/lv_obj_style.c ****                 refr = false;
 734:Middlewares/lvgl/src/core/lv_obj_style.c ****             }
 735:Middlewares/lvgl/src/core/lv_obj_style.c ****         }
 736:Middlewares/lvgl/src/core/lv_obj_style.c ****         lv_style_set_prop(obj->styles[i].style, tr->prop, value_final);
 737:Middlewares/lvgl/src/core/lv_obj_style.c ****         if (refr) lv_obj_refresh_style(tr->obj, tr->selector, tr->prop);
 738:Middlewares/lvgl/src/core/lv_obj_style.c ****         break;
 739:Middlewares/lvgl/src/core/lv_obj_style.c **** 
 740:Middlewares/lvgl/src/core/lv_obj_style.c ****     }
 741:Middlewares/lvgl/src/core/lv_obj_style.c **** 
 742:Middlewares/lvgl/src/core/lv_obj_style.c **** }
 743:Middlewares/lvgl/src/core/lv_obj_style.c **** 
 744:Middlewares/lvgl/src/core/lv_obj_style.c **** static void trans_anim_start_cb(lv_anim_t * a)
 745:Middlewares/lvgl/src/core/lv_obj_style.c **** {
 746:Middlewares/lvgl/src/core/lv_obj_style.c ****     trans_t * tr = a->var;
 747:Middlewares/lvgl/src/core/lv_obj_style.c **** 
 748:Middlewares/lvgl/src/core/lv_obj_style.c ****     lv_part_t part = lv_obj_style_get_selector_part(tr->selector);
 749:Middlewares/lvgl/src/core/lv_obj_style.c ****     tr->start_value = lv_obj_get_style_prop(tr->obj, part, tr->prop);
 750:Middlewares/lvgl/src/core/lv_obj_style.c **** 
 751:Middlewares/lvgl/src/core/lv_obj_style.c ****     /*Init prop to an invalid values to be sure `trans_del` won't delete this added `tr`*/
 752:Middlewares/lvgl/src/core/lv_obj_style.c ****     lv_style_prop_t prop_tmp = tr->prop;
 753:Middlewares/lvgl/src/core/lv_obj_style.c ****     tr->prop = LV_STYLE_PROP_INV;
 754:Middlewares/lvgl/src/core/lv_obj_style.c **** 
 755:Middlewares/lvgl/src/core/lv_obj_style.c ****     /*Delete the related transitions if any*/
 756:Middlewares/lvgl/src/core/lv_obj_style.c ****     trans_del(tr->obj, part, prop_tmp, tr);
 757:Middlewares/lvgl/src/core/lv_obj_style.c **** 
 758:Middlewares/lvgl/src/core/lv_obj_style.c ****     tr->prop = prop_tmp;
 759:Middlewares/lvgl/src/core/lv_obj_style.c **** 
 760:Middlewares/lvgl/src/core/lv_obj_style.c ****     _lv_obj_style_t * style_trans = get_trans_style(tr->obj, tr->selector);
 761:Middlewares/lvgl/src/core/lv_obj_style.c ****     lv_style_set_prop(style_trans->style, tr->prop, tr->start_value);   /*Be sure `trans_style` has
 762:Middlewares/lvgl/src/core/lv_obj_style.c **** 
 763:Middlewares/lvgl/src/core/lv_obj_style.c **** }
 764:Middlewares/lvgl/src/core/lv_obj_style.c **** 
 765:Middlewares/lvgl/src/core/lv_obj_style.c **** static void trans_anim_ready_cb(lv_anim_t * a)
 766:Middlewares/lvgl/src/core/lv_obj_style.c **** {
 767:Middlewares/lvgl/src/core/lv_obj_style.c ****     trans_t * tr = a->var;
ARM GAS  /tmp/ccoxlgn6.s 			page 29


 768:Middlewares/lvgl/src/core/lv_obj_style.c ****     lv_obj_t * obj = tr->obj;
 769:Middlewares/lvgl/src/core/lv_obj_style.c ****     lv_style_prop_t prop = tr->prop;
 770:Middlewares/lvgl/src/core/lv_obj_style.c **** 
 771:Middlewares/lvgl/src/core/lv_obj_style.c ****     /*Remove the transitioned property from trans. style
 772:Middlewares/lvgl/src/core/lv_obj_style.c ****      *if there no more transitions for this property
 773:Middlewares/lvgl/src/core/lv_obj_style.c ****      *It allows changing it by normal styles*/
 774:Middlewares/lvgl/src/core/lv_obj_style.c ****     bool running = false;
 775:Middlewares/lvgl/src/core/lv_obj_style.c ****     trans_t * tr_i;
 776:Middlewares/lvgl/src/core/lv_obj_style.c ****     _LV_LL_READ(&LV_GC_ROOT(_lv_obj_style_trans_ll), tr_i) {
 777:Middlewares/lvgl/src/core/lv_obj_style.c ****         if(tr_i != tr && tr_i->obj == tr->obj && tr_i->selector == tr->selector && tr_i->prop == tr
 778:Middlewares/lvgl/src/core/lv_obj_style.c ****             running = true;
 779:Middlewares/lvgl/src/core/lv_obj_style.c ****             break;
 780:Middlewares/lvgl/src/core/lv_obj_style.c ****         }
 781:Middlewares/lvgl/src/core/lv_obj_style.c ****     }
 782:Middlewares/lvgl/src/core/lv_obj_style.c **** 
 783:Middlewares/lvgl/src/core/lv_obj_style.c ****     if(!running) {
 784:Middlewares/lvgl/src/core/lv_obj_style.c ****         uint32_t i;
 785:Middlewares/lvgl/src/core/lv_obj_style.c ****         for(i = 0; i < obj->style_cnt; i++) {
 786:Middlewares/lvgl/src/core/lv_obj_style.c ****             if(obj->styles[i].is_trans && obj->styles[i].selector == tr->selector) {
 787:Middlewares/lvgl/src/core/lv_obj_style.c ****                 _lv_ll_remove(&LV_GC_ROOT(_lv_obj_style_trans_ll), tr);
 788:Middlewares/lvgl/src/core/lv_obj_style.c ****                 lv_mem_free(tr);
 789:Middlewares/lvgl/src/core/lv_obj_style.c **** 
 790:Middlewares/lvgl/src/core/lv_obj_style.c ****                 _lv_obj_style_t * obj_style = &obj->styles[i];
 791:Middlewares/lvgl/src/core/lv_obj_style.c ****                 lv_style_remove_prop(obj_style->style, prop);
 792:Middlewares/lvgl/src/core/lv_obj_style.c **** 
 793:Middlewares/lvgl/src/core/lv_obj_style.c ****                 if(lv_style_is_empty(obj->styles[i].style)) {
 794:Middlewares/lvgl/src/core/lv_obj_style.c ****                     lv_obj_remove_style(obj, obj_style->style, obj_style->selector);
 795:Middlewares/lvgl/src/core/lv_obj_style.c **** 
 796:Middlewares/lvgl/src/core/lv_obj_style.c ****                 }
 797:Middlewares/lvgl/src/core/lv_obj_style.c ****                 break;
 798:Middlewares/lvgl/src/core/lv_obj_style.c ****             }
 799:Middlewares/lvgl/src/core/lv_obj_style.c ****         }
 800:Middlewares/lvgl/src/core/lv_obj_style.c ****     }
 801:Middlewares/lvgl/src/core/lv_obj_style.c **** }
 802:Middlewares/lvgl/src/core/lv_obj_style.c **** 
 803:Middlewares/lvgl/src/core/lv_obj_style.c **** static void fade_anim_cb(void * obj, int32_t v)
 804:Middlewares/lvgl/src/core/lv_obj_style.c **** {
 661              		.loc 1 804 1 is_stmt 1 view -0
 662              		.cfi_startproc
 663              		@ args = 0, pretend = 0, frame = 0
 664              		@ frame_needed = 0, uses_anonymous_args = 0
 665              		.loc 1 804 1 is_stmt 0 view .LVU209
 666 0000 08B5     		push	{r3, lr}
 667              	.LCFI4:
 668              		.cfi_def_cfa_offset 8
 669              		.cfi_offset 3, -8
 670              		.cfi_offset 14, -4
 805:Middlewares/lvgl/src/core/lv_obj_style.c ****     lv_obj_set_style_opa(obj, v, 0);
 671              		.loc 1 805 5 is_stmt 1 view .LVU210
 672 0002 0022     		movs	r2, #0
 673 0004 C9B2     		uxtb	r1, r1
 674              	.LVL66:
 675              		.loc 1 805 5 is_stmt 0 view .LVU211
 676 0006 FFF7FEFF 		bl	lv_obj_set_style_opa
 677              	.LVL67:
 806:Middlewares/lvgl/src/core/lv_obj_style.c **** }
 678              		.loc 1 806 1 view .LVU212
ARM GAS  /tmp/ccoxlgn6.s 			page 30


 679 000a 08BD     		pop	{r3, pc}
 680              		.cfi_endproc
 681              	.LFE179:
 683              		.section	.text._lv_obj_style_init,"ax",%progbits
 684              		.align	1
 685              		.global	_lv_obj_style_init
 686              		.syntax unified
 687              		.thumb
 688              		.thumb_func
 689              		.fpu fpv5-d16
 691              	_lv_obj_style_init:
 692              	.LFB153:
  72:Middlewares/lvgl/src/core/lv_obj_style.c ****     _lv_ll_init(&LV_GC_ROOT(_lv_obj_style_trans_ll), sizeof(trans_t));
 693              		.loc 1 72 1 is_stmt 1 view -0
 694              		.cfi_startproc
 695              		@ args = 0, pretend = 0, frame = 0
 696              		@ frame_needed = 0, uses_anonymous_args = 0
 697 0000 08B5     		push	{r3, lr}
 698              	.LCFI5:
 699              		.cfi_def_cfa_offset 8
 700              		.cfi_offset 3, -8
 701              		.cfi_offset 14, -4
  73:Middlewares/lvgl/src/core/lv_obj_style.c **** }
 702              		.loc 1 73 5 view .LVU214
 703 0002 1421     		movs	r1, #20
 704 0004 0148     		ldr	r0, .L48
 705 0006 FFF7FEFF 		bl	_lv_ll_init
 706              	.LVL68:
  74:Middlewares/lvgl/src/core/lv_obj_style.c **** 
 707              		.loc 1 74 1 is_stmt 0 view .LVU215
 708 000a 08BD     		pop	{r3, pc}
 709              	.L49:
 710              		.align	2
 711              	.L48:
 712 000c 00000000 		.word	_lv_obj_style_trans_ll
 713              		.cfi_endproc
 714              	.LFE153:
 716              		.section	.text.lv_obj_enable_style_refresh,"ax",%progbits
 717              		.align	1
 718              		.global	lv_obj_enable_style_refresh
 719              		.syntax unified
 720              		.thumb
 721              		.thumb_func
 722              		.fpu fpv5-d16
 724              	lv_obj_enable_style_refresh:
 725              	.LVL69:
 726              	.LFB158:
 202:Middlewares/lvgl/src/core/lv_obj_style.c ****     style_refr = en;
 727              		.loc 1 202 1 is_stmt 1 view -0
 728              		.cfi_startproc
 729              		@ args = 0, pretend = 0, frame = 0
 730              		@ frame_needed = 0, uses_anonymous_args = 0
 731              		@ link register save eliminated.
 203:Middlewares/lvgl/src/core/lv_obj_style.c **** }
 732              		.loc 1 203 5 view .LVU217
 203:Middlewares/lvgl/src/core/lv_obj_style.c **** }
 733              		.loc 1 203 16 is_stmt 0 view .LVU218
ARM GAS  /tmp/ccoxlgn6.s 			page 31


 734 0000 014B     		ldr	r3, .L51
 735 0002 1870     		strb	r0, [r3]
 204:Middlewares/lvgl/src/core/lv_obj_style.c **** 
 736              		.loc 1 204 1 view .LVU219
 737 0004 7047     		bx	lr
 738              	.L52:
 739 0006 00BF     		.align	2
 740              	.L51:
 741 0008 00000000 		.word	.LANCHOR0
 742              		.cfi_endproc
 743              	.LFE158:
 745              		.section	.text.lv_obj_get_local_style_prop,"ax",%progbits
 746              		.align	1
 747              		.global	lv_obj_get_local_style_prop
 748              		.syntax unified
 749              		.thumb
 750              		.thumb_func
 751              		.fpu fpv5-d16
 753              	lv_obj_get_local_style_prop:
 754              	.LVL70:
 755              	.LFB161:
 260:Middlewares/lvgl/src/core/lv_obj_style.c ****     uint32_t i;
 756              		.loc 1 260 1 is_stmt 1 view -0
 757              		.cfi_startproc
 758              		@ args = 0, pretend = 0, frame = 0
 759              		@ frame_needed = 0, uses_anonymous_args = 0
 260:Middlewares/lvgl/src/core/lv_obj_style.c ****     uint32_t i;
 760              		.loc 1 260 1 is_stmt 0 view .LVU221
 761 0000 10B5     		push	{r4, lr}
 762              	.LCFI6:
 763              		.cfi_def_cfa_offset 8
 764              		.cfi_offset 4, -8
 765              		.cfi_offset 14, -4
 261:Middlewares/lvgl/src/core/lv_obj_style.c ****     for(i = 0; i < obj->style_cnt; i++) {
 766              		.loc 1 261 5 is_stmt 1 view .LVU222
 262:Middlewares/lvgl/src/core/lv_obj_style.c ****         if(obj->styles[i].is_local &&
 767              		.loc 1 262 5 view .LVU223
 768              	.LVL71:
 262:Middlewares/lvgl/src/core/lv_obj_style.c ****         if(obj->styles[i].is_local &&
 769              		.loc 1 262 11 is_stmt 0 view .LVU224
 770 0002 4FF0000E 		mov	lr, #0
 262:Middlewares/lvgl/src/core/lv_obj_style.c ****         if(obj->styles[i].is_local &&
 771              		.loc 1 262 5 view .LVU225
 772 0006 01E0     		b	.L54
 773              	.LVL72:
 774              	.L55:
 262:Middlewares/lvgl/src/core/lv_obj_style.c ****         if(obj->styles[i].is_local &&
 775              		.loc 1 262 36 is_stmt 1 discriminator 2 view .LVU226
 262:Middlewares/lvgl/src/core/lv_obj_style.c ****         if(obj->styles[i].is_local &&
 776              		.loc 1 262 37 is_stmt 0 discriminator 2 view .LVU227
 777 0008 0EF1010E 		add	lr, lr, #1
 778              	.LVL73:
 779              	.L54:
 262:Middlewares/lvgl/src/core/lv_obj_style.c ****         if(obj->styles[i].is_local &&
 780              		.loc 1 262 16 is_stmt 1 discriminator 1 view .LVU228
 262:Middlewares/lvgl/src/core/lv_obj_style.c ****         if(obj->styles[i].is_local &&
 781              		.loc 1 262 23 is_stmt 0 discriminator 1 view .LVU229
ARM GAS  /tmp/ccoxlgn6.s 			page 32


 782 000c B0F822C0 		ldrh	ip, [r0, #34]
 783 0010 CCF3C50C 		ubfx	ip, ip, #3, #6
 262:Middlewares/lvgl/src/core/lv_obj_style.c ****         if(obj->styles[i].is_local &&
 784              		.loc 1 262 5 discriminator 1 view .LVU230
 785 0014 F445     		cmp	ip, lr
 786 0016 12D9     		bls	.L59
 263:Middlewares/lvgl/src/core/lv_obj_style.c ****            obj->styles[i].selector ==  selector)
 787              		.loc 1 263 9 is_stmt 1 view .LVU231
 263:Middlewares/lvgl/src/core/lv_obj_style.c ****            obj->styles[i].selector ==  selector)
 788              		.loc 1 263 23 is_stmt 0 view .LVU232
 789 0018 C468     		ldr	r4, [r0, #12]
 790 001a 04EBCE0C 		add	ip, r4, lr, lsl #3
 263:Middlewares/lvgl/src/core/lv_obj_style.c ****            obj->styles[i].selector ==  selector)
 791              		.loc 1 263 12 view .LVU233
 792 001e 9CF80740 		ldrb	r4, [ip, #7]	@ zero_extendqisi2
 263:Middlewares/lvgl/src/core/lv_obj_style.c ****            obj->styles[i].selector ==  selector)
 793              		.loc 1 263 11 view .LVU234
 794 0022 14F0010F 		tst	r4, #1
 795 0026 EFD0     		beq	.L55
 264:Middlewares/lvgl/src/core/lv_obj_style.c ****         {
 796              		.loc 1 264 26 discriminator 1 view .LVU235
 797 0028 DCF80440 		ldr	r4, [ip, #4]
 798 002c C4F31704 		ubfx	r4, r4, #0, #24
 263:Middlewares/lvgl/src/core/lv_obj_style.c ****            obj->styles[i].selector ==  selector)
 799              		.loc 1 263 36 discriminator 1 view .LVU236
 800 0030 9C42     		cmp	r4, r3
 801 0032 E9D1     		bne	.L55
 266:Middlewares/lvgl/src/core/lv_obj_style.c ****         }
 802              		.loc 1 266 13 is_stmt 1 view .LVU237
 266:Middlewares/lvgl/src/core/lv_obj_style.c ****         }
 803              		.loc 1 266 20 is_stmt 0 view .LVU238
 804 0034 DCF80000 		ldr	r0, [ip]
 805              	.LVL74:
 266:Middlewares/lvgl/src/core/lv_obj_style.c ****         }
 806              		.loc 1 266 20 view .LVU239
 807 0038 FFF7FEFF 		bl	lv_style_get_prop
 808              	.LVL75:
 266:Middlewares/lvgl/src/core/lv_obj_style.c ****         }
 809              		.loc 1 266 20 view .LVU240
 810 003c 00E0     		b	.L56
 811              	.LVL76:
 812              	.L59:
 270:Middlewares/lvgl/src/core/lv_obj_style.c **** }
 813              		.loc 1 270 12 view .LVU241
 814 003e 0020     		movs	r0, #0
 815              	.LVL77:
 816              	.L56:
 271:Middlewares/lvgl/src/core/lv_obj_style.c **** 
 817              		.loc 1 271 1 view .LVU242
 818 0040 10BD     		pop	{r4, pc}
 819              		.cfi_endproc
 820              	.LFE161:
 822              		.section	.text.lv_obj_remove_local_style_prop,"ax",%progbits
 823              		.align	1
 824              		.global	lv_obj_remove_local_style_prop
 825              		.syntax unified
 826              		.thumb
ARM GAS  /tmp/ccoxlgn6.s 			page 33


 827              		.thumb_func
 828              		.fpu fpv5-d16
 830              	lv_obj_remove_local_style_prop:
 831              	.LVL78:
 832              	.LFB162:
 274:Middlewares/lvgl/src/core/lv_obj_style.c ****     LV_ASSERT_OBJ(obj, MY_CLASS);
 833              		.loc 1 274 1 is_stmt 1 view -0
 834              		.cfi_startproc
 835              		@ args = 0, pretend = 0, frame = 0
 836              		@ frame_needed = 0, uses_anonymous_args = 0
 274:Middlewares/lvgl/src/core/lv_obj_style.c ****     LV_ASSERT_OBJ(obj, MY_CLASS);
 837              		.loc 1 274 1 is_stmt 0 view .LVU244
 838 0000 10B5     		push	{r4, lr}
 839              	.LCFI7:
 840              		.cfi_def_cfa_offset 8
 841              		.cfi_offset 4, -8
 842              		.cfi_offset 14, -4
 275:Middlewares/lvgl/src/core/lv_obj_style.c **** 
 843              		.loc 1 275 5 is_stmt 1 view .LVU245
 275:Middlewares/lvgl/src/core/lv_obj_style.c **** 
 844              		.loc 1 275 5 view .LVU246
 275:Middlewares/lvgl/src/core/lv_obj_style.c **** 
 845              		.loc 1 275 5 view .LVU247
 277:Middlewares/lvgl/src/core/lv_obj_style.c ****     /*Find the style*/
 846              		.loc 1 277 5 view .LVU248
 279:Middlewares/lvgl/src/core/lv_obj_style.c ****         if(obj->styles[i].is_local &&
 847              		.loc 1 279 5 view .LVU249
 848              	.LVL79:
 279:Middlewares/lvgl/src/core/lv_obj_style.c ****         if(obj->styles[i].is_local &&
 849              		.loc 1 279 11 is_stmt 0 view .LVU250
 850 0002 4FF0000E 		mov	lr, #0
 279:Middlewares/lvgl/src/core/lv_obj_style.c ****         if(obj->styles[i].is_local &&
 851              		.loc 1 279 5 view .LVU251
 852 0006 01E0     		b	.L61
 853              	.LVL80:
 854              	.L62:
 279:Middlewares/lvgl/src/core/lv_obj_style.c ****         if(obj->styles[i].is_local &&
 855              		.loc 1 279 36 is_stmt 1 discriminator 2 view .LVU252
 279:Middlewares/lvgl/src/core/lv_obj_style.c ****         if(obj->styles[i].is_local &&
 856              		.loc 1 279 37 is_stmt 0 discriminator 2 view .LVU253
 857 0008 0EF1010E 		add	lr, lr, #1
 858              	.LVL81:
 859              	.L61:
 279:Middlewares/lvgl/src/core/lv_obj_style.c ****         if(obj->styles[i].is_local &&
 860              		.loc 1 279 16 is_stmt 1 discriminator 1 view .LVU254
 279:Middlewares/lvgl/src/core/lv_obj_style.c ****         if(obj->styles[i].is_local &&
 861              		.loc 1 279 23 is_stmt 0 discriminator 1 view .LVU255
 862 000c B0F822C0 		ldrh	ip, [r0, #34]
 863 0010 CCF3C50C 		ubfx	ip, ip, #3, #6
 279:Middlewares/lvgl/src/core/lv_obj_style.c ****         if(obj->styles[i].is_local &&
 864              		.loc 1 279 5 discriminator 1 view .LVU256
 865 0014 F445     		cmp	ip, lr
 866 0016 0BD9     		bls	.L63
 280:Middlewares/lvgl/src/core/lv_obj_style.c ****            obj->styles[i].selector == selector) {
 867              		.loc 1 280 9 is_stmt 1 view .LVU257
 280:Middlewares/lvgl/src/core/lv_obj_style.c ****            obj->styles[i].selector == selector) {
 868              		.loc 1 280 15 is_stmt 0 view .LVU258
ARM GAS  /tmp/ccoxlgn6.s 			page 34


 869 0018 C368     		ldr	r3, [r0, #12]
 280:Middlewares/lvgl/src/core/lv_obj_style.c ****            obj->styles[i].selector == selector) {
 870              		.loc 1 280 23 view .LVU259
 871 001a 03EBCE03 		add	r3, r3, lr, lsl #3
 280:Middlewares/lvgl/src/core/lv_obj_style.c ****            obj->styles[i].selector == selector) {
 872              		.loc 1 280 12 view .LVU260
 873 001e DC79     		ldrb	r4, [r3, #7]	@ zero_extendqisi2
 280:Middlewares/lvgl/src/core/lv_obj_style.c ****            obj->styles[i].selector == selector) {
 874              		.loc 1 280 11 view .LVU261
 875 0020 14F0010F 		tst	r4, #1
 876 0024 F0D0     		beq	.L62
 281:Middlewares/lvgl/src/core/lv_obj_style.c ****             break;
 877              		.loc 1 281 26 discriminator 1 view .LVU262
 878 0026 5B68     		ldr	r3, [r3, #4]
 879 0028 C3F31703 		ubfx	r3, r3, #0, #24
 280:Middlewares/lvgl/src/core/lv_obj_style.c ****            obj->styles[i].selector == selector) {
 880              		.loc 1 280 36 discriminator 1 view .LVU263
 881 002c 9342     		cmp	r3, r2
 882 002e EBD1     		bne	.L62
 883              	.L63:
 287:Middlewares/lvgl/src/core/lv_obj_style.c **** 
 884              		.loc 1 287 5 is_stmt 1 view .LVU264
 287:Middlewares/lvgl/src/core/lv_obj_style.c **** 
 885              		.loc 1 287 7 is_stmt 0 view .LVU265
 886 0030 F445     		cmp	ip, lr
 887 0032 05D0     		beq	.L66
 289:Middlewares/lvgl/src/core/lv_obj_style.c **** }
 888              		.loc 1 289 5 is_stmt 1 view .LVU266
 289:Middlewares/lvgl/src/core/lv_obj_style.c **** }
 889              		.loc 1 289 36 is_stmt 0 view .LVU267
 890 0034 C368     		ldr	r3, [r0, #12]
 289:Middlewares/lvgl/src/core/lv_obj_style.c **** }
 891              		.loc 1 289 12 view .LVU268
 892 0036 53F83E00 		ldr	r0, [r3, lr, lsl #3]
 893              	.LVL82:
 289:Middlewares/lvgl/src/core/lv_obj_style.c **** }
 894              		.loc 1 289 12 view .LVU269
 895 003a FFF7FEFF 		bl	lv_style_remove_prop
 896              	.LVL83:
 897              	.L65:
 290:Middlewares/lvgl/src/core/lv_obj_style.c **** 
 898              		.loc 1 290 1 view .LVU270
 899 003e 10BD     		pop	{r4, pc}
 900              	.LVL84:
 901              	.L66:
 287:Middlewares/lvgl/src/core/lv_obj_style.c **** 
 902              		.loc 1 287 36 view .LVU271
 903 0040 0020     		movs	r0, #0
 904              	.LVL85:
 287:Middlewares/lvgl/src/core/lv_obj_style.c **** 
 905              		.loc 1 287 36 view .LVU272
 906 0042 FCE7     		b	.L65
 907              		.cfi_endproc
 908              	.LFE162:
 910              		.section	.text.fade_in_anim_ready,"ax",%progbits
 911              		.align	1
 912              		.syntax unified
ARM GAS  /tmp/ccoxlgn6.s 			page 35


 913              		.thumb
 914              		.thumb_func
 915              		.fpu fpv5-d16
 917              	fade_in_anim_ready:
 918              	.LVL86:
 919              	.LFB180:
 807:Middlewares/lvgl/src/core/lv_obj_style.c **** 
 808:Middlewares/lvgl/src/core/lv_obj_style.c **** static void fade_in_anim_ready(lv_anim_t * a)
 809:Middlewares/lvgl/src/core/lv_obj_style.c **** {
 920              		.loc 1 809 1 is_stmt 1 view -0
 921              		.cfi_startproc
 922              		@ args = 0, pretend = 0, frame = 0
 923              		@ frame_needed = 0, uses_anonymous_args = 0
 924              		.loc 1 809 1 is_stmt 0 view .LVU274
 925 0000 08B5     		push	{r3, lr}
 926              	.LCFI8:
 927              		.cfi_def_cfa_offset 8
 928              		.cfi_offset 3, -8
 929              		.cfi_offset 14, -4
 810:Middlewares/lvgl/src/core/lv_obj_style.c ****     lv_obj_remove_local_style_prop(a->var, LV_STYLE_OPA, 0);
 930              		.loc 1 810 5 is_stmt 1 view .LVU275
 931 0002 0022     		movs	r2, #0
 932 0004 40F26241 		movw	r1, #1122
 933 0008 0068     		ldr	r0, [r0]
 934              	.LVL87:
 935              		.loc 1 810 5 is_stmt 0 view .LVU276
 936 000a FFF7FEFF 		bl	lv_obj_remove_local_style_prop
 937              	.LVL88:
 811:Middlewares/lvgl/src/core/lv_obj_style.c **** }
 938              		.loc 1 811 1 view .LVU277
 939 000e 08BD     		pop	{r3, pc}
 940              		.cfi_endproc
 941              	.LFE180:
 943              		.section	.text.lv_obj_fade_in,"ax",%progbits
 944              		.align	1
 945              		.global	lv_obj_fade_in
 946              		.syntax unified
 947              		.thumb
 948              		.thumb_func
 949              		.fpu fpv5-d16
 951              	lv_obj_fade_in:
 952              	.LVL89:
 953              	.LFB165:
 418:Middlewares/lvgl/src/core/lv_obj_style.c ****     lv_anim_t a;
 954              		.loc 1 418 1 is_stmt 1 view -0
 955              		.cfi_startproc
 956              		@ args = 0, pretend = 0, frame = 72
 957              		@ frame_needed = 0, uses_anonymous_args = 0
 418:Middlewares/lvgl/src/core/lv_obj_style.c ****     lv_anim_t a;
 958              		.loc 1 418 1 is_stmt 0 view .LVU279
 959 0000 70B5     		push	{r4, r5, r6, lr}
 960              	.LCFI9:
 961              		.cfi_def_cfa_offset 16
 962              		.cfi_offset 4, -16
 963              		.cfi_offset 5, -12
 964              		.cfi_offset 6, -8
 965              		.cfi_offset 14, -4
ARM GAS  /tmp/ccoxlgn6.s 			page 36


 966 0002 92B0     		sub	sp, sp, #72
 967              	.LCFI10:
 968              		.cfi_def_cfa_offset 88
 969 0004 0646     		mov	r6, r0
 970 0006 0D46     		mov	r5, r1
 971 0008 1446     		mov	r4, r2
 419:Middlewares/lvgl/src/core/lv_obj_style.c ****     lv_anim_init(&a);
 972              		.loc 1 419 5 is_stmt 1 view .LVU280
 420:Middlewares/lvgl/src/core/lv_obj_style.c ****     lv_anim_set_var(&a, obj);
 973              		.loc 1 420 5 view .LVU281
 974 000a 01A8     		add	r0, sp, #4
 975              	.LVL90:
 420:Middlewares/lvgl/src/core/lv_obj_style.c ****     lv_anim_set_var(&a, obj);
 976              		.loc 1 420 5 is_stmt 0 view .LVU282
 977 000c FFF7FEFF 		bl	lv_anim_init
 978              	.LVL91:
 421:Middlewares/lvgl/src/core/lv_obj_style.c ****     lv_anim_set_values(&a, LV_OPA_TRANSP, LV_OPA_COVER);
 979              		.loc 1 421 5 is_stmt 1 view .LVU283
 980              	.LBB51:
 981              	.LBI51:
 982              		.file 2 "Middlewares/lvgl/src/core/../misc/lv_anim.h"
   1:Middlewares/lvgl/src/core/../misc/lv_anim.h **** /**
   2:Middlewares/lvgl/src/core/../misc/lv_anim.h ****  * @file lv_anim.h
   3:Middlewares/lvgl/src/core/../misc/lv_anim.h ****  *
   4:Middlewares/lvgl/src/core/../misc/lv_anim.h ****  */
   5:Middlewares/lvgl/src/core/../misc/lv_anim.h **** 
   6:Middlewares/lvgl/src/core/../misc/lv_anim.h **** #ifndef LV_ANIM_H
   7:Middlewares/lvgl/src/core/../misc/lv_anim.h **** #define LV_ANIM_H
   8:Middlewares/lvgl/src/core/../misc/lv_anim.h **** 
   9:Middlewares/lvgl/src/core/../misc/lv_anim.h **** #ifdef __cplusplus
  10:Middlewares/lvgl/src/core/../misc/lv_anim.h **** extern "C" {
  11:Middlewares/lvgl/src/core/../misc/lv_anim.h **** #endif
  12:Middlewares/lvgl/src/core/../misc/lv_anim.h **** 
  13:Middlewares/lvgl/src/core/../misc/lv_anim.h **** /*********************
  14:Middlewares/lvgl/src/core/../misc/lv_anim.h ****  *      INCLUDES
  15:Middlewares/lvgl/src/core/../misc/lv_anim.h ****  *********************/
  16:Middlewares/lvgl/src/core/../misc/lv_anim.h **** #include "../lv_conf_internal.h"
  17:Middlewares/lvgl/src/core/../misc/lv_anim.h **** 
  18:Middlewares/lvgl/src/core/../misc/lv_anim.h **** #include <stdint.h>
  19:Middlewares/lvgl/src/core/../misc/lv_anim.h **** #include <stdbool.h>
  20:Middlewares/lvgl/src/core/../misc/lv_anim.h **** #include <string.h>
  21:Middlewares/lvgl/src/core/../misc/lv_anim.h **** 
  22:Middlewares/lvgl/src/core/../misc/lv_anim.h **** /*********************
  23:Middlewares/lvgl/src/core/../misc/lv_anim.h ****  *      DEFINES
  24:Middlewares/lvgl/src/core/../misc/lv_anim.h ****  *********************/
  25:Middlewares/lvgl/src/core/../misc/lv_anim.h **** 
  26:Middlewares/lvgl/src/core/../misc/lv_anim.h **** /**********************
  27:Middlewares/lvgl/src/core/../misc/lv_anim.h ****  *      TYPEDEFS
  28:Middlewares/lvgl/src/core/../misc/lv_anim.h ****  **********************/
  29:Middlewares/lvgl/src/core/../misc/lv_anim.h **** 
  30:Middlewares/lvgl/src/core/../misc/lv_anim.h **** /** Can be used to indicate if animations are enabled or disabled in a case*/
  31:Middlewares/lvgl/src/core/../misc/lv_anim.h **** typedef enum {
  32:Middlewares/lvgl/src/core/../misc/lv_anim.h ****     LV_ANIM_OFF,
  33:Middlewares/lvgl/src/core/../misc/lv_anim.h ****     LV_ANIM_ON,
  34:Middlewares/lvgl/src/core/../misc/lv_anim.h **** }lv_anim_enable_t;
  35:Middlewares/lvgl/src/core/../misc/lv_anim.h **** 
  36:Middlewares/lvgl/src/core/../misc/lv_anim.h **** #define LV_ANIM_REPEAT_INFINITE      0xFFFF
ARM GAS  /tmp/ccoxlgn6.s 			page 37


  37:Middlewares/lvgl/src/core/../misc/lv_anim.h **** LV_EXPORT_CONST_INT(LV_ANIM_REPEAT_INFINITE);
  38:Middlewares/lvgl/src/core/../misc/lv_anim.h **** 
  39:Middlewares/lvgl/src/core/../misc/lv_anim.h **** struct _lv_anim_t;
  40:Middlewares/lvgl/src/core/../misc/lv_anim.h **** 
  41:Middlewares/lvgl/src/core/../misc/lv_anim.h **** /** Get the current value during an animation*/
  42:Middlewares/lvgl/src/core/../misc/lv_anim.h **** typedef int32_t (*lv_anim_path_cb_t)(const struct _lv_anim_t *);
  43:Middlewares/lvgl/src/core/../misc/lv_anim.h **** 
  44:Middlewares/lvgl/src/core/../misc/lv_anim.h **** /** Generic prototype of "animator" functions.
  45:Middlewares/lvgl/src/core/../misc/lv_anim.h ****  * First parameter is the variable to animate.
  46:Middlewares/lvgl/src/core/../misc/lv_anim.h ****  * Second parameter is the value to set.
  47:Middlewares/lvgl/src/core/../misc/lv_anim.h ****  * Compatible with `lv_xxx_set_yyy(obj, value)` functions
  48:Middlewares/lvgl/src/core/../misc/lv_anim.h ****  * The `x` in `_xcb_t` means its not a fully generic prototype because
  49:Middlewares/lvgl/src/core/../misc/lv_anim.h ****  * it doesn't receive `lv_anim_t *` as its first argument*/
  50:Middlewares/lvgl/src/core/../misc/lv_anim.h **** typedef void (*lv_anim_exec_xcb_t)(void *, int32_t);
  51:Middlewares/lvgl/src/core/../misc/lv_anim.h **** 
  52:Middlewares/lvgl/src/core/../misc/lv_anim.h **** /** Same as `lv_anim_exec_xcb_t` but receives `lv_anim_t *` as the first parameter.
  53:Middlewares/lvgl/src/core/../misc/lv_anim.h ****  * It's more consistent but less convenient. Might be used by binding generator functions.*/
  54:Middlewares/lvgl/src/core/../misc/lv_anim.h **** typedef void (*lv_anim_custom_exec_cb_t)(struct _lv_anim_t *, int32_t);
  55:Middlewares/lvgl/src/core/../misc/lv_anim.h **** 
  56:Middlewares/lvgl/src/core/../misc/lv_anim.h **** /** Callback to call when the animation is ready*/
  57:Middlewares/lvgl/src/core/../misc/lv_anim.h **** typedef void (*lv_anim_ready_cb_t)(struct _lv_anim_t *);
  58:Middlewares/lvgl/src/core/../misc/lv_anim.h **** 
  59:Middlewares/lvgl/src/core/../misc/lv_anim.h **** /** Callback to call when the animation really stars (considering `delay`)*/
  60:Middlewares/lvgl/src/core/../misc/lv_anim.h **** typedef void (*lv_anim_start_cb_t)(struct _lv_anim_t *);
  61:Middlewares/lvgl/src/core/../misc/lv_anim.h **** 
  62:Middlewares/lvgl/src/core/../misc/lv_anim.h **** /** Callback used when the animation values are relative to get the current value*/
  63:Middlewares/lvgl/src/core/../misc/lv_anim.h **** typedef int32_t (*lv_anim_get_value_cb_t)(struct _lv_anim_t *);
  64:Middlewares/lvgl/src/core/../misc/lv_anim.h **** 
  65:Middlewares/lvgl/src/core/../misc/lv_anim.h **** /** Describes an animation*/
  66:Middlewares/lvgl/src/core/../misc/lv_anim.h **** typedef struct _lv_anim_t {
  67:Middlewares/lvgl/src/core/../misc/lv_anim.h ****     void * var;                          /**<Variable to animate*/
  68:Middlewares/lvgl/src/core/../misc/lv_anim.h ****     lv_anim_exec_xcb_t exec_cb;          /**< Function to execute to animate*/
  69:Middlewares/lvgl/src/core/../misc/lv_anim.h ****     lv_anim_start_cb_t start_cb;         /**< Call it when the animation is starts (considering `de
  70:Middlewares/lvgl/src/core/../misc/lv_anim.h ****     lv_anim_ready_cb_t ready_cb;         /**< Call it when the animation is ready*/
  71:Middlewares/lvgl/src/core/../misc/lv_anim.h ****     lv_anim_get_value_cb_t get_value_cb; /**< Get the current value in relative mode*/
  72:Middlewares/lvgl/src/core/../misc/lv_anim.h **** #if LV_USE_USER_DATA
  73:Middlewares/lvgl/src/core/../misc/lv_anim.h ****     void * user_data; /**< Custom user data*/
  74:Middlewares/lvgl/src/core/../misc/lv_anim.h **** #endif
  75:Middlewares/lvgl/src/core/../misc/lv_anim.h ****     lv_anim_path_cb_t path_cb;         /**< Describe the path (curve) of animations*/
  76:Middlewares/lvgl/src/core/../misc/lv_anim.h ****     int32_t start_value;               /**< Start value*/
  77:Middlewares/lvgl/src/core/../misc/lv_anim.h ****     int32_t current_value;             /**< Current value*/
  78:Middlewares/lvgl/src/core/../misc/lv_anim.h ****     int32_t end_value;                 /**< End value*/
  79:Middlewares/lvgl/src/core/../misc/lv_anim.h ****     int32_t time;                /**< Animation time in ms*/
  80:Middlewares/lvgl/src/core/../misc/lv_anim.h ****     int32_t act_time;            /**< Current time in animation. Set to negative to make delay.*/
  81:Middlewares/lvgl/src/core/../misc/lv_anim.h ****     uint32_t playback_delay;     /**< Wait before play back*/
  82:Middlewares/lvgl/src/core/../misc/lv_anim.h ****     uint32_t playback_time;      /**< Duration of playback animation*/
  83:Middlewares/lvgl/src/core/../misc/lv_anim.h ****     uint32_t repeat_delay;       /**< Wait before repeat*/
  84:Middlewares/lvgl/src/core/../misc/lv_anim.h ****     uint16_t repeat_cnt;         /**< Repeat count for the animation*/
  85:Middlewares/lvgl/src/core/../misc/lv_anim.h ****     uint8_t early_apply  : 1;    /**< 1: Apply start value immediately even is there is `delay`*/
  86:Middlewares/lvgl/src/core/../misc/lv_anim.h **** 
  87:Middlewares/lvgl/src/core/../misc/lv_anim.h ****     /*Animation system use these - user shouldn't set*/
  88:Middlewares/lvgl/src/core/../misc/lv_anim.h ****     uint8_t playback_now : 1; /**< Play back is in progress*/
  89:Middlewares/lvgl/src/core/../misc/lv_anim.h ****     uint8_t run_round : 1;    /**< Indicates the animation has run in this round*/
  90:Middlewares/lvgl/src/core/../misc/lv_anim.h ****     uint8_t start_cb_called : 1;    /**< Indicates that the `start_cb` was already called*/
  91:Middlewares/lvgl/src/core/../misc/lv_anim.h ****     uint32_t time_orig;
  92:Middlewares/lvgl/src/core/../misc/lv_anim.h **** } lv_anim_t;
  93:Middlewares/lvgl/src/core/../misc/lv_anim.h **** 
ARM GAS  /tmp/ccoxlgn6.s 			page 38


  94:Middlewares/lvgl/src/core/../misc/lv_anim.h **** /**********************
  95:Middlewares/lvgl/src/core/../misc/lv_anim.h ****  * GLOBAL PROTOTYPES
  96:Middlewares/lvgl/src/core/../misc/lv_anim.h ****  **********************/
  97:Middlewares/lvgl/src/core/../misc/lv_anim.h **** 
  98:Middlewares/lvgl/src/core/../misc/lv_anim.h **** /**
  99:Middlewares/lvgl/src/core/../misc/lv_anim.h ****  * Init. the animation module
 100:Middlewares/lvgl/src/core/../misc/lv_anim.h ****  */
 101:Middlewares/lvgl/src/core/../misc/lv_anim.h **** void _lv_anim_core_init(void);
 102:Middlewares/lvgl/src/core/../misc/lv_anim.h **** 
 103:Middlewares/lvgl/src/core/../misc/lv_anim.h **** /**
 104:Middlewares/lvgl/src/core/../misc/lv_anim.h ****  * Initialize an animation variable.
 105:Middlewares/lvgl/src/core/../misc/lv_anim.h ****  * E.g.:
 106:Middlewares/lvgl/src/core/../misc/lv_anim.h ****  * lv_anim_t a;
 107:Middlewares/lvgl/src/core/../misc/lv_anim.h ****  * lv_anim_init(&a);
 108:Middlewares/lvgl/src/core/../misc/lv_anim.h ****  * lv_anim_set_...(&a);
 109:Middlewares/lvgl/src/core/../misc/lv_anim.h ****  * lv_anim_start(&a);
 110:Middlewares/lvgl/src/core/../misc/lv_anim.h ****  * @param a     pointer to an `lv_anim_t` variable to initialize
 111:Middlewares/lvgl/src/core/../misc/lv_anim.h ****  */
 112:Middlewares/lvgl/src/core/../misc/lv_anim.h **** void lv_anim_init(lv_anim_t * a);
 113:Middlewares/lvgl/src/core/../misc/lv_anim.h **** 
 114:Middlewares/lvgl/src/core/../misc/lv_anim.h **** /**
 115:Middlewares/lvgl/src/core/../misc/lv_anim.h ****  * Set a variable to animate
 116:Middlewares/lvgl/src/core/../misc/lv_anim.h ****  * @param a     pointer to an initialized `lv_anim_t` variable
 117:Middlewares/lvgl/src/core/../misc/lv_anim.h ****  * @param var   pointer to a variable to animate
 118:Middlewares/lvgl/src/core/../misc/lv_anim.h ****  */
 119:Middlewares/lvgl/src/core/../misc/lv_anim.h **** static inline void lv_anim_set_var(lv_anim_t * a, void * var)
 983              		.loc 2 119 20 view .LVU284
 984              	.LBB52:
 120:Middlewares/lvgl/src/core/../misc/lv_anim.h **** {
 121:Middlewares/lvgl/src/core/../misc/lv_anim.h ****     a->var = var;
 985              		.loc 2 121 5 view .LVU285
 986              		.loc 2 121 12 is_stmt 0 view .LVU286
 987 0010 0196     		str	r6, [sp, #4]
 988              	.LVL92:
 989              		.loc 2 121 12 view .LVU287
 990              	.LBE52:
 991              	.LBE51:
 422:Middlewares/lvgl/src/core/lv_obj_style.c ****     lv_anim_set_exec_cb(&a, fade_anim_cb);
 992              		.loc 1 422 5 is_stmt 1 view .LVU288
 993              	.LBB53:
 994              	.LBI53:
 122:Middlewares/lvgl/src/core/../misc/lv_anim.h **** }
 123:Middlewares/lvgl/src/core/../misc/lv_anim.h **** 
 124:Middlewares/lvgl/src/core/../misc/lv_anim.h **** /**
 125:Middlewares/lvgl/src/core/../misc/lv_anim.h ****  * Set a function to animate `var`
 126:Middlewares/lvgl/src/core/../misc/lv_anim.h ****  * @param a         pointer to an initialized `lv_anim_t` variable
 127:Middlewares/lvgl/src/core/../misc/lv_anim.h ****  * @param exec_cb   a function to execute during animation
 128:Middlewares/lvgl/src/core/../misc/lv_anim.h ****  *                  LVGL's built-in functions can be used.
 129:Middlewares/lvgl/src/core/../misc/lv_anim.h ****  *                  E.g. lv_obj_set_x
 130:Middlewares/lvgl/src/core/../misc/lv_anim.h ****  */
 131:Middlewares/lvgl/src/core/../misc/lv_anim.h **** static inline void lv_anim_set_exec_cb(lv_anim_t * a, lv_anim_exec_xcb_t exec_cb)
 132:Middlewares/lvgl/src/core/../misc/lv_anim.h **** {
 133:Middlewares/lvgl/src/core/../misc/lv_anim.h ****     a->exec_cb = exec_cb;
 134:Middlewares/lvgl/src/core/../misc/lv_anim.h **** }
 135:Middlewares/lvgl/src/core/../misc/lv_anim.h **** 
 136:Middlewares/lvgl/src/core/../misc/lv_anim.h **** /**
 137:Middlewares/lvgl/src/core/../misc/lv_anim.h ****  * Set the duration of an animation
ARM GAS  /tmp/ccoxlgn6.s 			page 39


 138:Middlewares/lvgl/src/core/../misc/lv_anim.h ****  * @param a         pointer to an initialized `lv_anim_t` variable
 139:Middlewares/lvgl/src/core/../misc/lv_anim.h ****  * @param duration  duration of the animation in milliseconds
 140:Middlewares/lvgl/src/core/../misc/lv_anim.h ****  */
 141:Middlewares/lvgl/src/core/../misc/lv_anim.h **** static inline void lv_anim_set_time(lv_anim_t * a, uint32_t duration)
 142:Middlewares/lvgl/src/core/../misc/lv_anim.h **** {
 143:Middlewares/lvgl/src/core/../misc/lv_anim.h ****     a->time = duration;
 144:Middlewares/lvgl/src/core/../misc/lv_anim.h **** }
 145:Middlewares/lvgl/src/core/../misc/lv_anim.h **** 
 146:Middlewares/lvgl/src/core/../misc/lv_anim.h **** /**
 147:Middlewares/lvgl/src/core/../misc/lv_anim.h ****  * Set a delay before starting the animation
 148:Middlewares/lvgl/src/core/../misc/lv_anim.h ****  * @param a         pointer to an initialized `lv_anim_t` variable
 149:Middlewares/lvgl/src/core/../misc/lv_anim.h ****  * @param delay     delay before the animation in milliseconds
 150:Middlewares/lvgl/src/core/../misc/lv_anim.h ****  */
 151:Middlewares/lvgl/src/core/../misc/lv_anim.h **** static inline void lv_anim_set_delay(lv_anim_t * a, uint32_t delay)
 152:Middlewares/lvgl/src/core/../misc/lv_anim.h **** {
 153:Middlewares/lvgl/src/core/../misc/lv_anim.h ****     a->act_time = -(int32_t)(delay);
 154:Middlewares/lvgl/src/core/../misc/lv_anim.h **** }
 155:Middlewares/lvgl/src/core/../misc/lv_anim.h **** 
 156:Middlewares/lvgl/src/core/../misc/lv_anim.h **** /**
 157:Middlewares/lvgl/src/core/../misc/lv_anim.h ****  * Set the start and end values of an animation
 158:Middlewares/lvgl/src/core/../misc/lv_anim.h ****  * @param a         pointer to an initialized `lv_anim_t` variable
 159:Middlewares/lvgl/src/core/../misc/lv_anim.h ****  * @param start     the start value
 160:Middlewares/lvgl/src/core/../misc/lv_anim.h ****  * @param end       the end value
 161:Middlewares/lvgl/src/core/../misc/lv_anim.h ****  */
 162:Middlewares/lvgl/src/core/../misc/lv_anim.h **** static inline void lv_anim_set_values(lv_anim_t * a, int32_t start, int32_t end)
 995              		.loc 2 162 20 view .LVU289
 996              	.LBB54:
 163:Middlewares/lvgl/src/core/../misc/lv_anim.h **** {
 164:Middlewares/lvgl/src/core/../misc/lv_anim.h ****     a->start_value = start;
 997              		.loc 2 164 5 view .LVU290
 998              		.loc 2 164 20 is_stmt 0 view .LVU291
 999 0012 0023     		movs	r3, #0
 1000 0014 0893     		str	r3, [sp, #32]
 165:Middlewares/lvgl/src/core/../misc/lv_anim.h ****     a->current_value = start;
 1001              		.loc 2 165 5 is_stmt 1 view .LVU292
 1002              		.loc 2 165 22 is_stmt 0 view .LVU293
 1003 0016 0993     		str	r3, [sp, #36]
 166:Middlewares/lvgl/src/core/../misc/lv_anim.h ****     a->end_value = end;
 1004              		.loc 2 166 5 is_stmt 1 view .LVU294
 1005              		.loc 2 166 18 is_stmt 0 view .LVU295
 1006 0018 FF23     		movs	r3, #255
 1007 001a 0A93     		str	r3, [sp, #40]
 1008              	.LVL93:
 1009              		.loc 2 166 18 view .LVU296
 1010              	.LBE54:
 1011              	.LBE53:
 423:Middlewares/lvgl/src/core/lv_obj_style.c ****     lv_anim_set_ready_cb(&a, fade_in_anim_ready);
 1012              		.loc 1 423 5 is_stmt 1 view .LVU297
 1013              	.LBB55:
 1014              	.LBI55:
 131:Middlewares/lvgl/src/core/../misc/lv_anim.h **** {
 1015              		.loc 2 131 20 view .LVU298
 1016              	.LBB56:
 133:Middlewares/lvgl/src/core/../misc/lv_anim.h **** }
 1017              		.loc 2 133 5 view .LVU299
 133:Middlewares/lvgl/src/core/../misc/lv_anim.h **** }
 1018              		.loc 2 133 16 is_stmt 0 view .LVU300
ARM GAS  /tmp/ccoxlgn6.s 			page 40


 1019 001c 054B     		ldr	r3, .L72
 1020 001e 0293     		str	r3, [sp, #8]
 1021              	.LVL94:
 133:Middlewares/lvgl/src/core/../misc/lv_anim.h **** }
 1022              		.loc 2 133 16 view .LVU301
 1023              	.LBE56:
 1024              	.LBE55:
 424:Middlewares/lvgl/src/core/lv_obj_style.c ****     lv_anim_set_time(&a, time);
 1025              		.loc 1 424 5 is_stmt 1 view .LVU302
 1026              	.LBB57:
 1027              	.LBI57:
 167:Middlewares/lvgl/src/core/../misc/lv_anim.h **** }
 168:Middlewares/lvgl/src/core/../misc/lv_anim.h **** 
 169:Middlewares/lvgl/src/core/../misc/lv_anim.h **** /**
 170:Middlewares/lvgl/src/core/../misc/lv_anim.h ****  * Similar to `lv_anim_set_exec_cb` but `lv_anim_custom_exec_cb_t` receives
 171:Middlewares/lvgl/src/core/../misc/lv_anim.h ****  * `lv_anim_t * ` as its first parameter instead of `void *`.
 172:Middlewares/lvgl/src/core/../misc/lv_anim.h ****  * This function might be used when LVGL is binded to other languages because
 173:Middlewares/lvgl/src/core/../misc/lv_anim.h ****  * it's more consistent to have `lv_anim_t *` as first parameter.
 174:Middlewares/lvgl/src/core/../misc/lv_anim.h ****  * The variable to animate can be stored in the animation's `user_sata`
 175:Middlewares/lvgl/src/core/../misc/lv_anim.h ****  * @param a         pointer to an initialized `lv_anim_t` variable
 176:Middlewares/lvgl/src/core/../misc/lv_anim.h ****  * @param exec_cb   a function to execute.
 177:Middlewares/lvgl/src/core/../misc/lv_anim.h ****  */
 178:Middlewares/lvgl/src/core/../misc/lv_anim.h **** static inline void lv_anim_set_custom_exec_cb(lv_anim_t * a, lv_anim_custom_exec_cb_t exec_cb)
 179:Middlewares/lvgl/src/core/../misc/lv_anim.h **** {
 180:Middlewares/lvgl/src/core/../misc/lv_anim.h ****     a->var     = a;
 181:Middlewares/lvgl/src/core/../misc/lv_anim.h ****     a->exec_cb = (lv_anim_exec_xcb_t)exec_cb;
 182:Middlewares/lvgl/src/core/../misc/lv_anim.h **** }
 183:Middlewares/lvgl/src/core/../misc/lv_anim.h **** 
 184:Middlewares/lvgl/src/core/../misc/lv_anim.h **** /**
 185:Middlewares/lvgl/src/core/../misc/lv_anim.h ****  * Set the path (curve) of the animation.
 186:Middlewares/lvgl/src/core/../misc/lv_anim.h ****  * @param a         pointer to an initialized `lv_anim_t` variable
 187:Middlewares/lvgl/src/core/../misc/lv_anim.h ****  * @param path_cb a function the get the current value of the animation.
 188:Middlewares/lvgl/src/core/../misc/lv_anim.h ****  */
 189:Middlewares/lvgl/src/core/../misc/lv_anim.h **** static inline void lv_anim_set_path_cb(lv_anim_t * a, lv_anim_path_cb_t path_cb)
 190:Middlewares/lvgl/src/core/../misc/lv_anim.h **** {
 191:Middlewares/lvgl/src/core/../misc/lv_anim.h ****     a->path_cb = path_cb;
 192:Middlewares/lvgl/src/core/../misc/lv_anim.h **** }
 193:Middlewares/lvgl/src/core/../misc/lv_anim.h **** 
 194:Middlewares/lvgl/src/core/../misc/lv_anim.h **** /**
 195:Middlewares/lvgl/src/core/../misc/lv_anim.h ****  * Set a function call when the animation really starts (considering `delay`)
 196:Middlewares/lvgl/src/core/../misc/lv_anim.h ****  * @param a         pointer to an initialized `lv_anim_t` variable
 197:Middlewares/lvgl/src/core/../misc/lv_anim.h ****  * @param start_cb  a function call when the animation starts
 198:Middlewares/lvgl/src/core/../misc/lv_anim.h ****  */
 199:Middlewares/lvgl/src/core/../misc/lv_anim.h **** static inline void lv_anim_set_start_cb(lv_anim_t * a, lv_anim_ready_cb_t start_cb)
 200:Middlewares/lvgl/src/core/../misc/lv_anim.h **** {
 201:Middlewares/lvgl/src/core/../misc/lv_anim.h ****     a->start_cb = start_cb;
 202:Middlewares/lvgl/src/core/../misc/lv_anim.h **** }
 203:Middlewares/lvgl/src/core/../misc/lv_anim.h **** 
 204:Middlewares/lvgl/src/core/../misc/lv_anim.h **** /**
 205:Middlewares/lvgl/src/core/../misc/lv_anim.h ****  * Set a function to use the current value of the variable and make start and end value
 206:Middlewares/lvgl/src/core/../misc/lv_anim.h ****  * relative the the returned current value.
 207:Middlewares/lvgl/src/core/../misc/lv_anim.h ****  * @param a             pointer to an initialized `lv_anim_t` variable
 208:Middlewares/lvgl/src/core/../misc/lv_anim.h ****  * @param get_value_cb  a function call when the animation starts
 209:Middlewares/lvgl/src/core/../misc/lv_anim.h ****  */
 210:Middlewares/lvgl/src/core/../misc/lv_anim.h **** static inline void lv_anim_set_get_value_cb(lv_anim_t * a, lv_anim_get_value_cb_t get_value_cb)
 211:Middlewares/lvgl/src/core/../misc/lv_anim.h **** {
 212:Middlewares/lvgl/src/core/../misc/lv_anim.h ****     a->get_value_cb = get_value_cb;
ARM GAS  /tmp/ccoxlgn6.s 			page 41


 213:Middlewares/lvgl/src/core/../misc/lv_anim.h **** }
 214:Middlewares/lvgl/src/core/../misc/lv_anim.h **** 
 215:Middlewares/lvgl/src/core/../misc/lv_anim.h **** /**
 216:Middlewares/lvgl/src/core/../misc/lv_anim.h ****  * Set a function call when the animation is ready
 217:Middlewares/lvgl/src/core/../misc/lv_anim.h ****  * @param a         pointer to an initialized `lv_anim_t` variable
 218:Middlewares/lvgl/src/core/../misc/lv_anim.h ****  * @param ready_cb  a function call when the animation is ready
 219:Middlewares/lvgl/src/core/../misc/lv_anim.h ****  */
 220:Middlewares/lvgl/src/core/../misc/lv_anim.h **** static inline void lv_anim_set_ready_cb(lv_anim_t * a, lv_anim_ready_cb_t ready_cb)
 1028              		.loc 2 220 20 view .LVU303
 1029              	.LBB58:
 221:Middlewares/lvgl/src/core/../misc/lv_anim.h **** {
 222:Middlewares/lvgl/src/core/../misc/lv_anim.h ****     a->ready_cb = ready_cb;
 1030              		.loc 2 222 5 view .LVU304
 1031              		.loc 2 222 17 is_stmt 0 view .LVU305
 1032 0020 054B     		ldr	r3, .L72+4
 1033 0022 0493     		str	r3, [sp, #16]
 1034              	.LVL95:
 1035              		.loc 2 222 17 view .LVU306
 1036              	.LBE58:
 1037              	.LBE57:
 425:Middlewares/lvgl/src/core/lv_obj_style.c ****     lv_anim_set_delay(&a, delay);
 1038              		.loc 1 425 5 is_stmt 1 view .LVU307
 1039              	.LBB59:
 1040              	.LBI59:
 141:Middlewares/lvgl/src/core/../misc/lv_anim.h **** {
 1041              		.loc 2 141 20 view .LVU308
 1042              	.LBB60:
 143:Middlewares/lvgl/src/core/../misc/lv_anim.h **** }
 1043              		.loc 2 143 5 view .LVU309
 143:Middlewares/lvgl/src/core/../misc/lv_anim.h **** }
 1044              		.loc 2 143 13 is_stmt 0 view .LVU310
 1045 0024 0B95     		str	r5, [sp, #44]
 1046              	.LVL96:
 143:Middlewares/lvgl/src/core/../misc/lv_anim.h **** }
 1047              		.loc 2 143 13 view .LVU311
 1048              	.LBE60:
 1049              	.LBE59:
 426:Middlewares/lvgl/src/core/lv_obj_style.c ****     lv_anim_start(&a);
 1050              		.loc 1 426 5 is_stmt 1 view .LVU312
 1051              	.LBB61:
 1052              	.LBI61:
 151:Middlewares/lvgl/src/core/../misc/lv_anim.h **** {
 1053              		.loc 2 151 20 view .LVU313
 1054              	.LBB62:
 153:Middlewares/lvgl/src/core/../misc/lv_anim.h **** }
 1055              		.loc 2 153 5 view .LVU314
 153:Middlewares/lvgl/src/core/../misc/lv_anim.h **** }
 1056              		.loc 2 153 19 is_stmt 0 view .LVU315
 1057 0026 6442     		rsbs	r4, r4, #0
 1058              	.LVL97:
 153:Middlewares/lvgl/src/core/../misc/lv_anim.h **** }
 1059              		.loc 2 153 17 view .LVU316
 1060 0028 0C94     		str	r4, [sp, #48]
 1061              	.LVL98:
 153:Middlewares/lvgl/src/core/../misc/lv_anim.h **** }
 1062              		.loc 2 153 17 view .LVU317
 1063              	.LBE62:
ARM GAS  /tmp/ccoxlgn6.s 			page 42


 1064              	.LBE61:
 427:Middlewares/lvgl/src/core/lv_obj_style.c **** }
 1065              		.loc 1 427 5 is_stmt 1 view .LVU318
 1066 002a 01A8     		add	r0, sp, #4
 1067 002c FFF7FEFF 		bl	lv_anim_start
 1068              	.LVL99:
 428:Middlewares/lvgl/src/core/lv_obj_style.c **** 
 1069              		.loc 1 428 1 is_stmt 0 view .LVU319
 1070 0030 12B0     		add	sp, sp, #72
 1071              	.LCFI11:
 1072              		.cfi_def_cfa_offset 16
 1073              		@ sp needed
 1074 0032 70BD     		pop	{r4, r5, r6, pc}
 1075              	.LVL100:
 1076              	.L73:
 428:Middlewares/lvgl/src/core/lv_obj_style.c **** 
 1077              		.loc 1 428 1 view .LVU320
 1078              		.align	2
 1079              	.L72:
 1080 0034 00000000 		.word	fade_anim_cb
 1081 0038 00000000 		.word	fade_in_anim_ready
 1082              		.cfi_endproc
 1083              	.LFE165:
 1085              		.section	.text.lv_obj_fade_out,"ax",%progbits
 1086              		.align	1
 1087              		.global	lv_obj_fade_out
 1088              		.syntax unified
 1089              		.thumb
 1090              		.thumb_func
 1091              		.fpu fpv5-d16
 1093              	lv_obj_fade_out:
 1094              	.LVL101:
 1095              	.LFB166:
 431:Middlewares/lvgl/src/core/lv_obj_style.c ****     lv_anim_t a;
 1096              		.loc 1 431 1 is_stmt 1 view -0
 1097              		.cfi_startproc
 1098              		@ args = 0, pretend = 0, frame = 72
 1099              		@ frame_needed = 0, uses_anonymous_args = 0
 431:Middlewares/lvgl/src/core/lv_obj_style.c ****     lv_anim_t a;
 1100              		.loc 1 431 1 is_stmt 0 view .LVU322
 1101 0000 70B5     		push	{r4, r5, r6, lr}
 1102              	.LCFI12:
 1103              		.cfi_def_cfa_offset 16
 1104              		.cfi_offset 4, -16
 1105              		.cfi_offset 5, -12
 1106              		.cfi_offset 6, -8
 1107              		.cfi_offset 14, -4
 1108 0002 92B0     		sub	sp, sp, #72
 1109              	.LCFI13:
 1110              		.cfi_def_cfa_offset 88
 1111 0004 0646     		mov	r6, r0
 1112 0006 0D46     		mov	r5, r1
 1113 0008 1446     		mov	r4, r2
 432:Middlewares/lvgl/src/core/lv_obj_style.c ****     lv_anim_init(&a);
 1114              		.loc 1 432 5 is_stmt 1 view .LVU323
 433:Middlewares/lvgl/src/core/lv_obj_style.c ****     lv_anim_set_var(&a, obj);
 1115              		.loc 1 433 5 view .LVU324
ARM GAS  /tmp/ccoxlgn6.s 			page 43


 1116 000a 01A8     		add	r0, sp, #4
 1117              	.LVL102:
 433:Middlewares/lvgl/src/core/lv_obj_style.c ****     lv_anim_set_var(&a, obj);
 1118              		.loc 1 433 5 is_stmt 0 view .LVU325
 1119 000c FFF7FEFF 		bl	lv_anim_init
 1120              	.LVL103:
 434:Middlewares/lvgl/src/core/lv_obj_style.c ****     lv_anim_set_values(&a, LV_OPA_COVER, LV_OPA_TRANSP);
 1121              		.loc 1 434 5 is_stmt 1 view .LVU326
 1122              	.LBB63:
 1123              	.LBI63:
 119:Middlewares/lvgl/src/core/../misc/lv_anim.h **** {
 1124              		.loc 2 119 20 view .LVU327
 1125              	.LBB64:
 121:Middlewares/lvgl/src/core/../misc/lv_anim.h **** }
 1126              		.loc 2 121 5 view .LVU328
 121:Middlewares/lvgl/src/core/../misc/lv_anim.h **** }
 1127              		.loc 2 121 12 is_stmt 0 view .LVU329
 1128 0010 0196     		str	r6, [sp, #4]
 1129              	.LVL104:
 121:Middlewares/lvgl/src/core/../misc/lv_anim.h **** }
 1130              		.loc 2 121 12 view .LVU330
 1131              	.LBE64:
 1132              	.LBE63:
 435:Middlewares/lvgl/src/core/lv_obj_style.c ****     lv_anim_set_exec_cb(&a, fade_anim_cb);
 1133              		.loc 1 435 5 is_stmt 1 view .LVU331
 1134              	.LBB65:
 1135              	.LBI65:
 162:Middlewares/lvgl/src/core/../misc/lv_anim.h **** {
 1136              		.loc 2 162 20 view .LVU332
 1137              	.LBB66:
 164:Middlewares/lvgl/src/core/../misc/lv_anim.h ****     a->current_value = start;
 1138              		.loc 2 164 5 view .LVU333
 164:Middlewares/lvgl/src/core/../misc/lv_anim.h ****     a->current_value = start;
 1139              		.loc 2 164 20 is_stmt 0 view .LVU334
 1140 0012 FF23     		movs	r3, #255
 1141 0014 0893     		str	r3, [sp, #32]
 165:Middlewares/lvgl/src/core/../misc/lv_anim.h ****     a->end_value = end;
 1142              		.loc 2 165 5 is_stmt 1 view .LVU335
 165:Middlewares/lvgl/src/core/../misc/lv_anim.h ****     a->end_value = end;
 1143              		.loc 2 165 22 is_stmt 0 view .LVU336
 1144 0016 0993     		str	r3, [sp, #36]
 166:Middlewares/lvgl/src/core/../misc/lv_anim.h **** }
 1145              		.loc 2 166 5 is_stmt 1 view .LVU337
 166:Middlewares/lvgl/src/core/../misc/lv_anim.h **** }
 1146              		.loc 2 166 18 is_stmt 0 view .LVU338
 1147 0018 0023     		movs	r3, #0
 1148 001a 0A93     		str	r3, [sp, #40]
 1149              	.LVL105:
 166:Middlewares/lvgl/src/core/../misc/lv_anim.h **** }
 1150              		.loc 2 166 18 view .LVU339
 1151              	.LBE66:
 1152              	.LBE65:
 436:Middlewares/lvgl/src/core/lv_obj_style.c ****     lv_anim_set_time(&a, time);
 1153              		.loc 1 436 5 is_stmt 1 view .LVU340
 1154              	.LBB67:
 1155              	.LBI67:
 131:Middlewares/lvgl/src/core/../misc/lv_anim.h **** {
ARM GAS  /tmp/ccoxlgn6.s 			page 44


 1156              		.loc 2 131 20 view .LVU341
 1157              	.LBB68:
 133:Middlewares/lvgl/src/core/../misc/lv_anim.h **** }
 1158              		.loc 2 133 5 view .LVU342
 133:Middlewares/lvgl/src/core/../misc/lv_anim.h **** }
 1159              		.loc 2 133 16 is_stmt 0 view .LVU343
 1160 001c 044B     		ldr	r3, .L76
 1161 001e 0293     		str	r3, [sp, #8]
 1162              	.LVL106:
 133:Middlewares/lvgl/src/core/../misc/lv_anim.h **** }
 1163              		.loc 2 133 16 view .LVU344
 1164              	.LBE68:
 1165              	.LBE67:
 437:Middlewares/lvgl/src/core/lv_obj_style.c ****     lv_anim_set_delay(&a, delay);
 1166              		.loc 1 437 5 is_stmt 1 view .LVU345
 1167              	.LBB69:
 1168              	.LBI69:
 141:Middlewares/lvgl/src/core/../misc/lv_anim.h **** {
 1169              		.loc 2 141 20 view .LVU346
 1170              	.LBB70:
 143:Middlewares/lvgl/src/core/../misc/lv_anim.h **** }
 1171              		.loc 2 143 5 view .LVU347
 143:Middlewares/lvgl/src/core/../misc/lv_anim.h **** }
 1172              		.loc 2 143 13 is_stmt 0 view .LVU348
 1173 0020 0B95     		str	r5, [sp, #44]
 1174              	.LVL107:
 143:Middlewares/lvgl/src/core/../misc/lv_anim.h **** }
 1175              		.loc 2 143 13 view .LVU349
 1176              	.LBE70:
 1177              	.LBE69:
 438:Middlewares/lvgl/src/core/lv_obj_style.c ****     lv_anim_start(&a);
 1178              		.loc 1 438 5 is_stmt 1 view .LVU350
 1179              	.LBB71:
 1180              	.LBI71:
 151:Middlewares/lvgl/src/core/../misc/lv_anim.h **** {
 1181              		.loc 2 151 20 view .LVU351
 1182              	.LBB72:
 153:Middlewares/lvgl/src/core/../misc/lv_anim.h **** }
 1183              		.loc 2 153 5 view .LVU352
 153:Middlewares/lvgl/src/core/../misc/lv_anim.h **** }
 1184              		.loc 2 153 19 is_stmt 0 view .LVU353
 1185 0022 6442     		rsbs	r4, r4, #0
 1186              	.LVL108:
 153:Middlewares/lvgl/src/core/../misc/lv_anim.h **** }
 1187              		.loc 2 153 17 view .LVU354
 1188 0024 0C94     		str	r4, [sp, #48]
 1189              	.LVL109:
 153:Middlewares/lvgl/src/core/../misc/lv_anim.h **** }
 1190              		.loc 2 153 17 view .LVU355
 1191              	.LBE72:
 1192              	.LBE71:
 439:Middlewares/lvgl/src/core/lv_obj_style.c **** }
 1193              		.loc 1 439 5 is_stmt 1 view .LVU356
 1194 0026 01A8     		add	r0, sp, #4
 1195 0028 FFF7FEFF 		bl	lv_anim_start
 1196              	.LVL110:
 440:Middlewares/lvgl/src/core/lv_obj_style.c **** 
ARM GAS  /tmp/ccoxlgn6.s 			page 45


 1197              		.loc 1 440 1 is_stmt 0 view .LVU357
 1198 002c 12B0     		add	sp, sp, #72
 1199              	.LCFI14:
 1200              		.cfi_def_cfa_offset 16
 1201              		@ sp needed
 1202 002e 70BD     		pop	{r4, r5, r6, pc}
 1203              	.LVL111:
 1204              	.L77:
 440:Middlewares/lvgl/src/core/lv_obj_style.c **** 
 1205              		.loc 1 440 1 view .LVU358
 1206              		.align	2
 1207              	.L76:
 1208 0030 00000000 		.word	fade_anim_cb
 1209              		.cfi_endproc
 1210              	.LFE166:
 1212              		.section	.text.lv_obj_style_get_selector_state,"ax",%progbits
 1213              		.align	1
 1214              		.global	lv_obj_style_get_selector_state
 1215              		.syntax unified
 1216              		.thumb
 1217              		.thumb_func
 1218              		.fpu fpv5-d16
 1220              	lv_obj_style_get_selector_state:
 1221              	.LVL112:
 1222              	.LFB167:
 443:Middlewares/lvgl/src/core/lv_obj_style.c ****     return selector & 0xFFFF;
 1223              		.loc 1 443 1 is_stmt 1 view -0
 1224              		.cfi_startproc
 1225              		@ args = 0, pretend = 0, frame = 0
 1226              		@ frame_needed = 0, uses_anonymous_args = 0
 1227              		@ link register save eliminated.
 444:Middlewares/lvgl/src/core/lv_obj_style.c **** }
 1228              		.loc 1 444 5 view .LVU360
 445:Middlewares/lvgl/src/core/lv_obj_style.c **** 
 1229              		.loc 1 445 1 is_stmt 0 view .LVU361
 1230 0000 80B2     		uxth	r0, r0
 1231              	.LVL113:
 445:Middlewares/lvgl/src/core/lv_obj_style.c **** 
 1232              		.loc 1 445 1 view .LVU362
 1233 0002 7047     		bx	lr
 1234              		.cfi_endproc
 1235              	.LFE167:
 1237              		.section	.text.lv_obj_style_get_selector_part,"ax",%progbits
 1238              		.align	1
 1239              		.global	lv_obj_style_get_selector_part
 1240              		.syntax unified
 1241              		.thumb
 1242              		.thumb_func
 1243              		.fpu fpv5-d16
 1245              	lv_obj_style_get_selector_part:
 1246              	.LVL114:
 1247              	.LFB168:
 448:Middlewares/lvgl/src/core/lv_obj_style.c ****     return selector & 0xFF0000;
 1248              		.loc 1 448 1 is_stmt 1 view -0
 1249              		.cfi_startproc
 1250              		@ args = 0, pretend = 0, frame = 0
 1251              		@ frame_needed = 0, uses_anonymous_args = 0
ARM GAS  /tmp/ccoxlgn6.s 			page 46


 1252              		@ link register save eliminated.
 449:Middlewares/lvgl/src/core/lv_obj_style.c **** }
 1253              		.loc 1 449 5 view .LVU364
 450:Middlewares/lvgl/src/core/lv_obj_style.c **** 
 1254              		.loc 1 450 1 is_stmt 0 view .LVU365
 1255 0000 00F47F00 		and	r0, r0, #16711680
 1256              	.LVL115:
 450:Middlewares/lvgl/src/core/lv_obj_style.c **** 
 1257              		.loc 1 450 1 view .LVU366
 1258 0004 7047     		bx	lr
 1259              		.cfi_endproc
 1260              	.LFE168:
 1262              		.section	.text.lv_obj_refresh_style,"ax",%progbits
 1263              		.align	1
 1264              		.global	lv_obj_refresh_style
 1265              		.syntax unified
 1266              		.thumb
 1267              		.thumb_func
 1268              		.fpu fpv5-d16
 1270              	lv_obj_refresh_style:
 1271              	.LVL116:
 1272              	.LFB157:
 169:Middlewares/lvgl/src/core/lv_obj_style.c ****     LV_ASSERT_OBJ(obj, MY_CLASS);
 1273              		.loc 1 169 1 is_stmt 1 view -0
 1274              		.cfi_startproc
 1275              		@ args = 0, pretend = 0, frame = 0
 1276              		@ frame_needed = 0, uses_anonymous_args = 0
 169:Middlewares/lvgl/src/core/lv_obj_style.c ****     LV_ASSERT_OBJ(obj, MY_CLASS);
 1277              		.loc 1 169 1 is_stmt 0 view .LVU368
 1278 0000 F8B5     		push	{r3, r4, r5, r6, r7, lr}
 1279              	.LCFI15:
 1280              		.cfi_def_cfa_offset 24
 1281              		.cfi_offset 3, -24
 1282              		.cfi_offset 4, -20
 1283              		.cfi_offset 5, -16
 1284              		.cfi_offset 6, -12
 1285              		.cfi_offset 7, -8
 1286              		.cfi_offset 14, -4
 170:Middlewares/lvgl/src/core/lv_obj_style.c **** 
 1287              		.loc 1 170 5 is_stmt 1 view .LVU369
 170:Middlewares/lvgl/src/core/lv_obj_style.c **** 
 1288              		.loc 1 170 5 view .LVU370
 170:Middlewares/lvgl/src/core/lv_obj_style.c **** 
 1289              		.loc 1 170 5 view .LVU371
 172:Middlewares/lvgl/src/core/lv_obj_style.c **** 
 1290              		.loc 1 172 5 view .LVU372
 172:Middlewares/lvgl/src/core/lv_obj_style.c **** 
 1291              		.loc 1 172 8 is_stmt 0 view .LVU373
 1292 0002 284B     		ldr	r3, .L91
 1293 0004 1B78     		ldrb	r3, [r3]	@ zero_extendqisi2
 172:Middlewares/lvgl/src/core/lv_obj_style.c **** 
 1294              		.loc 1 172 7 view .LVU374
 1295 0006 03B9     		cbnz	r3, .L90
 1296              	.LVL117:
 1297              	.L80:
 199:Middlewares/lvgl/src/core/lv_obj_style.c **** 
 1298              		.loc 1 199 1 view .LVU375
ARM GAS  /tmp/ccoxlgn6.s 			page 47


 1299 0008 F8BD     		pop	{r3, r4, r5, r6, r7, pc}
 1300              	.LVL118:
 1301              	.L90:
 199:Middlewares/lvgl/src/core/lv_obj_style.c **** 
 1302              		.loc 1 199 1 view .LVU376
 1303 000a 0646     		mov	r6, r0
 1304 000c 0D46     		mov	r5, r1
 1305 000e 1446     		mov	r4, r2
 174:Middlewares/lvgl/src/core/lv_obj_style.c **** 
 1306              		.loc 1 174 5 is_stmt 1 view .LVU377
 1307 0010 FFF7FEFF 		bl	lv_obj_invalidate
 1308              	.LVL119:
 176:Middlewares/lvgl/src/core/lv_obj_style.c **** 
 1309              		.loc 1 176 5 view .LVU378
 176:Middlewares/lvgl/src/core/lv_obj_style.c **** 
 1310              		.loc 1 176 22 is_stmt 0 view .LVU379
 1311 0014 2846     		mov	r0, r5
 1312 0016 FFF7FEFF 		bl	lv_obj_style_get_selector_part
 1313              	.LVL120:
 1314 001a 0546     		mov	r5, r0
 1315              	.LVL121:
 178:Middlewares/lvgl/src/core/lv_obj_style.c ****         lv_event_send(obj, LV_EVENT_STYLE_CHANGED, NULL);
 1316              		.loc 1 178 5 is_stmt 1 view .LVU380
 178:Middlewares/lvgl/src/core/lv_obj_style.c ****         lv_event_send(obj, LV_EVENT_STYLE_CHANGED, NULL);
 1317              		.loc 1 178 7 is_stmt 0 view .LVU381
 1318 001c 0028     		cmp	r0, #0
 1319 001e 18BF     		it	ne
 1320 0020 B0F5702F 		cmpne	r0, #983040
 1321 0024 0CBF     		ite	eq
 1322 0026 0127     		moveq	r7, #1
 1323 0028 0027     		movne	r7, #0
 1324 002a 0ED1     		bne	.L82
 178:Middlewares/lvgl/src/core/lv_obj_style.c ****         lv_event_send(obj, LV_EVENT_STYLE_CHANGED, NULL);
 1325              		.loc 1 178 54 discriminator 1 view .LVU382
 1326 002c 4FF6FF73 		movw	r3, #65535
 1327 0030 9C42     		cmp	r4, r3
 1328 0032 02D0     		beq	.L83
 178:Middlewares/lvgl/src/core/lv_obj_style.c ****         lv_event_send(obj, LV_EVENT_STYLE_CHANGED, NULL);
 1329              		.loc 1 178 84 discriminator 2 view .LVU383
 1330 0034 14F4805F 		tst	r4, #4096
 1331 0038 07D0     		beq	.L82
 1332              	.L83:
 179:Middlewares/lvgl/src/core/lv_obj_style.c ****         lv_obj_mark_layout_as_dirty(obj);
 1333              		.loc 1 179 9 is_stmt 1 view .LVU384
 1334 003a 0022     		movs	r2, #0
 1335 003c 2421     		movs	r1, #36
 1336 003e 3046     		mov	r0, r6
 1337              	.LVL122:
 179:Middlewares/lvgl/src/core/lv_obj_style.c ****         lv_obj_mark_layout_as_dirty(obj);
 1338              		.loc 1 179 9 is_stmt 0 view .LVU385
 1339 0040 FFF7FEFF 		bl	lv_event_send
 1340              	.LVL123:
 180:Middlewares/lvgl/src/core/lv_obj_style.c ****     }
 1341              		.loc 1 180 9 is_stmt 1 view .LVU386
 1342 0044 3046     		mov	r0, r6
 1343 0046 FFF7FEFF 		bl	lv_obj_mark_layout_as_dirty
 1344              	.LVL124:
ARM GAS  /tmp/ccoxlgn6.s 			page 48


 1345              	.L82:
 182:Middlewares/lvgl/src/core/lv_obj_style.c ****         lv_obj_t * parent = lv_obj_get_parent(obj);
 1346              		.loc 1 182 5 view .LVU387
 182:Middlewares/lvgl/src/core/lv_obj_style.c ****         lv_obj_t * parent = lv_obj_get_parent(obj);
 1347              		.loc 1 182 7 is_stmt 0 view .LVU388
 1348 004a 67B1     		cbz	r7, .L84
 182:Middlewares/lvgl/src/core/lv_obj_style.c ****         lv_obj_t * parent = lv_obj_get_parent(obj);
 1349              		.loc 1 182 54 discriminator 1 view .LVU389
 1350 004c 4FF6FF73 		movw	r3, #65535
 1351 0050 9C42     		cmp	r4, r3
 1352 0052 02D0     		beq	.L85
 182:Middlewares/lvgl/src/core/lv_obj_style.c ****         lv_obj_t * parent = lv_obj_get_parent(obj);
 1353              		.loc 1 182 84 discriminator 2 view .LVU390
 1354 0054 14F4005F 		tst	r4, #8192
 1355 0058 05D0     		beq	.L84
 1356              	.L85:
 1357              	.LBB73:
 183:Middlewares/lvgl/src/core/lv_obj_style.c ****         if(parent) lv_obj_mark_layout_as_dirty(parent);
 1358              		.loc 1 183 9 is_stmt 1 view .LVU391
 183:Middlewares/lvgl/src/core/lv_obj_style.c ****         if(parent) lv_obj_mark_layout_as_dirty(parent);
 1359              		.loc 1 183 29 is_stmt 0 view .LVU392
 1360 005a 3046     		mov	r0, r6
 1361 005c FFF7FEFF 		bl	lv_obj_get_parent
 1362              	.LVL125:
 184:Middlewares/lvgl/src/core/lv_obj_style.c ****     }
 1363              		.loc 1 184 9 is_stmt 1 view .LVU393
 184:Middlewares/lvgl/src/core/lv_obj_style.c ****     }
 1364              		.loc 1 184 11 is_stmt 0 view .LVU394
 1365 0060 08B1     		cbz	r0, .L84
 184:Middlewares/lvgl/src/core/lv_obj_style.c ****     }
 1366              		.loc 1 184 20 is_stmt 1 discriminator 1 view .LVU395
 1367 0062 FFF7FEFF 		bl	lv_obj_mark_layout_as_dirty
 1368              	.LVL126:
 1369              	.L84:
 184:Middlewares/lvgl/src/core/lv_obj_style.c ****     }
 1370              		.loc 1 184 20 is_stmt 0 discriminator 1 view .LVU396
 1371              	.LBE73:
 187:Middlewares/lvgl/src/core/lv_obj_style.c ****         lv_obj_refresh_ext_draw_size(obj);
 1372              		.loc 1 187 5 is_stmt 1 view .LVU397
 187:Middlewares/lvgl/src/core/lv_obj_style.c ****         lv_obj_refresh_ext_draw_size(obj);
 1373              		.loc 1 187 7 is_stmt 0 view .LVU398
 1374 0066 4FF6FF73 		movw	r3, #65535
 1375 006a 9C42     		cmp	r4, r3
 1376 006c 02D0     		beq	.L86
 187:Middlewares/lvgl/src/core/lv_obj_style.c ****         lv_obj_refresh_ext_draw_size(obj);
 1377              		.loc 1 187 34 discriminator 1 view .LVU399
 1378 006e 14F4006F 		tst	r4, #2048
 1379 0072 02D0     		beq	.L87
 1380              	.L86:
 188:Middlewares/lvgl/src/core/lv_obj_style.c ****     }
 1381              		.loc 1 188 9 is_stmt 1 view .LVU400
 1382 0074 3046     		mov	r0, r6
 1383 0076 FFF7FEFF 		bl	lv_obj_refresh_ext_draw_size
 1384              	.LVL127:
 1385              	.L87:
 190:Middlewares/lvgl/src/core/lv_obj_style.c **** 
 1386              		.loc 1 190 5 view .LVU401
ARM GAS  /tmp/ccoxlgn6.s 			page 49


 1387 007a 3046     		mov	r0, r6
 1388 007c FFF7FEFF 		bl	lv_obj_invalidate
 1389              	.LVL128:
 192:Middlewares/lvgl/src/core/lv_obj_style.c ****       ((prop & LV_STYLE_PROP_INHERIT) && ((prop & LV_STYLE_PROP_EXT_DRAW) || (prop & LV_STYLE_PROP_
 1390              		.loc 1 192 5 view .LVU402
 192:Middlewares/lvgl/src/core/lv_obj_style.c ****       ((prop & LV_STYLE_PROP_INHERIT) && ((prop & LV_STYLE_PROP_EXT_DRAW) || (prop & LV_STYLE_PROP_
 1391              		.loc 1 192 7 is_stmt 0 view .LVU403
 1392 0080 4FF6FF73 		movw	r3, #65535
 1393 0084 9C42     		cmp	r4, r3
 1394 0086 05D0     		beq	.L88
 192:Middlewares/lvgl/src/core/lv_obj_style.c ****       ((prop & LV_STYLE_PROP_INHERIT) && ((prop & LV_STYLE_PROP_EXT_DRAW) || (prop & LV_STYLE_PROP_
 1395              		.loc 1 192 34 discriminator 1 view .LVU404
 1396 0088 14F4806F 		tst	r4, #1024
 1397 008c BCD0     		beq	.L80
 193:Middlewares/lvgl/src/core/lv_obj_style.c ****     {
 1398              		.loc 1 193 39 view .LVU405
 1399 008e 14F4C05F 		tst	r4, #6144
 1400 0092 B9D0     		beq	.L80
 1401              	.L88:
 195:Middlewares/lvgl/src/core/lv_obj_style.c ****             refresh_children_style(obj);
 1402              		.loc 1 195 9 is_stmt 1 view .LVU406
 195:Middlewares/lvgl/src/core/lv_obj_style.c ****             refresh_children_style(obj);
 1403              		.loc 1 195 11 is_stmt 0 view .LVU407
 1404 0094 B5F5803F 		cmp	r5, #65536
 1405 0098 B6D0     		beq	.L80
 196:Middlewares/lvgl/src/core/lv_obj_style.c ****         }
 1406              		.loc 1 196 13 is_stmt 1 view .LVU408
 1407 009a 3046     		mov	r0, r6
 1408 009c FFF7FEFF 		bl	refresh_children_style
 1409              	.LVL129:
 1410 00a0 B2E7     		b	.L80
 1411              	.L92:
 1412 00a2 00BF     		.align	2
 1413              	.L91:
 1414 00a4 00000000 		.word	.LANCHOR0
 1415              		.cfi_endproc
 1416              	.LFE157:
 1418              		.section	.text.lv_obj_add_style,"ax",%progbits
 1419              		.align	1
 1420              		.global	lv_obj_add_style
 1421              		.syntax unified
 1422              		.thumb
 1423              		.thumb_func
 1424              		.fpu fpv5-d16
 1426              	lv_obj_add_style:
 1427              	.LVL130:
 1428              	.LFB154:
  77:Middlewares/lvgl/src/core/lv_obj_style.c ****     trans_del(obj, selector, LV_STYLE_PROP_ANY, NULL);
 1429              		.loc 1 77 1 view -0
 1430              		.cfi_startproc
 1431              		@ args = 0, pretend = 0, frame = 0
 1432              		@ frame_needed = 0, uses_anonymous_args = 0
  77:Middlewares/lvgl/src/core/lv_obj_style.c ****     trans_del(obj, selector, LV_STYLE_PROP_ANY, NULL);
 1433              		.loc 1 77 1 is_stmt 0 view .LVU410
 1434 0000 2DE9F041 		push	{r4, r5, r6, r7, r8, lr}
 1435              	.LCFI16:
 1436              		.cfi_def_cfa_offset 24
ARM GAS  /tmp/ccoxlgn6.s 			page 50


 1437              		.cfi_offset 4, -24
 1438              		.cfi_offset 5, -20
 1439              		.cfi_offset 6, -16
 1440              		.cfi_offset 7, -12
 1441              		.cfi_offset 8, -8
 1442              		.cfi_offset 14, -4
 1443 0004 0546     		mov	r5, r0
 1444 0006 8846     		mov	r8, r1
 1445 0008 1746     		mov	r7, r2
  78:Middlewares/lvgl/src/core/lv_obj_style.c **** 
 1446              		.loc 1 78 5 is_stmt 1 view .LVU411
 1447 000a 0023     		movs	r3, #0
 1448 000c 4FF6FF72 		movw	r2, #65535
 1449              	.LVL131:
  78:Middlewares/lvgl/src/core/lv_obj_style.c **** 
 1450              		.loc 1 78 5 is_stmt 0 view .LVU412
 1451 0010 3946     		mov	r1, r7
 1452              	.LVL132:
  78:Middlewares/lvgl/src/core/lv_obj_style.c **** 
 1453              		.loc 1 78 5 view .LVU413
 1454 0012 FFF7FEFF 		bl	trans_del
 1455              	.LVL133:
  80:Middlewares/lvgl/src/core/lv_obj_style.c ****     /*Go after the transition and local styles*/
 1456              		.loc 1 80 5 is_stmt 1 view .LVU414
  82:Middlewares/lvgl/src/core/lv_obj_style.c ****         if(obj->styles[i].is_trans) continue;
 1457              		.loc 1 82 5 view .LVU415
  82:Middlewares/lvgl/src/core/lv_obj_style.c ****         if(obj->styles[i].is_trans) continue;
 1458              		.loc 1 82 11 is_stmt 0 view .LVU416
 1459 0016 0026     		movs	r6, #0
  82:Middlewares/lvgl/src/core/lv_obj_style.c ****         if(obj->styles[i].is_trans) continue;
 1460              		.loc 1 82 5 view .LVU417
 1461 0018 00E0     		b	.L94
 1462              	.LVL134:
 1463              	.L95:
  82:Middlewares/lvgl/src/core/lv_obj_style.c ****         if(obj->styles[i].is_trans) continue;
 1464              		.loc 1 82 36 is_stmt 1 discriminator 2 view .LVU418
  82:Middlewares/lvgl/src/core/lv_obj_style.c ****         if(obj->styles[i].is_trans) continue;
 1465              		.loc 1 82 37 is_stmt 0 discriminator 2 view .LVU419
 1466 001a 0136     		adds	r6, r6, #1
 1467              	.LVL135:
 1468              	.L94:
  82:Middlewares/lvgl/src/core/lv_obj_style.c ****         if(obj->styles[i].is_trans) continue;
 1469              		.loc 1 82 16 is_stmt 1 discriminator 1 view .LVU420
  82:Middlewares/lvgl/src/core/lv_obj_style.c ****         if(obj->styles[i].is_trans) continue;
 1470              		.loc 1 82 23 is_stmt 0 discriminator 1 view .LVU421
 1471 001c 698C     		ldrh	r1, [r5, #34]
 1472 001e C1F3C501 		ubfx	r1, r1, #3, #6
  82:Middlewares/lvgl/src/core/lv_obj_style.c ****         if(obj->styles[i].is_trans) continue;
 1473              		.loc 1 82 5 discriminator 1 view .LVU422
 1474 0022 B142     		cmp	r1, r6
 1475 0024 09D9     		bls	.L96
  83:Middlewares/lvgl/src/core/lv_obj_style.c ****         if(obj->styles[i].is_local) continue;
 1476              		.loc 1 83 9 is_stmt 1 view .LVU423
  83:Middlewares/lvgl/src/core/lv_obj_style.c ****         if(obj->styles[i].is_local) continue;
 1477              		.loc 1 83 15 is_stmt 0 view .LVU424
 1478 0026 EB68     		ldr	r3, [r5, #12]
  83:Middlewares/lvgl/src/core/lv_obj_style.c ****         if(obj->styles[i].is_local) continue;
ARM GAS  /tmp/ccoxlgn6.s 			page 51


 1479              		.loc 1 83 23 view .LVU425
 1480 0028 03EBC603 		add	r3, r3, r6, lsl #3
  83:Middlewares/lvgl/src/core/lv_obj_style.c ****         if(obj->styles[i].is_local) continue;
 1481              		.loc 1 83 12 view .LVU426
 1482 002c DB79     		ldrb	r3, [r3, #7]	@ zero_extendqisi2
  83:Middlewares/lvgl/src/core/lv_obj_style.c ****         if(obj->styles[i].is_local) continue;
 1483              		.loc 1 83 11 view .LVU427
 1484 002e 13F0020F 		tst	r3, #2
 1485 0032 F2D1     		bne	.L95
  84:Middlewares/lvgl/src/core/lv_obj_style.c ****         break;
 1486              		.loc 1 84 9 is_stmt 1 view .LVU428
  84:Middlewares/lvgl/src/core/lv_obj_style.c ****         break;
 1487              		.loc 1 84 11 is_stmt 0 view .LVU429
 1488 0034 13F0010F 		tst	r3, #1
 1489 0038 EFD1     		bne	.L95
 1490              	.L96:
  91:Middlewares/lvgl/src/core/lv_obj_style.c ****     obj->styles = lv_mem_realloc(obj->styles, obj->style_cnt * sizeof(_lv_obj_style_t));
 1491              		.loc 1 91 5 is_stmt 1 view .LVU430
  91:Middlewares/lvgl/src/core/lv_obj_style.c ****     obj->styles = lv_mem_realloc(obj->styles, obj->style_cnt * sizeof(_lv_obj_style_t));
 1492              		.loc 1 91 19 is_stmt 0 view .LVU431
 1493 003a 0131     		adds	r1, r1, #1
 1494 003c 01F03F01 		and	r1, r1, #63
 1495 0040 6B8C     		ldrh	r3, [r5, #34]
 1496 0042 61F3C803 		bfi	r3, r1, #3, #6
 1497 0046 6B84     		strh	r3, [r5, #34]	@ movhi
  92:Middlewares/lvgl/src/core/lv_obj_style.c **** 
 1498              		.loc 1 92 5 is_stmt 1 view .LVU432
  92:Middlewares/lvgl/src/core/lv_obj_style.c **** 
 1499              		.loc 1 92 19 is_stmt 0 view .LVU433
 1500 0048 C900     		lsls	r1, r1, #3
 1501 004a E868     		ldr	r0, [r5, #12]
 1502 004c FFF7FEFF 		bl	lv_mem_realloc
 1503              	.LVL136:
  92:Middlewares/lvgl/src/core/lv_obj_style.c **** 
 1504              		.loc 1 92 17 view .LVU434
 1505 0050 E860     		str	r0, [r5, #12]
  94:Middlewares/lvgl/src/core/lv_obj_style.c ****     for(j = obj->style_cnt - 1; j > i ; j--) {
 1506              		.loc 1 94 5 is_stmt 1 view .LVU435
  95:Middlewares/lvgl/src/core/lv_obj_style.c ****         obj->styles[j] = obj->styles[j - 1];
 1507              		.loc 1 95 5 view .LVU436
  95:Middlewares/lvgl/src/core/lv_obj_style.c ****         obj->styles[j] = obj->styles[j - 1];
 1508              		.loc 1 95 16 is_stmt 0 view .LVU437
 1509 0052 6A8C     		ldrh	r2, [r5, #34]
 1510 0054 C2F3C502 		ubfx	r2, r2, #3, #6
  95:Middlewares/lvgl/src/core/lv_obj_style.c ****         obj->styles[j] = obj->styles[j - 1];
 1511              		.loc 1 95 28 view .LVU438
 1512 0058 013A     		subs	r2, r2, #1
 1513              	.LVL137:
  95:Middlewares/lvgl/src/core/lv_obj_style.c ****         obj->styles[j] = obj->styles[j - 1];
 1514              		.loc 1 95 5 view .LVU439
 1515 005a 0CE0     		b	.L98
 1516              	.L99:
  96:Middlewares/lvgl/src/core/lv_obj_style.c ****     }
 1517              		.loc 1 96 9 is_stmt 1 discriminator 3 view .LVU440
  96:Middlewares/lvgl/src/core/lv_obj_style.c ****     }
 1518              		.loc 1 96 29 is_stmt 0 discriminator 3 view .LVU441
 1519 005c EC68     		ldr	r4, [r5, #12]
ARM GAS  /tmp/ccoxlgn6.s 			page 52


  96:Middlewares/lvgl/src/core/lv_obj_style.c ****     }
 1520              		.loc 1 96 37 discriminator 3 view .LVU442
 1521 005e 6FF06043 		mvn	r3, #-536870912
 1522 0062 1344     		add	r3, r3, r2
 1523 0064 04EBC303 		add	r3, r4, r3, lsl #3
  96:Middlewares/lvgl/src/core/lv_obj_style.c ****     }
 1524              		.loc 1 96 20 discriminator 3 view .LVU443
 1525 0068 04EBC20C 		add	ip, r4, r2, lsl #3
  96:Middlewares/lvgl/src/core/lv_obj_style.c ****     }
 1526              		.loc 1 96 24 discriminator 3 view .LVU444
 1527 006c 93E80300 		ldm	r3, {r0, r1}
 1528 0070 8CE80300 		stm	ip, {r0, r1}
  95:Middlewares/lvgl/src/core/lv_obj_style.c ****         obj->styles[j] = obj->styles[j - 1];
 1529              		.loc 1 95 41 is_stmt 1 discriminator 3 view .LVU445
  95:Middlewares/lvgl/src/core/lv_obj_style.c ****         obj->styles[j] = obj->styles[j - 1];
 1530              		.loc 1 95 42 is_stmt 0 discriminator 3 view .LVU446
 1531 0074 013A     		subs	r2, r2, #1
 1532              	.LVL138:
 1533              	.L98:
  95:Middlewares/lvgl/src/core/lv_obj_style.c ****         obj->styles[j] = obj->styles[j - 1];
 1534              		.loc 1 95 33 is_stmt 1 discriminator 1 view .LVU447
  95:Middlewares/lvgl/src/core/lv_obj_style.c ****         obj->styles[j] = obj->styles[j - 1];
 1535              		.loc 1 95 5 is_stmt 0 discriminator 1 view .LVU448
 1536 0076 9642     		cmp	r6, r2
 1537 0078 F0D3     		bcc	.L99
  99:Middlewares/lvgl/src/core/lv_obj_style.c ****     obj->styles[i].style = style;
 1538              		.loc 1 99 5 is_stmt 1 view .LVU449
  99:Middlewares/lvgl/src/core/lv_obj_style.c ****     obj->styles[i].style = style;
 1539              		.loc 1 99 22 is_stmt 0 view .LVU450
 1540 007a E868     		ldr	r0, [r5, #12]
  99:Middlewares/lvgl/src/core/lv_obj_style.c ****     obj->styles[i].style = style;
 1541              		.loc 1 99 30 view .LVU451
 1542 007c F400     		lsls	r4, r6, #3
  99:Middlewares/lvgl/src/core/lv_obj_style.c ****     obj->styles[i].style = style;
 1543              		.loc 1 99 5 view .LVU452
 1544 007e 0821     		movs	r1, #8
 1545 0080 00EBC600 		add	r0, r0, r6, lsl #3
 1546 0084 FFF7FEFF 		bl	lv_memset_00
 1547              	.LVL139:
 100:Middlewares/lvgl/src/core/lv_obj_style.c ****     obj->styles[i].selector = selector;
 1548              		.loc 1 100 5 is_stmt 1 view .LVU453
 100:Middlewares/lvgl/src/core/lv_obj_style.c ****     obj->styles[i].selector = selector;
 1549              		.loc 1 100 8 is_stmt 0 view .LVU454
 1550 0088 EB68     		ldr	r3, [r5, #12]
 100:Middlewares/lvgl/src/core/lv_obj_style.c ****     obj->styles[i].selector = selector;
 1551              		.loc 1 100 26 view .LVU455
 1552 008a 43F83680 		str	r8, [r3, r6, lsl #3]
 101:Middlewares/lvgl/src/core/lv_obj_style.c **** 
 1553              		.loc 1 101 5 is_stmt 1 view .LVU456
 101:Middlewares/lvgl/src/core/lv_obj_style.c **** 
 1554              		.loc 1 101 8 is_stmt 0 view .LVU457
 1555 008e EB68     		ldr	r3, [r5, #12]
 101:Middlewares/lvgl/src/core/lv_obj_style.c **** 
 1556              		.loc 1 101 16 view .LVU458
 1557 0090 2344     		add	r3, r3, r4
 101:Middlewares/lvgl/src/core/lv_obj_style.c **** 
 1558              		.loc 1 101 29 view .LVU459
ARM GAS  /tmp/ccoxlgn6.s 			page 53


 1559 0092 5A68     		ldr	r2, [r3, #4]
 1560 0094 67F31702 		bfi	r2, r7, #0, #24
 1561              	.LVL140:
 101:Middlewares/lvgl/src/core/lv_obj_style.c **** 
 1562              		.loc 1 101 29 view .LVU460
 1563 0098 5A60     		str	r2, [r3, #4]
 103:Middlewares/lvgl/src/core/lv_obj_style.c **** }
 1564              		.loc 1 103 5 is_stmt 1 view .LVU461
 1565 009a 4FF6FF72 		movw	r2, #65535
 1566 009e 3946     		mov	r1, r7
 1567 00a0 2846     		mov	r0, r5
 1568 00a2 FFF7FEFF 		bl	lv_obj_refresh_style
 1569              	.LVL141:
 104:Middlewares/lvgl/src/core/lv_obj_style.c **** 
 1570              		.loc 1 104 1 is_stmt 0 view .LVU462
 1571 00a6 BDE8F081 		pop	{r4, r5, r6, r7, r8, pc}
 104:Middlewares/lvgl/src/core/lv_obj_style.c **** 
 1572              		.loc 1 104 1 view .LVU463
 1573              		.cfi_endproc
 1574              	.LFE154:
 1576              		.section	.text.report_style_change_core,"ax",%progbits
 1577              		.align	1
 1578              		.syntax unified
 1579              		.thumb
 1580              		.thumb_func
 1581              		.fpu fpv5-d16
 1583              	report_style_change_core:
 1584              	.LVL142:
 1585              	.LFB173:
 607:Middlewares/lvgl/src/core/lv_obj_style.c ****     uint32_t i;
 1586              		.loc 1 607 1 is_stmt 1 view -0
 1587              		.cfi_startproc
 1588              		@ args = 0, pretend = 0, frame = 0
 1589              		@ frame_needed = 0, uses_anonymous_args = 0
 607:Middlewares/lvgl/src/core/lv_obj_style.c ****     uint32_t i;
 1590              		.loc 1 607 1 is_stmt 0 view .LVU465
 1591 0000 F8B5     		push	{r3, r4, r5, r6, r7, lr}
 1592              	.LCFI17:
 1593              		.cfi_def_cfa_offset 24
 1594              		.cfi_offset 3, -24
 1595              		.cfi_offset 4, -20
 1596              		.cfi_offset 5, -16
 1597              		.cfi_offset 6, -12
 1598              		.cfi_offset 7, -8
 1599              		.cfi_offset 14, -4
 1600 0002 0546     		mov	r5, r0
 1601 0004 0C46     		mov	r4, r1
 608:Middlewares/lvgl/src/core/lv_obj_style.c ****     for(i = 0; i < obj->style_cnt; i++) {
 1602              		.loc 1 608 5 is_stmt 1 view .LVU466
 609:Middlewares/lvgl/src/core/lv_obj_style.c ****         if(style == NULL || obj->styles[i].style == style) {
 1603              		.loc 1 609 5 view .LVU467
 1604              	.LVL143:
 609:Middlewares/lvgl/src/core/lv_obj_style.c ****         if(style == NULL || obj->styles[i].style == style) {
 1605              		.loc 1 609 11 is_stmt 0 view .LVU468
 1606 0006 0022     		movs	r2, #0
 609:Middlewares/lvgl/src/core/lv_obj_style.c ****         if(style == NULL || obj->styles[i].style == style) {
 1607              		.loc 1 609 5 view .LVU469
ARM GAS  /tmp/ccoxlgn6.s 			page 54


 1608 0008 00E0     		b	.L102
 1609              	.LVL144:
 1610              	.L104:
 609:Middlewares/lvgl/src/core/lv_obj_style.c ****         if(style == NULL || obj->styles[i].style == style) {
 1611              		.loc 1 609 36 is_stmt 1 discriminator 2 view .LVU470
 609:Middlewares/lvgl/src/core/lv_obj_style.c ****         if(style == NULL || obj->styles[i].style == style) {
 1612              		.loc 1 609 37 is_stmt 0 discriminator 2 view .LVU471
 1613 000a 0132     		adds	r2, r2, #1
 1614              	.LVL145:
 1615              	.L102:
 609:Middlewares/lvgl/src/core/lv_obj_style.c ****         if(style == NULL || obj->styles[i].style == style) {
 1616              		.loc 1 609 16 is_stmt 1 discriminator 1 view .LVU472
 609:Middlewares/lvgl/src/core/lv_obj_style.c ****         if(style == NULL || obj->styles[i].style == style) {
 1617              		.loc 1 609 23 is_stmt 0 discriminator 1 view .LVU473
 1618 000c 638C     		ldrh	r3, [r4, #34]
 1619 000e C3F3C503 		ubfx	r3, r3, #3, #6
 609:Middlewares/lvgl/src/core/lv_obj_style.c ****         if(style == NULL || obj->styles[i].style == style) {
 1620              		.loc 1 609 5 discriminator 1 view .LVU474
 1621 0012 9342     		cmp	r3, r2
 1622 0014 0CD9     		bls	.L105
 610:Middlewares/lvgl/src/core/lv_obj_style.c ****             lv_obj_refresh_style(obj, LV_PART_ANY, LV_STYLE_PROP_ANY);
 1623              		.loc 1 610 9 is_stmt 1 view .LVU475
 610:Middlewares/lvgl/src/core/lv_obj_style.c ****             lv_obj_refresh_style(obj, LV_PART_ANY, LV_STYLE_PROP_ANY);
 1624              		.loc 1 610 11 is_stmt 0 view .LVU476
 1625 0016 25B1     		cbz	r5, .L103
 610:Middlewares/lvgl/src/core/lv_obj_style.c ****             lv_obj_refresh_style(obj, LV_PART_ANY, LV_STYLE_PROP_ANY);
 1626              		.loc 1 610 32 discriminator 1 view .LVU477
 1627 0018 E368     		ldr	r3, [r4, #12]
 610:Middlewares/lvgl/src/core/lv_obj_style.c ****             lv_obj_refresh_style(obj, LV_PART_ANY, LV_STYLE_PROP_ANY);
 1628              		.loc 1 610 43 discriminator 1 view .LVU478
 1629 001a 53F83230 		ldr	r3, [r3, r2, lsl #3]
 610:Middlewares/lvgl/src/core/lv_obj_style.c ****             lv_obj_refresh_style(obj, LV_PART_ANY, LV_STYLE_PROP_ANY);
 1630              		.loc 1 610 26 discriminator 1 view .LVU479
 1631 001e AB42     		cmp	r3, r5
 1632 0020 F3D1     		bne	.L104
 1633              	.L103:
 611:Middlewares/lvgl/src/core/lv_obj_style.c ****             break;
 1634              		.loc 1 611 13 is_stmt 1 view .LVU480
 1635 0022 4FF6FF72 		movw	r2, #65535
 1636              	.LVL146:
 611:Middlewares/lvgl/src/core/lv_obj_style.c ****             break;
 1637              		.loc 1 611 13 is_stmt 0 view .LVU481
 1638 0026 4FF47021 		mov	r1, #983040
 1639              	.LVL147:
 611:Middlewares/lvgl/src/core/lv_obj_style.c ****             break;
 1640              		.loc 1 611 13 view .LVU482
 1641 002a 2046     		mov	r0, r4
 1642              	.LVL148:
 611:Middlewares/lvgl/src/core/lv_obj_style.c ****             break;
 1643              		.loc 1 611 13 view .LVU483
 1644 002c FFF7FEFF 		bl	lv_obj_refresh_style
 1645              	.LVL149:
 612:Middlewares/lvgl/src/core/lv_obj_style.c ****         }
 1646              		.loc 1 612 13 is_stmt 1 view .LVU484
 1647              	.L105:
 616:Middlewares/lvgl/src/core/lv_obj_style.c ****     for(i = 0; i < child_cnt; i++) {
 1648              		.loc 1 616 5 view .LVU485
ARM GAS  /tmp/ccoxlgn6.s 			page 55


 616:Middlewares/lvgl/src/core/lv_obj_style.c ****     for(i = 0; i < child_cnt; i++) {
 1649              		.loc 1 616 26 is_stmt 0 view .LVU486
 1650 0030 2046     		mov	r0, r4
 1651 0032 FFF7FEFF 		bl	lv_obj_get_child_cnt
 1652              	.LVL150:
 1653 0036 0746     		mov	r7, r0
 1654              	.LVL151:
 617:Middlewares/lvgl/src/core/lv_obj_style.c ****         report_style_change_core(style, lv_obj_get_child(obj, i));
 1655              		.loc 1 617 5 is_stmt 1 view .LVU487
 617:Middlewares/lvgl/src/core/lv_obj_style.c ****         report_style_change_core(style, lv_obj_get_child(obj, i));
 1656              		.loc 1 617 11 is_stmt 0 view .LVU488
 1657 0038 0026     		movs	r6, #0
 617:Middlewares/lvgl/src/core/lv_obj_style.c ****         report_style_change_core(style, lv_obj_get_child(obj, i));
 1658              		.loc 1 617 5 view .LVU489
 1659 003a 08E0     		b	.L107
 1660              	.LVL152:
 1661              	.L108:
 618:Middlewares/lvgl/src/core/lv_obj_style.c ****     }
 1662              		.loc 1 618 9 is_stmt 1 discriminator 3 view .LVU490
 618:Middlewares/lvgl/src/core/lv_obj_style.c ****     }
 1663              		.loc 1 618 41 is_stmt 0 discriminator 3 view .LVU491
 1664 003c 3146     		mov	r1, r6
 1665 003e 2046     		mov	r0, r4
 1666 0040 FFF7FEFF 		bl	lv_obj_get_child
 1667              	.LVL153:
 1668 0044 0146     		mov	r1, r0
 618:Middlewares/lvgl/src/core/lv_obj_style.c ****     }
 1669              		.loc 1 618 9 discriminator 3 view .LVU492
 1670 0046 2846     		mov	r0, r5
 1671 0048 FFF7DAFF 		bl	report_style_change_core
 1672              	.LVL154:
 617:Middlewares/lvgl/src/core/lv_obj_style.c ****         report_style_change_core(style, lv_obj_get_child(obj, i));
 1673              		.loc 1 617 31 is_stmt 1 discriminator 3 view .LVU493
 617:Middlewares/lvgl/src/core/lv_obj_style.c ****         report_style_change_core(style, lv_obj_get_child(obj, i));
 1674              		.loc 1 617 32 is_stmt 0 discriminator 3 view .LVU494
 1675 004c 0136     		adds	r6, r6, #1
 1676              	.LVL155:
 1677              	.L107:
 617:Middlewares/lvgl/src/core/lv_obj_style.c ****         report_style_change_core(style, lv_obj_get_child(obj, i));
 1678              		.loc 1 617 16 is_stmt 1 discriminator 1 view .LVU495
 617:Middlewares/lvgl/src/core/lv_obj_style.c ****         report_style_change_core(style, lv_obj_get_child(obj, i));
 1679              		.loc 1 617 5 is_stmt 0 discriminator 1 view .LVU496
 1680 004e BE42     		cmp	r6, r7
 1681 0050 F4D3     		bcc	.L108
 620:Middlewares/lvgl/src/core/lv_obj_style.c **** 
 1682              		.loc 1 620 1 view .LVU497
 1683 0052 F8BD     		pop	{r3, r4, r5, r6, r7, pc}
 620:Middlewares/lvgl/src/core/lv_obj_style.c **** 
 1684              		.loc 1 620 1 view .LVU498
 1685              		.cfi_endproc
 1686              	.LFE173:
 1688              		.section	.text.lv_obj_report_style_change,"ax",%progbits
 1689              		.align	1
 1690              		.global	lv_obj_report_style_change
 1691              		.syntax unified
 1692              		.thumb
 1693              		.thumb_func
ARM GAS  /tmp/ccoxlgn6.s 			page 56


 1694              		.fpu fpv5-d16
 1696              	lv_obj_report_style_change:
 1697              	.LVL156:
 1698              	.LFB156:
 155:Middlewares/lvgl/src/core/lv_obj_style.c ****     if(!style_refr) return;
 1699              		.loc 1 155 1 is_stmt 1 view -0
 1700              		.cfi_startproc
 1701              		@ args = 0, pretend = 0, frame = 0
 1702              		@ frame_needed = 0, uses_anonymous_args = 0
 156:Middlewares/lvgl/src/core/lv_obj_style.c ****     lv_disp_t * d = lv_disp_get_next(NULL);
 1703              		.loc 1 156 5 view .LVU500
 156:Middlewares/lvgl/src/core/lv_obj_style.c ****     lv_disp_t * d = lv_disp_get_next(NULL);
 1704              		.loc 1 156 8 is_stmt 0 view .LVU501
 1705 0000 0E4B     		ldr	r3, .L122
 1706 0002 1B78     		ldrb	r3, [r3]	@ zero_extendqisi2
 156:Middlewares/lvgl/src/core/lv_obj_style.c ****     lv_disp_t * d = lv_disp_get_next(NULL);
 1707              		.loc 1 156 7 view .LVU502
 1708 0004 03B9     		cbnz	r3, .L120
 1709 0006 7047     		bx	lr
 1710              	.L120:
 155:Middlewares/lvgl/src/core/lv_obj_style.c ****     if(!style_refr) return;
 1711              		.loc 1 155 1 view .LVU503
 1712 0008 70B5     		push	{r4, r5, r6, lr}
 1713              	.LCFI18:
 1714              		.cfi_def_cfa_offset 16
 1715              		.cfi_offset 4, -16
 1716              		.cfi_offset 5, -12
 1717              		.cfi_offset 6, -8
 1718              		.cfi_offset 14, -4
 1719 000a 0646     		mov	r6, r0
 157:Middlewares/lvgl/src/core/lv_obj_style.c **** 
 1720              		.loc 1 157 5 is_stmt 1 view .LVU504
 157:Middlewares/lvgl/src/core/lv_obj_style.c **** 
 1721              		.loc 1 157 21 is_stmt 0 view .LVU505
 1722 000c 0020     		movs	r0, #0
 1723              	.LVL157:
 157:Middlewares/lvgl/src/core/lv_obj_style.c **** 
 1724              		.loc 1 157 21 view .LVU506
 1725 000e FFF7FEFF 		bl	lv_disp_get_next
 1726              	.LVL158:
 1727 0012 0546     		mov	r5, r0
 1728              	.LVL159:
 159:Middlewares/lvgl/src/core/lv_obj_style.c ****         uint32_t i;
 1729              		.loc 1 159 5 is_stmt 1 view .LVU507
 159:Middlewares/lvgl/src/core/lv_obj_style.c ****         uint32_t i;
 1730              		.loc 1 159 10 is_stmt 0 view .LVU508
 1731 0014 0DE0     		b	.L112
 1732              	.LVL160:
 1733              	.L113:
 1734              	.LBB74:
 162:Middlewares/lvgl/src/core/lv_obj_style.c ****         }
 1735              		.loc 1 162 13 is_stmt 1 discriminator 3 view .LVU509
 162:Middlewares/lvgl/src/core/lv_obj_style.c ****         }
 1736              		.loc 1 162 46 is_stmt 0 discriminator 3 view .LVU510
 1737 0016 EB68     		ldr	r3, [r5, #12]
 162:Middlewares/lvgl/src/core/lv_obj_style.c ****         }
 1738              		.loc 1 162 13 discriminator 3 view .LVU511
ARM GAS  /tmp/ccoxlgn6.s 			page 57


 1739 0018 53F82410 		ldr	r1, [r3, r4, lsl #2]
 1740 001c 3046     		mov	r0, r6
 1741 001e FFF7FEFF 		bl	report_style_change_core
 1742              	.LVL161:
 161:Middlewares/lvgl/src/core/lv_obj_style.c ****             report_style_change_core(style, d->screens[i]);
 1743              		.loc 1 161 39 is_stmt 1 discriminator 3 view .LVU512
 161:Middlewares/lvgl/src/core/lv_obj_style.c ****             report_style_change_core(style, d->screens[i]);
 1744              		.loc 1 161 40 is_stmt 0 discriminator 3 view .LVU513
 1745 0022 0134     		adds	r4, r4, #1
 1746              	.LVL162:
 1747              	.L114:
 161:Middlewares/lvgl/src/core/lv_obj_style.c ****             report_style_change_core(style, d->screens[i]);
 1748              		.loc 1 161 20 is_stmt 1 discriminator 1 view .LVU514
 161:Middlewares/lvgl/src/core/lv_obj_style.c ****             report_style_change_core(style, d->screens[i]);
 1749              		.loc 1 161 25 is_stmt 0 discriminator 1 view .LVU515
 1750 0024 6B6A     		ldr	r3, [r5, #36]
 161:Middlewares/lvgl/src/core/lv_obj_style.c ****             report_style_change_core(style, d->screens[i]);
 1751              		.loc 1 161 9 discriminator 1 view .LVU516
 1752 0026 A342     		cmp	r3, r4
 1753 0028 F5D8     		bhi	.L113
 164:Middlewares/lvgl/src/core/lv_obj_style.c ****     }
 1754              		.loc 1 164 9 is_stmt 1 view .LVU517
 164:Middlewares/lvgl/src/core/lv_obj_style.c ****     }
 1755              		.loc 1 164 13 is_stmt 0 view .LVU518
 1756 002a 2846     		mov	r0, r5
 1757 002c FFF7FEFF 		bl	lv_disp_get_next
 1758              	.LVL163:
 1759 0030 0546     		mov	r5, r0
 1760              	.LVL164:
 1761              	.L112:
 164:Middlewares/lvgl/src/core/lv_obj_style.c ****     }
 1762              		.loc 1 164 13 view .LVU519
 1763              	.LBE74:
 159:Middlewares/lvgl/src/core/lv_obj_style.c ****         uint32_t i;
 1764              		.loc 1 159 10 is_stmt 1 view .LVU520
 1765 0032 0DB1     		cbz	r5, .L121
 1766              	.LBB75:
 161:Middlewares/lvgl/src/core/lv_obj_style.c ****             report_style_change_core(style, d->screens[i]);
 1767              		.loc 1 161 15 is_stmt 0 view .LVU521
 1768 0034 0024     		movs	r4, #0
 1769 0036 F5E7     		b	.L114
 1770              	.L121:
 1771              	.LBE75:
 166:Middlewares/lvgl/src/core/lv_obj_style.c **** 
 1772              		.loc 1 166 1 view .LVU522
 1773 0038 70BD     		pop	{r4, r5, r6, pc}
 1774              	.LVL165:
 1775              	.L123:
 166:Middlewares/lvgl/src/core/lv_obj_style.c **** 
 1776              		.loc 1 166 1 view .LVU523
 1777 003a 00BF     		.align	2
 1778              	.L122:
 1779 003c 00000000 		.word	.LANCHOR0
 1780              		.cfi_endproc
 1781              	.LFE156:
 1783              		.section	.text.lv_obj_set_local_style_prop,"ax",%progbits
 1784              		.align	1
ARM GAS  /tmp/ccoxlgn6.s 			page 58


 1785              		.global	lv_obj_set_local_style_prop
 1786              		.syntax unified
 1787              		.thumb
 1788              		.thumb_func
 1789              		.fpu fpv5-d16
 1791              	lv_obj_set_local_style_prop:
 1792              	.LVL166:
 1793              	.LFB160:
 252:Middlewares/lvgl/src/core/lv_obj_style.c ****     lv_style_t * style = get_local_style(obj, selector);
 1794              		.loc 1 252 1 is_stmt 1 view -0
 1795              		.cfi_startproc
 1796              		@ args = 0, pretend = 0, frame = 0
 1797              		@ frame_needed = 0, uses_anonymous_args = 0
 252:Middlewares/lvgl/src/core/lv_obj_style.c ****     lv_style_t * style = get_local_style(obj, selector);
 1798              		.loc 1 252 1 is_stmt 0 view .LVU525
 1799 0000 F8B5     		push	{r3, r4, r5, r6, r7, lr}
 1800              	.LCFI19:
 1801              		.cfi_def_cfa_offset 24
 1802              		.cfi_offset 3, -24
 1803              		.cfi_offset 4, -20
 1804              		.cfi_offset 5, -16
 1805              		.cfi_offset 6, -12
 1806              		.cfi_offset 7, -8
 1807              		.cfi_offset 14, -4
 1808 0002 0646     		mov	r6, r0
 1809 0004 0D46     		mov	r5, r1
 1810 0006 1746     		mov	r7, r2
 1811              	.LVL167:
 252:Middlewares/lvgl/src/core/lv_obj_style.c ****     lv_style_t * style = get_local_style(obj, selector);
 1812              		.loc 1 252 1 view .LVU526
 1813 0008 1C46     		mov	r4, r3
 253:Middlewares/lvgl/src/core/lv_obj_style.c ****     lv_style_set_prop(style, prop, value);
 1814              		.loc 1 253 5 is_stmt 1 view .LVU527
 253:Middlewares/lvgl/src/core/lv_obj_style.c ****     lv_style_set_prop(style, prop, value);
 1815              		.loc 1 253 26 is_stmt 0 view .LVU528
 1816 000a 1946     		mov	r1, r3
 1817              	.LVL168:
 253:Middlewares/lvgl/src/core/lv_obj_style.c ****     lv_style_set_prop(style, prop, value);
 1818              		.loc 1 253 26 view .LVU529
 1819 000c FFF7FEFF 		bl	get_local_style
 1820              	.LVL169:
 254:Middlewares/lvgl/src/core/lv_obj_style.c ****     lv_obj_refresh_style(obj, selector, prop);
 1821              		.loc 1 254 5 is_stmt 1 view .LVU530
 254:Middlewares/lvgl/src/core/lv_obj_style.c ****     lv_obj_refresh_style(obj, selector, prop);
 1822              		.loc 1 254 5 is_stmt 0 view .LVU531
 1823 0010 3A46     		mov	r2, r7
 1824 0012 2946     		mov	r1, r5
 1825 0014 FFF7FEFF 		bl	lv_style_set_prop
 1826              	.LVL170:
 255:Middlewares/lvgl/src/core/lv_obj_style.c **** }
 1827              		.loc 1 255 5 is_stmt 1 view .LVU532
 1828 0018 2A46     		mov	r2, r5
 1829 001a 2146     		mov	r1, r4
 1830 001c 3046     		mov	r0, r6
 1831 001e FFF7FEFF 		bl	lv_obj_refresh_style
 1832              	.LVL171:
 256:Middlewares/lvgl/src/core/lv_obj_style.c **** 
ARM GAS  /tmp/ccoxlgn6.s 			page 59


 1833              		.loc 1 256 1 is_stmt 0 view .LVU533
 1834 0022 F8BD     		pop	{r3, r4, r5, r6, r7, pc}
 256:Middlewares/lvgl/src/core/lv_obj_style.c **** 
 1835              		.loc 1 256 1 view .LVU534
 1836              		.cfi_endproc
 1837              	.LFE160:
 1839              		.section	.text.trans_anim_cb,"ax",%progbits
 1840              		.align	1
 1841              		.syntax unified
 1842              		.thumb
 1843              		.thumb_func
 1844              		.fpu fpv5-d16
 1846              	trans_anim_cb:
 1847              	.LVL172:
 1848              	.LFB176:
 683:Middlewares/lvgl/src/core/lv_obj_style.c ****     trans_t * tr = _tr;
 1849              		.loc 1 683 1 is_stmt 1 view -0
 1850              		.cfi_startproc
 1851              		@ args = 0, pretend = 0, frame = 8
 1852              		@ frame_needed = 0, uses_anonymous_args = 0
 683:Middlewares/lvgl/src/core/lv_obj_style.c ****     trans_t * tr = _tr;
 1853              		.loc 1 683 1 is_stmt 0 view .LVU536
 1854 0000 2DE9F043 		push	{r4, r5, r6, r7, r8, r9, lr}
 1855              	.LCFI20:
 1856              		.cfi_def_cfa_offset 28
 1857              		.cfi_offset 4, -28
 1858              		.cfi_offset 5, -24
 1859              		.cfi_offset 6, -20
 1860              		.cfi_offset 7, -16
 1861              		.cfi_offset 8, -12
 1862              		.cfi_offset 9, -8
 1863              		.cfi_offset 14, -4
 1864 0004 83B0     		sub	sp, sp, #12
 1865              	.LCFI21:
 1866              		.cfi_def_cfa_offset 40
 1867 0006 0446     		mov	r4, r0
 1868 0008 0F46     		mov	r7, r1
 684:Middlewares/lvgl/src/core/lv_obj_style.c ****     lv_obj_t * obj = tr->obj;
 1869              		.loc 1 684 5 is_stmt 1 view .LVU537
 1870              	.LVL173:
 685:Middlewares/lvgl/src/core/lv_obj_style.c **** 
 1871              		.loc 1 685 5 view .LVU538
 685:Middlewares/lvgl/src/core/lv_obj_style.c **** 
 1872              		.loc 1 685 16 is_stmt 0 view .LVU539
 1873 000a 0568     		ldr	r5, [r0]
 1874              	.LVL174:
 687:Middlewares/lvgl/src/core/lv_obj_style.c ****     for(i = 0; i < obj->style_cnt; i++) {
 1875              		.loc 1 687 5 is_stmt 1 view .LVU540
 688:Middlewares/lvgl/src/core/lv_obj_style.c ****         if(obj->styles[i].is_trans == 0 || obj->styles[i].selector != tr->selector) continue;
 1876              		.loc 1 688 5 view .LVU541
 688:Middlewares/lvgl/src/core/lv_obj_style.c ****         if(obj->styles[i].is_trans == 0 || obj->styles[i].selector != tr->selector) continue;
 1877              		.loc 1 688 11 is_stmt 0 view .LVU542
 1878 000c 0022     		movs	r2, #0
 688:Middlewares/lvgl/src/core/lv_obj_style.c ****         if(obj->styles[i].is_trans == 0 || obj->styles[i].selector != tr->selector) continue;
 1879              		.loc 1 688 5 view .LVU543
 1880 000e 00E0     		b	.L127
 1881              	.LVL175:
ARM GAS  /tmp/ccoxlgn6.s 			page 60


 1882              	.L128:
 1883              	.LBB79:
 689:Middlewares/lvgl/src/core/lv_obj_style.c **** 
 1884              		.loc 1 689 85 is_stmt 1 discriminator 3 view .LVU544
 1885              	.LBE79:
 688:Middlewares/lvgl/src/core/lv_obj_style.c ****         if(obj->styles[i].is_trans == 0 || obj->styles[i].selector != tr->selector) continue;
 1886              		.loc 1 688 36 discriminator 3 view .LVU545
 688:Middlewares/lvgl/src/core/lv_obj_style.c ****         if(obj->styles[i].is_trans == 0 || obj->styles[i].selector != tr->selector) continue;
 1887              		.loc 1 688 37 is_stmt 0 discriminator 3 view .LVU546
 1888 0010 0132     		adds	r2, r2, #1
 1889              	.LVL176:
 1890              	.L127:
 688:Middlewares/lvgl/src/core/lv_obj_style.c ****         if(obj->styles[i].is_trans == 0 || obj->styles[i].selector != tr->selector) continue;
 1891              		.loc 1 688 16 is_stmt 1 discriminator 1 view .LVU547
 688:Middlewares/lvgl/src/core/lv_obj_style.c ****         if(obj->styles[i].is_trans == 0 || obj->styles[i].selector != tr->selector) continue;
 1892              		.loc 1 688 23 is_stmt 0 discriminator 1 view .LVU548
 1893 0012 6B8C     		ldrh	r3, [r5, #34]
 1894 0014 C3F3C503 		ubfx	r3, r3, #3, #6
 688:Middlewares/lvgl/src/core/lv_obj_style.c ****         if(obj->styles[i].is_trans == 0 || obj->styles[i].selector != tr->selector) continue;
 1895              		.loc 1 688 5 discriminator 1 view .LVU549
 1896 0018 9342     		cmp	r3, r2
 1897 001a 40F2D980 		bls	.L126
 1898              	.LBB82:
 689:Middlewares/lvgl/src/core/lv_obj_style.c **** 
 1899              		.loc 1 689 9 is_stmt 1 view .LVU550
 689:Middlewares/lvgl/src/core/lv_obj_style.c **** 
 1900              		.loc 1 689 15 is_stmt 0 view .LVU551
 1901 001e EB68     		ldr	r3, [r5, #12]
 689:Middlewares/lvgl/src/core/lv_obj_style.c **** 
 1902              		.loc 1 689 23 view .LVU552
 1903 0020 D600     		lsls	r6, r2, #3
 1904 0022 03EBC203 		add	r3, r3, r2, lsl #3
 689:Middlewares/lvgl/src/core/lv_obj_style.c **** 
 1905              		.loc 1 689 36 view .LVU553
 1906 0026 D879     		ldrb	r0, [r3, #7]	@ zero_extendqisi2
 689:Middlewares/lvgl/src/core/lv_obj_style.c **** 
 1907              		.loc 1 689 11 view .LVU554
 1908 0028 10F0020F 		tst	r0, #2
 1909 002c F0D0     		beq	.L128
 689:Middlewares/lvgl/src/core/lv_obj_style.c **** 
 1910              		.loc 1 689 58 discriminator 2 view .LVU555
 1911 002e 5868     		ldr	r0, [r3, #4]
 1912 0030 C0F31700 		ubfx	r0, r0, #0, #24
 689:Middlewares/lvgl/src/core/lv_obj_style.c **** 
 1913              		.loc 1 689 73 discriminator 2 view .LVU556
 1914 0034 A168     		ldr	r1, [r4, #8]
 689:Middlewares/lvgl/src/core/lv_obj_style.c **** 
 1915              		.loc 1 689 41 discriminator 2 view .LVU557
 1916 0036 8842     		cmp	r0, r1
 1917 0038 EAD1     		bne	.L128
 691:Middlewares/lvgl/src/core/lv_obj_style.c ****         switch (tr->prop) {
 1918              		.loc 1 691 9 is_stmt 1 view .LVU558
 692:Middlewares/lvgl/src/core/lv_obj_style.c **** 
 1919              		.loc 1 692 9 view .LVU559
 692:Middlewares/lvgl/src/core/lv_obj_style.c **** 
 1920              		.loc 1 692 19 is_stmt 0 view .LVU560
 1921 003a A188     		ldrh	r1, [r4, #4]
ARM GAS  /tmp/ccoxlgn6.s 			page 61


 692:Middlewares/lvgl/src/core/lv_obj_style.c **** 
 1922              		.loc 1 692 9 view .LVU561
 1923 003c 6829     		cmp	r1, #104
 1924 003e 2ED8     		bhi	.L130
 1925 0040 2029     		cmp	r1, #32
 1926 0042 C0F0A780 		bcc	.L131
 1927 0046 A1F12002 		sub	r2, r1, #32
 1928              	.LVL177:
 692:Middlewares/lvgl/src/core/lv_obj_style.c **** 
 1929              		.loc 1 692 9 view .LVU562
 1930 004a 482A     		cmp	r2, #72
 1931 004c 00F2A280 		bhi	.L131
 1932 0050 DFE802F0 		tbb	[pc, r2]
 1933              	.L133:
 1934 0054 52       		.byte	(.L136-.L133)/2
 1935 0055 A0       		.byte	(.L131-.L133)/2
 1936 0056 A0       		.byte	(.L131-.L133)/2
 1937 0057 A0       		.byte	(.L131-.L133)/2
 1938 0058 A0       		.byte	(.L131-.L133)/2
 1939 0059 A0       		.byte	(.L131-.L133)/2
 1940 005a A0       		.byte	(.L131-.L133)/2
 1941 005b A0       		.byte	(.L131-.L133)/2
 1942 005c A0       		.byte	(.L131-.L133)/2
 1943 005d A0       		.byte	(.L131-.L133)/2
 1944 005e A0       		.byte	(.L131-.L133)/2
 1945 005f A0       		.byte	(.L131-.L133)/2
 1946 0060 A0       		.byte	(.L131-.L133)/2
 1947 0061 A0       		.byte	(.L131-.L133)/2
 1948 0062 A0       		.byte	(.L131-.L133)/2
 1949 0063 A0       		.byte	(.L131-.L133)/2
 1950 0064 52       		.byte	(.L136-.L133)/2
 1951 0065 A0       		.byte	(.L131-.L133)/2
 1952 0066 A0       		.byte	(.L131-.L133)/2
 1953 0067 31       		.byte	(.L132-.L133)/2
 1954 0068 31       		.byte	(.L132-.L133)/2
 1955 0069 A0       		.byte	(.L131-.L133)/2
 1956 006a A0       		.byte	(.L131-.L133)/2
 1957 006b A0       		.byte	(.L131-.L133)/2
 1958 006c A0       		.byte	(.L131-.L133)/2
 1959 006d A0       		.byte	(.L131-.L133)/2
 1960 006e A0       		.byte	(.L131-.L133)/2
 1961 006f 52       		.byte	(.L136-.L133)/2
 1962 0070 A0       		.byte	(.L131-.L133)/2
 1963 0071 A0       		.byte	(.L131-.L133)/2
 1964 0072 A0       		.byte	(.L131-.L133)/2
 1965 0073 A0       		.byte	(.L131-.L133)/2
 1966 0074 A0       		.byte	(.L131-.L133)/2
 1967 0075 A0       		.byte	(.L131-.L133)/2
 1968 0076 A0       		.byte	(.L131-.L133)/2
 1969 0077 A0       		.byte	(.L131-.L133)/2
 1970 0078 52       		.byte	(.L136-.L133)/2
 1971 0079 A0       		.byte	(.L131-.L133)/2
 1972 007a A0       		.byte	(.L131-.L133)/2
 1973 007b 52       		.byte	(.L136-.L133)/2
 1974 007c A0       		.byte	(.L131-.L133)/2
 1975 007d A0       		.byte	(.L131-.L133)/2
 1976 007e A0       		.byte	(.L131-.L133)/2
ARM GAS  /tmp/ccoxlgn6.s 			page 62


 1977 007f A0       		.byte	(.L131-.L133)/2
 1978 0080 A0       		.byte	(.L131-.L133)/2
 1979 0081 A0       		.byte	(.L131-.L133)/2
 1980 0082 A0       		.byte	(.L131-.L133)/2
 1981 0083 A0       		.byte	(.L131-.L133)/2
 1982 0084 A0       		.byte	(.L131-.L133)/2
 1983 0085 A0       		.byte	(.L131-.L133)/2
 1984 0086 A0       		.byte	(.L131-.L133)/2
 1985 0087 A0       		.byte	(.L131-.L133)/2
 1986 0088 A0       		.byte	(.L131-.L133)/2
 1987 0089 A0       		.byte	(.L131-.L133)/2
 1988 008a A0       		.byte	(.L131-.L133)/2
 1989 008b A0       		.byte	(.L131-.L133)/2
 1990 008c A0       		.byte	(.L131-.L133)/2
 1991 008d A0       		.byte	(.L131-.L133)/2
 1992 008e A0       		.byte	(.L131-.L133)/2
 1993 008f A0       		.byte	(.L131-.L133)/2
 1994 0090 A0       		.byte	(.L131-.L133)/2
 1995 0091 A0       		.byte	(.L131-.L133)/2
 1996 0092 A0       		.byte	(.L131-.L133)/2
 1997 0093 A0       		.byte	(.L131-.L133)/2
 1998 0094 A0       		.byte	(.L131-.L133)/2
 1999 0095 A0       		.byte	(.L131-.L133)/2
 2000 0096 A0       		.byte	(.L131-.L133)/2
 2001 0097 44       		.byte	(.L135-.L133)/2
 2002 0098 A0       		.byte	(.L131-.L133)/2
 2003 0099 A0       		.byte	(.L131-.L133)/2
 2004 009a A0       		.byte	(.L131-.L133)/2
 2005 009b 2D       		.byte	(.L134-.L133)/2
 2006 009c 31       		.byte	(.L132-.L133)/2
 2007              	.LVL178:
 2008 009d 00       		.p2align 1
 2009              	.L130:
 692:Middlewares/lvgl/src/core/lv_obj_style.c **** 
 2010              		.loc 1 692 9 view .LVU563
 2011 009e 40F25742 		movw	r2, #1111
 2012              	.LVL179:
 692:Middlewares/lvgl/src/core/lv_obj_style.c **** 
 2013              		.loc 1 692 9 view .LVU564
 2014 00a2 9142     		cmp	r1, r2
 2015 00a4 28D0     		beq	.L136
 2016 00a6 41F25942 		movw	r2, #5209
 2017 00aa 9142     		cmp	r1, r2
 2018 00ac 72D1     		bne	.L131
 2019              	.L134:
 702:Middlewares/lvgl/src/core/lv_obj_style.c ****                 else value_final.ptr = tr->end_value.ptr;
 2020              		.loc 1 702 17 is_stmt 1 view .LVU565
 702:Middlewares/lvgl/src/core/lv_obj_style.c ****                 else value_final.ptr = tr->end_value.ptr;
 2021              		.loc 1 702 19 is_stmt 0 view .LVU566
 2022 00ae FE2F     		cmp	r7, #254
 2023 00b0 12DC     		bgt	.L139
 702:Middlewares/lvgl/src/core/lv_obj_style.c ****                 else value_final.ptr = tr->end_value.ptr;
 2024              		.loc 1 702 29 is_stmt 1 discriminator 1 view .LVU567
 702:Middlewares/lvgl/src/core/lv_obj_style.c ****                 else value_final.ptr = tr->end_value.ptr;
 2025              		.loc 1 702 62 is_stmt 0 discriminator 1 view .LVU568
 2026 00b2 E768     		ldr	r7, [r4, #12]
 2027              	.LVL180:
ARM GAS  /tmp/ccoxlgn6.s 			page 63


 702:Middlewares/lvgl/src/core/lv_obj_style.c ****                 else value_final.ptr = tr->end_value.ptr;
 2028              		.loc 1 702 62 discriminator 1 view .LVU569
 2029 00b4 02E0     		b	.L138
 2030              	.LVL181:
 2031              	.L132:
 697:Middlewares/lvgl/src/core/lv_obj_style.c ****                 else value_final.num = tr->end_value.num;
 2032              		.loc 1 697 17 is_stmt 1 view .LVU570
 697:Middlewares/lvgl/src/core/lv_obj_style.c ****                 else value_final.num = tr->end_value.num;
 2033              		.loc 1 697 19 is_stmt 0 view .LVU571
 2034 00b6 FE2F     		cmp	r7, #254
 2035 00b8 0CDC     		bgt	.L137
 697:Middlewares/lvgl/src/core/lv_obj_style.c ****                 else value_final.num = tr->end_value.num;
 2036              		.loc 1 697 29 is_stmt 1 discriminator 1 view .LVU572
 697:Middlewares/lvgl/src/core/lv_obj_style.c ****                 else value_final.num = tr->end_value.num;
 2037              		.loc 1 697 62 is_stmt 0 discriminator 1 view .LVU573
 2038 00ba E768     		ldr	r7, [r4, #12]
 2039              	.LVL182:
 2040              	.L138:
 729:Middlewares/lvgl/src/core/lv_obj_style.c ****         bool refr = true;
 2041              		.loc 1 729 9 is_stmt 1 view .LVU574
 730:Middlewares/lvgl/src/core/lv_obj_style.c ****         if(lv_style_get_prop(obj->styles[i].style, tr->prop, &old_value)) {
 2042              		.loc 1 730 9 view .LVU575
 731:Middlewares/lvgl/src/core/lv_obj_style.c ****             if(value_final.ptr == old_value.ptr && value_final.color.full == old_value.color.full &
 2043              		.loc 1 731 9 view .LVU576
 731:Middlewares/lvgl/src/core/lv_obj_style.c ****             if(value_final.ptr == old_value.ptr && value_final.color.full == old_value.color.full &
 2044              		.loc 1 731 12 is_stmt 0 view .LVU577
 2045 00bc 01AA     		add	r2, sp, #4
 2046 00be 1868     		ldr	r0, [r3]
 2047 00c0 FFF7FEFF 		bl	lv_style_get_prop
 2048              	.LVL183:
 731:Middlewares/lvgl/src/core/lv_obj_style.c ****             if(value_final.ptr == old_value.ptr && value_final.color.full == old_value.color.full &
 2049              		.loc 1 731 11 view .LVU578
 2050 00c4 0028     		cmp	r0, #0
 2051 00c6 78D0     		beq	.L151
 732:Middlewares/lvgl/src/core/lv_obj_style.c ****                 refr = false;
 2052              		.loc 1 732 13 is_stmt 1 view .LVU579
 732:Middlewares/lvgl/src/core/lv_obj_style.c ****                 refr = false;
 2053              		.loc 1 732 44 is_stmt 0 view .LVU580
 2054 00c8 019B     		ldr	r3, [sp, #4]
 732:Middlewares/lvgl/src/core/lv_obj_style.c ****                 refr = false;
 2055              		.loc 1 732 15 view .LVU581
 2056 00ca 9F42     		cmp	r7, r3
 2057 00cc 71D0     		beq	.L155
 730:Middlewares/lvgl/src/core/lv_obj_style.c ****         if(lv_style_get_prop(obj->styles[i].style, tr->prop, &old_value)) {
 2058              		.loc 1 730 14 view .LVU582
 2059 00ce 4FF00108 		mov	r8, #1
 2060 00d2 74E0     		b	.L147
 2061              	.LVL184:
 2062              	.L137:
 698:Middlewares/lvgl/src/core/lv_obj_style.c ****                 break;
 2063              		.loc 1 698 22 is_stmt 1 view .LVU583
 698:Middlewares/lvgl/src/core/lv_obj_style.c ****                 break;
 2064              		.loc 1 698 53 is_stmt 0 view .LVU584
 2065 00d4 2769     		ldr	r7, [r4, #16]
 2066              	.LVL185:
 698:Middlewares/lvgl/src/core/lv_obj_style.c ****                 break;
 2067              		.loc 1 698 53 view .LVU585
ARM GAS  /tmp/ccoxlgn6.s 			page 64


 2068 00d6 F1E7     		b	.L138
 2069              	.LVL186:
 2070              	.L139:
 703:Middlewares/lvgl/src/core/lv_obj_style.c ****                 break;
 2071              		.loc 1 703 22 is_stmt 1 view .LVU586
 703:Middlewares/lvgl/src/core/lv_obj_style.c ****                 break;
 2072              		.loc 1 703 53 is_stmt 0 view .LVU587
 2073 00d8 2769     		ldr	r7, [r4, #16]
 2074              	.LVL187:
 703:Middlewares/lvgl/src/core/lv_obj_style.c ****                 break;
 2075              		.loc 1 703 53 view .LVU588
 2076 00da EFE7     		b	.L138
 2077              	.LVL188:
 2078              	.L135:
 706:Middlewares/lvgl/src/core/lv_obj_style.c ****                 else if(tr->end_value.ptr == NULL) value_final.ptr = tr->start_value.ptr;
 2079              		.loc 1 706 17 is_stmt 1 view .LVU589
 706:Middlewares/lvgl/src/core/lv_obj_style.c ****                 else if(tr->end_value.ptr == NULL) value_final.ptr = tr->start_value.ptr;
 2080              		.loc 1 706 35 is_stmt 0 view .LVU590
 2081 00dc E268     		ldr	r2, [r4, #12]
 706:Middlewares/lvgl/src/core/lv_obj_style.c ****                 else if(tr->end_value.ptr == NULL) value_final.ptr = tr->start_value.ptr;
 2082              		.loc 1 706 19 view .LVU591
 2083 00de 2AB1     		cbz	r2, .L156
 707:Middlewares/lvgl/src/core/lv_obj_style.c ****                 else if(v < 128) value_final.ptr = tr->start_value.ptr;
 2084              		.loc 1 707 22 is_stmt 1 view .LVU592
 707:Middlewares/lvgl/src/core/lv_obj_style.c ****                 else if(v < 128) value_final.ptr = tr->start_value.ptr;
 2085              		.loc 1 707 38 is_stmt 0 view .LVU593
 2086 00e0 2069     		ldr	r0, [r4, #16]
 707:Middlewares/lvgl/src/core/lv_obj_style.c ****                 else if(v < 128) value_final.ptr = tr->start_value.ptr;
 2087              		.loc 1 707 24 view .LVU594
 2088 00e2 28B1     		cbz	r0, .L157
 708:Middlewares/lvgl/src/core/lv_obj_style.c ****                 else value_final.ptr = tr->end_value.ptr;
 2089              		.loc 1 708 22 is_stmt 1 view .LVU595
 708:Middlewares/lvgl/src/core/lv_obj_style.c ****                 else value_final.ptr = tr->end_value.ptr;
 2090              		.loc 1 708 24 is_stmt 0 view .LVU596
 2091 00e4 7F2F     		cmp	r7, #127
 2092 00e6 05DC     		bgt	.L142
 708:Middlewares/lvgl/src/core/lv_obj_style.c ****                 else value_final.ptr = tr->end_value.ptr;
 2093              		.loc 1 708 34 is_stmt 1 discriminator 1 view .LVU597
 708:Middlewares/lvgl/src/core/lv_obj_style.c ****                 else value_final.ptr = tr->end_value.ptr;
 2094              		.loc 1 708 50 is_stmt 0 discriminator 1 view .LVU598
 2095 00e8 1746     		mov	r7, r2
 2096              	.LVL189:
 708:Middlewares/lvgl/src/core/lv_obj_style.c ****                 else value_final.ptr = tr->end_value.ptr;
 2097              		.loc 1 708 50 discriminator 1 view .LVU599
 2098 00ea E7E7     		b	.L138
 2099              	.LVL190:
 2100              	.L156:
 706:Middlewares/lvgl/src/core/lv_obj_style.c ****                 else if(tr->end_value.ptr == NULL) value_final.ptr = tr->start_value.ptr;
 2101              		.loc 1 706 49 is_stmt 1 discriminator 1 view .LVU600
 706:Middlewares/lvgl/src/core/lv_obj_style.c ****                 else if(tr->end_value.ptr == NULL) value_final.ptr = tr->start_value.ptr;
 2102              		.loc 1 706 80 is_stmt 0 discriminator 1 view .LVU601
 2103 00ec 2769     		ldr	r7, [r4, #16]
 2104              	.LVL191:
 706:Middlewares/lvgl/src/core/lv_obj_style.c ****                 else if(tr->end_value.ptr == NULL) value_final.ptr = tr->start_value.ptr;
 2105              		.loc 1 706 80 discriminator 1 view .LVU602
 2106 00ee E5E7     		b	.L138
 2107              	.LVL192:
ARM GAS  /tmp/ccoxlgn6.s 			page 65


 2108              	.L157:
 707:Middlewares/lvgl/src/core/lv_obj_style.c ****                 else if(v < 128) value_final.ptr = tr->start_value.ptr;
 2109              		.loc 1 707 52 is_stmt 1 discriminator 1 view .LVU603
 707:Middlewares/lvgl/src/core/lv_obj_style.c ****                 else if(v < 128) value_final.ptr = tr->start_value.ptr;
 2110              		.loc 1 707 68 is_stmt 0 discriminator 1 view .LVU604
 2111 00f0 1746     		mov	r7, r2
 2112              	.LVL193:
 707:Middlewares/lvgl/src/core/lv_obj_style.c ****                 else if(v < 128) value_final.ptr = tr->start_value.ptr;
 2113              		.loc 1 707 68 discriminator 1 view .LVU605
 2114 00f2 E3E7     		b	.L138
 2115              	.LVL194:
 2116              	.L142:
 709:Middlewares/lvgl/src/core/lv_obj_style.c ****                 break;
 2117              		.loc 1 709 22 is_stmt 1 view .LVU606
 709:Middlewares/lvgl/src/core/lv_obj_style.c ****                 break;
 2118              		.loc 1 709 38 is_stmt 0 view .LVU607
 2119 00f4 0746     		mov	r7, r0
 2120              	.LVL195:
 709:Middlewares/lvgl/src/core/lv_obj_style.c ****                 break;
 2121              		.loc 1 709 38 view .LVU608
 2122 00f6 E1E7     		b	.L138
 2123              	.LVL196:
 2124              	.L136:
 717:Middlewares/lvgl/src/core/lv_obj_style.c ****                 else if(v >= 255) value_final.color = tr->end_value.color;
 2125              		.loc 1 717 17 is_stmt 1 view .LVU609
 717:Middlewares/lvgl/src/core/lv_obj_style.c ****                 else if(v >= 255) value_final.color = tr->end_value.color;
 2126              		.loc 1 717 19 is_stmt 0 view .LVU610
 2127 00f8 002F     		cmp	r7, #0
 2128 00fa 06DD     		ble	.L158
 718:Middlewares/lvgl/src/core/lv_obj_style.c ****                 else value_final.color = lv_color_mix(tr->end_value.color, tr->start_value.color, v
 2129              		.loc 1 718 22 is_stmt 1 view .LVU611
 718:Middlewares/lvgl/src/core/lv_obj_style.c ****                 else value_final.color = lv_color_mix(tr->end_value.color, tr->start_value.color, v
 2130              		.loc 1 718 24 is_stmt 0 view .LVU612
 2131 00fc FE2F     		cmp	r7, #254
 2132 00fe 09DD     		ble	.L144
 718:Middlewares/lvgl/src/core/lv_obj_style.c ****                 else value_final.color = lv_color_mix(tr->end_value.color, tr->start_value.color, v
 2133              		.loc 1 718 35 is_stmt 1 discriminator 1 view .LVU613
 718:Middlewares/lvgl/src/core/lv_obj_style.c ****                 else value_final.color = lv_color_mix(tr->end_value.color, tr->start_value.color, v
 2134              		.loc 1 718 53 is_stmt 0 discriminator 1 view .LVU614
 2135 0100 228A     		ldrh	r2, [r4, #16]
 2136 0102 0027     		movs	r7, #0
 2137              	.LVL197:
 718:Middlewares/lvgl/src/core/lv_obj_style.c ****                 else value_final.color = lv_color_mix(tr->end_value.color, tr->start_value.color, v
 2138              		.loc 1 718 53 discriminator 1 view .LVU615
 2139 0104 62F30F07 		bfi	r7, r2, #0, #16
 2140              	.LVL198:
 718:Middlewares/lvgl/src/core/lv_obj_style.c ****                 else value_final.color = lv_color_mix(tr->end_value.color, tr->start_value.color, v
 2141              		.loc 1 718 53 discriminator 1 view .LVU616
 2142 0108 D8E7     		b	.L138
 2143              	.LVL199:
 2144              	.L158:
 717:Middlewares/lvgl/src/core/lv_obj_style.c ****                 else if(v >= 255) value_final.color = tr->end_value.color;
 2145              		.loc 1 717 28 is_stmt 1 discriminator 1 view .LVU617
 717:Middlewares/lvgl/src/core/lv_obj_style.c ****                 else if(v >= 255) value_final.color = tr->end_value.color;
 2146              		.loc 1 717 46 is_stmt 0 discriminator 1 view .LVU618
 2147 010a A289     		ldrh	r2, [r4, #12]
 2148 010c 0027     		movs	r7, #0
ARM GAS  /tmp/ccoxlgn6.s 			page 66


 2149              	.LVL200:
 717:Middlewares/lvgl/src/core/lv_obj_style.c ****                 else if(v >= 255) value_final.color = tr->end_value.color;
 2150              		.loc 1 717 46 discriminator 1 view .LVU619
 2151 010e 62F30F07 		bfi	r7, r2, #0, #16
 2152              	.LVL201:
 717:Middlewares/lvgl/src/core/lv_obj_style.c ****                 else if(v >= 255) value_final.color = tr->end_value.color;
 2153              		.loc 1 717 46 discriminator 1 view .LVU620
 2154 0112 D3E7     		b	.L138
 2155              	.LVL202:
 2156              	.L144:
 719:Middlewares/lvgl/src/core/lv_obj_style.c ****                 break;
 2157              		.loc 1 719 22 is_stmt 1 view .LVU621
 719:Middlewares/lvgl/src/core/lv_obj_style.c ****                 break;
 2158              		.loc 1 719 42 is_stmt 0 view .LVU622
 2159 0114 FFB2     		uxtb	r7, r7
 2160              	.LVL203:
 719:Middlewares/lvgl/src/core/lv_obj_style.c ****                 break;
 2161              		.loc 1 719 42 view .LVU623
 2162 0116 B4F810E0 		ldrh	lr, [r4, #16]
 2163 011a B4F80C80 		ldrh	r8, [r4, #12]
 2164              	.LVL204:
 2165              	.LBB80:
 2166              	.LBI80:
 2167              		.file 3 "Middlewares/lvgl/src/core/../misc/lv_color.h"
   1:Middlewares/lvgl/src/core/../misc/lv_color.h **** /**
   2:Middlewares/lvgl/src/core/../misc/lv_color.h ****  * @file lv_color.h
   3:Middlewares/lvgl/src/core/../misc/lv_color.h ****  *
   4:Middlewares/lvgl/src/core/../misc/lv_color.h ****  */
   5:Middlewares/lvgl/src/core/../misc/lv_color.h **** 
   6:Middlewares/lvgl/src/core/../misc/lv_color.h **** #ifndef LV_COLOR_H
   7:Middlewares/lvgl/src/core/../misc/lv_color.h **** #define LV_COLOR_H
   8:Middlewares/lvgl/src/core/../misc/lv_color.h **** 
   9:Middlewares/lvgl/src/core/../misc/lv_color.h **** #ifdef __cplusplus
  10:Middlewares/lvgl/src/core/../misc/lv_color.h **** extern "C" {
  11:Middlewares/lvgl/src/core/../misc/lv_color.h **** #endif
  12:Middlewares/lvgl/src/core/../misc/lv_color.h **** 
  13:Middlewares/lvgl/src/core/../misc/lv_color.h **** /*********************
  14:Middlewares/lvgl/src/core/../misc/lv_color.h ****  *      INCLUDES
  15:Middlewares/lvgl/src/core/../misc/lv_color.h ****  *********************/
  16:Middlewares/lvgl/src/core/../misc/lv_color.h **** #include "../lv_conf_internal.h"
  17:Middlewares/lvgl/src/core/../misc/lv_color.h **** #include "lv_math.h"
  18:Middlewares/lvgl/src/core/../misc/lv_color.h **** #include "lv_types.h"
  19:Middlewares/lvgl/src/core/../misc/lv_color.h **** 
  20:Middlewares/lvgl/src/core/../misc/lv_color.h **** /*Error checking*/
  21:Middlewares/lvgl/src/core/../misc/lv_color.h **** #if LV_COLOR_DEPTH == 24
  22:Middlewares/lvgl/src/core/../misc/lv_color.h **** #error "LV_COLOR_DEPTH 24 is deprecated. Use LV_COLOR_DEPTH 32 instead (lv_conf.h)"
  23:Middlewares/lvgl/src/core/../misc/lv_color.h **** #endif
  24:Middlewares/lvgl/src/core/../misc/lv_color.h **** 
  25:Middlewares/lvgl/src/core/../misc/lv_color.h **** #if LV_COLOR_DEPTH != 32 && LV_COLOR_SCREEN_TRANSP != 0
  26:Middlewares/lvgl/src/core/../misc/lv_color.h **** #error "LV_COLOR_SCREEN_TRANSP requires LV_COLOR_DEPTH == 32. Set it in lv_conf.h"
  27:Middlewares/lvgl/src/core/../misc/lv_color.h **** #endif
  28:Middlewares/lvgl/src/core/../misc/lv_color.h **** 
  29:Middlewares/lvgl/src/core/../misc/lv_color.h **** #if LV_COLOR_DEPTH != 16 && LV_COLOR_16_SWAP != 0
  30:Middlewares/lvgl/src/core/../misc/lv_color.h **** #error "LV_COLOR_16_SWAP requires LV_COLOR_DEPTH == 16. Set it in lv_conf.h"
  31:Middlewares/lvgl/src/core/../misc/lv_color.h **** #endif
  32:Middlewares/lvgl/src/core/../misc/lv_color.h **** 
  33:Middlewares/lvgl/src/core/../misc/lv_color.h **** #include <stdint.h>
ARM GAS  /tmp/ccoxlgn6.s 			page 67


  34:Middlewares/lvgl/src/core/../misc/lv_color.h **** 
  35:Middlewares/lvgl/src/core/../misc/lv_color.h **** /*********************
  36:Middlewares/lvgl/src/core/../misc/lv_color.h ****  *      DEFINES
  37:Middlewares/lvgl/src/core/../misc/lv_color.h ****  *********************/
  38:Middlewares/lvgl/src/core/../misc/lv_color.h **** 
  39:Middlewares/lvgl/src/core/../misc/lv_color.h **** /**
  40:Middlewares/lvgl/src/core/../misc/lv_color.h ****  * Opacity percentages.
  41:Middlewares/lvgl/src/core/../misc/lv_color.h ****  */
  42:Middlewares/lvgl/src/core/../misc/lv_color.h **** enum {
  43:Middlewares/lvgl/src/core/../misc/lv_color.h ****     LV_OPA_TRANSP = 0,
  44:Middlewares/lvgl/src/core/../misc/lv_color.h ****     LV_OPA_0      = 0,
  45:Middlewares/lvgl/src/core/../misc/lv_color.h ****     LV_OPA_10     = 25,
  46:Middlewares/lvgl/src/core/../misc/lv_color.h ****     LV_OPA_20     = 51,
  47:Middlewares/lvgl/src/core/../misc/lv_color.h ****     LV_OPA_30     = 76,
  48:Middlewares/lvgl/src/core/../misc/lv_color.h ****     LV_OPA_40     = 102,
  49:Middlewares/lvgl/src/core/../misc/lv_color.h ****     LV_OPA_50     = 127,
  50:Middlewares/lvgl/src/core/../misc/lv_color.h ****     LV_OPA_60     = 153,
  51:Middlewares/lvgl/src/core/../misc/lv_color.h ****     LV_OPA_70     = 178,
  52:Middlewares/lvgl/src/core/../misc/lv_color.h ****     LV_OPA_80     = 204,
  53:Middlewares/lvgl/src/core/../misc/lv_color.h ****     LV_OPA_90     = 229,
  54:Middlewares/lvgl/src/core/../misc/lv_color.h ****     LV_OPA_100    = 255,
  55:Middlewares/lvgl/src/core/../misc/lv_color.h ****     LV_OPA_COVER  = 255,
  56:Middlewares/lvgl/src/core/../misc/lv_color.h **** };
  57:Middlewares/lvgl/src/core/../misc/lv_color.h **** 
  58:Middlewares/lvgl/src/core/../misc/lv_color.h **** #define LV_OPA_MIN 2    /*Opacities below this will be transparent*/
  59:Middlewares/lvgl/src/core/../misc/lv_color.h **** #define LV_OPA_MAX 253  /*Opacities above this will fully cover*/
  60:Middlewares/lvgl/src/core/../misc/lv_color.h **** 
  61:Middlewares/lvgl/src/core/../misc/lv_color.h **** #if LV_COLOR_DEPTH == 1
  62:Middlewares/lvgl/src/core/../misc/lv_color.h **** #define LV_COLOR_SIZE 8
  63:Middlewares/lvgl/src/core/../misc/lv_color.h **** #elif LV_COLOR_DEPTH == 8
  64:Middlewares/lvgl/src/core/../misc/lv_color.h **** #define LV_COLOR_SIZE 8
  65:Middlewares/lvgl/src/core/../misc/lv_color.h **** #elif LV_COLOR_DEPTH == 16
  66:Middlewares/lvgl/src/core/../misc/lv_color.h **** #define LV_COLOR_SIZE 16
  67:Middlewares/lvgl/src/core/../misc/lv_color.h **** #elif LV_COLOR_DEPTH == 32
  68:Middlewares/lvgl/src/core/../misc/lv_color.h **** #define LV_COLOR_SIZE 32
  69:Middlewares/lvgl/src/core/../misc/lv_color.h **** #else
  70:Middlewares/lvgl/src/core/../misc/lv_color.h **** #error "Invalid LV_COLOR_DEPTH in lv_conf.h! Set it to 1, 8, 16 or 32!"
  71:Middlewares/lvgl/src/core/../misc/lv_color.h **** #endif
  72:Middlewares/lvgl/src/core/../misc/lv_color.h **** 
  73:Middlewares/lvgl/src/core/../misc/lv_color.h **** /**
  74:Middlewares/lvgl/src/core/../misc/lv_color.h ****  * Adjust color mix functions rounding.
  75:Middlewares/lvgl/src/core/../misc/lv_color.h ****  * GPUs might calculate color mix (blending) differently.
  76:Middlewares/lvgl/src/core/../misc/lv_color.h ****  * Should be in range of 0..254
  77:Middlewares/lvgl/src/core/../misc/lv_color.h ****  * 0: no adjustment, get the integer part of the result (round down)
  78:Middlewares/lvgl/src/core/../misc/lv_color.h ****  * 64: round up from x.75
  79:Middlewares/lvgl/src/core/../misc/lv_color.h ****  * 128: round up from half
  80:Middlewares/lvgl/src/core/../misc/lv_color.h ****  * 192: round up from x.25
  81:Middlewares/lvgl/src/core/../misc/lv_color.h ****  * 254: round up*/
  82:Middlewares/lvgl/src/core/../misc/lv_color.h **** #ifndef LV_COLOR_MIX_ROUND_OFS
  83:Middlewares/lvgl/src/core/../misc/lv_color.h **** #if LV_COLOR_DEPTH == 32
  84:Middlewares/lvgl/src/core/../misc/lv_color.h **** #define LV_COLOR_MIX_ROUND_OFS 0
  85:Middlewares/lvgl/src/core/../misc/lv_color.h **** #else
  86:Middlewares/lvgl/src/core/../misc/lv_color.h **** #define LV_COLOR_MIX_ROUND_OFS 128
  87:Middlewares/lvgl/src/core/../misc/lv_color.h **** #endif
  88:Middlewares/lvgl/src/core/../misc/lv_color.h **** #endif
  89:Middlewares/lvgl/src/core/../misc/lv_color.h **** 
  90:Middlewares/lvgl/src/core/../misc/lv_color.h **** #if defined(__cplusplus) && !defined(_LV_COLOR_HAS_MODERN_CPP)
ARM GAS  /tmp/ccoxlgn6.s 			page 68


  91:Middlewares/lvgl/src/core/../misc/lv_color.h **** /**
  92:Middlewares/lvgl/src/core/../misc/lv_color.h **** * MSVC compiler's definition of the __cplusplus indicating 199711L regardless to C++ standard versi
  93:Middlewares/lvgl/src/core/../misc/lv_color.h **** * see https://devblogs.microsoft.com/cppblog/msvc-now-correctly-reports-cplusplus
  94:Middlewares/lvgl/src/core/../misc/lv_color.h **** * so we use _MSC_VER macro instead of __cplusplus
  95:Middlewares/lvgl/src/core/../misc/lv_color.h **** */
  96:Middlewares/lvgl/src/core/../misc/lv_color.h **** #ifdef _MSC_VER
  97:Middlewares/lvgl/src/core/../misc/lv_color.h **** #if _MSC_VER >= 1900 /*Visual Studio 2015*/
  98:Middlewares/lvgl/src/core/../misc/lv_color.h **** #define _LV_COLOR_HAS_MODERN_CPP 1
  99:Middlewares/lvgl/src/core/../misc/lv_color.h **** #endif
 100:Middlewares/lvgl/src/core/../misc/lv_color.h **** #else
 101:Middlewares/lvgl/src/core/../misc/lv_color.h **** #if __cplusplus >= 201103L
 102:Middlewares/lvgl/src/core/../misc/lv_color.h **** #define _LV_COLOR_HAS_MODERN_CPP 1
 103:Middlewares/lvgl/src/core/../misc/lv_color.h **** #endif
 104:Middlewares/lvgl/src/core/../misc/lv_color.h **** #endif
 105:Middlewares/lvgl/src/core/../misc/lv_color.h **** #endif /*__cplusplus*/
 106:Middlewares/lvgl/src/core/../misc/lv_color.h **** 
 107:Middlewares/lvgl/src/core/../misc/lv_color.h **** #ifndef _LV_COLOR_HAS_MODERN_CPP
 108:Middlewares/lvgl/src/core/../misc/lv_color.h **** #define _LV_COLOR_HAS_MODERN_CPP 0
 109:Middlewares/lvgl/src/core/../misc/lv_color.h **** #endif
 110:Middlewares/lvgl/src/core/../misc/lv_color.h **** 
 111:Middlewares/lvgl/src/core/../misc/lv_color.h **** #if _LV_COLOR_HAS_MODERN_CPP
 112:Middlewares/lvgl/src/core/../misc/lv_color.h **** /*Fix msvc compiler error C4576 inside C++ code*/
 113:Middlewares/lvgl/src/core/../misc/lv_color.h **** #define _LV_COLOR_MAKE_TYPE_HELPER lv_color_t
 114:Middlewares/lvgl/src/core/../misc/lv_color.h **** #else
 115:Middlewares/lvgl/src/core/../misc/lv_color.h **** #define _LV_COLOR_MAKE_TYPE_HELPER (lv_color_t)
 116:Middlewares/lvgl/src/core/../misc/lv_color.h **** #endif
 117:Middlewares/lvgl/src/core/../misc/lv_color.h **** 
 118:Middlewares/lvgl/src/core/../misc/lv_color.h **** /*---------------------------------------
 119:Middlewares/lvgl/src/core/../misc/lv_color.h ****  * Macros for all existing color depths
 120:Middlewares/lvgl/src/core/../misc/lv_color.h ****  * to set/get values of the color channels
 121:Middlewares/lvgl/src/core/../misc/lv_color.h ****  *------------------------------------------*/
 122:Middlewares/lvgl/src/core/../misc/lv_color.h **** # define LV_COLOR_SET_R1(c, v) (c).ch.red = (uint8_t)((v) & 0x1)
 123:Middlewares/lvgl/src/core/../misc/lv_color.h **** # define LV_COLOR_SET_G1(c, v) (c).ch.green = (uint8_t)((v) & 0x1)
 124:Middlewares/lvgl/src/core/../misc/lv_color.h **** # define LV_COLOR_SET_B1(c, v) (c).ch.blue = (uint8_t)((v) & 0x1)
 125:Middlewares/lvgl/src/core/../misc/lv_color.h **** # define LV_COLOR_SET_A1(c, v) do {} while(0)
 126:Middlewares/lvgl/src/core/../misc/lv_color.h **** 
 127:Middlewares/lvgl/src/core/../misc/lv_color.h **** # define LV_COLOR_GET_R1(c) (c).ch.red
 128:Middlewares/lvgl/src/core/../misc/lv_color.h **** # define LV_COLOR_GET_G1(c) (c).ch.green
 129:Middlewares/lvgl/src/core/../misc/lv_color.h **** # define LV_COLOR_GET_B1(c) (c).ch.blue
 130:Middlewares/lvgl/src/core/../misc/lv_color.h **** # define LV_COLOR_GET_A1(c) 0xFF
 131:Middlewares/lvgl/src/core/../misc/lv_color.h **** 
 132:Middlewares/lvgl/src/core/../misc/lv_color.h **** # define _LV_COLOR_ZERO_INITIALIZER1 {0x00}
 133:Middlewares/lvgl/src/core/../misc/lv_color.h **** # define LV_COLOR_MAKE1(r8, g8, b8)  {(uint8_t)((b8 >> 7) | (g8 >> 7) | (r8 >> 7))}
 134:Middlewares/lvgl/src/core/../misc/lv_color.h **** 
 135:Middlewares/lvgl/src/core/../misc/lv_color.h **** # define LV_COLOR_SET_R8(c, v) (c).ch.red = (uint8_t)((v) & 0x7U)
 136:Middlewares/lvgl/src/core/../misc/lv_color.h **** # define LV_COLOR_SET_G8(c, v) (c).ch.green = (uint8_t)((v) & 0x7U)
 137:Middlewares/lvgl/src/core/../misc/lv_color.h **** # define LV_COLOR_SET_B8(c, v) (c).ch.blue = (uint8_t)((v) & 0x3U)
 138:Middlewares/lvgl/src/core/../misc/lv_color.h **** # define LV_COLOR_SET_A8(c, v) do {} while(0)
 139:Middlewares/lvgl/src/core/../misc/lv_color.h **** 
 140:Middlewares/lvgl/src/core/../misc/lv_color.h **** # define LV_COLOR_GET_R8(c) (c).ch.red
 141:Middlewares/lvgl/src/core/../misc/lv_color.h **** # define LV_COLOR_GET_G8(c) (c).ch.green
 142:Middlewares/lvgl/src/core/../misc/lv_color.h **** # define LV_COLOR_GET_B8(c) (c).ch.blue
 143:Middlewares/lvgl/src/core/../misc/lv_color.h **** # define LV_COLOR_GET_A8(c) 0xFF
 144:Middlewares/lvgl/src/core/../misc/lv_color.h **** 
 145:Middlewares/lvgl/src/core/../misc/lv_color.h **** # define _LV_COLOR_ZERO_INITIALIZER8 _LV_COLOR_MAKE_TYPE_HELPER {{0x00, 0x00, 0x00}}
 146:Middlewares/lvgl/src/core/../misc/lv_color.h **** # define LV_COLOR_MAKE8(r8, g8, b8) _LV_COLOR_MAKE_TYPE_HELPER  {{(uint8_t)((b8 >> 6) & 0x3U), (uin
 147:Middlewares/lvgl/src/core/../misc/lv_color.h **** 
ARM GAS  /tmp/ccoxlgn6.s 			page 69


 148:Middlewares/lvgl/src/core/../misc/lv_color.h **** # define LV_COLOR_SET_R16(c, v) (c).ch.red = (uint8_t)((v) & 0x1FU)
 149:Middlewares/lvgl/src/core/../misc/lv_color.h **** #if LV_COLOR_16_SWAP == 0
 150:Middlewares/lvgl/src/core/../misc/lv_color.h **** # define LV_COLOR_SET_G16(c, v) (c).ch.green = (uint8_t)((v) & 0x3FU)
 151:Middlewares/lvgl/src/core/../misc/lv_color.h **** #else
 152:Middlewares/lvgl/src/core/../misc/lv_color.h **** # define LV_COLOR_SET_G16(c, v) {(c).ch.green_h = (uint8_t)(((v) >> 3) & 0x7); (c).ch.green_l = (ui
 153:Middlewares/lvgl/src/core/../misc/lv_color.h **** #endif
 154:Middlewares/lvgl/src/core/../misc/lv_color.h **** # define LV_COLOR_SET_B16(c, v) (c).ch.blue = (uint8_t)((v) & 0x1FU)
 155:Middlewares/lvgl/src/core/../misc/lv_color.h **** # define LV_COLOR_SET_A16(c, v) do {} while(0)
 156:Middlewares/lvgl/src/core/../misc/lv_color.h **** 
 157:Middlewares/lvgl/src/core/../misc/lv_color.h **** # define LV_COLOR_GET_R16(c) (c).ch.red
 158:Middlewares/lvgl/src/core/../misc/lv_color.h **** #if LV_COLOR_16_SWAP == 0
 159:Middlewares/lvgl/src/core/../misc/lv_color.h **** # define LV_COLOR_GET_G16(c) (c).ch.green
 160:Middlewares/lvgl/src/core/../misc/lv_color.h **** #else
 161:Middlewares/lvgl/src/core/../misc/lv_color.h **** # define LV_COLOR_GET_G16(c) (((c).ch.green_h << 3) + (c).ch.green_l)
 162:Middlewares/lvgl/src/core/../misc/lv_color.h **** #endif
 163:Middlewares/lvgl/src/core/../misc/lv_color.h **** # define LV_COLOR_GET_B16(c) (c).ch.blue
 164:Middlewares/lvgl/src/core/../misc/lv_color.h **** # define LV_COLOR_GET_A16(c) 0xFF
 165:Middlewares/lvgl/src/core/../misc/lv_color.h **** 
 166:Middlewares/lvgl/src/core/../misc/lv_color.h **** #if LV_COLOR_16_SWAP == 0
 167:Middlewares/lvgl/src/core/../misc/lv_color.h **** # define _LV_COLOR_ZERO_INITIALIZER16  {{0x00, 0x00, 0x00}}
 168:Middlewares/lvgl/src/core/../misc/lv_color.h **** # define LV_COLOR_MAKE16(r8, g8, b8) {{(uint8_t)((b8 >> 3) & 0x1FU), (uint8_t)((g8 >> 2) & 0x3FU), 
 169:Middlewares/lvgl/src/core/../misc/lv_color.h **** #else
 170:Middlewares/lvgl/src/core/../misc/lv_color.h **** # define _LV_COLOR_ZERO_INITIALIZER16 {{0x00, 0x00, 0x00, 0x00}}
 171:Middlewares/lvgl/src/core/../misc/lv_color.h **** # define LV_COLOR_MAKE16(r8, g8, b8) {{(uint8_t)((g8 >> 5) & 0x7U), (uint8_t)((r8 >> 3) & 0x1FU), (
 172:Middlewares/lvgl/src/core/../misc/lv_color.h **** #endif
 173:Middlewares/lvgl/src/core/../misc/lv_color.h **** 
 174:Middlewares/lvgl/src/core/../misc/lv_color.h **** # define LV_COLOR_SET_R32(c, v) (c).ch.red = (uint8_t)((v) & 0xFF)
 175:Middlewares/lvgl/src/core/../misc/lv_color.h **** # define LV_COLOR_SET_G32(c, v) (c).ch.green = (uint8_t)((v) & 0xFF)
 176:Middlewares/lvgl/src/core/../misc/lv_color.h **** # define LV_COLOR_SET_B32(c, v) (c).ch.blue = (uint8_t)((v) & 0xFF)
 177:Middlewares/lvgl/src/core/../misc/lv_color.h **** # define LV_COLOR_SET_A32(c, v) (c).ch.alpha = (uint8_t)((v) & 0xFF)
 178:Middlewares/lvgl/src/core/../misc/lv_color.h **** 
 179:Middlewares/lvgl/src/core/../misc/lv_color.h **** # define LV_COLOR_GET_R32(c) (c).ch.red
 180:Middlewares/lvgl/src/core/../misc/lv_color.h **** # define LV_COLOR_GET_G32(c) (c).ch.green
 181:Middlewares/lvgl/src/core/../misc/lv_color.h **** # define LV_COLOR_GET_B32(c) (c).ch.blue
 182:Middlewares/lvgl/src/core/../misc/lv_color.h **** # define LV_COLOR_GET_A32(c) (c).ch.alpha
 183:Middlewares/lvgl/src/core/../misc/lv_color.h **** 
 184:Middlewares/lvgl/src/core/../misc/lv_color.h **** # define _LV_COLOR_ZERO_INITIALIZER32  {{0x00, 0x00, 0x00, 0x00}}
 185:Middlewares/lvgl/src/core/../misc/lv_color.h **** # define LV_COLOR_MAKE32(r8, g8, b8) {{b8, g8, r8, 0xff}} /*Fix 0xff alpha*/
 186:Middlewares/lvgl/src/core/../misc/lv_color.h **** 
 187:Middlewares/lvgl/src/core/../misc/lv_color.h **** /*---------------------------------------
 188:Middlewares/lvgl/src/core/../misc/lv_color.h ****  * Macros for the current color depth
 189:Middlewares/lvgl/src/core/../misc/lv_color.h ****  * to set/get values of the color channels
 190:Middlewares/lvgl/src/core/../misc/lv_color.h ****  *------------------------------------------*/
 191:Middlewares/lvgl/src/core/../misc/lv_color.h **** #define LV_COLOR_SET_R(c, v) LV_CONCAT(LV_COLOR_SET_R, LV_COLOR_DEPTH)(c, v)
 192:Middlewares/lvgl/src/core/../misc/lv_color.h **** #define LV_COLOR_SET_G(c, v) LV_CONCAT(LV_COLOR_SET_G, LV_COLOR_DEPTH)(c, v)
 193:Middlewares/lvgl/src/core/../misc/lv_color.h **** #define LV_COLOR_SET_B(c, v) LV_CONCAT(LV_COLOR_SET_B, LV_COLOR_DEPTH)(c, v)
 194:Middlewares/lvgl/src/core/../misc/lv_color.h **** #define LV_COLOR_SET_A(c, v) LV_CONCAT(LV_COLOR_SET_A, LV_COLOR_DEPTH)(c, v)
 195:Middlewares/lvgl/src/core/../misc/lv_color.h **** 
 196:Middlewares/lvgl/src/core/../misc/lv_color.h **** #define LV_COLOR_GET_R(c) LV_CONCAT(LV_COLOR_GET_R, LV_COLOR_DEPTH)(c)
 197:Middlewares/lvgl/src/core/../misc/lv_color.h **** #define LV_COLOR_GET_G(c) LV_CONCAT(LV_COLOR_GET_G, LV_COLOR_DEPTH)(c)
 198:Middlewares/lvgl/src/core/../misc/lv_color.h **** #define LV_COLOR_GET_B(c) LV_CONCAT(LV_COLOR_GET_B, LV_COLOR_DEPTH)(c)
 199:Middlewares/lvgl/src/core/../misc/lv_color.h **** #define LV_COLOR_GET_A(c) LV_CONCAT(LV_COLOR_GET_A, LV_COLOR_DEPTH)(c)
 200:Middlewares/lvgl/src/core/../misc/lv_color.h **** 
 201:Middlewares/lvgl/src/core/../misc/lv_color.h **** #define _LV_COLOR_ZERO_INITIALIZER LV_CONCAT(_LV_COLOR_ZERO_INITIALIZER, LV_COLOR_DEPTH)
 202:Middlewares/lvgl/src/core/../misc/lv_color.h **** #define LV_COLOR_MAKE(r8, g8, b8) LV_CONCAT(LV_COLOR_MAKE, LV_COLOR_DEPTH)(r8, g8, b8)
 203:Middlewares/lvgl/src/core/../misc/lv_color.h **** 
 204:Middlewares/lvgl/src/core/../misc/lv_color.h **** #define LV_UDIV255(x) ((uint32_t)((uint32_t) (x) * 0x8081) >> 0x17)
ARM GAS  /tmp/ccoxlgn6.s 			page 70


 205:Middlewares/lvgl/src/core/../misc/lv_color.h **** 
 206:Middlewares/lvgl/src/core/../misc/lv_color.h **** /**********************
 207:Middlewares/lvgl/src/core/../misc/lv_color.h ****  *      TYPEDEFS
 208:Middlewares/lvgl/src/core/../misc/lv_color.h ****  **********************/
 209:Middlewares/lvgl/src/core/../misc/lv_color.h **** 
 210:Middlewares/lvgl/src/core/../misc/lv_color.h **** typedef union {
 211:Middlewares/lvgl/src/core/../misc/lv_color.h ****     uint8_t full; /*must be declared first to set all bits of byte via initializer list*/
 212:Middlewares/lvgl/src/core/../misc/lv_color.h ****     union {
 213:Middlewares/lvgl/src/core/../misc/lv_color.h ****         uint8_t blue : 1;
 214:Middlewares/lvgl/src/core/../misc/lv_color.h ****         uint8_t green : 1;
 215:Middlewares/lvgl/src/core/../misc/lv_color.h ****         uint8_t red : 1;
 216:Middlewares/lvgl/src/core/../misc/lv_color.h ****     } ch;
 217:Middlewares/lvgl/src/core/../misc/lv_color.h **** } lv_color1_t;
 218:Middlewares/lvgl/src/core/../misc/lv_color.h **** 
 219:Middlewares/lvgl/src/core/../misc/lv_color.h **** typedef union {
 220:Middlewares/lvgl/src/core/../misc/lv_color.h ****     struct {
 221:Middlewares/lvgl/src/core/../misc/lv_color.h ****         uint8_t blue : 2;
 222:Middlewares/lvgl/src/core/../misc/lv_color.h ****         uint8_t green : 3;
 223:Middlewares/lvgl/src/core/../misc/lv_color.h ****         uint8_t red : 3;
 224:Middlewares/lvgl/src/core/../misc/lv_color.h ****     } ch;
 225:Middlewares/lvgl/src/core/../misc/lv_color.h ****     uint8_t full;
 226:Middlewares/lvgl/src/core/../misc/lv_color.h **** } lv_color8_t;
 227:Middlewares/lvgl/src/core/../misc/lv_color.h **** 
 228:Middlewares/lvgl/src/core/../misc/lv_color.h **** typedef union {
 229:Middlewares/lvgl/src/core/../misc/lv_color.h ****     struct {
 230:Middlewares/lvgl/src/core/../misc/lv_color.h **** #if LV_COLOR_16_SWAP == 0
 231:Middlewares/lvgl/src/core/../misc/lv_color.h ****         uint16_t blue : 5;
 232:Middlewares/lvgl/src/core/../misc/lv_color.h ****         uint16_t green : 6;
 233:Middlewares/lvgl/src/core/../misc/lv_color.h ****         uint16_t red : 5;
 234:Middlewares/lvgl/src/core/../misc/lv_color.h **** #else
 235:Middlewares/lvgl/src/core/../misc/lv_color.h ****         uint16_t green_h : 3;
 236:Middlewares/lvgl/src/core/../misc/lv_color.h ****         uint16_t red : 5;
 237:Middlewares/lvgl/src/core/../misc/lv_color.h ****         uint16_t blue : 5;
 238:Middlewares/lvgl/src/core/../misc/lv_color.h ****         uint16_t green_l : 3;
 239:Middlewares/lvgl/src/core/../misc/lv_color.h **** #endif
 240:Middlewares/lvgl/src/core/../misc/lv_color.h ****     } ch;
 241:Middlewares/lvgl/src/core/../misc/lv_color.h ****     uint16_t full;
 242:Middlewares/lvgl/src/core/../misc/lv_color.h **** } lv_color16_t;
 243:Middlewares/lvgl/src/core/../misc/lv_color.h **** 
 244:Middlewares/lvgl/src/core/../misc/lv_color.h **** typedef union {
 245:Middlewares/lvgl/src/core/../misc/lv_color.h ****     struct {
 246:Middlewares/lvgl/src/core/../misc/lv_color.h ****         uint8_t blue;
 247:Middlewares/lvgl/src/core/../misc/lv_color.h ****         uint8_t green;
 248:Middlewares/lvgl/src/core/../misc/lv_color.h ****         uint8_t red;
 249:Middlewares/lvgl/src/core/../misc/lv_color.h ****         uint8_t alpha;
 250:Middlewares/lvgl/src/core/../misc/lv_color.h ****     } ch;
 251:Middlewares/lvgl/src/core/../misc/lv_color.h ****     uint32_t full;
 252:Middlewares/lvgl/src/core/../misc/lv_color.h **** } lv_color32_t;
 253:Middlewares/lvgl/src/core/../misc/lv_color.h **** 
 254:Middlewares/lvgl/src/core/../misc/lv_color.h **** typedef LV_CONCAT3(uint, LV_COLOR_SIZE, _t) lv_color_int_t;
 255:Middlewares/lvgl/src/core/../misc/lv_color.h **** typedef LV_CONCAT3(lv_color, LV_COLOR_DEPTH, _t) lv_color_t;
 256:Middlewares/lvgl/src/core/../misc/lv_color.h **** 
 257:Middlewares/lvgl/src/core/../misc/lv_color.h **** typedef struct {
 258:Middlewares/lvgl/src/core/../misc/lv_color.h ****     uint16_t h;
 259:Middlewares/lvgl/src/core/../misc/lv_color.h ****     uint8_t s;
 260:Middlewares/lvgl/src/core/../misc/lv_color.h ****     uint8_t v;
 261:Middlewares/lvgl/src/core/../misc/lv_color.h **** } lv_color_hsv_t;
ARM GAS  /tmp/ccoxlgn6.s 			page 71


 262:Middlewares/lvgl/src/core/../misc/lv_color.h **** 
 263:Middlewares/lvgl/src/core/../misc/lv_color.h **** //! @cond Doxygen_Suppress
 264:Middlewares/lvgl/src/core/../misc/lv_color.h **** /*No idea where the guard is required but else throws warnings in the docs*/
 265:Middlewares/lvgl/src/core/../misc/lv_color.h **** typedef uint8_t lv_opa_t;
 266:Middlewares/lvgl/src/core/../misc/lv_color.h **** //! @endcond
 267:Middlewares/lvgl/src/core/../misc/lv_color.h **** 
 268:Middlewares/lvgl/src/core/../misc/lv_color.h **** struct _lv_color_filter_dsc_t;
 269:Middlewares/lvgl/src/core/../misc/lv_color.h **** 
 270:Middlewares/lvgl/src/core/../misc/lv_color.h **** typedef lv_color_t (*lv_color_filter_cb_t)(const struct _lv_color_filter_dsc_t *, lv_color_t, lv_op
 271:Middlewares/lvgl/src/core/../misc/lv_color.h **** 
 272:Middlewares/lvgl/src/core/../misc/lv_color.h **** typedef struct _lv_color_filter_dsc_t {
 273:Middlewares/lvgl/src/core/../misc/lv_color.h ****     lv_color_filter_cb_t filter_cb;
 274:Middlewares/lvgl/src/core/../misc/lv_color.h ****     void * user_data;
 275:Middlewares/lvgl/src/core/../misc/lv_color.h **** }lv_color_filter_dsc_t;
 276:Middlewares/lvgl/src/core/../misc/lv_color.h **** 
 277:Middlewares/lvgl/src/core/../misc/lv_color.h **** 
 278:Middlewares/lvgl/src/core/../misc/lv_color.h **** typedef enum {
 279:Middlewares/lvgl/src/core/../misc/lv_color.h ****     LV_PALETTE_RED,
 280:Middlewares/lvgl/src/core/../misc/lv_color.h ****     LV_PALETTE_PINK,
 281:Middlewares/lvgl/src/core/../misc/lv_color.h ****     LV_PALETTE_PURPLE,
 282:Middlewares/lvgl/src/core/../misc/lv_color.h ****     LV_PALETTE_DEEP_PURPLE,
 283:Middlewares/lvgl/src/core/../misc/lv_color.h ****     LV_PALETTE_INDIGO,
 284:Middlewares/lvgl/src/core/../misc/lv_color.h ****     LV_PALETTE_BLUE,
 285:Middlewares/lvgl/src/core/../misc/lv_color.h ****     LV_PALETTE_LIGHT_BLUE,
 286:Middlewares/lvgl/src/core/../misc/lv_color.h ****     LV_PALETTE_CYAN,
 287:Middlewares/lvgl/src/core/../misc/lv_color.h ****     LV_PALETTE_TEAL,
 288:Middlewares/lvgl/src/core/../misc/lv_color.h ****     LV_PALETTE_GREEN,
 289:Middlewares/lvgl/src/core/../misc/lv_color.h ****     LV_PALETTE_LIGHT_GREEN,
 290:Middlewares/lvgl/src/core/../misc/lv_color.h ****     LV_PALETTE_LIME,
 291:Middlewares/lvgl/src/core/../misc/lv_color.h ****     LV_PALETTE_YELLOW,
 292:Middlewares/lvgl/src/core/../misc/lv_color.h ****     LV_PALETTE_AMBER,
 293:Middlewares/lvgl/src/core/../misc/lv_color.h ****     LV_PALETTE_ORANGE,
 294:Middlewares/lvgl/src/core/../misc/lv_color.h ****     LV_PALETTE_DEEP_ORANGE,
 295:Middlewares/lvgl/src/core/../misc/lv_color.h ****     LV_PALETTE_BROWN,
 296:Middlewares/lvgl/src/core/../misc/lv_color.h ****     LV_PALETTE_BLUE_GREY,
 297:Middlewares/lvgl/src/core/../misc/lv_color.h ****     LV_PALETTE_GREY,
 298:Middlewares/lvgl/src/core/../misc/lv_color.h ****     _LV_PALETTE_LAST,
 299:Middlewares/lvgl/src/core/../misc/lv_color.h ****     LV_PALETTE_NONE = 0xff,
 300:Middlewares/lvgl/src/core/../misc/lv_color.h **** }lv_palette_t;
 301:Middlewares/lvgl/src/core/../misc/lv_color.h **** 
 302:Middlewares/lvgl/src/core/../misc/lv_color.h **** /**********************
 303:Middlewares/lvgl/src/core/../misc/lv_color.h ****  * GLOBAL PROTOTYPES
 304:Middlewares/lvgl/src/core/../misc/lv_color.h ****  **********************/
 305:Middlewares/lvgl/src/core/../misc/lv_color.h **** 
 306:Middlewares/lvgl/src/core/../misc/lv_color.h **** /*In color conversations:
 307:Middlewares/lvgl/src/core/../misc/lv_color.h ****  * - When converting to bigger color type the LSB weight of 1 LSB is calculated
 308:Middlewares/lvgl/src/core/../misc/lv_color.h ****  *   E.g. 16 bit Red has 5 bits
 309:Middlewares/lvgl/src/core/../misc/lv_color.h ****  *         8 bit Red has 3 bits
 310:Middlewares/lvgl/src/core/../misc/lv_color.h ****  *        ----------------------
 311:Middlewares/lvgl/src/core/../misc/lv_color.h ****  *        8 bit red LSB = (2^5 - 1) / (2^3 - 1) = 31 / 7 = 4
 312:Middlewares/lvgl/src/core/../misc/lv_color.h ****  *
 313:Middlewares/lvgl/src/core/../misc/lv_color.h ****  * - When calculating to smaller color type simply shift out the LSBs
 314:Middlewares/lvgl/src/core/../misc/lv_color.h ****  *   E.g.  8 bit Red has 3 bits
 315:Middlewares/lvgl/src/core/../misc/lv_color.h ****  *        16 bit Red has 5 bits
 316:Middlewares/lvgl/src/core/../misc/lv_color.h ****  *        ----------------------
 317:Middlewares/lvgl/src/core/../misc/lv_color.h ****  *         Shift right with 5 - 3 = 2
 318:Middlewares/lvgl/src/core/../misc/lv_color.h ****  */
ARM GAS  /tmp/ccoxlgn6.s 			page 72


 319:Middlewares/lvgl/src/core/../misc/lv_color.h **** static inline uint8_t lv_color_to1(lv_color_t color)
 320:Middlewares/lvgl/src/core/../misc/lv_color.h **** {
 321:Middlewares/lvgl/src/core/../misc/lv_color.h **** #if LV_COLOR_DEPTH == 1
 322:Middlewares/lvgl/src/core/../misc/lv_color.h ****     return color.full;
 323:Middlewares/lvgl/src/core/../misc/lv_color.h **** #elif LV_COLOR_DEPTH == 8
 324:Middlewares/lvgl/src/core/../misc/lv_color.h ****     if((LV_COLOR_GET_R(color) & 0x4) || (LV_COLOR_GET_G(color) & 0x4) || (LV_COLOR_GET_B(color) & 0
 325:Middlewares/lvgl/src/core/../misc/lv_color.h ****         return 1;
 326:Middlewares/lvgl/src/core/../misc/lv_color.h ****     }
 327:Middlewares/lvgl/src/core/../misc/lv_color.h ****     else {
 328:Middlewares/lvgl/src/core/../misc/lv_color.h ****         return 0;
 329:Middlewares/lvgl/src/core/../misc/lv_color.h ****     }
 330:Middlewares/lvgl/src/core/../misc/lv_color.h **** #elif LV_COLOR_DEPTH == 16
 331:Middlewares/lvgl/src/core/../misc/lv_color.h ****     if((LV_COLOR_GET_R(color) & 0x10) || (LV_COLOR_GET_G(color) & 0x20) || (LV_COLOR_GET_B(color) &
 332:Middlewares/lvgl/src/core/../misc/lv_color.h ****         return 1;
 333:Middlewares/lvgl/src/core/../misc/lv_color.h ****     }
 334:Middlewares/lvgl/src/core/../misc/lv_color.h ****     else {
 335:Middlewares/lvgl/src/core/../misc/lv_color.h ****         return 0;
 336:Middlewares/lvgl/src/core/../misc/lv_color.h ****     }
 337:Middlewares/lvgl/src/core/../misc/lv_color.h **** #elif LV_COLOR_DEPTH == 32
 338:Middlewares/lvgl/src/core/../misc/lv_color.h ****     if((LV_COLOR_GET_R(color) & 0x80) || (LV_COLOR_GET_G(color) & 0x80) || (LV_COLOR_GET_B(color) &
 339:Middlewares/lvgl/src/core/../misc/lv_color.h ****         return 1;
 340:Middlewares/lvgl/src/core/../misc/lv_color.h ****     }
 341:Middlewares/lvgl/src/core/../misc/lv_color.h ****     else {
 342:Middlewares/lvgl/src/core/../misc/lv_color.h ****         return 0;
 343:Middlewares/lvgl/src/core/../misc/lv_color.h ****     }
 344:Middlewares/lvgl/src/core/../misc/lv_color.h **** #endif
 345:Middlewares/lvgl/src/core/../misc/lv_color.h **** }
 346:Middlewares/lvgl/src/core/../misc/lv_color.h **** 
 347:Middlewares/lvgl/src/core/../misc/lv_color.h **** static inline uint8_t lv_color_to8(lv_color_t color)
 348:Middlewares/lvgl/src/core/../misc/lv_color.h **** {
 349:Middlewares/lvgl/src/core/../misc/lv_color.h **** #if LV_COLOR_DEPTH == 1
 350:Middlewares/lvgl/src/core/../misc/lv_color.h ****     if(color.full == 0)
 351:Middlewares/lvgl/src/core/../misc/lv_color.h ****         return 0;
 352:Middlewares/lvgl/src/core/../misc/lv_color.h ****     else
 353:Middlewares/lvgl/src/core/../misc/lv_color.h ****         return 0xFF;
 354:Middlewares/lvgl/src/core/../misc/lv_color.h **** #elif LV_COLOR_DEPTH == 8
 355:Middlewares/lvgl/src/core/../misc/lv_color.h ****     return color.full;
 356:Middlewares/lvgl/src/core/../misc/lv_color.h **** #elif LV_COLOR_DEPTH == 16
 357:Middlewares/lvgl/src/core/../misc/lv_color.h ****     lv_color8_t ret;
 358:Middlewares/lvgl/src/core/../misc/lv_color.h ****     LV_COLOR_SET_R8(ret, LV_COLOR_GET_R(color) >> 2); /*5 - 3  = 2*/
 359:Middlewares/lvgl/src/core/../misc/lv_color.h ****     LV_COLOR_SET_G8(ret, LV_COLOR_GET_G(color) >> 3); /*6 - 3  = 3*/
 360:Middlewares/lvgl/src/core/../misc/lv_color.h ****     LV_COLOR_SET_B8(ret, LV_COLOR_GET_B(color) >> 3); /*5 - 2  = 3*/
 361:Middlewares/lvgl/src/core/../misc/lv_color.h ****     return ret.full;
 362:Middlewares/lvgl/src/core/../misc/lv_color.h **** #elif LV_COLOR_DEPTH == 32
 363:Middlewares/lvgl/src/core/../misc/lv_color.h ****     lv_color8_t ret;
 364:Middlewares/lvgl/src/core/../misc/lv_color.h ****     LV_COLOR_SET_R8(ret, LV_COLOR_GET_R(color) >> 5); /*8 - 3  = 5*/
 365:Middlewares/lvgl/src/core/../misc/lv_color.h ****     LV_COLOR_SET_G8(ret, LV_COLOR_GET_G(color) >> 5); /*8 - 3  = 5*/
 366:Middlewares/lvgl/src/core/../misc/lv_color.h ****     LV_COLOR_SET_B8(ret, LV_COLOR_GET_B(color) >> 6); /*8 - 2  = 6*/
 367:Middlewares/lvgl/src/core/../misc/lv_color.h ****     return ret.full;
 368:Middlewares/lvgl/src/core/../misc/lv_color.h **** #endif
 369:Middlewares/lvgl/src/core/../misc/lv_color.h **** }
 370:Middlewares/lvgl/src/core/../misc/lv_color.h **** 
 371:Middlewares/lvgl/src/core/../misc/lv_color.h **** static inline uint16_t lv_color_to16(lv_color_t color)
 372:Middlewares/lvgl/src/core/../misc/lv_color.h **** {
 373:Middlewares/lvgl/src/core/../misc/lv_color.h **** #if LV_COLOR_DEPTH == 1
 374:Middlewares/lvgl/src/core/../misc/lv_color.h ****     if(color.full == 0)
 375:Middlewares/lvgl/src/core/../misc/lv_color.h ****         return 0;
ARM GAS  /tmp/ccoxlgn6.s 			page 73


 376:Middlewares/lvgl/src/core/../misc/lv_color.h ****     else
 377:Middlewares/lvgl/src/core/../misc/lv_color.h ****         return 0xFFFF;
 378:Middlewares/lvgl/src/core/../misc/lv_color.h **** #elif LV_COLOR_DEPTH == 8
 379:Middlewares/lvgl/src/core/../misc/lv_color.h ****     lv_color16_t ret;
 380:Middlewares/lvgl/src/core/../misc/lv_color.h ****     LV_COLOR_SET_R16(ret, LV_COLOR_GET_R(color) * 4);  /*(2^5 - 1)/(2^3 - 1) = 31/7 = 4*/
 381:Middlewares/lvgl/src/core/../misc/lv_color.h ****     LV_COLOR_SET_G16(ret, LV_COLOR_GET_G(color) * 9);  /*(2^6 - 1)/(2^3 - 1) = 63/7 = 9*/
 382:Middlewares/lvgl/src/core/../misc/lv_color.h ****     LV_COLOR_SET_B16(ret, LV_COLOR_GET_B(color) * 10); /*(2^5 - 1)/(2^2 - 1) = 31/3 = 10*/
 383:Middlewares/lvgl/src/core/../misc/lv_color.h ****     return ret.full;
 384:Middlewares/lvgl/src/core/../misc/lv_color.h **** #elif LV_COLOR_DEPTH == 16
 385:Middlewares/lvgl/src/core/../misc/lv_color.h ****     return color.full;
 386:Middlewares/lvgl/src/core/../misc/lv_color.h **** #elif LV_COLOR_DEPTH == 32
 387:Middlewares/lvgl/src/core/../misc/lv_color.h ****     lv_color16_t ret;
 388:Middlewares/lvgl/src/core/../misc/lv_color.h ****     LV_COLOR_SET_R16(ret, LV_COLOR_GET_R(color) >> 3); /*8 - 5  = 3*/
 389:Middlewares/lvgl/src/core/../misc/lv_color.h ****     LV_COLOR_SET_G16(ret, LV_COLOR_GET_G(color) >> 2); /*8 - 6  = 2*/
 390:Middlewares/lvgl/src/core/../misc/lv_color.h ****     LV_COLOR_SET_B16(ret, LV_COLOR_GET_B(color) >> 3); /*8 - 5  = 3*/
 391:Middlewares/lvgl/src/core/../misc/lv_color.h ****     return ret.full;
 392:Middlewares/lvgl/src/core/../misc/lv_color.h **** #endif
 393:Middlewares/lvgl/src/core/../misc/lv_color.h **** }
 394:Middlewares/lvgl/src/core/../misc/lv_color.h **** 
 395:Middlewares/lvgl/src/core/../misc/lv_color.h **** static inline uint32_t lv_color_to32(lv_color_t color)
 396:Middlewares/lvgl/src/core/../misc/lv_color.h **** {
 397:Middlewares/lvgl/src/core/../misc/lv_color.h **** #if LV_COLOR_DEPTH == 1
 398:Middlewares/lvgl/src/core/../misc/lv_color.h ****     if(color.full == 0)
 399:Middlewares/lvgl/src/core/../misc/lv_color.h ****         return 0xFF000000;
 400:Middlewares/lvgl/src/core/../misc/lv_color.h ****     else
 401:Middlewares/lvgl/src/core/../misc/lv_color.h ****         return 0xFFFFFFFF;
 402:Middlewares/lvgl/src/core/../misc/lv_color.h **** #elif LV_COLOR_DEPTH == 8
 403:Middlewares/lvgl/src/core/../misc/lv_color.h ****     lv_color32_t ret;
 404:Middlewares/lvgl/src/core/../misc/lv_color.h ****     LV_COLOR_SET_R32(ret, LV_COLOR_GET_R(color) * 36); /*(2^8 - 1)/(2^3 - 1) = 255/7 = 36*/
 405:Middlewares/lvgl/src/core/../misc/lv_color.h ****     LV_COLOR_SET_G32(ret, LV_COLOR_GET_G(color) * 36); /*(2^8 - 1)/(2^3 - 1) = 255/7 = 36*/
 406:Middlewares/lvgl/src/core/../misc/lv_color.h ****     LV_COLOR_SET_B32(ret, LV_COLOR_GET_B(color) * 85); /*(2^8 - 1)/(2^2 - 1) = 255/3 = 85*/
 407:Middlewares/lvgl/src/core/../misc/lv_color.h ****     LV_COLOR_SET_A32(ret, 0xFF);
 408:Middlewares/lvgl/src/core/../misc/lv_color.h ****     return ret.full;
 409:Middlewares/lvgl/src/core/../misc/lv_color.h **** #elif LV_COLOR_DEPTH == 16
 410:Middlewares/lvgl/src/core/../misc/lv_color.h ****     /**
 411:Middlewares/lvgl/src/core/../misc/lv_color.h ****      * The floating point math for conversion is:
 412:Middlewares/lvgl/src/core/../misc/lv_color.h ****      *  valueto = valuefrom * ( (2^bitsto - 1) / (float)(2^bitsfrom - 1) )
 413:Middlewares/lvgl/src/core/../misc/lv_color.h ****      * The faster integer math for conversion is:
 414:Middlewares/lvgl/src/core/../misc/lv_color.h ****      *  valueto = ( valuefrom * multiplier + adder ) >> divisor
 415:Middlewares/lvgl/src/core/../misc/lv_color.h ****      *   multiplier = FLOOR( ( (2^bitsto - 1) << divisor ) / (float)(2^bitsfrom - 1) )
 416:Middlewares/lvgl/src/core/../misc/lv_color.h ****      *
 417:Middlewares/lvgl/src/core/../misc/lv_color.h ****      * Find the first divisor where ( adder >> divisor ) <= 0
 418:Middlewares/lvgl/src/core/../misc/lv_color.h ****      *
 419:Middlewares/lvgl/src/core/../misc/lv_color.h ****      * 5-bit to 8-bit: ( 31 * multiplier + adder ) >> divisor = 255
 420:Middlewares/lvgl/src/core/../misc/lv_color.h ****      * divisor  multiplier  adder  min (0)  max (31)
 421:Middlewares/lvgl/src/core/../misc/lv_color.h ****      *       0           8      7        7       255
 422:Middlewares/lvgl/src/core/../misc/lv_color.h ****      *       1          16     14        7       255
 423:Middlewares/lvgl/src/core/../misc/lv_color.h ****      *       2          32     28        7       255
 424:Middlewares/lvgl/src/core/../misc/lv_color.h ****      *       3          65     25        3       255
 425:Middlewares/lvgl/src/core/../misc/lv_color.h ****      *       4         131     19        1       255
 426:Middlewares/lvgl/src/core/../misc/lv_color.h ****      *       5         263      7        0       255
 427:Middlewares/lvgl/src/core/../misc/lv_color.h ****      *
 428:Middlewares/lvgl/src/core/../misc/lv_color.h ****      * 6-bit to 8-bit: 255 = ( 63 * multiplier + adder ) >> divisor
 429:Middlewares/lvgl/src/core/../misc/lv_color.h ****      * divisor  multiplier  adder  min (0)  max (63)
 430:Middlewares/lvgl/src/core/../misc/lv_color.h ****      *       0           4      3        3       255
 431:Middlewares/lvgl/src/core/../misc/lv_color.h ****      *       1           8      6        3       255
 432:Middlewares/lvgl/src/core/../misc/lv_color.h ****      *       2          16     12        3       255
ARM GAS  /tmp/ccoxlgn6.s 			page 74


 433:Middlewares/lvgl/src/core/../misc/lv_color.h ****      *       3          32     24        3       255
 434:Middlewares/lvgl/src/core/../misc/lv_color.h ****      *       4          64     48        3       255
 435:Middlewares/lvgl/src/core/../misc/lv_color.h ****      *       5         129     33        1       255
 436:Middlewares/lvgl/src/core/../misc/lv_color.h ****      *       6         259      3        0       255
 437:Middlewares/lvgl/src/core/../misc/lv_color.h ****      */
 438:Middlewares/lvgl/src/core/../misc/lv_color.h **** 
 439:Middlewares/lvgl/src/core/../misc/lv_color.h ****     lv_color32_t ret;
 440:Middlewares/lvgl/src/core/../misc/lv_color.h ****     LV_COLOR_SET_R32(ret, (LV_COLOR_GET_R(color) * 263 + 7) >> 5);
 441:Middlewares/lvgl/src/core/../misc/lv_color.h ****     LV_COLOR_SET_G32(ret, (LV_COLOR_GET_G(color) * 259 + 3) >> 6);
 442:Middlewares/lvgl/src/core/../misc/lv_color.h ****     LV_COLOR_SET_B32(ret, (LV_COLOR_GET_B(color) * 263 + 7) >> 5);
 443:Middlewares/lvgl/src/core/../misc/lv_color.h ****     LV_COLOR_SET_A32(ret, 0xFF);
 444:Middlewares/lvgl/src/core/../misc/lv_color.h ****     return ret.full;
 445:Middlewares/lvgl/src/core/../misc/lv_color.h **** #elif LV_COLOR_DEPTH == 32
 446:Middlewares/lvgl/src/core/../misc/lv_color.h ****     return color.full;
 447:Middlewares/lvgl/src/core/../misc/lv_color.h **** #endif
 448:Middlewares/lvgl/src/core/../misc/lv_color.h **** }
 449:Middlewares/lvgl/src/core/../misc/lv_color.h **** 
 450:Middlewares/lvgl/src/core/../misc/lv_color.h **** //! @cond Doxygen_Suppress
 451:Middlewares/lvgl/src/core/../misc/lv_color.h **** 
 452:Middlewares/lvgl/src/core/../misc/lv_color.h **** /**
 453:Middlewares/lvgl/src/core/../misc/lv_color.h ****  * Mix two colors with a given ratio.
 454:Middlewares/lvgl/src/core/../misc/lv_color.h ****  * @param c1 the first color to mix (usually the foreground)
 455:Middlewares/lvgl/src/core/../misc/lv_color.h ****  * @param c2 the second color to mix (usually the background)
 456:Middlewares/lvgl/src/core/../misc/lv_color.h ****  * @param mix The ratio of the colors. 0: full `c2`, 255: full `c1`, 127: half `c1` and half`c2`
 457:Middlewares/lvgl/src/core/../misc/lv_color.h ****  * @return the mixed color
 458:Middlewares/lvgl/src/core/../misc/lv_color.h ****  */
 459:Middlewares/lvgl/src/core/../misc/lv_color.h **** LV_ATTRIBUTE_FAST_MEM static inline lv_color_t lv_color_mix(lv_color_t c1, lv_color_t c2, uint8_t m
 2168              		.loc 3 459 48 is_stmt 1 view .LVU624
 2169              	.LBB81:
 460:Middlewares/lvgl/src/core/../misc/lv_color.h **** {
 461:Middlewares/lvgl/src/core/../misc/lv_color.h ****     lv_color_t ret;
 2170              		.loc 3 461 5 view .LVU625
 462:Middlewares/lvgl/src/core/../misc/lv_color.h **** #if LV_COLOR_DEPTH != 1
 463:Middlewares/lvgl/src/core/../misc/lv_color.h ****     /*LV_COLOR_DEPTH == 8, 16 or 32*/
 464:Middlewares/lvgl/src/core/../misc/lv_color.h ****     LV_COLOR_SET_R(ret, LV_UDIV255((uint16_t) LV_COLOR_GET_R(c1) * mix + LV_COLOR_GET_R(c2) *
 2171              		.loc 3 464 5 view .LVU626
 2172              		.loc 3 464 5 is_stmt 0 view .LVU627
 2173 011e CEF3C42C 		ubfx	ip, lr, #11, #5
 2174              	.LVL205:
 2175              		.loc 3 464 5 view .LVU628
 2176 0122 C8F3C420 		ubfx	r0, r8, #11, #5
 2177 0126 C7F1FF02 		rsb	r2, r7, #255
 2178 012a 02FB00F0 		mul	r0, r2, r0
 2179 012e 07FB0C00 		mla	r0, r7, ip, r0
 2180 0132 8030     		adds	r0, r0, #128
 2181 0134 00EB002C 		add	ip, r0, r0, lsl #8
 2182 0138 00EBCC10 		add	r0, r0, ip, lsl #7
 2183 013c C0F3C450 		ubfx	r0, r0, #23, #5
 2184 0140 4FF0000C 		mov	ip, #0	@ movhi
 2185              		.loc 3 464 5 view .LVU629
 2186 0144 60F3CF2C 		bfi	ip, r0, #11, #5
 2187              	.LVL206:
 465:Middlewares/lvgl/src/core/../misc/lv_color.h ****                                         (255 - mix) + LV_COLOR_MIX_ROUND_OFS));
 466:Middlewares/lvgl/src/core/../misc/lv_color.h ****     LV_COLOR_SET_G(ret, LV_UDIV255((uint16_t) LV_COLOR_GET_G(c1) * mix + LV_COLOR_GET_G(c2) *
 2188              		.loc 3 466 5 is_stmt 1 view .LVU630
 2189 0148 CEF34519 		ubfx	r9, lr, #5, #6
 2190 014c C8F34510 		ubfx	r0, r8, #5, #6
ARM GAS  /tmp/ccoxlgn6.s 			page 75


 2191 0150 02FB00F0 		mul	r0, r2, r0
 2192 0154 09FB0700 		mla	r0, r9, r7, r0
 2193 0158 8030     		adds	r0, r0, #128
 2194 015a 00EB0029 		add	r9, r0, r0, lsl #8
 2195 015e 00EBC910 		add	r0, r0, r9, lsl #7
 2196 0162 C0F3C550 		ubfx	r0, r0, #23, #6
 2197 0166 60F34A1C 		bfi	ip, r0, #5, #6
 467:Middlewares/lvgl/src/core/../misc/lv_color.h ****                                         (255 - mix) + LV_COLOR_MIX_ROUND_OFS));
 468:Middlewares/lvgl/src/core/../misc/lv_color.h ****     LV_COLOR_SET_B(ret, LV_UDIV255((uint16_t) LV_COLOR_GET_B(c1) * mix + LV_COLOR_GET_B(c2) *
 2198              		.loc 3 468 5 view .LVU631
 2199 016a 0EF01F0E 		and	lr, lr, #31
 2200              	.LVL207:
 2201              		.loc 3 468 5 is_stmt 0 view .LVU632
 2202 016e 08F01F08 		and	r8, r8, #31
 2203              	.LVL208:
 2204              		.loc 3 468 5 view .LVU633
 2205 0172 08FB02F2 		mul	r2, r8, r2
 2206 0176 0EFB0722 		mla	r2, lr, r7, r2
 2207 017a 8032     		adds	r2, r2, #128
 2208 017c 02EB0220 		add	r0, r2, r2, lsl #8
 2209 0180 02EBC012 		add	r2, r2, r0, lsl #7
 2210 0184 C2F3C452 		ubfx	r2, r2, #23, #5
 2211 0188 62F3040C 		bfi	ip, r2, #0, #5
 469:Middlewares/lvgl/src/core/../misc/lv_color.h ****                                         (255 - mix) + LV_COLOR_MIX_ROUND_OFS));
 470:Middlewares/lvgl/src/core/../misc/lv_color.h ****     LV_COLOR_SET_A(ret, 0xFF);
 2212              		.loc 3 470 5 is_stmt 1 view .LVU634
 2213              		.loc 3 470 5 view .LVU635
 2214              		.loc 3 470 5 view .LVU636
 471:Middlewares/lvgl/src/core/../misc/lv_color.h **** #else
 472:Middlewares/lvgl/src/core/../misc/lv_color.h ****     /*LV_COLOR_DEPTH == 1*/
 473:Middlewares/lvgl/src/core/../misc/lv_color.h ****     ret.full = mix > LV_OPA_50 ? c1.full : c2.full;
 474:Middlewares/lvgl/src/core/../misc/lv_color.h **** #endif
 475:Middlewares/lvgl/src/core/../misc/lv_color.h **** 
 476:Middlewares/lvgl/src/core/../misc/lv_color.h ****     return ret;
 2215              		.loc 3 476 5 view .LVU637
 2216 018c 0027     		movs	r7, #0
 2217              	.LVL209:
 2218              		.loc 3 476 5 is_stmt 0 view .LVU638
 2219 018e 6CF30F07 		bfi	r7, ip, #0, #16
 2220              	.LVL210:
 2221              		.loc 3 476 5 view .LVU639
 2222 0192 93E7     		b	.L138
 2223              	.LVL211:
 2224              	.L131:
 2225              		.loc 3 476 5 view .LVU640
 2226              	.LBE81:
 2227              	.LBE80:
 723:Middlewares/lvgl/src/core/lv_obj_style.c ****                 else if(v == 255) value_final.num = tr->end_value.num;
 2228              		.loc 1 723 17 is_stmt 1 view .LVU641
 723:Middlewares/lvgl/src/core/lv_obj_style.c ****                 else if(v == 255) value_final.num = tr->end_value.num;
 2229              		.loc 1 723 19 is_stmt 0 view .LVU642
 2230 0194 0FB9     		cbnz	r7, .L145
 723:Middlewares/lvgl/src/core/lv_obj_style.c ****                 else if(v == 255) value_final.num = tr->end_value.num;
 2231              		.loc 1 723 28 is_stmt 1 discriminator 1 view .LVU643
 723:Middlewares/lvgl/src/core/lv_obj_style.c ****                 else if(v == 255) value_final.num = tr->end_value.num;
 2232              		.loc 1 723 61 is_stmt 0 discriminator 1 view .LVU644
 2233 0196 E768     		ldr	r7, [r4, #12]
ARM GAS  /tmp/ccoxlgn6.s 			page 76


 2234              	.LVL212:
 723:Middlewares/lvgl/src/core/lv_obj_style.c ****                 else if(v == 255) value_final.num = tr->end_value.num;
 2235              		.loc 1 723 61 discriminator 1 view .LVU645
 2236 0198 90E7     		b	.L138
 2237              	.LVL213:
 2238              	.L145:
 724:Middlewares/lvgl/src/core/lv_obj_style.c ****                 else value_final.num = tr->start_value.num + ((int32_t)((int32_t)(tr->end_value.num
 2239              		.loc 1 724 22 is_stmt 1 view .LVU646
 724:Middlewares/lvgl/src/core/lv_obj_style.c ****                 else value_final.num = tr->start_value.num + ((int32_t)((int32_t)(tr->end_value.num
 2240              		.loc 1 724 24 is_stmt 0 view .LVU647
 2241 019a FF2F     		cmp	r7, #255
 2242 019c 07D0     		beq	.L159
 725:Middlewares/lvgl/src/core/lv_obj_style.c ****                 break;
 2243              		.loc 1 725 22 is_stmt 1 view .LVU648
 725:Middlewares/lvgl/src/core/lv_obj_style.c ****                 break;
 2244              		.loc 1 725 55 is_stmt 0 view .LVU649
 2245 019e E068     		ldr	r0, [r4, #12]
 725:Middlewares/lvgl/src/core/lv_obj_style.c ****                 break;
 2246              		.loc 1 725 96 view .LVU650
 2247 01a0 2269     		ldr	r2, [r4, #16]
 725:Middlewares/lvgl/src/core/lv_obj_style.c ****                 break;
 2248              		.loc 1 725 101 view .LVU651
 2249 01a2 121A     		subs	r2, r2, r0
 725:Middlewares/lvgl/src/core/lv_obj_style.c ****                 break;
 2250              		.loc 1 725 63 view .LVU652
 2251 01a4 02FB07F7 		mul	r7, r2, r7
 2252              	.LVL214:
 725:Middlewares/lvgl/src/core/lv_obj_style.c ****                 break;
 2253              		.loc 1 725 60 view .LVU653
 2254 01a8 00EB2727 		add	r7, r0, r7, asr #8
 725:Middlewares/lvgl/src/core/lv_obj_style.c ****                 break;
 2255              		.loc 1 725 60 view .LVU654
 2256 01ac 86E7     		b	.L138
 2257              	.LVL215:
 2258              	.L159:
 724:Middlewares/lvgl/src/core/lv_obj_style.c ****                 else value_final.num = tr->start_value.num + ((int32_t)((int32_t)(tr->end_value.num
 2259              		.loc 1 724 35 is_stmt 1 discriminator 1 view .LVU655
 724:Middlewares/lvgl/src/core/lv_obj_style.c ****                 else value_final.num = tr->start_value.num + ((int32_t)((int32_t)(tr->end_value.num
 2260              		.loc 1 724 66 is_stmt 0 discriminator 1 view .LVU656
 2261 01ae 2769     		ldr	r7, [r4, #16]
 2262              	.LVL216:
 724:Middlewares/lvgl/src/core/lv_obj_style.c ****                 else value_final.num = tr->start_value.num + ((int32_t)((int32_t)(tr->end_value.num
 2263              		.loc 1 724 66 discriminator 1 view .LVU657
 2264 01b0 84E7     		b	.L138
 2265              	.LVL217:
 2266              	.L155:
 732:Middlewares/lvgl/src/core/lv_obj_style.c ****                 refr = false;
 2267              		.loc 1 732 99 discriminator 1 view .LVU658
 2268 01b2 10D0     		beq	.L153
 730:Middlewares/lvgl/src/core/lv_obj_style.c ****         if(lv_style_get_prop(obj->styles[i].style, tr->prop, &old_value)) {
 2269              		.loc 1 730 14 view .LVU659
 2270 01b4 4FF00108 		mov	r8, #1
 2271 01b8 01E0     		b	.L147
 2272              	.L151:
 2273 01ba 4FF00108 		mov	r8, #1
 2274              	.L147:
 2275              	.LVL218:
ARM GAS  /tmp/ccoxlgn6.s 			page 77


 736:Middlewares/lvgl/src/core/lv_obj_style.c ****         if (refr) lv_obj_refresh_style(tr->obj, tr->selector, tr->prop);
 2276              		.loc 1 736 9 is_stmt 1 view .LVU660
 736:Middlewares/lvgl/src/core/lv_obj_style.c ****         if (refr) lv_obj_refresh_style(tr->obj, tr->selector, tr->prop);
 2277              		.loc 1 736 30 is_stmt 0 view .LVU661
 2278 01be EB68     		ldr	r3, [r5, #12]
 736:Middlewares/lvgl/src/core/lv_obj_style.c ****         if (refr) lv_obj_refresh_style(tr->obj, tr->selector, tr->prop);
 2279              		.loc 1 736 9 view .LVU662
 2280 01c0 3A46     		mov	r2, r7
 2281 01c2 A188     		ldrh	r1, [r4, #4]
 2282 01c4 9859     		ldr	r0, [r3, r6]
 2283 01c6 FFF7FEFF 		bl	lv_style_set_prop
 2284              	.LVL219:
 737:Middlewares/lvgl/src/core/lv_obj_style.c ****         break;
 2285              		.loc 1 737 9 is_stmt 1 view .LVU663
 737:Middlewares/lvgl/src/core/lv_obj_style.c ****         break;
 2286              		.loc 1 737 12 is_stmt 0 view .LVU664
 2287 01ca B8F1000F 		cmp	r8, #0
 2288 01ce 05D1     		bne	.L160
 2289              	.LVL220:
 2290              	.L126:
 737:Middlewares/lvgl/src/core/lv_obj_style.c ****         break;
 2291              		.loc 1 737 12 view .LVU665
 2292              	.LBE82:
 742:Middlewares/lvgl/src/core/lv_obj_style.c **** 
 2293              		.loc 1 742 1 view .LVU666
 2294 01d0 03B0     		add	sp, sp, #12
 2295              	.LCFI22:
 2296              		.cfi_remember_state
 2297              		.cfi_def_cfa_offset 28
 2298              		@ sp needed
 2299 01d2 BDE8F083 		pop	{r4, r5, r6, r7, r8, r9, pc}
 2300              	.LVL221:
 2301              	.L153:
 2302              	.LCFI23:
 2303              		.cfi_restore_state
 2304              	.LBB83:
 733:Middlewares/lvgl/src/core/lv_obj_style.c ****             }
 2305              		.loc 1 733 22 view .LVU667
 2306 01d6 4FF00008 		mov	r8, #0
 2307 01da F0E7     		b	.L147
 2308              	.LVL222:
 2309              	.L160:
 737:Middlewares/lvgl/src/core/lv_obj_style.c ****         break;
 2310              		.loc 1 737 19 is_stmt 1 discriminator 1 view .LVU668
 2311 01dc A288     		ldrh	r2, [r4, #4]
 2312 01de A168     		ldr	r1, [r4, #8]
 2313 01e0 2068     		ldr	r0, [r4]
 2314 01e2 FFF7FEFF 		bl	lv_obj_refresh_style
 2315              	.LVL223:
 738:Middlewares/lvgl/src/core/lv_obj_style.c **** 
 2316              		.loc 1 738 9 discriminator 1 view .LVU669
 2317 01e6 F3E7     		b	.L126
 2318              	.LBE83:
 2319              		.cfi_endproc
 2320              	.LFE176:
 2322              		.section	.text.lv_obj_remove_style,"ax",%progbits
 2323              		.align	1
ARM GAS  /tmp/ccoxlgn6.s 			page 78


 2324              		.global	lv_obj_remove_style
 2325              		.syntax unified
 2326              		.thumb
 2327              		.thumb_func
 2328              		.fpu fpv5-d16
 2330              	lv_obj_remove_style:
 2331              	.LVL224:
 2332              	.LFB155:
 107:Middlewares/lvgl/src/core/lv_obj_style.c ****     lv_state_t state = lv_obj_style_get_selector_state(selector);
 2333              		.loc 1 107 1 view -0
 2334              		.cfi_startproc
 2335              		@ args = 0, pretend = 0, frame = 16
 2336              		@ frame_needed = 0, uses_anonymous_args = 0
 107:Middlewares/lvgl/src/core/lv_obj_style.c ****     lv_state_t state = lv_obj_style_get_selector_state(selector);
 2337              		.loc 1 107 1 is_stmt 0 view .LVU671
 2338 0000 2DE9F04F 		push	{r4, r5, r6, r7, r8, r9, r10, fp, lr}
 2339              	.LCFI24:
 2340              		.cfi_def_cfa_offset 36
 2341              		.cfi_offset 4, -36
 2342              		.cfi_offset 5, -32
 2343              		.cfi_offset 6, -28
 2344              		.cfi_offset 7, -24
 2345              		.cfi_offset 8, -20
 2346              		.cfi_offset 9, -16
 2347              		.cfi_offset 10, -12
 2348              		.cfi_offset 11, -8
 2349              		.cfi_offset 14, -4
 2350 0004 85B0     		sub	sp, sp, #20
 2351              	.LCFI25:
 2352              		.cfi_def_cfa_offset 56
 2353 0006 0446     		mov	r4, r0
 2354 0008 0E46     		mov	r6, r1
 2355 000a 0191     		str	r1, [sp, #4]
 2356 000c 1546     		mov	r5, r2
 108:Middlewares/lvgl/src/core/lv_obj_style.c ****     lv_part_t part = lv_obj_style_get_selector_part(selector);
 2357              		.loc 1 108 5 is_stmt 1 view .LVU672
 108:Middlewares/lvgl/src/core/lv_obj_style.c ****     lv_part_t part = lv_obj_style_get_selector_part(selector);
 2358              		.loc 1 108 24 is_stmt 0 view .LVU673
 2359 000e 1046     		mov	r0, r2
 2360              	.LVL225:
 108:Middlewares/lvgl/src/core/lv_obj_style.c ****     lv_part_t part = lv_obj_style_get_selector_part(selector);
 2361              		.loc 1 108 24 view .LVU674
 2362 0010 FFF7FEFF 		bl	lv_obj_style_get_selector_state
 2363              	.LVL226:
 108:Middlewares/lvgl/src/core/lv_obj_style.c ****     lv_part_t part = lv_obj_style_get_selector_part(selector);
 2364              		.loc 1 108 24 view .LVU675
 2365 0014 8046     		mov	r8, r0
 2366              	.LVL227:
 109:Middlewares/lvgl/src/core/lv_obj_style.c ****     lv_style_prop_t prop = LV_STYLE_PROP_ANY;
 2367              		.loc 1 109 5 is_stmt 1 view .LVU676
 109:Middlewares/lvgl/src/core/lv_obj_style.c ****     lv_style_prop_t prop = LV_STYLE_PROP_ANY;
 2368              		.loc 1 109 22 is_stmt 0 view .LVU677
 2369 0016 2846     		mov	r0, r5
 2370 0018 FFF7FEFF 		bl	lv_obj_style_get_selector_part
 2371              	.LVL228:
 2372 001c 8246     		mov	r10, r0
 2373              	.LVL229:
ARM GAS  /tmp/ccoxlgn6.s 			page 79


 110:Middlewares/lvgl/src/core/lv_obj_style.c ****     if(style && style->prop_cnt == 0) prop = LV_STYLE_PROP_INV;
 2374              		.loc 1 110 5 is_stmt 1 view .LVU678
 111:Middlewares/lvgl/src/core/lv_obj_style.c **** 
 2375              		.loc 1 111 5 view .LVU679
 111:Middlewares/lvgl/src/core/lv_obj_style.c **** 
 2376              		.loc 1 111 7 is_stmt 0 view .LVU680
 2377 001e 46B1     		cbz	r6, .L173
 111:Middlewares/lvgl/src/core/lv_obj_style.c **** 
 2378              		.loc 1 111 22 discriminator 1 view .LVU681
 2379 0020 F379     		ldrb	r3, [r6, #7]	@ zero_extendqisi2
 111:Middlewares/lvgl/src/core/lv_obj_style.c **** 
 2380              		.loc 1 111 14 discriminator 1 view .LVU682
 2381 0022 53B1     		cbz	r3, .L174
 110:Middlewares/lvgl/src/core/lv_obj_style.c ****     if(style && style->prop_cnt == 0) prop = LV_STYLE_PROP_INV;
 2382              		.loc 1 110 21 view .LVU683
 2383 0024 4FF6FF73 		movw	r3, #65535
 2384 0028 0393     		str	r3, [sp, #12]
 2385              	.L162:
 2386              	.LVL230:
 113:Middlewares/lvgl/src/core/lv_obj_style.c ****     bool deleted = false;
 2387              		.loc 1 113 5 is_stmt 1 view .LVU684
 114:Middlewares/lvgl/src/core/lv_obj_style.c ****     while(i <  obj->style_cnt) {
 2388              		.loc 1 114 5 view .LVU685
 115:Middlewares/lvgl/src/core/lv_obj_style.c ****         lv_state_t state_act = lv_obj_style_get_selector_state(obj->styles[i].selector);
 2389              		.loc 1 115 5 view .LVU686
 114:Middlewares/lvgl/src/core/lv_obj_style.c ****     while(i <  obj->style_cnt) {
 2390              		.loc 1 114 10 is_stmt 0 view .LVU687
 2391 002a 0023     		movs	r3, #0
 2392 002c 0293     		str	r3, [sp, #8]
 113:Middlewares/lvgl/src/core/lv_obj_style.c ****     bool deleted = false;
 2393              		.loc 1 113 14 view .LVU688
 2394 002e 1D46     		mov	r5, r3
 2395              	.LVL231:
 115:Middlewares/lvgl/src/core/lv_obj_style.c ****         lv_state_t state_act = lv_obj_style_get_selector_state(obj->styles[i].selector);
 2396              		.loc 1 115 10 view .LVU689
 2397 0030 07E0     		b	.L163
 2398              	.LVL232:
 2399              	.L173:
 110:Middlewares/lvgl/src/core/lv_obj_style.c ****     if(style && style->prop_cnt == 0) prop = LV_STYLE_PROP_INV;
 2400              		.loc 1 110 21 view .LVU690
 2401 0032 4FF6FF73 		movw	r3, #65535
 2402 0036 0393     		str	r3, [sp, #12]
 2403 0038 F7E7     		b	.L162
 2404              	.L174:
 111:Middlewares/lvgl/src/core/lv_obj_style.c **** 
 2405              		.loc 1 111 44 view .LVU691
 2406 003a 0023     		movs	r3, #0
 2407 003c 0393     		str	r3, [sp, #12]
 2408 003e F4E7     		b	.L162
 2409              	.LVL233:
 2410              	.L164:
 2411              	.LBB84:
 122:Middlewares/lvgl/src/core/lv_obj_style.c ****             continue;
 2412              		.loc 1 122 13 is_stmt 1 view .LVU692
 122:Middlewares/lvgl/src/core/lv_obj_style.c ****             continue;
 2413              		.loc 1 122 14 is_stmt 0 view .LVU693
 2414 0040 0135     		adds	r5, r5, #1
ARM GAS  /tmp/ccoxlgn6.s 			page 80


 2415              	.LVL234:
 123:Middlewares/lvgl/src/core/lv_obj_style.c ****         }
 2416              		.loc 1 123 13 is_stmt 1 view .LVU694
 2417              	.L163:
 123:Middlewares/lvgl/src/core/lv_obj_style.c ****         }
 2418              		.loc 1 123 13 is_stmt 0 view .LVU695
 2419              	.LBE84:
 115:Middlewares/lvgl/src/core/lv_obj_style.c ****         lv_state_t state_act = lv_obj_style_get_selector_state(obj->styles[i].selector);
 2420              		.loc 1 115 10 is_stmt 1 view .LVU696
 115:Middlewares/lvgl/src/core/lv_obj_style.c ****         lv_state_t state_act = lv_obj_style_get_selector_state(obj->styles[i].selector);
 2421              		.loc 1 115 19 is_stmt 0 view .LVU697
 2422 0042 638C     		ldrh	r3, [r4, #34]
 2423 0044 C3F3C503 		ubfx	r3, r3, #3, #6
 115:Middlewares/lvgl/src/core/lv_obj_style.c ****         lv_state_t state_act = lv_obj_style_get_selector_state(obj->styles[i].selector);
 2424              		.loc 1 115 10 view .LVU698
 2425 0048 AB42     		cmp	r3, r5
 2426 004a 64D9     		bls	.L176
 2427              	.LBB85:
 116:Middlewares/lvgl/src/core/lv_obj_style.c ****         lv_part_t part_act = lv_obj_style_get_selector_part(obj->styles[i].selector);
 2428              		.loc 1 116 9 is_stmt 1 view .LVU699
 116:Middlewares/lvgl/src/core/lv_obj_style.c ****         lv_part_t part_act = lv_obj_style_get_selector_part(obj->styles[i].selector);
 2429              		.loc 1 116 67 is_stmt 0 view .LVU700
 2430 004c E768     		ldr	r7, [r4, #12]
 116:Middlewares/lvgl/src/core/lv_obj_style.c ****         lv_part_t part_act = lv_obj_style_get_selector_part(obj->styles[i].selector);
 2431              		.loc 1 116 75 view .LVU701
 2432 004e 4FEAC50B 		lsl	fp, r5, #3
 2433 0052 07EBC509 		add	r9, r7, r5, lsl #3
 116:Middlewares/lvgl/src/core/lv_obj_style.c ****         lv_part_t part_act = lv_obj_style_get_selector_part(obj->styles[i].selector);
 2434              		.loc 1 116 78 view .LVU702
 2435 0056 D9F80460 		ldr	r6, [r9, #4]
 2436 005a C6F31706 		ubfx	r6, r6, #0, #24
 116:Middlewares/lvgl/src/core/lv_obj_style.c ****         lv_part_t part_act = lv_obj_style_get_selector_part(obj->styles[i].selector);
 2437              		.loc 1 116 32 view .LVU703
 2438 005e 3046     		mov	r0, r6
 2439 0060 FFF7FEFF 		bl	lv_obj_style_get_selector_state
 2440              	.LVL235:
 2441 0064 0090     		str	r0, [sp]
 2442              	.LVL236:
 117:Middlewares/lvgl/src/core/lv_obj_style.c ****         if((state != LV_STATE_ANY && state_act != state) ||
 2443              		.loc 1 117 9 is_stmt 1 view .LVU704
 117:Middlewares/lvgl/src/core/lv_obj_style.c ****         if((state != LV_STATE_ANY && state_act != state) ||
 2444              		.loc 1 117 30 is_stmt 0 view .LVU705
 2445 0066 3046     		mov	r0, r6
 2446 0068 FFF7FEFF 		bl	lv_obj_style_get_selector_part
 2447              	.LVL237:
 118:Middlewares/lvgl/src/core/lv_obj_style.c ****            (part != LV_PART_ANY && part_act != part) ||
 2448              		.loc 1 118 9 is_stmt 1 view .LVU706
 118:Middlewares/lvgl/src/core/lv_obj_style.c ****            (part != LV_PART_ANY && part_act != part) ||
 2449              		.loc 1 118 11 is_stmt 0 view .LVU707
 2450 006c 4FF6FF73 		movw	r3, #65535
 2451 0070 009A     		ldr	r2, [sp]
 2452 0072 9845     		cmp	r8, r3
 2453 0074 18BF     		it	ne
 2454 0076 9045     		cmpne	r8, r2
 2455 0078 E2D1     		bne	.L164
 118:Middlewares/lvgl/src/core/lv_obj_style.c ****            (part != LV_PART_ANY && part_act != part) ||
 2456              		.loc 1 118 58 discriminator 1 view .LVU708
ARM GAS  /tmp/ccoxlgn6.s 			page 81


 2457 007a BAF5702F 		cmp	r10, #983040
 2458 007e 18BF     		it	ne
 2459 0080 8245     		cmpne	r10, r0
 2460 0082 DDD1     		bne	.L164
 119:Middlewares/lvgl/src/core/lv_obj_style.c ****            (style != NULL && style != obj->styles[i].style))
 2461              		.loc 1 119 54 view .LVU709
 2462 0084 019A     		ldr	r2, [sp, #4]
 2463 0086 1AB1     		cbz	r2, .L165
 120:Middlewares/lvgl/src/core/lv_obj_style.c ****         {
 2464              		.loc 1 120 53 view .LVU710
 2465 0088 57F80B30 		ldr	r3, [r7, fp]
 120:Middlewares/lvgl/src/core/lv_obj_style.c ****         {
 2466              		.loc 1 120 27 view .LVU711
 2467 008c 9342     		cmp	r3, r2
 2468 008e D7D1     		bne	.L164
 2469              	.L165:
 126:Middlewares/lvgl/src/core/lv_obj_style.c ****             trans_del(obj, part, LV_STYLE_PROP_ANY, NULL);
 2470              		.loc 1 126 9 is_stmt 1 view .LVU712
 126:Middlewares/lvgl/src/core/lv_obj_style.c ****             trans_del(obj, part, LV_STYLE_PROP_ANY, NULL);
 2471              		.loc 1 126 12 is_stmt 0 view .LVU713
 2472 0090 99F80730 		ldrb	r3, [r9, #7]	@ zero_extendqisi2
 126:Middlewares/lvgl/src/core/lv_obj_style.c ****             trans_del(obj, part, LV_STYLE_PROP_ANY, NULL);
 2473              		.loc 1 126 11 view .LVU714
 2474 0094 13F0020F 		tst	r3, #2
 2475 0098 08D1     		bne	.L177
 2476              	.LVL238:
 2477              	.L167:
 130:Middlewares/lvgl/src/core/lv_obj_style.c ****             lv_style_reset(obj->styles[i].style);
 2478              		.loc 1 130 9 is_stmt 1 view .LVU715
 130:Middlewares/lvgl/src/core/lv_obj_style.c ****             lv_style_reset(obj->styles[i].style);
 2479              		.loc 1 130 15 is_stmt 0 view .LVU716
 2480 009a E368     		ldr	r3, [r4, #12]
 130:Middlewares/lvgl/src/core/lv_obj_style.c ****             lv_style_reset(obj->styles[i].style);
 2481              		.loc 1 130 23 view .LVU717
 2482 009c 03EB0B02 		add	r2, r3, fp
 130:Middlewares/lvgl/src/core/lv_obj_style.c ****             lv_style_reset(obj->styles[i].style);
 2483              		.loc 1 130 36 view .LVU718
 2484 00a0 D279     		ldrb	r2, [r2, #7]	@ zero_extendqisi2
 130:Middlewares/lvgl/src/core/lv_obj_style.c ****             lv_style_reset(obj->styles[i].style);
 2485              		.loc 1 130 11 view .LVU719
 2486 00a2 12F0030F 		tst	r2, #3
 2487 00a6 09D1     		bne	.L178
 2488              	.L168:
 2489              	.LBE85:
 110:Middlewares/lvgl/src/core/lv_obj_style.c ****     if(style && style->prop_cnt == 0) prop = LV_STYLE_PROP_INV;
 2490              		.loc 1 110 21 discriminator 1 view .LVU720
 2491 00a8 2A46     		mov	r2, r5
 2492 00aa 1FE0     		b	.L169
 2493              	.LVL239:
 2494              	.L177:
 2495              	.LBB86:
 127:Middlewares/lvgl/src/core/lv_obj_style.c ****         }
 2496              		.loc 1 127 13 is_stmt 1 view .LVU721
 2497 00ac 0023     		movs	r3, #0
 2498 00ae 4FF6FF72 		movw	r2, #65535
 2499 00b2 5146     		mov	r1, r10
 2500 00b4 2046     		mov	r0, r4
ARM GAS  /tmp/ccoxlgn6.s 			page 82


 2501              	.LVL240:
 127:Middlewares/lvgl/src/core/lv_obj_style.c ****         }
 2502              		.loc 1 127 13 is_stmt 0 view .LVU722
 2503 00b6 FFF7FEFF 		bl	trans_del
 2504              	.LVL241:
 2505 00ba EEE7     		b	.L167
 2506              	.L178:
 131:Middlewares/lvgl/src/core/lv_obj_style.c ****             lv_mem_free(obj->styles[i].style);
 2507              		.loc 1 131 13 is_stmt 1 view .LVU723
 2508 00bc 53F80B00 		ldr	r0, [r3, fp]
 2509 00c0 FFF7FEFF 		bl	lv_style_reset
 2510              	.LVL242:
 132:Middlewares/lvgl/src/core/lv_obj_style.c ****             obj->styles[i].style = NULL;
 2511              		.loc 1 132 13 view .LVU724
 132:Middlewares/lvgl/src/core/lv_obj_style.c ****             obj->styles[i].style = NULL;
 2512              		.loc 1 132 28 is_stmt 0 view .LVU725
 2513 00c4 E368     		ldr	r3, [r4, #12]
 132:Middlewares/lvgl/src/core/lv_obj_style.c ****             obj->styles[i].style = NULL;
 2514              		.loc 1 132 13 view .LVU726
 2515 00c6 53F80B00 		ldr	r0, [r3, fp]
 2516 00ca FFF7FEFF 		bl	lv_mem_free
 2517              	.LVL243:
 133:Middlewares/lvgl/src/core/lv_obj_style.c ****         }
 2518              		.loc 1 133 13 is_stmt 1 view .LVU727
 133:Middlewares/lvgl/src/core/lv_obj_style.c ****         }
 2519              		.loc 1 133 16 is_stmt 0 view .LVU728
 2520 00ce E368     		ldr	r3, [r4, #12]
 133:Middlewares/lvgl/src/core/lv_obj_style.c ****         }
 2521              		.loc 1 133 34 view .LVU729
 2522 00d0 0022     		movs	r2, #0
 2523 00d2 43F80B20 		str	r2, [r3, fp]
 2524 00d6 E7E7     		b	.L168
 2525              	.LVL244:
 2526              	.L170:
 139:Middlewares/lvgl/src/core/lv_obj_style.c ****         }
 2527              		.loc 1 139 13 is_stmt 1 discriminator 3 view .LVU730
 139:Middlewares/lvgl/src/core/lv_obj_style.c ****         }
 2528              		.loc 1 139 33 is_stmt 0 discriminator 3 view .LVU731
 2529 00d8 E368     		ldr	r3, [r4, #12]
 139:Middlewares/lvgl/src/core/lv_obj_style.c ****         }
 2530              		.loc 1 139 41 discriminator 3 view .LVU732
 2531 00da 561C     		adds	r6, r2, #1
 2532 00dc 03EBC601 		add	r1, r3, r6, lsl #3
 139:Middlewares/lvgl/src/core/lv_obj_style.c ****         }
 2533              		.loc 1 139 24 discriminator 3 view .LVU733
 2534 00e0 03EBC203 		add	r3, r3, r2, lsl #3
 139:Middlewares/lvgl/src/core/lv_obj_style.c ****         }
 2535              		.loc 1 139 28 discriminator 3 view .LVU734
 2536 00e4 03C9     		ldm	r1, {r0, r1}
 2537 00e6 83E80300 		stm	r3, {r0, r1}
 138:Middlewares/lvgl/src/core/lv_obj_style.c ****             obj->styles[j] = obj->styles[j + 1];
 2538              		.loc 1 138 55 is_stmt 1 discriminator 3 view .LVU735
 2539              	.LVL245:
 138:Middlewares/lvgl/src/core/lv_obj_style.c ****             obj->styles[j] = obj->styles[j + 1];
 2540              		.loc 1 138 56 is_stmt 0 discriminator 3 view .LVU736
 2541 00ea 3246     		mov	r2, r6
 2542              	.LVL246:
ARM GAS  /tmp/ccoxlgn6.s 			page 83


 2543              	.L169:
 138:Middlewares/lvgl/src/core/lv_obj_style.c ****             obj->styles[j] = obj->styles[j + 1];
 2544              		.loc 1 138 20 is_stmt 1 discriminator 1 view .LVU737
 138:Middlewares/lvgl/src/core/lv_obj_style.c ****             obj->styles[j] = obj->styles[j + 1];
 2545              		.loc 1 138 37 is_stmt 0 discriminator 1 view .LVU738
 2546 00ec 618C     		ldrh	r1, [r4, #34]
 2547 00ee C1F3C501 		ubfx	r1, r1, #3, #6
 138:Middlewares/lvgl/src/core/lv_obj_style.c ****             obj->styles[j] = obj->styles[j + 1];
 2548              		.loc 1 138 49 discriminator 1 view .LVU739
 2549 00f2 4B1E     		subs	r3, r1, #1
 138:Middlewares/lvgl/src/core/lv_obj_style.c ****             obj->styles[j] = obj->styles[j + 1];
 2550              		.loc 1 138 9 discriminator 1 view .LVU740
 2551 00f4 9342     		cmp	r3, r2
 2552 00f6 EFD8     		bhi	.L170
 142:Middlewares/lvgl/src/core/lv_obj_style.c ****         obj->styles = lv_mem_realloc(obj->styles, obj->style_cnt * sizeof(_lv_obj_style_t));
 2553              		.loc 1 142 9 is_stmt 1 view .LVU741
 142:Middlewares/lvgl/src/core/lv_obj_style.c ****         obj->styles = lv_mem_realloc(obj->styles, obj->style_cnt * sizeof(_lv_obj_style_t));
 2554              		.loc 1 142 23 is_stmt 0 view .LVU742
 2555 00f8 3F31     		adds	r1, r1, #63
 2556 00fa 01F03F01 		and	r1, r1, #63
 2557 00fe 638C     		ldrh	r3, [r4, #34]
 2558 0100 61F3C803 		bfi	r3, r1, #3, #6
 2559 0104 6384     		strh	r3, [r4, #34]	@ movhi
 2560              	.LVL247:
 143:Middlewares/lvgl/src/core/lv_obj_style.c **** 
 2561              		.loc 1 143 9 is_stmt 1 view .LVU743
 143:Middlewares/lvgl/src/core/lv_obj_style.c **** 
 2562              		.loc 1 143 23 is_stmt 0 view .LVU744
 2563 0106 C900     		lsls	r1, r1, #3
 2564 0108 E068     		ldr	r0, [r4, #12]
 2565 010a FFF7FEFF 		bl	lv_mem_realloc
 2566              	.LVL248:
 143:Middlewares/lvgl/src/core/lv_obj_style.c **** 
 2567              		.loc 1 143 21 view .LVU745
 2568 010e E060     		str	r0, [r4, #12]
 145:Middlewares/lvgl/src/core/lv_obj_style.c ****         /*The style from the current `i` index is removed, so `i` points to the next style.
 2569              		.loc 1 145 9 is_stmt 1 view .LVU746
 2570              	.LVL249:
 145:Middlewares/lvgl/src/core/lv_obj_style.c ****         /*The style from the current `i` index is removed, so `i` points to the next style.
 2571              		.loc 1 145 17 is_stmt 0 view .LVU747
 2572 0110 0123     		movs	r3, #1
 2573 0112 0293     		str	r3, [sp, #8]
 2574 0114 95E7     		b	.L163
 2575              	.LVL250:
 2576              	.L176:
 145:Middlewares/lvgl/src/core/lv_obj_style.c ****         /*The style from the current `i` index is removed, so `i` points to the next style.
 2577              		.loc 1 145 17 view .LVU748
 2578              	.LBE86:
 149:Middlewares/lvgl/src/core/lv_obj_style.c ****         lv_obj_refresh_style(obj, part, prop);
 2579              		.loc 1 149 5 is_stmt 1 view .LVU749
 149:Middlewares/lvgl/src/core/lv_obj_style.c ****         lv_obj_refresh_style(obj, part, prop);
 2580              		.loc 1 149 16 is_stmt 0 view .LVU750
 2581 0116 029B     		ldr	r3, [sp, #8]
 2582 0118 039A     		ldr	r2, [sp, #12]
 2583 011a 002A     		cmp	r2, #0
 2584 011c 0CBF     		ite	eq
 2585 011e 0023     		moveq	r3, #0
ARM GAS  /tmp/ccoxlgn6.s 			page 84


 2586 0120 03F00103 		andne	r3, r3, #1
 149:Middlewares/lvgl/src/core/lv_obj_style.c ****         lv_obj_refresh_style(obj, part, prop);
 2587              		.loc 1 149 7 view .LVU751
 2588 0124 13B9     		cbnz	r3, .L179
 2589              	.L161:
 152:Middlewares/lvgl/src/core/lv_obj_style.c **** 
 2590              		.loc 1 152 1 view .LVU752
 2591 0126 05B0     		add	sp, sp, #20
 2592              	.LCFI26:
 2593              		.cfi_remember_state
 2594              		.cfi_def_cfa_offset 36
 2595              		@ sp needed
 2596 0128 BDE8F08F 		pop	{r4, r5, r6, r7, r8, r9, r10, fp, pc}
 2597              	.LVL251:
 2598              	.L179:
 2599              	.LCFI27:
 2600              		.cfi_restore_state
 150:Middlewares/lvgl/src/core/lv_obj_style.c ****     }
 2601              		.loc 1 150 9 is_stmt 1 view .LVU753
 2602 012c 5146     		mov	r1, r10
 2603 012e 2046     		mov	r0, r4
 2604 0130 FFF7FEFF 		bl	lv_obj_refresh_style
 2605              	.LVL252:
 152:Middlewares/lvgl/src/core/lv_obj_style.c **** 
 2606              		.loc 1 152 1 is_stmt 0 view .LVU754
 2607 0134 F7E7     		b	.L161
 2608              		.cfi_endproc
 2609              	.LFE155:
 2611              		.section	.text.trans_anim_ready_cb,"ax",%progbits
 2612              		.align	1
 2613              		.syntax unified
 2614              		.thumb
 2615              		.thumb_func
 2616              		.fpu fpv5-d16
 2618              	trans_anim_ready_cb:
 2619              	.LVL253:
 2620              	.LFB178:
 766:Middlewares/lvgl/src/core/lv_obj_style.c ****     trans_t * tr = a->var;
 2621              		.loc 1 766 1 is_stmt 1 view -0
 2622              		.cfi_startproc
 2623              		@ args = 0, pretend = 0, frame = 0
 2624              		@ frame_needed = 0, uses_anonymous_args = 0
 766:Middlewares/lvgl/src/core/lv_obj_style.c ****     trans_t * tr = a->var;
 2625              		.loc 1 766 1 is_stmt 0 view .LVU756
 2626 0000 2DE9F041 		push	{r4, r5, r6, r7, r8, lr}
 2627              	.LCFI28:
 2628              		.cfi_def_cfa_offset 24
 2629              		.cfi_offset 4, -24
 2630              		.cfi_offset 5, -20
 2631              		.cfi_offset 6, -16
 2632              		.cfi_offset 7, -12
 2633              		.cfi_offset 8, -8
 2634              		.cfi_offset 14, -4
 767:Middlewares/lvgl/src/core/lv_obj_style.c ****     lv_obj_t * obj = tr->obj;
 2635              		.loc 1 767 5 is_stmt 1 view .LVU757
 767:Middlewares/lvgl/src/core/lv_obj_style.c ****     lv_obj_t * obj = tr->obj;
 2636              		.loc 1 767 15 is_stmt 0 view .LVU758
ARM GAS  /tmp/ccoxlgn6.s 			page 85


 2637 0004 0468     		ldr	r4, [r0]
 2638              	.LVL254:
 768:Middlewares/lvgl/src/core/lv_obj_style.c ****     lv_style_prop_t prop = tr->prop;
 2639              		.loc 1 768 5 is_stmt 1 view .LVU759
 768:Middlewares/lvgl/src/core/lv_obj_style.c ****     lv_style_prop_t prop = tr->prop;
 2640              		.loc 1 768 16 is_stmt 0 view .LVU760
 2641 0006 2568     		ldr	r5, [r4]
 2642              	.LVL255:
 769:Middlewares/lvgl/src/core/lv_obj_style.c **** 
 2643              		.loc 1 769 5 is_stmt 1 view .LVU761
 769:Middlewares/lvgl/src/core/lv_obj_style.c **** 
 2644              		.loc 1 769 21 is_stmt 0 view .LVU762
 2645 0008 A688     		ldrh	r6, [r4, #4]
 2646              	.LVL256:
 774:Middlewares/lvgl/src/core/lv_obj_style.c ****     trans_t * tr_i;
 2647              		.loc 1 774 5 is_stmt 1 view .LVU763
 775:Middlewares/lvgl/src/core/lv_obj_style.c ****     _LV_LL_READ(&LV_GC_ROOT(_lv_obj_style_trans_ll), tr_i) {
 2648              		.loc 1 775 5 view .LVU764
 776:Middlewares/lvgl/src/core/lv_obj_style.c ****         if(tr_i != tr && tr_i->obj == tr->obj && tr_i->selector == tr->selector && tr_i->prop == tr
 2649              		.loc 1 776 5 view .LVU765
 2650 000a 2748     		ldr	r0, .L192
 2651              	.LVL257:
 776:Middlewares/lvgl/src/core/lv_obj_style.c ****         if(tr_i != tr && tr_i->obj == tr->obj && tr_i->selector == tr->selector && tr_i->prop == tr
 2652              		.loc 1 776 5 is_stmt 0 view .LVU766
 2653 000c FFF7FEFF 		bl	_lv_ll_get_head
 2654              	.LVL258:
 2655 0010 0146     		mov	r1, r0
 2656              	.LVL259:
 776:Middlewares/lvgl/src/core/lv_obj_style.c ****         if(tr_i != tr && tr_i->obj == tr->obj && tr_i->selector == tr->selector && tr_i->prop == tr
 2657              		.loc 1 776 5 view .LVU767
 2658 0012 03E0     		b	.L181
 2659              	.L182:
 776:Middlewares/lvgl/src/core/lv_obj_style.c ****         if(tr_i != tr && tr_i->obj == tr->obj && tr_i->selector == tr->selector && tr_i->prop == tr
 2660              		.loc 1 776 5 is_stmt 1 discriminator 2 view .LVU768
 2661 0014 2448     		ldr	r0, .L192
 2662              	.LVL260:
 776:Middlewares/lvgl/src/core/lv_obj_style.c ****         if(tr_i != tr && tr_i->obj == tr->obj && tr_i->selector == tr->selector && tr_i->prop == tr
 2663              		.loc 1 776 5 is_stmt 0 discriminator 2 view .LVU769
 2664 0016 FFF7FEFF 		bl	_lv_ll_get_next
 2665              	.LVL261:
 776:Middlewares/lvgl/src/core/lv_obj_style.c ****         if(tr_i != tr && tr_i->obj == tr->obj && tr_i->selector == tr->selector && tr_i->prop == tr
 2666              		.loc 1 776 5 discriminator 2 view .LVU770
 2667 001a 0146     		mov	r1, r0
 2668              	.LVL262:
 2669              	.L181:
 776:Middlewares/lvgl/src/core/lv_obj_style.c ****         if(tr_i != tr && tr_i->obj == tr->obj && tr_i->selector == tr->selector && tr_i->prop == tr
 2670              		.loc 1 776 5 is_stmt 1 discriminator 1 view .LVU771
 2671 001c 79B1     		cbz	r1, .L191
 777:Middlewares/lvgl/src/core/lv_obj_style.c ****             running = true;
 2672              		.loc 1 777 9 view .LVU772
 777:Middlewares/lvgl/src/core/lv_obj_style.c ****             running = true;
 2673              		.loc 1 777 11 is_stmt 0 view .LVU773
 2674 001e A142     		cmp	r1, r4
 2675 0020 F8D0     		beq	.L182
 777:Middlewares/lvgl/src/core/lv_obj_style.c ****             running = true;
 2676              		.loc 1 777 30 discriminator 1 view .LVU774
 2677 0022 0A68     		ldr	r2, [r1]
ARM GAS  /tmp/ccoxlgn6.s 			page 86


 777:Middlewares/lvgl/src/core/lv_obj_style.c ****             running = true;
 2678              		.loc 1 777 41 discriminator 1 view .LVU775
 2679 0024 2368     		ldr	r3, [r4]
 777:Middlewares/lvgl/src/core/lv_obj_style.c ****             running = true;
 2680              		.loc 1 777 23 discriminator 1 view .LVU776
 2681 0026 9A42     		cmp	r2, r3
 2682 0028 F4D1     		bne	.L182
 777:Middlewares/lvgl/src/core/lv_obj_style.c ****             running = true;
 2683              		.loc 1 777 54 discriminator 2 view .LVU777
 2684 002a 8A68     		ldr	r2, [r1, #8]
 777:Middlewares/lvgl/src/core/lv_obj_style.c ****             running = true;
 2685              		.loc 1 777 70 discriminator 2 view .LVU778
 2686 002c A368     		ldr	r3, [r4, #8]
 777:Middlewares/lvgl/src/core/lv_obj_style.c ****             running = true;
 2687              		.loc 1 777 47 discriminator 2 view .LVU779
 2688 002e 9A42     		cmp	r2, r3
 2689 0030 F0D1     		bne	.L182
 777:Middlewares/lvgl/src/core/lv_obj_style.c ****             running = true;
 2690              		.loc 1 777 88 discriminator 3 view .LVU780
 2691 0032 8A88     		ldrh	r2, [r1, #4]
 777:Middlewares/lvgl/src/core/lv_obj_style.c ****             running = true;
 2692              		.loc 1 777 100 discriminator 3 view .LVU781
 2693 0034 A388     		ldrh	r3, [r4, #4]
 777:Middlewares/lvgl/src/core/lv_obj_style.c ****             running = true;
 2694              		.loc 1 777 81 discriminator 3 view .LVU782
 2695 0036 9A42     		cmp	r2, r3
 2696 0038 ECD1     		bne	.L182
 778:Middlewares/lvgl/src/core/lv_obj_style.c ****             break;
 2697              		.loc 1 778 21 view .LVU783
 2698 003a 0123     		movs	r3, #1
 2699 003c 00E0     		b	.L183
 2700              	.L191:
 774:Middlewares/lvgl/src/core/lv_obj_style.c ****     trans_t * tr_i;
 2701              		.loc 1 774 10 view .LVU784
 2702 003e 0023     		movs	r3, #0
 2703              	.L183:
 2704              	.LVL263:
 783:Middlewares/lvgl/src/core/lv_obj_style.c ****         uint32_t i;
 2705              		.loc 1 783 5 is_stmt 1 view .LVU785
 783:Middlewares/lvgl/src/core/lv_obj_style.c ****         uint32_t i;
 2706              		.loc 1 783 7 is_stmt 0 view .LVU786
 2707 0040 13B1     		cbz	r3, .L186
 2708              	.LVL264:
 2709              	.L180:
 801:Middlewares/lvgl/src/core/lv_obj_style.c **** 
 2710              		.loc 1 801 1 view .LVU787
 2711 0042 BDE8F081 		pop	{r4, r5, r6, r7, r8, pc}
 2712              	.LVL265:
 2713              	.L187:
 2714              	.LBB87:
 785:Middlewares/lvgl/src/core/lv_obj_style.c ****             if(obj->styles[i].is_trans && obj->styles[i].selector == tr->selector) {
 2715              		.loc 1 785 40 is_stmt 1 discriminator 2 view .LVU788
 785:Middlewares/lvgl/src/core/lv_obj_style.c ****             if(obj->styles[i].is_trans && obj->styles[i].selector == tr->selector) {
 2716              		.loc 1 785 41 is_stmt 0 discriminator 2 view .LVU789
 2717 0046 0133     		adds	r3, r3, #1
 2718              	.LVL266:
 2719              	.L186:
ARM GAS  /tmp/ccoxlgn6.s 			page 87


 785:Middlewares/lvgl/src/core/lv_obj_style.c ****             if(obj->styles[i].is_trans && obj->styles[i].selector == tr->selector) {
 2720              		.loc 1 785 20 is_stmt 1 discriminator 1 view .LVU790
 785:Middlewares/lvgl/src/core/lv_obj_style.c ****             if(obj->styles[i].is_trans && obj->styles[i].selector == tr->selector) {
 2721              		.loc 1 785 27 is_stmt 0 discriminator 1 view .LVU791
 2722 0048 6A8C     		ldrh	r2, [r5, #34]
 2723 004a C2F3C502 		ubfx	r2, r2, #3, #6
 785:Middlewares/lvgl/src/core/lv_obj_style.c ****             if(obj->styles[i].is_trans && obj->styles[i].selector == tr->selector) {
 2724              		.loc 1 785 9 discriminator 1 view .LVU792
 2725 004e 9A42     		cmp	r2, r3
 2726 0050 F7D9     		bls	.L180
 786:Middlewares/lvgl/src/core/lv_obj_style.c ****                 _lv_ll_remove(&LV_GC_ROOT(_lv_obj_style_trans_ll), tr);
 2727              		.loc 1 786 13 is_stmt 1 view .LVU793
 786:Middlewares/lvgl/src/core/lv_obj_style.c ****                 _lv_ll_remove(&LV_GC_ROOT(_lv_obj_style_trans_ll), tr);
 2728              		.loc 1 786 19 is_stmt 0 view .LVU794
 2729 0052 EA68     		ldr	r2, [r5, #12]
 786:Middlewares/lvgl/src/core/lv_obj_style.c ****                 _lv_ll_remove(&LV_GC_ROOT(_lv_obj_style_trans_ll), tr);
 2730              		.loc 1 786 27 view .LVU795
 2731 0054 DF00     		lsls	r7, r3, #3
 2732 0056 02EBC302 		add	r2, r2, r3, lsl #3
 786:Middlewares/lvgl/src/core/lv_obj_style.c ****                 _lv_ll_remove(&LV_GC_ROOT(_lv_obj_style_trans_ll), tr);
 2733              		.loc 1 786 16 view .LVU796
 2734 005a D179     		ldrb	r1, [r2, #7]	@ zero_extendqisi2
 786:Middlewares/lvgl/src/core/lv_obj_style.c ****                 _lv_ll_remove(&LV_GC_ROOT(_lv_obj_style_trans_ll), tr);
 2735              		.loc 1 786 15 view .LVU797
 2736 005c 11F0020F 		tst	r1, #2
 2737 0060 F1D0     		beq	.L187
 786:Middlewares/lvgl/src/core/lv_obj_style.c ****                 _lv_ll_remove(&LV_GC_ROOT(_lv_obj_style_trans_ll), tr);
 2738              		.loc 1 786 57 discriminator 1 view .LVU798
 2739 0062 5268     		ldr	r2, [r2, #4]
 2740 0064 C2F31702 		ubfx	r2, r2, #0, #24
 786:Middlewares/lvgl/src/core/lv_obj_style.c ****                 _lv_ll_remove(&LV_GC_ROOT(_lv_obj_style_trans_ll), tr);
 2741              		.loc 1 786 72 discriminator 1 view .LVU799
 2742 0068 A168     		ldr	r1, [r4, #8]
 786:Middlewares/lvgl/src/core/lv_obj_style.c ****                 _lv_ll_remove(&LV_GC_ROOT(_lv_obj_style_trans_ll), tr);
 2743              		.loc 1 786 40 discriminator 1 view .LVU800
 2744 006a 8A42     		cmp	r2, r1
 2745 006c EBD1     		bne	.L187
 2746              	.LBB88:
 787:Middlewares/lvgl/src/core/lv_obj_style.c ****                 lv_mem_free(tr);
 2747              		.loc 1 787 17 is_stmt 1 view .LVU801
 2748 006e 2146     		mov	r1, r4
 2749 0070 0D48     		ldr	r0, .L192
 2750              	.LVL267:
 787:Middlewares/lvgl/src/core/lv_obj_style.c ****                 lv_mem_free(tr);
 2751              		.loc 1 787 17 is_stmt 0 view .LVU802
 2752 0072 FFF7FEFF 		bl	_lv_ll_remove
 2753              	.LVL268:
 788:Middlewares/lvgl/src/core/lv_obj_style.c **** 
 2754              		.loc 1 788 17 is_stmt 1 view .LVU803
 2755 0076 2046     		mov	r0, r4
 2756 0078 FFF7FEFF 		bl	lv_mem_free
 2757              	.LVL269:
 790:Middlewares/lvgl/src/core/lv_obj_style.c ****                 lv_style_remove_prop(obj_style->style, prop);
 2758              		.loc 1 790 17 view .LVU804
 790:Middlewares/lvgl/src/core/lv_obj_style.c ****                 lv_style_remove_prop(obj_style->style, prop);
 2759              		.loc 1 790 51 is_stmt 0 view .LVU805
 2760 007c EC68     		ldr	r4, [r5, #12]
ARM GAS  /tmp/ccoxlgn6.s 			page 88


 2761              	.LVL270:
 790:Middlewares/lvgl/src/core/lv_obj_style.c ****                 lv_style_remove_prop(obj_style->style, prop);
 2762              		.loc 1 790 35 view .LVU806
 2763 007e 04EB0708 		add	r8, r4, r7
 2764              	.LVL271:
 791:Middlewares/lvgl/src/core/lv_obj_style.c **** 
 2765              		.loc 1 791 17 is_stmt 1 view .LVU807
 2766 0082 3146     		mov	r1, r6
 2767 0084 E059     		ldr	r0, [r4, r7]
 2768 0086 FFF7FEFF 		bl	lv_style_remove_prop
 2769              	.LVL272:
 793:Middlewares/lvgl/src/core/lv_obj_style.c ****                     lv_obj_remove_style(obj, obj_style->style, obj_style->selector);
 2770              		.loc 1 793 17 view .LVU808
 793:Middlewares/lvgl/src/core/lv_obj_style.c ****                     lv_obj_remove_style(obj, obj_style->style, obj_style->selector);
 2771              		.loc 1 793 41 is_stmt 0 view .LVU809
 2772 008a EB68     		ldr	r3, [r5, #12]
 793:Middlewares/lvgl/src/core/lv_obj_style.c ****                     lv_obj_remove_style(obj, obj_style->style, obj_style->selector);
 2773              		.loc 1 793 20 view .LVU810
 2774 008c D859     		ldr	r0, [r3, r7]
 2775 008e FFF7FEFF 		bl	lv_style_is_empty
 2776              	.LVL273:
 793:Middlewares/lvgl/src/core/lv_obj_style.c ****                     lv_obj_remove_style(obj, obj_style->style, obj_style->selector);
 2777              		.loc 1 793 19 view .LVU811
 2778 0092 0028     		cmp	r0, #0
 2779 0094 D5D0     		beq	.L180
 794:Middlewares/lvgl/src/core/lv_obj_style.c **** 
 2780              		.loc 1 794 21 is_stmt 1 view .LVU812
 794:Middlewares/lvgl/src/core/lv_obj_style.c **** 
 2781              		.loc 1 794 73 is_stmt 0 view .LVU813
 2782 0096 D8F80420 		ldr	r2, [r8, #4]
 794:Middlewares/lvgl/src/core/lv_obj_style.c **** 
 2783              		.loc 1 794 21 view .LVU814
 2784 009a 22F07F42 		bic	r2, r2, #-16777216
 2785 009e E159     		ldr	r1, [r4, r7]
 2786 00a0 2846     		mov	r0, r5
 2787 00a2 FFF7FEFF 		bl	lv_obj_remove_style
 2788              	.LVL274:
 2789 00a6 CCE7     		b	.L180
 2790              	.L193:
 2791              		.align	2
 2792              	.L192:
 2793 00a8 00000000 		.word	_lv_obj_style_trans_ll
 2794              	.LBE88:
 2795              	.LBE87:
 2796              		.cfi_endproc
 2797              	.LFE178:
 2799              		.section	.text.get_prop_core,"ax",%progbits
 2800              		.align	1
 2801              		.syntax unified
 2802              		.thumb
 2803              		.thumb_func
 2804              		.fpu fpv5-d16
 2806              	get_prop_core:
 2807              	.LVL275:
 2808              	.LFB171:
 529:Middlewares/lvgl/src/core/lv_obj_style.c ****     uint8_t group = 1 << _lv_style_get_prop_group(prop);
 2809              		.loc 1 529 1 is_stmt 1 view -0
ARM GAS  /tmp/ccoxlgn6.s 			page 89


 2810              		.cfi_startproc
 2811              		@ args = 0, pretend = 0, frame = 24
 2812              		@ frame_needed = 0, uses_anonymous_args = 0
 529:Middlewares/lvgl/src/core/lv_obj_style.c ****     uint8_t group = 1 << _lv_style_get_prop_group(prop);
 2813              		.loc 1 529 1 is_stmt 0 view .LVU816
 2814 0000 2DE9F04F 		push	{r4, r5, r6, r7, r8, r9, r10, fp, lr}
 2815              	.LCFI29:
 2816              		.cfi_def_cfa_offset 36
 2817              		.cfi_offset 4, -36
 2818              		.cfi_offset 5, -32
 2819              		.cfi_offset 6, -28
 2820              		.cfi_offset 7, -24
 2821              		.cfi_offset 8, -20
 2822              		.cfi_offset 9, -16
 2823              		.cfi_offset 10, -12
 2824              		.cfi_offset 11, -8
 2825              		.cfi_offset 14, -4
 2826 0004 87B0     		sub	sp, sp, #28
 2827              	.LCFI30:
 2828              		.cfi_def_cfa_offset 64
 2829 0006 0646     		mov	r6, r0
 2830 0008 8946     		mov	r9, r1
 2831 000a 0192     		str	r2, [sp, #4]
 2832 000c 0293     		str	r3, [sp, #8]
 530:Middlewares/lvgl/src/core/lv_obj_style.c ****     int32_t weight = -1;
 2833              		.loc 1 530 5 is_stmt 1 view .LVU817
 530:Middlewares/lvgl/src/core/lv_obj_style.c ****     int32_t weight = -1;
 2834              		.loc 1 530 26 is_stmt 0 view .LVU818
 2835 000e 1046     		mov	r0, r2
 2836              	.LVL276:
 530:Middlewares/lvgl/src/core/lv_obj_style.c ****     int32_t weight = -1;
 2837              		.loc 1 530 26 view .LVU819
 2838 0010 FFF7FEFF 		bl	_lv_style_get_prop_group
 2839              	.LVL277:
 530:Middlewares/lvgl/src/core/lv_obj_style.c ****     int32_t weight = -1;
 2840              		.loc 1 530 23 view .LVU820
 2841 0014 4FF0010A 		mov	r10, #1
 2842 0018 0AFA00FA 		lsl	r10, r10, r0
 530:Middlewares/lvgl/src/core/lv_obj_style.c ****     int32_t weight = -1;
 2843              		.loc 1 530 13 view .LVU821
 2844 001c 5FFA8AFA 		uxtb	r10, r10
 2845              	.LVL278:
 531:Middlewares/lvgl/src/core/lv_obj_style.c ****     lv_state_t state = obj->state;
 2846              		.loc 1 531 5 is_stmt 1 view .LVU822
 532:Middlewares/lvgl/src/core/lv_obj_style.c ****     lv_state_t state_inv = ~state;
 2847              		.loc 1 532 5 view .LVU823
 532:Middlewares/lvgl/src/core/lv_obj_style.c ****     lv_state_t state_inv = ~state;
 2848              		.loc 1 532 16 is_stmt 0 view .LVU824
 2849 0020 338C     		ldrh	r3, [r6, #32]
 2850 0022 0393     		str	r3, [sp, #12]
 2851              	.LVL279:
 533:Middlewares/lvgl/src/core/lv_obj_style.c ****     lv_style_value_t value_tmp;
 2852              		.loc 1 533 5 is_stmt 1 view .LVU825
 533:Middlewares/lvgl/src/core/lv_obj_style.c ****     lv_style_value_t value_tmp;
 2853              		.loc 1 533 16 is_stmt 0 view .LVU826
 2854 0024 6FEA030B 		mvn	fp, r3
 2855 0028 1FFA8BFB 		uxth	fp, fp
ARM GAS  /tmp/ccoxlgn6.s 			page 90


 2856              	.LVL280:
 534:Middlewares/lvgl/src/core/lv_obj_style.c ****     bool skip_trans = obj->skip_trans;
 2857              		.loc 1 534 5 is_stmt 1 view .LVU827
 535:Middlewares/lvgl/src/core/lv_obj_style.c ****     uint32_t i;
 2858              		.loc 1 535 5 view .LVU828
 535:Middlewares/lvgl/src/core/lv_obj_style.c ****     uint32_t i;
 2859              		.loc 1 535 26 is_stmt 0 view .LVU829
 2860 002c 96F82280 		ldrb	r8, [r6, #34]	@ zero_extendqisi2
 2861 0030 C8F38008 		ubfx	r8, r8, #2, #1
 2862              	.LVL281:
 536:Middlewares/lvgl/src/core/lv_obj_style.c ****     bool found;
 2863              		.loc 1 536 5 is_stmt 1 view .LVU830
 537:Middlewares/lvgl/src/core/lv_obj_style.c ****     for(i = 0; i < obj->style_cnt; i++) {
 2864              		.loc 1 537 5 view .LVU831
 538:Middlewares/lvgl/src/core/lv_obj_style.c ****         _lv_obj_style_t * obj_style = &obj->styles[i];
 2865              		.loc 1 538 5 view .LVU832
 538:Middlewares/lvgl/src/core/lv_obj_style.c ****         _lv_obj_style_t * obj_style = &obj->styles[i];
 2866              		.loc 1 538 11 is_stmt 0 view .LVU833
 2867 0034 0024     		movs	r4, #0
 2868 0036 4546     		mov	r5, r8
 538:Middlewares/lvgl/src/core/lv_obj_style.c ****         _lv_obj_style_t * obj_style = &obj->styles[i];
 2869              		.loc 1 538 5 view .LVU834
 2870 0038 00E0     		b	.L195
 2871              	.LVL282:
 2872              	.L197:
 538:Middlewares/lvgl/src/core/lv_obj_style.c ****         _lv_obj_style_t * obj_style = &obj->styles[i];
 2873              		.loc 1 538 36 is_stmt 1 discriminator 2 view .LVU835
 538:Middlewares/lvgl/src/core/lv_obj_style.c ****         _lv_obj_style_t * obj_style = &obj->styles[i];
 2874              		.loc 1 538 37 is_stmt 0 discriminator 2 view .LVU836
 2875 003a 0134     		adds	r4, r4, #1
 2876              	.LVL283:
 2877              	.L195:
 538:Middlewares/lvgl/src/core/lv_obj_style.c ****         _lv_obj_style_t * obj_style = &obj->styles[i];
 2878              		.loc 1 538 16 is_stmt 1 discriminator 1 view .LVU837
 538:Middlewares/lvgl/src/core/lv_obj_style.c ****         _lv_obj_style_t * obj_style = &obj->styles[i];
 2879              		.loc 1 538 23 is_stmt 0 discriminator 1 view .LVU838
 2880 003c 738C     		ldrh	r3, [r6, #34]
 2881 003e C3F3C503 		ubfx	r3, r3, #3, #6
 538:Middlewares/lvgl/src/core/lv_obj_style.c ****         _lv_obj_style_t * obj_style = &obj->styles[i];
 2882              		.loc 1 538 5 discriminator 1 view .LVU839
 2883 0042 A342     		cmp	r3, r4
 2884 0044 22D9     		bls	.L207
 2885              	.LBB89:
 539:Middlewares/lvgl/src/core/lv_obj_style.c ****         if(obj_style->is_trans == false) break;
 2886              		.loc 1 539 9 is_stmt 1 view .LVU840
 539:Middlewares/lvgl/src/core/lv_obj_style.c ****         if(obj_style->is_trans == false) break;
 2887              		.loc 1 539 43 is_stmt 0 view .LVU841
 2888 0046 F768     		ldr	r7, [r6, #12]
 539:Middlewares/lvgl/src/core/lv_obj_style.c ****         if(obj_style->is_trans == false) break;
 2889              		.loc 1 539 51 view .LVU842
 2890 0048 4FEAC408 		lsl	r8, r4, #3
 539:Middlewares/lvgl/src/core/lv_obj_style.c ****         if(obj_style->is_trans == false) break;
 2891              		.loc 1 539 27 view .LVU843
 2892 004c 07EBC403 		add	r3, r7, r4, lsl #3
 2893              	.LVL284:
 540:Middlewares/lvgl/src/core/lv_obj_style.c ****         if(skip_trans) continue;
 2894              		.loc 1 540 9 is_stmt 1 view .LVU844
ARM GAS  /tmp/ccoxlgn6.s 			page 91


 540:Middlewares/lvgl/src/core/lv_obj_style.c ****         if(skip_trans) continue;
 2895              		.loc 1 540 32 is_stmt 0 view .LVU845
 2896 0050 DA79     		ldrb	r2, [r3, #7]	@ zero_extendqisi2
 540:Middlewares/lvgl/src/core/lv_obj_style.c ****         if(skip_trans) continue;
 2897              		.loc 1 540 11 view .LVU846
 2898 0052 12F0020F 		tst	r2, #2
 2899 0056 55D0     		beq	.L204
 541:Middlewares/lvgl/src/core/lv_obj_style.c **** 
 2900              		.loc 1 541 9 is_stmt 1 view .LVU847
 541:Middlewares/lvgl/src/core/lv_obj_style.c **** 
 2901              		.loc 1 541 11 is_stmt 0 view .LVU848
 2902 0058 002D     		cmp	r5, #0
 2903 005a EED1     		bne	.L197
 543:Middlewares/lvgl/src/core/lv_obj_style.c **** 
 2904              		.loc 1 543 9 is_stmt 1 view .LVU849
 543:Middlewares/lvgl/src/core/lv_obj_style.c **** 
 2905              		.loc 1 543 75 is_stmt 0 view .LVU850
 2906 005c 5868     		ldr	r0, [r3, #4]
 543:Middlewares/lvgl/src/core/lv_obj_style.c **** 
 2907              		.loc 1 543 30 view .LVU851
 2908 005e 20F07F40 		bic	r0, r0, #-16777216
 2909 0062 FFF7FEFF 		bl	lv_obj_style_get_selector_part
 2910              	.LVL285:
 545:Middlewares/lvgl/src/core/lv_obj_style.c ****         if((obj_style->style->has_group & group) == 0) continue;
 2911              		.loc 1 545 9 is_stmt 1 view .LVU852
 545:Middlewares/lvgl/src/core/lv_obj_style.c ****         if((obj_style->style->has_group & group) == 0) continue;
 2912              		.loc 1 545 11 is_stmt 0 view .LVU853
 2913 0066 4845     		cmp	r0, r9
 2914 0068 E7D1     		bne	.L197
 546:Middlewares/lvgl/src/core/lv_obj_style.c ****         found = lv_style_get_prop(obj_style->style, prop, &value_tmp);
 2915              		.loc 1 546 9 is_stmt 1 view .LVU854
 546:Middlewares/lvgl/src/core/lv_obj_style.c ****         found = lv_style_get_prop(obj_style->style, prop, &value_tmp);
 2916              		.loc 1 546 22 is_stmt 0 view .LVU855
 2917 006a 57F80800 		ldr	r0, [r7, r8]
 2918              	.LVL286:
 546:Middlewares/lvgl/src/core/lv_obj_style.c ****         found = lv_style_get_prop(obj_style->style, prop, &value_tmp);
 2919              		.loc 1 546 29 view .LVU856
 2920 006e 8379     		ldrb	r3, [r0, #6]	@ zero_extendqisi2
 546:Middlewares/lvgl/src/core/lv_obj_style.c ****         found = lv_style_get_prop(obj_style->style, prop, &value_tmp);
 2921              		.loc 1 546 11 view .LVU857
 2922 0070 13EA0A0F 		tst	r3, r10
 2923 0074 E1D0     		beq	.L197
 547:Middlewares/lvgl/src/core/lv_obj_style.c ****         if(found) {
 2924              		.loc 1 547 9 is_stmt 1 view .LVU858
 547:Middlewares/lvgl/src/core/lv_obj_style.c ****         if(found) {
 2925              		.loc 1 547 17 is_stmt 0 view .LVU859
 2926 0076 05AA     		add	r2, sp, #20
 2927 0078 0199     		ldr	r1, [sp, #4]
 2928 007a FFF7FEFF 		bl	lv_style_get_prop
 2929              	.LVL287:
 548:Middlewares/lvgl/src/core/lv_obj_style.c ****             *v = value_tmp;
 2930              		.loc 1 548 9 is_stmt 1 view .LVU860
 548:Middlewares/lvgl/src/core/lv_obj_style.c ****             *v = value_tmp;
 2931              		.loc 1 548 11 is_stmt 0 view .LVU861
 2932 007e 0028     		cmp	r0, #0
 2933 0080 DBD0     		beq	.L197
 549:Middlewares/lvgl/src/core/lv_obj_style.c ****             return true;
ARM GAS  /tmp/ccoxlgn6.s 			page 92


 2934              		.loc 1 549 13 is_stmt 1 view .LVU862
 549:Middlewares/lvgl/src/core/lv_obj_style.c ****             return true;
 2935              		.loc 1 549 16 is_stmt 0 view .LVU863
 2936 0082 059B     		ldr	r3, [sp, #20]
 2937 0084 029A     		ldr	r2, [sp, #8]
 2938 0086 1360     		str	r3, [r2]
 550:Middlewares/lvgl/src/core/lv_obj_style.c ****         }
 2939              		.loc 1 550 13 is_stmt 1 view .LVU864
 550:Middlewares/lvgl/src/core/lv_obj_style.c ****         }
 2940              		.loc 1 550 20 is_stmt 0 view .LVU865
 2941 0088 0120     		movs	r0, #1
 2942              	.LVL288:
 550:Middlewares/lvgl/src/core/lv_obj_style.c ****         }
 2943              		.loc 1 550 20 view .LVU866
 2944 008a 47E0     		b	.L198
 2945              	.LVL289:
 2946              	.L207:
 550:Middlewares/lvgl/src/core/lv_obj_style.c ****         }
 2947              		.loc 1 550 20 view .LVU867
 2948              	.LBE89:
 2949 008c 4FF0FF33 		mov	r3, #-1
 2950 0090 0093     		str	r3, [sp]
 2951 0092 B046     		mov	r8, r6
 2952 0094 05E0     		b	.L202
 2953              	.LVL290:
 2954              	.L209:
 2955              	.LBB90:
 573:Middlewares/lvgl/src/core/lv_obj_style.c ****                 return true;
 2956              		.loc 1 573 17 is_stmt 1 view .LVU868
 573:Middlewares/lvgl/src/core/lv_obj_style.c ****                 return true;
 2957              		.loc 1 573 20 is_stmt 0 view .LVU869
 2958 0096 059B     		ldr	r3, [sp, #20]
 2959 0098 029A     		ldr	r2, [sp, #8]
 2960 009a 1360     		str	r3, [r2]
 574:Middlewares/lvgl/src/core/lv_obj_style.c ****             }
 2961              		.loc 1 574 17 is_stmt 1 view .LVU870
 574:Middlewares/lvgl/src/core/lv_obj_style.c ****             }
 2962              		.loc 1 574 24 is_stmt 0 view .LVU871
 2963 009c 0120     		movs	r0, #1
 2964              	.LVL291:
 574:Middlewares/lvgl/src/core/lv_obj_style.c ****             }
 2965              		.loc 1 574 24 view .LVU872
 2966 009e 3DE0     		b	.L198
 2967              	.L200:
 574:Middlewares/lvgl/src/core/lv_obj_style.c ****             }
 2968              		.loc 1 574 24 view .LVU873
 2969              	.LBE90:
 554:Middlewares/lvgl/src/core/lv_obj_style.c ****         _lv_obj_style_t * obj_style = &obj->styles[i];
 2970              		.loc 1 554 31 is_stmt 1 view .LVU874
 554:Middlewares/lvgl/src/core/lv_obj_style.c ****         _lv_obj_style_t * obj_style = &obj->styles[i];
 2971              		.loc 1 554 32 is_stmt 0 view .LVU875
 2972 00a0 0134     		adds	r4, r4, #1
 2973              	.LVL292:
 2974              	.L202:
 554:Middlewares/lvgl/src/core/lv_obj_style.c ****         _lv_obj_style_t * obj_style = &obj->styles[i];
 2975              		.loc 1 554 11 is_stmt 1 discriminator 1 view .LVU876
 554:Middlewares/lvgl/src/core/lv_obj_style.c ****         _lv_obj_style_t * obj_style = &obj->styles[i];
ARM GAS  /tmp/ccoxlgn6.s 			page 93


 2976              		.loc 1 554 18 is_stmt 0 discriminator 1 view .LVU877
 2977 00a2 B8F82230 		ldrh	r3, [r8, #34]
 2978 00a6 C3F3C503 		ubfx	r3, r3, #3, #6
 554:Middlewares/lvgl/src/core/lv_obj_style.c ****         _lv_obj_style_t * obj_style = &obj->styles[i];
 2979              		.loc 1 554 5 discriminator 1 view .LVU878
 2980 00aa A342     		cmp	r3, r4
 2981 00ac 2FD9     		bls	.L208
 2982              	.LBB91:
 555:Middlewares/lvgl/src/core/lv_obj_style.c ****         lv_part_t part_act = lv_obj_style_get_selector_part(obj->styles[i].selector);
 2983              		.loc 1 555 9 is_stmt 1 view .LVU879
 555:Middlewares/lvgl/src/core/lv_obj_style.c ****         lv_part_t part_act = lv_obj_style_get_selector_part(obj->styles[i].selector);
 2984              		.loc 1 555 43 is_stmt 0 view .LVU880
 2985 00ae D8F80C60 		ldr	r6, [r8, #12]
 555:Middlewares/lvgl/src/core/lv_obj_style.c ****         lv_part_t part_act = lv_obj_style_get_selector_part(obj->styles[i].selector);
 2986              		.loc 1 555 27 view .LVU881
 2987 00b2 06EBC403 		add	r3, r6, r4, lsl #3
 2988              	.LVL293:
 556:Middlewares/lvgl/src/core/lv_obj_style.c ****         lv_state_t state_act = lv_obj_style_get_selector_state(obj->styles[i].selector);
 2989              		.loc 1 556 9 is_stmt 1 view .LVU882
 556:Middlewares/lvgl/src/core/lv_obj_style.c ****         lv_state_t state_act = lv_obj_style_get_selector_state(obj->styles[i].selector);
 2990              		.loc 1 556 75 is_stmt 0 view .LVU883
 2991 00b6 5D68     		ldr	r5, [r3, #4]
 2992 00b8 C5F31705 		ubfx	r5, r5, #0, #24
 556:Middlewares/lvgl/src/core/lv_obj_style.c ****         lv_state_t state_act = lv_obj_style_get_selector_state(obj->styles[i].selector);
 2993              		.loc 1 556 30 view .LVU884
 2994 00bc 2846     		mov	r0, r5
 2995 00be FFF7FEFF 		bl	lv_obj_style_get_selector_part
 2996              	.LVL294:
 556:Middlewares/lvgl/src/core/lv_obj_style.c ****         lv_state_t state_act = lv_obj_style_get_selector_state(obj->styles[i].selector);
 2997              		.loc 1 556 30 view .LVU885
 2998 00c2 0746     		mov	r7, r0
 2999              	.LVL295:
 557:Middlewares/lvgl/src/core/lv_obj_style.c ****         if(part_act != part) continue;
 3000              		.loc 1 557 9 is_stmt 1 view .LVU886
 557:Middlewares/lvgl/src/core/lv_obj_style.c ****         if(part_act != part) continue;
 3001              		.loc 1 557 32 is_stmt 0 view .LVU887
 3002 00c4 2846     		mov	r0, r5
 3003              	.LVL296:
 557:Middlewares/lvgl/src/core/lv_obj_style.c ****         if(part_act != part) continue;
 3004              		.loc 1 557 32 view .LVU888
 3005 00c6 FFF7FEFF 		bl	lv_obj_style_get_selector_state
 3006              	.LVL297:
 3007 00ca 0546     		mov	r5, r0
 3008              	.LVL298:
 558:Middlewares/lvgl/src/core/lv_obj_style.c **** 
 3009              		.loc 1 558 9 is_stmt 1 view .LVU889
 558:Middlewares/lvgl/src/core/lv_obj_style.c **** 
 3010              		.loc 1 558 11 is_stmt 0 view .LVU890
 3011 00cc B945     		cmp	r9, r7
 3012 00ce E7D1     		bne	.L200
 560:Middlewares/lvgl/src/core/lv_obj_style.c **** 
 3013              		.loc 1 560 9 is_stmt 1 view .LVU891
 560:Middlewares/lvgl/src/core/lv_obj_style.c **** 
 3014              		.loc 1 560 22 is_stmt 0 view .LVU892
 3015 00d0 56F83400 		ldr	r0, [r6, r4, lsl #3]
 560:Middlewares/lvgl/src/core/lv_obj_style.c **** 
 3016              		.loc 1 560 29 view .LVU893
ARM GAS  /tmp/ccoxlgn6.s 			page 94


 3017 00d4 8379     		ldrb	r3, [r0, #6]	@ zero_extendqisi2
 560:Middlewares/lvgl/src/core/lv_obj_style.c **** 
 3018              		.loc 1 560 11 view .LVU894
 3019 00d6 13EA0A0F 		tst	r3, r10
 3020 00da E1D0     		beq	.L200
 564:Middlewares/lvgl/src/core/lv_obj_style.c **** 
 3021              		.loc 1 564 9 is_stmt 1 view .LVU895
 564:Middlewares/lvgl/src/core/lv_obj_style.c **** 
 3022              		.loc 1 564 11 is_stmt 0 view .LVU896
 3023 00dc 1BEA050F 		tst	fp, r5
 3024 00e0 DED1     		bne	.L200
 567:Middlewares/lvgl/src/core/lv_obj_style.c **** 
 3025              		.loc 1 567 9 is_stmt 1 view .LVU897
 567:Middlewares/lvgl/src/core/lv_obj_style.c **** 
 3026              		.loc 1 567 11 is_stmt 0 view .LVU898
 3027 00e2 009B     		ldr	r3, [sp]
 3028 00e4 9D42     		cmp	r5, r3
 3029 00e6 DBDD     		ble	.L200
 569:Middlewares/lvgl/src/core/lv_obj_style.c **** 
 3030              		.loc 1 569 9 is_stmt 1 view .LVU899
 569:Middlewares/lvgl/src/core/lv_obj_style.c **** 
 3031              		.loc 1 569 17 is_stmt 0 view .LVU900
 3032 00e8 05AA     		add	r2, sp, #20
 3033 00ea 0199     		ldr	r1, [sp, #4]
 3034 00ec FFF7FEFF 		bl	lv_style_get_prop
 3035              	.LVL299:
 571:Middlewares/lvgl/src/core/lv_obj_style.c ****             if(state_act == state) {
 3036              		.loc 1 571 9 is_stmt 1 view .LVU901
 571:Middlewares/lvgl/src/core/lv_obj_style.c ****             if(state_act == state) {
 3037              		.loc 1 571 11 is_stmt 0 view .LVU902
 3038 00f0 0028     		cmp	r0, #0
 3039 00f2 D5D0     		beq	.L200
 572:Middlewares/lvgl/src/core/lv_obj_style.c ****                 *v = value_tmp;
 3040              		.loc 1 572 13 is_stmt 1 view .LVU903
 572:Middlewares/lvgl/src/core/lv_obj_style.c ****                 *v = value_tmp;
 3041              		.loc 1 572 15 is_stmt 0 view .LVU904
 3042 00f4 039B     		ldr	r3, [sp, #12]
 3043 00f6 AB42     		cmp	r3, r5
 3044 00f8 CDD0     		beq	.L209
 576:Middlewares/lvgl/src/core/lv_obj_style.c ****                 weight = state_act;
 3045              		.loc 1 576 13 is_stmt 1 view .LVU905
 577:Middlewares/lvgl/src/core/lv_obj_style.c ****                 *v = value_tmp;
 3046              		.loc 1 577 17 view .LVU906
 3047              	.LVL300:
 578:Middlewares/lvgl/src/core/lv_obj_style.c ****             }
 3048              		.loc 1 578 17 view .LVU907
 578:Middlewares/lvgl/src/core/lv_obj_style.c ****             }
 3049              		.loc 1 578 20 is_stmt 0 view .LVU908
 3050 00fa 059B     		ldr	r3, [sp, #20]
 3051 00fc 029A     		ldr	r2, [sp, #8]
 3052 00fe 1360     		str	r3, [r2]
 577:Middlewares/lvgl/src/core/lv_obj_style.c ****                 *v = value_tmp;
 3053              		.loc 1 577 24 view .LVU909
 3054 0100 0095     		str	r5, [sp]
 3055 0102 CDE7     		b	.L200
 3056              	.LVL301:
 3057              	.L204:
ARM GAS  /tmp/ccoxlgn6.s 			page 95


 577:Middlewares/lvgl/src/core/lv_obj_style.c ****                 *v = value_tmp;
 3058              		.loc 1 577 24 view .LVU910
 3059              	.LBE91:
 3060 0104 4FF0FF33 		mov	r3, #-1
 3061              	.LVL302:
 577:Middlewares/lvgl/src/core/lv_obj_style.c ****                 *v = value_tmp;
 3062              		.loc 1 577 24 view .LVU911
 3063 0108 0093     		str	r3, [sp]
 3064 010a B046     		mov	r8, r6
 3065 010c C9E7     		b	.L202
 3066              	.LVL303:
 3067              	.L208:
 583:Middlewares/lvgl/src/core/lv_obj_style.c ****         *v = value_tmp;
 3068              		.loc 1 583 5 is_stmt 1 view .LVU912
 583:Middlewares/lvgl/src/core/lv_obj_style.c ****         *v = value_tmp;
 3069              		.loc 1 583 7 is_stmt 0 view .LVU913
 3070 010e 009B     		ldr	r3, [sp]
 3071 0110 002B     		cmp	r3, #0
 3072 0112 06DB     		blt	.L205
 584:Middlewares/lvgl/src/core/lv_obj_style.c ****         return true;
 3073              		.loc 1 584 9 is_stmt 1 view .LVU914
 584:Middlewares/lvgl/src/core/lv_obj_style.c ****         return true;
 3074              		.loc 1 584 12 is_stmt 0 view .LVU915
 3075 0114 059B     		ldr	r3, [sp, #20]
 3076 0116 029A     		ldr	r2, [sp, #8]
 3077 0118 1360     		str	r3, [r2]
 585:Middlewares/lvgl/src/core/lv_obj_style.c ****     }
 3078              		.loc 1 585 9 is_stmt 1 view .LVU916
 585:Middlewares/lvgl/src/core/lv_obj_style.c ****     }
 3079              		.loc 1 585 16 is_stmt 0 view .LVU917
 3080 011a 0120     		movs	r0, #1
 3081              	.LVL304:
 3082              	.L198:
 588:Middlewares/lvgl/src/core/lv_obj_style.c **** 
 3083              		.loc 1 588 1 view .LVU918
 3084 011c 07B0     		add	sp, sp, #28
 3085              	.LCFI31:
 3086              		.cfi_remember_state
 3087              		.cfi_def_cfa_offset 36
 3088              		@ sp needed
 3089 011e BDE8F08F 		pop	{r4, r5, r6, r7, r8, r9, r10, fp, pc}
 3090              	.LVL305:
 3091              	.L205:
 3092              	.LCFI32:
 3093              		.cfi_restore_state
 587:Middlewares/lvgl/src/core/lv_obj_style.c **** }
 3094              		.loc 1 587 17 view .LVU919
 3095 0122 0020     		movs	r0, #0
 3096 0124 FAE7     		b	.L198
 3097              		.cfi_endproc
 3098              	.LFE171:
 3100              		.section	.text.lv_obj_get_style_prop,"ax",%progbits
 3101              		.align	1
 3102              		.global	lv_obj_get_style_prop
 3103              		.syntax unified
 3104              		.thumb
 3105              		.thumb_func
ARM GAS  /tmp/ccoxlgn6.s 			page 96


 3106              		.fpu fpv5-d16
 3108              	lv_obj_get_style_prop:
 3109              	.LVL306:
 3110              	.LFB159:
 207:Middlewares/lvgl/src/core/lv_obj_style.c ****     lv_style_value_t value_act;
 3111              		.loc 1 207 1 is_stmt 1 view -0
 3112              		.cfi_startproc
 3113              		@ args = 0, pretend = 0, frame = 8
 3114              		@ frame_needed = 0, uses_anonymous_args = 0
 207:Middlewares/lvgl/src/core/lv_obj_style.c ****     lv_style_value_t value_act;
 3115              		.loc 1 207 1 is_stmt 0 view .LVU921
 3116 0000 2DE9F043 		push	{r4, r5, r6, r7, r8, r9, lr}
 3117              	.LCFI33:
 3118              		.cfi_def_cfa_offset 28
 3119              		.cfi_offset 4, -28
 3120              		.cfi_offset 5, -24
 3121              		.cfi_offset 6, -20
 3122              		.cfi_offset 7, -16
 3123              		.cfi_offset 8, -12
 3124              		.cfi_offset 9, -8
 3125              		.cfi_offset 14, -4
 3126 0004 83B0     		sub	sp, sp, #12
 3127              	.LCFI34:
 3128              		.cfi_def_cfa_offset 40
 3129 0006 0446     		mov	r4, r0
 3130 0008 0D46     		mov	r5, r1
 3131 000a 1646     		mov	r6, r2
 208:Middlewares/lvgl/src/core/lv_obj_style.c ****     bool inherit = prop & LV_STYLE_PROP_INHERIT ? true : false;
 3132              		.loc 1 208 5 is_stmt 1 view .LVU922
 209:Middlewares/lvgl/src/core/lv_obj_style.c ****     bool filter = prop & LV_STYLE_PROP_FILTER ? true : false;
 3133              		.loc 1 209 5 view .LVU923
 209:Middlewares/lvgl/src/core/lv_obj_style.c ****     bool filter = prop & LV_STYLE_PROP_FILTER ? true : false;
 3134              		.loc 1 209 56 is_stmt 0 view .LVU924
 3135 000c C2F38028 		ubfx	r8, r2, #10, #1
 3136              	.LVL307:
 210:Middlewares/lvgl/src/core/lv_obj_style.c ****     if(filter) {
 3137              		.loc 1 210 5 is_stmt 1 view .LVU925
 210:Middlewares/lvgl/src/core/lv_obj_style.c ****     if(filter) {
 3138              		.loc 1 210 54 is_stmt 0 view .LVU926
 3139 0010 C2F38039 		ubfx	r9, r2, #14, #1
 3140              	.LVL308:
 211:Middlewares/lvgl/src/core/lv_obj_style.c ****         prop &= ~LV_STYLE_PROP_FILTER;
 3141              		.loc 1 211 5 is_stmt 1 view .LVU927
 211:Middlewares/lvgl/src/core/lv_obj_style.c ****         prop &= ~LV_STYLE_PROP_FILTER;
 3142              		.loc 1 211 7 is_stmt 0 view .LVU928
 3143 0014 12F4804F 		tst	r2, #16384
 3144 0018 02D0     		beq	.L211
 212:Middlewares/lvgl/src/core/lv_obj_style.c ****     }
 3145              		.loc 1 212 9 is_stmt 1 view .LVU929
 212:Middlewares/lvgl/src/core/lv_obj_style.c ****     }
 3146              		.loc 1 212 14 is_stmt 0 view .LVU930
 3147 001a 22F48046 		bic	r6, r2, #16384
 3148 001e B6B2     		uxth	r6, r6
 3149              	.LVL309:
 3150              	.L211:
 214:Middlewares/lvgl/src/core/lv_obj_style.c ****     while(obj) {
 3151              		.loc 1 214 5 is_stmt 1 view .LVU931
ARM GAS  /tmp/ccoxlgn6.s 			page 97


 215:Middlewares/lvgl/src/core/lv_obj_style.c ****         found = get_prop_core(obj, part, prop, &value_act);
 3152              		.loc 1 215 5 view .LVU932
 214:Middlewares/lvgl/src/core/lv_obj_style.c ****     while(obj) {
 3153              		.loc 1 214 10 is_stmt 0 view .LVU933
 3154 0020 0027     		movs	r7, #0
 215:Middlewares/lvgl/src/core/lv_obj_style.c ****         found = get_prop_core(obj, part, prop, &value_act);
 3155              		.loc 1 215 10 view .LVU934
 3156 0022 00E0     		b	.L212
 3157              	.LVL310:
 3158              	.L226:
 222:Middlewares/lvgl/src/core/lv_obj_style.c ****             continue;
 3159              		.loc 1 222 18 view .LVU935
 3160 0024 0025     		movs	r5, #0
 3161              	.LVL311:
 3162              	.L212:
 215:Middlewares/lvgl/src/core/lv_obj_style.c ****         found = get_prop_core(obj, part, prop, &value_act);
 3163              		.loc 1 215 10 is_stmt 1 view .LVU936
 3164 0026 8CB1     		cbz	r4, .L213
 216:Middlewares/lvgl/src/core/lv_obj_style.c ****         if(found) break;
 3165              		.loc 1 216 9 view .LVU937
 216:Middlewares/lvgl/src/core/lv_obj_style.c ****         if(found) break;
 3166              		.loc 1 216 17 is_stmt 0 view .LVU938
 3167 0028 01AB     		add	r3, sp, #4
 3168 002a 3246     		mov	r2, r6
 3169 002c 2946     		mov	r1, r5
 3170 002e 2046     		mov	r0, r4
 3171 0030 FFF7FEFF 		bl	get_prop_core
 3172              	.LVL312:
 217:Middlewares/lvgl/src/core/lv_obj_style.c ****         if(!inherit) break;
 3173              		.loc 1 217 9 is_stmt 1 view .LVU939
 217:Middlewares/lvgl/src/core/lv_obj_style.c ****         if(!inherit) break;
 3174              		.loc 1 217 11 is_stmt 0 view .LVU940
 3175 0034 0746     		mov	r7, r0
 3176 0036 48B9     		cbnz	r0, .L213
 218:Middlewares/lvgl/src/core/lv_obj_style.c **** 
 3177              		.loc 1 218 9 is_stmt 1 view .LVU941
 218:Middlewares/lvgl/src/core/lv_obj_style.c **** 
 3178              		.loc 1 218 11 is_stmt 0 view .LVU942
 3179 0038 B8F1000F 		cmp	r8, #0
 3180 003c 06D0     		beq	.L213
 221:Middlewares/lvgl/src/core/lv_obj_style.c ****             part = LV_PART_MAIN;
 3181              		.loc 1 221 9 is_stmt 1 view .LVU943
 221:Middlewares/lvgl/src/core/lv_obj_style.c ****             part = LV_PART_MAIN;
 3182              		.loc 1 221 11 is_stmt 0 view .LVU944
 3183 003e 002D     		cmp	r5, #0
 3184 0040 F0D1     		bne	.L226
 227:Middlewares/lvgl/src/core/lv_obj_style.c ****     }
 3185              		.loc 1 227 9 is_stmt 1 view .LVU945
 227:Middlewares/lvgl/src/core/lv_obj_style.c ****     }
 3186              		.loc 1 227 15 is_stmt 0 view .LVU946
 3187 0042 2046     		mov	r0, r4
 3188              	.LVL313:
 227:Middlewares/lvgl/src/core/lv_obj_style.c ****     }
 3189              		.loc 1 227 15 view .LVU947
 3190 0044 FFF7FEFF 		bl	lv_obj_get_parent
 3191              	.LVL314:
 3192 0048 0446     		mov	r4, r0
ARM GAS  /tmp/ccoxlgn6.s 			page 98


 3193              	.LVL315:
 227:Middlewares/lvgl/src/core/lv_obj_style.c ****     }
 3194              		.loc 1 227 15 view .LVU948
 3195 004a ECE7     		b	.L212
 3196              	.LVL316:
 3197              	.L213:
 230:Middlewares/lvgl/src/core/lv_obj_style.c ****         if(part == LV_PART_MAIN && (prop == LV_STYLE_WIDTH || prop == LV_STYLE_HEIGHT)) {
 3198              		.loc 1 230 5 is_stmt 1 view .LVU949
 230:Middlewares/lvgl/src/core/lv_obj_style.c ****         if(part == LV_PART_MAIN && (prop == LV_STYLE_WIDTH || prop == LV_STYLE_HEIGHT)) {
 3199              		.loc 1 230 7 is_stmt 0 view .LVU950
 3200 004c 37BB     		cbnz	r7, .L216
 231:Middlewares/lvgl/src/core/lv_obj_style.c ****             const lv_obj_class_t * cls = obj->class_p;
 3201              		.loc 1 231 9 is_stmt 1 view .LVU951
 231:Middlewares/lvgl/src/core/lv_obj_style.c ****             const lv_obj_class_t * cls = obj->class_p;
 3202              		.loc 1 231 11 is_stmt 0 view .LVU952
 3203 004e 0DBB     		cbnz	r5, .L217
 231:Middlewares/lvgl/src/core/lv_obj_style.c ****             const lv_obj_class_t * cls = obj->class_p;
 3204              		.loc 1 231 33 discriminator 1 view .LVU953
 3205 0050 41F20102 		movw	r2, #4097
 3206 0054 41F20403 		movw	r3, #4100
 3207 0058 9E42     		cmp	r6, r3
 3208 005a 18BF     		it	ne
 3209 005c 9642     		cmpne	r6, r2
 3210 005e 19D1     		bne	.L217
 3211              	.LBB92:
 232:Middlewares/lvgl/src/core/lv_obj_style.c ****             while(cls) {
 3212              		.loc 1 232 13 is_stmt 1 view .LVU954
 232:Middlewares/lvgl/src/core/lv_obj_style.c ****             while(cls) {
 3213              		.loc 1 232 36 is_stmt 0 view .LVU955
 3214 0060 2368     		ldr	r3, [r4]
 3215              	.LVL317:
 233:Middlewares/lvgl/src/core/lv_obj_style.c ****                 if(prop == LV_STYLE_WIDTH) {
 3216              		.loc 1 233 13 is_stmt 1 view .LVU956
 233:Middlewares/lvgl/src/core/lv_obj_style.c ****                 if(prop == LV_STYLE_WIDTH) {
 3217              		.loc 1 233 18 is_stmt 0 view .LVU957
 3218 0062 03E0     		b	.L218
 3219              	.L228:
 235:Middlewares/lvgl/src/core/lv_obj_style.c ****                 } else {
 3220              		.loc 1 235 21 is_stmt 1 view .LVU958
 235:Middlewares/lvgl/src/core/lv_obj_style.c ****                 } else {
 3221              		.loc 1 235 27 is_stmt 0 view .LVU959
 3222 0064 B3F91420 		ldrsh	r2, [r3, #20]
 235:Middlewares/lvgl/src/core/lv_obj_style.c ****                 } else {
 3223              		.loc 1 235 23 view .LVU960
 3224 0068 4AB9     		cbnz	r2, .L220
 3225              	.L221:
 239:Middlewares/lvgl/src/core/lv_obj_style.c ****             }
 3226              		.loc 1 239 17 is_stmt 1 view .LVU961
 239:Middlewares/lvgl/src/core/lv_obj_style.c ****             }
 3227              		.loc 1 239 21 is_stmt 0 view .LVU962
 3228 006a 1B68     		ldr	r3, [r3]
 3229              	.LVL318:
 3230              	.L218:
 233:Middlewares/lvgl/src/core/lv_obj_style.c ****                 if(prop == LV_STYLE_WIDTH) {
 3231              		.loc 1 233 18 is_stmt 1 view .LVU963
 3232 006c 3BB1     		cbz	r3, .L220
 234:Middlewares/lvgl/src/core/lv_obj_style.c ****                     if(cls->width_def != 0) break;
ARM GAS  /tmp/ccoxlgn6.s 			page 99


 3233              		.loc 1 234 17 view .LVU964
 234:Middlewares/lvgl/src/core/lv_obj_style.c ****                     if(cls->width_def != 0) break;
 3234              		.loc 1 234 19 is_stmt 0 view .LVU965
 3235 006e 41F20102 		movw	r2, #4097
 3236 0072 9642     		cmp	r6, r2
 3237 0074 F6D0     		beq	.L228
 237:Middlewares/lvgl/src/core/lv_obj_style.c ****                 }
 3238              		.loc 1 237 21 is_stmt 1 view .LVU966
 237:Middlewares/lvgl/src/core/lv_obj_style.c ****                 }
 3239              		.loc 1 237 27 is_stmt 0 view .LVU967
 3240 0076 B3F91620 		ldrsh	r2, [r3, #22]
 237:Middlewares/lvgl/src/core/lv_obj_style.c ****                 }
 3241              		.loc 1 237 23 view .LVU968
 3242 007a 002A     		cmp	r2, #0
 3243 007c F5D0     		beq	.L221
 3244              	.L220:
 242:Middlewares/lvgl/src/core/lv_obj_style.c ****         } else {
 3245              		.loc 1 242 13 is_stmt 1 view .LVU969
 242:Middlewares/lvgl/src/core/lv_obj_style.c ****         } else {
 3246              		.loc 1 242 69 is_stmt 0 view .LVU970
 3247 007e 41F20102 		movw	r2, #4097
 3248 0082 9642     		cmp	r6, r2
 3249 0084 03D0     		beq	.L229
 242:Middlewares/lvgl/src/core/lv_obj_style.c ****         } else {
 3250              		.loc 1 242 74 discriminator 2 view .LVU971
 3251 0086 B3F91630 		ldrsh	r3, [r3, #22]
 3252              	.LVL319:
 3253              	.L224:
 242:Middlewares/lvgl/src/core/lv_obj_style.c ****         } else {
 3254              		.loc 1 242 27 discriminator 4 view .LVU972
 3255 008a 0193     		str	r3, [sp, #4]
 3256              	.LBE92:
 231:Middlewares/lvgl/src/core/lv_obj_style.c ****             const lv_obj_class_t * cls = obj->class_p;
 3257              		.loc 1 231 89 discriminator 4 view .LVU973
 3258 008c 06E0     		b	.L216
 3259              	.LVL320:
 3260              	.L229:
 3261              	.LBB93:
 242:Middlewares/lvgl/src/core/lv_obj_style.c ****         } else {
 3262              		.loc 1 242 57 discriminator 1 view .LVU974
 3263 008e B3F91430 		ldrsh	r3, [r3, #20]
 3264              	.LVL321:
 242:Middlewares/lvgl/src/core/lv_obj_style.c ****         } else {
 3265              		.loc 1 242 57 discriminator 1 view .LVU975
 3266 0092 FAE7     		b	.L224
 3267              	.L217:
 242:Middlewares/lvgl/src/core/lv_obj_style.c ****         } else {
 3268              		.loc 1 242 57 discriminator 1 view .LVU976
 3269              	.LBE93:
 244:Middlewares/lvgl/src/core/lv_obj_style.c ****         }
 3270              		.loc 1 244 13 is_stmt 1 view .LVU977
 244:Middlewares/lvgl/src/core/lv_obj_style.c ****         }
 3271              		.loc 1 244 25 is_stmt 0 view .LVU978
 3272 0094 3046     		mov	r0, r6
 3273 0096 FFF7FEFF 		bl	lv_style_prop_get_default
 3274              	.LVL322:
 3275 009a 0190     		str	r0, [sp, #4]
ARM GAS  /tmp/ccoxlgn6.s 			page 100


 3276              	.L216:
 247:Middlewares/lvgl/src/core/lv_obj_style.c ****     return value_act;
 3277              		.loc 1 247 5 is_stmt 1 view .LVU979
 247:Middlewares/lvgl/src/core/lv_obj_style.c ****     return value_act;
 3278              		.loc 1 247 7 is_stmt 0 view .LVU980
 3279 009c B9F1000F 		cmp	r9, #0
 3280 00a0 03D1     		bne	.L230
 3281              	.L225:
 248:Middlewares/lvgl/src/core/lv_obj_style.c **** }
 3282              		.loc 1 248 5 is_stmt 1 view .LVU981
 249:Middlewares/lvgl/src/core/lv_obj_style.c **** 
 3283              		.loc 1 249 1 is_stmt 0 view .LVU982
 3284 00a2 0198     		ldr	r0, [sp, #4]
 3285 00a4 03B0     		add	sp, sp, #12
 3286              	.LCFI35:
 3287              		.cfi_remember_state
 3288              		.cfi_def_cfa_offset 28
 3289              		@ sp needed
 3290 00a6 BDE8F083 		pop	{r4, r5, r6, r7, r8, r9, pc}
 3291              	.LVL323:
 3292              	.L230:
 3293              	.LCFI36:
 3294              		.cfi_restore_state
 247:Middlewares/lvgl/src/core/lv_obj_style.c ****     return value_act;
 3295              		.loc 1 247 16 is_stmt 1 discriminator 1 view .LVU983
 247:Middlewares/lvgl/src/core/lv_obj_style.c ****     return value_act;
 3296              		.loc 1 247 28 is_stmt 0 discriminator 1 view .LVU984
 3297 00aa 019A     		ldr	r2, [sp, #4]
 3298 00ac 2946     		mov	r1, r5
 3299 00ae 2046     		mov	r0, r4
 3300 00b0 FFF7FEFF 		bl	apply_color_filter
 3301              	.LVL324:
 3302 00b4 0190     		str	r0, [sp, #4]
 3303 00b6 F4E7     		b	.L225
 3304              		.cfi_endproc
 3305              	.LFE159:
 3307              		.section	.text.apply_color_filter,"ax",%progbits
 3308              		.align	1
 3309              		.syntax unified
 3310              		.thumb
 3311              		.thumb_func
 3312              		.fpu fpv5-d16
 3314              	apply_color_filter:
 3315              	.LVL325:
 3316              	.LFB172:
 591:Middlewares/lvgl/src/core/lv_obj_style.c ****     if(obj == NULL) return v;
 3317              		.loc 1 591 1 is_stmt 1 view -0
 3318              		.cfi_startproc
 3319              		@ args = 0, pretend = 0, frame = 0
 3320              		@ frame_needed = 0, uses_anonymous_args = 0
 591:Middlewares/lvgl/src/core/lv_obj_style.c ****     if(obj == NULL) return v;
 3321              		.loc 1 591 1 is_stmt 0 view .LVU986
 3322 0000 F8B5     		push	{r3, r4, r5, r6, r7, lr}
 3323              	.LCFI37:
 3324              		.cfi_def_cfa_offset 24
 3325              		.cfi_offset 3, -24
 3326              		.cfi_offset 4, -20
ARM GAS  /tmp/ccoxlgn6.s 			page 101


 3327              		.cfi_offset 5, -16
 3328              		.cfi_offset 6, -12
 3329              		.cfi_offset 7, -8
 3330              		.cfi_offset 14, -4
 3331 0002 1446     		mov	r4, r2
 3332              	.LVL326:
 592:Middlewares/lvgl/src/core/lv_obj_style.c ****     const lv_color_filter_dsc_t * f = lv_obj_get_style_color_filter_dsc(obj, part);
 3333              		.loc 1 592 5 is_stmt 1 view .LVU987
 592:Middlewares/lvgl/src/core/lv_obj_style.c ****     const lv_color_filter_dsc_t * f = lv_obj_get_style_color_filter_dsc(obj, part);
 3334              		.loc 1 592 7 is_stmt 0 view .LVU988
 3335 0004 C0B1     		cbz	r0, .L236
 3336 0006 0D46     		mov	r5, r1
 3337 0008 0646     		mov	r6, r0
 593:Middlewares/lvgl/src/core/lv_obj_style.c ****     if(f && f->filter_cb) {
 3338              		.loc 1 593 5 is_stmt 1 view .LVU989
 3339              	.LVL327:
 3340              	.LBB94:
 3341              	.LBI94:
 3342              		.file 4 "Middlewares/lvgl/src/core/lv_obj_style_gen.h"
   1:Middlewares/lvgl/src/core/lv_obj_style_gen.h **** static inline lv_coord_t lv_obj_get_style_width(const struct _lv_obj_t * obj, uint32_t part)
   2:Middlewares/lvgl/src/core/lv_obj_style_gen.h **** {
   3:Middlewares/lvgl/src/core/lv_obj_style_gen.h ****     lv_style_value_t v = lv_obj_get_style_prop(obj, part, LV_STYLE_WIDTH);
   4:Middlewares/lvgl/src/core/lv_obj_style_gen.h ****     return (lv_coord_t)v.num;
   5:Middlewares/lvgl/src/core/lv_obj_style_gen.h **** }
   6:Middlewares/lvgl/src/core/lv_obj_style_gen.h **** 
   7:Middlewares/lvgl/src/core/lv_obj_style_gen.h **** static inline lv_coord_t lv_obj_get_style_min_width(const struct _lv_obj_t * obj, uint32_t part)
   8:Middlewares/lvgl/src/core/lv_obj_style_gen.h **** {
   9:Middlewares/lvgl/src/core/lv_obj_style_gen.h ****     lv_style_value_t v = lv_obj_get_style_prop(obj, part, LV_STYLE_MIN_WIDTH);
  10:Middlewares/lvgl/src/core/lv_obj_style_gen.h ****     return (lv_coord_t)v.num;
  11:Middlewares/lvgl/src/core/lv_obj_style_gen.h **** }
  12:Middlewares/lvgl/src/core/lv_obj_style_gen.h **** 
  13:Middlewares/lvgl/src/core/lv_obj_style_gen.h **** static inline lv_coord_t lv_obj_get_style_max_width(const struct _lv_obj_t * obj, uint32_t part)
  14:Middlewares/lvgl/src/core/lv_obj_style_gen.h **** {
  15:Middlewares/lvgl/src/core/lv_obj_style_gen.h ****     lv_style_value_t v = lv_obj_get_style_prop(obj, part, LV_STYLE_MAX_WIDTH);
  16:Middlewares/lvgl/src/core/lv_obj_style_gen.h ****     return (lv_coord_t)v.num;
  17:Middlewares/lvgl/src/core/lv_obj_style_gen.h **** }
  18:Middlewares/lvgl/src/core/lv_obj_style_gen.h **** 
  19:Middlewares/lvgl/src/core/lv_obj_style_gen.h **** static inline lv_coord_t lv_obj_get_style_height(const struct _lv_obj_t * obj, uint32_t part)
  20:Middlewares/lvgl/src/core/lv_obj_style_gen.h **** {
  21:Middlewares/lvgl/src/core/lv_obj_style_gen.h ****     lv_style_value_t v = lv_obj_get_style_prop(obj, part, LV_STYLE_HEIGHT);
  22:Middlewares/lvgl/src/core/lv_obj_style_gen.h ****     return (lv_coord_t)v.num;
  23:Middlewares/lvgl/src/core/lv_obj_style_gen.h **** }
  24:Middlewares/lvgl/src/core/lv_obj_style_gen.h **** 
  25:Middlewares/lvgl/src/core/lv_obj_style_gen.h **** static inline lv_coord_t lv_obj_get_style_min_height(const struct _lv_obj_t * obj, uint32_t part)
  26:Middlewares/lvgl/src/core/lv_obj_style_gen.h **** {
  27:Middlewares/lvgl/src/core/lv_obj_style_gen.h ****     lv_style_value_t v = lv_obj_get_style_prop(obj, part, LV_STYLE_MIN_HEIGHT);
  28:Middlewares/lvgl/src/core/lv_obj_style_gen.h ****     return (lv_coord_t)v.num;
  29:Middlewares/lvgl/src/core/lv_obj_style_gen.h **** }
  30:Middlewares/lvgl/src/core/lv_obj_style_gen.h **** 
  31:Middlewares/lvgl/src/core/lv_obj_style_gen.h **** static inline lv_coord_t lv_obj_get_style_max_height(const struct _lv_obj_t * obj, uint32_t part)
  32:Middlewares/lvgl/src/core/lv_obj_style_gen.h **** {
  33:Middlewares/lvgl/src/core/lv_obj_style_gen.h ****     lv_style_value_t v = lv_obj_get_style_prop(obj, part, LV_STYLE_MAX_HEIGHT);
  34:Middlewares/lvgl/src/core/lv_obj_style_gen.h ****     return (lv_coord_t)v.num;
  35:Middlewares/lvgl/src/core/lv_obj_style_gen.h **** }
  36:Middlewares/lvgl/src/core/lv_obj_style_gen.h **** 
  37:Middlewares/lvgl/src/core/lv_obj_style_gen.h **** static inline lv_coord_t lv_obj_get_style_x(const struct _lv_obj_t * obj, uint32_t part)
  38:Middlewares/lvgl/src/core/lv_obj_style_gen.h **** {
ARM GAS  /tmp/ccoxlgn6.s 			page 102


  39:Middlewares/lvgl/src/core/lv_obj_style_gen.h ****     lv_style_value_t v = lv_obj_get_style_prop(obj, part, LV_STYLE_X);
  40:Middlewares/lvgl/src/core/lv_obj_style_gen.h ****     return (lv_coord_t)v.num;
  41:Middlewares/lvgl/src/core/lv_obj_style_gen.h **** }
  42:Middlewares/lvgl/src/core/lv_obj_style_gen.h **** 
  43:Middlewares/lvgl/src/core/lv_obj_style_gen.h **** static inline lv_coord_t lv_obj_get_style_y(const struct _lv_obj_t * obj, uint32_t part)
  44:Middlewares/lvgl/src/core/lv_obj_style_gen.h **** {
  45:Middlewares/lvgl/src/core/lv_obj_style_gen.h ****     lv_style_value_t v = lv_obj_get_style_prop(obj, part, LV_STYLE_Y);
  46:Middlewares/lvgl/src/core/lv_obj_style_gen.h ****     return (lv_coord_t)v.num;
  47:Middlewares/lvgl/src/core/lv_obj_style_gen.h **** }
  48:Middlewares/lvgl/src/core/lv_obj_style_gen.h **** 
  49:Middlewares/lvgl/src/core/lv_obj_style_gen.h **** static inline lv_align_t lv_obj_get_style_align(const struct _lv_obj_t * obj, uint32_t part)
  50:Middlewares/lvgl/src/core/lv_obj_style_gen.h **** {
  51:Middlewares/lvgl/src/core/lv_obj_style_gen.h ****     lv_style_value_t v = lv_obj_get_style_prop(obj, part, LV_STYLE_ALIGN);
  52:Middlewares/lvgl/src/core/lv_obj_style_gen.h ****     return (lv_align_t)v.num;
  53:Middlewares/lvgl/src/core/lv_obj_style_gen.h **** }
  54:Middlewares/lvgl/src/core/lv_obj_style_gen.h **** 
  55:Middlewares/lvgl/src/core/lv_obj_style_gen.h **** static inline lv_coord_t lv_obj_get_style_transform_width(const struct _lv_obj_t * obj, uint32_t pa
  56:Middlewares/lvgl/src/core/lv_obj_style_gen.h **** {
  57:Middlewares/lvgl/src/core/lv_obj_style_gen.h ****     lv_style_value_t v = lv_obj_get_style_prop(obj, part, LV_STYLE_TRANSFORM_WIDTH);
  58:Middlewares/lvgl/src/core/lv_obj_style_gen.h ****     return (lv_coord_t)v.num;
  59:Middlewares/lvgl/src/core/lv_obj_style_gen.h **** }
  60:Middlewares/lvgl/src/core/lv_obj_style_gen.h **** 
  61:Middlewares/lvgl/src/core/lv_obj_style_gen.h **** static inline lv_coord_t lv_obj_get_style_transform_height(const struct _lv_obj_t * obj, uint32_t p
  62:Middlewares/lvgl/src/core/lv_obj_style_gen.h **** {
  63:Middlewares/lvgl/src/core/lv_obj_style_gen.h ****     lv_style_value_t v = lv_obj_get_style_prop(obj, part, LV_STYLE_TRANSFORM_HEIGHT);
  64:Middlewares/lvgl/src/core/lv_obj_style_gen.h ****     return (lv_coord_t)v.num;
  65:Middlewares/lvgl/src/core/lv_obj_style_gen.h **** }
  66:Middlewares/lvgl/src/core/lv_obj_style_gen.h **** 
  67:Middlewares/lvgl/src/core/lv_obj_style_gen.h **** static inline lv_coord_t lv_obj_get_style_translate_x(const struct _lv_obj_t * obj, uint32_t part)
  68:Middlewares/lvgl/src/core/lv_obj_style_gen.h **** {
  69:Middlewares/lvgl/src/core/lv_obj_style_gen.h ****     lv_style_value_t v = lv_obj_get_style_prop(obj, part, LV_STYLE_TRANSLATE_X);
  70:Middlewares/lvgl/src/core/lv_obj_style_gen.h ****     return (lv_coord_t)v.num;
  71:Middlewares/lvgl/src/core/lv_obj_style_gen.h **** }
  72:Middlewares/lvgl/src/core/lv_obj_style_gen.h **** 
  73:Middlewares/lvgl/src/core/lv_obj_style_gen.h **** static inline lv_coord_t lv_obj_get_style_translate_y(const struct _lv_obj_t * obj, uint32_t part)
  74:Middlewares/lvgl/src/core/lv_obj_style_gen.h **** {
  75:Middlewares/lvgl/src/core/lv_obj_style_gen.h ****     lv_style_value_t v = lv_obj_get_style_prop(obj, part, LV_STYLE_TRANSLATE_Y);
  76:Middlewares/lvgl/src/core/lv_obj_style_gen.h ****     return (lv_coord_t)v.num;
  77:Middlewares/lvgl/src/core/lv_obj_style_gen.h **** }
  78:Middlewares/lvgl/src/core/lv_obj_style_gen.h **** 
  79:Middlewares/lvgl/src/core/lv_obj_style_gen.h **** static inline lv_coord_t lv_obj_get_style_transform_zoom(const struct _lv_obj_t * obj, uint32_t par
  80:Middlewares/lvgl/src/core/lv_obj_style_gen.h **** {
  81:Middlewares/lvgl/src/core/lv_obj_style_gen.h ****     lv_style_value_t v = lv_obj_get_style_prop(obj, part, LV_STYLE_TRANSFORM_ZOOM);
  82:Middlewares/lvgl/src/core/lv_obj_style_gen.h ****     return (lv_coord_t)v.num;
  83:Middlewares/lvgl/src/core/lv_obj_style_gen.h **** }
  84:Middlewares/lvgl/src/core/lv_obj_style_gen.h **** 
  85:Middlewares/lvgl/src/core/lv_obj_style_gen.h **** static inline lv_coord_t lv_obj_get_style_transform_angle(const struct _lv_obj_t * obj, uint32_t pa
  86:Middlewares/lvgl/src/core/lv_obj_style_gen.h **** {
  87:Middlewares/lvgl/src/core/lv_obj_style_gen.h ****     lv_style_value_t v = lv_obj_get_style_prop(obj, part, LV_STYLE_TRANSFORM_ANGLE);
  88:Middlewares/lvgl/src/core/lv_obj_style_gen.h ****     return (lv_coord_t)v.num;
  89:Middlewares/lvgl/src/core/lv_obj_style_gen.h **** }
  90:Middlewares/lvgl/src/core/lv_obj_style_gen.h **** 
  91:Middlewares/lvgl/src/core/lv_obj_style_gen.h **** static inline lv_coord_t lv_obj_get_style_pad_top(const struct _lv_obj_t * obj, uint32_t part)
  92:Middlewares/lvgl/src/core/lv_obj_style_gen.h **** {
  93:Middlewares/lvgl/src/core/lv_obj_style_gen.h ****     lv_style_value_t v = lv_obj_get_style_prop(obj, part, LV_STYLE_PAD_TOP);
  94:Middlewares/lvgl/src/core/lv_obj_style_gen.h ****     return (lv_coord_t)v.num;
  95:Middlewares/lvgl/src/core/lv_obj_style_gen.h **** }
ARM GAS  /tmp/ccoxlgn6.s 			page 103


  96:Middlewares/lvgl/src/core/lv_obj_style_gen.h **** 
  97:Middlewares/lvgl/src/core/lv_obj_style_gen.h **** static inline lv_coord_t lv_obj_get_style_pad_bottom(const struct _lv_obj_t * obj, uint32_t part)
  98:Middlewares/lvgl/src/core/lv_obj_style_gen.h **** {
  99:Middlewares/lvgl/src/core/lv_obj_style_gen.h ****     lv_style_value_t v = lv_obj_get_style_prop(obj, part, LV_STYLE_PAD_BOTTOM);
 100:Middlewares/lvgl/src/core/lv_obj_style_gen.h ****     return (lv_coord_t)v.num;
 101:Middlewares/lvgl/src/core/lv_obj_style_gen.h **** }
 102:Middlewares/lvgl/src/core/lv_obj_style_gen.h **** 
 103:Middlewares/lvgl/src/core/lv_obj_style_gen.h **** static inline lv_coord_t lv_obj_get_style_pad_left(const struct _lv_obj_t * obj, uint32_t part)
 104:Middlewares/lvgl/src/core/lv_obj_style_gen.h **** {
 105:Middlewares/lvgl/src/core/lv_obj_style_gen.h ****     lv_style_value_t v = lv_obj_get_style_prop(obj, part, LV_STYLE_PAD_LEFT);
 106:Middlewares/lvgl/src/core/lv_obj_style_gen.h ****     return (lv_coord_t)v.num;
 107:Middlewares/lvgl/src/core/lv_obj_style_gen.h **** }
 108:Middlewares/lvgl/src/core/lv_obj_style_gen.h **** 
 109:Middlewares/lvgl/src/core/lv_obj_style_gen.h **** static inline lv_coord_t lv_obj_get_style_pad_right(const struct _lv_obj_t * obj, uint32_t part)
 110:Middlewares/lvgl/src/core/lv_obj_style_gen.h **** {
 111:Middlewares/lvgl/src/core/lv_obj_style_gen.h ****     lv_style_value_t v = lv_obj_get_style_prop(obj, part, LV_STYLE_PAD_RIGHT);
 112:Middlewares/lvgl/src/core/lv_obj_style_gen.h ****     return (lv_coord_t)v.num;
 113:Middlewares/lvgl/src/core/lv_obj_style_gen.h **** }
 114:Middlewares/lvgl/src/core/lv_obj_style_gen.h **** 
 115:Middlewares/lvgl/src/core/lv_obj_style_gen.h **** static inline lv_coord_t lv_obj_get_style_pad_row(const struct _lv_obj_t * obj, uint32_t part)
 116:Middlewares/lvgl/src/core/lv_obj_style_gen.h **** {
 117:Middlewares/lvgl/src/core/lv_obj_style_gen.h ****     lv_style_value_t v = lv_obj_get_style_prop(obj, part, LV_STYLE_PAD_ROW);
 118:Middlewares/lvgl/src/core/lv_obj_style_gen.h ****     return (lv_coord_t)v.num;
 119:Middlewares/lvgl/src/core/lv_obj_style_gen.h **** }
 120:Middlewares/lvgl/src/core/lv_obj_style_gen.h **** 
 121:Middlewares/lvgl/src/core/lv_obj_style_gen.h **** static inline lv_coord_t lv_obj_get_style_pad_column(const struct _lv_obj_t * obj, uint32_t part)
 122:Middlewares/lvgl/src/core/lv_obj_style_gen.h **** {
 123:Middlewares/lvgl/src/core/lv_obj_style_gen.h ****     lv_style_value_t v = lv_obj_get_style_prop(obj, part, LV_STYLE_PAD_COLUMN);
 124:Middlewares/lvgl/src/core/lv_obj_style_gen.h ****     return (lv_coord_t)v.num;
 125:Middlewares/lvgl/src/core/lv_obj_style_gen.h **** }
 126:Middlewares/lvgl/src/core/lv_obj_style_gen.h **** 
 127:Middlewares/lvgl/src/core/lv_obj_style_gen.h **** static inline lv_coord_t lv_obj_get_style_radius(const struct _lv_obj_t * obj, uint32_t part)
 128:Middlewares/lvgl/src/core/lv_obj_style_gen.h **** {
 129:Middlewares/lvgl/src/core/lv_obj_style_gen.h ****     lv_style_value_t v = lv_obj_get_style_prop(obj, part, LV_STYLE_RADIUS);
 130:Middlewares/lvgl/src/core/lv_obj_style_gen.h ****     return (lv_coord_t)v.num;
 131:Middlewares/lvgl/src/core/lv_obj_style_gen.h **** }
 132:Middlewares/lvgl/src/core/lv_obj_style_gen.h **** 
 133:Middlewares/lvgl/src/core/lv_obj_style_gen.h **** static inline bool lv_obj_get_style_clip_corner(const struct _lv_obj_t * obj, uint32_t part)
 134:Middlewares/lvgl/src/core/lv_obj_style_gen.h **** {
 135:Middlewares/lvgl/src/core/lv_obj_style_gen.h ****     lv_style_value_t v = lv_obj_get_style_prop(obj, part, LV_STYLE_CLIP_CORNER);
 136:Middlewares/lvgl/src/core/lv_obj_style_gen.h ****     return (bool)v.num;
 137:Middlewares/lvgl/src/core/lv_obj_style_gen.h **** }
 138:Middlewares/lvgl/src/core/lv_obj_style_gen.h **** 
 139:Middlewares/lvgl/src/core/lv_obj_style_gen.h **** static inline lv_opa_t lv_obj_get_style_opa(const struct _lv_obj_t * obj, uint32_t part)
 140:Middlewares/lvgl/src/core/lv_obj_style_gen.h **** {
 141:Middlewares/lvgl/src/core/lv_obj_style_gen.h ****     lv_style_value_t v = lv_obj_get_style_prop(obj, part, LV_STYLE_OPA);
 142:Middlewares/lvgl/src/core/lv_obj_style_gen.h ****     return (lv_opa_t)v.num;
 143:Middlewares/lvgl/src/core/lv_obj_style_gen.h **** }
 144:Middlewares/lvgl/src/core/lv_obj_style_gen.h **** 
 145:Middlewares/lvgl/src/core/lv_obj_style_gen.h **** static inline const lv_color_filter_dsc_t * lv_obj_get_style_color_filter_dsc(const struct _lv_obj_
 3343              		.loc 4 145 45 view .LVU990
 3344              	.LBB95:
 146:Middlewares/lvgl/src/core/lv_obj_style_gen.h **** {
 147:Middlewares/lvgl/src/core/lv_obj_style_gen.h ****     lv_style_value_t v = lv_obj_get_style_prop(obj, part, LV_STYLE_COLOR_FILTER_DSC);
 3345              		.loc 4 147 5 view .LVU991
 3346              		.loc 4 147 26 is_stmt 0 view .LVU992
 3347 000a 6322     		movs	r2, #99
ARM GAS  /tmp/ccoxlgn6.s 			page 104


 3348 000c FFF7FEFF 		bl	lv_obj_get_style_prop
 3349              	.LVL328:
 148:Middlewares/lvgl/src/core/lv_obj_style_gen.h ****     return (const lv_color_filter_dsc_t *)v.ptr;
 3350              		.loc 4 148 5 is_stmt 1 view .LVU993
 3351              		.loc 4 148 5 is_stmt 0 view .LVU994
 3352              	.LBE95:
 3353              	.LBE94:
 594:Middlewares/lvgl/src/core/lv_obj_style.c ****         lv_opa_t f_opa = lv_obj_get_style_color_filter_opa(obj, part);
 3354              		.loc 1 594 5 is_stmt 1 view .LVU995
 594:Middlewares/lvgl/src/core/lv_obj_style.c ****         lv_opa_t f_opa = lv_obj_get_style_color_filter_opa(obj, part);
 3355              		.loc 1 594 7 is_stmt 0 view .LVU996
 3356 0010 0746     		mov	r7, r0
 3357 0012 78B1     		cbz	r0, .L234
 594:Middlewares/lvgl/src/core/lv_obj_style.c ****         lv_opa_t f_opa = lv_obj_get_style_color_filter_opa(obj, part);
 3358              		.loc 1 594 14 discriminator 1 view .LVU997
 3359 0014 0368     		ldr	r3, [r0]
 594:Middlewares/lvgl/src/core/lv_obj_style.c ****         lv_opa_t f_opa = lv_obj_get_style_color_filter_opa(obj, part);
 3360              		.loc 1 594 10 discriminator 1 view .LVU998
 3361 0016 6BB1     		cbz	r3, .L234
 3362              	.LBB96:
 595:Middlewares/lvgl/src/core/lv_obj_style.c ****         if(f_opa != 0) v.color = f->filter_cb(f, v.color, f_opa);
 3363              		.loc 1 595 9 is_stmt 1 view .LVU999
 3364              	.LVL329:
 3365              	.LBB97:
 3366              	.LBI97:
 149:Middlewares/lvgl/src/core/lv_obj_style_gen.h **** }
 150:Middlewares/lvgl/src/core/lv_obj_style_gen.h **** 
 151:Middlewares/lvgl/src/core/lv_obj_style_gen.h **** static inline lv_opa_t lv_obj_get_style_color_filter_opa(const struct _lv_obj_t * obj, uint32_t par
 3367              		.loc 4 151 24 view .LVU1000
 3368              	.LBB98:
 152:Middlewares/lvgl/src/core/lv_obj_style_gen.h **** {
 153:Middlewares/lvgl/src/core/lv_obj_style_gen.h ****     lv_style_value_t v = lv_obj_get_style_prop(obj, part, LV_STYLE_COLOR_FILTER_OPA);
 3369              		.loc 4 153 5 view .LVU1001
 3370              		.loc 4 153 26 is_stmt 0 view .LVU1002
 3371 0018 6422     		movs	r2, #100
 3372 001a 2946     		mov	r1, r5
 3373 001c 3046     		mov	r0, r6
 3374              	.LVL330:
 3375              		.loc 4 153 26 view .LVU1003
 3376 001e FFF7FEFF 		bl	lv_obj_get_style_prop
 3377              	.LVL331:
 154:Middlewares/lvgl/src/core/lv_obj_style_gen.h ****     return (lv_opa_t)v.num;
 3378              		.loc 4 154 5 is_stmt 1 view .LVU1004
 3379              		.loc 4 154 5 is_stmt 0 view .LVU1005
 3380              	.LBE98:
 3381              	.LBE97:
 596:Middlewares/lvgl/src/core/lv_obj_style.c ****     }
 3382              		.loc 1 596 9 is_stmt 1 view .LVU1006
 596:Middlewares/lvgl/src/core/lv_obj_style.c ****     }
 3383              		.loc 1 596 11 is_stmt 0 view .LVU1007
 3384 0022 10F0FF02 		ands	r2, r0, #255
 3385 0026 05D0     		beq	.L234
 596:Middlewares/lvgl/src/core/lv_obj_style.c ****     }
 3386              		.loc 1 596 24 is_stmt 1 discriminator 1 view .LVU1008
 596:Middlewares/lvgl/src/core/lv_obj_style.c ****     }
 3387              		.loc 1 596 35 is_stmt 0 discriminator 1 view .LVU1009
 3388 0028 3B68     		ldr	r3, [r7]
ARM GAS  /tmp/ccoxlgn6.s 			page 105


 596:Middlewares/lvgl/src/core/lv_obj_style.c ****     }
 3389              		.loc 1 596 34 discriminator 1 view .LVU1010
 3390 002a 2146     		mov	r1, r4	@ movhi
 3391 002c 3846     		mov	r0, r7
 3392              	.LVL332:
 596:Middlewares/lvgl/src/core/lv_obj_style.c ****     }
 3393              		.loc 1 596 34 discriminator 1 view .LVU1011
 3394 002e 9847     		blx	r3
 3395              	.LVL333:
 3396 0030 60F30F04 		bfi	r4, r0, #0, #16
 3397              	.LVL334:
 3398              	.L234:
 596:Middlewares/lvgl/src/core/lv_obj_style.c ****     }
 3399              		.loc 1 596 34 discriminator 1 view .LVU1012
 3400              	.LBE96:
 598:Middlewares/lvgl/src/core/lv_obj_style.c **** }
 3401              		.loc 1 598 5 is_stmt 1 view .LVU1013
 598:Middlewares/lvgl/src/core/lv_obj_style.c **** }
 3402              		.loc 1 598 12 is_stmt 0 view .LVU1014
 3403 0034 2046     		mov	r0, r4
 3404              	.LVL335:
 3405              	.L233:
 599:Middlewares/lvgl/src/core/lv_obj_style.c **** 
 3406              		.loc 1 599 1 view .LVU1015
 3407 0036 F8BD     		pop	{r3, r4, r5, r6, r7, pc}
 3408              	.LVL336:
 3409              	.L236:
 592:Middlewares/lvgl/src/core/lv_obj_style.c ****     const lv_color_filter_dsc_t * f = lv_obj_get_style_color_filter_dsc(obj, part);
 3410              		.loc 1 592 21 is_stmt 1 discriminator 1 view .LVU1016
 592:Middlewares/lvgl/src/core/lv_obj_style.c ****     const lv_color_filter_dsc_t * f = lv_obj_get_style_color_filter_dsc(obj, part);
 3411              		.loc 1 592 28 is_stmt 0 discriminator 1 view .LVU1017
 3412 0038 1046     		mov	r0, r2
 3413              	.LVL337:
 592:Middlewares/lvgl/src/core/lv_obj_style.c ****     const lv_color_filter_dsc_t * f = lv_obj_get_style_color_filter_dsc(obj, part);
 3414              		.loc 1 592 28 discriminator 1 view .LVU1018
 3415 003a FCE7     		b	.L233
 3416              		.cfi_endproc
 3417              	.LFE172:
 3419              		.section	.text._lv_obj_style_create_transition,"ax",%progbits
 3420              		.align	1
 3421              		.global	_lv_obj_style_create_transition
 3422              		.syntax unified
 3423              		.thumb
 3424              		.thumb_func
 3425              		.fpu fpv5-d16
 3427              	_lv_obj_style_create_transition:
 3428              	.LVL338:
 3429              	.LFB163:
 293:Middlewares/lvgl/src/core/lv_obj_style.c ****     trans_t * tr;
 3430              		.loc 1 293 1 is_stmt 1 view -0
 3431              		.cfi_startproc
 3432              		@ args = 4, pretend = 0, frame = 72
 3433              		@ frame_needed = 0, uses_anonymous_args = 0
 293:Middlewares/lvgl/src/core/lv_obj_style.c ****     trans_t * tr;
 3434              		.loc 1 293 1 is_stmt 0 view .LVU1020
 3435 0000 2DE9F04F 		push	{r4, r5, r6, r7, r8, r9, r10, fp, lr}
 3436              	.LCFI38:
ARM GAS  /tmp/ccoxlgn6.s 			page 106


 3437              		.cfi_def_cfa_offset 36
 3438              		.cfi_offset 4, -36
 3439              		.cfi_offset 5, -32
 3440              		.cfi_offset 6, -28
 3441              		.cfi_offset 7, -24
 3442              		.cfi_offset 8, -20
 3443              		.cfi_offset 9, -16
 3444              		.cfi_offset 10, -12
 3445              		.cfi_offset 11, -8
 3446              		.cfi_offset 14, -4
 3447 0004 93B0     		sub	sp, sp, #76
 3448              	.LCFI39:
 3449              		.cfi_def_cfa_offset 112
 3450 0006 0446     		mov	r4, r0
 3451 0008 0F46     		mov	r7, r1
 3452 000a 9246     		mov	r10, r2
 3453 000c 9946     		mov	r9, r3
 3454 000e 1C9E     		ldr	r6, [sp, #112]
 294:Middlewares/lvgl/src/core/lv_obj_style.c **** 
 3455              		.loc 1 294 5 is_stmt 1 view .LVU1021
 297:Middlewares/lvgl/src/core/lv_obj_style.c ****     obj->state = prev_state;
 3456              		.loc 1 297 5 view .LVU1022
 297:Middlewares/lvgl/src/core/lv_obj_style.c ****     obj->state = prev_state;
 3457              		.loc 1 297 21 is_stmt 0 view .LVU1023
 3458 0010 90F82230 		ldrb	r3, [r0, #34]	@ zero_extendqisi2
 3459              	.LVL339:
 297:Middlewares/lvgl/src/core/lv_obj_style.c ****     obj->state = prev_state;
 3460              		.loc 1 297 21 view .LVU1024
 3461 0014 43F00403 		orr	r3, r3, #4
 3462 0018 80F82230 		strb	r3, [r0, #34]
 298:Middlewares/lvgl/src/core/lv_obj_style.c ****     lv_style_value_t v1 = lv_obj_get_style_prop(obj, part, tr_dsc->prop);
 3463              		.loc 1 298 5 is_stmt 1 view .LVU1025
 298:Middlewares/lvgl/src/core/lv_obj_style.c ****     lv_style_value_t v1 = lv_obj_get_style_prop(obj, part, tr_dsc->prop);
 3464              		.loc 1 298 16 is_stmt 0 view .LVU1026
 3465 001c 0284     		strh	r2, [r0, #32]	@ movhi
 299:Middlewares/lvgl/src/core/lv_obj_style.c ****     obj->state = new_state;
 3466              		.loc 1 299 5 is_stmt 1 view .LVU1027
 299:Middlewares/lvgl/src/core/lv_obj_style.c ****     obj->state = new_state;
 3467              		.loc 1 299 27 is_stmt 0 view .LVU1028
 3468 001e 3289     		ldrh	r2, [r6, #8]
 3469              	.LVL340:
 299:Middlewares/lvgl/src/core/lv_obj_style.c ****     obj->state = new_state;
 3470              		.loc 1 299 27 view .LVU1029
 3471 0020 FFF7FEFF 		bl	lv_obj_get_style_prop
 3472              	.LVL341:
 299:Middlewares/lvgl/src/core/lv_obj_style.c ****     obj->state = new_state;
 3473              		.loc 1 299 27 view .LVU1030
 3474 0024 0546     		mov	r5, r0
 3475              	.LVL342:
 300:Middlewares/lvgl/src/core/lv_obj_style.c ****     lv_style_value_t v2 = lv_obj_get_style_prop(obj, part, tr_dsc->prop);
 3476              		.loc 1 300 5 is_stmt 1 view .LVU1031
 300:Middlewares/lvgl/src/core/lv_obj_style.c ****     lv_style_value_t v2 = lv_obj_get_style_prop(obj, part, tr_dsc->prop);
 3477              		.loc 1 300 16 is_stmt 0 view .LVU1032
 3478 0026 A4F82090 		strh	r9, [r4, #32]	@ movhi
 301:Middlewares/lvgl/src/core/lv_obj_style.c ****     obj->skip_trans = 0;
 3479              		.loc 1 301 5 is_stmt 1 view .LVU1033
 301:Middlewares/lvgl/src/core/lv_obj_style.c ****     obj->skip_trans = 0;
ARM GAS  /tmp/ccoxlgn6.s 			page 107


 3480              		.loc 1 301 27 is_stmt 0 view .LVU1034
 3481 002a 3289     		ldrh	r2, [r6, #8]
 3482 002c 3946     		mov	r1, r7
 3483 002e 2046     		mov	r0, r4
 3484 0030 FFF7FEFF 		bl	lv_obj_get_style_prop
 3485              	.LVL343:
 3486 0034 8046     		mov	r8, r0
 3487              	.LVL344:
 302:Middlewares/lvgl/src/core/lv_obj_style.c **** 
 3488              		.loc 1 302 5 is_stmt 1 view .LVU1035
 302:Middlewares/lvgl/src/core/lv_obj_style.c **** 
 3489              		.loc 1 302 21 is_stmt 0 view .LVU1036
 3490 0036 94F82230 		ldrb	r3, [r4, #34]	@ zero_extendqisi2
 3491 003a 6FF38203 		bfc	r3, #2, #1
 3492 003e 84F82230 		strb	r3, [r4, #34]
 304:Middlewares/lvgl/src/core/lv_obj_style.c ****     obj->state = prev_state;
 3493              		.loc 1 304 5 is_stmt 1 view .LVU1037
 3494              	.LVL345:
 304:Middlewares/lvgl/src/core/lv_obj_style.c ****     obj->state = prev_state;
 3495              		.loc 1 304 20 is_stmt 0 view .LVU1038
 3496 0042 8346     		mov	fp, r0
 3497              	.LVL346:
 304:Middlewares/lvgl/src/core/lv_obj_style.c ****     obj->state = prev_state;
 3498              		.loc 1 304 7 view .LVU1039
 3499 0044 8542     		cmp	r5, r0
 3500 0046 47D0     		beq	.L252
 3501              	.L238:
 305:Middlewares/lvgl/src/core/lv_obj_style.c ****     v1 = lv_obj_get_style_prop(obj, part, tr_dsc->prop);
 3502              		.loc 1 305 5 is_stmt 1 view .LVU1040
 305:Middlewares/lvgl/src/core/lv_obj_style.c ****     v1 = lv_obj_get_style_prop(obj, part, tr_dsc->prop);
 3503              		.loc 1 305 16 is_stmt 0 view .LVU1041
 3504 0048 A4F820A0 		strh	r10, [r4, #32]	@ movhi
 306:Middlewares/lvgl/src/core/lv_obj_style.c ****     obj->state = new_state;
 3505              		.loc 1 306 5 is_stmt 1 view .LVU1042
 306:Middlewares/lvgl/src/core/lv_obj_style.c ****     obj->state = new_state;
 3506              		.loc 1 306 10 is_stmt 0 view .LVU1043
 3507 004c 3289     		ldrh	r2, [r6, #8]
 3508 004e 3946     		mov	r1, r7
 3509 0050 2046     		mov	r0, r4
 3510              	.LVL347:
 306:Middlewares/lvgl/src/core/lv_obj_style.c ****     obj->state = new_state;
 3511              		.loc 1 306 10 view .LVU1044
 3512 0052 FFF7FEFF 		bl	lv_obj_get_style_prop
 3513              	.LVL348:
 3514 0056 0546     		mov	r5, r0
 3515              	.LVL349:
 307:Middlewares/lvgl/src/core/lv_obj_style.c **** 
 3516              		.loc 1 307 5 is_stmt 1 view .LVU1045
 307:Middlewares/lvgl/src/core/lv_obj_style.c **** 
 3517              		.loc 1 307 16 is_stmt 0 view .LVU1046
 3518 0058 A4F82090 		strh	r9, [r4, #32]	@ movhi
 309:Middlewares/lvgl/src/core/lv_obj_style.c ****     lv_style_set_prop(style_trans->style, tr_dsc->prop, v1);   /*Be sure `trans_style` has a valid 
 3519              		.loc 1 309 5 is_stmt 1 view .LVU1047
 309:Middlewares/lvgl/src/core/lv_obj_style.c ****     lv_style_set_prop(style_trans->style, tr_dsc->prop, v1);   /*Be sure `trans_style` has a valid 
 3520              		.loc 1 309 37 is_stmt 0 view .LVU1048
 3521 005c 3946     		mov	r1, r7
 3522 005e 2046     		mov	r0, r4
ARM GAS  /tmp/ccoxlgn6.s 			page 108


 3523 0060 FFF7FEFF 		bl	get_trans_style
 3524              	.LVL350:
 310:Middlewares/lvgl/src/core/lv_obj_style.c **** 
 3525              		.loc 1 310 5 is_stmt 1 view .LVU1049
 310:Middlewares/lvgl/src/core/lv_obj_style.c **** 
 3526              		.loc 1 310 5 is_stmt 0 view .LVU1050
 3527 0064 2A46     		mov	r2, r5
 3528 0066 3189     		ldrh	r1, [r6, #8]
 3529 0068 0068     		ldr	r0, [r0]
 3530              	.LVL351:
 310:Middlewares/lvgl/src/core/lv_obj_style.c **** 
 3531              		.loc 1 310 5 view .LVU1051
 3532 006a FFF7FEFF 		bl	lv_style_set_prop
 3533              	.LVL352:
 312:Middlewares/lvgl/src/core/lv_obj_style.c ****         if(v1.num == LV_RADIUS_CIRCLE || v2.num == LV_RADIUS_CIRCLE) {
 3534              		.loc 1 312 5 is_stmt 1 view .LVU1052
 312:Middlewares/lvgl/src/core/lv_obj_style.c ****         if(v1.num == LV_RADIUS_CIRCLE || v2.num == LV_RADIUS_CIRCLE) {
 3535              		.loc 1 312 14 is_stmt 0 view .LVU1053
 3536 006e 3389     		ldrh	r3, [r6, #8]
 312:Middlewares/lvgl/src/core/lv_obj_style.c ****         if(v1.num == LV_RADIUS_CIRCLE || v2.num == LV_RADIUS_CIRCLE) {
 3537              		.loc 1 312 7 view .LVU1054
 3538 0070 602B     		cmp	r3, #96
 3539 0072 33D0     		beq	.L253
 3540              	.L240:
 321:Middlewares/lvgl/src/core/lv_obj_style.c ****     LV_ASSERT_MALLOC(tr);
 3541              		.loc 1 321 5 is_stmt 1 view .LVU1055
 321:Middlewares/lvgl/src/core/lv_obj_style.c ****     LV_ASSERT_MALLOC(tr);
 3542              		.loc 1 321 10 is_stmt 0 view .LVU1056
 3543 0074 3348     		ldr	r0, .L257
 3544 0076 FFF7FEFF 		bl	_lv_ll_ins_head
 3545              	.LVL353:
 322:Middlewares/lvgl/src/core/lv_obj_style.c ****     if(tr == NULL) return;
 3546              		.loc 1 322 5 is_stmt 1 view .LVU1057
 322:Middlewares/lvgl/src/core/lv_obj_style.c ****     if(tr == NULL) return;
 3547              		.loc 1 322 5 view .LVU1058
 3548 007a 8146     		mov	r9, r0
 3549 007c 0028     		cmp	r0, #0
 3550 007e 60D0     		beq	.L250
 322:Middlewares/lvgl/src/core/lv_obj_style.c ****     if(tr == NULL) return;
 3551              		.loc 1 322 5 view .LVU1059
 322:Middlewares/lvgl/src/core/lv_obj_style.c ****     if(tr == NULL) return;
 3552              		.loc 1 322 25 view .LVU1060
 323:Middlewares/lvgl/src/core/lv_obj_style.c ****     tr->start_value = v1;
 3553              		.loc 1 323 5 view .LVU1061
 324:Middlewares/lvgl/src/core/lv_obj_style.c ****     tr->end_value = v2;
 3554              		.loc 1 324 5 view .LVU1062
 324:Middlewares/lvgl/src/core/lv_obj_style.c ****     tr->end_value = v2;
 3555              		.loc 1 324 21 is_stmt 0 view .LVU1063
 3556 0080 C560     		str	r5, [r0, #12]
 325:Middlewares/lvgl/src/core/lv_obj_style.c **** 
 3557              		.loc 1 325 5 is_stmt 1 view .LVU1064
 3558              	.LVL354:
 325:Middlewares/lvgl/src/core/lv_obj_style.c **** 
 3559              		.loc 1 325 19 is_stmt 0 view .LVU1065
 3560 0082 C0F81080 		str	r8, [r0, #16]
 327:Middlewares/lvgl/src/core/lv_obj_style.c ****         tr->obj = obj;
 3561              		.loc 1 327 5 is_stmt 1 view .LVU1066
ARM GAS  /tmp/ccoxlgn6.s 			page 109


 3562              	.LBB99:
 328:Middlewares/lvgl/src/core/lv_obj_style.c ****         tr->prop = tr_dsc->prop;
 3563              		.loc 1 328 9 view .LVU1067
 328:Middlewares/lvgl/src/core/lv_obj_style.c ****         tr->prop = tr_dsc->prop;
 3564              		.loc 1 328 17 is_stmt 0 view .LVU1068
 3565 0086 0460     		str	r4, [r0]
 329:Middlewares/lvgl/src/core/lv_obj_style.c ****         tr->selector = part;
 3566              		.loc 1 329 9 is_stmt 1 view .LVU1069
 329:Middlewares/lvgl/src/core/lv_obj_style.c ****         tr->selector = part;
 3567              		.loc 1 329 26 is_stmt 0 view .LVU1070
 3568 0088 3389     		ldrh	r3, [r6, #8]
 329:Middlewares/lvgl/src/core/lv_obj_style.c ****         tr->selector = part;
 3569              		.loc 1 329 18 view .LVU1071
 3570 008a 8380     		strh	r3, [r0, #4]	@ movhi
 330:Middlewares/lvgl/src/core/lv_obj_style.c **** 
 3571              		.loc 1 330 9 is_stmt 1 view .LVU1072
 330:Middlewares/lvgl/src/core/lv_obj_style.c **** 
 3572              		.loc 1 330 22 is_stmt 0 view .LVU1073
 3573 008c 8760     		str	r7, [r0, #8]
 332:Middlewares/lvgl/src/core/lv_obj_style.c ****         lv_anim_init(&a);
 3574              		.loc 1 332 9 is_stmt 1 view .LVU1074
 333:Middlewares/lvgl/src/core/lv_obj_style.c ****         lv_anim_set_var(&a, tr);
 3575              		.loc 1 333 9 view .LVU1075
 3576 008e 01A8     		add	r0, sp, #4
 3577              	.LVL355:
 333:Middlewares/lvgl/src/core/lv_obj_style.c ****         lv_anim_set_var(&a, tr);
 3578              		.loc 1 333 9 is_stmt 0 view .LVU1076
 3579 0090 FFF7FEFF 		bl	lv_anim_init
 3580              	.LVL356:
 334:Middlewares/lvgl/src/core/lv_obj_style.c ****         lv_anim_set_exec_cb(&a, trans_anim_cb);
 3581              		.loc 1 334 9 is_stmt 1 view .LVU1077
 3582              	.LBB100:
 3583              	.LBI100:
 119:Middlewares/lvgl/src/core/../misc/lv_anim.h **** {
 3584              		.loc 2 119 20 view .LVU1078
 3585              	.LBB101:
 121:Middlewares/lvgl/src/core/../misc/lv_anim.h **** }
 3586              		.loc 2 121 5 view .LVU1079
 121:Middlewares/lvgl/src/core/../misc/lv_anim.h **** }
 3587              		.loc 2 121 12 is_stmt 0 view .LVU1080
 3588 0094 CDF80490 		str	r9, [sp, #4]
 3589              	.LVL357:
 121:Middlewares/lvgl/src/core/../misc/lv_anim.h **** }
 3590              		.loc 2 121 12 view .LVU1081
 3591              	.LBE101:
 3592              	.LBE100:
 335:Middlewares/lvgl/src/core/lv_obj_style.c ****         lv_anim_set_start_cb(&a, trans_anim_start_cb);
 3593              		.loc 1 335 9 is_stmt 1 view .LVU1082
 3594              	.LBB102:
 3595              	.LBI102:
 131:Middlewares/lvgl/src/core/../misc/lv_anim.h **** {
 3596              		.loc 2 131 20 view .LVU1083
 3597              	.LBB103:
 133:Middlewares/lvgl/src/core/../misc/lv_anim.h **** }
 3598              		.loc 2 133 5 view .LVU1084
 133:Middlewares/lvgl/src/core/../misc/lv_anim.h **** }
 3599              		.loc 2 133 16 is_stmt 0 view .LVU1085
ARM GAS  /tmp/ccoxlgn6.s 			page 110


 3600 0098 2B4B     		ldr	r3, .L257+4
 3601 009a 0293     		str	r3, [sp, #8]
 3602              	.LVL358:
 133:Middlewares/lvgl/src/core/../misc/lv_anim.h **** }
 3603              		.loc 2 133 16 view .LVU1086
 3604              	.LBE103:
 3605              	.LBE102:
 336:Middlewares/lvgl/src/core/lv_obj_style.c ****         lv_anim_set_ready_cb(&a, trans_anim_ready_cb);
 3606              		.loc 1 336 9 is_stmt 1 view .LVU1087
 3607              	.LBB104:
 3608              	.LBI104:
 199:Middlewares/lvgl/src/core/../misc/lv_anim.h **** {
 3609              		.loc 2 199 20 view .LVU1088
 3610              	.LBB105:
 201:Middlewares/lvgl/src/core/../misc/lv_anim.h **** }
 3611              		.loc 2 201 5 view .LVU1089
 201:Middlewares/lvgl/src/core/../misc/lv_anim.h **** }
 3612              		.loc 2 201 17 is_stmt 0 view .LVU1090
 3613 009c 2B4B     		ldr	r3, .L257+8
 3614 009e 0393     		str	r3, [sp, #12]
 3615              	.LVL359:
 201:Middlewares/lvgl/src/core/../misc/lv_anim.h **** }
 3616              		.loc 2 201 17 view .LVU1091
 3617              	.LBE105:
 3618              	.LBE104:
 337:Middlewares/lvgl/src/core/lv_obj_style.c ****         lv_anim_set_values(&a, 0x00, 0xFF);
 3619              		.loc 1 337 9 is_stmt 1 view .LVU1092
 3620              	.LBB106:
 3621              	.LBI106:
 220:Middlewares/lvgl/src/core/../misc/lv_anim.h **** {
 3622              		.loc 2 220 20 view .LVU1093
 3623              	.LBB107:
 3624              		.loc 2 222 5 view .LVU1094
 3625              		.loc 2 222 17 is_stmt 0 view .LVU1095
 3626 00a0 2B4B     		ldr	r3, .L257+12
 3627 00a2 0493     		str	r3, [sp, #16]
 3628              	.LVL360:
 3629              		.loc 2 222 17 view .LVU1096
 3630              	.LBE107:
 3631              	.LBE106:
 338:Middlewares/lvgl/src/core/lv_obj_style.c ****         lv_anim_set_time(&a, tr_dsc->time);
 3632              		.loc 1 338 9 is_stmt 1 view .LVU1097
 3633              	.LBB108:
 3634              	.LBI108:
 162:Middlewares/lvgl/src/core/../misc/lv_anim.h **** {
 3635              		.loc 2 162 20 view .LVU1098
 3636              	.LBB109:
 164:Middlewares/lvgl/src/core/../misc/lv_anim.h ****     a->current_value = start;
 3637              		.loc 2 164 5 view .LVU1099
 164:Middlewares/lvgl/src/core/../misc/lv_anim.h ****     a->current_value = start;
 3638              		.loc 2 164 20 is_stmt 0 view .LVU1100
 3639 00a4 0023     		movs	r3, #0
 3640 00a6 0893     		str	r3, [sp, #32]
 165:Middlewares/lvgl/src/core/../misc/lv_anim.h ****     a->end_value = end;
 3641              		.loc 2 165 5 is_stmt 1 view .LVU1101
 165:Middlewares/lvgl/src/core/../misc/lv_anim.h ****     a->end_value = end;
 3642              		.loc 2 165 22 is_stmt 0 view .LVU1102
ARM GAS  /tmp/ccoxlgn6.s 			page 111


 3643 00a8 0993     		str	r3, [sp, #36]
 166:Middlewares/lvgl/src/core/../misc/lv_anim.h **** }
 3644              		.loc 2 166 5 is_stmt 1 view .LVU1103
 166:Middlewares/lvgl/src/core/../misc/lv_anim.h **** }
 3645              		.loc 2 166 18 is_stmt 0 view .LVU1104
 3646 00aa FF22     		movs	r2, #255
 3647 00ac 0A92     		str	r2, [sp, #40]
 3648              	.LVL361:
 166:Middlewares/lvgl/src/core/../misc/lv_anim.h **** }
 3649              		.loc 2 166 18 view .LVU1105
 3650              	.LBE109:
 3651              	.LBE108:
 339:Middlewares/lvgl/src/core/lv_obj_style.c ****         lv_anim_set_delay(&a, tr_dsc->delay);
 3652              		.loc 1 339 9 is_stmt 1 view .LVU1106
 339:Middlewares/lvgl/src/core/lv_obj_style.c ****         lv_anim_set_delay(&a, tr_dsc->delay);
 3653              		.loc 1 339 36 is_stmt 0 view .LVU1107
 3654 00ae 3288     		ldrh	r2, [r6]
 3655              	.LVL362:
 3656              	.LBB110:
 3657              	.LBI110:
 141:Middlewares/lvgl/src/core/../misc/lv_anim.h **** {
 3658              		.loc 2 141 20 is_stmt 1 view .LVU1108
 3659              	.LBB111:
 143:Middlewares/lvgl/src/core/../misc/lv_anim.h **** }
 3660              		.loc 2 143 5 view .LVU1109
 143:Middlewares/lvgl/src/core/../misc/lv_anim.h **** }
 3661              		.loc 2 143 13 is_stmt 0 view .LVU1110
 3662 00b0 0B92     		str	r2, [sp, #44]
 3663              	.LVL363:
 143:Middlewares/lvgl/src/core/../misc/lv_anim.h **** }
 3664              		.loc 2 143 13 view .LVU1111
 3665              	.LBE111:
 3666              	.LBE110:
 340:Middlewares/lvgl/src/core/lv_obj_style.c ****         lv_anim_set_path_cb(&a, tr_dsc->path_cb);
 3667              		.loc 1 340 9 is_stmt 1 view .LVU1112
 340:Middlewares/lvgl/src/core/lv_obj_style.c ****         lv_anim_set_path_cb(&a, tr_dsc->path_cb);
 3668              		.loc 1 340 37 is_stmt 0 view .LVU1113
 3669 00b2 7288     		ldrh	r2, [r6, #2]
 3670              	.LVL364:
 3671              	.LBB112:
 3672              	.LBI112:
 151:Middlewares/lvgl/src/core/../misc/lv_anim.h **** {
 3673              		.loc 2 151 20 is_stmt 1 view .LVU1114
 3674              	.LBB113:
 153:Middlewares/lvgl/src/core/../misc/lv_anim.h **** }
 3675              		.loc 2 153 5 view .LVU1115
 153:Middlewares/lvgl/src/core/../misc/lv_anim.h **** }
 3676              		.loc 2 153 19 is_stmt 0 view .LVU1116
 3677 00b4 5242     		rsbs	r2, r2, #0
 3678              	.LVL365:
 153:Middlewares/lvgl/src/core/../misc/lv_anim.h **** }
 3679              		.loc 2 153 17 view .LVU1117
 3680 00b6 0C92     		str	r2, [sp, #48]
 3681              	.LVL366:
 153:Middlewares/lvgl/src/core/../misc/lv_anim.h **** }
 3682              		.loc 2 153 17 view .LVU1118
 3683              	.LBE113:
ARM GAS  /tmp/ccoxlgn6.s 			page 112


 3684              	.LBE112:
 341:Middlewares/lvgl/src/core/lv_obj_style.c ****         lv_anim_set_early_apply(&a, false);
 3685              		.loc 1 341 9 is_stmt 1 view .LVU1119
 3686 00b8 F268     		ldr	r2, [r6, #12]
 3687              	.LVL367:
 3688              	.LBB114:
 3689              	.LBI114:
 189:Middlewares/lvgl/src/core/../misc/lv_anim.h **** {
 3690              		.loc 2 189 20 view .LVU1120
 3691              	.LBB115:
 191:Middlewares/lvgl/src/core/../misc/lv_anim.h **** }
 3692              		.loc 2 191 5 view .LVU1121
 191:Middlewares/lvgl/src/core/../misc/lv_anim.h **** }
 3693              		.loc 2 191 16 is_stmt 0 view .LVU1122
 3694 00ba 0792     		str	r2, [sp, #28]
 3695              	.LVL368:
 191:Middlewares/lvgl/src/core/../misc/lv_anim.h **** }
 3696              		.loc 2 191 16 view .LVU1123
 3697              	.LBE115:
 3698              	.LBE114:
 342:Middlewares/lvgl/src/core/lv_obj_style.c **** #if LV_USE_USER_DATA
 3699              		.loc 1 342 9 is_stmt 1 view .LVU1124
 3700              	.LBB116:
 3701              	.LBI116:
 223:Middlewares/lvgl/src/core/../misc/lv_anim.h **** }
 224:Middlewares/lvgl/src/core/../misc/lv_anim.h **** /**
 225:Middlewares/lvgl/src/core/../misc/lv_anim.h ****  * Make the animation to play back to when the forward direction is ready
 226:Middlewares/lvgl/src/core/../misc/lv_anim.h ****  * @param a         pointer to an initialized `lv_anim_t` variable
 227:Middlewares/lvgl/src/core/../misc/lv_anim.h ****  * @param time      the duration of the playback animation in in milliseconds. 0: disable playback
 228:Middlewares/lvgl/src/core/../misc/lv_anim.h ****  */
 229:Middlewares/lvgl/src/core/../misc/lv_anim.h **** static inline void lv_anim_set_playback_time(lv_anim_t * a, uint32_t time)
 230:Middlewares/lvgl/src/core/../misc/lv_anim.h **** {
 231:Middlewares/lvgl/src/core/../misc/lv_anim.h ****     a->playback_time = time;
 232:Middlewares/lvgl/src/core/../misc/lv_anim.h **** }
 233:Middlewares/lvgl/src/core/../misc/lv_anim.h **** 
 234:Middlewares/lvgl/src/core/../misc/lv_anim.h **** /**
 235:Middlewares/lvgl/src/core/../misc/lv_anim.h ****  * Make the animation to play back to when the forward direction is ready
 236:Middlewares/lvgl/src/core/../misc/lv_anim.h ****  * @param a         pointer to an initialized `lv_anim_t` variable
 237:Middlewares/lvgl/src/core/../misc/lv_anim.h ****  * @param delay     delay in milliseconds before starting the playback animation.
 238:Middlewares/lvgl/src/core/../misc/lv_anim.h ****  */
 239:Middlewares/lvgl/src/core/../misc/lv_anim.h **** static inline void lv_anim_set_playback_delay(lv_anim_t * a, uint32_t delay)
 240:Middlewares/lvgl/src/core/../misc/lv_anim.h **** {
 241:Middlewares/lvgl/src/core/../misc/lv_anim.h ****     a->playback_delay = delay;
 242:Middlewares/lvgl/src/core/../misc/lv_anim.h **** }
 243:Middlewares/lvgl/src/core/../misc/lv_anim.h **** 
 244:Middlewares/lvgl/src/core/../misc/lv_anim.h **** /**
 245:Middlewares/lvgl/src/core/../misc/lv_anim.h ****  * Make the animation repeat itself.
 246:Middlewares/lvgl/src/core/../misc/lv_anim.h ****  * @param a         pointer to an initialized `lv_anim_t` variable
 247:Middlewares/lvgl/src/core/../misc/lv_anim.h ****  * @param cnt       repeat count or `LV_ANIM_REPEAT_INFINITE` for infinite repetition. 0: to disabl
 248:Middlewares/lvgl/src/core/../misc/lv_anim.h ****  */
 249:Middlewares/lvgl/src/core/../misc/lv_anim.h **** static inline void lv_anim_set_repeat_count(lv_anim_t * a, uint16_t cnt)
 250:Middlewares/lvgl/src/core/../misc/lv_anim.h **** {
 251:Middlewares/lvgl/src/core/../misc/lv_anim.h ****     a->repeat_cnt = cnt;
 252:Middlewares/lvgl/src/core/../misc/lv_anim.h **** }
 253:Middlewares/lvgl/src/core/../misc/lv_anim.h **** 
 254:Middlewares/lvgl/src/core/../misc/lv_anim.h **** /**
 255:Middlewares/lvgl/src/core/../misc/lv_anim.h ****  * Set a delay before repeating the animation.
ARM GAS  /tmp/ccoxlgn6.s 			page 113


 256:Middlewares/lvgl/src/core/../misc/lv_anim.h ****  * @param a         pointer to an initialized `lv_anim_t` variable
 257:Middlewares/lvgl/src/core/../misc/lv_anim.h ****  * @param delay     delay in milliseconds before repeating the animation.
 258:Middlewares/lvgl/src/core/../misc/lv_anim.h ****  */
 259:Middlewares/lvgl/src/core/../misc/lv_anim.h **** static inline void lv_anim_set_repeat_delay(lv_anim_t * a, uint32_t delay)
 260:Middlewares/lvgl/src/core/../misc/lv_anim.h **** {
 261:Middlewares/lvgl/src/core/../misc/lv_anim.h ****     a->repeat_delay = delay;
 262:Middlewares/lvgl/src/core/../misc/lv_anim.h **** }
 263:Middlewares/lvgl/src/core/../misc/lv_anim.h **** 
 264:Middlewares/lvgl/src/core/../misc/lv_anim.h **** /**
 265:Middlewares/lvgl/src/core/../misc/lv_anim.h ****  * Set a whether the animation's should be applied immediately or only when the delay expired.
 266:Middlewares/lvgl/src/core/../misc/lv_anim.h ****  * @param a         pointer to an initialized `lv_anim_t` variable
 267:Middlewares/lvgl/src/core/../misc/lv_anim.h ****  * @param en        true: apply the start value immediately in `lv_anim_start`;
 268:Middlewares/lvgl/src/core/../misc/lv_anim.h ****  *                  false: apply the start value only when `delay` ms is elapsed and the animations
 269:Middlewares/lvgl/src/core/../misc/lv_anim.h ****  */
 270:Middlewares/lvgl/src/core/../misc/lv_anim.h **** static inline void lv_anim_set_early_apply(lv_anim_t * a, bool en)
 3702              		.loc 2 270 20 view .LVU1125
 3703              	.LBB117:
 271:Middlewares/lvgl/src/core/../misc/lv_anim.h **** {
 272:Middlewares/lvgl/src/core/../misc/lv_anim.h ****     a->early_apply = en;
 3704              		.loc 2 272 5 view .LVU1126
 3705              		.loc 2 272 20 is_stmt 0 view .LVU1127
 3706 00bc 9DF84220 		ldrb	r2, [sp, #66]	@ zero_extendqisi2
 3707 00c0 63F30002 		bfi	r2, r3, #0, #1
 3708 00c4 8DF84220 		strb	r2, [sp, #66]
 3709              	.LVL369:
 3710              		.loc 2 272 20 view .LVU1128
 3711              	.LBE117:
 3712              	.LBE116:
 344:Middlewares/lvgl/src/core/lv_obj_style.c **** #endif
 3713              		.loc 1 344 9 is_stmt 1 view .LVU1129
 344:Middlewares/lvgl/src/core/lv_obj_style.c **** #endif
 3714              		.loc 1 344 29 is_stmt 0 view .LVU1130
 3715 00c8 3369     		ldr	r3, [r6, #16]
 344:Middlewares/lvgl/src/core/lv_obj_style.c **** #endif
 3716              		.loc 1 344 21 view .LVU1131
 3717 00ca 0693     		str	r3, [sp, #24]
 346:Middlewares/lvgl/src/core/lv_obj_style.c ****     }
 3718              		.loc 1 346 9 is_stmt 1 view .LVU1132
 3719 00cc 01A8     		add	r0, sp, #4
 3720 00ce FFF7FEFF 		bl	lv_anim_start
 3721              	.LVL370:
 3722              	.L237:
 346:Middlewares/lvgl/src/core/lv_obj_style.c ****     }
 3723              		.loc 1 346 9 is_stmt 0 view .LVU1133
 3724              	.LBE99:
 348:Middlewares/lvgl/src/core/lv_obj_style.c **** 
 3725              		.loc 1 348 1 view .LVU1134
 3726 00d2 13B0     		add	sp, sp, #76
 3727              	.LCFI40:
 3728              		.cfi_remember_state
 3729              		.cfi_def_cfa_offset 36
 3730              		@ sp needed
 3731 00d4 BDE8F08F 		pop	{r4, r5, r6, r7, r8, r9, r10, fp, pc}
 3732              	.LVL371:
 3733              	.L252:
 3734              	.LCFI41:
 3735              		.cfi_restore_state
ARM GAS  /tmp/ccoxlgn6.s 			page 114


 304:Middlewares/lvgl/src/core/lv_obj_style.c ****     obj->state = prev_state;
 3736              		.loc 1 304 45 discriminator 1 view .LVU1135
 3737 00d8 B6D1     		bne	.L238
 3738 00da FAE7     		b	.L237
 3739              	.LVL372:
 3740              	.L253:
 313:Middlewares/lvgl/src/core/lv_obj_style.c ****             lv_coord_t whalf = lv_obj_get_width(obj) / 2;
 3741              		.loc 1 313 9 is_stmt 1 view .LVU1136
 313:Middlewares/lvgl/src/core/lv_obj_style.c ****             lv_coord_t whalf = lv_obj_get_width(obj) / 2;
 3742              		.loc 1 313 14 is_stmt 0 view .LVU1137
 3743 00dc AA46     		mov	r10, r5
 313:Middlewares/lvgl/src/core/lv_obj_style.c ****             lv_coord_t whalf = lv_obj_get_width(obj) / 2;
 3744              		.loc 1 313 11 view .LVU1138
 3745 00de 47F6FF73 		movw	r3, #32767
 3746 00e2 9D42     		cmp	r5, r3
 3747 00e4 01D0     		beq	.L241
 313:Middlewares/lvgl/src/core/lv_obj_style.c ****             lv_coord_t whalf = lv_obj_get_width(obj) / 2;
 3748              		.loc 1 313 39 discriminator 1 view .LVU1139
 3749 00e6 9B45     		cmp	fp, r3
 3750 00e8 C4D1     		bne	.L240
 3751              	.L241:
 3752              	.LBB118:
 314:Middlewares/lvgl/src/core/lv_obj_style.c ****             lv_coord_t hhalf = lv_obj_get_width(obj) / 2;
 3753              		.loc 1 314 13 is_stmt 1 view .LVU1140
 314:Middlewares/lvgl/src/core/lv_obj_style.c ****             lv_coord_t hhalf = lv_obj_get_width(obj) / 2;
 3754              		.loc 1 314 32 is_stmt 0 view .LVU1141
 3755 00ea 2046     		mov	r0, r4
 3756 00ec FFF7FEFF 		bl	lv_obj_get_width
 3757              	.LVL373:
 314:Middlewares/lvgl/src/core/lv_obj_style.c ****             lv_coord_t hhalf = lv_obj_get_width(obj) / 2;
 3758              		.loc 1 314 24 view .LVU1142
 3759 00f0 8146     		mov	r9, r0
 3760 00f2 0028     		cmp	r0, #0
 3761 00f4 17DB     		blt	.L254
 3762              	.L242:
 3763 00f6 49F34F09 		sbfx	r9, r9, #1, #16
 3764              	.LVL374:
 315:Middlewares/lvgl/src/core/lv_obj_style.c ****             if(v1.num == LV_RADIUS_CIRCLE) v1.num = LV_MIN(whalf + 1, hhalf + 1);
 3765              		.loc 1 315 13 is_stmt 1 view .LVU1143
 315:Middlewares/lvgl/src/core/lv_obj_style.c ****             if(v1.num == LV_RADIUS_CIRCLE) v1.num = LV_MIN(whalf + 1, hhalf + 1);
 3766              		.loc 1 315 32 is_stmt 0 view .LVU1144
 3767 00fa 2046     		mov	r0, r4
 3768 00fc FFF7FEFF 		bl	lv_obj_get_width
 3769              	.LVL375:
 315:Middlewares/lvgl/src/core/lv_obj_style.c ****             if(v1.num == LV_RADIUS_CIRCLE) v1.num = LV_MIN(whalf + 1, hhalf + 1);
 3770              		.loc 1 315 24 view .LVU1145
 3771 0100 0346     		mov	r3, r0
 3772 0102 0028     		cmp	r0, #0
 3773 0104 12DB     		blt	.L255
 3774              	.L243:
 3775 0106 43F34F03 		sbfx	r3, r3, #1, #16
 3776              	.LVL376:
 316:Middlewares/lvgl/src/core/lv_obj_style.c ****             if(v2.num == LV_RADIUS_CIRCLE) v2.num = LV_MIN(whalf + 1, hhalf + 1);
 3777              		.loc 1 316 13 is_stmt 1 view .LVU1146
 316:Middlewares/lvgl/src/core/lv_obj_style.c ****             if(v2.num == LV_RADIUS_CIRCLE) v2.num = LV_MIN(whalf + 1, hhalf + 1);
 3778              		.loc 1 316 15 is_stmt 0 view .LVU1147
 3779 010a 47F6FF72 		movw	r2, #32767
ARM GAS  /tmp/ccoxlgn6.s 			page 115


 3780 010e 9245     		cmp	r10, r2
 3781 0110 0ED0     		beq	.L256
 3782              	.L244:
 317:Middlewares/lvgl/src/core/lv_obj_style.c ****         }
 3783              		.loc 1 317 13 is_stmt 1 view .LVU1148
 317:Middlewares/lvgl/src/core/lv_obj_style.c ****         }
 3784              		.loc 1 317 15 is_stmt 0 view .LVU1149
 3785 0112 47F6FF72 		movw	r2, #32767
 3786 0116 9345     		cmp	fp, r2
 3787 0118 ACD1     		bne	.L240
 317:Middlewares/lvgl/src/core/lv_obj_style.c ****         }
 3788              		.loc 1 317 44 is_stmt 1 discriminator 1 view .LVU1150
 317:Middlewares/lvgl/src/core/lv_obj_style.c ****         }
 3789              		.loc 1 317 53 is_stmt 0 discriminator 1 view .LVU1151
 3790 011a 9945     		cmp	r9, r3
 3791 011c 0FDA     		bge	.L247
 317:Middlewares/lvgl/src/core/lv_obj_style.c ****         }
 3792              		.loc 1 317 53 discriminator 2 view .LVU1152
 3793 011e 09F10103 		add	r3, r9, #1
 3794              	.LVL377:
 3795              	.L248:
 317:Middlewares/lvgl/src/core/lv_obj_style.c ****         }
 3796              		.loc 1 317 51 discriminator 5 view .LVU1153
 3797 0122 9846     		mov	r8, r3
 317:Middlewares/lvgl/src/core/lv_obj_style.c ****         }
 3798              		.loc 1 317 51 discriminator 5 view .LVU1154
 3799 0124 A6E7     		b	.L240
 3800              	.LVL378:
 3801              	.L254:
 314:Middlewares/lvgl/src/core/lv_obj_style.c ****             lv_coord_t hhalf = lv_obj_get_width(obj) / 2;
 3802              		.loc 1 314 24 view .LVU1155
 3803 0126 00F10109 		add	r9, r0, #1
 3804 012a E4E7     		b	.L242
 3805              	.LVL379:
 3806              	.L255:
 315:Middlewares/lvgl/src/core/lv_obj_style.c ****             if(v1.num == LV_RADIUS_CIRCLE) v1.num = LV_MIN(whalf + 1, hhalf + 1);
 3807              		.loc 1 315 24 view .LVU1156
 3808 012c 431C     		adds	r3, r0, #1
 3809 012e EAE7     		b	.L243
 3810              	.LVL380:
 3811              	.L256:
 316:Middlewares/lvgl/src/core/lv_obj_style.c ****             if(v2.num == LV_RADIUS_CIRCLE) v2.num = LV_MIN(whalf + 1, hhalf + 1);
 3812              		.loc 1 316 44 is_stmt 1 discriminator 1 view .LVU1157
 316:Middlewares/lvgl/src/core/lv_obj_style.c ****             if(v2.num == LV_RADIUS_CIRCLE) v2.num = LV_MIN(whalf + 1, hhalf + 1);
 3813              		.loc 1 316 53 is_stmt 0 discriminator 1 view .LVU1158
 3814 0130 9945     		cmp	r9, r3
 3815 0132 02DA     		bge	.L245
 316:Middlewares/lvgl/src/core/lv_obj_style.c ****             if(v2.num == LV_RADIUS_CIRCLE) v2.num = LV_MIN(whalf + 1, hhalf + 1);
 3816              		.loc 1 316 53 discriminator 2 view .LVU1159
 3817 0134 09F10105 		add	r5, r9, #1
 3818              	.LVL381:
 316:Middlewares/lvgl/src/core/lv_obj_style.c ****             if(v2.num == LV_RADIUS_CIRCLE) v2.num = LV_MIN(whalf + 1, hhalf + 1);
 3819              		.loc 1 316 53 discriminator 2 view .LVU1160
 3820 0138 EBE7     		b	.L244
 3821              	.LVL382:
 3822              	.L245:
 316:Middlewares/lvgl/src/core/lv_obj_style.c ****             if(v2.num == LV_RADIUS_CIRCLE) v2.num = LV_MIN(whalf + 1, hhalf + 1);
ARM GAS  /tmp/ccoxlgn6.s 			page 116


 3823              		.loc 1 316 53 discriminator 3 view .LVU1161
 3824 013a 5D1C     		adds	r5, r3, #1
 3825              	.LVL383:
 316:Middlewares/lvgl/src/core/lv_obj_style.c ****             if(v2.num == LV_RADIUS_CIRCLE) v2.num = LV_MIN(whalf + 1, hhalf + 1);
 3826              		.loc 1 316 53 discriminator 3 view .LVU1162
 3827 013c E9E7     		b	.L244
 3828              	.LVL384:
 3829              	.L247:
 317:Middlewares/lvgl/src/core/lv_obj_style.c ****         }
 3830              		.loc 1 317 53 discriminator 3 view .LVU1163
 3831 013e 0133     		adds	r3, r3, #1
 3832              	.LVL385:
 317:Middlewares/lvgl/src/core/lv_obj_style.c ****         }
 3833              		.loc 1 317 53 discriminator 3 view .LVU1164
 3834 0140 EFE7     		b	.L248
 3835              	.LVL386:
 3836              	.L250:
 317:Middlewares/lvgl/src/core/lv_obj_style.c ****         }
 3837              		.loc 1 317 53 discriminator 3 view .LVU1165
 3838              	.LBE118:
 322:Middlewares/lvgl/src/core/lv_obj_style.c ****     if(tr == NULL) return;
 3839              		.loc 1 322 5 is_stmt 1 discriminator 1 view .LVU1166
 322:Middlewares/lvgl/src/core/lv_obj_style.c ****     if(tr == NULL) return;
 3840              		.loc 1 322 5 discriminator 1 view .LVU1167
 322:Middlewares/lvgl/src/core/lv_obj_style.c ****     if(tr == NULL) return;
 3841              		.loc 1 322 5 discriminator 1 view .LVU1168
 322:Middlewares/lvgl/src/core/lv_obj_style.c ****     if(tr == NULL) return;
 3842              		.loc 1 322 5 discriminator 1 view .LVU1169
 3843 0142 FEE7     		b	.L250
 3844              	.L258:
 3845              		.align	2
 3846              	.L257:
 3847 0144 00000000 		.word	_lv_obj_style_trans_ll
 3848 0148 00000000 		.word	trans_anim_cb
 3849 014c 00000000 		.word	trans_anim_start_cb
 3850 0150 00000000 		.word	trans_anim_ready_cb
 3851              		.cfi_endproc
 3852              	.LFE163:
 3854              		.section	.text.trans_anim_start_cb,"ax",%progbits
 3855              		.align	1
 3856              		.syntax unified
 3857              		.thumb
 3858              		.thumb_func
 3859              		.fpu fpv5-d16
 3861              	trans_anim_start_cb:
 3862              	.LVL387:
 3863              	.LFB177:
 745:Middlewares/lvgl/src/core/lv_obj_style.c ****     trans_t * tr = a->var;
 3864              		.loc 1 745 1 view -0
 3865              		.cfi_startproc
 3866              		@ args = 0, pretend = 0, frame = 0
 3867              		@ frame_needed = 0, uses_anonymous_args = 0
 745:Middlewares/lvgl/src/core/lv_obj_style.c ****     trans_t * tr = a->var;
 3868              		.loc 1 745 1 is_stmt 0 view .LVU1171
 3869 0000 70B5     		push	{r4, r5, r6, lr}
 3870              	.LCFI42:
 3871              		.cfi_def_cfa_offset 16
ARM GAS  /tmp/ccoxlgn6.s 			page 117


 3872              		.cfi_offset 4, -16
 3873              		.cfi_offset 5, -12
 3874              		.cfi_offset 6, -8
 3875              		.cfi_offset 14, -4
 746:Middlewares/lvgl/src/core/lv_obj_style.c **** 
 3876              		.loc 1 746 5 is_stmt 1 view .LVU1172
 746:Middlewares/lvgl/src/core/lv_obj_style.c **** 
 3877              		.loc 1 746 15 is_stmt 0 view .LVU1173
 3878 0002 0468     		ldr	r4, [r0]
 3879              	.LVL388:
 748:Middlewares/lvgl/src/core/lv_obj_style.c ****     tr->start_value = lv_obj_get_style_prop(tr->obj, part, tr->prop);
 3880              		.loc 1 748 5 is_stmt 1 view .LVU1174
 748:Middlewares/lvgl/src/core/lv_obj_style.c ****     tr->start_value = lv_obj_get_style_prop(tr->obj, part, tr->prop);
 3881              		.loc 1 748 22 is_stmt 0 view .LVU1175
 3882 0004 A068     		ldr	r0, [r4, #8]
 3883              	.LVL389:
 748:Middlewares/lvgl/src/core/lv_obj_style.c ****     tr->start_value = lv_obj_get_style_prop(tr->obj, part, tr->prop);
 3884              		.loc 1 748 22 view .LVU1176
 3885 0006 FFF7FEFF 		bl	lv_obj_style_get_selector_part
 3886              	.LVL390:
 3887 000a 0546     		mov	r5, r0
 3888              	.LVL391:
 749:Middlewares/lvgl/src/core/lv_obj_style.c **** 
 3889              		.loc 1 749 5 is_stmt 1 view .LVU1177
 749:Middlewares/lvgl/src/core/lv_obj_style.c **** 
 3890              		.loc 1 749 23 is_stmt 0 view .LVU1178
 3891 000c A288     		ldrh	r2, [r4, #4]
 3892 000e 0146     		mov	r1, r0
 3893 0010 2068     		ldr	r0, [r4]
 3894              	.LVL392:
 749:Middlewares/lvgl/src/core/lv_obj_style.c **** 
 3895              		.loc 1 749 23 view .LVU1179
 3896 0012 FFF7FEFF 		bl	lv_obj_get_style_prop
 3897              	.LVL393:
 749:Middlewares/lvgl/src/core/lv_obj_style.c **** 
 3898              		.loc 1 749 23 view .LVU1180
 3899 0016 E060     		str	r0, [r4, #12]
 752:Middlewares/lvgl/src/core/lv_obj_style.c ****     tr->prop = LV_STYLE_PROP_INV;
 3900              		.loc 1 752 5 is_stmt 1 view .LVU1181
 752:Middlewares/lvgl/src/core/lv_obj_style.c ****     tr->prop = LV_STYLE_PROP_INV;
 3901              		.loc 1 752 21 is_stmt 0 view .LVU1182
 3902 0018 A688     		ldrh	r6, [r4, #4]
 3903              	.LVL394:
 753:Middlewares/lvgl/src/core/lv_obj_style.c **** 
 3904              		.loc 1 753 5 is_stmt 1 view .LVU1183
 753:Middlewares/lvgl/src/core/lv_obj_style.c **** 
 3905              		.loc 1 753 14 is_stmt 0 view .LVU1184
 3906 001a 0023     		movs	r3, #0
 3907 001c A380     		strh	r3, [r4, #4]	@ movhi
 756:Middlewares/lvgl/src/core/lv_obj_style.c **** 
 3908              		.loc 1 756 5 is_stmt 1 view .LVU1185
 3909 001e 2346     		mov	r3, r4
 3910 0020 3246     		mov	r2, r6
 3911 0022 2946     		mov	r1, r5
 3912 0024 2068     		ldr	r0, [r4]
 3913 0026 FFF7FEFF 		bl	trans_del
 3914              	.LVL395:
ARM GAS  /tmp/ccoxlgn6.s 			page 118


 758:Middlewares/lvgl/src/core/lv_obj_style.c **** 
 3915              		.loc 1 758 5 view .LVU1186
 758:Middlewares/lvgl/src/core/lv_obj_style.c **** 
 3916              		.loc 1 758 14 is_stmt 0 view .LVU1187
 3917 002a A680     		strh	r6, [r4, #4]	@ movhi
 760:Middlewares/lvgl/src/core/lv_obj_style.c ****     lv_style_set_prop(style_trans->style, tr->prop, tr->start_value);   /*Be sure `trans_style` has
 3918              		.loc 1 760 5 is_stmt 1 view .LVU1188
 760:Middlewares/lvgl/src/core/lv_obj_style.c ****     lv_style_set_prop(style_trans->style, tr->prop, tr->start_value);   /*Be sure `trans_style` has
 3919              		.loc 1 760 37 is_stmt 0 view .LVU1189
 3920 002c A168     		ldr	r1, [r4, #8]
 3921 002e 2068     		ldr	r0, [r4]
 3922 0030 FFF7FEFF 		bl	get_trans_style
 3923              	.LVL396:
 761:Middlewares/lvgl/src/core/lv_obj_style.c **** 
 3924              		.loc 1 761 5 is_stmt 1 view .LVU1190
 3925 0034 E268     		ldr	r2, [r4, #12]
 3926 0036 A188     		ldrh	r1, [r4, #4]
 3927 0038 0068     		ldr	r0, [r0]
 3928              	.LVL397:
 761:Middlewares/lvgl/src/core/lv_obj_style.c **** 
 3929              		.loc 1 761 5 is_stmt 0 view .LVU1191
 3930 003a FFF7FEFF 		bl	lv_style_set_prop
 3931              	.LVL398:
 763:Middlewares/lvgl/src/core/lv_obj_style.c **** 
 3932              		.loc 1 763 1 view .LVU1192
 3933 003e 70BD     		pop	{r4, r5, r6, pc}
 763:Middlewares/lvgl/src/core/lv_obj_style.c **** 
 3934              		.loc 1 763 1 view .LVU1193
 3935              		.cfi_endproc
 3936              	.LFE177:
 3938              		.section	.text._lv_obj_style_state_compare,"ax",%progbits
 3939              		.align	1
 3940              		.global	_lv_obj_style_state_compare
 3941              		.syntax unified
 3942              		.thumb
 3943              		.thumb_func
 3944              		.fpu fpv5-d16
 3946              	_lv_obj_style_state_compare:
 3947              	.LVL399:
 3948              	.LFB164:
 351:Middlewares/lvgl/src/core/lv_obj_style.c ****     _lv_style_state_cmp_t res = _LV_STYLE_STATE_CMP_SAME;
 3949              		.loc 1 351 1 is_stmt 1 view -0
 3950              		.cfi_startproc
 3951              		@ args = 0, pretend = 0, frame = 16
 3952              		@ frame_needed = 0, uses_anonymous_args = 0
 351:Middlewares/lvgl/src/core/lv_obj_style.c ****     _lv_style_state_cmp_t res = _LV_STYLE_STATE_CMP_SAME;
 3953              		.loc 1 351 1 is_stmt 0 view .LVU1195
 3954 0000 2DE9F04F 		push	{r4, r5, r6, r7, r8, r9, r10, fp, lr}
 3955              	.LCFI43:
 3956              		.cfi_def_cfa_offset 36
 3957              		.cfi_offset 4, -36
 3958              		.cfi_offset 5, -32
 3959              		.cfi_offset 6, -28
 3960              		.cfi_offset 7, -24
 3961              		.cfi_offset 8, -20
 3962              		.cfi_offset 9, -16
 3963              		.cfi_offset 10, -12
ARM GAS  /tmp/ccoxlgn6.s 			page 119


 3964              		.cfi_offset 11, -8
 3965              		.cfi_offset 14, -4
 3966 0004 85B0     		sub	sp, sp, #20
 3967              	.LCFI44:
 3968              		.cfi_def_cfa_offset 56
 3969 0006 0746     		mov	r7, r0
 3970 0008 8B46     		mov	fp, r1
 3971 000a 9246     		mov	r10, r2
 352:Middlewares/lvgl/src/core/lv_obj_style.c **** 
 3972              		.loc 1 352 5 is_stmt 1 view .LVU1196
 3973              	.LVL400:
 355:Middlewares/lvgl/src/core/lv_obj_style.c ****     for(i = 0; i < obj->style_cnt; i++) {
 3974              		.loc 1 355 5 view .LVU1197
 356:Middlewares/lvgl/src/core/lv_obj_style.c ****         if(obj->styles[i].is_trans) continue;
 3975              		.loc 1 356 5 view .LVU1198
 356:Middlewares/lvgl/src/core/lv_obj_style.c ****         if(obj->styles[i].is_trans) continue;
 3976              		.loc 1 356 11 is_stmt 0 view .LVU1199
 3977 000c 0024     		movs	r4, #0
 352:Middlewares/lvgl/src/core/lv_obj_style.c **** 
 3978              		.loc 1 352 27 view .LVU1200
 3979 000e 0194     		str	r4, [sp, #4]
 356:Middlewares/lvgl/src/core/lv_obj_style.c ****         if(obj->styles[i].is_trans) continue;
 3980              		.loc 1 356 5 view .LVU1201
 3981 0010 88E0     		b	.L262
 3982              	.LVL401:
 3983              	.L287:
 3984              	.LBB119:
 3985              	.LBB120:
 370:Middlewares/lvgl/src/core/lv_obj_style.c ****             else if(lv_style_get_prop(style, LV_STYLE_PAD_LEFT, &v)) layout_diff = true;
 3986              		.loc 1 370 18 is_stmt 1 view .LVU1202
 370:Middlewares/lvgl/src/core/lv_obj_style.c ****             else if(lv_style_get_prop(style, LV_STYLE_PAD_LEFT, &v)) layout_diff = true;
 3987              		.loc 1 370 21 is_stmt 0 view .LVU1203
 3988 0012 03AA     		add	r2, sp, #12
 3989 0014 41F21101 		movw	r1, #4113
 3990 0018 2846     		mov	r0, r5
 3991 001a FFF7FEFF 		bl	lv_style_get_prop
 3992              	.LVL402:
 370:Middlewares/lvgl/src/core/lv_obj_style.c ****             else if(lv_style_get_prop(style, LV_STYLE_PAD_LEFT, &v)) layout_diff = true;
 3993              		.loc 1 370 20 view .LVU1204
 3994 001e 0028     		cmp	r0, #0
 3995 0020 40F0B180 		bne	.L264
 371:Middlewares/lvgl/src/core/lv_obj_style.c ****             else if(lv_style_get_prop(style, LV_STYLE_PAD_RIGHT, &v)) layout_diff = true;
 3996              		.loc 1 371 18 is_stmt 1 view .LVU1205
 371:Middlewares/lvgl/src/core/lv_obj_style.c ****             else if(lv_style_get_prop(style, LV_STYLE_PAD_RIGHT, &v)) layout_diff = true;
 3997              		.loc 1 371 21 is_stmt 0 view .LVU1206
 3998 0024 03AA     		add	r2, sp, #12
 3999 0026 41F21201 		movw	r1, #4114
 4000 002a 2846     		mov	r0, r5
 4001 002c FFF7FEFF 		bl	lv_style_get_prop
 4002              	.LVL403:
 371:Middlewares/lvgl/src/core/lv_obj_style.c ****             else if(lv_style_get_prop(style, LV_STYLE_PAD_RIGHT, &v)) layout_diff = true;
 4003              		.loc 1 371 20 view .LVU1207
 4004 0030 0028     		cmp	r0, #0
 4005 0032 40F0A880 		bne	.L264
 372:Middlewares/lvgl/src/core/lv_obj_style.c ****             else if(lv_style_get_prop(style, LV_STYLE_PAD_COLUMN, &v)) layout_diff = true;
 4006              		.loc 1 372 18 is_stmt 1 view .LVU1208
 372:Middlewares/lvgl/src/core/lv_obj_style.c ****             else if(lv_style_get_prop(style, LV_STYLE_PAD_COLUMN, &v)) layout_diff = true;
ARM GAS  /tmp/ccoxlgn6.s 			page 120


 4007              		.loc 1 372 21 is_stmt 0 view .LVU1209
 4008 0036 03AA     		add	r2, sp, #12
 4009 0038 41F21301 		movw	r1, #4115
 4010 003c 2846     		mov	r0, r5
 4011 003e FFF7FEFF 		bl	lv_style_get_prop
 4012              	.LVL404:
 372:Middlewares/lvgl/src/core/lv_obj_style.c ****             else if(lv_style_get_prop(style, LV_STYLE_PAD_COLUMN, &v)) layout_diff = true;
 4013              		.loc 1 372 20 view .LVU1210
 4014 0042 0028     		cmp	r0, #0
 4015 0044 40F09F80 		bne	.L264
 373:Middlewares/lvgl/src/core/lv_obj_style.c ****             else if(lv_style_get_prop(style, LV_STYLE_PAD_ROW, &v)) layout_diff = true;
 4016              		.loc 1 373 18 is_stmt 1 view .LVU1211
 373:Middlewares/lvgl/src/core/lv_obj_style.c ****             else if(lv_style_get_prop(style, LV_STYLE_PAD_ROW, &v)) layout_diff = true;
 4017              		.loc 1 373 21 is_stmt 0 view .LVU1212
 4018 0048 03AA     		add	r2, sp, #12
 4019 004a 41F21501 		movw	r1, #4117
 4020 004e 2846     		mov	r0, r5
 4021 0050 FFF7FEFF 		bl	lv_style_get_prop
 4022              	.LVL405:
 373:Middlewares/lvgl/src/core/lv_obj_style.c ****             else if(lv_style_get_prop(style, LV_STYLE_PAD_ROW, &v)) layout_diff = true;
 4023              		.loc 1 373 20 view .LVU1213
 4024 0054 0028     		cmp	r0, #0
 4025 0056 40F09680 		bne	.L264
 374:Middlewares/lvgl/src/core/lv_obj_style.c ****             else if(lv_style_get_prop(style, LV_STYLE_LAYOUT, &v)) layout_diff = true;
 4026              		.loc 1 374 18 is_stmt 1 view .LVU1214
 374:Middlewares/lvgl/src/core/lv_obj_style.c ****             else if(lv_style_get_prop(style, LV_STYLE_LAYOUT, &v)) layout_diff = true;
 4027              		.loc 1 374 21 is_stmt 0 view .LVU1215
 4028 005a 03AA     		add	r2, sp, #12
 4029 005c 41F21401 		movw	r1, #4116
 4030 0060 2846     		mov	r0, r5
 4031 0062 FFF7FEFF 		bl	lv_style_get_prop
 4032              	.LVL406:
 374:Middlewares/lvgl/src/core/lv_obj_style.c ****             else if(lv_style_get_prop(style, LV_STYLE_LAYOUT, &v)) layout_diff = true;
 4033              		.loc 1 374 20 view .LVU1216
 4034 0066 0028     		cmp	r0, #0
 4035 0068 40F08D80 		bne	.L264
 375:Middlewares/lvgl/src/core/lv_obj_style.c ****             else if(lv_style_get_prop(style, LV_STYLE_TRANSLATE_X, &v)) layout_diff = true;
 4036              		.loc 1 375 18 is_stmt 1 view .LVU1217
 375:Middlewares/lvgl/src/core/lv_obj_style.c ****             else if(lv_style_get_prop(style, LV_STYLE_TRANSLATE_X, &v)) layout_diff = true;
 4037              		.loc 1 375 21 is_stmt 0 view .LVU1218
 4038 006c 03AA     		add	r2, sp, #12
 4039 006e 41F26901 		movw	r1, #4201
 4040 0072 2846     		mov	r0, r5
 4041 0074 FFF7FEFF 		bl	lv_style_get_prop
 4042              	.LVL407:
 375:Middlewares/lvgl/src/core/lv_obj_style.c ****             else if(lv_style_get_prop(style, LV_STYLE_TRANSLATE_X, &v)) layout_diff = true;
 4043              		.loc 1 375 20 view .LVU1219
 4044 0078 0028     		cmp	r0, #0
 4045 007a 40F08480 		bne	.L264
 376:Middlewares/lvgl/src/core/lv_obj_style.c ****             else if(lv_style_get_prop(style, LV_STYLE_TRANSLATE_Y, &v)) layout_diff = true;
 4046              		.loc 1 376 18 is_stmt 1 view .LVU1220
 376:Middlewares/lvgl/src/core/lv_obj_style.c ****             else if(lv_style_get_prop(style, LV_STYLE_TRANSLATE_Y, &v)) layout_diff = true;
 4047              		.loc 1 376 21 is_stmt 0 view .LVU1221
 4048 007e 03AA     		add	r2, sp, #12
 4049 0080 43F20C01 		movw	r1, #12300
 4050 0084 2846     		mov	r0, r5
 4051 0086 FFF7FEFF 		bl	lv_style_get_prop
ARM GAS  /tmp/ccoxlgn6.s 			page 121


 4052              	.LVL408:
 376:Middlewares/lvgl/src/core/lv_obj_style.c ****             else if(lv_style_get_prop(style, LV_STYLE_TRANSLATE_Y, &v)) layout_diff = true;
 4053              		.loc 1 376 20 view .LVU1222
 4054 008a 0028     		cmp	r0, #0
 4055 008c 7BD1     		bne	.L264
 377:Middlewares/lvgl/src/core/lv_obj_style.c ****             else if(lv_style_get_prop(style, LV_STYLE_WIDTH, &v)) layout_diff = true;
 4056              		.loc 1 377 18 is_stmt 1 view .LVU1223
 377:Middlewares/lvgl/src/core/lv_obj_style.c ****             else if(lv_style_get_prop(style, LV_STYLE_WIDTH, &v)) layout_diff = true;
 4057              		.loc 1 377 21 is_stmt 0 view .LVU1224
 4058 008e 03AA     		add	r2, sp, #12
 4059 0090 43F20D01 		movw	r1, #12301
 4060 0094 2846     		mov	r0, r5
 4061 0096 FFF7FEFF 		bl	lv_style_get_prop
 4062              	.LVL409:
 377:Middlewares/lvgl/src/core/lv_obj_style.c ****             else if(lv_style_get_prop(style, LV_STYLE_WIDTH, &v)) layout_diff = true;
 4063              		.loc 1 377 20 view .LVU1225
 4064 009a 0028     		cmp	r0, #0
 4065 009c 73D1     		bne	.L264
 378:Middlewares/lvgl/src/core/lv_obj_style.c ****             else if(lv_style_get_prop(style, LV_STYLE_HEIGHT, &v)) layout_diff = true;
 4066              		.loc 1 378 18 is_stmt 1 view .LVU1226
 378:Middlewares/lvgl/src/core/lv_obj_style.c ****             else if(lv_style_get_prop(style, LV_STYLE_HEIGHT, &v)) layout_diff = true;
 4067              		.loc 1 378 21 is_stmt 0 view .LVU1227
 4068 009e 03AA     		add	r2, sp, #12
 4069 00a0 41F20101 		movw	r1, #4097
 4070 00a4 2846     		mov	r0, r5
 4071 00a6 FFF7FEFF 		bl	lv_style_get_prop
 4072              	.LVL410:
 378:Middlewares/lvgl/src/core/lv_obj_style.c ****             else if(lv_style_get_prop(style, LV_STYLE_HEIGHT, &v)) layout_diff = true;
 4073              		.loc 1 378 20 view .LVU1228
 4074 00aa 0028     		cmp	r0, #0
 4075 00ac 6BD1     		bne	.L264
 379:Middlewares/lvgl/src/core/lv_obj_style.c ****             else if(lv_style_get_prop(style, LV_STYLE_MIN_WIDTH, &v)) layout_diff = true;
 4076              		.loc 1 379 18 is_stmt 1 view .LVU1229
 379:Middlewares/lvgl/src/core/lv_obj_style.c ****             else if(lv_style_get_prop(style, LV_STYLE_MIN_WIDTH, &v)) layout_diff = true;
 4077              		.loc 1 379 21 is_stmt 0 view .LVU1230
 4078 00ae 03AA     		add	r2, sp, #12
 4079 00b0 41F20401 		movw	r1, #4100
 4080 00b4 2846     		mov	r0, r5
 4081 00b6 FFF7FEFF 		bl	lv_style_get_prop
 4082              	.LVL411:
 379:Middlewares/lvgl/src/core/lv_obj_style.c ****             else if(lv_style_get_prop(style, LV_STYLE_MIN_WIDTH, &v)) layout_diff = true;
 4083              		.loc 1 379 20 view .LVU1231
 4084 00ba 0028     		cmp	r0, #0
 4085 00bc 63D1     		bne	.L264
 380:Middlewares/lvgl/src/core/lv_obj_style.c ****             else if(lv_style_get_prop(style, LV_STYLE_MAX_WIDTH, &v)) layout_diff = true;
 4086              		.loc 1 380 18 is_stmt 1 view .LVU1232
 380:Middlewares/lvgl/src/core/lv_obj_style.c ****             else if(lv_style_get_prop(style, LV_STYLE_MAX_WIDTH, &v)) layout_diff = true;
 4087              		.loc 1 380 21 is_stmt 0 view .LVU1233
 4088 00be 03AA     		add	r2, sp, #12
 4089 00c0 41F20201 		movw	r1, #4098
 4090 00c4 2846     		mov	r0, r5
 4091 00c6 FFF7FEFF 		bl	lv_style_get_prop
 4092              	.LVL412:
 380:Middlewares/lvgl/src/core/lv_obj_style.c ****             else if(lv_style_get_prop(style, LV_STYLE_MAX_WIDTH, &v)) layout_diff = true;
 4093              		.loc 1 380 20 view .LVU1234
 4094 00ca 0028     		cmp	r0, #0
 4095 00cc 5BD1     		bne	.L264
ARM GAS  /tmp/ccoxlgn6.s 			page 122


 381:Middlewares/lvgl/src/core/lv_obj_style.c ****             else if(lv_style_get_prop(style, LV_STYLE_MIN_HEIGHT, &v)) layout_diff = true;
 4096              		.loc 1 381 18 is_stmt 1 view .LVU1235
 381:Middlewares/lvgl/src/core/lv_obj_style.c ****             else if(lv_style_get_prop(style, LV_STYLE_MIN_HEIGHT, &v)) layout_diff = true;
 4097              		.loc 1 381 21 is_stmt 0 view .LVU1236
 4098 00ce 03AA     		add	r2, sp, #12
 4099 00d0 41F20301 		movw	r1, #4099
 4100 00d4 2846     		mov	r0, r5
 4101 00d6 FFF7FEFF 		bl	lv_style_get_prop
 4102              	.LVL413:
 381:Middlewares/lvgl/src/core/lv_obj_style.c ****             else if(lv_style_get_prop(style, LV_STYLE_MIN_HEIGHT, &v)) layout_diff = true;
 4103              		.loc 1 381 20 view .LVU1237
 4104 00da 0028     		cmp	r0, #0
 4105 00dc 53D1     		bne	.L264
 382:Middlewares/lvgl/src/core/lv_obj_style.c ****             else if(lv_style_get_prop(style, LV_STYLE_MAX_HEIGHT, &v)) layout_diff = true;
 4106              		.loc 1 382 18 is_stmt 1 view .LVU1238
 382:Middlewares/lvgl/src/core/lv_obj_style.c ****             else if(lv_style_get_prop(style, LV_STYLE_MAX_HEIGHT, &v)) layout_diff = true;
 4107              		.loc 1 382 21 is_stmt 0 view .LVU1239
 4108 00de 03AA     		add	r2, sp, #12
 4109 00e0 41F20501 		movw	r1, #4101
 4110 00e4 2846     		mov	r0, r5
 4111 00e6 FFF7FEFF 		bl	lv_style_get_prop
 4112              	.LVL414:
 382:Middlewares/lvgl/src/core/lv_obj_style.c ****             else if(lv_style_get_prop(style, LV_STYLE_MAX_HEIGHT, &v)) layout_diff = true;
 4113              		.loc 1 382 20 view .LVU1240
 4114 00ea 0028     		cmp	r0, #0
 4115 00ec 4BD1     		bne	.L264
 383:Middlewares/lvgl/src/core/lv_obj_style.c ****             else if(lv_style_get_prop(style, LV_STYLE_BORDER_WIDTH, &v)) layout_diff = true;
 4116              		.loc 1 383 18 is_stmt 1 view .LVU1241
 383:Middlewares/lvgl/src/core/lv_obj_style.c ****             else if(lv_style_get_prop(style, LV_STYLE_BORDER_WIDTH, &v)) layout_diff = true;
 4117              		.loc 1 383 21 is_stmt 0 view .LVU1242
 4118 00ee 03AA     		add	r2, sp, #12
 4119 00f0 41F20601 		movw	r1, #4102
 4120 00f4 2846     		mov	r0, r5
 4121 00f6 FFF7FEFF 		bl	lv_style_get_prop
 4122              	.LVL415:
 383:Middlewares/lvgl/src/core/lv_obj_style.c ****             else if(lv_style_get_prop(style, LV_STYLE_BORDER_WIDTH, &v)) layout_diff = true;
 4123              		.loc 1 383 20 view .LVU1243
 4124 00fa 0028     		cmp	r0, #0
 4125 00fc 43D1     		bne	.L264
 384:Middlewares/lvgl/src/core/lv_obj_style.c **** 
 4126              		.loc 1 384 18 is_stmt 1 view .LVU1244
 384:Middlewares/lvgl/src/core/lv_obj_style.c **** 
 4127              		.loc 1 384 21 is_stmt 0 view .LVU1245
 4128 00fe 03AA     		add	r2, sp, #12
 4129 0100 41F23201 		movw	r1, #4146
 4130 0104 2846     		mov	r0, r5
 4131 0106 FFF7FEFF 		bl	lv_style_get_prop
 4132              	.LVL416:
 384:Middlewares/lvgl/src/core/lv_obj_style.c **** 
 4133              		.loc 1 384 20 view .LVU1246
 4134 010a 0028     		cmp	r0, #0
 4135 010c 3BD1     		bne	.L264
 386:Middlewares/lvgl/src/core/lv_obj_style.c ****                 if(part_act == LV_PART_MAIN) {
 4136              		.loc 1 386 13 is_stmt 1 view .LVU1247
 397:Middlewares/lvgl/src/core/lv_obj_style.c ****             else if(lv_style_get_prop(style, LV_STYLE_TRANSFORM_HEIGHT, &v)) res = _LV_STYLE_STATE_
 4137              		.loc 1 397 13 view .LVU1248
 397:Middlewares/lvgl/src/core/lv_obj_style.c ****             else if(lv_style_get_prop(style, LV_STYLE_TRANSFORM_HEIGHT, &v)) res = _LV_STYLE_STATE_
ARM GAS  /tmp/ccoxlgn6.s 			page 123


 4138              		.loc 1 397 16 is_stmt 0 view .LVU1249
 4139 010e 03AA     		add	r2, sp, #12
 4140 0110 40F60A01 		movw	r1, #2058
 4141 0114 2846     		mov	r0, r5
 4142 0116 FFF7FEFF 		bl	lv_style_get_prop
 4143              	.LVL417:
 397:Middlewares/lvgl/src/core/lv_obj_style.c ****             else if(lv_style_get_prop(style, LV_STYLE_TRANSFORM_HEIGHT, &v)) res = _LV_STYLE_STATE_
 4144              		.loc 1 397 15 view .LVU1250
 4145 011a 0028     		cmp	r0, #0
 4146 011c 3DD0     		beq	.L286
 397:Middlewares/lvgl/src/core/lv_obj_style.c ****             else if(lv_style_get_prop(style, LV_STYLE_TRANSFORM_HEIGHT, &v)) res = _LV_STYLE_STATE_
 4147              		.loc 1 397 76 view .LVU1251
 4148 011e 0223     		movs	r3, #2
 4149 0120 0193     		str	r3, [sp, #4]
 4150              	.LVL418:
 4151              	.L263:
 397:Middlewares/lvgl/src/core/lv_obj_style.c ****             else if(lv_style_get_prop(style, LV_STYLE_TRANSFORM_HEIGHT, &v)) res = _LV_STYLE_STATE_
 4152              		.loc 1 397 76 view .LVU1252
 4153              	.LBE120:
 4154              	.LBE119:
 356:Middlewares/lvgl/src/core/lv_obj_style.c ****         if(obj->styles[i].is_trans) continue;
 4155              		.loc 1 356 36 is_stmt 1 discriminator 2 view .LVU1253
 356:Middlewares/lvgl/src/core/lv_obj_style.c ****         if(obj->styles[i].is_trans) continue;
 4156              		.loc 1 356 37 is_stmt 0 discriminator 2 view .LVU1254
 4157 0122 0134     		adds	r4, r4, #1
 4158              	.LVL419:
 4159              	.L262:
 356:Middlewares/lvgl/src/core/lv_obj_style.c ****         if(obj->styles[i].is_trans) continue;
 4160              		.loc 1 356 16 is_stmt 1 discriminator 1 view .LVU1255
 356:Middlewares/lvgl/src/core/lv_obj_style.c ****         if(obj->styles[i].is_trans) continue;
 4161              		.loc 1 356 23 is_stmt 0 discriminator 1 view .LVU1256
 4162 0124 7B8C     		ldrh	r3, [r7, #34]
 4163 0126 C3F3C503 		ubfx	r3, r3, #3, #6
 356:Middlewares/lvgl/src/core/lv_obj_style.c ****         if(obj->styles[i].is_trans) continue;
 4164              		.loc 1 356 5 discriminator 1 view .LVU1257
 4165 012a A342     		cmp	r3, r4
 4166 012c 31D9     		bls	.L268
 4167              	.LBB123:
 357:Middlewares/lvgl/src/core/lv_obj_style.c **** 
 4168              		.loc 1 357 9 is_stmt 1 view .LVU1258
 357:Middlewares/lvgl/src/core/lv_obj_style.c **** 
 4169              		.loc 1 357 15 is_stmt 0 view .LVU1259
 4170 012e D7F80C80 		ldr	r8, [r7, #12]
 357:Middlewares/lvgl/src/core/lv_obj_style.c **** 
 4171              		.loc 1 357 23 view .LVU1260
 4172 0132 4FEAC409 		lsl	r9, r4, #3
 4173 0136 08EBC403 		add	r3, r8, r4, lsl #3
 357:Middlewares/lvgl/src/core/lv_obj_style.c **** 
 4174              		.loc 1 357 12 view .LVU1261
 4175 013a DA79     		ldrb	r2, [r3, #7]	@ zero_extendqisi2
 357:Middlewares/lvgl/src/core/lv_obj_style.c **** 
 4176              		.loc 1 357 11 view .LVU1262
 4177 013c 12F0020F 		tst	r2, #2
 4178 0140 EFD1     		bne	.L263
 359:Middlewares/lvgl/src/core/lv_obj_style.c ****         lv_part_t part_act = lv_obj_style_get_selector_part(obj->styles[i].selector);
 4179              		.loc 1 359 9 is_stmt 1 view .LVU1263
 359:Middlewares/lvgl/src/core/lv_obj_style.c ****         lv_part_t part_act = lv_obj_style_get_selector_part(obj->styles[i].selector);
ARM GAS  /tmp/ccoxlgn6.s 			page 124


 4180              		.loc 1 359 78 is_stmt 0 view .LVU1264
 4181 0142 5E68     		ldr	r6, [r3, #4]
 4182 0144 C6F31706 		ubfx	r6, r6, #0, #24
 359:Middlewares/lvgl/src/core/lv_obj_style.c ****         lv_part_t part_act = lv_obj_style_get_selector_part(obj->styles[i].selector);
 4183              		.loc 1 359 32 view .LVU1265
 4184 0148 3046     		mov	r0, r6
 4185 014a FFF7FEFF 		bl	lv_obj_style_get_selector_state
 4186              	.LVL420:
 4187 014e 0546     		mov	r5, r0
 4188              	.LVL421:
 360:Middlewares/lvgl/src/core/lv_obj_style.c ****         /*The style is valid for a stat but not the other*/
 4189              		.loc 1 360 9 is_stmt 1 view .LVU1266
 360:Middlewares/lvgl/src/core/lv_obj_style.c ****         /*The style is valid for a stat but not the other*/
 4190              		.loc 1 360 30 is_stmt 0 view .LVU1267
 4191 0150 3046     		mov	r0, r6
 4192 0152 FFF7FEFF 		bl	lv_obj_style_get_selector_part
 4193              	.LVL422:
 4194 0156 0646     		mov	r6, r0
 4195              	.LVL423:
 362:Middlewares/lvgl/src/core/lv_obj_style.c ****         bool valid2 = state_act & (~state2) ? false : true;
 4196              		.loc 1 362 9 is_stmt 1 view .LVU1268
 362:Middlewares/lvgl/src/core/lv_obj_style.c ****         bool valid2 = state_act & (~state2) ? false : true;
 4197              		.loc 1 362 14 is_stmt 0 view .LVU1269
 4198 0158 35EA0B03 		bics	r3, r5, fp
 4199 015c 0CBF     		ite	eq
 4200 015e 0122     		moveq	r2, #1
 4201 0160 0022     		movne	r2, #0
 4202              	.LVL424:
 363:Middlewares/lvgl/src/core/lv_obj_style.c ****         if(valid1 != valid2) {
 4203              		.loc 1 363 9 is_stmt 1 view .LVU1270
 363:Middlewares/lvgl/src/core/lv_obj_style.c ****         if(valid1 != valid2) {
 4204              		.loc 1 363 14 is_stmt 0 view .LVU1271
 4205 0162 35EA0A03 		bics	r3, r5, r10
 4206 0166 0CBF     		ite	eq
 4207 0168 0123     		moveq	r3, #1
 4208 016a 0023     		movne	r3, #0
 4209              	.LVL425:
 364:Middlewares/lvgl/src/core/lv_obj_style.c ****             lv_style_t * style = obj->styles[i].style;
 4210              		.loc 1 364 9 is_stmt 1 view .LVU1272
 364:Middlewares/lvgl/src/core/lv_obj_style.c ****             lv_style_t * style = obj->styles[i].style;
 4211              		.loc 1 364 11 is_stmt 0 view .LVU1273
 4212 016c 9A42     		cmp	r2, r3
 4213 016e D8D0     		beq	.L263
 4214              	.LBB121:
 365:Middlewares/lvgl/src/core/lv_obj_style.c ****             lv_style_value_t v;
 4215              		.loc 1 365 13 is_stmt 1 view .LVU1274
 365:Middlewares/lvgl/src/core/lv_obj_style.c ****             lv_style_value_t v;
 4216              		.loc 1 365 26 is_stmt 0 view .LVU1275
 4217 0170 58F80950 		ldr	r5, [r8, r9]
 4218              	.LVL426:
 366:Middlewares/lvgl/src/core/lv_obj_style.c ****             /*If there is layout difference on the main part, return immediately. There is no more 
 4219              		.loc 1 366 13 is_stmt 1 view .LVU1276
 368:Middlewares/lvgl/src/core/lv_obj_style.c ****             if(lv_style_get_prop(style, LV_STYLE_PAD_TOP, &v))layout_diff = true;
 4220              		.loc 1 368 13 view .LVU1277
 369:Middlewares/lvgl/src/core/lv_obj_style.c ****             else if(lv_style_get_prop(style, LV_STYLE_PAD_BOTTOM, &v)) layout_diff = true;
 4221              		.loc 1 369 13 view .LVU1278
 369:Middlewares/lvgl/src/core/lv_obj_style.c ****             else if(lv_style_get_prop(style, LV_STYLE_PAD_BOTTOM, &v)) layout_diff = true;
ARM GAS  /tmp/ccoxlgn6.s 			page 125


 4222              		.loc 1 369 16 is_stmt 0 view .LVU1279
 4223 0174 03AA     		add	r2, sp, #12
 4224              	.LVL427:
 369:Middlewares/lvgl/src/core/lv_obj_style.c ****             else if(lv_style_get_prop(style, LV_STYLE_PAD_BOTTOM, &v)) layout_diff = true;
 4225              		.loc 1 369 16 view .LVU1280
 4226 0176 41F21001 		movw	r1, #4112
 4227 017a 2846     		mov	r0, r5
 4228              	.LVL428:
 369:Middlewares/lvgl/src/core/lv_obj_style.c ****             else if(lv_style_get_prop(style, LV_STYLE_PAD_BOTTOM, &v)) layout_diff = true;
 4229              		.loc 1 369 16 view .LVU1281
 4230 017c FFF7FEFF 		bl	lv_style_get_prop
 4231              	.LVL429:
 369:Middlewares/lvgl/src/core/lv_obj_style.c ****             else if(lv_style_get_prop(style, LV_STYLE_PAD_BOTTOM, &v)) layout_diff = true;
 4232              		.loc 1 369 15 view .LVU1282
 4233 0180 0028     		cmp	r0, #0
 4234 0182 3FF446AF 		beq	.L287
 4235              	.L264:
 4236              	.LVL430:
 387:Middlewares/lvgl/src/core/lv_obj_style.c ****                     return _LV_STYLE_STATE_CMP_DIFF_LAYOUT;
 4237              		.loc 1 387 17 is_stmt 1 view .LVU1283
 387:Middlewares/lvgl/src/core/lv_obj_style.c ****                     return _LV_STYLE_STATE_CMP_DIFF_LAYOUT;
 4238              		.loc 1 387 19 is_stmt 0 view .LVU1284
 4239 0186 16B1     		cbz	r6, .L288
 391:Middlewares/lvgl/src/core/lv_obj_style.c ****                     continue;
 4240              		.loc 1 391 21 is_stmt 1 view .LVU1285
 4241              	.LVL431:
 392:Middlewares/lvgl/src/core/lv_obj_style.c ****                 }
 4242              		.loc 1 392 21 view .LVU1286
 391:Middlewares/lvgl/src/core/lv_obj_style.c ****                     continue;
 4243              		.loc 1 391 25 is_stmt 0 view .LVU1287
 4244 0188 0223     		movs	r3, #2
 4245 018a 0193     		str	r3, [sp, #4]
 4246 018c C9E7     		b	.L263
 4247              	.LVL432:
 4248              	.L288:
 388:Middlewares/lvgl/src/core/lv_obj_style.c ****                 }
 4249              		.loc 1 388 21 is_stmt 1 view .LVU1288
 388:Middlewares/lvgl/src/core/lv_obj_style.c ****                 }
 4250              		.loc 1 388 28 is_stmt 0 view .LVU1289
 4251 018e 0323     		movs	r3, #3
 4252 0190 0193     		str	r3, [sp, #4]
 4253              	.LVL433:
 4254              	.L268:
 388:Middlewares/lvgl/src/core/lv_obj_style.c ****                 }
 4255              		.loc 1 388 28 view .LVU1290
 4256              	.LBE121:
 4257              	.LBE123:
 415:Middlewares/lvgl/src/core/lv_obj_style.c **** 
 4258              		.loc 1 415 1 view .LVU1291
 4259 0192 0198     		ldr	r0, [sp, #4]
 4260 0194 05B0     		add	sp, sp, #20
 4261              	.LCFI45:
 4262              		.cfi_remember_state
 4263              		.cfi_def_cfa_offset 36
 4264              		@ sp needed
 4265 0196 BDE8F08F 		pop	{r4, r5, r6, r7, r8, r9, r10, fp, pc}
 4266              	.LVL434:
ARM GAS  /tmp/ccoxlgn6.s 			page 126


 4267              	.L286:
 4268              	.LCFI46:
 4269              		.cfi_restore_state
 4270              	.LBB124:
 4271              	.LBB122:
 398:Middlewares/lvgl/src/core/lv_obj_style.c ****             else if(lv_style_get_prop(style, LV_STYLE_TRANSFORM_ANGLE, &v)) res = _LV_STYLE_STATE_C
 4272              		.loc 1 398 18 is_stmt 1 view .LVU1292
 398:Middlewares/lvgl/src/core/lv_obj_style.c ****             else if(lv_style_get_prop(style, LV_STYLE_TRANSFORM_ANGLE, &v)) res = _LV_STYLE_STATE_C
 4273              		.loc 1 398 21 is_stmt 0 view .LVU1293
 4274 019a 03AA     		add	r2, sp, #12
 4275 019c 40F60B01 		movw	r1, #2059
 4276 01a0 2846     		mov	r0, r5
 4277 01a2 FFF7FEFF 		bl	lv_style_get_prop
 4278              	.LVL435:
 398:Middlewares/lvgl/src/core/lv_obj_style.c ****             else if(lv_style_get_prop(style, LV_STYLE_TRANSFORM_ANGLE, &v)) res = _LV_STYLE_STATE_C
 4279              		.loc 1 398 20 view .LVU1294
 4280 01a6 0028     		cmp	r0, #0
 4281 01a8 5CD1     		bne	.L271
 399:Middlewares/lvgl/src/core/lv_obj_style.c ****             else if(lv_style_get_prop(style, LV_STYLE_TRANSFORM_ZOOM, &v)) res = _LV_STYLE_STATE_CM
 4282              		.loc 1 399 18 is_stmt 1 view .LVU1295
 399:Middlewares/lvgl/src/core/lv_obj_style.c ****             else if(lv_style_get_prop(style, LV_STYLE_TRANSFORM_ZOOM, &v)) res = _LV_STYLE_STATE_CM
 4283              		.loc 1 399 21 is_stmt 0 view .LVU1296
 4284 01aa 03AA     		add	r2, sp, #12
 4285 01ac 40F60F01 		movw	r1, #2063
 4286 01b0 2846     		mov	r0, r5
 4287 01b2 FFF7FEFF 		bl	lv_style_get_prop
 4288              	.LVL436:
 399:Middlewares/lvgl/src/core/lv_obj_style.c ****             else if(lv_style_get_prop(style, LV_STYLE_TRANSFORM_ZOOM, &v)) res = _LV_STYLE_STATE_CM
 4289              		.loc 1 399 20 view .LVU1297
 4290 01b6 10B1     		cbz	r0, .L289
 399:Middlewares/lvgl/src/core/lv_obj_style.c ****             else if(lv_style_get_prop(style, LV_STYLE_TRANSFORM_ZOOM, &v)) res = _LV_STYLE_STATE_CM
 4291              		.loc 1 399 81 view .LVU1298
 4292 01b8 0223     		movs	r3, #2
 4293 01ba 0193     		str	r3, [sp, #4]
 4294              	.LVL437:
 399:Middlewares/lvgl/src/core/lv_obj_style.c ****             else if(lv_style_get_prop(style, LV_STYLE_TRANSFORM_ZOOM, &v)) res = _LV_STYLE_STATE_CM
 4295              		.loc 1 399 81 view .LVU1299
 4296 01bc B1E7     		b	.L263
 4297              	.LVL438:
 4298              	.L289:
 400:Middlewares/lvgl/src/core/lv_obj_style.c ****             else if(lv_style_get_prop(style, LV_STYLE_OUTLINE_OPA, &v)) res = _LV_STYLE_STATE_CMP_D
 4299              		.loc 1 400 18 is_stmt 1 view .LVU1300
 400:Middlewares/lvgl/src/core/lv_obj_style.c ****             else if(lv_style_get_prop(style, LV_STYLE_OUTLINE_OPA, &v)) res = _LV_STYLE_STATE_CMP_D
 4300              		.loc 1 400 21 is_stmt 0 view .LVU1301
 4301 01be 03AA     		add	r2, sp, #12
 4302 01c0 40F60E01 		movw	r1, #2062
 4303 01c4 2846     		mov	r0, r5
 4304 01c6 FFF7FEFF 		bl	lv_style_get_prop
 4305              	.LVL439:
 400:Middlewares/lvgl/src/core/lv_obj_style.c ****             else if(lv_style_get_prop(style, LV_STYLE_OUTLINE_OPA, &v)) res = _LV_STYLE_STATE_CMP_D
 4306              		.loc 1 400 20 view .LVU1302
 4307 01ca 0028     		cmp	r0, #0
 4308 01cc 4DD1     		bne	.L273
 401:Middlewares/lvgl/src/core/lv_obj_style.c ****             else if(lv_style_get_prop(style, LV_STYLE_OUTLINE_PAD, &v)) res = _LV_STYLE_STATE_CMP_D
 4309              		.loc 1 401 18 is_stmt 1 view .LVU1303
 401:Middlewares/lvgl/src/core/lv_obj_style.c ****             else if(lv_style_get_prop(style, LV_STYLE_OUTLINE_PAD, &v)) res = _LV_STYLE_STATE_CMP_D
 4310              		.loc 1 401 21 is_stmt 0 view .LVU1304
ARM GAS  /tmp/ccoxlgn6.s 			page 127


 4311 01ce 03AA     		add	r2, sp, #12
 4312 01d0 40F63C01 		movw	r1, #2108
 4313 01d4 2846     		mov	r0, r5
 4314 01d6 FFF7FEFF 		bl	lv_style_get_prop
 4315              	.LVL440:
 401:Middlewares/lvgl/src/core/lv_obj_style.c ****             else if(lv_style_get_prop(style, LV_STYLE_OUTLINE_PAD, &v)) res = _LV_STYLE_STATE_CMP_D
 4316              		.loc 1 401 20 view .LVU1305
 4317 01da 0028     		cmp	r0, #0
 4318 01dc 48D1     		bne	.L274
 402:Middlewares/lvgl/src/core/lv_obj_style.c ****             else if(lv_style_get_prop(style, LV_STYLE_OUTLINE_WIDTH, &v)) res = _LV_STYLE_STATE_CMP
 4319              		.loc 1 402 18 is_stmt 1 view .LVU1306
 402:Middlewares/lvgl/src/core/lv_obj_style.c ****             else if(lv_style_get_prop(style, LV_STYLE_OUTLINE_WIDTH, &v)) res = _LV_STYLE_STATE_CMP
 4320              		.loc 1 402 21 is_stmt 0 view .LVU1307
 4321 01de 03AA     		add	r2, sp, #12
 4322 01e0 40F63D01 		movw	r1, #2109
 4323 01e4 2846     		mov	r0, r5
 4324 01e6 FFF7FEFF 		bl	lv_style_get_prop
 4325              	.LVL441:
 402:Middlewares/lvgl/src/core/lv_obj_style.c ****             else if(lv_style_get_prop(style, LV_STYLE_OUTLINE_WIDTH, &v)) res = _LV_STYLE_STATE_CMP
 4326              		.loc 1 402 20 view .LVU1308
 4327 01ea 0028     		cmp	r0, #0
 4328 01ec 43D1     		bne	.L275
 403:Middlewares/lvgl/src/core/lv_obj_style.c ****             else if(lv_style_get_prop(style, LV_STYLE_SHADOW_WIDTH, &v)) res = _LV_STYLE_STATE_CMP_
 4329              		.loc 1 403 18 is_stmt 1 view .LVU1309
 403:Middlewares/lvgl/src/core/lv_obj_style.c ****             else if(lv_style_get_prop(style, LV_STYLE_SHADOW_WIDTH, &v)) res = _LV_STYLE_STATE_CMP_
 4330              		.loc 1 403 21 is_stmt 0 view .LVU1310
 4331 01ee 03AA     		add	r2, sp, #12
 4332 01f0 40F63A01 		movw	r1, #2106
 4333 01f4 2846     		mov	r0, r5
 4334 01f6 FFF7FEFF 		bl	lv_style_get_prop
 4335              	.LVL442:
 403:Middlewares/lvgl/src/core/lv_obj_style.c ****             else if(lv_style_get_prop(style, LV_STYLE_SHADOW_WIDTH, &v)) res = _LV_STYLE_STATE_CMP_
 4336              		.loc 1 403 20 view .LVU1311
 4337 01fa 0028     		cmp	r0, #0
 4338 01fc 3ED1     		bne	.L276
 404:Middlewares/lvgl/src/core/lv_obj_style.c ****             else if(lv_style_get_prop(style, LV_STYLE_SHADOW_OPA, &v)) res = _LV_STYLE_STATE_CMP_DI
 4339              		.loc 1 404 18 is_stmt 1 view .LVU1312
 404:Middlewares/lvgl/src/core/lv_obj_style.c ****             else if(lv_style_get_prop(style, LV_STYLE_SHADOW_OPA, &v)) res = _LV_STYLE_STATE_CMP_DI
 4340              		.loc 1 404 21 is_stmt 0 view .LVU1313
 4341 01fe 03AA     		add	r2, sp, #12
 4342 0200 4FF40461 		mov	r1, #2112
 4343 0204 2846     		mov	r0, r5
 4344 0206 FFF7FEFF 		bl	lv_style_get_prop
 4345              	.LVL443:
 404:Middlewares/lvgl/src/core/lv_obj_style.c ****             else if(lv_style_get_prop(style, LV_STYLE_SHADOW_OPA, &v)) res = _LV_STYLE_STATE_CMP_DI
 4346              		.loc 1 404 20 view .LVU1314
 4347 020a 0028     		cmp	r0, #0
 4348 020c 39D1     		bne	.L277
 405:Middlewares/lvgl/src/core/lv_obj_style.c ****             else if(lv_style_get_prop(style, LV_STYLE_SHADOW_OFS_X, &v)) res = _LV_STYLE_STATE_CMP_
 4349              		.loc 1 405 18 is_stmt 1 view .LVU1315
 405:Middlewares/lvgl/src/core/lv_obj_style.c ****             else if(lv_style_get_prop(style, LV_STYLE_SHADOW_OFS_X, &v)) res = _LV_STYLE_STATE_CMP_
 4350              		.loc 1 405 21 is_stmt 0 view .LVU1316
 4351 020e 03AA     		add	r2, sp, #12
 4352 0210 40F64501 		movw	r1, #2117
 4353 0214 2846     		mov	r0, r5
 4354 0216 FFF7FEFF 		bl	lv_style_get_prop
 4355              	.LVL444:
ARM GAS  /tmp/ccoxlgn6.s 			page 128


 405:Middlewares/lvgl/src/core/lv_obj_style.c ****             else if(lv_style_get_prop(style, LV_STYLE_SHADOW_OFS_X, &v)) res = _LV_STYLE_STATE_CMP_
 4356              		.loc 1 405 20 view .LVU1317
 4357 021a 0028     		cmp	r0, #0
 4358 021c 34D1     		bne	.L278
 406:Middlewares/lvgl/src/core/lv_obj_style.c ****             else if(lv_style_get_prop(style, LV_STYLE_SHADOW_OFS_Y, &v)) res = _LV_STYLE_STATE_CMP_
 4359              		.loc 1 406 18 is_stmt 1 view .LVU1318
 406:Middlewares/lvgl/src/core/lv_obj_style.c ****             else if(lv_style_get_prop(style, LV_STYLE_SHADOW_OFS_Y, &v)) res = _LV_STYLE_STATE_CMP_
 4360              		.loc 1 406 21 is_stmt 0 view .LVU1319
 4361 021e 03AA     		add	r2, sp, #12
 4362 0220 40F64101 		movw	r1, #2113
 4363 0224 2846     		mov	r0, r5
 4364 0226 FFF7FEFF 		bl	lv_style_get_prop
 4365              	.LVL445:
 406:Middlewares/lvgl/src/core/lv_obj_style.c ****             else if(lv_style_get_prop(style, LV_STYLE_SHADOW_OFS_Y, &v)) res = _LV_STYLE_STATE_CMP_
 4366              		.loc 1 406 20 view .LVU1320
 4367 022a 80BB     		cbnz	r0, .L279
 407:Middlewares/lvgl/src/core/lv_obj_style.c ****             else if(lv_style_get_prop(style, LV_STYLE_SHADOW_SPREAD, &v)) res = _LV_STYLE_STATE_CMP
 4368              		.loc 1 407 18 is_stmt 1 view .LVU1321
 407:Middlewares/lvgl/src/core/lv_obj_style.c ****             else if(lv_style_get_prop(style, LV_STYLE_SHADOW_SPREAD, &v)) res = _LV_STYLE_STATE_CMP
 4369              		.loc 1 407 21 is_stmt 0 view .LVU1322
 4370 022c 03AA     		add	r2, sp, #12
 4371 022e 40F64201 		movw	r1, #2114
 4372 0232 2846     		mov	r0, r5
 4373 0234 FFF7FEFF 		bl	lv_style_get_prop
 4374              	.LVL446:
 407:Middlewares/lvgl/src/core/lv_obj_style.c ****             else if(lv_style_get_prop(style, LV_STYLE_SHADOW_SPREAD, &v)) res = _LV_STYLE_STATE_CMP
 4375              		.loc 1 407 20 view .LVU1323
 4376 0238 60BB     		cbnz	r0, .L280
 408:Middlewares/lvgl/src/core/lv_obj_style.c ****             else if(lv_style_get_prop(style, LV_STYLE_LINE_WIDTH, &v)) res = _LV_STYLE_STATE_CMP_DI
 4377              		.loc 1 408 18 is_stmt 1 view .LVU1324
 408:Middlewares/lvgl/src/core/lv_obj_style.c ****             else if(lv_style_get_prop(style, LV_STYLE_LINE_WIDTH, &v)) res = _LV_STYLE_STATE_CMP_DI
 4378              		.loc 1 408 21 is_stmt 0 view .LVU1325
 4379 023a 03AA     		add	r2, sp, #12
 4380 023c 40F64301 		movw	r1, #2115
 4381 0240 2846     		mov	r0, r5
 4382 0242 FFF7FEFF 		bl	lv_style_get_prop
 4383              	.LVL447:
 408:Middlewares/lvgl/src/core/lv_obj_style.c ****             else if(lv_style_get_prop(style, LV_STYLE_LINE_WIDTH, &v)) res = _LV_STYLE_STATE_CMP_DI
 4384              		.loc 1 408 20 view .LVU1326
 4385 0246 40BB     		cbnz	r0, .L281
 409:Middlewares/lvgl/src/core/lv_obj_style.c ****             else if(res == _LV_STYLE_STATE_CMP_SAME) res = _LV_STYLE_STATE_CMP_DIFF_REDRAW;
 4386              		.loc 1 409 18 is_stmt 1 view .LVU1327
 409:Middlewares/lvgl/src/core/lv_obj_style.c ****             else if(res == _LV_STYLE_STATE_CMP_SAME) res = _LV_STYLE_STATE_CMP_DIFF_REDRAW;
 4387              		.loc 1 409 21 is_stmt 0 view .LVU1328
 4388 0248 03AA     		add	r2, sp, #12
 4389 024a 40F64901 		movw	r1, #2121
 4390 024e 2846     		mov	r0, r5
 4391 0250 FFF7FEFF 		bl	lv_style_get_prop
 4392              	.LVL448:
 409:Middlewares/lvgl/src/core/lv_obj_style.c ****             else if(res == _LV_STYLE_STATE_CMP_SAME) res = _LV_STYLE_STATE_CMP_DIFF_REDRAW;
 4393              		.loc 1 409 20 view .LVU1329
 4394 0254 20BB     		cbnz	r0, .L282
 410:Middlewares/lvgl/src/core/lv_obj_style.c ****         }
 4395              		.loc 1 410 18 is_stmt 1 view .LVU1330
 410:Middlewares/lvgl/src/core/lv_obj_style.c ****         }
 4396              		.loc 1 410 20 is_stmt 0 view .LVU1331
 4397 0256 019B     		ldr	r3, [sp, #4]
ARM GAS  /tmp/ccoxlgn6.s 			page 129


 4398 0258 002B     		cmp	r3, #0
 4399 025a 7FF462AF 		bne	.L263
 410:Middlewares/lvgl/src/core/lv_obj_style.c ****         }
 4400              		.loc 1 410 58 view .LVU1332
 4401 025e 0123     		movs	r3, #1
 4402 0260 0193     		str	r3, [sp, #4]
 4403              	.LVL449:
 410:Middlewares/lvgl/src/core/lv_obj_style.c ****         }
 4404              		.loc 1 410 58 view .LVU1333
 4405 0262 5EE7     		b	.L263
 4406              	.LVL450:
 4407              	.L271:
 398:Middlewares/lvgl/src/core/lv_obj_style.c ****             else if(lv_style_get_prop(style, LV_STYLE_TRANSFORM_ANGLE, &v)) res = _LV_STYLE_STATE_C
 4408              		.loc 1 398 82 view .LVU1334
 4409 0264 0223     		movs	r3, #2
 4410 0266 0193     		str	r3, [sp, #4]
 4411              	.LVL451:
 398:Middlewares/lvgl/src/core/lv_obj_style.c ****             else if(lv_style_get_prop(style, LV_STYLE_TRANSFORM_ANGLE, &v)) res = _LV_STYLE_STATE_C
 4412              		.loc 1 398 82 view .LVU1335
 4413 0268 5BE7     		b	.L263
 4414              	.LVL452:
 4415              	.L273:
 400:Middlewares/lvgl/src/core/lv_obj_style.c ****             else if(lv_style_get_prop(style, LV_STYLE_OUTLINE_OPA, &v)) res = _LV_STYLE_STATE_CMP_D
 4416              		.loc 1 400 80 view .LVU1336
 4417 026a 0223     		movs	r3, #2
 4418 026c 0193     		str	r3, [sp, #4]
 4419              	.LVL453:
 400:Middlewares/lvgl/src/core/lv_obj_style.c ****             else if(lv_style_get_prop(style, LV_STYLE_OUTLINE_OPA, &v)) res = _LV_STYLE_STATE_CMP_D
 4420              		.loc 1 400 80 view .LVU1337
 4421 026e 58E7     		b	.L263
 4422              	.LVL454:
 4423              	.L274:
 401:Middlewares/lvgl/src/core/lv_obj_style.c ****             else if(lv_style_get_prop(style, LV_STYLE_OUTLINE_PAD, &v)) res = _LV_STYLE_STATE_CMP_D
 4424              		.loc 1 401 77 view .LVU1338
 4425 0270 0223     		movs	r3, #2
 4426 0272 0193     		str	r3, [sp, #4]
 4427              	.LVL455:
 401:Middlewares/lvgl/src/core/lv_obj_style.c ****             else if(lv_style_get_prop(style, LV_STYLE_OUTLINE_PAD, &v)) res = _LV_STYLE_STATE_CMP_D
 4428              		.loc 1 401 77 view .LVU1339
 4429 0274 55E7     		b	.L263
 4430              	.LVL456:
 4431              	.L275:
 402:Middlewares/lvgl/src/core/lv_obj_style.c ****             else if(lv_style_get_prop(style, LV_STYLE_OUTLINE_WIDTH, &v)) res = _LV_STYLE_STATE_CMP
 4432              		.loc 1 402 77 view .LVU1340
 4433 0276 0223     		movs	r3, #2
 4434 0278 0193     		str	r3, [sp, #4]
 4435              	.LVL457:
 402:Middlewares/lvgl/src/core/lv_obj_style.c ****             else if(lv_style_get_prop(style, LV_STYLE_OUTLINE_WIDTH, &v)) res = _LV_STYLE_STATE_CMP
 4436              		.loc 1 402 77 view .LVU1341
 4437 027a 52E7     		b	.L263
 4438              	.LVL458:
 4439              	.L276:
 403:Middlewares/lvgl/src/core/lv_obj_style.c ****             else if(lv_style_get_prop(style, LV_STYLE_SHADOW_WIDTH, &v)) res = _LV_STYLE_STATE_CMP_
 4440              		.loc 1 403 79 view .LVU1342
 4441 027c 0223     		movs	r3, #2
 4442 027e 0193     		str	r3, [sp, #4]
 4443              	.LVL459:
ARM GAS  /tmp/ccoxlgn6.s 			page 130


 403:Middlewares/lvgl/src/core/lv_obj_style.c ****             else if(lv_style_get_prop(style, LV_STYLE_SHADOW_WIDTH, &v)) res = _LV_STYLE_STATE_CMP_
 4444              		.loc 1 403 79 view .LVU1343
 4445 0280 4FE7     		b	.L263
 4446              	.LVL460:
 4447              	.L277:
 404:Middlewares/lvgl/src/core/lv_obj_style.c ****             else if(lv_style_get_prop(style, LV_STYLE_SHADOW_OPA, &v)) res = _LV_STYLE_STATE_CMP_DI
 4448              		.loc 1 404 78 view .LVU1344
 4449 0282 0223     		movs	r3, #2
 4450 0284 0193     		str	r3, [sp, #4]
 4451              	.LVL461:
 404:Middlewares/lvgl/src/core/lv_obj_style.c ****             else if(lv_style_get_prop(style, LV_STYLE_SHADOW_OPA, &v)) res = _LV_STYLE_STATE_CMP_DI
 4452              		.loc 1 404 78 view .LVU1345
 4453 0286 4CE7     		b	.L263
 4454              	.LVL462:
 4455              	.L278:
 405:Middlewares/lvgl/src/core/lv_obj_style.c ****             else if(lv_style_get_prop(style, LV_STYLE_SHADOW_OFS_X, &v)) res = _LV_STYLE_STATE_CMP_
 4456              		.loc 1 405 76 view .LVU1346
 4457 0288 0223     		movs	r3, #2
 4458 028a 0193     		str	r3, [sp, #4]
 4459              	.LVL463:
 405:Middlewares/lvgl/src/core/lv_obj_style.c ****             else if(lv_style_get_prop(style, LV_STYLE_SHADOW_OFS_X, &v)) res = _LV_STYLE_STATE_CMP_
 4460              		.loc 1 405 76 view .LVU1347
 4461 028c 49E7     		b	.L263
 4462              	.LVL464:
 4463              	.L279:
 406:Middlewares/lvgl/src/core/lv_obj_style.c ****             else if(lv_style_get_prop(style, LV_STYLE_SHADOW_OFS_Y, &v)) res = _LV_STYLE_STATE_CMP_
 4464              		.loc 1 406 78 view .LVU1348
 4465 028e 0223     		movs	r3, #2
 4466 0290 0193     		str	r3, [sp, #4]
 4467              	.LVL465:
 406:Middlewares/lvgl/src/core/lv_obj_style.c ****             else if(lv_style_get_prop(style, LV_STYLE_SHADOW_OFS_Y, &v)) res = _LV_STYLE_STATE_CMP_
 4468              		.loc 1 406 78 view .LVU1349
 4469 0292 46E7     		b	.L263
 4470              	.LVL466:
 4471              	.L280:
 407:Middlewares/lvgl/src/core/lv_obj_style.c ****             else if(lv_style_get_prop(style, LV_STYLE_SHADOW_SPREAD, &v)) res = _LV_STYLE_STATE_CMP
 4472              		.loc 1 407 78 view .LVU1350
 4473 0294 0223     		movs	r3, #2
 4474 0296 0193     		str	r3, [sp, #4]
 4475              	.LVL467:
 407:Middlewares/lvgl/src/core/lv_obj_style.c ****             else if(lv_style_get_prop(style, LV_STYLE_SHADOW_SPREAD, &v)) res = _LV_STYLE_STATE_CMP
 4476              		.loc 1 407 78 view .LVU1351
 4477 0298 43E7     		b	.L263
 4478              	.LVL468:
 4479              	.L281:
 408:Middlewares/lvgl/src/core/lv_obj_style.c ****             else if(lv_style_get_prop(style, LV_STYLE_LINE_WIDTH, &v)) res = _LV_STYLE_STATE_CMP_DI
 4480              		.loc 1 408 79 view .LVU1352
 4481 029a 0223     		movs	r3, #2
 4482 029c 0193     		str	r3, [sp, #4]
 4483              	.LVL469:
 408:Middlewares/lvgl/src/core/lv_obj_style.c ****             else if(lv_style_get_prop(style, LV_STYLE_LINE_WIDTH, &v)) res = _LV_STYLE_STATE_CMP_DI
 4484              		.loc 1 408 79 view .LVU1353
 4485 029e 40E7     		b	.L263
 4486              	.LVL470:
 4487              	.L282:
 409:Middlewares/lvgl/src/core/lv_obj_style.c ****             else if(res == _LV_STYLE_STATE_CMP_SAME) res = _LV_STYLE_STATE_CMP_DIFF_REDRAW;
 4488              		.loc 1 409 76 view .LVU1354
ARM GAS  /tmp/ccoxlgn6.s 			page 131


 4489 02a0 0223     		movs	r3, #2
 4490 02a2 0193     		str	r3, [sp, #4]
 4491              	.LVL471:
 409:Middlewares/lvgl/src/core/lv_obj_style.c ****             else if(res == _LV_STYLE_STATE_CMP_SAME) res = _LV_STYLE_STATE_CMP_DIFF_REDRAW;
 4492              		.loc 1 409 76 view .LVU1355
 4493 02a4 3DE7     		b	.L263
 4494              	.LBE122:
 4495              	.LBE124:
 4496              		.cfi_endproc
 4497              	.LFE164:
 4499              		.section	.data.style_refr,"aw"
 4500              		.set	.LANCHOR0,. + 0
 4503              	style_refr:
 4504 0000 01       		.byte	1
 4505              		.text
 4506              	.Letext0:
 4507              		.file 5 "/home/akinya/gcc-arm-none-eabi/arm-none-eabi/include/machine/_default_types.h"
 4508              		.file 6 "/home/akinya/gcc-arm-none-eabi/arm-none-eabi/include/sys/_stdint.h"
 4509              		.file 7 "Middlewares/lvgl/src/core/../misc/../font/../misc/lv_area.h"
 4510              		.file 8 "Middlewares/lvgl/src/core/../misc/../font/lv_font.h"
 4511              		.file 9 "Middlewares/lvgl/src/core/../misc/lv_types.h"
 4512              		.file 10 "Middlewares/lvgl/src/core/../misc/lv_style.h"
 4513              		.file 11 "Middlewares/lvgl/src/core/../hal/../misc/lv_ll.h"
 4514              		.file 12 "Middlewares/lvgl/src/core/../hal/../misc/lv_timer.h"
 4515              		.file 13 "Middlewares/lvgl/src/core/../hal/lv_hal_disp.h"
 4516              		.file 14 "Middlewares/lvgl/src/core/lv_theme.h"
 4517              		.file 15 "Middlewares/lvgl/src/core/lv_obj.h"
 4518              		.file 16 "Middlewares/lvgl/src/core/lv_group.h"
 4519              		.file 17 "Middlewares/lvgl/src/core/lv_obj_scroll.h"
 4520              		.file 18 "Middlewares/lvgl/src/core/lv_obj_style.h"
 4521              		.file 19 "Middlewares/lvgl/src/core/lv_obj_class.h"
 4522              		.file 20 "Middlewares/lvgl/src/core/lv_event.h"
 4523              		.file 21 "Middlewares/lvgl/src/core/../misc/lv_gc.h"
 4524              		.file 22 "Middlewares/lvgl/src/core/../hal/../misc/lv_mem.h"
 4525              		.file 23 "Middlewares/lvgl/src/core/lv_obj_tree.h"
 4526              		.file 24 "Middlewares/lvgl/src/core/lv_obj_pos.h"
 4527              		.file 25 "Middlewares/lvgl/src/core/lv_obj_draw.h"
ARM GAS  /tmp/ccoxlgn6.s 			page 132


DEFINED SYMBOLS
                            *ABS*:0000000000000000 lv_obj_style.c
     /tmp/ccoxlgn6.s:17     .text.trans_del:0000000000000000 $t
     /tmp/ccoxlgn6.s:24     .text.trans_del:0000000000000000 trans_del
     /tmp/ccoxlgn6.s:196    .text.trans_del:00000000000000b0 $d
     /tmp/ccoxlgn6.s:201    .text.refresh_children_style:0000000000000000 $t
     /tmp/ccoxlgn6.s:207    .text.refresh_children_style:0000000000000000 refresh_children_style
     /tmp/ccoxlgn6.s:283    .text.get_local_style:0000000000000000 $t
     /tmp/ccoxlgn6.s:289    .text.get_local_style:0000000000000000 get_local_style
     /tmp/ccoxlgn6.s:481    .text.get_trans_style:0000000000000000 $t
     /tmp/ccoxlgn6.s:487    .text.get_trans_style:0000000000000000 get_trans_style
     /tmp/ccoxlgn6.s:652    .text.fade_anim_cb:0000000000000000 $t
     /tmp/ccoxlgn6.s:658    .text.fade_anim_cb:0000000000000000 fade_anim_cb
     /tmp/ccoxlgn6.s:684    .text._lv_obj_style_init:0000000000000000 $t
     /tmp/ccoxlgn6.s:691    .text._lv_obj_style_init:0000000000000000 _lv_obj_style_init
     /tmp/ccoxlgn6.s:712    .text._lv_obj_style_init:000000000000000c $d
     /tmp/ccoxlgn6.s:717    .text.lv_obj_enable_style_refresh:0000000000000000 $t
     /tmp/ccoxlgn6.s:724    .text.lv_obj_enable_style_refresh:0000000000000000 lv_obj_enable_style_refresh
     /tmp/ccoxlgn6.s:741    .text.lv_obj_enable_style_refresh:0000000000000008 $d
     /tmp/ccoxlgn6.s:746    .text.lv_obj_get_local_style_prop:0000000000000000 $t
     /tmp/ccoxlgn6.s:753    .text.lv_obj_get_local_style_prop:0000000000000000 lv_obj_get_local_style_prop
     /tmp/ccoxlgn6.s:823    .text.lv_obj_remove_local_style_prop:0000000000000000 $t
     /tmp/ccoxlgn6.s:830    .text.lv_obj_remove_local_style_prop:0000000000000000 lv_obj_remove_local_style_prop
     /tmp/ccoxlgn6.s:911    .text.fade_in_anim_ready:0000000000000000 $t
     /tmp/ccoxlgn6.s:917    .text.fade_in_anim_ready:0000000000000000 fade_in_anim_ready
     /tmp/ccoxlgn6.s:944    .text.lv_obj_fade_in:0000000000000000 $t
     /tmp/ccoxlgn6.s:951    .text.lv_obj_fade_in:0000000000000000 lv_obj_fade_in
     /tmp/ccoxlgn6.s:1080   .text.lv_obj_fade_in:0000000000000034 $d
     /tmp/ccoxlgn6.s:1086   .text.lv_obj_fade_out:0000000000000000 $t
     /tmp/ccoxlgn6.s:1093   .text.lv_obj_fade_out:0000000000000000 lv_obj_fade_out
     /tmp/ccoxlgn6.s:1208   .text.lv_obj_fade_out:0000000000000030 $d
     /tmp/ccoxlgn6.s:1213   .text.lv_obj_style_get_selector_state:0000000000000000 $t
     /tmp/ccoxlgn6.s:1220   .text.lv_obj_style_get_selector_state:0000000000000000 lv_obj_style_get_selector_state
     /tmp/ccoxlgn6.s:1238   .text.lv_obj_style_get_selector_part:0000000000000000 $t
     /tmp/ccoxlgn6.s:1245   .text.lv_obj_style_get_selector_part:0000000000000000 lv_obj_style_get_selector_part
     /tmp/ccoxlgn6.s:1263   .text.lv_obj_refresh_style:0000000000000000 $t
     /tmp/ccoxlgn6.s:1270   .text.lv_obj_refresh_style:0000000000000000 lv_obj_refresh_style
     /tmp/ccoxlgn6.s:1414   .text.lv_obj_refresh_style:00000000000000a4 $d
     /tmp/ccoxlgn6.s:1419   .text.lv_obj_add_style:0000000000000000 $t
     /tmp/ccoxlgn6.s:1426   .text.lv_obj_add_style:0000000000000000 lv_obj_add_style
     /tmp/ccoxlgn6.s:1577   .text.report_style_change_core:0000000000000000 $t
     /tmp/ccoxlgn6.s:1583   .text.report_style_change_core:0000000000000000 report_style_change_core
     /tmp/ccoxlgn6.s:1689   .text.lv_obj_report_style_change:0000000000000000 $t
     /tmp/ccoxlgn6.s:1696   .text.lv_obj_report_style_change:0000000000000000 lv_obj_report_style_change
     /tmp/ccoxlgn6.s:1779   .text.lv_obj_report_style_change:000000000000003c $d
     /tmp/ccoxlgn6.s:1784   .text.lv_obj_set_local_style_prop:0000000000000000 $t
     /tmp/ccoxlgn6.s:1791   .text.lv_obj_set_local_style_prop:0000000000000000 lv_obj_set_local_style_prop
     /tmp/ccoxlgn6.s:1840   .text.trans_anim_cb:0000000000000000 $t
     /tmp/ccoxlgn6.s:1846   .text.trans_anim_cb:0000000000000000 trans_anim_cb
     /tmp/ccoxlgn6.s:1934   .text.trans_anim_cb:0000000000000054 $d
     /tmp/ccoxlgn6.s:2323   .text.lv_obj_remove_style:0000000000000000 $t
     /tmp/ccoxlgn6.s:2330   .text.lv_obj_remove_style:0000000000000000 lv_obj_remove_style
     /tmp/ccoxlgn6.s:2612   .text.trans_anim_ready_cb:0000000000000000 $t
     /tmp/ccoxlgn6.s:2618   .text.trans_anim_ready_cb:0000000000000000 trans_anim_ready_cb
     /tmp/ccoxlgn6.s:2793   .text.trans_anim_ready_cb:00000000000000a8 $d
     /tmp/ccoxlgn6.s:2800   .text.get_prop_core:0000000000000000 $t
     /tmp/ccoxlgn6.s:2806   .text.get_prop_core:0000000000000000 get_prop_core
ARM GAS  /tmp/ccoxlgn6.s 			page 133


     /tmp/ccoxlgn6.s:3101   .text.lv_obj_get_style_prop:0000000000000000 $t
     /tmp/ccoxlgn6.s:3108   .text.lv_obj_get_style_prop:0000000000000000 lv_obj_get_style_prop
     /tmp/ccoxlgn6.s:3314   .text.apply_color_filter:0000000000000000 apply_color_filter
     /tmp/ccoxlgn6.s:3308   .text.apply_color_filter:0000000000000000 $t
     /tmp/ccoxlgn6.s:3420   .text._lv_obj_style_create_transition:0000000000000000 $t
     /tmp/ccoxlgn6.s:3427   .text._lv_obj_style_create_transition:0000000000000000 _lv_obj_style_create_transition
     /tmp/ccoxlgn6.s:3847   .text._lv_obj_style_create_transition:0000000000000144 $d
     /tmp/ccoxlgn6.s:3861   .text.trans_anim_start_cb:0000000000000000 trans_anim_start_cb
     /tmp/ccoxlgn6.s:3855   .text.trans_anim_start_cb:0000000000000000 $t
     /tmp/ccoxlgn6.s:3939   .text._lv_obj_style_state_compare:0000000000000000 $t
     /tmp/ccoxlgn6.s:3946   .text._lv_obj_style_state_compare:0000000000000000 _lv_obj_style_state_compare
     /tmp/ccoxlgn6.s:4503   .data.style_refr:0000000000000000 style_refr
     /tmp/ccoxlgn6.s:2008   .text.trans_anim_cb:000000000000009d $d
     /tmp/ccoxlgn6.s:2008   .text.trans_anim_cb:000000000000009e $t

UNDEFINED SYMBOLS
_lv_ll_get_tail
_lv_ll_get_prev
lv_style_remove_prop
lv_anim_del
_lv_ll_remove
lv_mem_free
_lv_obj_style_trans_ll
lv_obj_get_child_cnt
lv_obj_get_child
lv_obj_invalidate
lv_event_send
lv_mem_realloc
lv_memset_00
lv_mem_alloc
lv_style_init
lv_obj_set_style_opa
_lv_ll_init
lv_style_get_prop
lv_anim_init
lv_anim_start
lv_obj_mark_layout_as_dirty
lv_obj_get_parent
lv_obj_refresh_ext_draw_size
lv_disp_get_next
lv_style_set_prop
lv_style_reset
_lv_ll_get_head
_lv_ll_get_next
lv_style_is_empty
_lv_style_get_prop_group
lv_style_prop_get_default
_lv_ll_ins_head
lv_obj_get_width
