ARM GAS  /tmp/ccnhv9Lg.s 			page 1


   1              		.cpu cortex-m7
   2              		.arch armv7e-m
   3              		.fpu fpv5-d16
   4              		.eabi_attribute 28, 1
   5              		.eabi_attribute 20, 1
   6              		.eabi_attribute 21, 1
   7              		.eabi_attribute 23, 3
   8              		.eabi_attribute 24, 1
   9              		.eabi_attribute 25, 1
  10              		.eabi_attribute 26, 1
  11              		.eabi_attribute 30, 1
  12              		.eabi_attribute 34, 1
  13              		.eabi_attribute 18, 4
  14              		.file	"lv_obj_pos.c"
  15              		.text
  16              	.Ltext0:
  17              		.cfi_sections	.debug_frame
  18              		.section	.text.lv_obj_set_width,"ax",%progbits
  19              		.align	1
  20              		.global	lv_obj_set_width
  21              		.syntax unified
  22              		.thumb
  23              		.thumb_func
  25              	lv_obj_set_width:
  26              	.LVL0:
  27              	.LFB158:
  28              		.file 1 "Middlewares/lvgl/src/core/lv_obj_pos.c"
   1:Middlewares/lvgl/src/core/lv_obj_pos.c **** /**
   2:Middlewares/lvgl/src/core/lv_obj_pos.c ****  * @file lv_obj_pos.c
   3:Middlewares/lvgl/src/core/lv_obj_pos.c ****  *
   4:Middlewares/lvgl/src/core/lv_obj_pos.c ****  */
   5:Middlewares/lvgl/src/core/lv_obj_pos.c **** 
   6:Middlewares/lvgl/src/core/lv_obj_pos.c **** /*********************
   7:Middlewares/lvgl/src/core/lv_obj_pos.c ****  *      INCLUDES
   8:Middlewares/lvgl/src/core/lv_obj_pos.c ****  *********************/
   9:Middlewares/lvgl/src/core/lv_obj_pos.c **** #include "lv_obj.h"
  10:Middlewares/lvgl/src/core/lv_obj_pos.c **** #include "lv_disp.h"
  11:Middlewares/lvgl/src/core/lv_obj_pos.c **** #include "lv_refr.h"
  12:Middlewares/lvgl/src/core/lv_obj_pos.c **** #include "../misc/lv_gc.h"
  13:Middlewares/lvgl/src/core/lv_obj_pos.c **** 
  14:Middlewares/lvgl/src/core/lv_obj_pos.c **** /*********************
  15:Middlewares/lvgl/src/core/lv_obj_pos.c ****  *      DEFINES
  16:Middlewares/lvgl/src/core/lv_obj_pos.c ****  *********************/
  17:Middlewares/lvgl/src/core/lv_obj_pos.c **** #define MY_CLASS &lv_obj_class
  18:Middlewares/lvgl/src/core/lv_obj_pos.c **** 
  19:Middlewares/lvgl/src/core/lv_obj_pos.c **** /**********************
  20:Middlewares/lvgl/src/core/lv_obj_pos.c ****  *      TYPEDEFS
  21:Middlewares/lvgl/src/core/lv_obj_pos.c ****  **********************/
  22:Middlewares/lvgl/src/core/lv_obj_pos.c **** 
  23:Middlewares/lvgl/src/core/lv_obj_pos.c **** /**********************
  24:Middlewares/lvgl/src/core/lv_obj_pos.c ****  *  STATIC PROTOTYPES
  25:Middlewares/lvgl/src/core/lv_obj_pos.c ****  **********************/
  26:Middlewares/lvgl/src/core/lv_obj_pos.c **** static void calc_auto_size(lv_obj_t * obj, lv_coord_t * w_out, lv_coord_t * h_out);
  27:Middlewares/lvgl/src/core/lv_obj_pos.c **** static void layout_update_core(lv_obj_t * obj);
  28:Middlewares/lvgl/src/core/lv_obj_pos.c **** 
  29:Middlewares/lvgl/src/core/lv_obj_pos.c **** /**********************
  30:Middlewares/lvgl/src/core/lv_obj_pos.c ****  *  STATIC VARIABLES
ARM GAS  /tmp/ccnhv9Lg.s 			page 2


  31:Middlewares/lvgl/src/core/lv_obj_pos.c ****  **********************/
  32:Middlewares/lvgl/src/core/lv_obj_pos.c **** static uint32_t layout_cnt;
  33:Middlewares/lvgl/src/core/lv_obj_pos.c **** 
  34:Middlewares/lvgl/src/core/lv_obj_pos.c **** /**********************
  35:Middlewares/lvgl/src/core/lv_obj_pos.c ****  *      MACROS
  36:Middlewares/lvgl/src/core/lv_obj_pos.c ****  **********************/
  37:Middlewares/lvgl/src/core/lv_obj_pos.c **** 
  38:Middlewares/lvgl/src/core/lv_obj_pos.c **** /**********************
  39:Middlewares/lvgl/src/core/lv_obj_pos.c ****  *   GLOBAL FUNCTIONS
  40:Middlewares/lvgl/src/core/lv_obj_pos.c ****  **********************/
  41:Middlewares/lvgl/src/core/lv_obj_pos.c **** 
  42:Middlewares/lvgl/src/core/lv_obj_pos.c **** void lv_obj_set_pos(lv_obj_t * obj, lv_coord_t x, lv_coord_t y)
  43:Middlewares/lvgl/src/core/lv_obj_pos.c **** {
  44:Middlewares/lvgl/src/core/lv_obj_pos.c ****     LV_ASSERT_OBJ(obj, MY_CLASS);
  45:Middlewares/lvgl/src/core/lv_obj_pos.c **** 
  46:Middlewares/lvgl/src/core/lv_obj_pos.c ****     lv_obj_set_x(obj, x);
  47:Middlewares/lvgl/src/core/lv_obj_pos.c ****     lv_obj_set_y(obj, y);
  48:Middlewares/lvgl/src/core/lv_obj_pos.c **** }
  49:Middlewares/lvgl/src/core/lv_obj_pos.c **** 
  50:Middlewares/lvgl/src/core/lv_obj_pos.c **** void lv_obj_set_x(lv_obj_t * obj, lv_coord_t x)
  51:Middlewares/lvgl/src/core/lv_obj_pos.c **** {
  52:Middlewares/lvgl/src/core/lv_obj_pos.c ****     LV_ASSERT_OBJ(obj, MY_CLASS);
  53:Middlewares/lvgl/src/core/lv_obj_pos.c ****     if(lv_obj_is_layout_positioned(obj)) {
  54:Middlewares/lvgl/src/core/lv_obj_pos.c ****         return;
  55:Middlewares/lvgl/src/core/lv_obj_pos.c ****     }
  56:Middlewares/lvgl/src/core/lv_obj_pos.c **** 
  57:Middlewares/lvgl/src/core/lv_obj_pos.c ****     lv_res_t res_x;
  58:Middlewares/lvgl/src/core/lv_obj_pos.c ****     lv_style_value_t v_x;
  59:Middlewares/lvgl/src/core/lv_obj_pos.c **** 
  60:Middlewares/lvgl/src/core/lv_obj_pos.c ****     res_x = lv_obj_get_local_style_prop(obj, LV_STYLE_X, &v_x, 0);
  61:Middlewares/lvgl/src/core/lv_obj_pos.c **** 
  62:Middlewares/lvgl/src/core/lv_obj_pos.c ****     if((res_x == LV_RES_OK && v_x.num != x) || res_x == LV_RES_INV) {
  63:Middlewares/lvgl/src/core/lv_obj_pos.c ****         lv_obj_set_style_x(obj, x, 0);
  64:Middlewares/lvgl/src/core/lv_obj_pos.c ****     }
  65:Middlewares/lvgl/src/core/lv_obj_pos.c **** }
  66:Middlewares/lvgl/src/core/lv_obj_pos.c **** 
  67:Middlewares/lvgl/src/core/lv_obj_pos.c **** void lv_obj_set_y(lv_obj_t * obj, lv_coord_t y)
  68:Middlewares/lvgl/src/core/lv_obj_pos.c **** {
  69:Middlewares/lvgl/src/core/lv_obj_pos.c ****     if(lv_obj_is_layout_positioned(obj)) {
  70:Middlewares/lvgl/src/core/lv_obj_pos.c ****         return;
  71:Middlewares/lvgl/src/core/lv_obj_pos.c ****     }
  72:Middlewares/lvgl/src/core/lv_obj_pos.c ****     LV_ASSERT_OBJ(obj, MY_CLASS);
  73:Middlewares/lvgl/src/core/lv_obj_pos.c **** 
  74:Middlewares/lvgl/src/core/lv_obj_pos.c ****     lv_res_t res_y;
  75:Middlewares/lvgl/src/core/lv_obj_pos.c ****     lv_style_value_t v_y;
  76:Middlewares/lvgl/src/core/lv_obj_pos.c **** 
  77:Middlewares/lvgl/src/core/lv_obj_pos.c ****     res_y = lv_obj_get_local_style_prop(obj, LV_STYLE_Y, &v_y, 0);
  78:Middlewares/lvgl/src/core/lv_obj_pos.c **** 
  79:Middlewares/lvgl/src/core/lv_obj_pos.c ****     if((res_y == LV_RES_OK && v_y.num != y) || res_y == LV_RES_INV) {
  80:Middlewares/lvgl/src/core/lv_obj_pos.c ****         lv_obj_set_style_y(obj, y, 0);
  81:Middlewares/lvgl/src/core/lv_obj_pos.c ****     }
  82:Middlewares/lvgl/src/core/lv_obj_pos.c **** }
  83:Middlewares/lvgl/src/core/lv_obj_pos.c **** 
  84:Middlewares/lvgl/src/core/lv_obj_pos.c **** bool lv_obj_refr_size(lv_obj_t * obj)
  85:Middlewares/lvgl/src/core/lv_obj_pos.c **** {
  86:Middlewares/lvgl/src/core/lv_obj_pos.c ****     LV_ASSERT_OBJ(obj, MY_CLASS);
  87:Middlewares/lvgl/src/core/lv_obj_pos.c **** 
ARM GAS  /tmp/ccnhv9Lg.s 			page 3


  88:Middlewares/lvgl/src/core/lv_obj_pos.c ****     /*If the width or height is set by a layout do not modify them*/
  89:Middlewares/lvgl/src/core/lv_obj_pos.c ****     if(obj->w_layout && obj->h_layout) return false;
  90:Middlewares/lvgl/src/core/lv_obj_pos.c **** 
  91:Middlewares/lvgl/src/core/lv_obj_pos.c ****     lv_obj_t * parent = lv_obj_get_parent(obj);
  92:Middlewares/lvgl/src/core/lv_obj_pos.c ****     if(parent == NULL) return false;
  93:Middlewares/lvgl/src/core/lv_obj_pos.c **** 
  94:Middlewares/lvgl/src/core/lv_obj_pos.c ****     lv_coord_t w;
  95:Middlewares/lvgl/src/core/lv_obj_pos.c ****     lv_coord_t sl_ori = lv_obj_get_scroll_left(obj);
  96:Middlewares/lvgl/src/core/lv_obj_pos.c ****     bool w_content = false;
  97:Middlewares/lvgl/src/core/lv_obj_pos.c ****     if(obj->w_layout) {
  98:Middlewares/lvgl/src/core/lv_obj_pos.c ****         w = lv_obj_get_width(obj);
  99:Middlewares/lvgl/src/core/lv_obj_pos.c ****     } else {
 100:Middlewares/lvgl/src/core/lv_obj_pos.c ****         w = lv_obj_get_style_width(obj, LV_PART_MAIN);
 101:Middlewares/lvgl/src/core/lv_obj_pos.c ****         w_content = w == LV_SIZE_CONTENT ? true : false;
 102:Middlewares/lvgl/src/core/lv_obj_pos.c **** 
 103:Middlewares/lvgl/src/core/lv_obj_pos.c ****         /*Be sure the object is not scrolled when it has auto size*/
 104:Middlewares/lvgl/src/core/lv_obj_pos.c ****         if(w_content) {
 105:Middlewares/lvgl/src/core/lv_obj_pos.c ****             lv_obj_scroll_to_x(obj, 0, LV_ANIM_OFF);
 106:Middlewares/lvgl/src/core/lv_obj_pos.c ****             calc_auto_size(obj, &w, NULL);
 107:Middlewares/lvgl/src/core/lv_obj_pos.c ****         }
 108:Middlewares/lvgl/src/core/lv_obj_pos.c **** 
 109:Middlewares/lvgl/src/core/lv_obj_pos.c ****         /*Calculate the sizes in percentage*/
 110:Middlewares/lvgl/src/core/lv_obj_pos.c ****         bool pct_w = LV_COORD_IS_PCT(w) ? true : false;
 111:Middlewares/lvgl/src/core/lv_obj_pos.c **** 
 112:Middlewares/lvgl/src/core/lv_obj_pos.c ****         lv_coord_t parent_w = lv_obj_get_content_width(parent);
 113:Middlewares/lvgl/src/core/lv_obj_pos.c ****         if(pct_w) w = (LV_COORD_GET_PCT(w) * parent_w) / 100;
 114:Middlewares/lvgl/src/core/lv_obj_pos.c **** 
 115:Middlewares/lvgl/src/core/lv_obj_pos.c ****         lv_coord_t minw = lv_obj_get_style_min_width(obj, LV_PART_MAIN);
 116:Middlewares/lvgl/src/core/lv_obj_pos.c ****         lv_coord_t maxw = lv_obj_get_style_max_width(obj, LV_PART_MAIN);
 117:Middlewares/lvgl/src/core/lv_obj_pos.c ****         w = lv_clamp_width(w, minw, maxw, parent_w);
 118:Middlewares/lvgl/src/core/lv_obj_pos.c ****     }
 119:Middlewares/lvgl/src/core/lv_obj_pos.c **** 
 120:Middlewares/lvgl/src/core/lv_obj_pos.c ****     lv_coord_t h;
 121:Middlewares/lvgl/src/core/lv_obj_pos.c ****     lv_coord_t st_ori = lv_obj_get_scroll_top(obj);
 122:Middlewares/lvgl/src/core/lv_obj_pos.c ****     bool h_content = false;
 123:Middlewares/lvgl/src/core/lv_obj_pos.c ****     if(obj->h_layout) {
 124:Middlewares/lvgl/src/core/lv_obj_pos.c ****         h = lv_obj_get_height(obj);
 125:Middlewares/lvgl/src/core/lv_obj_pos.c ****     } else {
 126:Middlewares/lvgl/src/core/lv_obj_pos.c ****         h = lv_obj_get_style_height(obj, LV_PART_MAIN);
 127:Middlewares/lvgl/src/core/lv_obj_pos.c ****         h_content = h == LV_SIZE_CONTENT ? true : false;
 128:Middlewares/lvgl/src/core/lv_obj_pos.c **** 
 129:Middlewares/lvgl/src/core/lv_obj_pos.c ****         /*Be sure the object is not scrolled when it has auto size*/
 130:Middlewares/lvgl/src/core/lv_obj_pos.c ****         if(h_content) {
 131:Middlewares/lvgl/src/core/lv_obj_pos.c ****             lv_obj_scroll_to_y(obj, 0, LV_ANIM_OFF);
 132:Middlewares/lvgl/src/core/lv_obj_pos.c ****             calc_auto_size(obj, NULL, &h);
 133:Middlewares/lvgl/src/core/lv_obj_pos.c ****         }
 134:Middlewares/lvgl/src/core/lv_obj_pos.c **** 
 135:Middlewares/lvgl/src/core/lv_obj_pos.c ****         /*Calculate the sizes in percentage*/
 136:Middlewares/lvgl/src/core/lv_obj_pos.c ****         bool pct_h = LV_COORD_IS_PCT(h) ? true : false;
 137:Middlewares/lvgl/src/core/lv_obj_pos.c ****         lv_coord_t parent_h = lv_obj_get_content_height(parent);
 138:Middlewares/lvgl/src/core/lv_obj_pos.c ****         if(pct_h) h = (LV_COORD_GET_PCT(h) * parent_h) / 100;
 139:Middlewares/lvgl/src/core/lv_obj_pos.c **** 
 140:Middlewares/lvgl/src/core/lv_obj_pos.c ****         lv_coord_t minh = lv_obj_get_style_min_height(obj, LV_PART_MAIN);
 141:Middlewares/lvgl/src/core/lv_obj_pos.c ****         lv_coord_t maxh = lv_obj_get_style_max_height(obj, LV_PART_MAIN);
 142:Middlewares/lvgl/src/core/lv_obj_pos.c ****         h = lv_clamp_height(h, minh, maxh, parent_h);
 143:Middlewares/lvgl/src/core/lv_obj_pos.c ****     }
 144:Middlewares/lvgl/src/core/lv_obj_pos.c **** 
ARM GAS  /tmp/ccnhv9Lg.s 			page 4


 145:Middlewares/lvgl/src/core/lv_obj_pos.c ****     /*calc_auto_size set the scroll x/y to 0 so revert the original value*/
 146:Middlewares/lvgl/src/core/lv_obj_pos.c ****     if(w_content || h_content) {
 147:Middlewares/lvgl/src/core/lv_obj_pos.c ****         lv_obj_scroll_to(obj, sl_ori, st_ori, LV_ANIM_OFF);
 148:Middlewares/lvgl/src/core/lv_obj_pos.c ****     }
 149:Middlewares/lvgl/src/core/lv_obj_pos.c **** 
 150:Middlewares/lvgl/src/core/lv_obj_pos.c ****     /*Do nothing if the size is not changed*/
 151:Middlewares/lvgl/src/core/lv_obj_pos.c ****     /*It is very important else recursive resizing can occur without size change*/
 152:Middlewares/lvgl/src/core/lv_obj_pos.c ****     if(lv_obj_get_width(obj) == w && lv_obj_get_height(obj) == h) return false;
 153:Middlewares/lvgl/src/core/lv_obj_pos.c **** 
 154:Middlewares/lvgl/src/core/lv_obj_pos.c ****     /*Invalidate the original area*/
 155:Middlewares/lvgl/src/core/lv_obj_pos.c ****     lv_obj_invalidate(obj);
 156:Middlewares/lvgl/src/core/lv_obj_pos.c **** 
 157:Middlewares/lvgl/src/core/lv_obj_pos.c ****     /*Save the original coordinates*/
 158:Middlewares/lvgl/src/core/lv_obj_pos.c ****     lv_area_t ori;
 159:Middlewares/lvgl/src/core/lv_obj_pos.c ****     lv_obj_get_coords(obj, &ori);
 160:Middlewares/lvgl/src/core/lv_obj_pos.c **** 
 161:Middlewares/lvgl/src/core/lv_obj_pos.c ****     /*Check if the object inside the parent or not*/
 162:Middlewares/lvgl/src/core/lv_obj_pos.c ****     lv_area_t parent_fit_area;
 163:Middlewares/lvgl/src/core/lv_obj_pos.c ****     lv_obj_get_content_coords(parent, &parent_fit_area);
 164:Middlewares/lvgl/src/core/lv_obj_pos.c **** 
 165:Middlewares/lvgl/src/core/lv_obj_pos.c ****     /*If the object is already out of the parent and its position is changes
 166:Middlewares/lvgl/src/core/lv_obj_pos.c ****      *surely the scrollbars also changes so invalidate them*/
 167:Middlewares/lvgl/src/core/lv_obj_pos.c ****     bool on1 = _lv_area_is_in(&ori, &parent_fit_area, 0);
 168:Middlewares/lvgl/src/core/lv_obj_pos.c ****     if(!on1) lv_obj_scrollbar_invalidate(parent);
 169:Middlewares/lvgl/src/core/lv_obj_pos.c **** 
 170:Middlewares/lvgl/src/core/lv_obj_pos.c ****     /*Set the length and height
 171:Middlewares/lvgl/src/core/lv_obj_pos.c ****      *Be sure the content is not scrolled in an invalid position on the new size*/
 172:Middlewares/lvgl/src/core/lv_obj_pos.c ****     obj->coords.y2 = obj->coords.y1 + h - 1;
 173:Middlewares/lvgl/src/core/lv_obj_pos.c ****     if(lv_obj_get_style_base_dir(obj, LV_PART_MAIN) == LV_BASE_DIR_RTL) {
 174:Middlewares/lvgl/src/core/lv_obj_pos.c ****         obj->coords.x1 = obj->coords.x2 - w + 1;
 175:Middlewares/lvgl/src/core/lv_obj_pos.c ****     }
 176:Middlewares/lvgl/src/core/lv_obj_pos.c ****     else {
 177:Middlewares/lvgl/src/core/lv_obj_pos.c ****         obj->coords.x2 = obj->coords.x1 + w - 1;
 178:Middlewares/lvgl/src/core/lv_obj_pos.c ****     }
 179:Middlewares/lvgl/src/core/lv_obj_pos.c **** 
 180:Middlewares/lvgl/src/core/lv_obj_pos.c ****     /*Call the ancestor's event handler to the object with its new coordinates*/
 181:Middlewares/lvgl/src/core/lv_obj_pos.c ****     lv_event_send(obj, LV_EVENT_SIZE_CHANGED, &ori);
 182:Middlewares/lvgl/src/core/lv_obj_pos.c **** 
 183:Middlewares/lvgl/src/core/lv_obj_pos.c ****     /*Call the ancestor's event handler to the parent too*/
 184:Middlewares/lvgl/src/core/lv_obj_pos.c ****     lv_event_send(parent, LV_EVENT_CHILD_CHANGED, obj);
 185:Middlewares/lvgl/src/core/lv_obj_pos.c **** 
 186:Middlewares/lvgl/src/core/lv_obj_pos.c ****     /*Invalidate the new area*/
 187:Middlewares/lvgl/src/core/lv_obj_pos.c ****     lv_obj_invalidate(obj);
 188:Middlewares/lvgl/src/core/lv_obj_pos.c **** 
 189:Middlewares/lvgl/src/core/lv_obj_pos.c ****     lv_obj_readjust_scroll(obj, LV_ANIM_OFF);
 190:Middlewares/lvgl/src/core/lv_obj_pos.c **** 
 191:Middlewares/lvgl/src/core/lv_obj_pos.c ****     /*If the object was out of the parent invalidate the new scrollbar area too.
 192:Middlewares/lvgl/src/core/lv_obj_pos.c ****      *If it wasn't out of the parent but out now, also invalidate the srollbars*/
 193:Middlewares/lvgl/src/core/lv_obj_pos.c ****     bool on2 = _lv_area_is_in(&obj->coords, &parent_fit_area, 0);
 194:Middlewares/lvgl/src/core/lv_obj_pos.c ****     if(on1 || (!on1 && on2)) lv_obj_scrollbar_invalidate(parent);
 195:Middlewares/lvgl/src/core/lv_obj_pos.c **** 
 196:Middlewares/lvgl/src/core/lv_obj_pos.c **** 
 197:Middlewares/lvgl/src/core/lv_obj_pos.c **** 
 198:Middlewares/lvgl/src/core/lv_obj_pos.c **** 
 199:Middlewares/lvgl/src/core/lv_obj_pos.c **** 
 200:Middlewares/lvgl/src/core/lv_obj_pos.c ****     return true;
 201:Middlewares/lvgl/src/core/lv_obj_pos.c **** }
ARM GAS  /tmp/ccnhv9Lg.s 			page 5


 202:Middlewares/lvgl/src/core/lv_obj_pos.c **** 
 203:Middlewares/lvgl/src/core/lv_obj_pos.c **** void lv_obj_set_size(lv_obj_t * obj, lv_coord_t w, lv_coord_t h)
 204:Middlewares/lvgl/src/core/lv_obj_pos.c **** {
 205:Middlewares/lvgl/src/core/lv_obj_pos.c ****     LV_ASSERT_OBJ(obj, MY_CLASS);
 206:Middlewares/lvgl/src/core/lv_obj_pos.c **** 
 207:Middlewares/lvgl/src/core/lv_obj_pos.c ****     lv_obj_set_width(obj, w);
 208:Middlewares/lvgl/src/core/lv_obj_pos.c ****     lv_obj_set_height(obj, h);
 209:Middlewares/lvgl/src/core/lv_obj_pos.c **** }
 210:Middlewares/lvgl/src/core/lv_obj_pos.c **** 
 211:Middlewares/lvgl/src/core/lv_obj_pos.c **** void lv_obj_set_width(lv_obj_t * obj, lv_coord_t w)
 212:Middlewares/lvgl/src/core/lv_obj_pos.c **** {
  29              		.loc 1 212 1 view -0
  30              		.cfi_startproc
  31              		@ args = 0, pretend = 0, frame = 8
  32              		@ frame_needed = 0, uses_anonymous_args = 0
  33              		.loc 1 212 1 is_stmt 0 view .LVU1
  34 0000 30B5     		push	{r4, r5, lr}
  35              	.LCFI0:
  36              		.cfi_def_cfa_offset 12
  37              		.cfi_offset 4, -12
  38              		.cfi_offset 5, -8
  39              		.cfi_offset 14, -4
  40 0002 83B0     		sub	sp, sp, #12
  41              	.LCFI1:
  42              		.cfi_def_cfa_offset 24
  43 0004 0546     		mov	r5, r0
  44 0006 0C46     		mov	r4, r1
 213:Middlewares/lvgl/src/core/lv_obj_pos.c ****     LV_ASSERT_OBJ(obj, MY_CLASS);
  45              		.loc 1 213 5 is_stmt 1 view .LVU2
  46              		.loc 1 213 5 view .LVU3
  47              		.loc 1 213 5 view .LVU4
 214:Middlewares/lvgl/src/core/lv_obj_pos.c ****     lv_res_t res_w;
  48              		.loc 1 214 5 view .LVU5
 215:Middlewares/lvgl/src/core/lv_obj_pos.c ****     lv_style_value_t v_w;
  49              		.loc 1 215 5 view .LVU6
 216:Middlewares/lvgl/src/core/lv_obj_pos.c **** 
 217:Middlewares/lvgl/src/core/lv_obj_pos.c ****     res_w = lv_obj_get_local_style_prop(obj, LV_STYLE_WIDTH, &v_w, 0);
  50              		.loc 1 217 5 view .LVU7
  51              		.loc 1 217 13 is_stmt 0 view .LVU8
  52 0008 0023     		movs	r3, #0
  53 000a 01AA     		add	r2, sp, #4
  54 000c 41F20101 		movw	r1, #4097
  55              	.LVL1:
  56              		.loc 1 217 13 view .LVU9
  57 0010 FFF7FEFF 		bl	lv_obj_get_local_style_prop
  58              	.LVL2:
 218:Middlewares/lvgl/src/core/lv_obj_pos.c **** 
 219:Middlewares/lvgl/src/core/lv_obj_pos.c ****     if((res_w == LV_RES_OK && v_w.num != w) || res_w == LV_RES_INV) {
  59              		.loc 1 219 5 is_stmt 1 view .LVU10
  60              		.loc 1 219 7 is_stmt 0 view .LVU11
  61 0014 0128     		cmp	r0, #1
  62 0016 07D0     		beq	.L6
  63              	.L2:
  64              		.loc 1 219 45 discriminator 3 view .LVU12
  65 0018 20B9     		cbnz	r0, .L1
  66              	.L3:
 220:Middlewares/lvgl/src/core/lv_obj_pos.c ****         lv_obj_set_style_width(obj, w, 0);
ARM GAS  /tmp/ccnhv9Lg.s 			page 6


  67              		.loc 1 220 9 is_stmt 1 view .LVU13
  68 001a 0022     		movs	r2, #0
  69 001c 2146     		mov	r1, r4
  70 001e 2846     		mov	r0, r5
  71              	.LVL3:
  72              		.loc 1 220 9 is_stmt 0 view .LVU14
  73 0020 FFF7FEFF 		bl	lv_obj_set_style_width
  74              	.LVL4:
  75              	.L1:
 221:Middlewares/lvgl/src/core/lv_obj_pos.c ****     }
 222:Middlewares/lvgl/src/core/lv_obj_pos.c **** }
  76              		.loc 1 222 1 view .LVU15
  77 0024 03B0     		add	sp, sp, #12
  78              	.LCFI2:
  79              		.cfi_remember_state
  80              		.cfi_def_cfa_offset 12
  81              		@ sp needed
  82 0026 30BD     		pop	{r4, r5, pc}
  83              	.LVL5:
  84              	.L6:
  85              	.LCFI3:
  86              		.cfi_restore_state
 219:Middlewares/lvgl/src/core/lv_obj_pos.c ****         lv_obj_set_style_width(obj, w, 0);
  87              		.loc 1 219 34 discriminator 1 view .LVU16
  88 0028 019B     		ldr	r3, [sp, #4]
 219:Middlewares/lvgl/src/core/lv_obj_pos.c ****         lv_obj_set_style_width(obj, w, 0);
  89              		.loc 1 219 28 discriminator 1 view .LVU17
  90 002a A342     		cmp	r3, r4
  91 002c F5D1     		bne	.L3
  92 002e F3E7     		b	.L2
  93              		.cfi_endproc
  94              	.LFE158:
  96              		.section	.text.lv_obj_set_height,"ax",%progbits
  97              		.align	1
  98              		.global	lv_obj_set_height
  99              		.syntax unified
 100              		.thumb
 101              		.thumb_func
 103              	lv_obj_set_height:
 104              	.LVL6:
 105              	.LFB159:
 223:Middlewares/lvgl/src/core/lv_obj_pos.c **** 
 224:Middlewares/lvgl/src/core/lv_obj_pos.c **** void lv_obj_set_height(lv_obj_t * obj, lv_coord_t h)
 225:Middlewares/lvgl/src/core/lv_obj_pos.c **** {
 106              		.loc 1 225 1 is_stmt 1 view -0
 107              		.cfi_startproc
 108              		@ args = 0, pretend = 0, frame = 8
 109              		@ frame_needed = 0, uses_anonymous_args = 0
 110              		.loc 1 225 1 is_stmt 0 view .LVU19
 111 0000 30B5     		push	{r4, r5, lr}
 112              	.LCFI4:
 113              		.cfi_def_cfa_offset 12
 114              		.cfi_offset 4, -12
 115              		.cfi_offset 5, -8
 116              		.cfi_offset 14, -4
 117 0002 83B0     		sub	sp, sp, #12
 118              	.LCFI5:
ARM GAS  /tmp/ccnhv9Lg.s 			page 7


 119              		.cfi_def_cfa_offset 24
 120 0004 0546     		mov	r5, r0
 121 0006 0C46     		mov	r4, r1
 226:Middlewares/lvgl/src/core/lv_obj_pos.c ****     LV_ASSERT_OBJ(obj, MY_CLASS);
 122              		.loc 1 226 5 is_stmt 1 view .LVU20
 123              		.loc 1 226 5 view .LVU21
 124              		.loc 1 226 5 view .LVU22
 227:Middlewares/lvgl/src/core/lv_obj_pos.c ****     lv_res_t res_h;
 125              		.loc 1 227 5 view .LVU23
 228:Middlewares/lvgl/src/core/lv_obj_pos.c ****     lv_style_value_t v_h;
 126              		.loc 1 228 5 view .LVU24
 229:Middlewares/lvgl/src/core/lv_obj_pos.c **** 
 230:Middlewares/lvgl/src/core/lv_obj_pos.c ****     res_h = lv_obj_get_local_style_prop(obj, LV_STYLE_HEIGHT, &v_h, 0);
 127              		.loc 1 230 5 view .LVU25
 128              		.loc 1 230 13 is_stmt 0 view .LVU26
 129 0008 0023     		movs	r3, #0
 130 000a 01AA     		add	r2, sp, #4
 131 000c 41F20401 		movw	r1, #4100
 132              	.LVL7:
 133              		.loc 1 230 13 view .LVU27
 134 0010 FFF7FEFF 		bl	lv_obj_get_local_style_prop
 135              	.LVL8:
 231:Middlewares/lvgl/src/core/lv_obj_pos.c **** 
 232:Middlewares/lvgl/src/core/lv_obj_pos.c ****     if((res_h == LV_RES_OK && v_h.num != h) || res_h == LV_RES_INV) {
 136              		.loc 1 232 5 is_stmt 1 view .LVU28
 137              		.loc 1 232 7 is_stmt 0 view .LVU29
 138 0014 0128     		cmp	r0, #1
 139 0016 07D0     		beq	.L12
 140              	.L8:
 141              		.loc 1 232 45 discriminator 3 view .LVU30
 142 0018 20B9     		cbnz	r0, .L7
 143              	.L9:
 233:Middlewares/lvgl/src/core/lv_obj_pos.c ****         lv_obj_set_style_height(obj, h, 0);
 144              		.loc 1 233 9 is_stmt 1 view .LVU31
 145 001a 0022     		movs	r2, #0
 146 001c 2146     		mov	r1, r4
 147 001e 2846     		mov	r0, r5
 148              	.LVL9:
 149              		.loc 1 233 9 is_stmt 0 view .LVU32
 150 0020 FFF7FEFF 		bl	lv_obj_set_style_height
 151              	.LVL10:
 152              	.L7:
 234:Middlewares/lvgl/src/core/lv_obj_pos.c ****     }
 235:Middlewares/lvgl/src/core/lv_obj_pos.c **** }
 153              		.loc 1 235 1 view .LVU33
 154 0024 03B0     		add	sp, sp, #12
 155              	.LCFI6:
 156              		.cfi_remember_state
 157              		.cfi_def_cfa_offset 12
 158              		@ sp needed
 159 0026 30BD     		pop	{r4, r5, pc}
 160              	.LVL11:
 161              	.L12:
 162              	.LCFI7:
 163              		.cfi_restore_state
 232:Middlewares/lvgl/src/core/lv_obj_pos.c ****         lv_obj_set_style_height(obj, h, 0);
 164              		.loc 1 232 34 discriminator 1 view .LVU34
ARM GAS  /tmp/ccnhv9Lg.s 			page 8


 165 0028 019B     		ldr	r3, [sp, #4]
 232:Middlewares/lvgl/src/core/lv_obj_pos.c ****         lv_obj_set_style_height(obj, h, 0);
 166              		.loc 1 232 28 discriminator 1 view .LVU35
 167 002a A342     		cmp	r3, r4
 168 002c F5D1     		bne	.L9
 169 002e F3E7     		b	.L8
 170              		.cfi_endproc
 171              	.LFE159:
 173              		.section	.text.lv_obj_set_size,"ax",%progbits
 174              		.align	1
 175              		.global	lv_obj_set_size
 176              		.syntax unified
 177              		.thumb
 178              		.thumb_func
 180              	lv_obj_set_size:
 181              	.LVL12:
 182              	.LFB157:
 204:Middlewares/lvgl/src/core/lv_obj_pos.c ****     LV_ASSERT_OBJ(obj, MY_CLASS);
 183              		.loc 1 204 1 is_stmt 1 view -0
 184              		.cfi_startproc
 185              		@ args = 0, pretend = 0, frame = 0
 186              		@ frame_needed = 0, uses_anonymous_args = 0
 204:Middlewares/lvgl/src/core/lv_obj_pos.c ****     LV_ASSERT_OBJ(obj, MY_CLASS);
 187              		.loc 1 204 1 is_stmt 0 view .LVU37
 188 0000 38B5     		push	{r3, r4, r5, lr}
 189              	.LCFI8:
 190              		.cfi_def_cfa_offset 16
 191              		.cfi_offset 3, -16
 192              		.cfi_offset 4, -12
 193              		.cfi_offset 5, -8
 194              		.cfi_offset 14, -4
 195 0002 0446     		mov	r4, r0
 196 0004 1546     		mov	r5, r2
 205:Middlewares/lvgl/src/core/lv_obj_pos.c **** 
 197              		.loc 1 205 5 is_stmt 1 view .LVU38
 205:Middlewares/lvgl/src/core/lv_obj_pos.c **** 
 198              		.loc 1 205 5 view .LVU39
 205:Middlewares/lvgl/src/core/lv_obj_pos.c **** 
 199              		.loc 1 205 5 view .LVU40
 207:Middlewares/lvgl/src/core/lv_obj_pos.c ****     lv_obj_set_height(obj, h);
 200              		.loc 1 207 5 view .LVU41
 201 0006 FFF7FEFF 		bl	lv_obj_set_width
 202              	.LVL13:
 208:Middlewares/lvgl/src/core/lv_obj_pos.c **** }
 203              		.loc 1 208 5 view .LVU42
 204 000a 2946     		mov	r1, r5
 205 000c 2046     		mov	r0, r4
 206 000e FFF7FEFF 		bl	lv_obj_set_height
 207              	.LVL14:
 209:Middlewares/lvgl/src/core/lv_obj_pos.c **** 
 208              		.loc 1 209 1 is_stmt 0 view .LVU43
 209 0012 38BD     		pop	{r3, r4, r5, pc}
 209:Middlewares/lvgl/src/core/lv_obj_pos.c **** 
 210              		.loc 1 209 1 view .LVU44
 211              		.cfi_endproc
 212              	.LFE157:
 214              		.section	.text.lv_obj_set_content_width,"ax",%progbits
ARM GAS  /tmp/ccnhv9Lg.s 			page 9


 215              		.align	1
 216              		.global	lv_obj_set_content_width
 217              		.syntax unified
 218              		.thumb
 219              		.thumb_func
 221              	lv_obj_set_content_width:
 222              	.LVL15:
 223              	.LFB160:
 236:Middlewares/lvgl/src/core/lv_obj_pos.c **** 
 237:Middlewares/lvgl/src/core/lv_obj_pos.c **** void lv_obj_set_content_width(lv_obj_t * obj, lv_coord_t w)
 238:Middlewares/lvgl/src/core/lv_obj_pos.c **** {
 224              		.loc 1 238 1 is_stmt 1 view -0
 225              		.cfi_startproc
 226              		@ args = 0, pretend = 0, frame = 0
 227              		@ frame_needed = 0, uses_anonymous_args = 0
 228              		.loc 1 238 1 is_stmt 0 view .LVU46
 229 0000 F8B5     		push	{r3, r4, r5, r6, r7, lr}
 230              	.LCFI9:
 231              		.cfi_def_cfa_offset 24
 232              		.cfi_offset 3, -24
 233              		.cfi_offset 4, -20
 234              		.cfi_offset 5, -16
 235              		.cfi_offset 6, -12
 236              		.cfi_offset 7, -8
 237              		.cfi_offset 14, -4
 238 0002 0546     		mov	r5, r0
 239 0004 0C46     		mov	r4, r1
 239:Middlewares/lvgl/src/core/lv_obj_pos.c ****     lv_coord_t pleft = lv_obj_get_style_pad_left(obj, LV_PART_MAIN);
 240              		.loc 1 239 5 is_stmt 1 view .LVU47
 241              	.LVL16:
 242              	.LBB121:
 243              	.LBI121:
 244              		.file 2 "Middlewares/lvgl/src/core/lv_obj_style_gen.h"
   1:Middlewares/lvgl/src/core/lv_obj_style_gen.h **** static inline lv_coord_t lv_obj_get_style_width(const struct _lv_obj_t * obj, uint32_t part)
   2:Middlewares/lvgl/src/core/lv_obj_style_gen.h **** {
   3:Middlewares/lvgl/src/core/lv_obj_style_gen.h ****     lv_style_value_t v = lv_obj_get_style_prop(obj, part, LV_STYLE_WIDTH);
   4:Middlewares/lvgl/src/core/lv_obj_style_gen.h ****     return (lv_coord_t)v.num;
   5:Middlewares/lvgl/src/core/lv_obj_style_gen.h **** }
   6:Middlewares/lvgl/src/core/lv_obj_style_gen.h **** 
   7:Middlewares/lvgl/src/core/lv_obj_style_gen.h **** static inline lv_coord_t lv_obj_get_style_min_width(const struct _lv_obj_t * obj, uint32_t part)
   8:Middlewares/lvgl/src/core/lv_obj_style_gen.h **** {
   9:Middlewares/lvgl/src/core/lv_obj_style_gen.h ****     lv_style_value_t v = lv_obj_get_style_prop(obj, part, LV_STYLE_MIN_WIDTH);
  10:Middlewares/lvgl/src/core/lv_obj_style_gen.h ****     return (lv_coord_t)v.num;
  11:Middlewares/lvgl/src/core/lv_obj_style_gen.h **** }
  12:Middlewares/lvgl/src/core/lv_obj_style_gen.h **** 
  13:Middlewares/lvgl/src/core/lv_obj_style_gen.h **** static inline lv_coord_t lv_obj_get_style_max_width(const struct _lv_obj_t * obj, uint32_t part)
  14:Middlewares/lvgl/src/core/lv_obj_style_gen.h **** {
  15:Middlewares/lvgl/src/core/lv_obj_style_gen.h ****     lv_style_value_t v = lv_obj_get_style_prop(obj, part, LV_STYLE_MAX_WIDTH);
  16:Middlewares/lvgl/src/core/lv_obj_style_gen.h ****     return (lv_coord_t)v.num;
  17:Middlewares/lvgl/src/core/lv_obj_style_gen.h **** }
  18:Middlewares/lvgl/src/core/lv_obj_style_gen.h **** 
  19:Middlewares/lvgl/src/core/lv_obj_style_gen.h **** static inline lv_coord_t lv_obj_get_style_height(const struct _lv_obj_t * obj, uint32_t part)
  20:Middlewares/lvgl/src/core/lv_obj_style_gen.h **** {
  21:Middlewares/lvgl/src/core/lv_obj_style_gen.h ****     lv_style_value_t v = lv_obj_get_style_prop(obj, part, LV_STYLE_HEIGHT);
  22:Middlewares/lvgl/src/core/lv_obj_style_gen.h ****     return (lv_coord_t)v.num;
  23:Middlewares/lvgl/src/core/lv_obj_style_gen.h **** }
  24:Middlewares/lvgl/src/core/lv_obj_style_gen.h **** 
ARM GAS  /tmp/ccnhv9Lg.s 			page 10


  25:Middlewares/lvgl/src/core/lv_obj_style_gen.h **** static inline lv_coord_t lv_obj_get_style_min_height(const struct _lv_obj_t * obj, uint32_t part)
  26:Middlewares/lvgl/src/core/lv_obj_style_gen.h **** {
  27:Middlewares/lvgl/src/core/lv_obj_style_gen.h ****     lv_style_value_t v = lv_obj_get_style_prop(obj, part, LV_STYLE_MIN_HEIGHT);
  28:Middlewares/lvgl/src/core/lv_obj_style_gen.h ****     return (lv_coord_t)v.num;
  29:Middlewares/lvgl/src/core/lv_obj_style_gen.h **** }
  30:Middlewares/lvgl/src/core/lv_obj_style_gen.h **** 
  31:Middlewares/lvgl/src/core/lv_obj_style_gen.h **** static inline lv_coord_t lv_obj_get_style_max_height(const struct _lv_obj_t * obj, uint32_t part)
  32:Middlewares/lvgl/src/core/lv_obj_style_gen.h **** {
  33:Middlewares/lvgl/src/core/lv_obj_style_gen.h ****     lv_style_value_t v = lv_obj_get_style_prop(obj, part, LV_STYLE_MAX_HEIGHT);
  34:Middlewares/lvgl/src/core/lv_obj_style_gen.h ****     return (lv_coord_t)v.num;
  35:Middlewares/lvgl/src/core/lv_obj_style_gen.h **** }
  36:Middlewares/lvgl/src/core/lv_obj_style_gen.h **** 
  37:Middlewares/lvgl/src/core/lv_obj_style_gen.h **** static inline lv_coord_t lv_obj_get_style_x(const struct _lv_obj_t * obj, uint32_t part)
  38:Middlewares/lvgl/src/core/lv_obj_style_gen.h **** {
  39:Middlewares/lvgl/src/core/lv_obj_style_gen.h ****     lv_style_value_t v = lv_obj_get_style_prop(obj, part, LV_STYLE_X);
  40:Middlewares/lvgl/src/core/lv_obj_style_gen.h ****     return (lv_coord_t)v.num;
  41:Middlewares/lvgl/src/core/lv_obj_style_gen.h **** }
  42:Middlewares/lvgl/src/core/lv_obj_style_gen.h **** 
  43:Middlewares/lvgl/src/core/lv_obj_style_gen.h **** static inline lv_coord_t lv_obj_get_style_y(const struct _lv_obj_t * obj, uint32_t part)
  44:Middlewares/lvgl/src/core/lv_obj_style_gen.h **** {
  45:Middlewares/lvgl/src/core/lv_obj_style_gen.h ****     lv_style_value_t v = lv_obj_get_style_prop(obj, part, LV_STYLE_Y);
  46:Middlewares/lvgl/src/core/lv_obj_style_gen.h ****     return (lv_coord_t)v.num;
  47:Middlewares/lvgl/src/core/lv_obj_style_gen.h **** }
  48:Middlewares/lvgl/src/core/lv_obj_style_gen.h **** 
  49:Middlewares/lvgl/src/core/lv_obj_style_gen.h **** static inline lv_align_t lv_obj_get_style_align(const struct _lv_obj_t * obj, uint32_t part)
  50:Middlewares/lvgl/src/core/lv_obj_style_gen.h **** {
  51:Middlewares/lvgl/src/core/lv_obj_style_gen.h ****     lv_style_value_t v = lv_obj_get_style_prop(obj, part, LV_STYLE_ALIGN);
  52:Middlewares/lvgl/src/core/lv_obj_style_gen.h ****     return (lv_align_t)v.num;
  53:Middlewares/lvgl/src/core/lv_obj_style_gen.h **** }
  54:Middlewares/lvgl/src/core/lv_obj_style_gen.h **** 
  55:Middlewares/lvgl/src/core/lv_obj_style_gen.h **** static inline lv_coord_t lv_obj_get_style_transform_width(const struct _lv_obj_t * obj, uint32_t pa
  56:Middlewares/lvgl/src/core/lv_obj_style_gen.h **** {
  57:Middlewares/lvgl/src/core/lv_obj_style_gen.h ****     lv_style_value_t v = lv_obj_get_style_prop(obj, part, LV_STYLE_TRANSFORM_WIDTH);
  58:Middlewares/lvgl/src/core/lv_obj_style_gen.h ****     return (lv_coord_t)v.num;
  59:Middlewares/lvgl/src/core/lv_obj_style_gen.h **** }
  60:Middlewares/lvgl/src/core/lv_obj_style_gen.h **** 
  61:Middlewares/lvgl/src/core/lv_obj_style_gen.h **** static inline lv_coord_t lv_obj_get_style_transform_height(const struct _lv_obj_t * obj, uint32_t p
  62:Middlewares/lvgl/src/core/lv_obj_style_gen.h **** {
  63:Middlewares/lvgl/src/core/lv_obj_style_gen.h ****     lv_style_value_t v = lv_obj_get_style_prop(obj, part, LV_STYLE_TRANSFORM_HEIGHT);
  64:Middlewares/lvgl/src/core/lv_obj_style_gen.h ****     return (lv_coord_t)v.num;
  65:Middlewares/lvgl/src/core/lv_obj_style_gen.h **** }
  66:Middlewares/lvgl/src/core/lv_obj_style_gen.h **** 
  67:Middlewares/lvgl/src/core/lv_obj_style_gen.h **** static inline lv_coord_t lv_obj_get_style_translate_x(const struct _lv_obj_t * obj, uint32_t part)
  68:Middlewares/lvgl/src/core/lv_obj_style_gen.h **** {
  69:Middlewares/lvgl/src/core/lv_obj_style_gen.h ****     lv_style_value_t v = lv_obj_get_style_prop(obj, part, LV_STYLE_TRANSLATE_X);
  70:Middlewares/lvgl/src/core/lv_obj_style_gen.h ****     return (lv_coord_t)v.num;
  71:Middlewares/lvgl/src/core/lv_obj_style_gen.h **** }
  72:Middlewares/lvgl/src/core/lv_obj_style_gen.h **** 
  73:Middlewares/lvgl/src/core/lv_obj_style_gen.h **** static inline lv_coord_t lv_obj_get_style_translate_y(const struct _lv_obj_t * obj, uint32_t part)
  74:Middlewares/lvgl/src/core/lv_obj_style_gen.h **** {
  75:Middlewares/lvgl/src/core/lv_obj_style_gen.h ****     lv_style_value_t v = lv_obj_get_style_prop(obj, part, LV_STYLE_TRANSLATE_Y);
  76:Middlewares/lvgl/src/core/lv_obj_style_gen.h ****     return (lv_coord_t)v.num;
  77:Middlewares/lvgl/src/core/lv_obj_style_gen.h **** }
  78:Middlewares/lvgl/src/core/lv_obj_style_gen.h **** 
  79:Middlewares/lvgl/src/core/lv_obj_style_gen.h **** static inline lv_coord_t lv_obj_get_style_transform_zoom(const struct _lv_obj_t * obj, uint32_t par
  80:Middlewares/lvgl/src/core/lv_obj_style_gen.h **** {
  81:Middlewares/lvgl/src/core/lv_obj_style_gen.h ****     lv_style_value_t v = lv_obj_get_style_prop(obj, part, LV_STYLE_TRANSFORM_ZOOM);
ARM GAS  /tmp/ccnhv9Lg.s 			page 11


  82:Middlewares/lvgl/src/core/lv_obj_style_gen.h ****     return (lv_coord_t)v.num;
  83:Middlewares/lvgl/src/core/lv_obj_style_gen.h **** }
  84:Middlewares/lvgl/src/core/lv_obj_style_gen.h **** 
  85:Middlewares/lvgl/src/core/lv_obj_style_gen.h **** static inline lv_coord_t lv_obj_get_style_transform_angle(const struct _lv_obj_t * obj, uint32_t pa
  86:Middlewares/lvgl/src/core/lv_obj_style_gen.h **** {
  87:Middlewares/lvgl/src/core/lv_obj_style_gen.h ****     lv_style_value_t v = lv_obj_get_style_prop(obj, part, LV_STYLE_TRANSFORM_ANGLE);
  88:Middlewares/lvgl/src/core/lv_obj_style_gen.h ****     return (lv_coord_t)v.num;
  89:Middlewares/lvgl/src/core/lv_obj_style_gen.h **** }
  90:Middlewares/lvgl/src/core/lv_obj_style_gen.h **** 
  91:Middlewares/lvgl/src/core/lv_obj_style_gen.h **** static inline lv_coord_t lv_obj_get_style_pad_top(const struct _lv_obj_t * obj, uint32_t part)
  92:Middlewares/lvgl/src/core/lv_obj_style_gen.h **** {
  93:Middlewares/lvgl/src/core/lv_obj_style_gen.h ****     lv_style_value_t v = lv_obj_get_style_prop(obj, part, LV_STYLE_PAD_TOP);
  94:Middlewares/lvgl/src/core/lv_obj_style_gen.h ****     return (lv_coord_t)v.num;
  95:Middlewares/lvgl/src/core/lv_obj_style_gen.h **** }
  96:Middlewares/lvgl/src/core/lv_obj_style_gen.h **** 
  97:Middlewares/lvgl/src/core/lv_obj_style_gen.h **** static inline lv_coord_t lv_obj_get_style_pad_bottom(const struct _lv_obj_t * obj, uint32_t part)
  98:Middlewares/lvgl/src/core/lv_obj_style_gen.h **** {
  99:Middlewares/lvgl/src/core/lv_obj_style_gen.h ****     lv_style_value_t v = lv_obj_get_style_prop(obj, part, LV_STYLE_PAD_BOTTOM);
 100:Middlewares/lvgl/src/core/lv_obj_style_gen.h ****     return (lv_coord_t)v.num;
 101:Middlewares/lvgl/src/core/lv_obj_style_gen.h **** }
 102:Middlewares/lvgl/src/core/lv_obj_style_gen.h **** 
 103:Middlewares/lvgl/src/core/lv_obj_style_gen.h **** static inline lv_coord_t lv_obj_get_style_pad_left(const struct _lv_obj_t * obj, uint32_t part)
 245              		.loc 2 103 26 view .LVU48
 246              	.LBB122:
 104:Middlewares/lvgl/src/core/lv_obj_style_gen.h **** {
 105:Middlewares/lvgl/src/core/lv_obj_style_gen.h ****     lv_style_value_t v = lv_obj_get_style_prop(obj, part, LV_STYLE_PAD_LEFT);
 247              		.loc 2 105 5 view .LVU49
 248              		.loc 2 105 26 is_stmt 0 view .LVU50
 249 0006 41F21202 		movw	r2, #4114
 250 000a 0021     		movs	r1, #0
 251              	.LVL17:
 252              		.loc 2 105 26 view .LVU51
 253 000c FFF7FEFF 		bl	lv_obj_get_style_prop
 254              	.LVL18:
 255              		.loc 2 105 26 view .LVU52
 256 0010 0746     		mov	r7, r0
 257              	.LVL19:
 106:Middlewares/lvgl/src/core/lv_obj_style_gen.h ****     return (lv_coord_t)v.num;
 258              		.loc 2 106 5 is_stmt 1 view .LVU53
 259              		.loc 2 106 5 is_stmt 0 view .LVU54
 260              	.LBE122:
 261              	.LBE121:
 240:Middlewares/lvgl/src/core/lv_obj_pos.c ****     lv_coord_t pright = lv_obj_get_style_pad_right(obj, LV_PART_MAIN);
 262              		.loc 1 240 5 is_stmt 1 view .LVU55
 263              	.LBB123:
 264              	.LBI123:
 107:Middlewares/lvgl/src/core/lv_obj_style_gen.h **** }
 108:Middlewares/lvgl/src/core/lv_obj_style_gen.h **** 
 109:Middlewares/lvgl/src/core/lv_obj_style_gen.h **** static inline lv_coord_t lv_obj_get_style_pad_right(const struct _lv_obj_t * obj, uint32_t part)
 265              		.loc 2 109 26 view .LVU56
 266              	.LBB124:
 110:Middlewares/lvgl/src/core/lv_obj_style_gen.h **** {
 111:Middlewares/lvgl/src/core/lv_obj_style_gen.h ****     lv_style_value_t v = lv_obj_get_style_prop(obj, part, LV_STYLE_PAD_RIGHT);
 267              		.loc 2 111 5 view .LVU57
 268              		.loc 2 111 26 is_stmt 0 view .LVU58
 269 0012 41F21302 		movw	r2, #4115
 270 0016 0021     		movs	r1, #0
ARM GAS  /tmp/ccnhv9Lg.s 			page 12


 271 0018 2846     		mov	r0, r5
 272 001a FFF7FEFF 		bl	lv_obj_get_style_prop
 273              	.LVL20:
 274 001e 0646     		mov	r6, r0
 275              	.LVL21:
 112:Middlewares/lvgl/src/core/lv_obj_style_gen.h ****     return (lv_coord_t)v.num;
 276              		.loc 2 112 5 is_stmt 1 view .LVU59
 277              		.loc 2 112 5 is_stmt 0 view .LVU60
 278              	.LBE124:
 279              	.LBE123:
 241:Middlewares/lvgl/src/core/lv_obj_pos.c ****     lv_coord_t border_width = lv_obj_get_style_border_width(obj, LV_PART_MAIN);
 280              		.loc 1 241 5 is_stmt 1 view .LVU61
 281              	.LBB125:
 282              	.LBI125:
 113:Middlewares/lvgl/src/core/lv_obj_style_gen.h **** }
 114:Middlewares/lvgl/src/core/lv_obj_style_gen.h **** 
 115:Middlewares/lvgl/src/core/lv_obj_style_gen.h **** static inline lv_coord_t lv_obj_get_style_pad_row(const struct _lv_obj_t * obj, uint32_t part)
 116:Middlewares/lvgl/src/core/lv_obj_style_gen.h **** {
 117:Middlewares/lvgl/src/core/lv_obj_style_gen.h ****     lv_style_value_t v = lv_obj_get_style_prop(obj, part, LV_STYLE_PAD_ROW);
 118:Middlewares/lvgl/src/core/lv_obj_style_gen.h ****     return (lv_coord_t)v.num;
 119:Middlewares/lvgl/src/core/lv_obj_style_gen.h **** }
 120:Middlewares/lvgl/src/core/lv_obj_style_gen.h **** 
 121:Middlewares/lvgl/src/core/lv_obj_style_gen.h **** static inline lv_coord_t lv_obj_get_style_pad_column(const struct _lv_obj_t * obj, uint32_t part)
 122:Middlewares/lvgl/src/core/lv_obj_style_gen.h **** {
 123:Middlewares/lvgl/src/core/lv_obj_style_gen.h ****     lv_style_value_t v = lv_obj_get_style_prop(obj, part, LV_STYLE_PAD_COLUMN);
 124:Middlewares/lvgl/src/core/lv_obj_style_gen.h ****     return (lv_coord_t)v.num;
 125:Middlewares/lvgl/src/core/lv_obj_style_gen.h **** }
 126:Middlewares/lvgl/src/core/lv_obj_style_gen.h **** 
 127:Middlewares/lvgl/src/core/lv_obj_style_gen.h **** static inline lv_coord_t lv_obj_get_style_radius(const struct _lv_obj_t * obj, uint32_t part)
 128:Middlewares/lvgl/src/core/lv_obj_style_gen.h **** {
 129:Middlewares/lvgl/src/core/lv_obj_style_gen.h ****     lv_style_value_t v = lv_obj_get_style_prop(obj, part, LV_STYLE_RADIUS);
 130:Middlewares/lvgl/src/core/lv_obj_style_gen.h ****     return (lv_coord_t)v.num;
 131:Middlewares/lvgl/src/core/lv_obj_style_gen.h **** }
 132:Middlewares/lvgl/src/core/lv_obj_style_gen.h **** 
 133:Middlewares/lvgl/src/core/lv_obj_style_gen.h **** static inline bool lv_obj_get_style_clip_corner(const struct _lv_obj_t * obj, uint32_t part)
 134:Middlewares/lvgl/src/core/lv_obj_style_gen.h **** {
 135:Middlewares/lvgl/src/core/lv_obj_style_gen.h ****     lv_style_value_t v = lv_obj_get_style_prop(obj, part, LV_STYLE_CLIP_CORNER);
 136:Middlewares/lvgl/src/core/lv_obj_style_gen.h ****     return (bool)v.num;
 137:Middlewares/lvgl/src/core/lv_obj_style_gen.h **** }
 138:Middlewares/lvgl/src/core/lv_obj_style_gen.h **** 
 139:Middlewares/lvgl/src/core/lv_obj_style_gen.h **** static inline lv_opa_t lv_obj_get_style_opa(const struct _lv_obj_t * obj, uint32_t part)
 140:Middlewares/lvgl/src/core/lv_obj_style_gen.h **** {
 141:Middlewares/lvgl/src/core/lv_obj_style_gen.h ****     lv_style_value_t v = lv_obj_get_style_prop(obj, part, LV_STYLE_OPA);
 142:Middlewares/lvgl/src/core/lv_obj_style_gen.h ****     return (lv_opa_t)v.num;
 143:Middlewares/lvgl/src/core/lv_obj_style_gen.h **** }
 144:Middlewares/lvgl/src/core/lv_obj_style_gen.h **** 
 145:Middlewares/lvgl/src/core/lv_obj_style_gen.h **** static inline const lv_color_filter_dsc_t * lv_obj_get_style_color_filter_dsc(const struct _lv_obj_
 146:Middlewares/lvgl/src/core/lv_obj_style_gen.h **** {
 147:Middlewares/lvgl/src/core/lv_obj_style_gen.h ****     lv_style_value_t v = lv_obj_get_style_prop(obj, part, LV_STYLE_COLOR_FILTER_DSC);
 148:Middlewares/lvgl/src/core/lv_obj_style_gen.h ****     return (const lv_color_filter_dsc_t *)v.ptr;
 149:Middlewares/lvgl/src/core/lv_obj_style_gen.h **** }
 150:Middlewares/lvgl/src/core/lv_obj_style_gen.h **** 
 151:Middlewares/lvgl/src/core/lv_obj_style_gen.h **** static inline lv_opa_t lv_obj_get_style_color_filter_opa(const struct _lv_obj_t * obj, uint32_t par
 152:Middlewares/lvgl/src/core/lv_obj_style_gen.h **** {
 153:Middlewares/lvgl/src/core/lv_obj_style_gen.h ****     lv_style_value_t v = lv_obj_get_style_prop(obj, part, LV_STYLE_COLOR_FILTER_OPA);
 154:Middlewares/lvgl/src/core/lv_obj_style_gen.h ****     return (lv_opa_t)v.num;
 155:Middlewares/lvgl/src/core/lv_obj_style_gen.h **** }
ARM GAS  /tmp/ccnhv9Lg.s 			page 13


 156:Middlewares/lvgl/src/core/lv_obj_style_gen.h **** 
 157:Middlewares/lvgl/src/core/lv_obj_style_gen.h **** static inline uint32_t lv_obj_get_style_anim_time(const struct _lv_obj_t * obj, uint32_t part)
 158:Middlewares/lvgl/src/core/lv_obj_style_gen.h **** {
 159:Middlewares/lvgl/src/core/lv_obj_style_gen.h ****     lv_style_value_t v = lv_obj_get_style_prop(obj, part, LV_STYLE_ANIM_TIME);
 160:Middlewares/lvgl/src/core/lv_obj_style_gen.h ****     return (uint32_t)v.num;
 161:Middlewares/lvgl/src/core/lv_obj_style_gen.h **** }
 162:Middlewares/lvgl/src/core/lv_obj_style_gen.h **** 
 163:Middlewares/lvgl/src/core/lv_obj_style_gen.h **** static inline uint32_t lv_obj_get_style_anim_speed(const struct _lv_obj_t * obj, uint32_t part)
 164:Middlewares/lvgl/src/core/lv_obj_style_gen.h **** {
 165:Middlewares/lvgl/src/core/lv_obj_style_gen.h ****     lv_style_value_t v = lv_obj_get_style_prop(obj, part, LV_STYLE_ANIM_SPEED);
 166:Middlewares/lvgl/src/core/lv_obj_style_gen.h ****     return (uint32_t)v.num;
 167:Middlewares/lvgl/src/core/lv_obj_style_gen.h **** }
 168:Middlewares/lvgl/src/core/lv_obj_style_gen.h **** 
 169:Middlewares/lvgl/src/core/lv_obj_style_gen.h **** static inline const lv_style_transition_dsc_t * lv_obj_get_style_transition(const struct _lv_obj_t 
 170:Middlewares/lvgl/src/core/lv_obj_style_gen.h **** {
 171:Middlewares/lvgl/src/core/lv_obj_style_gen.h ****     lv_style_value_t v = lv_obj_get_style_prop(obj, part, LV_STYLE_TRANSITION);
 172:Middlewares/lvgl/src/core/lv_obj_style_gen.h ****     return (const lv_style_transition_dsc_t *)v.ptr;
 173:Middlewares/lvgl/src/core/lv_obj_style_gen.h **** }
 174:Middlewares/lvgl/src/core/lv_obj_style_gen.h **** 
 175:Middlewares/lvgl/src/core/lv_obj_style_gen.h **** static inline lv_blend_mode_t lv_obj_get_style_blend_mode(const struct _lv_obj_t * obj, uint32_t pa
 176:Middlewares/lvgl/src/core/lv_obj_style_gen.h **** {
 177:Middlewares/lvgl/src/core/lv_obj_style_gen.h ****     lv_style_value_t v = lv_obj_get_style_prop(obj, part, LV_STYLE_BLEND_MODE);
 178:Middlewares/lvgl/src/core/lv_obj_style_gen.h ****     return (lv_blend_mode_t)v.num;
 179:Middlewares/lvgl/src/core/lv_obj_style_gen.h **** }
 180:Middlewares/lvgl/src/core/lv_obj_style_gen.h **** 
 181:Middlewares/lvgl/src/core/lv_obj_style_gen.h **** static inline uint16_t lv_obj_get_style_layout(const struct _lv_obj_t * obj, uint32_t part)
 182:Middlewares/lvgl/src/core/lv_obj_style_gen.h **** {
 183:Middlewares/lvgl/src/core/lv_obj_style_gen.h ****     lv_style_value_t v = lv_obj_get_style_prop(obj, part, LV_STYLE_LAYOUT);
 184:Middlewares/lvgl/src/core/lv_obj_style_gen.h ****     return (uint16_t)v.num;
 185:Middlewares/lvgl/src/core/lv_obj_style_gen.h **** }
 186:Middlewares/lvgl/src/core/lv_obj_style_gen.h **** 
 187:Middlewares/lvgl/src/core/lv_obj_style_gen.h **** static inline lv_base_dir_t lv_obj_get_style_base_dir(const struct _lv_obj_t * obj, uint32_t part)
 188:Middlewares/lvgl/src/core/lv_obj_style_gen.h **** {
 189:Middlewares/lvgl/src/core/lv_obj_style_gen.h ****     lv_style_value_t v = lv_obj_get_style_prop(obj, part, LV_STYLE_BASE_DIR);
 190:Middlewares/lvgl/src/core/lv_obj_style_gen.h ****     return (lv_base_dir_t)v.num;
 191:Middlewares/lvgl/src/core/lv_obj_style_gen.h **** }
 192:Middlewares/lvgl/src/core/lv_obj_style_gen.h **** 
 193:Middlewares/lvgl/src/core/lv_obj_style_gen.h **** static inline lv_color_t lv_obj_get_style_bg_color(const struct _lv_obj_t * obj, uint32_t part)
 194:Middlewares/lvgl/src/core/lv_obj_style_gen.h **** {
 195:Middlewares/lvgl/src/core/lv_obj_style_gen.h ****     lv_style_value_t v = lv_obj_get_style_prop(obj, part, LV_STYLE_BG_COLOR);
 196:Middlewares/lvgl/src/core/lv_obj_style_gen.h ****     return v.color;
 197:Middlewares/lvgl/src/core/lv_obj_style_gen.h **** }
 198:Middlewares/lvgl/src/core/lv_obj_style_gen.h **** 
 199:Middlewares/lvgl/src/core/lv_obj_style_gen.h **** static inline lv_color_t lv_obj_get_style_bg_color_filtered(const struct _lv_obj_t * obj, uint32_t 
 200:Middlewares/lvgl/src/core/lv_obj_style_gen.h **** {
 201:Middlewares/lvgl/src/core/lv_obj_style_gen.h ****     lv_style_value_t v = lv_obj_get_style_prop(obj, part, LV_STYLE_BG_COLOR_FILTERED);
 202:Middlewares/lvgl/src/core/lv_obj_style_gen.h ****     return v.color;
 203:Middlewares/lvgl/src/core/lv_obj_style_gen.h **** }
 204:Middlewares/lvgl/src/core/lv_obj_style_gen.h **** 
 205:Middlewares/lvgl/src/core/lv_obj_style_gen.h **** static inline lv_opa_t lv_obj_get_style_bg_opa(const struct _lv_obj_t * obj, uint32_t part)
 206:Middlewares/lvgl/src/core/lv_obj_style_gen.h **** {
 207:Middlewares/lvgl/src/core/lv_obj_style_gen.h ****     lv_style_value_t v = lv_obj_get_style_prop(obj, part, LV_STYLE_BG_OPA);
 208:Middlewares/lvgl/src/core/lv_obj_style_gen.h ****     return (lv_opa_t)v.num;
 209:Middlewares/lvgl/src/core/lv_obj_style_gen.h **** }
 210:Middlewares/lvgl/src/core/lv_obj_style_gen.h **** 
 211:Middlewares/lvgl/src/core/lv_obj_style_gen.h **** static inline lv_color_t lv_obj_get_style_bg_grad_color(const struct _lv_obj_t * obj, uint32_t part
 212:Middlewares/lvgl/src/core/lv_obj_style_gen.h **** {
ARM GAS  /tmp/ccnhv9Lg.s 			page 14


 213:Middlewares/lvgl/src/core/lv_obj_style_gen.h ****     lv_style_value_t v = lv_obj_get_style_prop(obj, part, LV_STYLE_BG_GRAD_COLOR);
 214:Middlewares/lvgl/src/core/lv_obj_style_gen.h ****     return v.color;
 215:Middlewares/lvgl/src/core/lv_obj_style_gen.h **** }
 216:Middlewares/lvgl/src/core/lv_obj_style_gen.h **** 
 217:Middlewares/lvgl/src/core/lv_obj_style_gen.h **** static inline lv_color_t lv_obj_get_style_bg_grad_color_filtered(const struct _lv_obj_t * obj, uint
 218:Middlewares/lvgl/src/core/lv_obj_style_gen.h **** {
 219:Middlewares/lvgl/src/core/lv_obj_style_gen.h ****     lv_style_value_t v = lv_obj_get_style_prop(obj, part, LV_STYLE_BG_GRAD_COLOR_FILTERED);
 220:Middlewares/lvgl/src/core/lv_obj_style_gen.h ****     return v.color;
 221:Middlewares/lvgl/src/core/lv_obj_style_gen.h **** }
 222:Middlewares/lvgl/src/core/lv_obj_style_gen.h **** 
 223:Middlewares/lvgl/src/core/lv_obj_style_gen.h **** static inline lv_grad_dir_t lv_obj_get_style_bg_grad_dir(const struct _lv_obj_t * obj, uint32_t par
 224:Middlewares/lvgl/src/core/lv_obj_style_gen.h **** {
 225:Middlewares/lvgl/src/core/lv_obj_style_gen.h ****     lv_style_value_t v = lv_obj_get_style_prop(obj, part, LV_STYLE_BG_GRAD_DIR);
 226:Middlewares/lvgl/src/core/lv_obj_style_gen.h ****     return (lv_grad_dir_t)v.num;
 227:Middlewares/lvgl/src/core/lv_obj_style_gen.h **** }
 228:Middlewares/lvgl/src/core/lv_obj_style_gen.h **** 
 229:Middlewares/lvgl/src/core/lv_obj_style_gen.h **** static inline lv_coord_t lv_obj_get_style_bg_main_stop(const struct _lv_obj_t * obj, uint32_t part)
 230:Middlewares/lvgl/src/core/lv_obj_style_gen.h **** {
 231:Middlewares/lvgl/src/core/lv_obj_style_gen.h ****     lv_style_value_t v = lv_obj_get_style_prop(obj, part, LV_STYLE_BG_MAIN_STOP);
 232:Middlewares/lvgl/src/core/lv_obj_style_gen.h ****     return (lv_coord_t)v.num;
 233:Middlewares/lvgl/src/core/lv_obj_style_gen.h **** }
 234:Middlewares/lvgl/src/core/lv_obj_style_gen.h **** 
 235:Middlewares/lvgl/src/core/lv_obj_style_gen.h **** static inline lv_coord_t lv_obj_get_style_bg_grad_stop(const struct _lv_obj_t * obj, uint32_t part)
 236:Middlewares/lvgl/src/core/lv_obj_style_gen.h **** {
 237:Middlewares/lvgl/src/core/lv_obj_style_gen.h ****     lv_style_value_t v = lv_obj_get_style_prop(obj, part, LV_STYLE_BG_GRAD_STOP);
 238:Middlewares/lvgl/src/core/lv_obj_style_gen.h ****     return (lv_coord_t)v.num;
 239:Middlewares/lvgl/src/core/lv_obj_style_gen.h **** }
 240:Middlewares/lvgl/src/core/lv_obj_style_gen.h **** 
 241:Middlewares/lvgl/src/core/lv_obj_style_gen.h **** static inline const void * lv_obj_get_style_bg_img_src(const struct _lv_obj_t * obj, uint32_t part)
 242:Middlewares/lvgl/src/core/lv_obj_style_gen.h **** {
 243:Middlewares/lvgl/src/core/lv_obj_style_gen.h ****     lv_style_value_t v = lv_obj_get_style_prop(obj, part, LV_STYLE_BG_IMG_SRC);
 244:Middlewares/lvgl/src/core/lv_obj_style_gen.h ****     return (const void *)v.ptr;
 245:Middlewares/lvgl/src/core/lv_obj_style_gen.h **** }
 246:Middlewares/lvgl/src/core/lv_obj_style_gen.h **** 
 247:Middlewares/lvgl/src/core/lv_obj_style_gen.h **** static inline lv_opa_t lv_obj_get_style_bg_img_opa(const struct _lv_obj_t * obj, uint32_t part)
 248:Middlewares/lvgl/src/core/lv_obj_style_gen.h **** {
 249:Middlewares/lvgl/src/core/lv_obj_style_gen.h ****     lv_style_value_t v = lv_obj_get_style_prop(obj, part, LV_STYLE_BG_IMG_OPA);
 250:Middlewares/lvgl/src/core/lv_obj_style_gen.h ****     return (lv_opa_t)v.num;
 251:Middlewares/lvgl/src/core/lv_obj_style_gen.h **** }
 252:Middlewares/lvgl/src/core/lv_obj_style_gen.h **** 
 253:Middlewares/lvgl/src/core/lv_obj_style_gen.h **** static inline lv_color_t lv_obj_get_style_bg_img_recolor(const struct _lv_obj_t * obj, uint32_t par
 254:Middlewares/lvgl/src/core/lv_obj_style_gen.h **** {
 255:Middlewares/lvgl/src/core/lv_obj_style_gen.h ****     lv_style_value_t v = lv_obj_get_style_prop(obj, part, LV_STYLE_BG_IMG_RECOLOR);
 256:Middlewares/lvgl/src/core/lv_obj_style_gen.h ****     return v.color;
 257:Middlewares/lvgl/src/core/lv_obj_style_gen.h **** }
 258:Middlewares/lvgl/src/core/lv_obj_style_gen.h **** 
 259:Middlewares/lvgl/src/core/lv_obj_style_gen.h **** static inline lv_color_t lv_obj_get_style_bg_img_recolor_filtered(const struct _lv_obj_t * obj, uin
 260:Middlewares/lvgl/src/core/lv_obj_style_gen.h **** {
 261:Middlewares/lvgl/src/core/lv_obj_style_gen.h ****     lv_style_value_t v = lv_obj_get_style_prop(obj, part, LV_STYLE_BG_IMG_RECOLOR_FILTERED);
 262:Middlewares/lvgl/src/core/lv_obj_style_gen.h ****     return v.color;
 263:Middlewares/lvgl/src/core/lv_obj_style_gen.h **** }
 264:Middlewares/lvgl/src/core/lv_obj_style_gen.h **** 
 265:Middlewares/lvgl/src/core/lv_obj_style_gen.h **** static inline lv_opa_t lv_obj_get_style_bg_img_recolor_opa(const struct _lv_obj_t * obj, uint32_t p
 266:Middlewares/lvgl/src/core/lv_obj_style_gen.h **** {
 267:Middlewares/lvgl/src/core/lv_obj_style_gen.h ****     lv_style_value_t v = lv_obj_get_style_prop(obj, part, LV_STYLE_BG_IMG_RECOLOR_OPA);
 268:Middlewares/lvgl/src/core/lv_obj_style_gen.h ****     return (lv_opa_t)v.num;
 269:Middlewares/lvgl/src/core/lv_obj_style_gen.h **** }
ARM GAS  /tmp/ccnhv9Lg.s 			page 15


 270:Middlewares/lvgl/src/core/lv_obj_style_gen.h **** 
 271:Middlewares/lvgl/src/core/lv_obj_style_gen.h **** static inline bool lv_obj_get_style_bg_img_tiled(const struct _lv_obj_t * obj, uint32_t part)
 272:Middlewares/lvgl/src/core/lv_obj_style_gen.h **** {
 273:Middlewares/lvgl/src/core/lv_obj_style_gen.h ****     lv_style_value_t v = lv_obj_get_style_prop(obj, part, LV_STYLE_BG_IMG_TILED);
 274:Middlewares/lvgl/src/core/lv_obj_style_gen.h ****     return (bool)v.num;
 275:Middlewares/lvgl/src/core/lv_obj_style_gen.h **** }
 276:Middlewares/lvgl/src/core/lv_obj_style_gen.h **** 
 277:Middlewares/lvgl/src/core/lv_obj_style_gen.h **** static inline lv_color_t lv_obj_get_style_border_color(const struct _lv_obj_t * obj, uint32_t part)
 278:Middlewares/lvgl/src/core/lv_obj_style_gen.h **** {
 279:Middlewares/lvgl/src/core/lv_obj_style_gen.h ****     lv_style_value_t v = lv_obj_get_style_prop(obj, part, LV_STYLE_BORDER_COLOR);
 280:Middlewares/lvgl/src/core/lv_obj_style_gen.h ****     return v.color;
 281:Middlewares/lvgl/src/core/lv_obj_style_gen.h **** }
 282:Middlewares/lvgl/src/core/lv_obj_style_gen.h **** 
 283:Middlewares/lvgl/src/core/lv_obj_style_gen.h **** static inline lv_color_t lv_obj_get_style_border_color_filtered(const struct _lv_obj_t * obj, uint3
 284:Middlewares/lvgl/src/core/lv_obj_style_gen.h **** {
 285:Middlewares/lvgl/src/core/lv_obj_style_gen.h ****     lv_style_value_t v = lv_obj_get_style_prop(obj, part, LV_STYLE_BORDER_COLOR_FILTERED);
 286:Middlewares/lvgl/src/core/lv_obj_style_gen.h ****     return v.color;
 287:Middlewares/lvgl/src/core/lv_obj_style_gen.h **** }
 288:Middlewares/lvgl/src/core/lv_obj_style_gen.h **** 
 289:Middlewares/lvgl/src/core/lv_obj_style_gen.h **** static inline lv_opa_t lv_obj_get_style_border_opa(const struct _lv_obj_t * obj, uint32_t part)
 290:Middlewares/lvgl/src/core/lv_obj_style_gen.h **** {
 291:Middlewares/lvgl/src/core/lv_obj_style_gen.h ****     lv_style_value_t v = lv_obj_get_style_prop(obj, part, LV_STYLE_BORDER_OPA);
 292:Middlewares/lvgl/src/core/lv_obj_style_gen.h ****     return (lv_opa_t)v.num;
 293:Middlewares/lvgl/src/core/lv_obj_style_gen.h **** }
 294:Middlewares/lvgl/src/core/lv_obj_style_gen.h **** 
 295:Middlewares/lvgl/src/core/lv_obj_style_gen.h **** static inline lv_coord_t lv_obj_get_style_border_width(const struct _lv_obj_t * obj, uint32_t part)
 283              		.loc 2 295 26 view .LVU62
 284              	.LBB126:
 296:Middlewares/lvgl/src/core/lv_obj_style_gen.h **** {
 297:Middlewares/lvgl/src/core/lv_obj_style_gen.h ****     lv_style_value_t v = lv_obj_get_style_prop(obj, part, LV_STYLE_BORDER_WIDTH);
 285              		.loc 2 297 5 view .LVU63
 286              		.loc 2 297 26 is_stmt 0 view .LVU64
 287 0020 41F23202 		movw	r2, #4146
 288 0024 0021     		movs	r1, #0
 289 0026 2846     		mov	r0, r5
 290 0028 FFF7FEFF 		bl	lv_obj_get_style_prop
 291              	.LVL22:
 298:Middlewares/lvgl/src/core/lv_obj_style_gen.h ****     return (lv_coord_t)v.num;
 292              		.loc 2 298 5 is_stmt 1 view .LVU65
 293              		.loc 2 298 5 is_stmt 0 view .LVU66
 294              	.LBE126:
 295              	.LBE125:
 242:Middlewares/lvgl/src/core/lv_obj_pos.c **** 
 243:Middlewares/lvgl/src/core/lv_obj_pos.c ****     lv_obj_set_width(obj, w + pleft + pright + 2 * border_width);
 296              		.loc 1 243 5 is_stmt 1 view .LVU67
 297              		.loc 1 243 29 is_stmt 0 view .LVU68
 298 002c E119     		adds	r1, r4, r7
 299              		.loc 1 243 37 view .LVU69
 300 002e 16FA81F1 		uxtah	r1, r6, r1
 301              		.loc 1 243 50 view .LVU70
 302 0032 4000     		lsls	r0, r0, #1
 303              	.LVL23:
 304              		.loc 1 243 50 view .LVU71
 305 0034 80B2     		uxth	r0, r0
 306              		.loc 1 243 46 view .LVU72
 307 0036 10FA81F1 		uxtah	r1, r0, r1
 308              		.loc 1 243 5 view .LVU73
ARM GAS  /tmp/ccnhv9Lg.s 			page 16


 309 003a 09B2     		sxth	r1, r1
 310 003c 2846     		mov	r0, r5
 311 003e FFF7FEFF 		bl	lv_obj_set_width
 312              	.LVL24:
 244:Middlewares/lvgl/src/core/lv_obj_pos.c **** }
 313              		.loc 1 244 1 view .LVU74
 314 0042 F8BD     		pop	{r3, r4, r5, r6, r7, pc}
 315              		.loc 1 244 1 view .LVU75
 316              		.cfi_endproc
 317              	.LFE160:
 319              		.section	.text.lv_obj_set_content_height,"ax",%progbits
 320              		.align	1
 321              		.global	lv_obj_set_content_height
 322              		.syntax unified
 323              		.thumb
 324              		.thumb_func
 326              	lv_obj_set_content_height:
 327              	.LVL25:
 328              	.LFB161:
 245:Middlewares/lvgl/src/core/lv_obj_pos.c **** 
 246:Middlewares/lvgl/src/core/lv_obj_pos.c **** void lv_obj_set_content_height(lv_obj_t * obj, lv_coord_t h)
 247:Middlewares/lvgl/src/core/lv_obj_pos.c **** {
 329              		.loc 1 247 1 is_stmt 1 view -0
 330              		.cfi_startproc
 331              		@ args = 0, pretend = 0, frame = 0
 332              		@ frame_needed = 0, uses_anonymous_args = 0
 333              		.loc 1 247 1 is_stmt 0 view .LVU77
 334 0000 F8B5     		push	{r3, r4, r5, r6, r7, lr}
 335              	.LCFI10:
 336              		.cfi_def_cfa_offset 24
 337              		.cfi_offset 3, -24
 338              		.cfi_offset 4, -20
 339              		.cfi_offset 5, -16
 340              		.cfi_offset 6, -12
 341              		.cfi_offset 7, -8
 342              		.cfi_offset 14, -4
 343 0002 0546     		mov	r5, r0
 344 0004 0C46     		mov	r4, r1
 248:Middlewares/lvgl/src/core/lv_obj_pos.c ****     lv_coord_t ptop = lv_obj_get_style_pad_top(obj, LV_PART_MAIN);
 345              		.loc 1 248 5 is_stmt 1 view .LVU78
 346              	.LVL26:
 347              	.LBB127:
 348              	.LBI127:
  91:Middlewares/lvgl/src/core/lv_obj_style_gen.h **** {
 349              		.loc 2 91 26 view .LVU79
 350              	.LBB128:
  93:Middlewares/lvgl/src/core/lv_obj_style_gen.h ****     return (lv_coord_t)v.num;
 351              		.loc 2 93 5 view .LVU80
  93:Middlewares/lvgl/src/core/lv_obj_style_gen.h ****     return (lv_coord_t)v.num;
 352              		.loc 2 93 26 is_stmt 0 view .LVU81
 353 0006 41F21002 		movw	r2, #4112
 354 000a 0021     		movs	r1, #0
 355              	.LVL27:
  93:Middlewares/lvgl/src/core/lv_obj_style_gen.h ****     return (lv_coord_t)v.num;
 356              		.loc 2 93 26 view .LVU82
 357 000c FFF7FEFF 		bl	lv_obj_get_style_prop
 358              	.LVL28:
ARM GAS  /tmp/ccnhv9Lg.s 			page 17


  93:Middlewares/lvgl/src/core/lv_obj_style_gen.h ****     return (lv_coord_t)v.num;
 359              		.loc 2 93 26 view .LVU83
 360 0010 0746     		mov	r7, r0
 361              	.LVL29:
  94:Middlewares/lvgl/src/core/lv_obj_style_gen.h **** }
 362              		.loc 2 94 5 is_stmt 1 view .LVU84
  94:Middlewares/lvgl/src/core/lv_obj_style_gen.h **** }
 363              		.loc 2 94 5 is_stmt 0 view .LVU85
 364              	.LBE128:
 365              	.LBE127:
 249:Middlewares/lvgl/src/core/lv_obj_pos.c ****     lv_coord_t pbottom = lv_obj_get_style_pad_bottom(obj, LV_PART_MAIN);
 366              		.loc 1 249 5 is_stmt 1 view .LVU86
 367              	.LBB129:
 368              	.LBI129:
  97:Middlewares/lvgl/src/core/lv_obj_style_gen.h **** {
 369              		.loc 2 97 26 view .LVU87
 370              	.LBB130:
  99:Middlewares/lvgl/src/core/lv_obj_style_gen.h ****     return (lv_coord_t)v.num;
 371              		.loc 2 99 5 view .LVU88
  99:Middlewares/lvgl/src/core/lv_obj_style_gen.h ****     return (lv_coord_t)v.num;
 372              		.loc 2 99 26 is_stmt 0 view .LVU89
 373 0012 41F21102 		movw	r2, #4113
 374 0016 0021     		movs	r1, #0
 375 0018 2846     		mov	r0, r5
 376 001a FFF7FEFF 		bl	lv_obj_get_style_prop
 377              	.LVL30:
 378 001e 0646     		mov	r6, r0
 379              	.LVL31:
 100:Middlewares/lvgl/src/core/lv_obj_style_gen.h **** }
 380              		.loc 2 100 5 is_stmt 1 view .LVU90
 100:Middlewares/lvgl/src/core/lv_obj_style_gen.h **** }
 381              		.loc 2 100 5 is_stmt 0 view .LVU91
 382              	.LBE130:
 383              	.LBE129:
 250:Middlewares/lvgl/src/core/lv_obj_pos.c ****     lv_coord_t border_width = lv_obj_get_style_border_width(obj, LV_PART_MAIN);
 384              		.loc 1 250 5 is_stmt 1 view .LVU92
 385              	.LBB131:
 386              	.LBI131:
 295:Middlewares/lvgl/src/core/lv_obj_style_gen.h **** {
 387              		.loc 2 295 26 view .LVU93
 388              	.LBB132:
 297:Middlewares/lvgl/src/core/lv_obj_style_gen.h ****     return (lv_coord_t)v.num;
 389              		.loc 2 297 5 view .LVU94
 297:Middlewares/lvgl/src/core/lv_obj_style_gen.h ****     return (lv_coord_t)v.num;
 390              		.loc 2 297 26 is_stmt 0 view .LVU95
 391 0020 41F23202 		movw	r2, #4146
 392 0024 0021     		movs	r1, #0
 393 0026 2846     		mov	r0, r5
 394 0028 FFF7FEFF 		bl	lv_obj_get_style_prop
 395              	.LVL32:
 396              		.loc 2 298 5 is_stmt 1 view .LVU96
 397              		.loc 2 298 5 is_stmt 0 view .LVU97
 398              	.LBE132:
 399              	.LBE131:
 251:Middlewares/lvgl/src/core/lv_obj_pos.c **** 
 252:Middlewares/lvgl/src/core/lv_obj_pos.c ****     lv_obj_set_height(obj, h + ptop + pbottom + 2 * border_width);
 400              		.loc 1 252 5 is_stmt 1 view .LVU98
ARM GAS  /tmp/ccnhv9Lg.s 			page 18


 401              		.loc 1 252 30 is_stmt 0 view .LVU99
 402 002c E119     		adds	r1, r4, r7
 403              		.loc 1 252 37 view .LVU100
 404 002e 16FA81F1 		uxtah	r1, r6, r1
 405              		.loc 1 252 51 view .LVU101
 406 0032 4000     		lsls	r0, r0, #1
 407              	.LVL33:
 408              		.loc 1 252 51 view .LVU102
 409 0034 80B2     		uxth	r0, r0
 410              		.loc 1 252 47 view .LVU103
 411 0036 10FA81F1 		uxtah	r1, r0, r1
 412              		.loc 1 252 5 view .LVU104
 413 003a 09B2     		sxth	r1, r1
 414 003c 2846     		mov	r0, r5
 415 003e FFF7FEFF 		bl	lv_obj_set_height
 416              	.LVL34:
 253:Middlewares/lvgl/src/core/lv_obj_pos.c **** }
 417              		.loc 1 253 1 view .LVU105
 418 0042 F8BD     		pop	{r3, r4, r5, r6, r7, pc}
 419              		.loc 1 253 1 view .LVU106
 420              		.cfi_endproc
 421              	.LFE161:
 423              		.section	.text.lv_obj_is_layout_positioned,"ax",%progbits
 424              		.align	1
 425              		.global	lv_obj_is_layout_positioned
 426              		.syntax unified
 427              		.thumb
 428              		.thumb_func
 430              	lv_obj_is_layout_positioned:
 431              	.LVL35:
 432              	.LFB163:
 254:Middlewares/lvgl/src/core/lv_obj_pos.c **** 
 255:Middlewares/lvgl/src/core/lv_obj_pos.c **** void lv_obj_set_layout(lv_obj_t * obj, uint32_t layout)
 256:Middlewares/lvgl/src/core/lv_obj_pos.c **** {
 257:Middlewares/lvgl/src/core/lv_obj_pos.c ****     LV_ASSERT_OBJ(obj, MY_CLASS);
 258:Middlewares/lvgl/src/core/lv_obj_pos.c **** 
 259:Middlewares/lvgl/src/core/lv_obj_pos.c ****     lv_obj_set_style_layout(obj, layout, 0);
 260:Middlewares/lvgl/src/core/lv_obj_pos.c **** 
 261:Middlewares/lvgl/src/core/lv_obj_pos.c ****     lv_obj_mark_layout_as_dirty(obj);
 262:Middlewares/lvgl/src/core/lv_obj_pos.c **** }
 263:Middlewares/lvgl/src/core/lv_obj_pos.c **** 
 264:Middlewares/lvgl/src/core/lv_obj_pos.c **** bool lv_obj_is_layout_positioned(const lv_obj_t * obj)
 265:Middlewares/lvgl/src/core/lv_obj_pos.c **** {
 433              		.loc 1 265 1 is_stmt 1 view -0
 434              		.cfi_startproc
 435              		@ args = 0, pretend = 0, frame = 0
 436              		@ frame_needed = 0, uses_anonymous_args = 0
 437              		.loc 1 265 1 is_stmt 0 view .LVU108
 438 0000 38B5     		push	{r3, r4, r5, lr}
 439              	.LCFI11:
 440              		.cfi_def_cfa_offset 16
 441              		.cfi_offset 3, -16
 442              		.cfi_offset 4, -12
 443              		.cfi_offset 5, -8
 444              		.cfi_offset 14, -4
 445 0002 0446     		mov	r4, r0
 266:Middlewares/lvgl/src/core/lv_obj_pos.c ****     if(lv_obj_has_flag_any(obj, LV_OBJ_FLAG_HIDDEN | LV_OBJ_FLAG_IGNORE_LAYOUT | LV_OBJ_FLAG_FLOATI
ARM GAS  /tmp/ccnhv9Lg.s 			page 19


 446              		.loc 1 266 5 is_stmt 1 view .LVU109
 447              		.loc 1 266 8 is_stmt 0 view .LVU110
 448 0004 0B49     		ldr	r1, .L24
 449 0006 FFF7FEFF 		bl	lv_obj_has_flag_any
 450              	.LVL36:
 451              		.loc 1 266 7 view .LVU111
 452 000a 10B1     		cbz	r0, .L23
 453              		.loc 1 266 112 view .LVU112
 454 000c 0025     		movs	r5, #0
 455              	.L20:
 267:Middlewares/lvgl/src/core/lv_obj_pos.c **** 
 268:Middlewares/lvgl/src/core/lv_obj_pos.c ****     lv_obj_t * parent = lv_obj_get_parent(obj);
 269:Middlewares/lvgl/src/core/lv_obj_pos.c ****     if(parent == NULL) return false;
 270:Middlewares/lvgl/src/core/lv_obj_pos.c **** 
 271:Middlewares/lvgl/src/core/lv_obj_pos.c ****     uint32_t layout = lv_obj_get_style_layout(parent, LV_PART_MAIN);
 272:Middlewares/lvgl/src/core/lv_obj_pos.c ****     if(layout) return true;
 273:Middlewares/lvgl/src/core/lv_obj_pos.c ****     else return false;
 274:Middlewares/lvgl/src/core/lv_obj_pos.c **** }
 456              		.loc 1 274 1 view .LVU113
 457 000e 2846     		mov	r0, r5
 458 0010 38BD     		pop	{r3, r4, r5, pc}
 459              	.LVL37:
 460              	.L23:
 461              		.loc 1 274 1 view .LVU114
 462 0012 0546     		mov	r5, r0
 268:Middlewares/lvgl/src/core/lv_obj_pos.c ****     if(parent == NULL) return false;
 463              		.loc 1 268 5 is_stmt 1 view .LVU115
 268:Middlewares/lvgl/src/core/lv_obj_pos.c ****     if(parent == NULL) return false;
 464              		.loc 1 268 25 is_stmt 0 view .LVU116
 465 0014 2046     		mov	r0, r4
 466 0016 FFF7FEFF 		bl	lv_obj_get_parent
 467              	.LVL38:
 269:Middlewares/lvgl/src/core/lv_obj_pos.c **** 
 468              		.loc 1 269 5 is_stmt 1 view .LVU117
 269:Middlewares/lvgl/src/core/lv_obj_pos.c **** 
 469              		.loc 1 269 7 is_stmt 0 view .LVU118
 470 001a 0028     		cmp	r0, #0
 471 001c F7D0     		beq	.L20
 271:Middlewares/lvgl/src/core/lv_obj_pos.c ****     if(layout) return true;
 472              		.loc 1 271 5 is_stmt 1 view .LVU119
 473              	.LVL39:
 474              	.LBB133:
 475              	.LBI133:
 181:Middlewares/lvgl/src/core/lv_obj_style_gen.h **** {
 476              		.loc 2 181 24 view .LVU120
 477              	.LBB134:
 183:Middlewares/lvgl/src/core/lv_obj_style_gen.h ****     return (uint16_t)v.num;
 478              		.loc 2 183 5 view .LVU121
 183:Middlewares/lvgl/src/core/lv_obj_style_gen.h ****     return (uint16_t)v.num;
 479              		.loc 2 183 26 is_stmt 0 view .LVU122
 480 001e 41F26902 		movw	r2, #4201
 481 0022 0021     		movs	r1, #0
 482 0024 FFF7FEFF 		bl	lv_obj_get_style_prop
 483              	.LVL40:
 184:Middlewares/lvgl/src/core/lv_obj_style_gen.h **** }
 484              		.loc 2 184 5 is_stmt 1 view .LVU123
 184:Middlewares/lvgl/src/core/lv_obj_style_gen.h **** }
ARM GAS  /tmp/ccnhv9Lg.s 			page 20


 485              		.loc 2 184 5 is_stmt 0 view .LVU124
 486              	.LBE134:
 487              	.LBE133:
 272:Middlewares/lvgl/src/core/lv_obj_pos.c ****     else return false;
 488              		.loc 1 272 5 is_stmt 1 view .LVU125
 272:Middlewares/lvgl/src/core/lv_obj_pos.c ****     else return false;
 489              		.loc 1 272 7 is_stmt 0 view .LVU126
 490 0028 80B2     		uxth	r0, r0
 491              	.LVL41:
 272:Middlewares/lvgl/src/core/lv_obj_pos.c ****     else return false;
 492              		.loc 1 272 7 view .LVU127
 493 002a 0028     		cmp	r0, #0
 494 002c EFD0     		beq	.L20
 272:Middlewares/lvgl/src/core/lv_obj_pos.c ****     else return false;
 495              		.loc 1 272 23 view .LVU128
 496 002e 0125     		movs	r5, #1
 497 0030 EDE7     		b	.L20
 498              	.L25:
 499 0032 00BF     		.align	2
 500              	.L24:
 501 0034 01800100 		.word	98305
 502              		.cfi_endproc
 503              	.LFE163:
 505              		.section	.text.lv_obj_set_x,"ax",%progbits
 506              		.align	1
 507              		.global	lv_obj_set_x
 508              		.syntax unified
 509              		.thumb
 510              		.thumb_func
 512              	lv_obj_set_x:
 513              	.LVL42:
 514              	.LFB154:
  51:Middlewares/lvgl/src/core/lv_obj_pos.c ****     LV_ASSERT_OBJ(obj, MY_CLASS);
 515              		.loc 1 51 1 is_stmt 1 view -0
 516              		.cfi_startproc
 517              		@ args = 0, pretend = 0, frame = 8
 518              		@ frame_needed = 0, uses_anonymous_args = 0
  51:Middlewares/lvgl/src/core/lv_obj_pos.c ****     LV_ASSERT_OBJ(obj, MY_CLASS);
 519              		.loc 1 51 1 is_stmt 0 view .LVU130
 520 0000 30B5     		push	{r4, r5, lr}
 521              	.LCFI12:
 522              		.cfi_def_cfa_offset 12
 523              		.cfi_offset 4, -12
 524              		.cfi_offset 5, -8
 525              		.cfi_offset 14, -4
 526 0002 83B0     		sub	sp, sp, #12
 527              	.LCFI13:
 528              		.cfi_def_cfa_offset 24
 529 0004 0446     		mov	r4, r0
 530 0006 0D46     		mov	r5, r1
  52:Middlewares/lvgl/src/core/lv_obj_pos.c ****     if(lv_obj_is_layout_positioned(obj)) {
 531              		.loc 1 52 5 is_stmt 1 view .LVU131
  52:Middlewares/lvgl/src/core/lv_obj_pos.c ****     if(lv_obj_is_layout_positioned(obj)) {
 532              		.loc 1 52 5 view .LVU132
  52:Middlewares/lvgl/src/core/lv_obj_pos.c ****     if(lv_obj_is_layout_positioned(obj)) {
 533              		.loc 1 52 5 view .LVU133
  53:Middlewares/lvgl/src/core/lv_obj_pos.c ****         return;
ARM GAS  /tmp/ccnhv9Lg.s 			page 21


 534              		.loc 1 53 5 view .LVU134
  53:Middlewares/lvgl/src/core/lv_obj_pos.c ****         return;
 535              		.loc 1 53 8 is_stmt 0 view .LVU135
 536 0008 FFF7FEFF 		bl	lv_obj_is_layout_positioned
 537              	.LVL43:
  53:Middlewares/lvgl/src/core/lv_obj_pos.c ****         return;
 538              		.loc 1 53 7 view .LVU136
 539 000c 08B1     		cbz	r0, .L33
 540              	.L26:
  65:Middlewares/lvgl/src/core/lv_obj_pos.c **** 
 541              		.loc 1 65 1 view .LVU137
 542 000e 03B0     		add	sp, sp, #12
 543              	.LCFI14:
 544              		.cfi_remember_state
 545              		.cfi_def_cfa_offset 12
 546              		@ sp needed
 547 0010 30BD     		pop	{r4, r5, pc}
 548              	.LVL44:
 549              	.L33:
 550              	.LCFI15:
 551              		.cfi_restore_state
  57:Middlewares/lvgl/src/core/lv_obj_pos.c ****     lv_style_value_t v_x;
 552              		.loc 1 57 5 is_stmt 1 view .LVU138
  58:Middlewares/lvgl/src/core/lv_obj_pos.c **** 
 553              		.loc 1 58 5 view .LVU139
  60:Middlewares/lvgl/src/core/lv_obj_pos.c **** 
 554              		.loc 1 60 5 view .LVU140
  60:Middlewares/lvgl/src/core/lv_obj_pos.c **** 
 555              		.loc 1 60 13 is_stmt 0 view .LVU141
 556 0012 0023     		movs	r3, #0
 557 0014 01AA     		add	r2, sp, #4
 558 0016 41F20701 		movw	r1, #4103
 559 001a 2046     		mov	r0, r4
 560 001c FFF7FEFF 		bl	lv_obj_get_local_style_prop
 561              	.LVL45:
  62:Middlewares/lvgl/src/core/lv_obj_pos.c ****         lv_obj_set_style_x(obj, x, 0);
 562              		.loc 1 62 5 is_stmt 1 view .LVU142
  62:Middlewares/lvgl/src/core/lv_obj_pos.c ****         lv_obj_set_style_x(obj, x, 0);
 563              		.loc 1 62 7 is_stmt 0 view .LVU143
 564 0020 0128     		cmp	r0, #1
 565 0022 07D0     		beq	.L34
 566              	.L29:
  62:Middlewares/lvgl/src/core/lv_obj_pos.c ****         lv_obj_set_style_x(obj, x, 0);
 567              		.loc 1 62 45 discriminator 3 view .LVU144
 568 0024 0028     		cmp	r0, #0
 569 0026 F2D1     		bne	.L26
 570              	.L30:
  63:Middlewares/lvgl/src/core/lv_obj_pos.c ****     }
 571              		.loc 1 63 9 is_stmt 1 view .LVU145
 572 0028 0022     		movs	r2, #0
 573 002a 2946     		mov	r1, r5
 574 002c 2046     		mov	r0, r4
 575              	.LVL46:
  63:Middlewares/lvgl/src/core/lv_obj_pos.c ****     }
 576              		.loc 1 63 9 is_stmt 0 view .LVU146
 577 002e FFF7FEFF 		bl	lv_obj_set_style_x
 578              	.LVL47:
ARM GAS  /tmp/ccnhv9Lg.s 			page 22


 579 0032 ECE7     		b	.L26
 580              	.LVL48:
 581              	.L34:
  62:Middlewares/lvgl/src/core/lv_obj_pos.c ****         lv_obj_set_style_x(obj, x, 0);
 582              		.loc 1 62 34 discriminator 1 view .LVU147
 583 0034 019B     		ldr	r3, [sp, #4]
  62:Middlewares/lvgl/src/core/lv_obj_pos.c ****         lv_obj_set_style_x(obj, x, 0);
 584              		.loc 1 62 28 discriminator 1 view .LVU148
 585 0036 AB42     		cmp	r3, r5
 586 0038 F6D1     		bne	.L30
 587 003a F3E7     		b	.L29
 588              		.cfi_endproc
 589              	.LFE154:
 591              		.section	.text.lv_obj_set_y,"ax",%progbits
 592              		.align	1
 593              		.global	lv_obj_set_y
 594              		.syntax unified
 595              		.thumb
 596              		.thumb_func
 598              	lv_obj_set_y:
 599              	.LVL49:
 600              	.LFB155:
  68:Middlewares/lvgl/src/core/lv_obj_pos.c ****     if(lv_obj_is_layout_positioned(obj)) {
 601              		.loc 1 68 1 is_stmt 1 view -0
 602              		.cfi_startproc
 603              		@ args = 0, pretend = 0, frame = 8
 604              		@ frame_needed = 0, uses_anonymous_args = 0
  68:Middlewares/lvgl/src/core/lv_obj_pos.c ****     if(lv_obj_is_layout_positioned(obj)) {
 605              		.loc 1 68 1 is_stmt 0 view .LVU150
 606 0000 30B5     		push	{r4, r5, lr}
 607              	.LCFI16:
 608              		.cfi_def_cfa_offset 12
 609              		.cfi_offset 4, -12
 610              		.cfi_offset 5, -8
 611              		.cfi_offset 14, -4
 612 0002 83B0     		sub	sp, sp, #12
 613              	.LCFI17:
 614              		.cfi_def_cfa_offset 24
 615 0004 0446     		mov	r4, r0
 616 0006 0D46     		mov	r5, r1
  69:Middlewares/lvgl/src/core/lv_obj_pos.c ****         return;
 617              		.loc 1 69 5 is_stmt 1 view .LVU151
  69:Middlewares/lvgl/src/core/lv_obj_pos.c ****         return;
 618              		.loc 1 69 8 is_stmt 0 view .LVU152
 619 0008 FFF7FEFF 		bl	lv_obj_is_layout_positioned
 620              	.LVL50:
  69:Middlewares/lvgl/src/core/lv_obj_pos.c ****         return;
 621              		.loc 1 69 7 view .LVU153
 622 000c 08B1     		cbz	r0, .L42
 623              	.L35:
  82:Middlewares/lvgl/src/core/lv_obj_pos.c **** 
 624              		.loc 1 82 1 view .LVU154
 625 000e 03B0     		add	sp, sp, #12
 626              	.LCFI18:
 627              		.cfi_remember_state
 628              		.cfi_def_cfa_offset 12
 629              		@ sp needed
ARM GAS  /tmp/ccnhv9Lg.s 			page 23


 630 0010 30BD     		pop	{r4, r5, pc}
 631              	.LVL51:
 632              	.L42:
 633              	.LCFI19:
 634              		.cfi_restore_state
  72:Middlewares/lvgl/src/core/lv_obj_pos.c **** 
 635              		.loc 1 72 5 is_stmt 1 view .LVU155
  72:Middlewares/lvgl/src/core/lv_obj_pos.c **** 
 636              		.loc 1 72 5 view .LVU156
  72:Middlewares/lvgl/src/core/lv_obj_pos.c **** 
 637              		.loc 1 72 5 view .LVU157
  74:Middlewares/lvgl/src/core/lv_obj_pos.c ****     lv_style_value_t v_y;
 638              		.loc 1 74 5 view .LVU158
  75:Middlewares/lvgl/src/core/lv_obj_pos.c **** 
 639              		.loc 1 75 5 view .LVU159
  77:Middlewares/lvgl/src/core/lv_obj_pos.c **** 
 640              		.loc 1 77 5 view .LVU160
  77:Middlewares/lvgl/src/core/lv_obj_pos.c **** 
 641              		.loc 1 77 13 is_stmt 0 view .LVU161
 642 0012 0023     		movs	r3, #0
 643 0014 01AA     		add	r2, sp, #4
 644 0016 41F20801 		movw	r1, #4104
 645 001a 2046     		mov	r0, r4
 646 001c FFF7FEFF 		bl	lv_obj_get_local_style_prop
 647              	.LVL52:
  79:Middlewares/lvgl/src/core/lv_obj_pos.c ****         lv_obj_set_style_y(obj, y, 0);
 648              		.loc 1 79 5 is_stmt 1 view .LVU162
  79:Middlewares/lvgl/src/core/lv_obj_pos.c ****         lv_obj_set_style_y(obj, y, 0);
 649              		.loc 1 79 7 is_stmt 0 view .LVU163
 650 0020 0128     		cmp	r0, #1
 651 0022 07D0     		beq	.L43
 652              	.L38:
  79:Middlewares/lvgl/src/core/lv_obj_pos.c ****         lv_obj_set_style_y(obj, y, 0);
 653              		.loc 1 79 45 discriminator 3 view .LVU164
 654 0024 0028     		cmp	r0, #0
 655 0026 F2D1     		bne	.L35
 656              	.L39:
  80:Middlewares/lvgl/src/core/lv_obj_pos.c ****     }
 657              		.loc 1 80 9 is_stmt 1 view .LVU165
 658 0028 0022     		movs	r2, #0
 659 002a 2946     		mov	r1, r5
 660 002c 2046     		mov	r0, r4
 661              	.LVL53:
  80:Middlewares/lvgl/src/core/lv_obj_pos.c ****     }
 662              		.loc 1 80 9 is_stmt 0 view .LVU166
 663 002e FFF7FEFF 		bl	lv_obj_set_style_y
 664              	.LVL54:
 665 0032 ECE7     		b	.L35
 666              	.LVL55:
 667              	.L43:
  79:Middlewares/lvgl/src/core/lv_obj_pos.c ****         lv_obj_set_style_y(obj, y, 0);
 668              		.loc 1 79 34 discriminator 1 view .LVU167
 669 0034 019B     		ldr	r3, [sp, #4]
  79:Middlewares/lvgl/src/core/lv_obj_pos.c ****         lv_obj_set_style_y(obj, y, 0);
 670              		.loc 1 79 28 discriminator 1 view .LVU168
 671 0036 AB42     		cmp	r3, r5
 672 0038 F6D1     		bne	.L39
ARM GAS  /tmp/ccnhv9Lg.s 			page 24


 673 003a F3E7     		b	.L38
 674              		.cfi_endproc
 675              	.LFE155:
 677              		.section	.text.lv_obj_set_pos,"ax",%progbits
 678              		.align	1
 679              		.global	lv_obj_set_pos
 680              		.syntax unified
 681              		.thumb
 682              		.thumb_func
 684              	lv_obj_set_pos:
 685              	.LVL56:
 686              	.LFB153:
  43:Middlewares/lvgl/src/core/lv_obj_pos.c ****     LV_ASSERT_OBJ(obj, MY_CLASS);
 687              		.loc 1 43 1 is_stmt 1 view -0
 688              		.cfi_startproc
 689              		@ args = 0, pretend = 0, frame = 0
 690              		@ frame_needed = 0, uses_anonymous_args = 0
  43:Middlewares/lvgl/src/core/lv_obj_pos.c ****     LV_ASSERT_OBJ(obj, MY_CLASS);
 691              		.loc 1 43 1 is_stmt 0 view .LVU170
 692 0000 38B5     		push	{r3, r4, r5, lr}
 693              	.LCFI20:
 694              		.cfi_def_cfa_offset 16
 695              		.cfi_offset 3, -16
 696              		.cfi_offset 4, -12
 697              		.cfi_offset 5, -8
 698              		.cfi_offset 14, -4
 699 0002 0446     		mov	r4, r0
 700 0004 1546     		mov	r5, r2
  44:Middlewares/lvgl/src/core/lv_obj_pos.c **** 
 701              		.loc 1 44 5 is_stmt 1 view .LVU171
  44:Middlewares/lvgl/src/core/lv_obj_pos.c **** 
 702              		.loc 1 44 5 view .LVU172
  44:Middlewares/lvgl/src/core/lv_obj_pos.c **** 
 703              		.loc 1 44 5 view .LVU173
  46:Middlewares/lvgl/src/core/lv_obj_pos.c ****     lv_obj_set_y(obj, y);
 704              		.loc 1 46 5 view .LVU174
 705 0006 FFF7FEFF 		bl	lv_obj_set_x
 706              	.LVL57:
  47:Middlewares/lvgl/src/core/lv_obj_pos.c **** }
 707              		.loc 1 47 5 view .LVU175
 708 000a 2946     		mov	r1, r5
 709 000c 2046     		mov	r0, r4
 710 000e FFF7FEFF 		bl	lv_obj_set_y
 711              	.LVL58:
  48:Middlewares/lvgl/src/core/lv_obj_pos.c **** 
 712              		.loc 1 48 1 is_stmt 0 view .LVU176
 713 0012 38BD     		pop	{r3, r4, r5, pc}
  48:Middlewares/lvgl/src/core/lv_obj_pos.c **** 
 714              		.loc 1 48 1 view .LVU177
 715              		.cfi_endproc
 716              	.LFE153:
 718              		.section	.text.lv_obj_mark_layout_as_dirty,"ax",%progbits
 719              		.align	1
 720              		.global	lv_obj_mark_layout_as_dirty
 721              		.syntax unified
 722              		.thumb
 723              		.thumb_func
ARM GAS  /tmp/ccnhv9Lg.s 			page 25


 725              	lv_obj_mark_layout_as_dirty:
 726              	.LVL59:
 727              	.LFB164:
 275:Middlewares/lvgl/src/core/lv_obj_pos.c **** 
 276:Middlewares/lvgl/src/core/lv_obj_pos.c **** void lv_obj_mark_layout_as_dirty(lv_obj_t * obj)
 277:Middlewares/lvgl/src/core/lv_obj_pos.c **** {
 728              		.loc 1 277 1 is_stmt 1 view -0
 729              		.cfi_startproc
 730              		@ args = 0, pretend = 0, frame = 0
 731              		@ frame_needed = 0, uses_anonymous_args = 0
 732              		.loc 1 277 1 is_stmt 0 view .LVU179
 733 0000 08B5     		push	{r3, lr}
 734              	.LCFI21:
 735              		.cfi_def_cfa_offset 8
 736              		.cfi_offset 3, -8
 737              		.cfi_offset 14, -4
 278:Middlewares/lvgl/src/core/lv_obj_pos.c ****     obj->layout_inv = 1;
 738              		.loc 1 278 5 is_stmt 1 view .LVU180
 739              		.loc 1 278 21 is_stmt 0 view .LVU181
 740 0002 90F82220 		ldrb	r2, [r0, #34]	@ zero_extendqisi2
 741 0006 42F00102 		orr	r2, r2, #1
 742 000a 80F82220 		strb	r2, [r0, #34]
 279:Middlewares/lvgl/src/core/lv_obj_pos.c **** 
 280:Middlewares/lvgl/src/core/lv_obj_pos.c ****     /*Mark the screen as dirty too to mark that there is an something to do on this screen*/
 281:Middlewares/lvgl/src/core/lv_obj_pos.c ****     lv_obj_t * scr = lv_obj_get_screen(obj);
 743              		.loc 1 281 5 is_stmt 1 view .LVU182
 744              		.loc 1 281 22 is_stmt 0 view .LVU183
 745 000e FFF7FEFF 		bl	lv_obj_get_screen
 746              	.LVL60:
 282:Middlewares/lvgl/src/core/lv_obj_pos.c ****     scr->scr_layout_inv = 1;
 747              		.loc 1 282 5 is_stmt 1 view .LVU184
 748              		.loc 1 282 25 is_stmt 0 view .LVU185
 749 0012 90F82220 		ldrb	r2, [r0, #34]	@ zero_extendqisi2
 750 0016 42F00202 		orr	r2, r2, #2
 751 001a 80F82220 		strb	r2, [r0, #34]
 283:Middlewares/lvgl/src/core/lv_obj_pos.c **** 
 284:Middlewares/lvgl/src/core/lv_obj_pos.c ****     /*Make the display refreshing*/
 285:Middlewares/lvgl/src/core/lv_obj_pos.c ****     lv_disp_t * disp = lv_obj_get_disp(scr);
 752              		.loc 1 285 5 is_stmt 1 view .LVU186
 753              		.loc 1 285 24 is_stmt 0 view .LVU187
 754 001e FFF7FEFF 		bl	lv_obj_get_disp
 755              	.LVL61:
 286:Middlewares/lvgl/src/core/lv_obj_pos.c ****     lv_timer_resume(disp->refr_timer);
 756              		.loc 1 286 5 is_stmt 1 view .LVU188
 757 0022 4068     		ldr	r0, [r0, #4]
 758              	.LVL62:
 759              		.loc 1 286 5 is_stmt 0 view .LVU189
 760 0024 FFF7FEFF 		bl	lv_timer_resume
 761              	.LVL63:
 287:Middlewares/lvgl/src/core/lv_obj_pos.c **** }
 762              		.loc 1 287 1 view .LVU190
 763 0028 08BD     		pop	{r3, pc}
 764              		.cfi_endproc
 765              	.LFE164:
 767              		.section	.text.lv_obj_set_layout,"ax",%progbits
 768              		.align	1
 769              		.global	lv_obj_set_layout
ARM GAS  /tmp/ccnhv9Lg.s 			page 26


 770              		.syntax unified
 771              		.thumb
 772              		.thumb_func
 774              	lv_obj_set_layout:
 775              	.LVL64:
 776              	.LFB162:
 256:Middlewares/lvgl/src/core/lv_obj_pos.c ****     LV_ASSERT_OBJ(obj, MY_CLASS);
 777              		.loc 1 256 1 is_stmt 1 view -0
 778              		.cfi_startproc
 779              		@ args = 0, pretend = 0, frame = 0
 780              		@ frame_needed = 0, uses_anonymous_args = 0
 256:Middlewares/lvgl/src/core/lv_obj_pos.c ****     LV_ASSERT_OBJ(obj, MY_CLASS);
 781              		.loc 1 256 1 is_stmt 0 view .LVU192
 782 0000 10B5     		push	{r4, lr}
 783              	.LCFI22:
 784              		.cfi_def_cfa_offset 8
 785              		.cfi_offset 4, -8
 786              		.cfi_offset 14, -4
 787 0002 0446     		mov	r4, r0
 257:Middlewares/lvgl/src/core/lv_obj_pos.c **** 
 788              		.loc 1 257 5 is_stmt 1 view .LVU193
 257:Middlewares/lvgl/src/core/lv_obj_pos.c **** 
 789              		.loc 1 257 5 view .LVU194
 257:Middlewares/lvgl/src/core/lv_obj_pos.c **** 
 790              		.loc 1 257 5 view .LVU195
 259:Middlewares/lvgl/src/core/lv_obj_pos.c **** 
 791              		.loc 1 259 5 view .LVU196
 792 0004 0022     		movs	r2, #0
 793 0006 89B2     		uxth	r1, r1
 794              	.LVL65:
 259:Middlewares/lvgl/src/core/lv_obj_pos.c **** 
 795              		.loc 1 259 5 is_stmt 0 view .LVU197
 796 0008 FFF7FEFF 		bl	lv_obj_set_style_layout
 797              	.LVL66:
 261:Middlewares/lvgl/src/core/lv_obj_pos.c **** }
 798              		.loc 1 261 5 is_stmt 1 view .LVU198
 799 000c 2046     		mov	r0, r4
 800 000e FFF7FEFF 		bl	lv_obj_mark_layout_as_dirty
 801              	.LVL67:
 262:Middlewares/lvgl/src/core/lv_obj_pos.c **** 
 802              		.loc 1 262 1 is_stmt 0 view .LVU199
 803 0012 10BD     		pop	{r4, pc}
 262:Middlewares/lvgl/src/core/lv_obj_pos.c **** 
 804              		.loc 1 262 1 view .LVU200
 805              		.cfi_endproc
 806              	.LFE162:
 808              		.section	.text.lv_layout_register,"ax",%progbits
 809              		.align	1
 810              		.global	lv_layout_register
 811              		.syntax unified
 812              		.thumb
 813              		.thumb_func
 815              	lv_layout_register:
 816              	.LVL68:
 817              	.LFB166:
 288:Middlewares/lvgl/src/core/lv_obj_pos.c **** 
 289:Middlewares/lvgl/src/core/lv_obj_pos.c **** void lv_obj_update_layout(const lv_obj_t * obj)
ARM GAS  /tmp/ccnhv9Lg.s 			page 27


 290:Middlewares/lvgl/src/core/lv_obj_pos.c **** {
 291:Middlewares/lvgl/src/core/lv_obj_pos.c ****     static bool mutex = false;
 292:Middlewares/lvgl/src/core/lv_obj_pos.c ****     if(mutex) {
 293:Middlewares/lvgl/src/core/lv_obj_pos.c ****         LV_LOG_TRACE("Already running, returning")
 294:Middlewares/lvgl/src/core/lv_obj_pos.c ****         return;
 295:Middlewares/lvgl/src/core/lv_obj_pos.c ****     }
 296:Middlewares/lvgl/src/core/lv_obj_pos.c ****     mutex = true;
 297:Middlewares/lvgl/src/core/lv_obj_pos.c **** 
 298:Middlewares/lvgl/src/core/lv_obj_pos.c ****     lv_obj_t * scr = lv_obj_get_screen(obj);
 299:Middlewares/lvgl/src/core/lv_obj_pos.c **** 
 300:Middlewares/lvgl/src/core/lv_obj_pos.c ****     /*Repeat until there where layout invalidations*/
 301:Middlewares/lvgl/src/core/lv_obj_pos.c ****     while(scr->scr_layout_inv) {
 302:Middlewares/lvgl/src/core/lv_obj_pos.c ****         LV_LOG_INFO("Layout update begin")
 303:Middlewares/lvgl/src/core/lv_obj_pos.c ****         scr->scr_layout_inv = 0;
 304:Middlewares/lvgl/src/core/lv_obj_pos.c ****         layout_update_core(scr);
 305:Middlewares/lvgl/src/core/lv_obj_pos.c ****         LV_LOG_TRACE("Layout update end")
 306:Middlewares/lvgl/src/core/lv_obj_pos.c ****     }
 307:Middlewares/lvgl/src/core/lv_obj_pos.c **** 
 308:Middlewares/lvgl/src/core/lv_obj_pos.c ****     mutex = false;
 309:Middlewares/lvgl/src/core/lv_obj_pos.c **** }
 310:Middlewares/lvgl/src/core/lv_obj_pos.c **** 
 311:Middlewares/lvgl/src/core/lv_obj_pos.c **** uint32_t lv_layout_register(lv_layout_update_cb_t cb, void * user_data)
 312:Middlewares/lvgl/src/core/lv_obj_pos.c **** {
 818              		.loc 1 312 1 is_stmt 1 view -0
 819              		.cfi_startproc
 820              		@ args = 0, pretend = 0, frame = 0
 821              		@ frame_needed = 0, uses_anonymous_args = 0
 822              		.loc 1 312 1 is_stmt 0 view .LVU202
 823 0000 70B5     		push	{r4, r5, r6, lr}
 824              	.LCFI23:
 825              		.cfi_def_cfa_offset 16
 826              		.cfi_offset 4, -16
 827              		.cfi_offset 5, -12
 828              		.cfi_offset 6, -8
 829              		.cfi_offset 14, -4
 830 0002 0546     		mov	r5, r0
 831 0004 0C46     		mov	r4, r1
 313:Middlewares/lvgl/src/core/lv_obj_pos.c ****     layout_cnt++;
 832              		.loc 1 313 5 is_stmt 1 view .LVU203
 833              		.loc 1 313 15 is_stmt 0 view .LVU204
 834 0006 0D4A     		ldr	r2, .L54
 835 0008 1368     		ldr	r3, [r2]
 836 000a 0133     		adds	r3, r3, #1
 837 000c 1360     		str	r3, [r2]
 314:Middlewares/lvgl/src/core/lv_obj_pos.c ****     LV_GC_ROOT(_lv_layout_list) = lv_mem_realloc(LV_GC_ROOT(_lv_layout_list), layout_cnt * sizeof(l
 838              		.loc 1 314 5 is_stmt 1 view .LVU205
 839              		.loc 1 314 35 is_stmt 0 view .LVU206
 840 000e 0C4E     		ldr	r6, .L54+4
 841 0010 D900     		lsls	r1, r3, #3
 842              	.LVL69:
 843              		.loc 1 314 35 view .LVU207
 844 0012 3068     		ldr	r0, [r6]
 845              	.LVL70:
 846              		.loc 1 314 35 view .LVU208
 847 0014 FFF7FEFF 		bl	lv_mem_realloc
 848              	.LVL71:
 849              		.loc 1 314 33 view .LVU209
ARM GAS  /tmp/ccnhv9Lg.s 			page 28


 850 0018 3060     		str	r0, [r6]
 315:Middlewares/lvgl/src/core/lv_obj_pos.c ****     LV_ASSERT_MALLOC(LV_GC_ROOT(_lv_layout_list));
 851              		.loc 1 315 5 is_stmt 1 view .LVU210
 852              		.loc 1 315 5 view .LVU211
 853 001a 68B1     		cbz	r0, .L52
 854 001c 0346     		mov	r3, r0
 855              		.loc 1 315 5 discriminator 2 view .LVU212
 856              		.loc 1 315 50 discriminator 2 view .LVU213
 316:Middlewares/lvgl/src/core/lv_obj_pos.c **** 
 317:Middlewares/lvgl/src/core/lv_obj_pos.c ****     LV_GC_ROOT(_lv_layout_list)[layout_cnt - 1].cb = cb;
 857              		.loc 1 317 5 discriminator 2 view .LVU214
 858              		.loc 1 317 32 is_stmt 0 discriminator 2 view .LVU215
 859 001e 074A     		ldr	r2, .L54
 860 0020 1068     		ldr	r0, [r2]
 861 0022 6FF06042 		mvn	r2, #-536870912
 862 0026 0244     		add	r2, r2, r0
 863              		.loc 1 317 52 discriminator 2 view .LVU216
 864 0028 43F83250 		str	r5, [r3, r2, lsl #3]
 318:Middlewares/lvgl/src/core/lv_obj_pos.c ****     LV_GC_ROOT(_lv_layout_list)[layout_cnt - 1].user_data = user_data;
 865              		.loc 1 318 5 is_stmt 1 discriminator 2 view .LVU217
 866              		.loc 1 318 32 is_stmt 0 discriminator 2 view .LVU218
 867 002c 044B     		ldr	r3, .L54+4
 868 002e 1B68     		ldr	r3, [r3]
 869 0030 03EBC202 		add	r2, r3, r2, lsl #3
 870              		.loc 1 318 59 discriminator 2 view .LVU219
 871 0034 5460     		str	r4, [r2, #4]
 319:Middlewares/lvgl/src/core/lv_obj_pos.c ****     return layout_cnt;  /*No -1 to skip 0th index*/
 872              		.loc 1 319 5 is_stmt 1 discriminator 2 view .LVU220
 320:Middlewares/lvgl/src/core/lv_obj_pos.c **** }
 873              		.loc 1 320 1 is_stmt 0 discriminator 2 view .LVU221
 874 0036 70BD     		pop	{r4, r5, r6, pc}
 875              	.LVL72:
 876              	.L52:
 315:Middlewares/lvgl/src/core/lv_obj_pos.c **** 
 877              		.loc 1 315 5 is_stmt 1 discriminator 1 view .LVU222
 315:Middlewares/lvgl/src/core/lv_obj_pos.c **** 
 878              		.loc 1 315 5 discriminator 1 view .LVU223
 315:Middlewares/lvgl/src/core/lv_obj_pos.c **** 
 879              		.loc 1 315 5 discriminator 1 view .LVU224
 315:Middlewares/lvgl/src/core/lv_obj_pos.c **** 
 880              		.loc 1 315 5 discriminator 1 view .LVU225
 881 0038 FEE7     		b	.L52
 882              	.L55:
 883 003a 00BF     		.align	2
 884              	.L54:
 885 003c 00000000 		.word	.LANCHOR0
 886 0040 00000000 		.word	_lv_layout_list
 887              		.cfi_endproc
 888              	.LFE166:
 890              		.section	.text.lv_obj_set_align,"ax",%progbits
 891              		.align	1
 892              		.global	lv_obj_set_align
 893              		.syntax unified
 894              		.thumb
 895              		.thumb_func
 897              	lv_obj_set_align:
 898              	.LVL73:
ARM GAS  /tmp/ccnhv9Lg.s 			page 29


 899              	.LFB167:
 321:Middlewares/lvgl/src/core/lv_obj_pos.c **** 
 322:Middlewares/lvgl/src/core/lv_obj_pos.c **** void lv_obj_set_align(lv_obj_t * obj, lv_align_t align)
 323:Middlewares/lvgl/src/core/lv_obj_pos.c **** {
 900              		.loc 1 323 1 view -0
 901              		.cfi_startproc
 902              		@ args = 0, pretend = 0, frame = 0
 903              		@ frame_needed = 0, uses_anonymous_args = 0
 904              		.loc 1 323 1 is_stmt 0 view .LVU227
 905 0000 08B5     		push	{r3, lr}
 906              	.LCFI24:
 907              		.cfi_def_cfa_offset 8
 908              		.cfi_offset 3, -8
 909              		.cfi_offset 14, -4
 324:Middlewares/lvgl/src/core/lv_obj_pos.c ****     lv_obj_set_style_align(obj, align, 0);
 910              		.loc 1 324 5 is_stmt 1 view .LVU228
 911 0002 0022     		movs	r2, #0
 912 0004 FFF7FEFF 		bl	lv_obj_set_style_align
 913              	.LVL74:
 325:Middlewares/lvgl/src/core/lv_obj_pos.c **** }
 914              		.loc 1 325 1 is_stmt 0 view .LVU229
 915 0008 08BD     		pop	{r3, pc}
 916              		.cfi_endproc
 917              	.LFE167:
 919              		.section	.text.lv_obj_align,"ax",%progbits
 920              		.align	1
 921              		.global	lv_obj_align
 922              		.syntax unified
 923              		.thumb
 924              		.thumb_func
 926              	lv_obj_align:
 927              	.LVL75:
 928              	.LFB168:
 326:Middlewares/lvgl/src/core/lv_obj_pos.c **** 
 327:Middlewares/lvgl/src/core/lv_obj_pos.c **** void lv_obj_align(lv_obj_t * obj, lv_align_t align, lv_coord_t x_ofs, lv_coord_t y_ofs)
 328:Middlewares/lvgl/src/core/lv_obj_pos.c **** {
 929              		.loc 1 328 1 is_stmt 1 view -0
 930              		.cfi_startproc
 931              		@ args = 0, pretend = 0, frame = 0
 932              		@ frame_needed = 0, uses_anonymous_args = 0
 933              		.loc 1 328 1 is_stmt 0 view .LVU231
 934 0000 70B5     		push	{r4, r5, r6, lr}
 935              	.LCFI25:
 936              		.cfi_def_cfa_offset 16
 937              		.cfi_offset 4, -16
 938              		.cfi_offset 5, -12
 939              		.cfi_offset 6, -8
 940              		.cfi_offset 14, -4
 941 0002 0446     		mov	r4, r0
 942 0004 1546     		mov	r5, r2
 943 0006 1E46     		mov	r6, r3
 329:Middlewares/lvgl/src/core/lv_obj_pos.c ****     lv_obj_set_style_align(obj, align, 0);
 944              		.loc 1 329 5 is_stmt 1 view .LVU232
 945 0008 0022     		movs	r2, #0
 946              	.LVL76:
 947              		.loc 1 329 5 is_stmt 0 view .LVU233
 948 000a FFF7FEFF 		bl	lv_obj_set_style_align
ARM GAS  /tmp/ccnhv9Lg.s 			page 30


 949              	.LVL77:
 330:Middlewares/lvgl/src/core/lv_obj_pos.c ****     lv_obj_set_pos(obj, x_ofs, y_ofs);
 950              		.loc 1 330 5 is_stmt 1 view .LVU234
 951 000e 3246     		mov	r2, r6
 952 0010 2946     		mov	r1, r5
 953 0012 2046     		mov	r0, r4
 954 0014 FFF7FEFF 		bl	lv_obj_set_pos
 955              	.LVL78:
 331:Middlewares/lvgl/src/core/lv_obj_pos.c **** }
 956              		.loc 1 331 1 is_stmt 0 view .LVU235
 957 0018 70BD     		pop	{r4, r5, r6, pc}
 958              		.loc 1 331 1 view .LVU236
 959              		.cfi_endproc
 960              	.LFE168:
 962              		.section	.text.lv_obj_get_coords,"ax",%progbits
 963              		.align	1
 964              		.global	lv_obj_get_coords
 965              		.syntax unified
 966              		.thumb
 967              		.thumb_func
 969              	lv_obj_get_coords:
 970              	.LVL79:
 971              	.LFB170:
 332:Middlewares/lvgl/src/core/lv_obj_pos.c **** 
 333:Middlewares/lvgl/src/core/lv_obj_pos.c **** void lv_obj_align_to(lv_obj_t * obj, const lv_obj_t * base, lv_align_t align, lv_coord_t x_ofs, lv_
 334:Middlewares/lvgl/src/core/lv_obj_pos.c **** {
 335:Middlewares/lvgl/src/core/lv_obj_pos.c ****     LV_ASSERT_OBJ(obj, MY_CLASS);
 336:Middlewares/lvgl/src/core/lv_obj_pos.c **** 
 337:Middlewares/lvgl/src/core/lv_obj_pos.c ****     lv_obj_update_layout(obj);
 338:Middlewares/lvgl/src/core/lv_obj_pos.c ****     if(base == NULL) base = lv_obj_get_parent(obj);
 339:Middlewares/lvgl/src/core/lv_obj_pos.c **** 
 340:Middlewares/lvgl/src/core/lv_obj_pos.c ****     LV_ASSERT_OBJ(base, MY_CLASS);
 341:Middlewares/lvgl/src/core/lv_obj_pos.c **** 
 342:Middlewares/lvgl/src/core/lv_obj_pos.c ****     lv_coord_t x = 0;
 343:Middlewares/lvgl/src/core/lv_obj_pos.c ****     lv_coord_t y = 0;
 344:Middlewares/lvgl/src/core/lv_obj_pos.c **** 
 345:Middlewares/lvgl/src/core/lv_obj_pos.c ****     lv_obj_t * parent = lv_obj_get_parent(obj);
 346:Middlewares/lvgl/src/core/lv_obj_pos.c ****     lv_coord_t pborder = lv_obj_get_style_border_width(parent, LV_PART_MAIN);
 347:Middlewares/lvgl/src/core/lv_obj_pos.c ****     lv_coord_t pleft = lv_obj_get_style_pad_left(parent, LV_PART_MAIN) + pborder;
 348:Middlewares/lvgl/src/core/lv_obj_pos.c ****     lv_coord_t ptop = lv_obj_get_style_pad_top(parent, LV_PART_MAIN) + pborder;
 349:Middlewares/lvgl/src/core/lv_obj_pos.c **** 
 350:Middlewares/lvgl/src/core/lv_obj_pos.c ****     lv_coord_t bborder = lv_obj_get_style_border_width(base, LV_PART_MAIN);
 351:Middlewares/lvgl/src/core/lv_obj_pos.c ****     lv_coord_t bleft = lv_obj_get_style_pad_left(base, LV_PART_MAIN) + bborder;
 352:Middlewares/lvgl/src/core/lv_obj_pos.c ****     lv_coord_t btop = lv_obj_get_style_pad_top(base, LV_PART_MAIN) + bborder;
 353:Middlewares/lvgl/src/core/lv_obj_pos.c **** 
 354:Middlewares/lvgl/src/core/lv_obj_pos.c ****     if(align == LV_ALIGN_DEFAULT) {
 355:Middlewares/lvgl/src/core/lv_obj_pos.c ****         if(lv_obj_get_style_base_dir(base, LV_PART_MAIN) == LV_BASE_DIR_RTL) align = LV_ALIGN_TOP_R
 356:Middlewares/lvgl/src/core/lv_obj_pos.c ****         else align = LV_ALIGN_TOP_LEFT;
 357:Middlewares/lvgl/src/core/lv_obj_pos.c ****     }
 358:Middlewares/lvgl/src/core/lv_obj_pos.c **** 
 359:Middlewares/lvgl/src/core/lv_obj_pos.c ****     switch(align) {
 360:Middlewares/lvgl/src/core/lv_obj_pos.c ****     case LV_ALIGN_CENTER:
 361:Middlewares/lvgl/src/core/lv_obj_pos.c ****         x = lv_obj_get_content_width(base) / 2 - lv_obj_get_width(obj) / 2 + bleft;
 362:Middlewares/lvgl/src/core/lv_obj_pos.c ****         y = lv_obj_get_content_height(base) / 2 - lv_obj_get_height(obj) / 2 + btop;
 363:Middlewares/lvgl/src/core/lv_obj_pos.c ****         break;
 364:Middlewares/lvgl/src/core/lv_obj_pos.c ****     case LV_ALIGN_TOP_LEFT:
 365:Middlewares/lvgl/src/core/lv_obj_pos.c ****         x = bleft;
ARM GAS  /tmp/ccnhv9Lg.s 			page 31


 366:Middlewares/lvgl/src/core/lv_obj_pos.c ****         y = btop;
 367:Middlewares/lvgl/src/core/lv_obj_pos.c ****         break;
 368:Middlewares/lvgl/src/core/lv_obj_pos.c ****     case LV_ALIGN_TOP_MID:
 369:Middlewares/lvgl/src/core/lv_obj_pos.c ****         x = lv_obj_get_content_width(base) / 2 - lv_obj_get_width(obj) / 2 + bleft;
 370:Middlewares/lvgl/src/core/lv_obj_pos.c ****         y = btop;
 371:Middlewares/lvgl/src/core/lv_obj_pos.c ****         break;
 372:Middlewares/lvgl/src/core/lv_obj_pos.c **** 
 373:Middlewares/lvgl/src/core/lv_obj_pos.c ****     case LV_ALIGN_TOP_RIGHT:
 374:Middlewares/lvgl/src/core/lv_obj_pos.c ****         x = lv_obj_get_content_width(base) - lv_obj_get_width(obj) + bleft;
 375:Middlewares/lvgl/src/core/lv_obj_pos.c ****         y = btop;
 376:Middlewares/lvgl/src/core/lv_obj_pos.c ****         break;
 377:Middlewares/lvgl/src/core/lv_obj_pos.c **** 
 378:Middlewares/lvgl/src/core/lv_obj_pos.c ****     case LV_ALIGN_BOTTOM_LEFT:
 379:Middlewares/lvgl/src/core/lv_obj_pos.c ****         x = bleft;
 380:Middlewares/lvgl/src/core/lv_obj_pos.c ****         y = lv_obj_get_content_height(base) - lv_obj_get_height(obj) + btop;
 381:Middlewares/lvgl/src/core/lv_obj_pos.c ****         break;
 382:Middlewares/lvgl/src/core/lv_obj_pos.c ****     case LV_ALIGN_BOTTOM_MID:
 383:Middlewares/lvgl/src/core/lv_obj_pos.c ****         x = lv_obj_get_content_width(base) / 2 - lv_obj_get_width(obj) / 2 + bleft;
 384:Middlewares/lvgl/src/core/lv_obj_pos.c ****         y = lv_obj_get_content_height(base) - lv_obj_get_height(obj) + btop;
 385:Middlewares/lvgl/src/core/lv_obj_pos.c ****         break;
 386:Middlewares/lvgl/src/core/lv_obj_pos.c **** 
 387:Middlewares/lvgl/src/core/lv_obj_pos.c ****     case LV_ALIGN_BOTTOM_RIGHT:
 388:Middlewares/lvgl/src/core/lv_obj_pos.c ****         x = lv_obj_get_content_width(base) - lv_obj_get_width(obj) + bleft;
 389:Middlewares/lvgl/src/core/lv_obj_pos.c ****         y = lv_obj_get_content_height(base) - lv_obj_get_height(obj) + btop;
 390:Middlewares/lvgl/src/core/lv_obj_pos.c ****         break;
 391:Middlewares/lvgl/src/core/lv_obj_pos.c **** 
 392:Middlewares/lvgl/src/core/lv_obj_pos.c ****     case LV_ALIGN_LEFT_MID:
 393:Middlewares/lvgl/src/core/lv_obj_pos.c ****         x = bleft;
 394:Middlewares/lvgl/src/core/lv_obj_pos.c ****         y = lv_obj_get_content_height(base) / 2 - lv_obj_get_height(obj) / 2 + btop;
 395:Middlewares/lvgl/src/core/lv_obj_pos.c ****         break;
 396:Middlewares/lvgl/src/core/lv_obj_pos.c **** 
 397:Middlewares/lvgl/src/core/lv_obj_pos.c ****     case LV_ALIGN_RIGHT_MID:
 398:Middlewares/lvgl/src/core/lv_obj_pos.c ****         x = lv_obj_get_content_width(base) - lv_obj_get_width(obj) + bleft;
 399:Middlewares/lvgl/src/core/lv_obj_pos.c ****         y = lv_obj_get_content_height(base) / 2 - lv_obj_get_height(obj) / 2 + btop;
 400:Middlewares/lvgl/src/core/lv_obj_pos.c ****         break;
 401:Middlewares/lvgl/src/core/lv_obj_pos.c **** 
 402:Middlewares/lvgl/src/core/lv_obj_pos.c ****     case LV_ALIGN_OUT_TOP_LEFT:
 403:Middlewares/lvgl/src/core/lv_obj_pos.c ****         x = 0;
 404:Middlewares/lvgl/src/core/lv_obj_pos.c ****         y = -lv_obj_get_height(obj);
 405:Middlewares/lvgl/src/core/lv_obj_pos.c ****         break;
 406:Middlewares/lvgl/src/core/lv_obj_pos.c **** 
 407:Middlewares/lvgl/src/core/lv_obj_pos.c ****     case LV_ALIGN_OUT_TOP_MID:
 408:Middlewares/lvgl/src/core/lv_obj_pos.c ****         x = lv_obj_get_width(base) / 2 - lv_obj_get_width(obj) / 2;
 409:Middlewares/lvgl/src/core/lv_obj_pos.c ****         y = -lv_obj_get_height(obj);
 410:Middlewares/lvgl/src/core/lv_obj_pos.c ****         break;
 411:Middlewares/lvgl/src/core/lv_obj_pos.c **** 
 412:Middlewares/lvgl/src/core/lv_obj_pos.c ****     case LV_ALIGN_OUT_TOP_RIGHT:
 413:Middlewares/lvgl/src/core/lv_obj_pos.c ****         x = lv_obj_get_width(base) - lv_obj_get_width(obj);
 414:Middlewares/lvgl/src/core/lv_obj_pos.c ****         y = -lv_obj_get_height(obj);
 415:Middlewares/lvgl/src/core/lv_obj_pos.c ****         break;
 416:Middlewares/lvgl/src/core/lv_obj_pos.c **** 
 417:Middlewares/lvgl/src/core/lv_obj_pos.c ****     case LV_ALIGN_OUT_BOTTOM_LEFT:
 418:Middlewares/lvgl/src/core/lv_obj_pos.c ****         x = 0;
 419:Middlewares/lvgl/src/core/lv_obj_pos.c ****         y = lv_obj_get_height(base);
 420:Middlewares/lvgl/src/core/lv_obj_pos.c ****         break;
 421:Middlewares/lvgl/src/core/lv_obj_pos.c **** 
 422:Middlewares/lvgl/src/core/lv_obj_pos.c ****     case LV_ALIGN_OUT_BOTTOM_MID:
ARM GAS  /tmp/ccnhv9Lg.s 			page 32


 423:Middlewares/lvgl/src/core/lv_obj_pos.c ****         x = lv_obj_get_width(base) / 2 - lv_obj_get_width(obj) / 2;
 424:Middlewares/lvgl/src/core/lv_obj_pos.c ****         y = lv_obj_get_height(base);
 425:Middlewares/lvgl/src/core/lv_obj_pos.c ****         break;
 426:Middlewares/lvgl/src/core/lv_obj_pos.c **** 
 427:Middlewares/lvgl/src/core/lv_obj_pos.c ****     case LV_ALIGN_OUT_BOTTOM_RIGHT:
 428:Middlewares/lvgl/src/core/lv_obj_pos.c ****         x = lv_obj_get_width(base) - lv_obj_get_width(obj);
 429:Middlewares/lvgl/src/core/lv_obj_pos.c ****         y = lv_obj_get_height(base);
 430:Middlewares/lvgl/src/core/lv_obj_pos.c ****         break;
 431:Middlewares/lvgl/src/core/lv_obj_pos.c **** 
 432:Middlewares/lvgl/src/core/lv_obj_pos.c ****     case LV_ALIGN_OUT_LEFT_TOP:
 433:Middlewares/lvgl/src/core/lv_obj_pos.c ****         x = -lv_obj_get_width(obj);
 434:Middlewares/lvgl/src/core/lv_obj_pos.c ****         y = 0;
 435:Middlewares/lvgl/src/core/lv_obj_pos.c ****         break;
 436:Middlewares/lvgl/src/core/lv_obj_pos.c **** 
 437:Middlewares/lvgl/src/core/lv_obj_pos.c ****     case LV_ALIGN_OUT_LEFT_MID:
 438:Middlewares/lvgl/src/core/lv_obj_pos.c ****         x = -lv_obj_get_width(obj);
 439:Middlewares/lvgl/src/core/lv_obj_pos.c ****         y = lv_obj_get_height(base) / 2 - lv_obj_get_height(obj) / 2;
 440:Middlewares/lvgl/src/core/lv_obj_pos.c ****         break;
 441:Middlewares/lvgl/src/core/lv_obj_pos.c **** 
 442:Middlewares/lvgl/src/core/lv_obj_pos.c ****     case LV_ALIGN_OUT_LEFT_BOTTOM:
 443:Middlewares/lvgl/src/core/lv_obj_pos.c ****         x = -lv_obj_get_width(obj);
 444:Middlewares/lvgl/src/core/lv_obj_pos.c ****         y = lv_obj_get_height(base) - lv_obj_get_height(obj);
 445:Middlewares/lvgl/src/core/lv_obj_pos.c ****         break;
 446:Middlewares/lvgl/src/core/lv_obj_pos.c **** 
 447:Middlewares/lvgl/src/core/lv_obj_pos.c ****     case LV_ALIGN_OUT_RIGHT_TOP:
 448:Middlewares/lvgl/src/core/lv_obj_pos.c ****         x = lv_obj_get_width(base);
 449:Middlewares/lvgl/src/core/lv_obj_pos.c ****         y = 0;
 450:Middlewares/lvgl/src/core/lv_obj_pos.c ****         break;
 451:Middlewares/lvgl/src/core/lv_obj_pos.c **** 
 452:Middlewares/lvgl/src/core/lv_obj_pos.c ****     case LV_ALIGN_OUT_RIGHT_MID:
 453:Middlewares/lvgl/src/core/lv_obj_pos.c ****         x = lv_obj_get_width(base);
 454:Middlewares/lvgl/src/core/lv_obj_pos.c ****         y = lv_obj_get_height(base) / 2 - lv_obj_get_height(obj) / 2;
 455:Middlewares/lvgl/src/core/lv_obj_pos.c ****         break;
 456:Middlewares/lvgl/src/core/lv_obj_pos.c **** 
 457:Middlewares/lvgl/src/core/lv_obj_pos.c ****     case LV_ALIGN_OUT_RIGHT_BOTTOM:
 458:Middlewares/lvgl/src/core/lv_obj_pos.c ****         x = lv_obj_get_width(base);
 459:Middlewares/lvgl/src/core/lv_obj_pos.c ****         y = lv_obj_get_height(base) - lv_obj_get_height(obj);
 460:Middlewares/lvgl/src/core/lv_obj_pos.c ****         break;
 461:Middlewares/lvgl/src/core/lv_obj_pos.c ****     }
 462:Middlewares/lvgl/src/core/lv_obj_pos.c **** 
 463:Middlewares/lvgl/src/core/lv_obj_pos.c ****     x += x_ofs + base->coords.x1 - parent->coords.x1 + lv_obj_get_scroll_left(parent) - pleft;
 464:Middlewares/lvgl/src/core/lv_obj_pos.c ****     y += y_ofs + base->coords.y1 - parent->coords.y1 + lv_obj_get_scroll_top(parent) - ptop;
 465:Middlewares/lvgl/src/core/lv_obj_pos.c ****     lv_obj_set_style_align(obj, LV_ALIGN_TOP_LEFT, 0);
 466:Middlewares/lvgl/src/core/lv_obj_pos.c ****     lv_obj_set_pos(obj, x, y);
 467:Middlewares/lvgl/src/core/lv_obj_pos.c **** 
 468:Middlewares/lvgl/src/core/lv_obj_pos.c **** }
 469:Middlewares/lvgl/src/core/lv_obj_pos.c **** 
 470:Middlewares/lvgl/src/core/lv_obj_pos.c **** void lv_obj_get_coords(const lv_obj_t * obj, lv_area_t * coords)
 471:Middlewares/lvgl/src/core/lv_obj_pos.c **** {
 972              		.loc 1 471 1 is_stmt 1 view -0
 973              		.cfi_startproc
 974              		@ args = 0, pretend = 0, frame = 0
 975              		@ frame_needed = 0, uses_anonymous_args = 0
 976              		@ link register save eliminated.
 472:Middlewares/lvgl/src/core/lv_obj_pos.c ****     LV_ASSERT_OBJ(obj, MY_CLASS);
 977              		.loc 1 472 5 view .LVU238
 978              		.loc 1 472 5 view .LVU239
ARM GAS  /tmp/ccnhv9Lg.s 			page 33


 979              		.loc 1 472 5 view .LVU240
 473:Middlewares/lvgl/src/core/lv_obj_pos.c **** 
 474:Middlewares/lvgl/src/core/lv_obj_pos.c ****     lv_area_copy(coords, &obj->coords);
 980              		.loc 1 474 5 view .LVU241
 981              	.LBB135:
 982              	.LBI135:
 983              		.file 3 "Middlewares/lvgl/src/core/../misc/../font/../misc/lv_area.h"
   1:Middlewares/lvgl/src/core/../misc/../font/../misc/lv_area.h **** /**
   2:Middlewares/lvgl/src/core/../misc/../font/../misc/lv_area.h ****  * @file lv_area.h
   3:Middlewares/lvgl/src/core/../misc/../font/../misc/lv_area.h ****  *
   4:Middlewares/lvgl/src/core/../misc/../font/../misc/lv_area.h ****  */
   5:Middlewares/lvgl/src/core/../misc/../font/../misc/lv_area.h **** 
   6:Middlewares/lvgl/src/core/../misc/../font/../misc/lv_area.h **** #ifndef LV_AREA_H
   7:Middlewares/lvgl/src/core/../misc/../font/../misc/lv_area.h **** #define LV_AREA_H
   8:Middlewares/lvgl/src/core/../misc/../font/../misc/lv_area.h **** 
   9:Middlewares/lvgl/src/core/../misc/../font/../misc/lv_area.h **** #ifdef __cplusplus
  10:Middlewares/lvgl/src/core/../misc/../font/../misc/lv_area.h **** extern "C" {
  11:Middlewares/lvgl/src/core/../misc/../font/../misc/lv_area.h **** #endif
  12:Middlewares/lvgl/src/core/../misc/../font/../misc/lv_area.h **** 
  13:Middlewares/lvgl/src/core/../misc/../font/../misc/lv_area.h **** /*********************
  14:Middlewares/lvgl/src/core/../misc/../font/../misc/lv_area.h ****  *      INCLUDES
  15:Middlewares/lvgl/src/core/../misc/../font/../misc/lv_area.h ****  *********************/
  16:Middlewares/lvgl/src/core/../misc/../font/../misc/lv_area.h **** #include "../lv_conf_internal.h"
  17:Middlewares/lvgl/src/core/../misc/../font/../misc/lv_area.h **** #include <string.h>
  18:Middlewares/lvgl/src/core/../misc/../font/../misc/lv_area.h **** #include <stdbool.h>
  19:Middlewares/lvgl/src/core/../misc/../font/../misc/lv_area.h **** #include <stdint.h>
  20:Middlewares/lvgl/src/core/../misc/../font/../misc/lv_area.h **** 
  21:Middlewares/lvgl/src/core/../misc/../font/../misc/lv_area.h **** /*********************
  22:Middlewares/lvgl/src/core/../misc/../font/../misc/lv_area.h ****  *      DEFINES
  23:Middlewares/lvgl/src/core/../misc/../font/../misc/lv_area.h ****  *********************/
  24:Middlewares/lvgl/src/core/../misc/../font/../misc/lv_area.h **** 
  25:Middlewares/lvgl/src/core/../misc/../font/../misc/lv_area.h **** #define _LV_COORD_MAX_REDUCE    8192
  26:Middlewares/lvgl/src/core/../misc/../font/../misc/lv_area.h **** 
  27:Middlewares/lvgl/src/core/../misc/../font/../misc/lv_area.h **** #if LV_USE_LARGE_COORD
  28:Middlewares/lvgl/src/core/../misc/../font/../misc/lv_area.h **** typedef int32_t lv_coord_t;
  29:Middlewares/lvgl/src/core/../misc/../font/../misc/lv_area.h **** #else
  30:Middlewares/lvgl/src/core/../misc/../font/../misc/lv_area.h **** typedef int16_t lv_coord_t;
  31:Middlewares/lvgl/src/core/../misc/../font/../misc/lv_area.h **** #endif
  32:Middlewares/lvgl/src/core/../misc/../font/../misc/lv_area.h **** 
  33:Middlewares/lvgl/src/core/../misc/../font/../misc/lv_area.h **** /*To allow some special values in the end reduce the max value*/
  34:Middlewares/lvgl/src/core/../misc/../font/../misc/lv_area.h **** #define LV_COORD_MAX ((lv_coord_t)((uint32_t)((uint32_t)1 << (8 * sizeof(lv_coord_t) - 1)) - _LV_CO
  35:Middlewares/lvgl/src/core/../misc/../font/../misc/lv_area.h **** #define LV_COORD_MIN (-LV_COORD_MAX)
  36:Middlewares/lvgl/src/core/../misc/../font/../misc/lv_area.h **** 
  37:Middlewares/lvgl/src/core/../misc/../font/../misc/lv_area.h **** LV_EXPORT_CONST_INT(LV_COORD_MAX);
  38:Middlewares/lvgl/src/core/../misc/../font/../misc/lv_area.h **** LV_EXPORT_CONST_INT(LV_COORD_MIN);
  39:Middlewares/lvgl/src/core/../misc/../font/../misc/lv_area.h **** 
  40:Middlewares/lvgl/src/core/../misc/../font/../misc/lv_area.h **** /**********************
  41:Middlewares/lvgl/src/core/../misc/../font/../misc/lv_area.h ****  *      TYPEDEFS
  42:Middlewares/lvgl/src/core/../misc/../font/../misc/lv_area.h ****  **********************/
  43:Middlewares/lvgl/src/core/../misc/../font/../misc/lv_area.h **** 
  44:Middlewares/lvgl/src/core/../misc/../font/../misc/lv_area.h **** /**
  45:Middlewares/lvgl/src/core/../misc/../font/../misc/lv_area.h ****  * Represents a point on the screen.
  46:Middlewares/lvgl/src/core/../misc/../font/../misc/lv_area.h ****  */
  47:Middlewares/lvgl/src/core/../misc/../font/../misc/lv_area.h **** typedef struct {
  48:Middlewares/lvgl/src/core/../misc/../font/../misc/lv_area.h ****     lv_coord_t x;
  49:Middlewares/lvgl/src/core/../misc/../font/../misc/lv_area.h ****     lv_coord_t y;
  50:Middlewares/lvgl/src/core/../misc/../font/../misc/lv_area.h **** } lv_point_t;
ARM GAS  /tmp/ccnhv9Lg.s 			page 34


  51:Middlewares/lvgl/src/core/../misc/../font/../misc/lv_area.h **** 
  52:Middlewares/lvgl/src/core/../misc/../font/../misc/lv_area.h **** /** Represents an area of the screen.*/
  53:Middlewares/lvgl/src/core/../misc/../font/../misc/lv_area.h **** typedef struct {
  54:Middlewares/lvgl/src/core/../misc/../font/../misc/lv_area.h ****     lv_coord_t x1;
  55:Middlewares/lvgl/src/core/../misc/../font/../misc/lv_area.h ****     lv_coord_t y1;
  56:Middlewares/lvgl/src/core/../misc/../font/../misc/lv_area.h ****     lv_coord_t x2;
  57:Middlewares/lvgl/src/core/../misc/../font/../misc/lv_area.h ****     lv_coord_t y2;
  58:Middlewares/lvgl/src/core/../misc/../font/../misc/lv_area.h **** } lv_area_t;
  59:Middlewares/lvgl/src/core/../misc/../font/../misc/lv_area.h **** 
  60:Middlewares/lvgl/src/core/../misc/../font/../misc/lv_area.h **** /** Alignments*/
  61:Middlewares/lvgl/src/core/../misc/../font/../misc/lv_area.h **** enum {
  62:Middlewares/lvgl/src/core/../misc/../font/../misc/lv_area.h ****     LV_ALIGN_DEFAULT = 0,
  63:Middlewares/lvgl/src/core/../misc/../font/../misc/lv_area.h ****     LV_ALIGN_TOP_LEFT,
  64:Middlewares/lvgl/src/core/../misc/../font/../misc/lv_area.h ****     LV_ALIGN_TOP_MID,
  65:Middlewares/lvgl/src/core/../misc/../font/../misc/lv_area.h ****     LV_ALIGN_TOP_RIGHT,
  66:Middlewares/lvgl/src/core/../misc/../font/../misc/lv_area.h ****     LV_ALIGN_BOTTOM_LEFT,
  67:Middlewares/lvgl/src/core/../misc/../font/../misc/lv_area.h ****     LV_ALIGN_BOTTOM_MID,
  68:Middlewares/lvgl/src/core/../misc/../font/../misc/lv_area.h ****     LV_ALIGN_BOTTOM_RIGHT,
  69:Middlewares/lvgl/src/core/../misc/../font/../misc/lv_area.h ****     LV_ALIGN_LEFT_MID,
  70:Middlewares/lvgl/src/core/../misc/../font/../misc/lv_area.h ****     LV_ALIGN_RIGHT_MID,
  71:Middlewares/lvgl/src/core/../misc/../font/../misc/lv_area.h ****     LV_ALIGN_CENTER,
  72:Middlewares/lvgl/src/core/../misc/../font/../misc/lv_area.h **** 
  73:Middlewares/lvgl/src/core/../misc/../font/../misc/lv_area.h ****     LV_ALIGN_OUT_TOP_LEFT,
  74:Middlewares/lvgl/src/core/../misc/../font/../misc/lv_area.h ****     LV_ALIGN_OUT_TOP_MID,
  75:Middlewares/lvgl/src/core/../misc/../font/../misc/lv_area.h ****     LV_ALIGN_OUT_TOP_RIGHT,
  76:Middlewares/lvgl/src/core/../misc/../font/../misc/lv_area.h ****     LV_ALIGN_OUT_BOTTOM_LEFT,
  77:Middlewares/lvgl/src/core/../misc/../font/../misc/lv_area.h ****     LV_ALIGN_OUT_BOTTOM_MID,
  78:Middlewares/lvgl/src/core/../misc/../font/../misc/lv_area.h ****     LV_ALIGN_OUT_BOTTOM_RIGHT,
  79:Middlewares/lvgl/src/core/../misc/../font/../misc/lv_area.h ****     LV_ALIGN_OUT_LEFT_TOP,
  80:Middlewares/lvgl/src/core/../misc/../font/../misc/lv_area.h ****     LV_ALIGN_OUT_LEFT_MID,
  81:Middlewares/lvgl/src/core/../misc/../font/../misc/lv_area.h ****     LV_ALIGN_OUT_LEFT_BOTTOM,
  82:Middlewares/lvgl/src/core/../misc/../font/../misc/lv_area.h ****     LV_ALIGN_OUT_RIGHT_TOP,
  83:Middlewares/lvgl/src/core/../misc/../font/../misc/lv_area.h ****     LV_ALIGN_OUT_RIGHT_MID,
  84:Middlewares/lvgl/src/core/../misc/../font/../misc/lv_area.h ****     LV_ALIGN_OUT_RIGHT_BOTTOM,
  85:Middlewares/lvgl/src/core/../misc/../font/../misc/lv_area.h **** };
  86:Middlewares/lvgl/src/core/../misc/../font/../misc/lv_area.h **** typedef uint8_t lv_align_t;
  87:Middlewares/lvgl/src/core/../misc/../font/../misc/lv_area.h **** 
  88:Middlewares/lvgl/src/core/../misc/../font/../misc/lv_area.h **** enum {
  89:Middlewares/lvgl/src/core/../misc/../font/../misc/lv_area.h ****     LV_DIR_NONE     = 0x00,
  90:Middlewares/lvgl/src/core/../misc/../font/../misc/lv_area.h ****     LV_DIR_LEFT     = (1 << 0),
  91:Middlewares/lvgl/src/core/../misc/../font/../misc/lv_area.h ****     LV_DIR_RIGHT    = (1 << 1),
  92:Middlewares/lvgl/src/core/../misc/../font/../misc/lv_area.h ****     LV_DIR_TOP      = (1 << 2),
  93:Middlewares/lvgl/src/core/../misc/../font/../misc/lv_area.h ****     LV_DIR_BOTTOM   = (1 << 3),
  94:Middlewares/lvgl/src/core/../misc/../font/../misc/lv_area.h ****     LV_DIR_HOR      = LV_DIR_LEFT | LV_DIR_RIGHT,
  95:Middlewares/lvgl/src/core/../misc/../font/../misc/lv_area.h ****     LV_DIR_VER      = LV_DIR_TOP | LV_DIR_BOTTOM,
  96:Middlewares/lvgl/src/core/../misc/../font/../misc/lv_area.h ****     LV_DIR_ALL      = LV_DIR_HOR | LV_DIR_VER,
  97:Middlewares/lvgl/src/core/../misc/../font/../misc/lv_area.h **** };
  98:Middlewares/lvgl/src/core/../misc/../font/../misc/lv_area.h **** 
  99:Middlewares/lvgl/src/core/../misc/../font/../misc/lv_area.h **** typedef uint8_t lv_dir_t;
 100:Middlewares/lvgl/src/core/../misc/../font/../misc/lv_area.h **** 
 101:Middlewares/lvgl/src/core/../misc/../font/../misc/lv_area.h **** /**********************
 102:Middlewares/lvgl/src/core/../misc/../font/../misc/lv_area.h ****  * GLOBAL PROTOTYPES
 103:Middlewares/lvgl/src/core/../misc/../font/../misc/lv_area.h ****  **********************/
 104:Middlewares/lvgl/src/core/../misc/../font/../misc/lv_area.h **** 
 105:Middlewares/lvgl/src/core/../misc/../font/../misc/lv_area.h **** /**
 106:Middlewares/lvgl/src/core/../misc/../font/../misc/lv_area.h ****  * Initialize an area
 107:Middlewares/lvgl/src/core/../misc/../font/../misc/lv_area.h ****  * @param area_p pointer to an area
ARM GAS  /tmp/ccnhv9Lg.s 			page 35


 108:Middlewares/lvgl/src/core/../misc/../font/../misc/lv_area.h ****  * @param x1 left coordinate of the area
 109:Middlewares/lvgl/src/core/../misc/../font/../misc/lv_area.h ****  * @param y1 top coordinate of the area
 110:Middlewares/lvgl/src/core/../misc/../font/../misc/lv_area.h ****  * @param x2 right coordinate of the area
 111:Middlewares/lvgl/src/core/../misc/../font/../misc/lv_area.h ****  * @param y2 bottom coordinate of the area
 112:Middlewares/lvgl/src/core/../misc/../font/../misc/lv_area.h ****  */
 113:Middlewares/lvgl/src/core/../misc/../font/../misc/lv_area.h **** void lv_area_set(lv_area_t * area_p, lv_coord_t x1, lv_coord_t y1, lv_coord_t x2, lv_coord_t y2);
 114:Middlewares/lvgl/src/core/../misc/../font/../misc/lv_area.h **** 
 115:Middlewares/lvgl/src/core/../misc/../font/../misc/lv_area.h **** /**
 116:Middlewares/lvgl/src/core/../misc/../font/../misc/lv_area.h ****  * Copy an area
 117:Middlewares/lvgl/src/core/../misc/../font/../misc/lv_area.h ****  * @param dest pointer to the destination area
 118:Middlewares/lvgl/src/core/../misc/../font/../misc/lv_area.h ****  * @param src pointer to the source area
 119:Middlewares/lvgl/src/core/../misc/../font/../misc/lv_area.h ****  */
 120:Middlewares/lvgl/src/core/../misc/../font/../misc/lv_area.h **** inline static void lv_area_copy(lv_area_t * dest, const lv_area_t * src)
 984              		.loc 3 120 20 view .LVU242
 985              	.LBB136:
 121:Middlewares/lvgl/src/core/../misc/../font/../misc/lv_area.h **** {
 122:Middlewares/lvgl/src/core/../misc/../font/../misc/lv_area.h ****     dest->x1 = src->x1;
 986              		.loc 3 122 5 view .LVU243
 987              		.loc 3 122 19 is_stmt 0 view .LVU244
 988 0000 B0F91430 		ldrsh	r3, [r0, #20]
 989              		.loc 3 122 14 view .LVU245
 990 0004 0B80     		strh	r3, [r1]	@ movhi
 123:Middlewares/lvgl/src/core/../misc/../font/../misc/lv_area.h ****     dest->y1 = src->y1;
 991              		.loc 3 123 5 is_stmt 1 view .LVU246
 992              		.loc 3 123 19 is_stmt 0 view .LVU247
 993 0006 B0F91630 		ldrsh	r3, [r0, #22]
 994              		.loc 3 123 14 view .LVU248
 995 000a 4B80     		strh	r3, [r1, #2]	@ movhi
 124:Middlewares/lvgl/src/core/../misc/../font/../misc/lv_area.h ****     dest->x2 = src->x2;
 996              		.loc 3 124 5 is_stmt 1 view .LVU249
 997              		.loc 3 124 19 is_stmt 0 view .LVU250
 998 000c B0F91830 		ldrsh	r3, [r0, #24]
 999              		.loc 3 124 14 view .LVU251
 1000 0010 8B80     		strh	r3, [r1, #4]	@ movhi
 125:Middlewares/lvgl/src/core/../misc/../font/../misc/lv_area.h ****     dest->y2 = src->y2;
 1001              		.loc 3 125 5 is_stmt 1 view .LVU252
 1002              		.loc 3 125 19 is_stmt 0 view .LVU253
 1003 0012 B0F91A30 		ldrsh	r3, [r0, #26]
 1004              		.loc 3 125 14 view .LVU254
 1005 0016 CB80     		strh	r3, [r1, #6]	@ movhi
 1006              	.LVL80:
 1007              		.loc 3 125 14 view .LVU255
 1008              	.LBE136:
 1009              	.LBE135:
 475:Middlewares/lvgl/src/core/lv_obj_pos.c **** }
 1010              		.loc 1 475 1 view .LVU256
 1011 0018 7047     		bx	lr
 1012              		.cfi_endproc
 1013              	.LFE170:
 1015              		.section	.text.lv_obj_get_x,"ax",%progbits
 1016              		.align	1
 1017              		.global	lv_obj_get_x
 1018              		.syntax unified
 1019              		.thumb
 1020              		.thumb_func
 1022              	lv_obj_get_x:
 1023              	.LVL81:
ARM GAS  /tmp/ccnhv9Lg.s 			page 36


 1024              	.LFB171:
 476:Middlewares/lvgl/src/core/lv_obj_pos.c **** 
 477:Middlewares/lvgl/src/core/lv_obj_pos.c **** lv_coord_t lv_obj_get_x(const lv_obj_t * obj)
 478:Middlewares/lvgl/src/core/lv_obj_pos.c **** {
 1025              		.loc 1 478 1 is_stmt 1 view -0
 1026              		.cfi_startproc
 1027              		@ args = 0, pretend = 0, frame = 0
 1028              		@ frame_needed = 0, uses_anonymous_args = 0
 1029              		.loc 1 478 1 is_stmt 0 view .LVU258
 1030 0000 38B5     		push	{r3, r4, r5, lr}
 1031              	.LCFI26:
 1032              		.cfi_def_cfa_offset 16
 1033              		.cfi_offset 3, -16
 1034              		.cfi_offset 4, -12
 1035              		.cfi_offset 5, -8
 1036              		.cfi_offset 14, -4
 1037 0002 0446     		mov	r4, r0
 479:Middlewares/lvgl/src/core/lv_obj_pos.c ****     LV_ASSERT_OBJ(obj, MY_CLASS);
 1038              		.loc 1 479 5 is_stmt 1 view .LVU259
 1039              		.loc 1 479 5 view .LVU260
 1040              		.loc 1 479 5 view .LVU261
 480:Middlewares/lvgl/src/core/lv_obj_pos.c **** 
 481:Middlewares/lvgl/src/core/lv_obj_pos.c ****     lv_coord_t rel_x;
 1041              		.loc 1 481 5 view .LVU262
 482:Middlewares/lvgl/src/core/lv_obj_pos.c ****     lv_obj_t * parent = lv_obj_get_parent(obj);
 1042              		.loc 1 482 5 view .LVU263
 1043              		.loc 1 482 25 is_stmt 0 view .LVU264
 1044 0004 FFF7FEFF 		bl	lv_obj_get_parent
 1045              	.LVL82:
 483:Middlewares/lvgl/src/core/lv_obj_pos.c ****     if(parent) {
 1046              		.loc 1 483 5 is_stmt 1 view .LVU265
 1047              		.loc 1 483 7 is_stmt 0 view .LVU266
 1048 0008 E0B1     		cbz	r0, .L62
 1049 000a 0546     		mov	r5, r0
 484:Middlewares/lvgl/src/core/lv_obj_pos.c ****         rel_x  = obj->coords.x1 - parent->coords.x1;
 1050              		.loc 1 484 9 is_stmt 1 view .LVU267
 1051              		.loc 1 484 29 is_stmt 0 view .LVU268
 1052 000c A48A     		ldrh	r4, [r4, #20]
 1053              	.LVL83:
 1054              		.loc 1 484 49 view .LVU269
 1055 000e 838A     		ldrh	r3, [r0, #20]
 1056              		.loc 1 484 33 view .LVU270
 1057 0010 E41A     		subs	r4, r4, r3
 1058 0012 A4B2     		uxth	r4, r4
 1059              	.LVL84:
 485:Middlewares/lvgl/src/core/lv_obj_pos.c ****         rel_x += lv_obj_get_scroll_x(parent);
 1060              		.loc 1 485 9 is_stmt 1 view .LVU271
 1061              		.loc 1 485 18 is_stmt 0 view .LVU272
 1062 0014 FFF7FEFF 		bl	lv_obj_get_scroll_x
 1063              	.LVL85:
 1064              		.loc 1 485 15 view .LVU273
 1065 0018 14FA80F4 		uxtah	r4, r4, r0
 1066              	.LVL86:
 1067              		.loc 1 485 15 view .LVU274
 1068 001c A4B2     		uxth	r4, r4
 1069              	.LVL87:
 486:Middlewares/lvgl/src/core/lv_obj_pos.c ****         rel_x -= lv_obj_get_style_pad_left(parent, LV_PART_MAIN);
ARM GAS  /tmp/ccnhv9Lg.s 			page 37


 1070              		.loc 1 486 9 is_stmt 1 view .LVU275
 1071              	.LBB137:
 1072              	.LBI137:
 103:Middlewares/lvgl/src/core/lv_obj_style_gen.h **** {
 1073              		.loc 2 103 26 view .LVU276
 1074              	.LBB138:
 105:Middlewares/lvgl/src/core/lv_obj_style_gen.h ****     return (lv_coord_t)v.num;
 1075              		.loc 2 105 5 view .LVU277
 105:Middlewares/lvgl/src/core/lv_obj_style_gen.h ****     return (lv_coord_t)v.num;
 1076              		.loc 2 105 26 is_stmt 0 view .LVU278
 1077 001e 41F21202 		movw	r2, #4114
 1078 0022 0021     		movs	r1, #0
 1079 0024 2846     		mov	r0, r5
 1080 0026 FFF7FEFF 		bl	lv_obj_get_style_prop
 1081              	.LVL88:
 106:Middlewares/lvgl/src/core/lv_obj_style_gen.h **** }
 1082              		.loc 2 106 5 is_stmt 1 view .LVU279
 106:Middlewares/lvgl/src/core/lv_obj_style_gen.h **** }
 1083              		.loc 2 106 5 is_stmt 0 view .LVU280
 1084              	.LBE138:
 1085              	.LBE137:
 1086              		.loc 1 486 18 view .LVU281
 1087 002a 80B2     		uxth	r0, r0
 1088              		.loc 1 486 15 view .LVU282
 1089 002c 241A     		subs	r4, r4, r0
 1090              	.LVL89:
 1091              		.loc 1 486 15 view .LVU283
 1092 002e A4B2     		uxth	r4, r4
 1093              	.LVL90:
 487:Middlewares/lvgl/src/core/lv_obj_pos.c ****         rel_x -= lv_obj_get_style_border_width(parent, LV_PART_MAIN);
 1094              		.loc 1 487 9 is_stmt 1 view .LVU284
 1095              	.LBB139:
 1096              	.LBI139:
 295:Middlewares/lvgl/src/core/lv_obj_style_gen.h **** {
 1097              		.loc 2 295 26 view .LVU285
 1098              	.LBB140:
 297:Middlewares/lvgl/src/core/lv_obj_style_gen.h ****     return (lv_coord_t)v.num;
 1099              		.loc 2 297 5 view .LVU286
 297:Middlewares/lvgl/src/core/lv_obj_style_gen.h ****     return (lv_coord_t)v.num;
 1100              		.loc 2 297 26 is_stmt 0 view .LVU287
 1101 0030 41F23202 		movw	r2, #4146
 1102 0034 0021     		movs	r1, #0
 1103 0036 2846     		mov	r0, r5
 1104 0038 FFF7FEFF 		bl	lv_obj_get_style_prop
 1105              	.LVL91:
 1106              		.loc 2 298 5 is_stmt 1 view .LVU288
 1107              		.loc 2 298 5 is_stmt 0 view .LVU289
 1108              	.LBE140:
 1109              	.LBE139:
 1110              		.loc 1 487 18 view .LVU290
 1111 003c 80B2     		uxth	r0, r0
 1112              		.loc 1 487 15 view .LVU291
 1113 003e 201A     		subs	r0, r4, r0
 1114 0040 00B2     		sxth	r0, r0
 1115              	.LVL92:
 1116              	.L63:
 488:Middlewares/lvgl/src/core/lv_obj_pos.c ****     }
ARM GAS  /tmp/ccnhv9Lg.s 			page 38


 489:Middlewares/lvgl/src/core/lv_obj_pos.c ****     else {
 490:Middlewares/lvgl/src/core/lv_obj_pos.c ****         rel_x = obj->coords.x1;
 491:Middlewares/lvgl/src/core/lv_obj_pos.c ****     }
 492:Middlewares/lvgl/src/core/lv_obj_pos.c ****     return rel_x;
 1117              		.loc 1 492 5 is_stmt 1 view .LVU292
 493:Middlewares/lvgl/src/core/lv_obj_pos.c **** }
 1118              		.loc 1 493 1 is_stmt 0 view .LVU293
 1119 0042 38BD     		pop	{r3, r4, r5, pc}
 1120              	.LVL93:
 1121              	.L62:
 490:Middlewares/lvgl/src/core/lv_obj_pos.c ****     }
 1122              		.loc 1 490 9 is_stmt 1 view .LVU294
 490:Middlewares/lvgl/src/core/lv_obj_pos.c ****     }
 1123              		.loc 1 490 15 is_stmt 0 view .LVU295
 1124 0044 B4F91400 		ldrsh	r0, [r4, #20]
 1125              	.LVL94:
 490:Middlewares/lvgl/src/core/lv_obj_pos.c ****     }
 1126              		.loc 1 490 15 view .LVU296
 1127 0048 FBE7     		b	.L63
 1128              		.cfi_endproc
 1129              	.LFE171:
 1131              		.section	.text.lv_obj_get_y,"ax",%progbits
 1132              		.align	1
 1133              		.global	lv_obj_get_y
 1134              		.syntax unified
 1135              		.thumb
 1136              		.thumb_func
 1138              	lv_obj_get_y:
 1139              	.LVL95:
 1140              	.LFB173:
 494:Middlewares/lvgl/src/core/lv_obj_pos.c **** 
 495:Middlewares/lvgl/src/core/lv_obj_pos.c **** lv_coord_t lv_obj_get_x2(const lv_obj_t * obj)
 496:Middlewares/lvgl/src/core/lv_obj_pos.c **** {
 497:Middlewares/lvgl/src/core/lv_obj_pos.c ****     LV_ASSERT_OBJ(obj, MY_CLASS);
 498:Middlewares/lvgl/src/core/lv_obj_pos.c **** 
 499:Middlewares/lvgl/src/core/lv_obj_pos.c ****     return lv_obj_get_x(obj) + lv_obj_get_width(obj);
 500:Middlewares/lvgl/src/core/lv_obj_pos.c **** }
 501:Middlewares/lvgl/src/core/lv_obj_pos.c **** 
 502:Middlewares/lvgl/src/core/lv_obj_pos.c **** lv_coord_t lv_obj_get_y(const lv_obj_t * obj)
 503:Middlewares/lvgl/src/core/lv_obj_pos.c **** {
 1141              		.loc 1 503 1 is_stmt 1 view -0
 1142              		.cfi_startproc
 1143              		@ args = 0, pretend = 0, frame = 0
 1144              		@ frame_needed = 0, uses_anonymous_args = 0
 1145              		.loc 1 503 1 is_stmt 0 view .LVU298
 1146 0000 38B5     		push	{r3, r4, r5, lr}
 1147              	.LCFI27:
 1148              		.cfi_def_cfa_offset 16
 1149              		.cfi_offset 3, -16
 1150              		.cfi_offset 4, -12
 1151              		.cfi_offset 5, -8
 1152              		.cfi_offset 14, -4
 1153 0002 0446     		mov	r4, r0
 504:Middlewares/lvgl/src/core/lv_obj_pos.c ****     LV_ASSERT_OBJ(obj, MY_CLASS);
 1154              		.loc 1 504 5 is_stmt 1 view .LVU299
 1155              		.loc 1 504 5 view .LVU300
 1156              		.loc 1 504 5 view .LVU301
ARM GAS  /tmp/ccnhv9Lg.s 			page 39


 505:Middlewares/lvgl/src/core/lv_obj_pos.c **** 
 506:Middlewares/lvgl/src/core/lv_obj_pos.c ****     lv_coord_t rel_y;
 1157              		.loc 1 506 5 view .LVU302
 507:Middlewares/lvgl/src/core/lv_obj_pos.c ****     lv_obj_t * parent = lv_obj_get_parent(obj);
 1158              		.loc 1 507 5 view .LVU303
 1159              		.loc 1 507 25 is_stmt 0 view .LVU304
 1160 0004 FFF7FEFF 		bl	lv_obj_get_parent
 1161              	.LVL96:
 508:Middlewares/lvgl/src/core/lv_obj_pos.c ****     if(parent) {
 1162              		.loc 1 508 5 is_stmt 1 view .LVU305
 1163              		.loc 1 508 7 is_stmt 0 view .LVU306
 1164 0008 E0B1     		cbz	r0, .L66
 1165 000a 0546     		mov	r5, r0
 509:Middlewares/lvgl/src/core/lv_obj_pos.c ****         rel_y = obj->coords.y1 - parent->coords.y1;
 1166              		.loc 1 509 9 is_stmt 1 view .LVU307
 1167              		.loc 1 509 28 is_stmt 0 view .LVU308
 1168 000c E48A     		ldrh	r4, [r4, #22]
 1169              	.LVL97:
 1170              		.loc 1 509 48 view .LVU309
 1171 000e C38A     		ldrh	r3, [r0, #22]
 1172              		.loc 1 509 32 view .LVU310
 1173 0010 E41A     		subs	r4, r4, r3
 1174 0012 A4B2     		uxth	r4, r4
 1175              	.LVL98:
 510:Middlewares/lvgl/src/core/lv_obj_pos.c ****         rel_y += lv_obj_get_scroll_y(parent);
 1176              		.loc 1 510 9 is_stmt 1 view .LVU311
 1177              		.loc 1 510 18 is_stmt 0 view .LVU312
 1178 0014 FFF7FEFF 		bl	lv_obj_get_scroll_y
 1179              	.LVL99:
 1180              		.loc 1 510 15 view .LVU313
 1181 0018 14FA80F4 		uxtah	r4, r4, r0
 1182              	.LVL100:
 1183              		.loc 1 510 15 view .LVU314
 1184 001c A4B2     		uxth	r4, r4
 1185              	.LVL101:
 511:Middlewares/lvgl/src/core/lv_obj_pos.c ****         rel_y -= lv_obj_get_style_pad_top(parent, LV_PART_MAIN);
 1186              		.loc 1 511 9 is_stmt 1 view .LVU315
 1187              	.LBB141:
 1188              	.LBI141:
  91:Middlewares/lvgl/src/core/lv_obj_style_gen.h **** {
 1189              		.loc 2 91 26 view .LVU316
 1190              	.LBB142:
  93:Middlewares/lvgl/src/core/lv_obj_style_gen.h ****     return (lv_coord_t)v.num;
 1191              		.loc 2 93 5 view .LVU317
  93:Middlewares/lvgl/src/core/lv_obj_style_gen.h ****     return (lv_coord_t)v.num;
 1192              		.loc 2 93 26 is_stmt 0 view .LVU318
 1193 001e 41F21002 		movw	r2, #4112
 1194 0022 0021     		movs	r1, #0
 1195 0024 2846     		mov	r0, r5
 1196 0026 FFF7FEFF 		bl	lv_obj_get_style_prop
 1197              	.LVL102:
  94:Middlewares/lvgl/src/core/lv_obj_style_gen.h **** }
 1198              		.loc 2 94 5 is_stmt 1 view .LVU319
  94:Middlewares/lvgl/src/core/lv_obj_style_gen.h **** }
 1199              		.loc 2 94 5 is_stmt 0 view .LVU320
 1200              	.LBE142:
 1201              	.LBE141:
ARM GAS  /tmp/ccnhv9Lg.s 			page 40


 1202              		.loc 1 511 18 view .LVU321
 1203 002a 80B2     		uxth	r0, r0
 1204              		.loc 1 511 15 view .LVU322
 1205 002c 241A     		subs	r4, r4, r0
 1206              	.LVL103:
 1207              		.loc 1 511 15 view .LVU323
 1208 002e A4B2     		uxth	r4, r4
 1209              	.LVL104:
 512:Middlewares/lvgl/src/core/lv_obj_pos.c ****         rel_y -= lv_obj_get_style_border_width(parent, LV_PART_MAIN);
 1210              		.loc 1 512 9 is_stmt 1 view .LVU324
 1211              	.LBB143:
 1212              	.LBI143:
 295:Middlewares/lvgl/src/core/lv_obj_style_gen.h **** {
 1213              		.loc 2 295 26 view .LVU325
 1214              	.LBB144:
 297:Middlewares/lvgl/src/core/lv_obj_style_gen.h ****     return (lv_coord_t)v.num;
 1215              		.loc 2 297 5 view .LVU326
 297:Middlewares/lvgl/src/core/lv_obj_style_gen.h ****     return (lv_coord_t)v.num;
 1216              		.loc 2 297 26 is_stmt 0 view .LVU327
 1217 0030 41F23202 		movw	r2, #4146
 1218 0034 0021     		movs	r1, #0
 1219 0036 2846     		mov	r0, r5
 1220 0038 FFF7FEFF 		bl	lv_obj_get_style_prop
 1221              	.LVL105:
 1222              		.loc 2 298 5 is_stmt 1 view .LVU328
 1223              		.loc 2 298 5 is_stmt 0 view .LVU329
 1224              	.LBE144:
 1225              	.LBE143:
 1226              		.loc 1 512 18 view .LVU330
 1227 003c 80B2     		uxth	r0, r0
 1228              		.loc 1 512 15 view .LVU331
 1229 003e 201A     		subs	r0, r4, r0
 1230 0040 00B2     		sxth	r0, r0
 1231              	.LVL106:
 1232              	.L67:
 513:Middlewares/lvgl/src/core/lv_obj_pos.c ****     }
 514:Middlewares/lvgl/src/core/lv_obj_pos.c ****     else {
 515:Middlewares/lvgl/src/core/lv_obj_pos.c ****         rel_y = obj->coords.y1;
 516:Middlewares/lvgl/src/core/lv_obj_pos.c ****     }
 517:Middlewares/lvgl/src/core/lv_obj_pos.c ****     return rel_y;
 1233              		.loc 1 517 5 is_stmt 1 view .LVU332
 518:Middlewares/lvgl/src/core/lv_obj_pos.c **** }
 1234              		.loc 1 518 1 is_stmt 0 view .LVU333
 1235 0042 38BD     		pop	{r3, r4, r5, pc}
 1236              	.LVL107:
 1237              	.L66:
 515:Middlewares/lvgl/src/core/lv_obj_pos.c ****     }
 1238              		.loc 1 515 9 is_stmt 1 view .LVU334
 515:Middlewares/lvgl/src/core/lv_obj_pos.c ****     }
 1239              		.loc 1 515 15 is_stmt 0 view .LVU335
 1240 0044 B4F91600 		ldrsh	r0, [r4, #22]
 1241              	.LVL108:
 515:Middlewares/lvgl/src/core/lv_obj_pos.c ****     }
 1242              		.loc 1 515 15 view .LVU336
 1243 0048 FBE7     		b	.L67
 1244              		.cfi_endproc
 1245              	.LFE173:
ARM GAS  /tmp/ccnhv9Lg.s 			page 41


 1247              		.section	.text.lv_obj_get_width,"ax",%progbits
 1248              		.align	1
 1249              		.global	lv_obj_get_width
 1250              		.syntax unified
 1251              		.thumb
 1252              		.thumb_func
 1254              	lv_obj_get_width:
 1255              	.LVL109:
 1256              	.LFB175:
 519:Middlewares/lvgl/src/core/lv_obj_pos.c **** 
 520:Middlewares/lvgl/src/core/lv_obj_pos.c **** lv_coord_t lv_obj_get_y2(const lv_obj_t * obj)
 521:Middlewares/lvgl/src/core/lv_obj_pos.c **** {
 522:Middlewares/lvgl/src/core/lv_obj_pos.c ****     LV_ASSERT_OBJ(obj, MY_CLASS);
 523:Middlewares/lvgl/src/core/lv_obj_pos.c **** 
 524:Middlewares/lvgl/src/core/lv_obj_pos.c ****     return lv_obj_get_y(obj) + lv_obj_get_height(obj);
 525:Middlewares/lvgl/src/core/lv_obj_pos.c **** }
 526:Middlewares/lvgl/src/core/lv_obj_pos.c **** 
 527:Middlewares/lvgl/src/core/lv_obj_pos.c **** lv_coord_t lv_obj_get_width(const lv_obj_t * obj)
 528:Middlewares/lvgl/src/core/lv_obj_pos.c **** {
 1257              		.loc 1 528 1 is_stmt 1 view -0
 1258              		.cfi_startproc
 1259              		@ args = 0, pretend = 0, frame = 0
 1260              		@ frame_needed = 0, uses_anonymous_args = 0
 1261              		@ link register save eliminated.
 1262              		.loc 1 528 1 is_stmt 0 view .LVU338
 1263 0000 0346     		mov	r3, r0
 529:Middlewares/lvgl/src/core/lv_obj_pos.c ****     LV_ASSERT_OBJ(obj, MY_CLASS);
 1264              		.loc 1 529 5 is_stmt 1 view .LVU339
 1265              		.loc 1 529 5 view .LVU340
 1266              		.loc 1 529 5 view .LVU341
 530:Middlewares/lvgl/src/core/lv_obj_pos.c **** 
 531:Middlewares/lvgl/src/core/lv_obj_pos.c ****     return lv_area_get_width(&obj->coords);
 1267              		.loc 1 531 5 view .LVU342
 1268              	.LVL110:
 1269              	.LBB145:
 1270              	.LBI145:
 126:Middlewares/lvgl/src/core/../misc/../font/../misc/lv_area.h **** }
 127:Middlewares/lvgl/src/core/../misc/../font/../misc/lv_area.h **** 
 128:Middlewares/lvgl/src/core/../misc/../font/../misc/lv_area.h **** /**
 129:Middlewares/lvgl/src/core/../misc/../font/../misc/lv_area.h ****  * Get the width of an area
 130:Middlewares/lvgl/src/core/../misc/../font/../misc/lv_area.h ****  * @param area_p pointer to an area
 131:Middlewares/lvgl/src/core/../misc/../font/../misc/lv_area.h ****  * @return the width of the area (if x1 == x2 -> width = 1)
 132:Middlewares/lvgl/src/core/../misc/../font/../misc/lv_area.h ****  */
 133:Middlewares/lvgl/src/core/../misc/../font/../misc/lv_area.h **** static inline lv_coord_t lv_area_get_width(const lv_area_t * area_p)
 1271              		.loc 3 133 26 view .LVU343
 1272              	.LBB146:
 134:Middlewares/lvgl/src/core/../misc/../font/../misc/lv_area.h **** {
 135:Middlewares/lvgl/src/core/../misc/../font/../misc/lv_area.h ****     return (lv_coord_t)(area_p->x2 - area_p->x1 + 1);
 1273              		.loc 3 135 5 view .LVU344
 1274              		.loc 3 135 31 is_stmt 0 view .LVU345
 1275 0002 008B     		ldrh	r0, [r0, #24]
 1276              	.LVL111:
 1277              		.loc 3 135 44 view .LVU346
 1278 0004 9B8A     		ldrh	r3, [r3, #20]
 1279              	.LVL112:
 1280              		.loc 3 135 36 view .LVU347
 1281 0006 C01A     		subs	r0, r0, r3
ARM GAS  /tmp/ccnhv9Lg.s 			page 42


 1282 0008 80B2     		uxth	r0, r0
 1283              		.loc 3 135 49 view .LVU348
 1284 000a 0130     		adds	r0, r0, #1
 1285              	.LVL113:
 1286              		.loc 3 135 49 view .LVU349
 1287              	.LBE146:
 1288              	.LBE145:
 532:Middlewares/lvgl/src/core/lv_obj_pos.c **** }
 1289              		.loc 1 532 1 view .LVU350
 1290 000c 00B2     		sxth	r0, r0
 1291 000e 7047     		bx	lr
 1292              		.cfi_endproc
 1293              	.LFE175:
 1295              		.section	.text.lv_obj_get_x2,"ax",%progbits
 1296              		.align	1
 1297              		.global	lv_obj_get_x2
 1298              		.syntax unified
 1299              		.thumb
 1300              		.thumb_func
 1302              	lv_obj_get_x2:
 1303              	.LVL114:
 1304              	.LFB172:
 496:Middlewares/lvgl/src/core/lv_obj_pos.c ****     LV_ASSERT_OBJ(obj, MY_CLASS);
 1305              		.loc 1 496 1 is_stmt 1 view -0
 1306              		.cfi_startproc
 1307              		@ args = 0, pretend = 0, frame = 0
 1308              		@ frame_needed = 0, uses_anonymous_args = 0
 496:Middlewares/lvgl/src/core/lv_obj_pos.c ****     LV_ASSERT_OBJ(obj, MY_CLASS);
 1309              		.loc 1 496 1 is_stmt 0 view .LVU352
 1310 0000 38B5     		push	{r3, r4, r5, lr}
 1311              	.LCFI28:
 1312              		.cfi_def_cfa_offset 16
 1313              		.cfi_offset 3, -16
 1314              		.cfi_offset 4, -12
 1315              		.cfi_offset 5, -8
 1316              		.cfi_offset 14, -4
 1317 0002 0546     		mov	r5, r0
 497:Middlewares/lvgl/src/core/lv_obj_pos.c **** 
 1318              		.loc 1 497 5 is_stmt 1 view .LVU353
 497:Middlewares/lvgl/src/core/lv_obj_pos.c **** 
 1319              		.loc 1 497 5 view .LVU354
 497:Middlewares/lvgl/src/core/lv_obj_pos.c **** 
 1320              		.loc 1 497 5 view .LVU355
 499:Middlewares/lvgl/src/core/lv_obj_pos.c **** }
 1321              		.loc 1 499 5 view .LVU356
 499:Middlewares/lvgl/src/core/lv_obj_pos.c **** }
 1322              		.loc 1 499 12 is_stmt 0 view .LVU357
 1323 0004 FFF7FEFF 		bl	lv_obj_get_x
 1324              	.LVL115:
 499:Middlewares/lvgl/src/core/lv_obj_pos.c **** }
 1325              		.loc 1 499 12 view .LVU358
 1326 0008 84B2     		uxth	r4, r0
 499:Middlewares/lvgl/src/core/lv_obj_pos.c **** }
 1327              		.loc 1 499 32 view .LVU359
 1328 000a 2846     		mov	r0, r5
 1329 000c FFF7FEFF 		bl	lv_obj_get_width
 1330              	.LVL116:
ARM GAS  /tmp/ccnhv9Lg.s 			page 43


 499:Middlewares/lvgl/src/core/lv_obj_pos.c **** }
 1331              		.loc 1 499 30 view .LVU360
 1332 0010 14FA80F0 		uxtah	r0, r4, r0
 500:Middlewares/lvgl/src/core/lv_obj_pos.c **** 
 1333              		.loc 1 500 1 view .LVU361
 1334 0014 00B2     		sxth	r0, r0
 1335 0016 38BD     		pop	{r3, r4, r5, pc}
 500:Middlewares/lvgl/src/core/lv_obj_pos.c **** 
 1336              		.loc 1 500 1 view .LVU362
 1337              		.cfi_endproc
 1338              	.LFE172:
 1340              		.section	.text.lv_obj_get_height,"ax",%progbits
 1341              		.align	1
 1342              		.global	lv_obj_get_height
 1343              		.syntax unified
 1344              		.thumb
 1345              		.thumb_func
 1347              	lv_obj_get_height:
 1348              	.LVL117:
 1349              	.LFB176:
 533:Middlewares/lvgl/src/core/lv_obj_pos.c **** 
 534:Middlewares/lvgl/src/core/lv_obj_pos.c **** lv_coord_t lv_obj_get_height(const lv_obj_t * obj)
 535:Middlewares/lvgl/src/core/lv_obj_pos.c **** {
 1350              		.loc 1 535 1 is_stmt 1 view -0
 1351              		.cfi_startproc
 1352              		@ args = 0, pretend = 0, frame = 0
 1353              		@ frame_needed = 0, uses_anonymous_args = 0
 1354              		@ link register save eliminated.
 1355              		.loc 1 535 1 is_stmt 0 view .LVU364
 1356 0000 0346     		mov	r3, r0
 536:Middlewares/lvgl/src/core/lv_obj_pos.c ****     LV_ASSERT_OBJ(obj, MY_CLASS);
 1357              		.loc 1 536 5 is_stmt 1 view .LVU365
 1358              		.loc 1 536 5 view .LVU366
 1359              		.loc 1 536 5 view .LVU367
 537:Middlewares/lvgl/src/core/lv_obj_pos.c **** 
 538:Middlewares/lvgl/src/core/lv_obj_pos.c ****     return lv_area_get_height(&obj->coords);
 1360              		.loc 1 538 5 view .LVU368
 1361              	.LVL118:
 1362              	.LBB147:
 1363              	.LBI147:
 136:Middlewares/lvgl/src/core/../misc/../font/../misc/lv_area.h **** }
 137:Middlewares/lvgl/src/core/../misc/../font/../misc/lv_area.h **** 
 138:Middlewares/lvgl/src/core/../misc/../font/../misc/lv_area.h **** /**
 139:Middlewares/lvgl/src/core/../misc/../font/../misc/lv_area.h ****  * Get the height of an area
 140:Middlewares/lvgl/src/core/../misc/../font/../misc/lv_area.h ****  * @param area_p pointer to an area
 141:Middlewares/lvgl/src/core/../misc/../font/../misc/lv_area.h ****  * @return the height of the area (if y1 == y2 -> height = 1)
 142:Middlewares/lvgl/src/core/../misc/../font/../misc/lv_area.h ****  */
 143:Middlewares/lvgl/src/core/../misc/../font/../misc/lv_area.h **** static inline lv_coord_t lv_area_get_height(const lv_area_t * area_p)
 1364              		.loc 3 143 26 view .LVU369
 1365              	.LBB148:
 144:Middlewares/lvgl/src/core/../misc/../font/../misc/lv_area.h **** {
 145:Middlewares/lvgl/src/core/../misc/../font/../misc/lv_area.h ****     return (lv_coord_t)(area_p->y2 - area_p->y1 + 1);
 1366              		.loc 3 145 5 view .LVU370
 1367              		.loc 3 145 31 is_stmt 0 view .LVU371
 1368 0002 408B     		ldrh	r0, [r0, #26]
 1369              	.LVL119:
 1370              		.loc 3 145 44 view .LVU372
ARM GAS  /tmp/ccnhv9Lg.s 			page 44


 1371 0004 DB8A     		ldrh	r3, [r3, #22]
 1372              	.LVL120:
 1373              		.loc 3 145 36 view .LVU373
 1374 0006 C01A     		subs	r0, r0, r3
 1375 0008 80B2     		uxth	r0, r0
 1376              		.loc 3 145 49 view .LVU374
 1377 000a 0130     		adds	r0, r0, #1
 1378              	.LVL121:
 1379              		.loc 3 145 49 view .LVU375
 1380              	.LBE148:
 1381              	.LBE147:
 539:Middlewares/lvgl/src/core/lv_obj_pos.c **** }
 1382              		.loc 1 539 1 view .LVU376
 1383 000c 00B2     		sxth	r0, r0
 1384 000e 7047     		bx	lr
 1385              		.cfi_endproc
 1386              	.LFE176:
 1388              		.section	.text.calc_auto_size,"ax",%progbits
 1389              		.align	1
 1390              		.syntax unified
 1391              		.thumb
 1392              		.thumb_func
 1394              	calc_auto_size:
 1395              	.LVL122:
 1396              	.LFB195:
 540:Middlewares/lvgl/src/core/lv_obj_pos.c **** 
 541:Middlewares/lvgl/src/core/lv_obj_pos.c **** lv_coord_t lv_obj_get_content_width(const lv_obj_t * obj)
 542:Middlewares/lvgl/src/core/lv_obj_pos.c **** {
 543:Middlewares/lvgl/src/core/lv_obj_pos.c ****     LV_ASSERT_OBJ(obj, MY_CLASS);
 544:Middlewares/lvgl/src/core/lv_obj_pos.c **** 
 545:Middlewares/lvgl/src/core/lv_obj_pos.c ****     lv_coord_t left = lv_obj_get_style_pad_left(obj, LV_PART_MAIN);
 546:Middlewares/lvgl/src/core/lv_obj_pos.c ****     lv_coord_t right = lv_obj_get_style_pad_right(obj, LV_PART_MAIN);
 547:Middlewares/lvgl/src/core/lv_obj_pos.c ****     lv_coord_t border_width = lv_obj_get_style_border_width(obj, LV_PART_MAIN);
 548:Middlewares/lvgl/src/core/lv_obj_pos.c **** 
 549:Middlewares/lvgl/src/core/lv_obj_pos.c ****     return lv_obj_get_width(obj) - left - right - 2 * border_width;
 550:Middlewares/lvgl/src/core/lv_obj_pos.c **** }
 551:Middlewares/lvgl/src/core/lv_obj_pos.c **** 
 552:Middlewares/lvgl/src/core/lv_obj_pos.c **** lv_coord_t lv_obj_get_content_height(const lv_obj_t * obj)
 553:Middlewares/lvgl/src/core/lv_obj_pos.c **** {
 554:Middlewares/lvgl/src/core/lv_obj_pos.c ****     LV_ASSERT_OBJ(obj, MY_CLASS);
 555:Middlewares/lvgl/src/core/lv_obj_pos.c **** 
 556:Middlewares/lvgl/src/core/lv_obj_pos.c ****     lv_coord_t top = lv_obj_get_style_pad_top(obj, LV_PART_MAIN);
 557:Middlewares/lvgl/src/core/lv_obj_pos.c ****     lv_coord_t bottom =  lv_obj_get_style_pad_bottom(obj, LV_PART_MAIN);
 558:Middlewares/lvgl/src/core/lv_obj_pos.c ****     lv_coord_t border_width = lv_obj_get_style_border_width(obj, LV_PART_MAIN);
 559:Middlewares/lvgl/src/core/lv_obj_pos.c **** 
 560:Middlewares/lvgl/src/core/lv_obj_pos.c ****     return lv_obj_get_height(obj) - top - bottom - 2 * border_width;
 561:Middlewares/lvgl/src/core/lv_obj_pos.c **** }
 562:Middlewares/lvgl/src/core/lv_obj_pos.c **** 
 563:Middlewares/lvgl/src/core/lv_obj_pos.c **** void lv_obj_get_content_coords(const lv_obj_t * obj, lv_area_t * area)
 564:Middlewares/lvgl/src/core/lv_obj_pos.c **** {
 565:Middlewares/lvgl/src/core/lv_obj_pos.c ****     LV_ASSERT_OBJ(obj, MY_CLASS);
 566:Middlewares/lvgl/src/core/lv_obj_pos.c ****     lv_coord_t border_width = lv_obj_get_style_border_width(obj, LV_PART_MAIN);
 567:Middlewares/lvgl/src/core/lv_obj_pos.c **** 
 568:Middlewares/lvgl/src/core/lv_obj_pos.c ****     lv_obj_get_coords(obj, area);
 569:Middlewares/lvgl/src/core/lv_obj_pos.c ****     lv_area_increase(area, -border_width, -border_width);
 570:Middlewares/lvgl/src/core/lv_obj_pos.c ****     area->x1 += lv_obj_get_style_pad_left(obj, LV_PART_MAIN);
 571:Middlewares/lvgl/src/core/lv_obj_pos.c ****     area->x2 -= lv_obj_get_style_pad_right(obj, LV_PART_MAIN);
ARM GAS  /tmp/ccnhv9Lg.s 			page 45


 572:Middlewares/lvgl/src/core/lv_obj_pos.c ****     area->y1 += lv_obj_get_style_pad_top(obj, LV_PART_MAIN);
 573:Middlewares/lvgl/src/core/lv_obj_pos.c ****     area->y2 -= lv_obj_get_style_pad_bottom(obj, LV_PART_MAIN);
 574:Middlewares/lvgl/src/core/lv_obj_pos.c **** 
 575:Middlewares/lvgl/src/core/lv_obj_pos.c **** }
 576:Middlewares/lvgl/src/core/lv_obj_pos.c **** 
 577:Middlewares/lvgl/src/core/lv_obj_pos.c **** lv_coord_t lv_obj_get_self_width(const lv_obj_t * obj)
 578:Middlewares/lvgl/src/core/lv_obj_pos.c **** {
 579:Middlewares/lvgl/src/core/lv_obj_pos.c ****     lv_point_t p = {0, LV_COORD_MIN};
 580:Middlewares/lvgl/src/core/lv_obj_pos.c ****     lv_event_send((lv_obj_t * )obj, LV_EVENT_GET_SELF_SIZE, &p);
 581:Middlewares/lvgl/src/core/lv_obj_pos.c ****     return p.x;
 582:Middlewares/lvgl/src/core/lv_obj_pos.c **** }
 583:Middlewares/lvgl/src/core/lv_obj_pos.c **** 
 584:Middlewares/lvgl/src/core/lv_obj_pos.c **** lv_coord_t lv_obj_get_self_height(const lv_obj_t * obj)
 585:Middlewares/lvgl/src/core/lv_obj_pos.c **** {
 586:Middlewares/lvgl/src/core/lv_obj_pos.c ****     lv_point_t p = {LV_COORD_MIN, 0};
 587:Middlewares/lvgl/src/core/lv_obj_pos.c ****     lv_event_send((lv_obj_t * )obj, LV_EVENT_GET_SELF_SIZE, &p);
 588:Middlewares/lvgl/src/core/lv_obj_pos.c ****     return p.y;
 589:Middlewares/lvgl/src/core/lv_obj_pos.c **** }
 590:Middlewares/lvgl/src/core/lv_obj_pos.c **** 
 591:Middlewares/lvgl/src/core/lv_obj_pos.c **** bool lv_obj_refresh_self_size(lv_obj_t * obj)
 592:Middlewares/lvgl/src/core/lv_obj_pos.c **** {
 593:Middlewares/lvgl/src/core/lv_obj_pos.c ****     lv_coord_t w_set = lv_obj_get_style_width(obj, LV_PART_MAIN);
 594:Middlewares/lvgl/src/core/lv_obj_pos.c ****     lv_coord_t h_set = lv_obj_get_style_height(obj, LV_PART_MAIN);
 595:Middlewares/lvgl/src/core/lv_obj_pos.c ****     if(w_set != LV_SIZE_CONTENT && h_set != LV_SIZE_CONTENT) return false;
 596:Middlewares/lvgl/src/core/lv_obj_pos.c **** 
 597:Middlewares/lvgl/src/core/lv_obj_pos.c ****     lv_obj_mark_layout_as_dirty(obj);
 598:Middlewares/lvgl/src/core/lv_obj_pos.c ****     return true;
 599:Middlewares/lvgl/src/core/lv_obj_pos.c **** }
 600:Middlewares/lvgl/src/core/lv_obj_pos.c **** 
 601:Middlewares/lvgl/src/core/lv_obj_pos.c **** void lv_obj_refr_pos(lv_obj_t * obj)
 602:Middlewares/lvgl/src/core/lv_obj_pos.c **** {
 603:Middlewares/lvgl/src/core/lv_obj_pos.c ****     if(lv_obj_is_layout_positioned(obj)) return;
 604:Middlewares/lvgl/src/core/lv_obj_pos.c **** 
 605:Middlewares/lvgl/src/core/lv_obj_pos.c ****     lv_obj_t * parent = lv_obj_get_parent(obj);
 606:Middlewares/lvgl/src/core/lv_obj_pos.c ****     lv_coord_t x = lv_obj_get_style_x(obj, LV_PART_MAIN);
 607:Middlewares/lvgl/src/core/lv_obj_pos.c ****     lv_coord_t y = lv_obj_get_style_y(obj, LV_PART_MAIN);
 608:Middlewares/lvgl/src/core/lv_obj_pos.c **** 
 609:Middlewares/lvgl/src/core/lv_obj_pos.c ****     if(parent == NULL) {
 610:Middlewares/lvgl/src/core/lv_obj_pos.c ****         lv_obj_move_to(obj, x, y);
 611:Middlewares/lvgl/src/core/lv_obj_pos.c ****         return;
 612:Middlewares/lvgl/src/core/lv_obj_pos.c ****     }
 613:Middlewares/lvgl/src/core/lv_obj_pos.c **** 
 614:Middlewares/lvgl/src/core/lv_obj_pos.c ****     /*Handle percentage value*/
 615:Middlewares/lvgl/src/core/lv_obj_pos.c ****     lv_coord_t pw = lv_obj_get_content_width(parent);
 616:Middlewares/lvgl/src/core/lv_obj_pos.c ****     lv_coord_t ph = lv_obj_get_content_height(parent);
 617:Middlewares/lvgl/src/core/lv_obj_pos.c ****     if(LV_COORD_IS_PCT(x)) x = (pw * LV_COORD_GET_PCT(x)) / 100;
 618:Middlewares/lvgl/src/core/lv_obj_pos.c ****     if(LV_COORD_IS_PCT(y)) y = (ph * LV_COORD_GET_PCT(y)) / 100;
 619:Middlewares/lvgl/src/core/lv_obj_pos.c **** 
 620:Middlewares/lvgl/src/core/lv_obj_pos.c ****     /*Handle percentage value of translate*/
 621:Middlewares/lvgl/src/core/lv_obj_pos.c ****     lv_coord_t tr_x = lv_obj_get_style_translate_x(obj, LV_PART_MAIN);
 622:Middlewares/lvgl/src/core/lv_obj_pos.c ****     lv_coord_t tr_y = lv_obj_get_style_translate_y(obj, LV_PART_MAIN);
 623:Middlewares/lvgl/src/core/lv_obj_pos.c ****     lv_coord_t w = lv_obj_get_width(obj);
 624:Middlewares/lvgl/src/core/lv_obj_pos.c ****     lv_coord_t h = lv_obj_get_height(obj);
 625:Middlewares/lvgl/src/core/lv_obj_pos.c ****     if(LV_COORD_IS_PCT(tr_x)) tr_x = (w * LV_COORD_GET_PCT(tr_x)) / 100;
 626:Middlewares/lvgl/src/core/lv_obj_pos.c ****     if(LV_COORD_IS_PCT(tr_y)) tr_y = (h * LV_COORD_GET_PCT(tr_y)) / 100;
 627:Middlewares/lvgl/src/core/lv_obj_pos.c **** 
 628:Middlewares/lvgl/src/core/lv_obj_pos.c ****     /*Use the translation*/
ARM GAS  /tmp/ccnhv9Lg.s 			page 46


 629:Middlewares/lvgl/src/core/lv_obj_pos.c ****     x += tr_x;
 630:Middlewares/lvgl/src/core/lv_obj_pos.c ****     y += tr_y;
 631:Middlewares/lvgl/src/core/lv_obj_pos.c **** 
 632:Middlewares/lvgl/src/core/lv_obj_pos.c ****     lv_align_t align = lv_obj_get_style_align(obj, LV_PART_MAIN);
 633:Middlewares/lvgl/src/core/lv_obj_pos.c **** 
 634:Middlewares/lvgl/src/core/lv_obj_pos.c ****     if(align == LV_ALIGN_DEFAULT) {
 635:Middlewares/lvgl/src/core/lv_obj_pos.c ****         if(lv_obj_get_style_base_dir(parent, LV_PART_MAIN) == LV_BASE_DIR_RTL) align = LV_ALIGN_TOP
 636:Middlewares/lvgl/src/core/lv_obj_pos.c ****         else align = LV_ALIGN_TOP_LEFT;
 637:Middlewares/lvgl/src/core/lv_obj_pos.c ****     }
 638:Middlewares/lvgl/src/core/lv_obj_pos.c **** 
 639:Middlewares/lvgl/src/core/lv_obj_pos.c ****     if(align == LV_ALIGN_TOP_LEFT) {
 640:Middlewares/lvgl/src/core/lv_obj_pos.c ****         lv_obj_move_to(obj, x, y);
 641:Middlewares/lvgl/src/core/lv_obj_pos.c ****     }
 642:Middlewares/lvgl/src/core/lv_obj_pos.c ****     else {
 643:Middlewares/lvgl/src/core/lv_obj_pos.c **** 
 644:Middlewares/lvgl/src/core/lv_obj_pos.c ****         switch(align) {
 645:Middlewares/lvgl/src/core/lv_obj_pos.c ****         case LV_ALIGN_TOP_MID:
 646:Middlewares/lvgl/src/core/lv_obj_pos.c ****             x += pw / 2 - w / 2;
 647:Middlewares/lvgl/src/core/lv_obj_pos.c ****             break;
 648:Middlewares/lvgl/src/core/lv_obj_pos.c ****         case LV_ALIGN_TOP_RIGHT:
 649:Middlewares/lvgl/src/core/lv_obj_pos.c ****             x += pw - w;
 650:Middlewares/lvgl/src/core/lv_obj_pos.c ****             break;
 651:Middlewares/lvgl/src/core/lv_obj_pos.c ****         case LV_ALIGN_LEFT_MID:
 652:Middlewares/lvgl/src/core/lv_obj_pos.c ****             y += ph / 2 - h / 2;
 653:Middlewares/lvgl/src/core/lv_obj_pos.c ****             break;
 654:Middlewares/lvgl/src/core/lv_obj_pos.c ****         case LV_ALIGN_BOTTOM_LEFT:
 655:Middlewares/lvgl/src/core/lv_obj_pos.c ****             y += ph - h;
 656:Middlewares/lvgl/src/core/lv_obj_pos.c ****             break;
 657:Middlewares/lvgl/src/core/lv_obj_pos.c ****         case LV_ALIGN_BOTTOM_MID:
 658:Middlewares/lvgl/src/core/lv_obj_pos.c ****             x += pw / 2 - w / 2;
 659:Middlewares/lvgl/src/core/lv_obj_pos.c ****             y += ph - h;
 660:Middlewares/lvgl/src/core/lv_obj_pos.c ****             break;
 661:Middlewares/lvgl/src/core/lv_obj_pos.c ****         case LV_ALIGN_BOTTOM_RIGHT:
 662:Middlewares/lvgl/src/core/lv_obj_pos.c ****             x += pw - w;
 663:Middlewares/lvgl/src/core/lv_obj_pos.c ****             y += ph - h;
 664:Middlewares/lvgl/src/core/lv_obj_pos.c ****             break;
 665:Middlewares/lvgl/src/core/lv_obj_pos.c ****         case LV_ALIGN_RIGHT_MID:
 666:Middlewares/lvgl/src/core/lv_obj_pos.c ****             x += pw - w;
 667:Middlewares/lvgl/src/core/lv_obj_pos.c ****             y += ph / 2 - h / 2;
 668:Middlewares/lvgl/src/core/lv_obj_pos.c ****             break;
 669:Middlewares/lvgl/src/core/lv_obj_pos.c ****         case LV_ALIGN_CENTER:
 670:Middlewares/lvgl/src/core/lv_obj_pos.c ****             x += pw / 2 - w / 2;
 671:Middlewares/lvgl/src/core/lv_obj_pos.c ****             y += ph / 2 - h / 2;
 672:Middlewares/lvgl/src/core/lv_obj_pos.c ****             break;
 673:Middlewares/lvgl/src/core/lv_obj_pos.c ****         default:
 674:Middlewares/lvgl/src/core/lv_obj_pos.c ****             break;
 675:Middlewares/lvgl/src/core/lv_obj_pos.c ****         }
 676:Middlewares/lvgl/src/core/lv_obj_pos.c ****         lv_obj_move_to(obj, x, y);
 677:Middlewares/lvgl/src/core/lv_obj_pos.c ****     }
 678:Middlewares/lvgl/src/core/lv_obj_pos.c **** }
 679:Middlewares/lvgl/src/core/lv_obj_pos.c **** 
 680:Middlewares/lvgl/src/core/lv_obj_pos.c **** void lv_obj_move_to(lv_obj_t * obj, lv_coord_t x, lv_coord_t y)
 681:Middlewares/lvgl/src/core/lv_obj_pos.c **** {
 682:Middlewares/lvgl/src/core/lv_obj_pos.c ****     /*Convert x and y to absolute coordinates*/
 683:Middlewares/lvgl/src/core/lv_obj_pos.c ****     lv_obj_t * parent = obj->parent;
 684:Middlewares/lvgl/src/core/lv_obj_pos.c **** 
 685:Middlewares/lvgl/src/core/lv_obj_pos.c ****     if(parent) {
ARM GAS  /tmp/ccnhv9Lg.s 			page 47


 686:Middlewares/lvgl/src/core/lv_obj_pos.c ****         lv_coord_t pad_left = lv_obj_get_style_pad_left(parent, LV_PART_MAIN);
 687:Middlewares/lvgl/src/core/lv_obj_pos.c ****         lv_coord_t pad_top = lv_obj_get_style_pad_top(parent, LV_PART_MAIN);
 688:Middlewares/lvgl/src/core/lv_obj_pos.c **** 
 689:Middlewares/lvgl/src/core/lv_obj_pos.c ****         if(lv_obj_has_flag(obj, LV_OBJ_FLAG_FLOATING)) {
 690:Middlewares/lvgl/src/core/lv_obj_pos.c ****             x += pad_left + parent->coords.x1;
 691:Middlewares/lvgl/src/core/lv_obj_pos.c ****             y += pad_top + parent->coords.y1;
 692:Middlewares/lvgl/src/core/lv_obj_pos.c ****         } else {
 693:Middlewares/lvgl/src/core/lv_obj_pos.c ****             x += pad_left + parent->coords.x1 - lv_obj_get_scroll_x(parent);
 694:Middlewares/lvgl/src/core/lv_obj_pos.c ****             y += pad_top + parent->coords.y1 - lv_obj_get_scroll_y(parent);
 695:Middlewares/lvgl/src/core/lv_obj_pos.c ****         }
 696:Middlewares/lvgl/src/core/lv_obj_pos.c **** 
 697:Middlewares/lvgl/src/core/lv_obj_pos.c ****         lv_coord_t border_width = lv_obj_get_style_border_width(parent, LV_PART_MAIN);
 698:Middlewares/lvgl/src/core/lv_obj_pos.c ****         x += border_width;
 699:Middlewares/lvgl/src/core/lv_obj_pos.c ****         y += border_width;
 700:Middlewares/lvgl/src/core/lv_obj_pos.c ****     }
 701:Middlewares/lvgl/src/core/lv_obj_pos.c **** 
 702:Middlewares/lvgl/src/core/lv_obj_pos.c ****     /*Calculate and set the movement*/
 703:Middlewares/lvgl/src/core/lv_obj_pos.c ****     lv_point_t diff;
 704:Middlewares/lvgl/src/core/lv_obj_pos.c ****     diff.x = x - obj->coords.x1;
 705:Middlewares/lvgl/src/core/lv_obj_pos.c ****     diff.y = y - obj->coords.y1;
 706:Middlewares/lvgl/src/core/lv_obj_pos.c **** 
 707:Middlewares/lvgl/src/core/lv_obj_pos.c ****     /*Do nothing if the position is not changed*/
 708:Middlewares/lvgl/src/core/lv_obj_pos.c ****     /*It is very important else recursive positioning can
 709:Middlewares/lvgl/src/core/lv_obj_pos.c ****      *occur without position change*/
 710:Middlewares/lvgl/src/core/lv_obj_pos.c ****     if(diff.x == 0 && diff.y == 0) return;
 711:Middlewares/lvgl/src/core/lv_obj_pos.c **** 
 712:Middlewares/lvgl/src/core/lv_obj_pos.c ****     /*Invalidate the original area*/
 713:Middlewares/lvgl/src/core/lv_obj_pos.c ****     lv_obj_invalidate(obj);
 714:Middlewares/lvgl/src/core/lv_obj_pos.c **** 
 715:Middlewares/lvgl/src/core/lv_obj_pos.c ****     /*Save the original coordinates*/
 716:Middlewares/lvgl/src/core/lv_obj_pos.c ****     lv_area_t ori;
 717:Middlewares/lvgl/src/core/lv_obj_pos.c ****     lv_obj_get_coords(obj, &ori);
 718:Middlewares/lvgl/src/core/lv_obj_pos.c **** 
 719:Middlewares/lvgl/src/core/lv_obj_pos.c ****     /*Check if the object inside the parent or not*/
 720:Middlewares/lvgl/src/core/lv_obj_pos.c ****     lv_area_t parent_fit_area;
 721:Middlewares/lvgl/src/core/lv_obj_pos.c ****     bool on1 = false;
 722:Middlewares/lvgl/src/core/lv_obj_pos.c ****     if(parent) {
 723:Middlewares/lvgl/src/core/lv_obj_pos.c ****         lv_obj_get_content_coords(parent, &parent_fit_area);
 724:Middlewares/lvgl/src/core/lv_obj_pos.c **** 
 725:Middlewares/lvgl/src/core/lv_obj_pos.c ****         /*If the object is already out of the parent and its position is changes
 726:Middlewares/lvgl/src/core/lv_obj_pos.c ****          *surely the scrollbars also changes so invalidate them*/
 727:Middlewares/lvgl/src/core/lv_obj_pos.c ****         on1 = _lv_area_is_in(&ori, &parent_fit_area, 0);
 728:Middlewares/lvgl/src/core/lv_obj_pos.c ****         if(!on1) lv_obj_scrollbar_invalidate(parent);
 729:Middlewares/lvgl/src/core/lv_obj_pos.c ****     }
 730:Middlewares/lvgl/src/core/lv_obj_pos.c **** 
 731:Middlewares/lvgl/src/core/lv_obj_pos.c ****     obj->coords.x1 += diff.x;
 732:Middlewares/lvgl/src/core/lv_obj_pos.c ****     obj->coords.y1 += diff.y;
 733:Middlewares/lvgl/src/core/lv_obj_pos.c ****     obj->coords.x2 += diff.x;
 734:Middlewares/lvgl/src/core/lv_obj_pos.c ****     obj->coords.y2 += diff.y;
 735:Middlewares/lvgl/src/core/lv_obj_pos.c **** 
 736:Middlewares/lvgl/src/core/lv_obj_pos.c ****     lv_obj_move_children_by(obj, diff.x, diff.y, false);
 737:Middlewares/lvgl/src/core/lv_obj_pos.c **** 
 738:Middlewares/lvgl/src/core/lv_obj_pos.c ****     /*Call the ancestor's event handler to the parent too*/
 739:Middlewares/lvgl/src/core/lv_obj_pos.c ****     if(parent) lv_event_send(parent, LV_EVENT_CHILD_CHANGED, obj);
 740:Middlewares/lvgl/src/core/lv_obj_pos.c **** 
 741:Middlewares/lvgl/src/core/lv_obj_pos.c ****     /*Invalidate the new area*/
 742:Middlewares/lvgl/src/core/lv_obj_pos.c ****     lv_obj_invalidate(obj);
ARM GAS  /tmp/ccnhv9Lg.s 			page 48


 743:Middlewares/lvgl/src/core/lv_obj_pos.c **** 
 744:Middlewares/lvgl/src/core/lv_obj_pos.c ****     /*If the object was out of the parent invalidate the new scrollbar area too.
 745:Middlewares/lvgl/src/core/lv_obj_pos.c ****      *If it wasn't out of the parent but out now, also invalidate the srollbars*/
 746:Middlewares/lvgl/src/core/lv_obj_pos.c ****     if(parent) {
 747:Middlewares/lvgl/src/core/lv_obj_pos.c ****         bool on2 = _lv_area_is_in(&obj->coords, &parent_fit_area, 0);
 748:Middlewares/lvgl/src/core/lv_obj_pos.c ****         if(on1 || (!on1 && on2)) lv_obj_scrollbar_invalidate(parent);
 749:Middlewares/lvgl/src/core/lv_obj_pos.c ****     }
 750:Middlewares/lvgl/src/core/lv_obj_pos.c **** }
 751:Middlewares/lvgl/src/core/lv_obj_pos.c **** 
 752:Middlewares/lvgl/src/core/lv_obj_pos.c **** void lv_obj_move_children_by(lv_obj_t * obj, lv_coord_t x_diff, lv_coord_t y_diff, bool ignore_floa
 753:Middlewares/lvgl/src/core/lv_obj_pos.c **** {
 754:Middlewares/lvgl/src/core/lv_obj_pos.c ****     uint32_t i;
 755:Middlewares/lvgl/src/core/lv_obj_pos.c ****     uint32_t child_cnt = lv_obj_get_child_cnt(obj);
 756:Middlewares/lvgl/src/core/lv_obj_pos.c ****     for(i = 0; i < child_cnt; i++) {
 757:Middlewares/lvgl/src/core/lv_obj_pos.c ****         lv_obj_t * child = lv_obj_get_child(obj, i);
 758:Middlewares/lvgl/src/core/lv_obj_pos.c ****         if(ignore_floating && lv_obj_has_flag(child, LV_OBJ_FLAG_FLOATING)) continue;
 759:Middlewares/lvgl/src/core/lv_obj_pos.c ****         child->coords.x1 += x_diff;
 760:Middlewares/lvgl/src/core/lv_obj_pos.c ****         child->coords.y1 += y_diff;
 761:Middlewares/lvgl/src/core/lv_obj_pos.c ****         child->coords.x2 += x_diff;
 762:Middlewares/lvgl/src/core/lv_obj_pos.c ****         child->coords.y2 += y_diff;
 763:Middlewares/lvgl/src/core/lv_obj_pos.c **** 
 764:Middlewares/lvgl/src/core/lv_obj_pos.c ****         lv_obj_move_children_by(child, x_diff, y_diff, false);
 765:Middlewares/lvgl/src/core/lv_obj_pos.c ****     }
 766:Middlewares/lvgl/src/core/lv_obj_pos.c **** }
 767:Middlewares/lvgl/src/core/lv_obj_pos.c **** 
 768:Middlewares/lvgl/src/core/lv_obj_pos.c **** 
 769:Middlewares/lvgl/src/core/lv_obj_pos.c **** void lv_obj_invalidate_area(const lv_obj_t * obj, const lv_area_t * area)
 770:Middlewares/lvgl/src/core/lv_obj_pos.c **** {
 771:Middlewares/lvgl/src/core/lv_obj_pos.c ****     LV_ASSERT_OBJ(obj, MY_CLASS);
 772:Middlewares/lvgl/src/core/lv_obj_pos.c **** 
 773:Middlewares/lvgl/src/core/lv_obj_pos.c ****     lv_area_t area_tmp;
 774:Middlewares/lvgl/src/core/lv_obj_pos.c ****     lv_area_copy(&area_tmp, area);
 775:Middlewares/lvgl/src/core/lv_obj_pos.c ****     bool visible = lv_obj_area_is_visible(obj, &area_tmp);
 776:Middlewares/lvgl/src/core/lv_obj_pos.c **** 
 777:Middlewares/lvgl/src/core/lv_obj_pos.c ****     if(visible) _lv_inv_area(lv_obj_get_disp(obj), &area_tmp);
 778:Middlewares/lvgl/src/core/lv_obj_pos.c **** }
 779:Middlewares/lvgl/src/core/lv_obj_pos.c **** 
 780:Middlewares/lvgl/src/core/lv_obj_pos.c **** void lv_obj_invalidate(const lv_obj_t * obj)
 781:Middlewares/lvgl/src/core/lv_obj_pos.c **** {
 782:Middlewares/lvgl/src/core/lv_obj_pos.c ****     LV_ASSERT_OBJ(obj, MY_CLASS);
 783:Middlewares/lvgl/src/core/lv_obj_pos.c **** 
 784:Middlewares/lvgl/src/core/lv_obj_pos.c ****     /*Truncate the area to the object*/
 785:Middlewares/lvgl/src/core/lv_obj_pos.c ****     lv_area_t obj_coords;
 786:Middlewares/lvgl/src/core/lv_obj_pos.c ****     lv_coord_t ext_size = _lv_obj_get_ext_draw_size(obj);
 787:Middlewares/lvgl/src/core/lv_obj_pos.c ****     lv_area_copy(&obj_coords, &obj->coords);
 788:Middlewares/lvgl/src/core/lv_obj_pos.c ****     obj_coords.x1 -= ext_size;
 789:Middlewares/lvgl/src/core/lv_obj_pos.c ****     obj_coords.y1 -= ext_size;
 790:Middlewares/lvgl/src/core/lv_obj_pos.c ****     obj_coords.x2 += ext_size;
 791:Middlewares/lvgl/src/core/lv_obj_pos.c ****     obj_coords.y2 += ext_size;
 792:Middlewares/lvgl/src/core/lv_obj_pos.c **** 
 793:Middlewares/lvgl/src/core/lv_obj_pos.c ****     lv_obj_invalidate_area(obj, &obj_coords);
 794:Middlewares/lvgl/src/core/lv_obj_pos.c **** 
 795:Middlewares/lvgl/src/core/lv_obj_pos.c **** }
 796:Middlewares/lvgl/src/core/lv_obj_pos.c **** 
 797:Middlewares/lvgl/src/core/lv_obj_pos.c **** bool lv_obj_area_is_visible(const lv_obj_t * obj, lv_area_t * area)
 798:Middlewares/lvgl/src/core/lv_obj_pos.c **** {
 799:Middlewares/lvgl/src/core/lv_obj_pos.c ****     if(lv_obj_has_flag(obj, LV_OBJ_FLAG_HIDDEN)) return false;
ARM GAS  /tmp/ccnhv9Lg.s 			page 49


 800:Middlewares/lvgl/src/core/lv_obj_pos.c **** 
 801:Middlewares/lvgl/src/core/lv_obj_pos.c ****     /*Invalidate the object only if it belongs to the current or previous'*/
 802:Middlewares/lvgl/src/core/lv_obj_pos.c ****     lv_obj_t * obj_scr = lv_obj_get_screen(obj);
 803:Middlewares/lvgl/src/core/lv_obj_pos.c ****     lv_disp_t * disp   = lv_obj_get_disp(obj_scr);
 804:Middlewares/lvgl/src/core/lv_obj_pos.c ****     if(obj_scr != lv_disp_get_scr_act(disp) &&
 805:Middlewares/lvgl/src/core/lv_obj_pos.c ****        obj_scr != lv_disp_get_scr_prev(disp) &&
 806:Middlewares/lvgl/src/core/lv_obj_pos.c ****        obj_scr != lv_disp_get_layer_top(disp) &&
 807:Middlewares/lvgl/src/core/lv_obj_pos.c ****        obj_scr != lv_disp_get_layer_sys(disp))
 808:Middlewares/lvgl/src/core/lv_obj_pos.c ****     {
 809:Middlewares/lvgl/src/core/lv_obj_pos.c ****         return false;
 810:Middlewares/lvgl/src/core/lv_obj_pos.c ****     }
 811:Middlewares/lvgl/src/core/lv_obj_pos.c **** 
 812:Middlewares/lvgl/src/core/lv_obj_pos.c ****     /*Truncate the area to the object*/
 813:Middlewares/lvgl/src/core/lv_obj_pos.c ****     lv_area_t obj_coords;
 814:Middlewares/lvgl/src/core/lv_obj_pos.c ****     lv_coord_t ext_size = _lv_obj_get_ext_draw_size(obj);
 815:Middlewares/lvgl/src/core/lv_obj_pos.c ****     lv_area_copy(&obj_coords, &obj->coords);
 816:Middlewares/lvgl/src/core/lv_obj_pos.c ****     obj_coords.x1 -= ext_size;
 817:Middlewares/lvgl/src/core/lv_obj_pos.c ****     obj_coords.y1 -= ext_size;
 818:Middlewares/lvgl/src/core/lv_obj_pos.c ****     obj_coords.x2 += ext_size;
 819:Middlewares/lvgl/src/core/lv_obj_pos.c ****     obj_coords.y2 += ext_size;
 820:Middlewares/lvgl/src/core/lv_obj_pos.c **** 
 821:Middlewares/lvgl/src/core/lv_obj_pos.c ****     bool is_common;
 822:Middlewares/lvgl/src/core/lv_obj_pos.c **** 
 823:Middlewares/lvgl/src/core/lv_obj_pos.c ****     is_common = _lv_area_intersect(area, area, &obj_coords);
 824:Middlewares/lvgl/src/core/lv_obj_pos.c ****     if(is_common == false) return false;  /*The area is not on the object*/
 825:Middlewares/lvgl/src/core/lv_obj_pos.c **** 
 826:Middlewares/lvgl/src/core/lv_obj_pos.c ****     /*Truncate recursively to the parents*/
 827:Middlewares/lvgl/src/core/lv_obj_pos.c ****     lv_obj_t * par = lv_obj_get_parent(obj);
 828:Middlewares/lvgl/src/core/lv_obj_pos.c ****     while(par != NULL) {
 829:Middlewares/lvgl/src/core/lv_obj_pos.c ****         is_common = _lv_area_intersect(area, area, &par->coords);
 830:Middlewares/lvgl/src/core/lv_obj_pos.c ****         if(is_common == false) return false;       /*If no common parts with parent break;*/
 831:Middlewares/lvgl/src/core/lv_obj_pos.c ****         if(lv_obj_has_flag(par, LV_OBJ_FLAG_HIDDEN)) return false; /*If the parent is hidden then t
 832:Middlewares/lvgl/src/core/lv_obj_pos.c **** 
 833:Middlewares/lvgl/src/core/lv_obj_pos.c ****         par = lv_obj_get_parent(par);
 834:Middlewares/lvgl/src/core/lv_obj_pos.c ****     }
 835:Middlewares/lvgl/src/core/lv_obj_pos.c **** 
 836:Middlewares/lvgl/src/core/lv_obj_pos.c ****     return true;
 837:Middlewares/lvgl/src/core/lv_obj_pos.c **** }
 838:Middlewares/lvgl/src/core/lv_obj_pos.c **** 
 839:Middlewares/lvgl/src/core/lv_obj_pos.c **** bool lv_obj_is_visible(const lv_obj_t * obj)
 840:Middlewares/lvgl/src/core/lv_obj_pos.c **** {
 841:Middlewares/lvgl/src/core/lv_obj_pos.c ****     LV_ASSERT_OBJ(obj, MY_CLASS);
 842:Middlewares/lvgl/src/core/lv_obj_pos.c **** 
 843:Middlewares/lvgl/src/core/lv_obj_pos.c ****     lv_area_t obj_coords;
 844:Middlewares/lvgl/src/core/lv_obj_pos.c ****     lv_coord_t ext_size = _lv_obj_get_ext_draw_size(obj);
 845:Middlewares/lvgl/src/core/lv_obj_pos.c ****     lv_area_copy(&obj_coords, &obj->coords);
 846:Middlewares/lvgl/src/core/lv_obj_pos.c ****     obj_coords.x1 -= ext_size;
 847:Middlewares/lvgl/src/core/lv_obj_pos.c ****     obj_coords.y1 -= ext_size;
 848:Middlewares/lvgl/src/core/lv_obj_pos.c ****     obj_coords.x2 += ext_size;
 849:Middlewares/lvgl/src/core/lv_obj_pos.c ****     obj_coords.y2 += ext_size;
 850:Middlewares/lvgl/src/core/lv_obj_pos.c **** 
 851:Middlewares/lvgl/src/core/lv_obj_pos.c ****     return lv_obj_area_is_visible(obj, &obj_coords);
 852:Middlewares/lvgl/src/core/lv_obj_pos.c **** 
 853:Middlewares/lvgl/src/core/lv_obj_pos.c **** }
 854:Middlewares/lvgl/src/core/lv_obj_pos.c **** 
 855:Middlewares/lvgl/src/core/lv_obj_pos.c **** void lv_obj_set_ext_click_area(lv_obj_t * obj, lv_coord_t size)
 856:Middlewares/lvgl/src/core/lv_obj_pos.c **** {
ARM GAS  /tmp/ccnhv9Lg.s 			page 50


 857:Middlewares/lvgl/src/core/lv_obj_pos.c ****     LV_ASSERT_OBJ(obj, MY_CLASS);
 858:Middlewares/lvgl/src/core/lv_obj_pos.c **** 
 859:Middlewares/lvgl/src/core/lv_obj_pos.c ****     lv_obj_allocate_spec_attr(obj);
 860:Middlewares/lvgl/src/core/lv_obj_pos.c ****     obj->spec_attr->ext_click_pad = size;
 861:Middlewares/lvgl/src/core/lv_obj_pos.c **** }
 862:Middlewares/lvgl/src/core/lv_obj_pos.c **** 
 863:Middlewares/lvgl/src/core/lv_obj_pos.c **** void lv_obj_get_click_area(const lv_obj_t * obj, lv_area_t * area)
 864:Middlewares/lvgl/src/core/lv_obj_pos.c **** {
 865:Middlewares/lvgl/src/core/lv_obj_pos.c ****     lv_area_copy(area, &obj->coords);
 866:Middlewares/lvgl/src/core/lv_obj_pos.c ****     if(obj->spec_attr) {
 867:Middlewares/lvgl/src/core/lv_obj_pos.c ****         area->x1 -= obj->spec_attr->ext_click_pad;
 868:Middlewares/lvgl/src/core/lv_obj_pos.c ****         area->x2 += obj->spec_attr->ext_click_pad;
 869:Middlewares/lvgl/src/core/lv_obj_pos.c ****         area->y1 -= obj->spec_attr->ext_click_pad;
 870:Middlewares/lvgl/src/core/lv_obj_pos.c ****         area->y2 += obj->spec_attr->ext_click_pad;
 871:Middlewares/lvgl/src/core/lv_obj_pos.c ****     }
 872:Middlewares/lvgl/src/core/lv_obj_pos.c **** }
 873:Middlewares/lvgl/src/core/lv_obj_pos.c **** 
 874:Middlewares/lvgl/src/core/lv_obj_pos.c **** bool lv_obj_hit_test(lv_obj_t * obj, const lv_point_t * point)
 875:Middlewares/lvgl/src/core/lv_obj_pos.c **** {
 876:Middlewares/lvgl/src/core/lv_obj_pos.c ****     lv_area_t a;
 877:Middlewares/lvgl/src/core/lv_obj_pos.c ****     lv_obj_get_click_area(obj, &a);
 878:Middlewares/lvgl/src/core/lv_obj_pos.c ****     bool res = _lv_area_is_point_on(&a, point, 0);
 879:Middlewares/lvgl/src/core/lv_obj_pos.c ****     if(res == false) return false;
 880:Middlewares/lvgl/src/core/lv_obj_pos.c **** 
 881:Middlewares/lvgl/src/core/lv_obj_pos.c ****     if(lv_obj_has_flag(obj, LV_OBJ_FLAG_ADV_HITTEST)) {
 882:Middlewares/lvgl/src/core/lv_obj_pos.c ****         lv_hit_test_info_t hit_info;
 883:Middlewares/lvgl/src/core/lv_obj_pos.c ****         hit_info.point = point;
 884:Middlewares/lvgl/src/core/lv_obj_pos.c ****         hit_info.res = true;
 885:Middlewares/lvgl/src/core/lv_obj_pos.c ****         lv_event_send(obj, LV_EVENT_HIT_TEST, &hit_info);
 886:Middlewares/lvgl/src/core/lv_obj_pos.c ****         return hit_info.res;
 887:Middlewares/lvgl/src/core/lv_obj_pos.c ****     }
 888:Middlewares/lvgl/src/core/lv_obj_pos.c **** 
 889:Middlewares/lvgl/src/core/lv_obj_pos.c ****     return res;
 890:Middlewares/lvgl/src/core/lv_obj_pos.c **** }
 891:Middlewares/lvgl/src/core/lv_obj_pos.c **** 
 892:Middlewares/lvgl/src/core/lv_obj_pos.c **** lv_coord_t lv_clamp_width(lv_coord_t width, lv_coord_t min_width, lv_coord_t max_width, lv_coord_t 
 893:Middlewares/lvgl/src/core/lv_obj_pos.c **** {
 894:Middlewares/lvgl/src/core/lv_obj_pos.c ****     if(LV_COORD_IS_PCT(min_width)) min_width = (ref_width * LV_COORD_GET_PCT(min_width)) / 100;
 895:Middlewares/lvgl/src/core/lv_obj_pos.c ****     if(LV_COORD_IS_PCT(max_width)) max_width = (ref_width * LV_COORD_GET_PCT(max_width)) / 100;
 896:Middlewares/lvgl/src/core/lv_obj_pos.c ****     return LV_CLAMP(min_width, width, max_width);
 897:Middlewares/lvgl/src/core/lv_obj_pos.c **** }
 898:Middlewares/lvgl/src/core/lv_obj_pos.c **** 
 899:Middlewares/lvgl/src/core/lv_obj_pos.c **** lv_coord_t lv_clamp_height(lv_coord_t height, lv_coord_t min_height, lv_coord_t max_height, lv_coor
 900:Middlewares/lvgl/src/core/lv_obj_pos.c **** {
 901:Middlewares/lvgl/src/core/lv_obj_pos.c ****     if(LV_COORD_IS_PCT(min_height)) min_height = (ref_height * LV_COORD_GET_PCT(min_height)) / 100;
 902:Middlewares/lvgl/src/core/lv_obj_pos.c ****     if(LV_COORD_IS_PCT(max_height)) max_height = (ref_height * LV_COORD_GET_PCT(max_height)) / 100;
 903:Middlewares/lvgl/src/core/lv_obj_pos.c ****     return LV_CLAMP(min_height, height, max_height);
 904:Middlewares/lvgl/src/core/lv_obj_pos.c **** }
 905:Middlewares/lvgl/src/core/lv_obj_pos.c **** 
 906:Middlewares/lvgl/src/core/lv_obj_pos.c **** 
 907:Middlewares/lvgl/src/core/lv_obj_pos.c **** 
 908:Middlewares/lvgl/src/core/lv_obj_pos.c **** /**********************
 909:Middlewares/lvgl/src/core/lv_obj_pos.c ****  *   STATIC FUNCTIONS
 910:Middlewares/lvgl/src/core/lv_obj_pos.c ****  **********************/
 911:Middlewares/lvgl/src/core/lv_obj_pos.c **** 
 912:Middlewares/lvgl/src/core/lv_obj_pos.c **** /**
 913:Middlewares/lvgl/src/core/lv_obj_pos.c ****  * Calculate the "auto size". It's `auto_size = max(children_size, self_size)`
ARM GAS  /tmp/ccnhv9Lg.s 			page 51


 914:Middlewares/lvgl/src/core/lv_obj_pos.c ****  * @param obj pointer to an object
 915:Middlewares/lvgl/src/core/lv_obj_pos.c ****  * @param w_out store the width here. NULL to not calculate width
 916:Middlewares/lvgl/src/core/lv_obj_pos.c ****  * @param h_out store the height here. NULL to not calculate height
 917:Middlewares/lvgl/src/core/lv_obj_pos.c ****  */
 918:Middlewares/lvgl/src/core/lv_obj_pos.c **** static void calc_auto_size(lv_obj_t * obj, lv_coord_t * w_out, lv_coord_t * h_out)
 919:Middlewares/lvgl/src/core/lv_obj_pos.c **** {
 1397              		.loc 1 919 1 is_stmt 1 view -0
 1398              		.cfi_startproc
 1399              		@ args = 0, pretend = 0, frame = 0
 1400              		@ frame_needed = 0, uses_anonymous_args = 0
 920:Middlewares/lvgl/src/core/lv_obj_pos.c ****     if(!w_out && !h_out) return;
 1401              		.loc 1 920 5 view .LVU378
 1402              		.loc 1 920 7 is_stmt 0 view .LVU379
 1403 0000 0029     		cmp	r1, #0
 1404 0002 08BF     		it	eq
 1405 0004 002A     		cmpeq	r2, #0
 1406 0006 27D0     		beq	.L77
 919:Middlewares/lvgl/src/core/lv_obj_pos.c ****     if(!w_out && !h_out) return;
 1407              		.loc 1 919 1 view .LVU380
 1408 0008 2DE9F041 		push	{r4, r5, r6, r7, r8, lr}
 1409              	.LCFI29:
 1410              		.cfi_def_cfa_offset 24
 1411              		.cfi_offset 4, -24
 1412              		.cfi_offset 5, -20
 1413              		.cfi_offset 6, -16
 1414              		.cfi_offset 7, -12
 1415              		.cfi_offset 8, -8
 1416              		.cfi_offset 14, -4
 1417 000c 0446     		mov	r4, r0
 1418 000e 0E46     		mov	r6, r1
 1419 0010 1546     		mov	r5, r2
 921:Middlewares/lvgl/src/core/lv_obj_pos.c ****     /*Get the bounding box of the children*/
 922:Middlewares/lvgl/src/core/lv_obj_pos.c ****     if(w_out) {
 1420              		.loc 1 922 5 is_stmt 1 view .LVU381
 1421              		.loc 1 922 7 is_stmt 0 view .LVU382
 1422 0012 71B1     		cbz	r1, .L75
 1423              	.LBB149:
 923:Middlewares/lvgl/src/core/lv_obj_pos.c ****         lv_coord_t scroll_right = lv_obj_get_scroll_right(obj);
 1424              		.loc 1 923 9 is_stmt 1 view .LVU383
 1425              		.loc 1 923 35 is_stmt 0 view .LVU384
 1426 0014 FFF7FEFF 		bl	lv_obj_get_scroll_right
 1427              	.LVL123:
 1428              		.loc 1 923 35 view .LVU385
 1429 0018 8046     		mov	r8, r0
 1430              	.LVL124:
 924:Middlewares/lvgl/src/core/lv_obj_pos.c ****         lv_coord_t scroll_left = lv_obj_get_scroll_left(obj);
 1431              		.loc 1 924 9 is_stmt 1 view .LVU386
 1432              		.loc 1 924 34 is_stmt 0 view .LVU387
 1433 001a 2046     		mov	r0, r4
 1434 001c FFF7FEFF 		bl	lv_obj_get_scroll_left
 1435              	.LVL125:
 1436 0020 0746     		mov	r7, r0
 1437              	.LVL126:
 925:Middlewares/lvgl/src/core/lv_obj_pos.c ****         *w_out = lv_obj_get_width(obj) + scroll_right + scroll_left;
 1438              		.loc 1 925 9 is_stmt 1 view .LVU388
 1439              		.loc 1 925 18 is_stmt 0 view .LVU389
 1440 0022 2046     		mov	r0, r4
ARM GAS  /tmp/ccnhv9Lg.s 			page 52


 1441 0024 FFF7FEFF 		bl	lv_obj_get_width
 1442              	.LVL127:
 1443              		.loc 1 925 40 view .LVU390
 1444 0028 18FA80F3 		uxtah	r3, r8, r0
 1445              		.loc 1 925 55 view .LVU391
 1446 002c 17FA83F0 		uxtah	r0, r7, r3
 1447              		.loc 1 925 16 view .LVU392
 1448 0030 3080     		strh	r0, [r6]	@ movhi
 1449              	.LVL128:
 1450              	.L75:
 1451              		.loc 1 925 16 view .LVU393
 1452              	.LBE149:
 926:Middlewares/lvgl/src/core/lv_obj_pos.c ****     }
 927:Middlewares/lvgl/src/core/lv_obj_pos.c **** 
 928:Middlewares/lvgl/src/core/lv_obj_pos.c ****     if(h_out) {
 1453              		.loc 1 928 5 is_stmt 1 view .LVU394
 1454              		.loc 1 928 7 is_stmt 0 view .LVU395
 1455 0032 7DB1     		cbz	r5, .L73
 1456              	.LBB150:
 929:Middlewares/lvgl/src/core/lv_obj_pos.c ****         lv_coord_t scroll_bottom = lv_obj_get_scroll_bottom(obj);
 1457              		.loc 1 929 9 is_stmt 1 view .LVU396
 1458              		.loc 1 929 36 is_stmt 0 view .LVU397
 1459 0034 2046     		mov	r0, r4
 1460 0036 FFF7FEFF 		bl	lv_obj_get_scroll_bottom
 1461              	.LVL129:
 1462 003a 0746     		mov	r7, r0
 1463              	.LVL130:
 930:Middlewares/lvgl/src/core/lv_obj_pos.c ****         lv_coord_t scroll_top = lv_obj_get_scroll_top(obj);
 1464              		.loc 1 930 9 is_stmt 1 view .LVU398
 1465              		.loc 1 930 33 is_stmt 0 view .LVU399
 1466 003c 2046     		mov	r0, r4
 1467 003e FFF7FEFF 		bl	lv_obj_get_scroll_top
 1468              	.LVL131:
 1469 0042 0646     		mov	r6, r0
 1470              	.LVL132:
 931:Middlewares/lvgl/src/core/lv_obj_pos.c ****         *h_out = lv_obj_get_height(obj) + scroll_bottom + scroll_top;
 1471              		.loc 1 931 9 is_stmt 1 view .LVU400
 1472              		.loc 1 931 18 is_stmt 0 view .LVU401
 1473 0044 2046     		mov	r0, r4
 1474 0046 FFF7FEFF 		bl	lv_obj_get_height
 1475              	.LVL133:
 1476              		.loc 1 931 41 view .LVU402
 1477 004a 17FA80F3 		uxtah	r3, r7, r0
 1478              		.loc 1 931 57 view .LVU403
 1479 004e 16FA83F0 		uxtah	r0, r6, r3
 1480              		.loc 1 931 16 view .LVU404
 1481 0052 2880     		strh	r0, [r5]	@ movhi
 1482              	.LVL134:
 1483              	.L73:
 1484              		.loc 1 931 16 view .LVU405
 1485              	.LBE150:
 932:Middlewares/lvgl/src/core/lv_obj_pos.c ****     }
 933:Middlewares/lvgl/src/core/lv_obj_pos.c **** }
 1486              		.loc 1 933 1 view .LVU406
 1487 0054 BDE8F081 		pop	{r4, r5, r6, r7, r8, pc}
 1488              	.LVL135:
 1489              	.L77:
ARM GAS  /tmp/ccnhv9Lg.s 			page 53


 1490              	.LCFI30:
 1491              		.cfi_def_cfa_offset 0
 1492              		.cfi_restore 4
 1493              		.cfi_restore 5
 1494              		.cfi_restore 6
 1495              		.cfi_restore 7
 1496              		.cfi_restore 8
 1497              		.cfi_restore 14
 1498              		.loc 1 933 1 view .LVU407
 1499 0058 7047     		bx	lr
 1500              		.cfi_endproc
 1501              	.LFE195:
 1503              		.section	.text.lv_obj_get_y2,"ax",%progbits
 1504              		.align	1
 1505              		.global	lv_obj_get_y2
 1506              		.syntax unified
 1507              		.thumb
 1508              		.thumb_func
 1510              	lv_obj_get_y2:
 1511              	.LVL136:
 1512              	.LFB174:
 521:Middlewares/lvgl/src/core/lv_obj_pos.c ****     LV_ASSERT_OBJ(obj, MY_CLASS);
 1513              		.loc 1 521 1 is_stmt 1 view -0
 1514              		.cfi_startproc
 1515              		@ args = 0, pretend = 0, frame = 0
 1516              		@ frame_needed = 0, uses_anonymous_args = 0
 521:Middlewares/lvgl/src/core/lv_obj_pos.c ****     LV_ASSERT_OBJ(obj, MY_CLASS);
 1517              		.loc 1 521 1 is_stmt 0 view .LVU409
 1518 0000 38B5     		push	{r3, r4, r5, lr}
 1519              	.LCFI31:
 1520              		.cfi_def_cfa_offset 16
 1521              		.cfi_offset 3, -16
 1522              		.cfi_offset 4, -12
 1523              		.cfi_offset 5, -8
 1524              		.cfi_offset 14, -4
 1525 0002 0546     		mov	r5, r0
 522:Middlewares/lvgl/src/core/lv_obj_pos.c **** 
 1526              		.loc 1 522 5 is_stmt 1 view .LVU410
 522:Middlewares/lvgl/src/core/lv_obj_pos.c **** 
 1527              		.loc 1 522 5 view .LVU411
 522:Middlewares/lvgl/src/core/lv_obj_pos.c **** 
 1528              		.loc 1 522 5 view .LVU412
 524:Middlewares/lvgl/src/core/lv_obj_pos.c **** }
 1529              		.loc 1 524 5 view .LVU413
 524:Middlewares/lvgl/src/core/lv_obj_pos.c **** }
 1530              		.loc 1 524 12 is_stmt 0 view .LVU414
 1531 0004 FFF7FEFF 		bl	lv_obj_get_y
 1532              	.LVL137:
 524:Middlewares/lvgl/src/core/lv_obj_pos.c **** }
 1533              		.loc 1 524 12 view .LVU415
 1534 0008 84B2     		uxth	r4, r0
 524:Middlewares/lvgl/src/core/lv_obj_pos.c **** }
 1535              		.loc 1 524 32 view .LVU416
 1536 000a 2846     		mov	r0, r5
 1537 000c FFF7FEFF 		bl	lv_obj_get_height
 1538              	.LVL138:
 524:Middlewares/lvgl/src/core/lv_obj_pos.c **** }
ARM GAS  /tmp/ccnhv9Lg.s 			page 54


 1539              		.loc 1 524 30 view .LVU417
 1540 0010 14FA80F0 		uxtah	r0, r4, r0
 525:Middlewares/lvgl/src/core/lv_obj_pos.c **** 
 1541              		.loc 1 525 1 view .LVU418
 1542 0014 00B2     		sxth	r0, r0
 1543 0016 38BD     		pop	{r3, r4, r5, pc}
 525:Middlewares/lvgl/src/core/lv_obj_pos.c **** 
 1544              		.loc 1 525 1 view .LVU419
 1545              		.cfi_endproc
 1546              	.LFE174:
 1548              		.section	.text.lv_obj_get_content_width,"ax",%progbits
 1549              		.align	1
 1550              		.global	lv_obj_get_content_width
 1551              		.syntax unified
 1552              		.thumb
 1553              		.thumb_func
 1555              	lv_obj_get_content_width:
 1556              	.LVL139:
 1557              	.LFB177:
 542:Middlewares/lvgl/src/core/lv_obj_pos.c ****     LV_ASSERT_OBJ(obj, MY_CLASS);
 1558              		.loc 1 542 1 is_stmt 1 view -0
 1559              		.cfi_startproc
 1560              		@ args = 0, pretend = 0, frame = 0
 1561              		@ frame_needed = 0, uses_anonymous_args = 0
 542:Middlewares/lvgl/src/core/lv_obj_pos.c ****     LV_ASSERT_OBJ(obj, MY_CLASS);
 1562              		.loc 1 542 1 is_stmt 0 view .LVU421
 1563 0000 F8B5     		push	{r3, r4, r5, r6, r7, lr}
 1564              	.LCFI32:
 1565              		.cfi_def_cfa_offset 24
 1566              		.cfi_offset 3, -24
 1567              		.cfi_offset 4, -20
 1568              		.cfi_offset 5, -16
 1569              		.cfi_offset 6, -12
 1570              		.cfi_offset 7, -8
 1571              		.cfi_offset 14, -4
 1572 0002 0546     		mov	r5, r0
 543:Middlewares/lvgl/src/core/lv_obj_pos.c **** 
 1573              		.loc 1 543 5 is_stmt 1 view .LVU422
 543:Middlewares/lvgl/src/core/lv_obj_pos.c **** 
 1574              		.loc 1 543 5 view .LVU423
 543:Middlewares/lvgl/src/core/lv_obj_pos.c **** 
 1575              		.loc 1 543 5 view .LVU424
 545:Middlewares/lvgl/src/core/lv_obj_pos.c ****     lv_coord_t right = lv_obj_get_style_pad_right(obj, LV_PART_MAIN);
 1576              		.loc 1 545 5 view .LVU425
 1577              	.LVL140:
 1578              	.LBB151:
 1579              	.LBI151:
 103:Middlewares/lvgl/src/core/lv_obj_style_gen.h **** {
 1580              		.loc 2 103 26 view .LVU426
 1581              	.LBB152:
 105:Middlewares/lvgl/src/core/lv_obj_style_gen.h ****     return (lv_coord_t)v.num;
 1582              		.loc 2 105 5 view .LVU427
 105:Middlewares/lvgl/src/core/lv_obj_style_gen.h ****     return (lv_coord_t)v.num;
 1583              		.loc 2 105 26 is_stmt 0 view .LVU428
 1584 0004 41F21202 		movw	r2, #4114
 1585 0008 0021     		movs	r1, #0
 1586 000a FFF7FEFF 		bl	lv_obj_get_style_prop
ARM GAS  /tmp/ccnhv9Lg.s 			page 55


 1587              	.LVL141:
 105:Middlewares/lvgl/src/core/lv_obj_style_gen.h ****     return (lv_coord_t)v.num;
 1588              		.loc 2 105 26 view .LVU429
 1589 000e 0746     		mov	r7, r0
 1590              	.LVL142:
 106:Middlewares/lvgl/src/core/lv_obj_style_gen.h **** }
 1591              		.loc 2 106 5 is_stmt 1 view .LVU430
 106:Middlewares/lvgl/src/core/lv_obj_style_gen.h **** }
 1592              		.loc 2 106 5 is_stmt 0 view .LVU431
 1593              	.LBE152:
 1594              	.LBE151:
 546:Middlewares/lvgl/src/core/lv_obj_pos.c ****     lv_coord_t border_width = lv_obj_get_style_border_width(obj, LV_PART_MAIN);
 1595              		.loc 1 546 5 is_stmt 1 view .LVU432
 1596              	.LBB153:
 1597              	.LBI153:
 109:Middlewares/lvgl/src/core/lv_obj_style_gen.h **** {
 1598              		.loc 2 109 26 view .LVU433
 1599              	.LBB154:
 111:Middlewares/lvgl/src/core/lv_obj_style_gen.h ****     return (lv_coord_t)v.num;
 1600              		.loc 2 111 5 view .LVU434
 111:Middlewares/lvgl/src/core/lv_obj_style_gen.h ****     return (lv_coord_t)v.num;
 1601              		.loc 2 111 26 is_stmt 0 view .LVU435
 1602 0010 41F21302 		movw	r2, #4115
 1603 0014 0021     		movs	r1, #0
 1604 0016 2846     		mov	r0, r5
 1605 0018 FFF7FEFF 		bl	lv_obj_get_style_prop
 1606              	.LVL143:
 1607 001c 0646     		mov	r6, r0
 1608              	.LVL144:
 112:Middlewares/lvgl/src/core/lv_obj_style_gen.h **** }
 1609              		.loc 2 112 5 is_stmt 1 view .LVU436
 112:Middlewares/lvgl/src/core/lv_obj_style_gen.h **** }
 1610              		.loc 2 112 5 is_stmt 0 view .LVU437
 1611              	.LBE154:
 1612              	.LBE153:
 547:Middlewares/lvgl/src/core/lv_obj_pos.c **** 
 1613              		.loc 1 547 5 is_stmt 1 view .LVU438
 1614              	.LBB155:
 1615              	.LBI155:
 295:Middlewares/lvgl/src/core/lv_obj_style_gen.h **** {
 1616              		.loc 2 295 26 view .LVU439
 1617              	.LBB156:
 297:Middlewares/lvgl/src/core/lv_obj_style_gen.h ****     return (lv_coord_t)v.num;
 1618              		.loc 2 297 5 view .LVU440
 297:Middlewares/lvgl/src/core/lv_obj_style_gen.h ****     return (lv_coord_t)v.num;
 1619              		.loc 2 297 26 is_stmt 0 view .LVU441
 1620 001e 41F23202 		movw	r2, #4146
 1621 0022 0021     		movs	r1, #0
 1622 0024 2846     		mov	r0, r5
 1623 0026 FFF7FEFF 		bl	lv_obj_get_style_prop
 1624              	.LVL145:
 1625 002a 0446     		mov	r4, r0
 1626              	.LVL146:
 1627              		.loc 2 298 5 is_stmt 1 view .LVU442
 1628              		.loc 2 298 5 is_stmt 0 view .LVU443
 1629              	.LBE156:
 1630              	.LBE155:
ARM GAS  /tmp/ccnhv9Lg.s 			page 56


 549:Middlewares/lvgl/src/core/lv_obj_pos.c **** }
 1631              		.loc 1 549 5 is_stmt 1 view .LVU444
 549:Middlewares/lvgl/src/core/lv_obj_pos.c **** }
 1632              		.loc 1 549 12 is_stmt 0 view .LVU445
 1633 002c 2846     		mov	r0, r5
 1634 002e FFF7FEFF 		bl	lv_obj_get_width
 1635              	.LVL147:
 1636 0032 83B2     		uxth	r3, r0
 549:Middlewares/lvgl/src/core/lv_obj_pos.c **** }
 1637              		.loc 1 549 34 view .LVU446
 1638 0034 DB1B     		subs	r3, r3, r7
 1639 0036 9BB2     		uxth	r3, r3
 549:Middlewares/lvgl/src/core/lv_obj_pos.c **** }
 1640              		.loc 1 549 41 view .LVU447
 1641 0038 9B1B     		subs	r3, r3, r6
 1642 003a 9BB2     		uxth	r3, r3
 549:Middlewares/lvgl/src/core/lv_obj_pos.c **** }
 1643              		.loc 1 549 53 view .LVU448
 1644 003c 6000     		lsls	r0, r4, #1
 1645 003e 80B2     		uxth	r0, r0
 549:Middlewares/lvgl/src/core/lv_obj_pos.c **** }
 1646              		.loc 1 549 49 view .LVU449
 1647 0040 181A     		subs	r0, r3, r0
 550:Middlewares/lvgl/src/core/lv_obj_pos.c **** 
 1648              		.loc 1 550 1 view .LVU450
 1649 0042 00B2     		sxth	r0, r0
 1650 0044 F8BD     		pop	{r3, r4, r5, r6, r7, pc}
 550:Middlewares/lvgl/src/core/lv_obj_pos.c **** 
 1651              		.loc 1 550 1 view .LVU451
 1652              		.cfi_endproc
 1653              	.LFE177:
 1655              		.section	.text.lv_obj_get_content_height,"ax",%progbits
 1656              		.align	1
 1657              		.global	lv_obj_get_content_height
 1658              		.syntax unified
 1659              		.thumb
 1660              		.thumb_func
 1662              	lv_obj_get_content_height:
 1663              	.LVL148:
 1664              	.LFB178:
 553:Middlewares/lvgl/src/core/lv_obj_pos.c ****     LV_ASSERT_OBJ(obj, MY_CLASS);
 1665              		.loc 1 553 1 is_stmt 1 view -0
 1666              		.cfi_startproc
 1667              		@ args = 0, pretend = 0, frame = 0
 1668              		@ frame_needed = 0, uses_anonymous_args = 0
 553:Middlewares/lvgl/src/core/lv_obj_pos.c ****     LV_ASSERT_OBJ(obj, MY_CLASS);
 1669              		.loc 1 553 1 is_stmt 0 view .LVU453
 1670 0000 F8B5     		push	{r3, r4, r5, r6, r7, lr}
 1671              	.LCFI33:
 1672              		.cfi_def_cfa_offset 24
 1673              		.cfi_offset 3, -24
 1674              		.cfi_offset 4, -20
 1675              		.cfi_offset 5, -16
 1676              		.cfi_offset 6, -12
 1677              		.cfi_offset 7, -8
 1678              		.cfi_offset 14, -4
 1679 0002 0546     		mov	r5, r0
ARM GAS  /tmp/ccnhv9Lg.s 			page 57


 554:Middlewares/lvgl/src/core/lv_obj_pos.c **** 
 1680              		.loc 1 554 5 is_stmt 1 view .LVU454
 554:Middlewares/lvgl/src/core/lv_obj_pos.c **** 
 1681              		.loc 1 554 5 view .LVU455
 554:Middlewares/lvgl/src/core/lv_obj_pos.c **** 
 1682              		.loc 1 554 5 view .LVU456
 556:Middlewares/lvgl/src/core/lv_obj_pos.c ****     lv_coord_t bottom =  lv_obj_get_style_pad_bottom(obj, LV_PART_MAIN);
 1683              		.loc 1 556 5 view .LVU457
 1684              	.LVL149:
 1685              	.LBB157:
 1686              	.LBI157:
  91:Middlewares/lvgl/src/core/lv_obj_style_gen.h **** {
 1687              		.loc 2 91 26 view .LVU458
 1688              	.LBB158:
  93:Middlewares/lvgl/src/core/lv_obj_style_gen.h ****     return (lv_coord_t)v.num;
 1689              		.loc 2 93 5 view .LVU459
  93:Middlewares/lvgl/src/core/lv_obj_style_gen.h ****     return (lv_coord_t)v.num;
 1690              		.loc 2 93 26 is_stmt 0 view .LVU460
 1691 0004 41F21002 		movw	r2, #4112
 1692 0008 0021     		movs	r1, #0
 1693 000a FFF7FEFF 		bl	lv_obj_get_style_prop
 1694              	.LVL150:
  93:Middlewares/lvgl/src/core/lv_obj_style_gen.h ****     return (lv_coord_t)v.num;
 1695              		.loc 2 93 26 view .LVU461
 1696 000e 0746     		mov	r7, r0
 1697              	.LVL151:
  94:Middlewares/lvgl/src/core/lv_obj_style_gen.h **** }
 1698              		.loc 2 94 5 is_stmt 1 view .LVU462
  94:Middlewares/lvgl/src/core/lv_obj_style_gen.h **** }
 1699              		.loc 2 94 5 is_stmt 0 view .LVU463
 1700              	.LBE158:
 1701              	.LBE157:
 557:Middlewares/lvgl/src/core/lv_obj_pos.c ****     lv_coord_t border_width = lv_obj_get_style_border_width(obj, LV_PART_MAIN);
 1702              		.loc 1 557 5 is_stmt 1 view .LVU464
 1703              	.LBB159:
 1704              	.LBI159:
  97:Middlewares/lvgl/src/core/lv_obj_style_gen.h **** {
 1705              		.loc 2 97 26 view .LVU465
 1706              	.LBB160:
  99:Middlewares/lvgl/src/core/lv_obj_style_gen.h ****     return (lv_coord_t)v.num;
 1707              		.loc 2 99 5 view .LVU466
  99:Middlewares/lvgl/src/core/lv_obj_style_gen.h ****     return (lv_coord_t)v.num;
 1708              		.loc 2 99 26 is_stmt 0 view .LVU467
 1709 0010 41F21102 		movw	r2, #4113
 1710 0014 0021     		movs	r1, #0
 1711 0016 2846     		mov	r0, r5
 1712 0018 FFF7FEFF 		bl	lv_obj_get_style_prop
 1713              	.LVL152:
 1714 001c 0646     		mov	r6, r0
 1715              	.LVL153:
 100:Middlewares/lvgl/src/core/lv_obj_style_gen.h **** }
 1716              		.loc 2 100 5 is_stmt 1 view .LVU468
 100:Middlewares/lvgl/src/core/lv_obj_style_gen.h **** }
 1717              		.loc 2 100 5 is_stmt 0 view .LVU469
 1718              	.LBE160:
 1719              	.LBE159:
 558:Middlewares/lvgl/src/core/lv_obj_pos.c **** 
ARM GAS  /tmp/ccnhv9Lg.s 			page 58


 1720              		.loc 1 558 5 is_stmt 1 view .LVU470
 1721              	.LBB161:
 1722              	.LBI161:
 295:Middlewares/lvgl/src/core/lv_obj_style_gen.h **** {
 1723              		.loc 2 295 26 view .LVU471
 1724              	.LBB162:
 297:Middlewares/lvgl/src/core/lv_obj_style_gen.h ****     return (lv_coord_t)v.num;
 1725              		.loc 2 297 5 view .LVU472
 297:Middlewares/lvgl/src/core/lv_obj_style_gen.h ****     return (lv_coord_t)v.num;
 1726              		.loc 2 297 26 is_stmt 0 view .LVU473
 1727 001e 41F23202 		movw	r2, #4146
 1728 0022 0021     		movs	r1, #0
 1729 0024 2846     		mov	r0, r5
 1730 0026 FFF7FEFF 		bl	lv_obj_get_style_prop
 1731              	.LVL154:
 1732 002a 0446     		mov	r4, r0
 1733              	.LVL155:
 1734              		.loc 2 298 5 is_stmt 1 view .LVU474
 1735              		.loc 2 298 5 is_stmt 0 view .LVU475
 1736              	.LBE162:
 1737              	.LBE161:
 560:Middlewares/lvgl/src/core/lv_obj_pos.c **** }
 1738              		.loc 1 560 5 is_stmt 1 view .LVU476
 560:Middlewares/lvgl/src/core/lv_obj_pos.c **** }
 1739              		.loc 1 560 12 is_stmt 0 view .LVU477
 1740 002c 2846     		mov	r0, r5
 1741 002e FFF7FEFF 		bl	lv_obj_get_height
 1742              	.LVL156:
 1743 0032 83B2     		uxth	r3, r0
 560:Middlewares/lvgl/src/core/lv_obj_pos.c **** }
 1744              		.loc 1 560 35 view .LVU478
 1745 0034 DB1B     		subs	r3, r3, r7
 1746 0036 9BB2     		uxth	r3, r3
 560:Middlewares/lvgl/src/core/lv_obj_pos.c **** }
 1747              		.loc 1 560 41 view .LVU479
 1748 0038 9B1B     		subs	r3, r3, r6
 1749 003a 9BB2     		uxth	r3, r3
 560:Middlewares/lvgl/src/core/lv_obj_pos.c **** }
 1750              		.loc 1 560 54 view .LVU480
 1751 003c 6000     		lsls	r0, r4, #1
 1752 003e 80B2     		uxth	r0, r0
 560:Middlewares/lvgl/src/core/lv_obj_pos.c **** }
 1753              		.loc 1 560 50 view .LVU481
 1754 0040 181A     		subs	r0, r3, r0
 561:Middlewares/lvgl/src/core/lv_obj_pos.c **** 
 1755              		.loc 1 561 1 view .LVU482
 1756 0042 00B2     		sxth	r0, r0
 1757 0044 F8BD     		pop	{r3, r4, r5, r6, r7, pc}
 561:Middlewares/lvgl/src/core/lv_obj_pos.c **** 
 1758              		.loc 1 561 1 view .LVU483
 1759              		.cfi_endproc
 1760              	.LFE178:
 1762              		.section	.text.lv_obj_get_content_coords,"ax",%progbits
 1763              		.align	1
 1764              		.global	lv_obj_get_content_coords
 1765              		.syntax unified
 1766              		.thumb
ARM GAS  /tmp/ccnhv9Lg.s 			page 59


 1767              		.thumb_func
 1769              	lv_obj_get_content_coords:
 1770              	.LVL157:
 1771              	.LFB179:
 564:Middlewares/lvgl/src/core/lv_obj_pos.c ****     LV_ASSERT_OBJ(obj, MY_CLASS);
 1772              		.loc 1 564 1 is_stmt 1 view -0
 1773              		.cfi_startproc
 1774              		@ args = 0, pretend = 0, frame = 0
 1775              		@ frame_needed = 0, uses_anonymous_args = 0
 564:Middlewares/lvgl/src/core/lv_obj_pos.c ****     LV_ASSERT_OBJ(obj, MY_CLASS);
 1776              		.loc 1 564 1 is_stmt 0 view .LVU485
 1777 0000 70B5     		push	{r4, r5, r6, lr}
 1778              	.LCFI34:
 1779              		.cfi_def_cfa_offset 16
 1780              		.cfi_offset 4, -16
 1781              		.cfi_offset 5, -12
 1782              		.cfi_offset 6, -8
 1783              		.cfi_offset 14, -4
 1784 0002 0646     		mov	r6, r0
 1785 0004 0C46     		mov	r4, r1
 565:Middlewares/lvgl/src/core/lv_obj_pos.c ****     lv_coord_t border_width = lv_obj_get_style_border_width(obj, LV_PART_MAIN);
 1786              		.loc 1 565 5 is_stmt 1 view .LVU486
 565:Middlewares/lvgl/src/core/lv_obj_pos.c ****     lv_coord_t border_width = lv_obj_get_style_border_width(obj, LV_PART_MAIN);
 1787              		.loc 1 565 5 view .LVU487
 565:Middlewares/lvgl/src/core/lv_obj_pos.c ****     lv_coord_t border_width = lv_obj_get_style_border_width(obj, LV_PART_MAIN);
 1788              		.loc 1 565 5 view .LVU488
 566:Middlewares/lvgl/src/core/lv_obj_pos.c **** 
 1789              		.loc 1 566 5 view .LVU489
 1790              	.LVL158:
 1791              	.LBB163:
 1792              	.LBI163:
 295:Middlewares/lvgl/src/core/lv_obj_style_gen.h **** {
 1793              		.loc 2 295 26 view .LVU490
 1794              	.LBB164:
 297:Middlewares/lvgl/src/core/lv_obj_style_gen.h ****     return (lv_coord_t)v.num;
 1795              		.loc 2 297 5 view .LVU491
 297:Middlewares/lvgl/src/core/lv_obj_style_gen.h ****     return (lv_coord_t)v.num;
 1796              		.loc 2 297 26 is_stmt 0 view .LVU492
 1797 0006 41F23202 		movw	r2, #4146
 1798 000a 0021     		movs	r1, #0
 1799              	.LVL159:
 297:Middlewares/lvgl/src/core/lv_obj_style_gen.h ****     return (lv_coord_t)v.num;
 1800              		.loc 2 297 26 view .LVU493
 1801 000c FFF7FEFF 		bl	lv_obj_get_style_prop
 1802              	.LVL160:
 297:Middlewares/lvgl/src/core/lv_obj_style_gen.h ****     return (lv_coord_t)v.num;
 1803              		.loc 2 297 26 view .LVU494
 1804 0010 0546     		mov	r5, r0
 1805              	.LVL161:
 1806              		.loc 2 298 5 is_stmt 1 view .LVU495
 1807              		.loc 2 298 5 is_stmt 0 view .LVU496
 1808              	.LBE164:
 1809              	.LBE163:
 568:Middlewares/lvgl/src/core/lv_obj_pos.c ****     lv_area_increase(area, -border_width, -border_width);
 1810              		.loc 1 568 5 is_stmt 1 view .LVU497
 1811 0012 2146     		mov	r1, r4
 1812 0014 3046     		mov	r0, r6
ARM GAS  /tmp/ccnhv9Lg.s 			page 60


 1813 0016 FFF7FEFF 		bl	lv_obj_get_coords
 1814              	.LVL162:
 569:Middlewares/lvgl/src/core/lv_obj_pos.c ****     area->x1 += lv_obj_get_style_pad_left(obj, LV_PART_MAIN);
 1815              		.loc 1 569 5 view .LVU498
 1816 001a 6942     		rsbs	r1, r5, #0
 1817 001c 09B2     		sxth	r1, r1
 1818 001e 0A46     		mov	r2, r1
 1819 0020 2046     		mov	r0, r4
 1820 0022 FFF7FEFF 		bl	lv_area_increase
 1821              	.LVL163:
 570:Middlewares/lvgl/src/core/lv_obj_pos.c ****     area->x2 -= lv_obj_get_style_pad_right(obj, LV_PART_MAIN);
 1822              		.loc 1 570 5 view .LVU499
 1823              	.LBB165:
 1824              	.LBI165:
 103:Middlewares/lvgl/src/core/lv_obj_style_gen.h **** {
 1825              		.loc 2 103 26 view .LVU500
 1826              	.LBB166:
 105:Middlewares/lvgl/src/core/lv_obj_style_gen.h ****     return (lv_coord_t)v.num;
 1827              		.loc 2 105 5 view .LVU501
 105:Middlewares/lvgl/src/core/lv_obj_style_gen.h ****     return (lv_coord_t)v.num;
 1828              		.loc 2 105 26 is_stmt 0 view .LVU502
 1829 0026 41F21202 		movw	r2, #4114
 1830 002a 0021     		movs	r1, #0
 1831 002c 3046     		mov	r0, r6
 1832 002e FFF7FEFF 		bl	lv_obj_get_style_prop
 1833              	.LVL164:
 106:Middlewares/lvgl/src/core/lv_obj_style_gen.h **** }
 1834              		.loc 2 106 5 is_stmt 1 view .LVU503
 106:Middlewares/lvgl/src/core/lv_obj_style_gen.h **** }
 1835              		.loc 2 106 5 is_stmt 0 view .LVU504
 1836              	.LBE166:
 1837              	.LBE165:
 570:Middlewares/lvgl/src/core/lv_obj_pos.c ****     area->x2 -= lv_obj_get_style_pad_right(obj, LV_PART_MAIN);
 1838              		.loc 1 570 14 view .LVU505
 1839 0032 2388     		ldrh	r3, [r4]
 1840 0034 13FA80F0 		uxtah	r0, r3, r0
 1841 0038 2080     		strh	r0, [r4]	@ movhi
 571:Middlewares/lvgl/src/core/lv_obj_pos.c ****     area->y1 += lv_obj_get_style_pad_top(obj, LV_PART_MAIN);
 1842              		.loc 1 571 5 is_stmt 1 view .LVU506
 1843              	.LVL165:
 1844              	.LBB167:
 1845              	.LBI167:
 109:Middlewares/lvgl/src/core/lv_obj_style_gen.h **** {
 1846              		.loc 2 109 26 view .LVU507
 1847              	.LBB168:
 111:Middlewares/lvgl/src/core/lv_obj_style_gen.h ****     return (lv_coord_t)v.num;
 1848              		.loc 2 111 5 view .LVU508
 111:Middlewares/lvgl/src/core/lv_obj_style_gen.h ****     return (lv_coord_t)v.num;
 1849              		.loc 2 111 26 is_stmt 0 view .LVU509
 1850 003a 41F21302 		movw	r2, #4115
 1851 003e 0021     		movs	r1, #0
 1852 0040 3046     		mov	r0, r6
 1853 0042 FFF7FEFF 		bl	lv_obj_get_style_prop
 1854              	.LVL166:
 112:Middlewares/lvgl/src/core/lv_obj_style_gen.h **** }
 1855              		.loc 2 112 5 is_stmt 1 view .LVU510
 112:Middlewares/lvgl/src/core/lv_obj_style_gen.h **** }
ARM GAS  /tmp/ccnhv9Lg.s 			page 61


 1856              		.loc 2 112 5 is_stmt 0 view .LVU511
 1857              	.LBE168:
 1858              	.LBE167:
 571:Middlewares/lvgl/src/core/lv_obj_pos.c ****     area->y1 += lv_obj_get_style_pad_top(obj, LV_PART_MAIN);
 1859              		.loc 1 571 17 view .LVU512
 1860 0046 83B2     		uxth	r3, r0
 571:Middlewares/lvgl/src/core/lv_obj_pos.c ****     area->y1 += lv_obj_get_style_pad_top(obj, LV_PART_MAIN);
 1861              		.loc 1 571 14 view .LVU513
 1862 0048 A088     		ldrh	r0, [r4, #4]
 1863 004a C01A     		subs	r0, r0, r3
 1864 004c A080     		strh	r0, [r4, #4]	@ movhi
 572:Middlewares/lvgl/src/core/lv_obj_pos.c ****     area->y2 -= lv_obj_get_style_pad_bottom(obj, LV_PART_MAIN);
 1865              		.loc 1 572 5 is_stmt 1 view .LVU514
 1866              	.LVL167:
 1867              	.LBB169:
 1868              	.LBI169:
  91:Middlewares/lvgl/src/core/lv_obj_style_gen.h **** {
 1869              		.loc 2 91 26 view .LVU515
 1870              	.LBB170:
  93:Middlewares/lvgl/src/core/lv_obj_style_gen.h ****     return (lv_coord_t)v.num;
 1871              		.loc 2 93 5 view .LVU516
  93:Middlewares/lvgl/src/core/lv_obj_style_gen.h ****     return (lv_coord_t)v.num;
 1872              		.loc 2 93 26 is_stmt 0 view .LVU517
 1873 004e 41F21002 		movw	r2, #4112
 1874 0052 0021     		movs	r1, #0
 1875 0054 3046     		mov	r0, r6
 1876 0056 FFF7FEFF 		bl	lv_obj_get_style_prop
 1877              	.LVL168:
  94:Middlewares/lvgl/src/core/lv_obj_style_gen.h **** }
 1878              		.loc 2 94 5 is_stmt 1 view .LVU518
  94:Middlewares/lvgl/src/core/lv_obj_style_gen.h **** }
 1879              		.loc 2 94 5 is_stmt 0 view .LVU519
 1880              	.LBE170:
 1881              	.LBE169:
 572:Middlewares/lvgl/src/core/lv_obj_pos.c ****     area->y2 -= lv_obj_get_style_pad_bottom(obj, LV_PART_MAIN);
 1882              		.loc 1 572 14 view .LVU520
 1883 005a 6388     		ldrh	r3, [r4, #2]
 1884 005c 13FA80F0 		uxtah	r0, r3, r0
 1885 0060 6080     		strh	r0, [r4, #2]	@ movhi
 573:Middlewares/lvgl/src/core/lv_obj_pos.c **** 
 1886              		.loc 1 573 5 is_stmt 1 view .LVU521
 1887              	.LVL169:
 1888              	.LBB171:
 1889              	.LBI171:
  97:Middlewares/lvgl/src/core/lv_obj_style_gen.h **** {
 1890              		.loc 2 97 26 view .LVU522
 1891              	.LBB172:
  99:Middlewares/lvgl/src/core/lv_obj_style_gen.h ****     return (lv_coord_t)v.num;
 1892              		.loc 2 99 5 view .LVU523
  99:Middlewares/lvgl/src/core/lv_obj_style_gen.h ****     return (lv_coord_t)v.num;
 1893              		.loc 2 99 26 is_stmt 0 view .LVU524
 1894 0062 41F21102 		movw	r2, #4113
 1895 0066 0021     		movs	r1, #0
 1896 0068 3046     		mov	r0, r6
 1897 006a FFF7FEFF 		bl	lv_obj_get_style_prop
 1898              	.LVL170:
 100:Middlewares/lvgl/src/core/lv_obj_style_gen.h **** }
ARM GAS  /tmp/ccnhv9Lg.s 			page 62


 1899              		.loc 2 100 5 is_stmt 1 view .LVU525
 100:Middlewares/lvgl/src/core/lv_obj_style_gen.h **** }
 1900              		.loc 2 100 5 is_stmt 0 view .LVU526
 1901              	.LBE172:
 1902              	.LBE171:
 573:Middlewares/lvgl/src/core/lv_obj_pos.c **** 
 1903              		.loc 1 573 17 view .LVU527
 1904 006e 83B2     		uxth	r3, r0
 573:Middlewares/lvgl/src/core/lv_obj_pos.c **** 
 1905              		.loc 1 573 14 view .LVU528
 1906 0070 E088     		ldrh	r0, [r4, #6]
 1907 0072 C01A     		subs	r0, r0, r3
 1908 0074 E080     		strh	r0, [r4, #6]	@ movhi
 575:Middlewares/lvgl/src/core/lv_obj_pos.c **** 
 1909              		.loc 1 575 1 view .LVU529
 1910 0076 70BD     		pop	{r4, r5, r6, pc}
 575:Middlewares/lvgl/src/core/lv_obj_pos.c **** 
 1911              		.loc 1 575 1 view .LVU530
 1912              		.cfi_endproc
 1913              	.LFE179:
 1915              		.section	.text.lv_obj_get_self_width,"ax",%progbits
 1916              		.align	1
 1917              		.global	lv_obj_get_self_width
 1918              		.syntax unified
 1919              		.thumb
 1920              		.thumb_func
 1922              	lv_obj_get_self_width:
 1923              	.LVL171:
 1924              	.LFB180:
 578:Middlewares/lvgl/src/core/lv_obj_pos.c ****     lv_point_t p = {0, LV_COORD_MIN};
 1925              		.loc 1 578 1 is_stmt 1 view -0
 1926              		.cfi_startproc
 1927              		@ args = 0, pretend = 0, frame = 8
 1928              		@ frame_needed = 0, uses_anonymous_args = 0
 578:Middlewares/lvgl/src/core/lv_obj_pos.c ****     lv_point_t p = {0, LV_COORD_MIN};
 1929              		.loc 1 578 1 is_stmt 0 view .LVU532
 1930 0000 00B5     		push	{lr}
 1931              	.LCFI35:
 1932              		.cfi_def_cfa_offset 4
 1933              		.cfi_offset 14, -4
 1934 0002 83B0     		sub	sp, sp, #12
 1935              	.LCFI36:
 1936              		.cfi_def_cfa_offset 16
 579:Middlewares/lvgl/src/core/lv_obj_pos.c ****     lv_event_send((lv_obj_t * )obj, LV_EVENT_GET_SELF_SIZE, &p);
 1937              		.loc 1 579 5 is_stmt 1 view .LVU533
 579:Middlewares/lvgl/src/core/lv_obj_pos.c ****     lv_event_send((lv_obj_t * )obj, LV_EVENT_GET_SELF_SIZE, &p);
 1938              		.loc 1 579 16 is_stmt 0 view .LVU534
 1939 0004 0023     		movs	r3, #0
 1940 0006 ADF80430 		strh	r3, [sp, #4]	@ movhi
 1941 000a 4FF42043 		mov	r3, #40960
 1942 000e ADF80630 		strh	r3, [sp, #6]	@ movhi
 580:Middlewares/lvgl/src/core/lv_obj_pos.c ****     return p.x;
 1943              		.loc 1 580 5 is_stmt 1 view .LVU535
 1944 0012 01AA     		add	r2, sp, #4
 1945 0014 2621     		movs	r1, #38
 1946 0016 FFF7FEFF 		bl	lv_event_send
 1947              	.LVL172:
ARM GAS  /tmp/ccnhv9Lg.s 			page 63


 581:Middlewares/lvgl/src/core/lv_obj_pos.c **** }
 1948              		.loc 1 581 5 view .LVU536
 582:Middlewares/lvgl/src/core/lv_obj_pos.c **** 
 1949              		.loc 1 582 1 is_stmt 0 view .LVU537
 1950 001a BDF90400 		ldrsh	r0, [sp, #4]
 1951 001e 03B0     		add	sp, sp, #12
 1952              	.LCFI37:
 1953              		.cfi_def_cfa_offset 4
 1954              		@ sp needed
 1955 0020 5DF804FB 		ldr	pc, [sp], #4
 1956              		.cfi_endproc
 1957              	.LFE180:
 1959              		.section	.text.lv_obj_get_self_height,"ax",%progbits
 1960              		.align	1
 1961              		.global	lv_obj_get_self_height
 1962              		.syntax unified
 1963              		.thumb
 1964              		.thumb_func
 1966              	lv_obj_get_self_height:
 1967              	.LVL173:
 1968              	.LFB181:
 585:Middlewares/lvgl/src/core/lv_obj_pos.c ****     lv_point_t p = {LV_COORD_MIN, 0};
 1969              		.loc 1 585 1 is_stmt 1 view -0
 1970              		.cfi_startproc
 1971              		@ args = 0, pretend = 0, frame = 8
 1972              		@ frame_needed = 0, uses_anonymous_args = 0
 585:Middlewares/lvgl/src/core/lv_obj_pos.c ****     lv_point_t p = {LV_COORD_MIN, 0};
 1973              		.loc 1 585 1 is_stmt 0 view .LVU539
 1974 0000 00B5     		push	{lr}
 1975              	.LCFI38:
 1976              		.cfi_def_cfa_offset 4
 1977              		.cfi_offset 14, -4
 1978 0002 83B0     		sub	sp, sp, #12
 1979              	.LCFI39:
 1980              		.cfi_def_cfa_offset 16
 586:Middlewares/lvgl/src/core/lv_obj_pos.c ****     lv_event_send((lv_obj_t * )obj, LV_EVENT_GET_SELF_SIZE, &p);
 1981              		.loc 1 586 5 is_stmt 1 view .LVU540
 586:Middlewares/lvgl/src/core/lv_obj_pos.c ****     lv_event_send((lv_obj_t * )obj, LV_EVENT_GET_SELF_SIZE, &p);
 1982              		.loc 1 586 16 is_stmt 0 view .LVU541
 1983 0004 4FF42043 		mov	r3, #40960
 1984 0008 ADF80430 		strh	r3, [sp, #4]	@ movhi
 1985 000c 0023     		movs	r3, #0
 1986 000e ADF80630 		strh	r3, [sp, #6]	@ movhi
 587:Middlewares/lvgl/src/core/lv_obj_pos.c ****     return p.y;
 1987              		.loc 1 587 5 is_stmt 1 view .LVU542
 1988 0012 01AA     		add	r2, sp, #4
 1989 0014 2621     		movs	r1, #38
 1990 0016 FFF7FEFF 		bl	lv_event_send
 1991              	.LVL174:
 588:Middlewares/lvgl/src/core/lv_obj_pos.c **** }
 1992              		.loc 1 588 5 view .LVU543
 589:Middlewares/lvgl/src/core/lv_obj_pos.c **** 
 1993              		.loc 1 589 1 is_stmt 0 view .LVU544
 1994 001a BDF90600 		ldrsh	r0, [sp, #6]
 1995 001e 03B0     		add	sp, sp, #12
 1996              	.LCFI40:
 1997              		.cfi_def_cfa_offset 4
ARM GAS  /tmp/ccnhv9Lg.s 			page 64


 1998              		@ sp needed
 1999 0020 5DF804FB 		ldr	pc, [sp], #4
 2000              		.cfi_endproc
 2001              	.LFE181:
 2003              		.section	.text.lv_obj_refresh_self_size,"ax",%progbits
 2004              		.align	1
 2005              		.global	lv_obj_refresh_self_size
 2006              		.syntax unified
 2007              		.thumb
 2008              		.thumb_func
 2010              	lv_obj_refresh_self_size:
 2011              	.LVL175:
 2012              	.LFB182:
 592:Middlewares/lvgl/src/core/lv_obj_pos.c ****     lv_coord_t w_set = lv_obj_get_style_width(obj, LV_PART_MAIN);
 2013              		.loc 1 592 1 is_stmt 1 view -0
 2014              		.cfi_startproc
 2015              		@ args = 0, pretend = 0, frame = 0
 2016              		@ frame_needed = 0, uses_anonymous_args = 0
 592:Middlewares/lvgl/src/core/lv_obj_pos.c ****     lv_coord_t w_set = lv_obj_get_style_width(obj, LV_PART_MAIN);
 2017              		.loc 1 592 1 is_stmt 0 view .LVU546
 2018 0000 38B5     		push	{r3, r4, r5, lr}
 2019              	.LCFI41:
 2020              		.cfi_def_cfa_offset 16
 2021              		.cfi_offset 3, -16
 2022              		.cfi_offset 4, -12
 2023              		.cfi_offset 5, -8
 2024              		.cfi_offset 14, -4
 2025 0002 0446     		mov	r4, r0
 593:Middlewares/lvgl/src/core/lv_obj_pos.c ****     lv_coord_t h_set = lv_obj_get_style_height(obj, LV_PART_MAIN);
 2026              		.loc 1 593 5 is_stmt 1 view .LVU547
 2027              	.LVL176:
 2028              	.LBB173:
 2029              	.LBI173:
   1:Middlewares/lvgl/src/core/lv_obj_style_gen.h **** {
 2030              		.loc 2 1 26 view .LVU548
 2031              	.LBB174:
   3:Middlewares/lvgl/src/core/lv_obj_style_gen.h ****     return (lv_coord_t)v.num;
 2032              		.loc 2 3 5 view .LVU549
   3:Middlewares/lvgl/src/core/lv_obj_style_gen.h ****     return (lv_coord_t)v.num;
 2033              		.loc 2 3 26 is_stmt 0 view .LVU550
 2034 0004 41F20102 		movw	r2, #4097
 2035 0008 0021     		movs	r1, #0
 2036 000a FFF7FEFF 		bl	lv_obj_get_style_prop
 2037              	.LVL177:
   4:Middlewares/lvgl/src/core/lv_obj_style_gen.h **** }
 2038              		.loc 2 4 5 is_stmt 1 view .LVU551
   4:Middlewares/lvgl/src/core/lv_obj_style_gen.h **** }
 2039              		.loc 2 4 12 is_stmt 0 view .LVU552
 2040 000e 05B2     		sxth	r5, r0
 2041              	.LVL178:
   4:Middlewares/lvgl/src/core/lv_obj_style_gen.h **** }
 2042              		.loc 2 4 12 view .LVU553
 2043              	.LBE174:
 2044              	.LBE173:
 594:Middlewares/lvgl/src/core/lv_obj_pos.c ****     if(w_set != LV_SIZE_CONTENT && h_set != LV_SIZE_CONTENT) return false;
 2045              		.loc 1 594 5 is_stmt 1 view .LVU554
 2046              	.LBB175:
ARM GAS  /tmp/ccnhv9Lg.s 			page 65


 2047              	.LBI175:
  19:Middlewares/lvgl/src/core/lv_obj_style_gen.h **** {
 2048              		.loc 2 19 26 view .LVU555
 2049              	.LBB176:
  21:Middlewares/lvgl/src/core/lv_obj_style_gen.h ****     return (lv_coord_t)v.num;
 2050              		.loc 2 21 5 view .LVU556
  21:Middlewares/lvgl/src/core/lv_obj_style_gen.h ****     return (lv_coord_t)v.num;
 2051              		.loc 2 21 26 is_stmt 0 view .LVU557
 2052 0010 41F20402 		movw	r2, #4100
 2053 0014 0021     		movs	r1, #0
 2054 0016 2046     		mov	r0, r4
 2055 0018 FFF7FEFF 		bl	lv_obj_get_style_prop
 2056              	.LVL179:
  22:Middlewares/lvgl/src/core/lv_obj_style_gen.h **** }
 2057              		.loc 2 22 5 is_stmt 1 view .LVU558
  22:Middlewares/lvgl/src/core/lv_obj_style_gen.h **** }
 2058              		.loc 2 22 12 is_stmt 0 view .LVU559
 2059 001c 00B2     		sxth	r0, r0
 2060              	.LVL180:
  22:Middlewares/lvgl/src/core/lv_obj_style_gen.h **** }
 2061              		.loc 2 22 12 view .LVU560
 2062              	.LBE176:
 2063              	.LBE175:
 595:Middlewares/lvgl/src/core/lv_obj_pos.c **** 
 2064              		.loc 1 595 5 is_stmt 1 view .LVU561
 595:Middlewares/lvgl/src/core/lv_obj_pos.c **** 
 2065              		.loc 1 595 14 is_stmt 0 view .LVU562
 2066 001e 42F2D173 		movw	r3, #10193
 595:Middlewares/lvgl/src/core/lv_obj_pos.c **** 
 2067              		.loc 1 595 7 view .LVU563
 2068 0022 9D42     		cmp	r5, r3
 2069 0024 18BF     		it	ne
 2070 0026 9842     		cmpne	r0, r3
 2071 0028 01D0     		beq	.L96
 595:Middlewares/lvgl/src/core/lv_obj_pos.c **** 
 2072              		.loc 1 595 69 view .LVU564
 2073 002a 0020     		movs	r0, #0
 2074              	.LVL181:
 2075              	.L93:
 599:Middlewares/lvgl/src/core/lv_obj_pos.c **** 
 2076              		.loc 1 599 1 view .LVU565
 2077 002c 38BD     		pop	{r3, r4, r5, pc}
 2078              	.LVL182:
 2079              	.L96:
 597:Middlewares/lvgl/src/core/lv_obj_pos.c ****     return true;
 2080              		.loc 1 597 5 is_stmt 1 view .LVU566
 2081 002e 2046     		mov	r0, r4
 2082              	.LVL183:
 597:Middlewares/lvgl/src/core/lv_obj_pos.c ****     return true;
 2083              		.loc 1 597 5 is_stmt 0 view .LVU567
 2084 0030 FFF7FEFF 		bl	lv_obj_mark_layout_as_dirty
 2085              	.LVL184:
 598:Middlewares/lvgl/src/core/lv_obj_pos.c **** }
 2086              		.loc 1 598 5 is_stmt 1 view .LVU568
 598:Middlewares/lvgl/src/core/lv_obj_pos.c **** }
 2087              		.loc 1 598 12 is_stmt 0 view .LVU569
 2088 0034 0120     		movs	r0, #1
ARM GAS  /tmp/ccnhv9Lg.s 			page 66


 2089 0036 F9E7     		b	.L93
 2090              		.cfi_endproc
 2091              	.LFE182:
 2093              		.section	.text.lv_obj_move_children_by,"ax",%progbits
 2094              		.align	1
 2095              		.global	lv_obj_move_children_by
 2096              		.syntax unified
 2097              		.thumb
 2098              		.thumb_func
 2100              	lv_obj_move_children_by:
 2101              	.LVL185:
 2102              	.LFB185:
 753:Middlewares/lvgl/src/core/lv_obj_pos.c ****     uint32_t i;
 2103              		.loc 1 753 1 is_stmt 1 view -0
 2104              		.cfi_startproc
 2105              		@ args = 0, pretend = 0, frame = 0
 2106              		@ frame_needed = 0, uses_anonymous_args = 0
 753:Middlewares/lvgl/src/core/lv_obj_pos.c ****     uint32_t i;
 2107              		.loc 1 753 1 is_stmt 0 view .LVU571
 2108 0000 2DE9F047 		push	{r4, r5, r6, r7, r8, r9, r10, lr}
 2109              	.LCFI42:
 2110              		.cfi_def_cfa_offset 32
 2111              		.cfi_offset 4, -32
 2112              		.cfi_offset 5, -28
 2113              		.cfi_offset 6, -24
 2114              		.cfi_offset 7, -20
 2115              		.cfi_offset 8, -16
 2116              		.cfi_offset 9, -12
 2117              		.cfi_offset 10, -8
 2118              		.cfi_offset 14, -4
 2119 0004 8246     		mov	r10, r0
 2120 0006 0F46     		mov	r7, r1
 2121 0008 1646     		mov	r6, r2
 2122 000a 9946     		mov	r9, r3
 754:Middlewares/lvgl/src/core/lv_obj_pos.c ****     uint32_t child_cnt = lv_obj_get_child_cnt(obj);
 2123              		.loc 1 754 5 is_stmt 1 view .LVU572
 755:Middlewares/lvgl/src/core/lv_obj_pos.c ****     for(i = 0; i < child_cnt; i++) {
 2124              		.loc 1 755 5 view .LVU573
 755:Middlewares/lvgl/src/core/lv_obj_pos.c ****     for(i = 0; i < child_cnt; i++) {
 2125              		.loc 1 755 26 is_stmt 0 view .LVU574
 2126 000c FFF7FEFF 		bl	lv_obj_get_child_cnt
 2127              	.LVL186:
 755:Middlewares/lvgl/src/core/lv_obj_pos.c ****     for(i = 0; i < child_cnt; i++) {
 2128              		.loc 1 755 26 view .LVU575
 2129 0010 8046     		mov	r8, r0
 2130              	.LVL187:
 756:Middlewares/lvgl/src/core/lv_obj_pos.c ****         lv_obj_t * child = lv_obj_get_child(obj, i);
 2131              		.loc 1 756 5 is_stmt 1 view .LVU576
 756:Middlewares/lvgl/src/core/lv_obj_pos.c ****         lv_obj_t * child = lv_obj_get_child(obj, i);
 2132              		.loc 1 756 11 is_stmt 0 view .LVU577
 2133 0012 0025     		movs	r5, #0
 756:Middlewares/lvgl/src/core/lv_obj_pos.c ****         lv_obj_t * child = lv_obj_get_child(obj, i);
 2134              		.loc 1 756 5 view .LVU578
 2135 0014 16E0     		b	.L98
 2136              	.LVL188:
 2137              	.L99:
 2138              	.LBB177:
ARM GAS  /tmp/ccnhv9Lg.s 			page 67


 759:Middlewares/lvgl/src/core/lv_obj_pos.c ****         child->coords.y1 += y_diff;
 2139              		.loc 1 759 9 is_stmt 1 view .LVU579
 759:Middlewares/lvgl/src/core/lv_obj_pos.c ****         child->coords.y1 += y_diff;
 2140              		.loc 1 759 26 is_stmt 0 view .LVU580
 2141 0016 BBB2     		uxth	r3, r7
 2142 0018 A28A     		ldrh	r2, [r4, #20]
 2143 001a 1A44     		add	r2, r2, r3
 2144 001c A282     		strh	r2, [r4, #20]	@ movhi
 760:Middlewares/lvgl/src/core/lv_obj_pos.c ****         child->coords.x2 += x_diff;
 2145              		.loc 1 760 9 is_stmt 1 view .LVU581
 760:Middlewares/lvgl/src/core/lv_obj_pos.c ****         child->coords.x2 += x_diff;
 2146              		.loc 1 760 26 is_stmt 0 view .LVU582
 2147 001e 1FFA86FC 		uxth	ip, r6
 2148 0022 E28A     		ldrh	r2, [r4, #22]
 2149 0024 6244     		add	r2, r2, ip
 2150 0026 E282     		strh	r2, [r4, #22]	@ movhi
 761:Middlewares/lvgl/src/core/lv_obj_pos.c ****         child->coords.y2 += y_diff;
 2151              		.loc 1 761 9 is_stmt 1 view .LVU583
 761:Middlewares/lvgl/src/core/lv_obj_pos.c ****         child->coords.y2 += y_diff;
 2152              		.loc 1 761 26 is_stmt 0 view .LVU584
 2153 0028 228B     		ldrh	r2, [r4, #24]
 2154 002a 1344     		add	r3, r3, r2
 2155 002c 2383     		strh	r3, [r4, #24]	@ movhi
 762:Middlewares/lvgl/src/core/lv_obj_pos.c **** 
 2156              		.loc 1 762 9 is_stmt 1 view .LVU585
 762:Middlewares/lvgl/src/core/lv_obj_pos.c **** 
 2157              		.loc 1 762 26 is_stmt 0 view .LVU586
 2158 002e 638B     		ldrh	r3, [r4, #26]
 2159 0030 9C44     		add	ip, ip, r3
 2160 0032 A4F81AC0 		strh	ip, [r4, #26]	@ movhi
 764:Middlewares/lvgl/src/core/lv_obj_pos.c ****     }
 2161              		.loc 1 764 9 is_stmt 1 view .LVU587
 2162 0036 0023     		movs	r3, #0
 2163 0038 3246     		mov	r2, r6
 2164 003a 3946     		mov	r1, r7
 2165 003c 2046     		mov	r0, r4
 2166 003e FFF7FEFF 		bl	lv_obj_move_children_by
 2167              	.LVL189:
 2168              	.L100:
 764:Middlewares/lvgl/src/core/lv_obj_pos.c ****     }
 2169              		.loc 1 764 9 is_stmt 0 view .LVU588
 2170              	.LBE177:
 756:Middlewares/lvgl/src/core/lv_obj_pos.c ****         lv_obj_t * child = lv_obj_get_child(obj, i);
 2171              		.loc 1 756 31 is_stmt 1 discriminator 2 view .LVU589
 756:Middlewares/lvgl/src/core/lv_obj_pos.c ****         lv_obj_t * child = lv_obj_get_child(obj, i);
 2172              		.loc 1 756 32 is_stmt 0 discriminator 2 view .LVU590
 2173 0042 0135     		adds	r5, r5, #1
 2174              	.LVL190:
 2175              	.L98:
 756:Middlewares/lvgl/src/core/lv_obj_pos.c ****         lv_obj_t * child = lv_obj_get_child(obj, i);
 2176              		.loc 1 756 16 is_stmt 1 discriminator 1 view .LVU591
 756:Middlewares/lvgl/src/core/lv_obj_pos.c ****         lv_obj_t * child = lv_obj_get_child(obj, i);
 2177              		.loc 1 756 5 is_stmt 0 discriminator 1 view .LVU592
 2178 0044 4545     		cmp	r5, r8
 2179 0046 0ED2     		bcs	.L103
 2180              	.LBB178:
 757:Middlewares/lvgl/src/core/lv_obj_pos.c ****         if(ignore_floating && lv_obj_has_flag(child, LV_OBJ_FLAG_FLOATING)) continue;
ARM GAS  /tmp/ccnhv9Lg.s 			page 68


 2181              		.loc 1 757 9 is_stmt 1 view .LVU593
 757:Middlewares/lvgl/src/core/lv_obj_pos.c ****         if(ignore_floating && lv_obj_has_flag(child, LV_OBJ_FLAG_FLOATING)) continue;
 2182              		.loc 1 757 28 is_stmt 0 view .LVU594
 2183 0048 2946     		mov	r1, r5
 2184 004a 5046     		mov	r0, r10
 2185 004c FFF7FEFF 		bl	lv_obj_get_child
 2186              	.LVL191:
 2187 0050 0446     		mov	r4, r0
 2188              	.LVL192:
 758:Middlewares/lvgl/src/core/lv_obj_pos.c ****         child->coords.x1 += x_diff;
 2189              		.loc 1 758 9 is_stmt 1 view .LVU595
 758:Middlewares/lvgl/src/core/lv_obj_pos.c ****         child->coords.x1 += x_diff;
 2190              		.loc 1 758 11 is_stmt 0 view .LVU596
 2191 0052 B9F1000F 		cmp	r9, #0
 2192 0056 DED0     		beq	.L99
 758:Middlewares/lvgl/src/core/lv_obj_pos.c ****         child->coords.x1 += x_diff;
 2193              		.loc 1 758 31 discriminator 1 view .LVU597
 2194 0058 4FF48031 		mov	r1, #65536
 2195 005c FFF7FEFF 		bl	lv_obj_has_flag
 2196              	.LVL193:
 758:Middlewares/lvgl/src/core/lv_obj_pos.c ****         child->coords.x1 += x_diff;
 2197              		.loc 1 758 28 discriminator 1 view .LVU598
 2198 0060 0028     		cmp	r0, #0
 2199 0062 D8D0     		beq	.L99
 2200 0064 EDE7     		b	.L100
 2201              	.LVL194:
 2202              	.L103:
 758:Middlewares/lvgl/src/core/lv_obj_pos.c ****         child->coords.x1 += x_diff;
 2203              		.loc 1 758 28 discriminator 1 view .LVU599
 2204              	.LBE178:
 766:Middlewares/lvgl/src/core/lv_obj_pos.c **** 
 2205              		.loc 1 766 1 view .LVU600
 2206 0066 BDE8F087 		pop	{r4, r5, r6, r7, r8, r9, r10, pc}
 766:Middlewares/lvgl/src/core/lv_obj_pos.c **** 
 2207              		.loc 1 766 1 view .LVU601
 2208              		.cfi_endproc
 2209              	.LFE185:
 2211              		.section	.text.lv_obj_area_is_visible,"ax",%progbits
 2212              		.align	1
 2213              		.global	lv_obj_area_is_visible
 2214              		.syntax unified
 2215              		.thumb
 2216              		.thumb_func
 2218              	lv_obj_area_is_visible:
 2219              	.LVL195:
 2220              	.LFB188:
 798:Middlewares/lvgl/src/core/lv_obj_pos.c ****     if(lv_obj_has_flag(obj, LV_OBJ_FLAG_HIDDEN)) return false;
 2221              		.loc 1 798 1 is_stmt 1 view -0
 2222              		.cfi_startproc
 2223              		@ args = 0, pretend = 0, frame = 8
 2224              		@ frame_needed = 0, uses_anonymous_args = 0
 798:Middlewares/lvgl/src/core/lv_obj_pos.c ****     if(lv_obj_has_flag(obj, LV_OBJ_FLAG_HIDDEN)) return false;
 2225              		.loc 1 798 1 is_stmt 0 view .LVU603
 2226 0000 2DE9F041 		push	{r4, r5, r6, r7, r8, lr}
 2227              	.LCFI43:
 2228              		.cfi_def_cfa_offset 24
 2229              		.cfi_offset 4, -24
ARM GAS  /tmp/ccnhv9Lg.s 			page 69


 2230              		.cfi_offset 5, -20
 2231              		.cfi_offset 6, -16
 2232              		.cfi_offset 7, -12
 2233              		.cfi_offset 8, -8
 2234              		.cfi_offset 14, -4
 2235 0004 82B0     		sub	sp, sp, #8
 2236              	.LCFI44:
 2237              		.cfi_def_cfa_offset 32
 2238 0006 0446     		mov	r4, r0
 2239 0008 0D46     		mov	r5, r1
 799:Middlewares/lvgl/src/core/lv_obj_pos.c **** 
 2240              		.loc 1 799 5 is_stmt 1 view .LVU604
 799:Middlewares/lvgl/src/core/lv_obj_pos.c **** 
 2241              		.loc 1 799 8 is_stmt 0 view .LVU605
 2242 000a 0121     		movs	r1, #1
 2243              	.LVL196:
 799:Middlewares/lvgl/src/core/lv_obj_pos.c **** 
 2244              		.loc 1 799 8 view .LVU606
 2245 000c FFF7FEFF 		bl	lv_obj_has_flag
 2246              	.LVL197:
 799:Middlewares/lvgl/src/core/lv_obj_pos.c **** 
 2247              		.loc 1 799 7 view .LVU607
 2248 0010 20B1     		cbz	r0, .L114
 799:Middlewares/lvgl/src/core/lv_obj_pos.c **** 
 2249              		.loc 1 799 57 view .LVU608
 2250 0012 0027     		movs	r7, #0
 2251              	.LVL198:
 2252              	.L105:
 837:Middlewares/lvgl/src/core/lv_obj_pos.c **** 
 2253              		.loc 1 837 1 view .LVU609
 2254 0014 3846     		mov	r0, r7
 2255 0016 02B0     		add	sp, sp, #8
 2256              	.LCFI45:
 2257              		.cfi_remember_state
 2258              		.cfi_def_cfa_offset 24
 2259              		@ sp needed
 2260 0018 BDE8F081 		pop	{r4, r5, r6, r7, r8, pc}
 2261              	.LVL199:
 2262              	.L114:
 2263              	.LCFI46:
 2264              		.cfi_restore_state
 837:Middlewares/lvgl/src/core/lv_obj_pos.c **** 
 2265              		.loc 1 837 1 view .LVU610
 2266 001c 0646     		mov	r6, r0
 802:Middlewares/lvgl/src/core/lv_obj_pos.c ****     lv_disp_t * disp   = lv_obj_get_disp(obj_scr);
 2267              		.loc 1 802 5 is_stmt 1 view .LVU611
 802:Middlewares/lvgl/src/core/lv_obj_pos.c ****     lv_disp_t * disp   = lv_obj_get_disp(obj_scr);
 2268              		.loc 1 802 26 is_stmt 0 view .LVU612
 2269 001e 2046     		mov	r0, r4
 2270 0020 FFF7FEFF 		bl	lv_obj_get_screen
 2271              	.LVL200:
 2272 0024 0746     		mov	r7, r0
 2273              	.LVL201:
 803:Middlewares/lvgl/src/core/lv_obj_pos.c ****     if(obj_scr != lv_disp_get_scr_act(disp) &&
 2274              		.loc 1 803 5 is_stmt 1 view .LVU613
 803:Middlewares/lvgl/src/core/lv_obj_pos.c ****     if(obj_scr != lv_disp_get_scr_act(disp) &&
 2275              		.loc 1 803 26 is_stmt 0 view .LVU614
ARM GAS  /tmp/ccnhv9Lg.s 			page 70


 2276 0026 FFF7FEFF 		bl	lv_obj_get_disp
 2277              	.LVL202:
 803:Middlewares/lvgl/src/core/lv_obj_pos.c ****     if(obj_scr != lv_disp_get_scr_act(disp) &&
 2278              		.loc 1 803 26 view .LVU615
 2279 002a 8046     		mov	r8, r0
 2280              	.LVL203:
 804:Middlewares/lvgl/src/core/lv_obj_pos.c ****        obj_scr != lv_disp_get_scr_prev(disp) &&
 2281              		.loc 1 804 5 is_stmt 1 view .LVU616
 804:Middlewares/lvgl/src/core/lv_obj_pos.c ****        obj_scr != lv_disp_get_scr_prev(disp) &&
 2282              		.loc 1 804 19 is_stmt 0 view .LVU617
 2283 002c FFF7FEFF 		bl	lv_disp_get_scr_act
 2284              	.LVL204:
 804:Middlewares/lvgl/src/core/lv_obj_pos.c ****        obj_scr != lv_disp_get_scr_prev(disp) &&
 2285              		.loc 1 804 7 view .LVU618
 2286 0030 8742     		cmp	r7, r0
 2287 0032 10D0     		beq	.L106
 805:Middlewares/lvgl/src/core/lv_obj_pos.c ****        obj_scr != lv_disp_get_layer_top(disp) &&
 2288              		.loc 1 805 19 discriminator 1 view .LVU619
 2289 0034 4046     		mov	r0, r8
 2290 0036 FFF7FEFF 		bl	lv_disp_get_scr_prev
 2291              	.LVL205:
 804:Middlewares/lvgl/src/core/lv_obj_pos.c ****        obj_scr != lv_disp_get_scr_prev(disp) &&
 2292              		.loc 1 804 45 discriminator 1 view .LVU620
 2293 003a 8742     		cmp	r7, r0
 2294 003c 0BD0     		beq	.L106
 806:Middlewares/lvgl/src/core/lv_obj_pos.c ****        obj_scr != lv_disp_get_layer_sys(disp))
 2295              		.loc 1 806 19 view .LVU621
 2296 003e 4046     		mov	r0, r8
 2297 0040 FFF7FEFF 		bl	lv_disp_get_layer_top
 2298              	.LVL206:
 805:Middlewares/lvgl/src/core/lv_obj_pos.c ****        obj_scr != lv_disp_get_layer_top(disp) &&
 2299              		.loc 1 805 46 view .LVU622
 2300 0044 8742     		cmp	r7, r0
 2301 0046 06D0     		beq	.L106
 807:Middlewares/lvgl/src/core/lv_obj_pos.c ****     {
 2302              		.loc 1 807 19 view .LVU623
 2303 0048 4046     		mov	r0, r8
 2304 004a FFF7FEFF 		bl	lv_disp_get_layer_sys
 2305              	.LVL207:
 806:Middlewares/lvgl/src/core/lv_obj_pos.c ****        obj_scr != lv_disp_get_layer_sys(disp))
 2306              		.loc 1 806 47 view .LVU624
 2307 004e 8742     		cmp	r7, r0
 2308 0050 01D0     		beq	.L106
 809:Middlewares/lvgl/src/core/lv_obj_pos.c ****     }
 2309              		.loc 1 809 16 view .LVU625
 2310 0052 3746     		mov	r7, r6
 2311              	.LVL208:
 809:Middlewares/lvgl/src/core/lv_obj_pos.c ****     }
 2312              		.loc 1 809 16 view .LVU626
 2313 0054 DEE7     		b	.L105
 2314              	.LVL209:
 2315              	.L106:
 813:Middlewares/lvgl/src/core/lv_obj_pos.c ****     lv_coord_t ext_size = _lv_obj_get_ext_draw_size(obj);
 2316              		.loc 1 813 5 is_stmt 1 view .LVU627
 814:Middlewares/lvgl/src/core/lv_obj_pos.c ****     lv_area_copy(&obj_coords, &obj->coords);
 2317              		.loc 1 814 5 view .LVU628
 814:Middlewares/lvgl/src/core/lv_obj_pos.c ****     lv_area_copy(&obj_coords, &obj->coords);
ARM GAS  /tmp/ccnhv9Lg.s 			page 71


 2318              		.loc 1 814 27 is_stmt 0 view .LVU629
 2319 0056 2046     		mov	r0, r4
 2320 0058 FFF7FEFF 		bl	_lv_obj_get_ext_draw_size
 2321              	.LVL210:
 815:Middlewares/lvgl/src/core/lv_obj_pos.c ****     obj_coords.x1 -= ext_size;
 2322              		.loc 1 815 5 is_stmt 1 view .LVU630
 2323              	.LBB179:
 2324              	.LBI179:
 120:Middlewares/lvgl/src/core/../misc/../font/../misc/lv_area.h **** {
 2325              		.loc 3 120 20 view .LVU631
 2326              	.LBB180:
 122:Middlewares/lvgl/src/core/../misc/../font/../misc/lv_area.h ****     dest->y1 = src->y1;
 2327              		.loc 3 122 5 view .LVU632
 122:Middlewares/lvgl/src/core/../misc/../font/../misc/lv_area.h ****     dest->y1 = src->y1;
 2328              		.loc 3 122 19 is_stmt 0 view .LVU633
 2329 005c B4F91410 		ldrsh	r1, [r4, #20]
 122:Middlewares/lvgl/src/core/../misc/../font/../misc/lv_area.h ****     dest->y1 = src->y1;
 2330              		.loc 3 122 14 view .LVU634
 2331 0060 ADF80010 		strh	r1, [sp]	@ movhi
 123:Middlewares/lvgl/src/core/../misc/../font/../misc/lv_area.h ****     dest->x2 = src->x2;
 2332              		.loc 3 123 5 is_stmt 1 view .LVU635
 123:Middlewares/lvgl/src/core/../misc/../font/../misc/lv_area.h ****     dest->x2 = src->x2;
 2333              		.loc 3 123 19 is_stmt 0 view .LVU636
 2334 0064 B4F91620 		ldrsh	r2, [r4, #22]
 123:Middlewares/lvgl/src/core/../misc/../font/../misc/lv_area.h ****     dest->x2 = src->x2;
 2335              		.loc 3 123 14 view .LVU637
 2336 0068 ADF80220 		strh	r2, [sp, #2]	@ movhi
 124:Middlewares/lvgl/src/core/../misc/../font/../misc/lv_area.h ****     dest->y2 = src->y2;
 2337              		.loc 3 124 5 is_stmt 1 view .LVU638
 124:Middlewares/lvgl/src/core/../misc/../font/../misc/lv_area.h ****     dest->y2 = src->y2;
 2338              		.loc 3 124 19 is_stmt 0 view .LVU639
 2339 006c B4F91830 		ldrsh	r3, [r4, #24]
 124:Middlewares/lvgl/src/core/../misc/../font/../misc/lv_area.h ****     dest->y2 = src->y2;
 2340              		.loc 3 124 14 view .LVU640
 2341 0070 ADF80430 		strh	r3, [sp, #4]	@ movhi
 125:Middlewares/lvgl/src/core/../misc/../font/../misc/lv_area.h **** }
 2342              		.loc 3 125 5 is_stmt 1 view .LVU641
 125:Middlewares/lvgl/src/core/../misc/../font/../misc/lv_area.h **** }
 2343              		.loc 3 125 19 is_stmt 0 view .LVU642
 2344 0074 B4F91A70 		ldrsh	r7, [r4, #26]
 2345              	.LVL211:
 125:Middlewares/lvgl/src/core/../misc/../font/../misc/lv_area.h **** }
 2346              		.loc 3 125 14 view .LVU643
 2347 0078 ADF80670 		strh	r7, [sp, #6]	@ movhi
 2348              	.LVL212:
 125:Middlewares/lvgl/src/core/../misc/../font/../misc/lv_area.h **** }
 2349              		.loc 3 125 14 view .LVU644
 2350              	.LBE180:
 2351              	.LBE179:
 816:Middlewares/lvgl/src/core/lv_obj_pos.c ****     obj_coords.y1 -= ext_size;
 2352              		.loc 1 816 5 is_stmt 1 view .LVU645
 816:Middlewares/lvgl/src/core/lv_obj_pos.c ****     obj_coords.y1 -= ext_size;
 2353              		.loc 1 816 19 is_stmt 0 view .LVU646
 2354 007c 80B2     		uxth	r0, r0
 816:Middlewares/lvgl/src/core/lv_obj_pos.c ****     obj_coords.y1 -= ext_size;
 2355              		.loc 1 816 19 view .LVU647
 2356 007e 091A     		subs	r1, r1, r0
ARM GAS  /tmp/ccnhv9Lg.s 			page 72


 2357 0080 ADF80010 		strh	r1, [sp]	@ movhi
 817:Middlewares/lvgl/src/core/lv_obj_pos.c ****     obj_coords.x2 += ext_size;
 2358              		.loc 1 817 5 is_stmt 1 view .LVU648
 817:Middlewares/lvgl/src/core/lv_obj_pos.c ****     obj_coords.x2 += ext_size;
 2359              		.loc 1 817 19 is_stmt 0 view .LVU649
 2360 0084 121A     		subs	r2, r2, r0
 2361 0086 ADF80220 		strh	r2, [sp, #2]	@ movhi
 818:Middlewares/lvgl/src/core/lv_obj_pos.c ****     obj_coords.y2 += ext_size;
 2362              		.loc 1 818 5 is_stmt 1 view .LVU650
 818:Middlewares/lvgl/src/core/lv_obj_pos.c ****     obj_coords.y2 += ext_size;
 2363              		.loc 1 818 19 is_stmt 0 view .LVU651
 2364 008a 0344     		add	r3, r3, r0
 2365 008c ADF80430 		strh	r3, [sp, #4]	@ movhi
 819:Middlewares/lvgl/src/core/lv_obj_pos.c **** 
 2366              		.loc 1 819 5 is_stmt 1 view .LVU652
 819:Middlewares/lvgl/src/core/lv_obj_pos.c **** 
 2367              		.loc 1 819 19 is_stmt 0 view .LVU653
 2368 0090 3844     		add	r0, r0, r7
 2369              	.LVL213:
 819:Middlewares/lvgl/src/core/lv_obj_pos.c **** 
 2370              		.loc 1 819 19 view .LVU654
 2371 0092 ADF80600 		strh	r0, [sp, #6]	@ movhi
 821:Middlewares/lvgl/src/core/lv_obj_pos.c **** 
 2372              		.loc 1 821 5 is_stmt 1 view .LVU655
 823:Middlewares/lvgl/src/core/lv_obj_pos.c ****     if(is_common == false) return false;  /*The area is not on the object*/
 2373              		.loc 1 823 5 view .LVU656
 823:Middlewares/lvgl/src/core/lv_obj_pos.c ****     if(is_common == false) return false;  /*The area is not on the object*/
 2374              		.loc 1 823 17 is_stmt 0 view .LVU657
 2375 0096 6A46     		mov	r2, sp
 2376 0098 2946     		mov	r1, r5
 2377 009a 2846     		mov	r0, r5
 2378 009c FFF7FEFF 		bl	_lv_area_intersect
 2379              	.LVL214:
 824:Middlewares/lvgl/src/core/lv_obj_pos.c **** 
 2380              		.loc 1 824 5 is_stmt 1 view .LVU658
 824:Middlewares/lvgl/src/core/lv_obj_pos.c **** 
 2381              		.loc 1 824 7 is_stmt 0 view .LVU659
 2382 00a0 0746     		mov	r7, r0
 2383 00a2 0028     		cmp	r0, #0
 2384 00a4 B6D0     		beq	.L105
 827:Middlewares/lvgl/src/core/lv_obj_pos.c ****     while(par != NULL) {
 2385              		.loc 1 827 5 is_stmt 1 view .LVU660
 827:Middlewares/lvgl/src/core/lv_obj_pos.c ****     while(par != NULL) {
 2386              		.loc 1 827 22 is_stmt 0 view .LVU661
 2387 00a6 2046     		mov	r0, r4
 2388              	.LVL215:
 827:Middlewares/lvgl/src/core/lv_obj_pos.c ****     while(par != NULL) {
 2389              		.loc 1 827 22 view .LVU662
 2390 00a8 FFF7FEFF 		bl	lv_obj_get_parent
 2391              	.LVL216:
 2392 00ac 0446     		mov	r4, r0
 2393              	.LVL217:
 828:Middlewares/lvgl/src/core/lv_obj_pos.c ****         is_common = _lv_area_intersect(area, area, &par->coords);
 2394              		.loc 1 828 5 is_stmt 1 view .LVU663
 2395              	.L107:
 828:Middlewares/lvgl/src/core/lv_obj_pos.c ****         is_common = _lv_area_intersect(area, area, &par->coords);
 2396              		.loc 1 828 10 view .LVU664
ARM GAS  /tmp/ccnhv9Lg.s 			page 73


 2397 00ae 002C     		cmp	r4, #0
 2398 00b0 B0D0     		beq	.L105
 829:Middlewares/lvgl/src/core/lv_obj_pos.c ****         if(is_common == false) return false;       /*If no common parts with parent break;*/
 2399              		.loc 1 829 9 view .LVU665
 829:Middlewares/lvgl/src/core/lv_obj_pos.c ****         if(is_common == false) return false;       /*If no common parts with parent break;*/
 2400              		.loc 1 829 21 is_stmt 0 view .LVU666
 2401 00b2 04F11402 		add	r2, r4, #20
 2402 00b6 2946     		mov	r1, r5
 2403 00b8 2846     		mov	r0, r5
 2404              	.LVL218:
 829:Middlewares/lvgl/src/core/lv_obj_pos.c ****         if(is_common == false) return false;       /*If no common parts with parent break;*/
 2405              		.loc 1 829 21 view .LVU667
 2406 00ba FFF7FEFF 		bl	_lv_area_intersect
 2407              	.LVL219:
 830:Middlewares/lvgl/src/core/lv_obj_pos.c ****         if(lv_obj_has_flag(par, LV_OBJ_FLAG_HIDDEN)) return false; /*If the parent is hidden then t
 2408              		.loc 1 830 9 is_stmt 1 view .LVU668
 830:Middlewares/lvgl/src/core/lv_obj_pos.c ****         if(lv_obj_has_flag(par, LV_OBJ_FLAG_HIDDEN)) return false; /*If the parent is hidden then t
 2409              		.loc 1 830 11 is_stmt 0 view .LVU669
 2410 00be 48B1     		cbz	r0, .L111
 831:Middlewares/lvgl/src/core/lv_obj_pos.c **** 
 2411              		.loc 1 831 9 is_stmt 1 view .LVU670
 831:Middlewares/lvgl/src/core/lv_obj_pos.c **** 
 2412              		.loc 1 831 12 is_stmt 0 view .LVU671
 2413 00c0 0121     		movs	r1, #1
 2414 00c2 2046     		mov	r0, r4
 2415              	.LVL220:
 831:Middlewares/lvgl/src/core/lv_obj_pos.c **** 
 2416              		.loc 1 831 12 view .LVU672
 2417 00c4 FFF7FEFF 		bl	lv_obj_has_flag
 2418              	.LVL221:
 831:Middlewares/lvgl/src/core/lv_obj_pos.c **** 
 2419              		.loc 1 831 11 view .LVU673
 2420 00c8 30B9     		cbnz	r0, .L112
 833:Middlewares/lvgl/src/core/lv_obj_pos.c ****     }
 2421              		.loc 1 833 9 is_stmt 1 view .LVU674
 833:Middlewares/lvgl/src/core/lv_obj_pos.c ****     }
 2422              		.loc 1 833 15 is_stmt 0 view .LVU675
 2423 00ca 2046     		mov	r0, r4
 2424 00cc FFF7FEFF 		bl	lv_obj_get_parent
 2425              	.LVL222:
 2426 00d0 0446     		mov	r4, r0
 2427              	.LVL223:
 833:Middlewares/lvgl/src/core/lv_obj_pos.c ****     }
 2428              		.loc 1 833 15 view .LVU676
 2429 00d2 ECE7     		b	.L107
 2430              	.LVL224:
 2431              	.L111:
 830:Middlewares/lvgl/src/core/lv_obj_pos.c ****         if(lv_obj_has_flag(par, LV_OBJ_FLAG_HIDDEN)) return false; /*If the parent is hidden then t
 2432              		.loc 1 830 39 view .LVU677
 2433 00d4 0746     		mov	r7, r0
 2434 00d6 9DE7     		b	.L105
 2435              	.LVL225:
 2436              	.L112:
 831:Middlewares/lvgl/src/core/lv_obj_pos.c **** 
 2437              		.loc 1 831 61 view .LVU678
 2438 00d8 3746     		mov	r7, r6
 2439 00da 9BE7     		b	.L105
ARM GAS  /tmp/ccnhv9Lg.s 			page 74


 2440              		.cfi_endproc
 2441              	.LFE188:
 2443              		.section	.text.lv_obj_invalidate_area,"ax",%progbits
 2444              		.align	1
 2445              		.global	lv_obj_invalidate_area
 2446              		.syntax unified
 2447              		.thumb
 2448              		.thumb_func
 2450              	lv_obj_invalidate_area:
 2451              	.LVL226:
 2452              	.LFB186:
 770:Middlewares/lvgl/src/core/lv_obj_pos.c ****     LV_ASSERT_OBJ(obj, MY_CLASS);
 2453              		.loc 1 770 1 is_stmt 1 view -0
 2454              		.cfi_startproc
 2455              		@ args = 0, pretend = 0, frame = 8
 2456              		@ frame_needed = 0, uses_anonymous_args = 0
 770:Middlewares/lvgl/src/core/lv_obj_pos.c ****     LV_ASSERT_OBJ(obj, MY_CLASS);
 2457              		.loc 1 770 1 is_stmt 0 view .LVU680
 2458 0000 10B5     		push	{r4, lr}
 2459              	.LCFI47:
 2460              		.cfi_def_cfa_offset 8
 2461              		.cfi_offset 4, -8
 2462              		.cfi_offset 14, -4
 2463 0002 82B0     		sub	sp, sp, #8
 2464              	.LCFI48:
 2465              		.cfi_def_cfa_offset 16
 2466 0004 0446     		mov	r4, r0
 771:Middlewares/lvgl/src/core/lv_obj_pos.c **** 
 2467              		.loc 1 771 5 is_stmt 1 view .LVU681
 771:Middlewares/lvgl/src/core/lv_obj_pos.c **** 
 2468              		.loc 1 771 5 view .LVU682
 771:Middlewares/lvgl/src/core/lv_obj_pos.c **** 
 2469              		.loc 1 771 5 view .LVU683
 773:Middlewares/lvgl/src/core/lv_obj_pos.c ****     lv_area_copy(&area_tmp, area);
 2470              		.loc 1 773 5 view .LVU684
 774:Middlewares/lvgl/src/core/lv_obj_pos.c ****     bool visible = lv_obj_area_is_visible(obj, &area_tmp);
 2471              		.loc 1 774 5 view .LVU685
 2472              	.LVL227:
 2473              	.LBB181:
 2474              	.LBI181:
 120:Middlewares/lvgl/src/core/../misc/../font/../misc/lv_area.h **** {
 2475              		.loc 3 120 20 view .LVU686
 2476              	.LBB182:
 122:Middlewares/lvgl/src/core/../misc/../font/../misc/lv_area.h ****     dest->y1 = src->y1;
 2477              		.loc 3 122 5 view .LVU687
 122:Middlewares/lvgl/src/core/../misc/../font/../misc/lv_area.h ****     dest->y1 = src->y1;
 2478              		.loc 3 122 19 is_stmt 0 view .LVU688
 2479 0006 B1F90030 		ldrsh	r3, [r1]
 122:Middlewares/lvgl/src/core/../misc/../font/../misc/lv_area.h ****     dest->y1 = src->y1;
 2480              		.loc 3 122 14 view .LVU689
 2481 000a ADF80030 		strh	r3, [sp]	@ movhi
 123:Middlewares/lvgl/src/core/../misc/../font/../misc/lv_area.h ****     dest->x2 = src->x2;
 2482              		.loc 3 123 5 is_stmt 1 view .LVU690
 123:Middlewares/lvgl/src/core/../misc/../font/../misc/lv_area.h ****     dest->x2 = src->x2;
 2483              		.loc 3 123 19 is_stmt 0 view .LVU691
 2484 000e B1F90230 		ldrsh	r3, [r1, #2]
 123:Middlewares/lvgl/src/core/../misc/../font/../misc/lv_area.h ****     dest->x2 = src->x2;
ARM GAS  /tmp/ccnhv9Lg.s 			page 75


 2485              		.loc 3 123 14 view .LVU692
 2486 0012 ADF80230 		strh	r3, [sp, #2]	@ movhi
 124:Middlewares/lvgl/src/core/../misc/../font/../misc/lv_area.h ****     dest->y2 = src->y2;
 2487              		.loc 3 124 5 is_stmt 1 view .LVU693
 124:Middlewares/lvgl/src/core/../misc/../font/../misc/lv_area.h ****     dest->y2 = src->y2;
 2488              		.loc 3 124 19 is_stmt 0 view .LVU694
 2489 0016 B1F90430 		ldrsh	r3, [r1, #4]
 124:Middlewares/lvgl/src/core/../misc/../font/../misc/lv_area.h ****     dest->y2 = src->y2;
 2490              		.loc 3 124 14 view .LVU695
 2491 001a ADF80430 		strh	r3, [sp, #4]	@ movhi
 125:Middlewares/lvgl/src/core/../misc/../font/../misc/lv_area.h **** }
 2492              		.loc 3 125 5 is_stmt 1 view .LVU696
 125:Middlewares/lvgl/src/core/../misc/../font/../misc/lv_area.h **** }
 2493              		.loc 3 125 19 is_stmt 0 view .LVU697
 2494 001e B1F90630 		ldrsh	r3, [r1, #6]
 125:Middlewares/lvgl/src/core/../misc/../font/../misc/lv_area.h **** }
 2495              		.loc 3 125 14 view .LVU698
 2496 0022 ADF80630 		strh	r3, [sp, #6]	@ movhi
 2497              	.LVL228:
 125:Middlewares/lvgl/src/core/../misc/../font/../misc/lv_area.h **** }
 2498              		.loc 3 125 14 view .LVU699
 2499              	.LBE182:
 2500              	.LBE181:
 775:Middlewares/lvgl/src/core/lv_obj_pos.c **** 
 2501              		.loc 1 775 5 is_stmt 1 view .LVU700
 775:Middlewares/lvgl/src/core/lv_obj_pos.c **** 
 2502              		.loc 1 775 20 is_stmt 0 view .LVU701
 2503 0026 6946     		mov	r1, sp
 2504              	.LVL229:
 775:Middlewares/lvgl/src/core/lv_obj_pos.c **** 
 2505              		.loc 1 775 20 view .LVU702
 2506 0028 FFF7FEFF 		bl	lv_obj_area_is_visible
 2507              	.LVL230:
 777:Middlewares/lvgl/src/core/lv_obj_pos.c **** }
 2508              		.loc 1 777 5 is_stmt 1 view .LVU703
 777:Middlewares/lvgl/src/core/lv_obj_pos.c **** }
 2509              		.loc 1 777 7 is_stmt 0 view .LVU704
 2510 002c 08B9     		cbnz	r0, .L118
 2511              	.LVL231:
 2512              	.L115:
 778:Middlewares/lvgl/src/core/lv_obj_pos.c **** 
 2513              		.loc 1 778 1 view .LVU705
 2514 002e 02B0     		add	sp, sp, #8
 2515              	.LCFI49:
 2516              		.cfi_remember_state
 2517              		.cfi_def_cfa_offset 8
 2518              		@ sp needed
 2519 0030 10BD     		pop	{r4, pc}
 2520              	.LVL232:
 2521              	.L118:
 2522              	.LCFI50:
 2523              		.cfi_restore_state
 777:Middlewares/lvgl/src/core/lv_obj_pos.c **** }
 2524              		.loc 1 777 17 is_stmt 1 discriminator 1 view .LVU706
 2525 0032 2046     		mov	r0, r4
 2526              	.LVL233:
 777:Middlewares/lvgl/src/core/lv_obj_pos.c **** }
ARM GAS  /tmp/ccnhv9Lg.s 			page 76


 2527              		.loc 1 777 17 is_stmt 0 discriminator 1 view .LVU707
 2528 0034 FFF7FEFF 		bl	lv_obj_get_disp
 2529              	.LVL234:
 2530 0038 6946     		mov	r1, sp
 2531 003a FFF7FEFF 		bl	_lv_inv_area
 2532              	.LVL235:
 778:Middlewares/lvgl/src/core/lv_obj_pos.c **** 
 2533              		.loc 1 778 1 discriminator 1 view .LVU708
 2534 003e F6E7     		b	.L115
 2535              		.cfi_endproc
 2536              	.LFE186:
 2538              		.section	.text.lv_obj_invalidate,"ax",%progbits
 2539              		.align	1
 2540              		.global	lv_obj_invalidate
 2541              		.syntax unified
 2542              		.thumb
 2543              		.thumb_func
 2545              	lv_obj_invalidate:
 2546              	.LVL236:
 2547              	.LFB187:
 781:Middlewares/lvgl/src/core/lv_obj_pos.c ****     LV_ASSERT_OBJ(obj, MY_CLASS);
 2548              		.loc 1 781 1 is_stmt 1 view -0
 2549              		.cfi_startproc
 2550              		@ args = 0, pretend = 0, frame = 8
 2551              		@ frame_needed = 0, uses_anonymous_args = 0
 781:Middlewares/lvgl/src/core/lv_obj_pos.c ****     LV_ASSERT_OBJ(obj, MY_CLASS);
 2552              		.loc 1 781 1 is_stmt 0 view .LVU710
 2553 0000 10B5     		push	{r4, lr}
 2554              	.LCFI51:
 2555              		.cfi_def_cfa_offset 8
 2556              		.cfi_offset 4, -8
 2557              		.cfi_offset 14, -4
 2558 0002 82B0     		sub	sp, sp, #8
 2559              	.LCFI52:
 2560              		.cfi_def_cfa_offset 16
 2561 0004 0446     		mov	r4, r0
 782:Middlewares/lvgl/src/core/lv_obj_pos.c **** 
 2562              		.loc 1 782 5 is_stmt 1 view .LVU711
 782:Middlewares/lvgl/src/core/lv_obj_pos.c **** 
 2563              		.loc 1 782 5 view .LVU712
 782:Middlewares/lvgl/src/core/lv_obj_pos.c **** 
 2564              		.loc 1 782 5 view .LVU713
 785:Middlewares/lvgl/src/core/lv_obj_pos.c ****     lv_coord_t ext_size = _lv_obj_get_ext_draw_size(obj);
 2565              		.loc 1 785 5 view .LVU714
 786:Middlewares/lvgl/src/core/lv_obj_pos.c ****     lv_area_copy(&obj_coords, &obj->coords);
 2566              		.loc 1 786 5 view .LVU715
 786:Middlewares/lvgl/src/core/lv_obj_pos.c ****     lv_area_copy(&obj_coords, &obj->coords);
 2567              		.loc 1 786 27 is_stmt 0 view .LVU716
 2568 0006 FFF7FEFF 		bl	_lv_obj_get_ext_draw_size
 2569              	.LVL237:
 787:Middlewares/lvgl/src/core/lv_obj_pos.c ****     obj_coords.x1 -= ext_size;
 2570              		.loc 1 787 5 is_stmt 1 view .LVU717
 2571              	.LBB183:
 2572              	.LBI183:
 120:Middlewares/lvgl/src/core/../misc/../font/../misc/lv_area.h **** {
 2573              		.loc 3 120 20 view .LVU718
 2574              	.LBB184:
ARM GAS  /tmp/ccnhv9Lg.s 			page 77


 122:Middlewares/lvgl/src/core/../misc/../font/../misc/lv_area.h ****     dest->y1 = src->y1;
 2575              		.loc 3 122 5 view .LVU719
 122:Middlewares/lvgl/src/core/../misc/../font/../misc/lv_area.h ****     dest->y1 = src->y1;
 2576              		.loc 3 122 19 is_stmt 0 view .LVU720
 2577 000a B4F914C0 		ldrsh	ip, [r4, #20]
 122:Middlewares/lvgl/src/core/../misc/../font/../misc/lv_area.h ****     dest->y1 = src->y1;
 2578              		.loc 3 122 14 view .LVU721
 2579 000e ADF800C0 		strh	ip, [sp]	@ movhi
 123:Middlewares/lvgl/src/core/../misc/../font/../misc/lv_area.h ****     dest->x2 = src->x2;
 2580              		.loc 3 123 5 is_stmt 1 view .LVU722
 123:Middlewares/lvgl/src/core/../misc/../font/../misc/lv_area.h ****     dest->x2 = src->x2;
 2581              		.loc 3 123 19 is_stmt 0 view .LVU723
 2582 0012 B4F91610 		ldrsh	r1, [r4, #22]
 123:Middlewares/lvgl/src/core/../misc/../font/../misc/lv_area.h ****     dest->x2 = src->x2;
 2583              		.loc 3 123 14 view .LVU724
 2584 0016 ADF80210 		strh	r1, [sp, #2]	@ movhi
 124:Middlewares/lvgl/src/core/../misc/../font/../misc/lv_area.h ****     dest->y2 = src->y2;
 2585              		.loc 3 124 5 is_stmt 1 view .LVU725
 124:Middlewares/lvgl/src/core/../misc/../font/../misc/lv_area.h ****     dest->y2 = src->y2;
 2586              		.loc 3 124 19 is_stmt 0 view .LVU726
 2587 001a B4F91820 		ldrsh	r2, [r4, #24]
 124:Middlewares/lvgl/src/core/../misc/../font/../misc/lv_area.h ****     dest->y2 = src->y2;
 2588              		.loc 3 124 14 view .LVU727
 2589 001e ADF80420 		strh	r2, [sp, #4]	@ movhi
 125:Middlewares/lvgl/src/core/../misc/../font/../misc/lv_area.h **** }
 2590              		.loc 3 125 5 is_stmt 1 view .LVU728
 125:Middlewares/lvgl/src/core/../misc/../font/../misc/lv_area.h **** }
 2591              		.loc 3 125 19 is_stmt 0 view .LVU729
 2592 0022 B4F91AE0 		ldrsh	lr, [r4, #26]
 125:Middlewares/lvgl/src/core/../misc/../font/../misc/lv_area.h **** }
 2593              		.loc 3 125 14 view .LVU730
 2594 0026 ADF806E0 		strh	lr, [sp, #6]	@ movhi
 2595              	.LVL238:
 125:Middlewares/lvgl/src/core/../misc/../font/../misc/lv_area.h **** }
 2596              		.loc 3 125 14 view .LVU731
 2597              	.LBE184:
 2598              	.LBE183:
 788:Middlewares/lvgl/src/core/lv_obj_pos.c ****     obj_coords.y1 -= ext_size;
 2599              		.loc 1 788 5 is_stmt 1 view .LVU732
 788:Middlewares/lvgl/src/core/lv_obj_pos.c ****     obj_coords.y1 -= ext_size;
 2600              		.loc 1 788 19 is_stmt 0 view .LVU733
 2601 002a 83B2     		uxth	r3, r0
 2602 002c ACEB030C 		sub	ip, ip, r3
 2603 0030 ADF800C0 		strh	ip, [sp]	@ movhi
 789:Middlewares/lvgl/src/core/lv_obj_pos.c ****     obj_coords.x2 += ext_size;
 2604              		.loc 1 789 5 is_stmt 1 view .LVU734
 789:Middlewares/lvgl/src/core/lv_obj_pos.c ****     obj_coords.x2 += ext_size;
 2605              		.loc 1 789 19 is_stmt 0 view .LVU735
 2606 0034 C91A     		subs	r1, r1, r3
 2607 0036 ADF80210 		strh	r1, [sp, #2]	@ movhi
 790:Middlewares/lvgl/src/core/lv_obj_pos.c ****     obj_coords.y2 += ext_size;
 2608              		.loc 1 790 5 is_stmt 1 view .LVU736
 790:Middlewares/lvgl/src/core/lv_obj_pos.c ****     obj_coords.y2 += ext_size;
 2609              		.loc 1 790 19 is_stmt 0 view .LVU737
 2610 003a 1A44     		add	r2, r2, r3
 2611 003c ADF80420 		strh	r2, [sp, #4]	@ movhi
 791:Middlewares/lvgl/src/core/lv_obj_pos.c **** 
ARM GAS  /tmp/ccnhv9Lg.s 			page 78


 2612              		.loc 1 791 5 is_stmt 1 view .LVU738
 791:Middlewares/lvgl/src/core/lv_obj_pos.c **** 
 2613              		.loc 1 791 19 is_stmt 0 view .LVU739
 2614 0040 7344     		add	r3, r3, lr
 2615 0042 ADF80630 		strh	r3, [sp, #6]	@ movhi
 793:Middlewares/lvgl/src/core/lv_obj_pos.c **** 
 2616              		.loc 1 793 5 is_stmt 1 view .LVU740
 2617 0046 6946     		mov	r1, sp
 2618 0048 2046     		mov	r0, r4
 2619              	.LVL239:
 793:Middlewares/lvgl/src/core/lv_obj_pos.c **** 
 2620              		.loc 1 793 5 is_stmt 0 view .LVU741
 2621 004a FFF7FEFF 		bl	lv_obj_invalidate_area
 2622              	.LVL240:
 795:Middlewares/lvgl/src/core/lv_obj_pos.c **** 
 2623              		.loc 1 795 1 view .LVU742
 2624 004e 02B0     		add	sp, sp, #8
 2625              	.LCFI53:
 2626              		.cfi_def_cfa_offset 8
 2627              		@ sp needed
 2628 0050 10BD     		pop	{r4, pc}
 795:Middlewares/lvgl/src/core/lv_obj_pos.c **** 
 2629              		.loc 1 795 1 view .LVU743
 2630              		.cfi_endproc
 2631              	.LFE187:
 2633              		.section	.text.lv_obj_move_to,"ax",%progbits
 2634              		.align	1
 2635              		.global	lv_obj_move_to
 2636              		.syntax unified
 2637              		.thumb
 2638              		.thumb_func
 2640              	lv_obj_move_to:
 2641              	.LVL241:
 2642              	.LFB184:
 681:Middlewares/lvgl/src/core/lv_obj_pos.c ****     /*Convert x and y to absolute coordinates*/
 2643              		.loc 1 681 1 is_stmt 1 view -0
 2644              		.cfi_startproc
 2645              		@ args = 0, pretend = 0, frame = 24
 2646              		@ frame_needed = 0, uses_anonymous_args = 0
 681:Middlewares/lvgl/src/core/lv_obj_pos.c ****     /*Convert x and y to absolute coordinates*/
 2647              		.loc 1 681 1 is_stmt 0 view .LVU745
 2648 0000 2DE9F04F 		push	{r4, r5, r6, r7, r8, r9, r10, fp, lr}
 2649              	.LCFI54:
 2650              		.cfi_def_cfa_offset 36
 2651              		.cfi_offset 4, -36
 2652              		.cfi_offset 5, -32
 2653              		.cfi_offset 6, -28
 2654              		.cfi_offset 7, -24
 2655              		.cfi_offset 8, -20
 2656              		.cfi_offset 9, -16
 2657              		.cfi_offset 10, -12
 2658              		.cfi_offset 11, -8
 2659              		.cfi_offset 14, -4
 2660 0004 87B0     		sub	sp, sp, #28
 2661              	.LCFI55:
 2662              		.cfi_def_cfa_offset 64
 2663 0006 0446     		mov	r4, r0
ARM GAS  /tmp/ccnhv9Lg.s 			page 79


 2664 0008 0D46     		mov	r5, r1
 2665 000a 1646     		mov	r6, r2
 683:Middlewares/lvgl/src/core/lv_obj_pos.c **** 
 2666              		.loc 1 683 5 is_stmt 1 view .LVU746
 683:Middlewares/lvgl/src/core/lv_obj_pos.c **** 
 2667              		.loc 1 683 16 is_stmt 0 view .LVU747
 2668 000c 4768     		ldr	r7, [r0, #4]
 2669              	.LVL242:
 685:Middlewares/lvgl/src/core/lv_obj_pos.c ****         lv_coord_t pad_left = lv_obj_get_style_pad_left(parent, LV_PART_MAIN);
 2670              		.loc 1 685 5 is_stmt 1 view .LVU748
 685:Middlewares/lvgl/src/core/lv_obj_pos.c ****         lv_coord_t pad_left = lv_obj_get_style_pad_left(parent, LV_PART_MAIN);
 2671              		.loc 1 685 7 is_stmt 0 view .LVU749
 2672 000e 6FB3     		cbz	r7, .L122
 2673              	.LBB185:
 686:Middlewares/lvgl/src/core/lv_obj_pos.c ****         lv_coord_t pad_top = lv_obj_get_style_pad_top(parent, LV_PART_MAIN);
 2674              		.loc 1 686 9 is_stmt 1 view .LVU750
 2675              	.LVL243:
 2676              	.LBB186:
 2677              	.LBI186:
 103:Middlewares/lvgl/src/core/lv_obj_style_gen.h **** {
 2678              		.loc 2 103 26 view .LVU751
 2679              	.LBB187:
 105:Middlewares/lvgl/src/core/lv_obj_style_gen.h ****     return (lv_coord_t)v.num;
 2680              		.loc 2 105 5 view .LVU752
 105:Middlewares/lvgl/src/core/lv_obj_style_gen.h ****     return (lv_coord_t)v.num;
 2681              		.loc 2 105 26 is_stmt 0 view .LVU753
 2682 0010 41F21202 		movw	r2, #4114
 2683              	.LVL244:
 105:Middlewares/lvgl/src/core/lv_obj_style_gen.h ****     return (lv_coord_t)v.num;
 2684              		.loc 2 105 26 view .LVU754
 2685 0014 0021     		movs	r1, #0
 2686              	.LVL245:
 105:Middlewares/lvgl/src/core/lv_obj_style_gen.h ****     return (lv_coord_t)v.num;
 2687              		.loc 2 105 26 view .LVU755
 2688 0016 3846     		mov	r0, r7
 2689              	.LVL246:
 105:Middlewares/lvgl/src/core/lv_obj_style_gen.h ****     return (lv_coord_t)v.num;
 2690              		.loc 2 105 26 view .LVU756
 2691 0018 FFF7FEFF 		bl	lv_obj_get_style_prop
 2692              	.LVL247:
 2693 001c 8246     		mov	r10, r0
 106:Middlewares/lvgl/src/core/lv_obj_style_gen.h **** }
 2694              		.loc 2 106 5 is_stmt 1 view .LVU757
 106:Middlewares/lvgl/src/core/lv_obj_style_gen.h **** }
 2695              		.loc 2 106 12 is_stmt 0 view .LVU758
 2696 001e 0FFA80FB 		sxth	fp, r0
 2697              	.LVL248:
 106:Middlewares/lvgl/src/core/lv_obj_style_gen.h **** }
 2698              		.loc 2 106 12 view .LVU759
 2699              	.LBE187:
 2700              	.LBE186:
 687:Middlewares/lvgl/src/core/lv_obj_pos.c **** 
 2701              		.loc 1 687 9 is_stmt 1 view .LVU760
 2702              	.LBB188:
 2703              	.LBI188:
  91:Middlewares/lvgl/src/core/lv_obj_style_gen.h **** {
 2704              		.loc 2 91 26 view .LVU761
ARM GAS  /tmp/ccnhv9Lg.s 			page 80


 2705              	.LBB189:
  93:Middlewares/lvgl/src/core/lv_obj_style_gen.h ****     return (lv_coord_t)v.num;
 2706              		.loc 2 93 5 view .LVU762
  93:Middlewares/lvgl/src/core/lv_obj_style_gen.h ****     return (lv_coord_t)v.num;
 2707              		.loc 2 93 26 is_stmt 0 view .LVU763
 2708 0022 41F21002 		movw	r2, #4112
 2709 0026 0021     		movs	r1, #0
 2710 0028 3846     		mov	r0, r7
 2711 002a FFF7FEFF 		bl	lv_obj_get_style_prop
 2712              	.LVL249:
 2713 002e 8146     		mov	r9, r0
  94:Middlewares/lvgl/src/core/lv_obj_style_gen.h **** }
 2714              		.loc 2 94 5 is_stmt 1 view .LVU764
  94:Middlewares/lvgl/src/core/lv_obj_style_gen.h **** }
 2715              		.loc 2 94 12 is_stmt 0 view .LVU765
 2716 0030 0FFA80F8 		sxth	r8, r0
 2717              	.LVL250:
  94:Middlewares/lvgl/src/core/lv_obj_style_gen.h **** }
 2718              		.loc 2 94 12 view .LVU766
 2719              	.LBE189:
 2720              	.LBE188:
 689:Middlewares/lvgl/src/core/lv_obj_pos.c ****             x += pad_left + parent->coords.x1;
 2721              		.loc 1 689 9 is_stmt 1 view .LVU767
 689:Middlewares/lvgl/src/core/lv_obj_pos.c ****             x += pad_left + parent->coords.x1;
 2722              		.loc 1 689 12 is_stmt 0 view .LVU768
 2723 0034 4FF48031 		mov	r1, #65536
 2724 0038 2046     		mov	r0, r4
 2725 003a FFF7FEFF 		bl	lv_obj_has_flag
 2726              	.LVL251:
 689:Middlewares/lvgl/src/core/lv_obj_pos.c ****             x += pad_left + parent->coords.x1;
 2727              		.loc 1 689 11 view .LVU769
 2728 003e 0028     		cmp	r0, #0
 2729 0040 3CD0     		beq	.L123
 690:Middlewares/lvgl/src/core/lv_obj_pos.c ****             y += pad_top + parent->coords.y1;
 2730              		.loc 1 690 13 is_stmt 1 view .LVU770
 690:Middlewares/lvgl/src/core/lv_obj_pos.c ****             y += pad_top + parent->coords.y1;
 2731              		.loc 1 690 43 is_stmt 0 view .LVU771
 2732 0042 B88A     		ldrh	r0, [r7, #20]
 690:Middlewares/lvgl/src/core/lv_obj_pos.c ****             y += pad_top + parent->coords.y1;
 2733              		.loc 1 690 27 view .LVU772
 2734 0044 8244     		add	r10, r10, r0
 690:Middlewares/lvgl/src/core/lv_obj_pos.c ****             y += pad_top + parent->coords.y1;
 2735              		.loc 1 690 15 view .LVU773
 2736 0046 15FA8AF5 		uxtah	r5, r5, r10
 2737 004a 2DB2     		sxth	r5, r5
 2738              	.LVL252:
 691:Middlewares/lvgl/src/core/lv_obj_pos.c ****         } else {
 2739              		.loc 1 691 13 is_stmt 1 view .LVU774
 691:Middlewares/lvgl/src/core/lv_obj_pos.c ****         } else {
 2740              		.loc 1 691 42 is_stmt 0 view .LVU775
 2741 004c FA8A     		ldrh	r2, [r7, #22]
 691:Middlewares/lvgl/src/core/lv_obj_pos.c ****         } else {
 2742              		.loc 1 691 26 view .LVU776
 2743 004e 4A44     		add	r2, r2, r9
 691:Middlewares/lvgl/src/core/lv_obj_pos.c ****         } else {
 2744              		.loc 1 691 15 view .LVU777
 2745 0050 16FA82F6 		uxtah	r6, r6, r2
ARM GAS  /tmp/ccnhv9Lg.s 			page 81


 2746 0054 36B2     		sxth	r6, r6
 2747              	.LVL253:
 2748              	.L124:
 697:Middlewares/lvgl/src/core/lv_obj_pos.c ****         x += border_width;
 2749              		.loc 1 697 9 is_stmt 1 view .LVU778
 2750              	.LBB190:
 2751              	.LBI190:
 295:Middlewares/lvgl/src/core/lv_obj_style_gen.h **** {
 2752              		.loc 2 295 26 view .LVU779
 2753              	.LBB191:
 297:Middlewares/lvgl/src/core/lv_obj_style_gen.h ****     return (lv_coord_t)v.num;
 2754              		.loc 2 297 5 view .LVU780
 297:Middlewares/lvgl/src/core/lv_obj_style_gen.h ****     return (lv_coord_t)v.num;
 2755              		.loc 2 297 26 is_stmt 0 view .LVU781
 2756 0056 41F23202 		movw	r2, #4146
 2757 005a 0021     		movs	r1, #0
 2758 005c 3846     		mov	r0, r7
 2759 005e FFF7FEFF 		bl	lv_obj_get_style_prop
 2760              	.LVL254:
 2761              		.loc 2 298 5 is_stmt 1 view .LVU782
 2762              		.loc 2 298 5 is_stmt 0 view .LVU783
 2763              	.LBE191:
 2764              	.LBE190:
 698:Middlewares/lvgl/src/core/lv_obj_pos.c ****         y += border_width;
 2765              		.loc 1 698 9 is_stmt 1 view .LVU784
 698:Middlewares/lvgl/src/core/lv_obj_pos.c ****         y += border_width;
 2766              		.loc 1 698 11 is_stmt 0 view .LVU785
 2767 0062 80B2     		uxth	r0, r0
 698:Middlewares/lvgl/src/core/lv_obj_pos.c ****         y += border_width;
 2768              		.loc 1 698 11 view .LVU786
 2769 0064 0544     		add	r5, r5, r0
 2770              	.LVL255:
 698:Middlewares/lvgl/src/core/lv_obj_pos.c ****         y += border_width;
 2771              		.loc 1 698 11 view .LVU787
 2772 0066 2DB2     		sxth	r5, r5
 2773              	.LVL256:
 699:Middlewares/lvgl/src/core/lv_obj_pos.c ****     }
 2774              		.loc 1 699 9 is_stmt 1 view .LVU788
 699:Middlewares/lvgl/src/core/lv_obj_pos.c ****     }
 2775              		.loc 1 699 11 is_stmt 0 view .LVU789
 2776 0068 0644     		add	r6, r6, r0
 2777              	.LVL257:
 699:Middlewares/lvgl/src/core/lv_obj_pos.c ****     }
 2778              		.loc 1 699 11 view .LVU790
 2779 006a 36B2     		sxth	r6, r6
 2780              	.LVL258:
 2781              	.L122:
 699:Middlewares/lvgl/src/core/lv_obj_pos.c ****     }
 2782              		.loc 1 699 11 view .LVU791
 2783              	.LBE185:
 703:Middlewares/lvgl/src/core/lv_obj_pos.c ****     diff.x = x - obj->coords.x1;
 2784              		.loc 1 703 5 is_stmt 1 view .LVU792
 704:Middlewares/lvgl/src/core/lv_obj_pos.c ****     diff.y = y - obj->coords.y1;
 2785              		.loc 1 704 5 view .LVU793
 704:Middlewares/lvgl/src/core/lv_obj_pos.c ****     diff.y = y - obj->coords.y1;
 2786              		.loc 1 704 29 is_stmt 0 view .LVU794
 2787 006c A18A     		ldrh	r1, [r4, #20]
ARM GAS  /tmp/ccnhv9Lg.s 			page 82


 704:Middlewares/lvgl/src/core/lv_obj_pos.c ****     diff.y = y - obj->coords.y1;
 2788              		.loc 1 704 16 view .LVU795
 2789 006e 6D1A     		subs	r5, r5, r1
 2790              	.LVL259:
 704:Middlewares/lvgl/src/core/lv_obj_pos.c ****     diff.y = y - obj->coords.y1;
 2791              		.loc 1 704 16 view .LVU796
 2792 0070 1FFA85F8 		uxth	r8, r5
 2793 0074 2DB2     		sxth	r5, r5
 704:Middlewares/lvgl/src/core/lv_obj_pos.c ****     diff.y = y - obj->coords.y1;
 2794              		.loc 1 704 12 view .LVU797
 2795 0076 ADF81450 		strh	r5, [sp, #20]	@ movhi
 705:Middlewares/lvgl/src/core/lv_obj_pos.c **** 
 2796              		.loc 1 705 5 is_stmt 1 view .LVU798
 705:Middlewares/lvgl/src/core/lv_obj_pos.c **** 
 2797              		.loc 1 705 29 is_stmt 0 view .LVU799
 2798 007a E28A     		ldrh	r2, [r4, #22]
 705:Middlewares/lvgl/src/core/lv_obj_pos.c **** 
 2799              		.loc 1 705 16 view .LVU800
 2800 007c B21A     		subs	r2, r6, r2
 2801 007e 1FFA82F9 		uxth	r9, r2
 2802 0082 16B2     		sxth	r6, r2
 2803              	.LVL260:
 705:Middlewares/lvgl/src/core/lv_obj_pos.c **** 
 2804              		.loc 1 705 12 view .LVU801
 2805 0084 ADF81660 		strh	r6, [sp, #22]	@ movhi
 710:Middlewares/lvgl/src/core/lv_obj_pos.c **** 
 2806              		.loc 1 710 5 is_stmt 1 view .LVU802
 710:Middlewares/lvgl/src/core/lv_obj_pos.c **** 
 2807              		.loc 1 710 7 is_stmt 0 view .LVU803
 2808 0088 0DB9     		cbnz	r5, .L125
 710:Middlewares/lvgl/src/core/lv_obj_pos.c **** 
 2809              		.loc 1 710 20 discriminator 1 view .LVU804
 2810 008a 002E     		cmp	r6, #0
 2811 008c 5ED0     		beq	.L121
 2812              	.L125:
 713:Middlewares/lvgl/src/core/lv_obj_pos.c **** 
 2813              		.loc 1 713 5 is_stmt 1 view .LVU805
 2814 008e 2046     		mov	r0, r4
 2815 0090 FFF7FEFF 		bl	lv_obj_invalidate
 2816              	.LVL261:
 716:Middlewares/lvgl/src/core/lv_obj_pos.c ****     lv_obj_get_coords(obj, &ori);
 2817              		.loc 1 716 5 view .LVU806
 717:Middlewares/lvgl/src/core/lv_obj_pos.c **** 
 2818              		.loc 1 717 5 view .LVU807
 2819 0094 03A9     		add	r1, sp, #12
 2820 0096 2046     		mov	r0, r4
 2821 0098 FFF7FEFF 		bl	lv_obj_get_coords
 2822              	.LVL262:
 720:Middlewares/lvgl/src/core/lv_obj_pos.c ****     bool on1 = false;
 2823              		.loc 1 720 5 view .LVU808
 721:Middlewares/lvgl/src/core/lv_obj_pos.c ****     if(parent) {
 2824              		.loc 1 721 5 view .LVU809
 722:Middlewares/lvgl/src/core/lv_obj_pos.c ****         lv_obj_get_content_coords(parent, &parent_fit_area);
 2825              		.loc 1 722 5 view .LVU810
 722:Middlewares/lvgl/src/core/lv_obj_pos.c ****         lv_obj_get_content_coords(parent, &parent_fit_area);
 2826              		.loc 1 722 7 is_stmt 0 view .LVU811
 2827 009c 1FB3     		cbz	r7, .L131
ARM GAS  /tmp/ccnhv9Lg.s 			page 83


 723:Middlewares/lvgl/src/core/lv_obj_pos.c **** 
 2828              		.loc 1 723 9 is_stmt 1 view .LVU812
 2829 009e 01A9     		add	r1, sp, #4
 2830 00a0 3846     		mov	r0, r7
 2831 00a2 FFF7FEFF 		bl	lv_obj_get_content_coords
 2832              	.LVL263:
 727:Middlewares/lvgl/src/core/lv_obj_pos.c ****         if(!on1) lv_obj_scrollbar_invalidate(parent);
 2833              		.loc 1 727 9 view .LVU813
 727:Middlewares/lvgl/src/core/lv_obj_pos.c ****         if(!on1) lv_obj_scrollbar_invalidate(parent);
 2834              		.loc 1 727 15 is_stmt 0 view .LVU814
 2835 00a6 0022     		movs	r2, #0
 2836 00a8 01A9     		add	r1, sp, #4
 2837 00aa 03A8     		add	r0, sp, #12
 2838 00ac FFF7FEFF 		bl	_lv_area_is_in
 2839              	.LVL264:
 728:Middlewares/lvgl/src/core/lv_obj_pos.c ****     }
 2840              		.loc 1 728 9 is_stmt 1 view .LVU815
 728:Middlewares/lvgl/src/core/lv_obj_pos.c ****     }
 2841              		.loc 1 728 11 is_stmt 0 view .LVU816
 2842 00b0 8246     		mov	r10, r0
 2843 00b2 D0B9     		cbnz	r0, .L127
 728:Middlewares/lvgl/src/core/lv_obj_pos.c ****     }
 2844              		.loc 1 728 18 is_stmt 1 discriminator 1 view .LVU817
 2845 00b4 3846     		mov	r0, r7
 2846              	.LVL265:
 728:Middlewares/lvgl/src/core/lv_obj_pos.c ****     }
 2847              		.loc 1 728 18 is_stmt 0 discriminator 1 view .LVU818
 2848 00b6 FFF7FEFF 		bl	lv_obj_scrollbar_invalidate
 2849              	.LVL266:
 2850 00ba 16E0     		b	.L127
 2851              	.LVL267:
 2852              	.L123:
 2853              	.LBB192:
 693:Middlewares/lvgl/src/core/lv_obj_pos.c ****             y += pad_top + parent->coords.y1 - lv_obj_get_scroll_y(parent);
 2854              		.loc 1 693 13 is_stmt 1 view .LVU819
 693:Middlewares/lvgl/src/core/lv_obj_pos.c ****             y += pad_top + parent->coords.y1 - lv_obj_get_scroll_y(parent);
 2855              		.loc 1 693 43 is_stmt 0 view .LVU820
 2856 00bc B7F91430 		ldrsh	r3, [r7, #20]
 693:Middlewares/lvgl/src/core/lv_obj_pos.c ****             y += pad_top + parent->coords.y1 - lv_obj_get_scroll_y(parent);
 2857              		.loc 1 693 27 view .LVU821
 2858 00c0 9B44     		add	fp, fp, r3
 2859              	.LVL268:
 693:Middlewares/lvgl/src/core/lv_obj_pos.c ****             y += pad_top + parent->coords.y1 - lv_obj_get_scroll_y(parent);
 2860              		.loc 1 693 49 view .LVU822
 2861 00c2 3846     		mov	r0, r7
 2862 00c4 FFF7FEFF 		bl	lv_obj_get_scroll_x
 2863              	.LVL269:
 693:Middlewares/lvgl/src/core/lv_obj_pos.c ****             y += pad_top + parent->coords.y1 - lv_obj_get_scroll_y(parent);
 2864              		.loc 1 693 47 view .LVU823
 2865 00c8 ABEB000B 		sub	fp, fp, r0
 693:Middlewares/lvgl/src/core/lv_obj_pos.c ****             y += pad_top + parent->coords.y1 - lv_obj_get_scroll_y(parent);
 2866              		.loc 1 693 15 view .LVU824
 2867 00cc 5D44     		add	r5, r5, fp
 2868 00ce 2DB2     		sxth	r5, r5
 2869              	.LVL270:
 694:Middlewares/lvgl/src/core/lv_obj_pos.c ****         }
 2870              		.loc 1 694 13 is_stmt 1 view .LVU825
ARM GAS  /tmp/ccnhv9Lg.s 			page 84


 694:Middlewares/lvgl/src/core/lv_obj_pos.c ****         }
 2871              		.loc 1 694 42 is_stmt 0 view .LVU826
 2872 00d0 B7F91630 		ldrsh	r3, [r7, #22]
 694:Middlewares/lvgl/src/core/lv_obj_pos.c ****         }
 2873              		.loc 1 694 26 view .LVU827
 2874 00d4 9844     		add	r8, r8, r3
 2875              	.LVL271:
 694:Middlewares/lvgl/src/core/lv_obj_pos.c ****         }
 2876              		.loc 1 694 48 view .LVU828
 2877 00d6 3846     		mov	r0, r7
 2878 00d8 FFF7FEFF 		bl	lv_obj_get_scroll_y
 2879              	.LVL272:
 694:Middlewares/lvgl/src/core/lv_obj_pos.c ****         }
 2880              		.loc 1 694 46 view .LVU829
 2881 00dc A8EB0008 		sub	r8, r8, r0
 694:Middlewares/lvgl/src/core/lv_obj_pos.c ****         }
 2882              		.loc 1 694 15 view .LVU830
 2883 00e0 4644     		add	r6, r6, r8
 2884 00e2 36B2     		sxth	r6, r6
 2885              	.LVL273:
 694:Middlewares/lvgl/src/core/lv_obj_pos.c ****         }
 2886              		.loc 1 694 15 view .LVU831
 2887 00e4 B7E7     		b	.L124
 2888              	.LVL274:
 2889              	.L131:
 694:Middlewares/lvgl/src/core/lv_obj_pos.c ****         }
 2890              		.loc 1 694 15 view .LVU832
 2891              	.LBE192:
 721:Middlewares/lvgl/src/core/lv_obj_pos.c ****     if(parent) {
 2892              		.loc 1 721 10 view .LVU833
 2893 00e6 4FF0000A 		mov	r10, #0
 2894              	.LVL275:
 2895              	.L127:
 731:Middlewares/lvgl/src/core/lv_obj_pos.c ****     obj->coords.y1 += diff.y;
 2896              		.loc 1 731 5 is_stmt 1 view .LVU834
 731:Middlewares/lvgl/src/core/lv_obj_pos.c ****     obj->coords.y1 += diff.y;
 2897              		.loc 1 731 20 is_stmt 0 view .LVU835
 2898 00ea A38A     		ldrh	r3, [r4, #20]
 2899 00ec 4344     		add	r3, r3, r8
 2900 00ee A382     		strh	r3, [r4, #20]	@ movhi
 732:Middlewares/lvgl/src/core/lv_obj_pos.c ****     obj->coords.x2 += diff.x;
 2901              		.loc 1 732 5 is_stmt 1 view .LVU836
 732:Middlewares/lvgl/src/core/lv_obj_pos.c ****     obj->coords.x2 += diff.x;
 2902              		.loc 1 732 20 is_stmt 0 view .LVU837
 2903 00f0 E38A     		ldrh	r3, [r4, #22]
 2904 00f2 4B44     		add	r3, r3, r9
 2905 00f4 E382     		strh	r3, [r4, #22]	@ movhi
 733:Middlewares/lvgl/src/core/lv_obj_pos.c ****     obj->coords.y2 += diff.y;
 2906              		.loc 1 733 5 is_stmt 1 view .LVU838
 733:Middlewares/lvgl/src/core/lv_obj_pos.c ****     obj->coords.y2 += diff.y;
 2907              		.loc 1 733 20 is_stmt 0 view .LVU839
 2908 00f6 238B     		ldrh	r3, [r4, #24]
 2909 00f8 9844     		add	r8, r8, r3
 2910 00fa A4F81880 		strh	r8, [r4, #24]	@ movhi
 734:Middlewares/lvgl/src/core/lv_obj_pos.c **** 
 2911              		.loc 1 734 5 is_stmt 1 view .LVU840
 734:Middlewares/lvgl/src/core/lv_obj_pos.c **** 
ARM GAS  /tmp/ccnhv9Lg.s 			page 85


 2912              		.loc 1 734 20 is_stmt 0 view .LVU841
 2913 00fe 638B     		ldrh	r3, [r4, #26]
 2914 0100 9944     		add	r9, r9, r3
 2915 0102 A4F81A90 		strh	r9, [r4, #26]	@ movhi
 736:Middlewares/lvgl/src/core/lv_obj_pos.c **** 
 2916              		.loc 1 736 5 is_stmt 1 view .LVU842
 2917 0106 0023     		movs	r3, #0
 2918 0108 3246     		mov	r2, r6
 2919 010a 2946     		mov	r1, r5
 2920 010c 2046     		mov	r0, r4
 2921 010e FFF7FEFF 		bl	lv_obj_move_children_by
 2922              	.LVL276:
 739:Middlewares/lvgl/src/core/lv_obj_pos.c **** 
 2923              		.loc 1 739 5 view .LVU843
 739:Middlewares/lvgl/src/core/lv_obj_pos.c **** 
 2924              		.loc 1 739 7 is_stmt 0 view .LVU844
 2925 0112 27B1     		cbz	r7, .L128
 739:Middlewares/lvgl/src/core/lv_obj_pos.c **** 
 2926              		.loc 1 739 16 is_stmt 1 discriminator 1 view .LVU845
 2927 0114 2246     		mov	r2, r4
 2928 0116 2221     		movs	r1, #34
 2929 0118 3846     		mov	r0, r7
 2930 011a FFF7FEFF 		bl	lv_event_send
 2931              	.LVL277:
 2932              	.L128:
 742:Middlewares/lvgl/src/core/lv_obj_pos.c **** 
 2933              		.loc 1 742 5 view .LVU846
 2934 011e 2046     		mov	r0, r4
 2935 0120 FFF7FEFF 		bl	lv_obj_invalidate
 2936              	.LVL278:
 746:Middlewares/lvgl/src/core/lv_obj_pos.c ****         bool on2 = _lv_area_is_in(&obj->coords, &parent_fit_area, 0);
 2937              		.loc 1 746 5 view .LVU847
 746:Middlewares/lvgl/src/core/lv_obj_pos.c ****         bool on2 = _lv_area_is_in(&obj->coords, &parent_fit_area, 0);
 2938              		.loc 1 746 7 is_stmt 0 view .LVU848
 2939 0124 97B1     		cbz	r7, .L121
 2940              	.LBB193:
 747:Middlewares/lvgl/src/core/lv_obj_pos.c ****         if(on1 || (!on1 && on2)) lv_obj_scrollbar_invalidate(parent);
 2941              		.loc 1 747 9 is_stmt 1 view .LVU849
 747:Middlewares/lvgl/src/core/lv_obj_pos.c ****         if(on1 || (!on1 && on2)) lv_obj_scrollbar_invalidate(parent);
 2942              		.loc 1 747 20 is_stmt 0 view .LVU850
 2943 0126 0022     		movs	r2, #0
 2944 0128 01A9     		add	r1, sp, #4
 2945 012a 04F11400 		add	r0, r4, #20
 2946 012e FFF7FEFF 		bl	_lv_area_is_in
 2947              	.LVL279:
 748:Middlewares/lvgl/src/core/lv_obj_pos.c ****     }
 2948              		.loc 1 748 9 is_stmt 1 view .LVU851
 748:Middlewares/lvgl/src/core/lv_obj_pos.c ****     }
 2949              		.loc 1 748 11 is_stmt 0 view .LVU852
 2950 0132 BAF1000F 		cmp	r10, #0
 2951 0136 06D1     		bne	.L130
 748:Middlewares/lvgl/src/core/lv_obj_pos.c ****     }
 2952              		.loc 1 748 20 discriminator 2 view .LVU853
 2953 0138 8AF0010A 		eor	r10, r10, #1
 2954              	.LVL280:
 748:Middlewares/lvgl/src/core/lv_obj_pos.c ****     }
 2955              		.loc 1 748 20 discriminator 2 view .LVU854
ARM GAS  /tmp/ccnhv9Lg.s 			page 86


 2956 013c 5FFA8AFA 		uxtb	r10, r10
 748:Middlewares/lvgl/src/core/lv_obj_pos.c ****     }
 2957              		.loc 1 748 16 discriminator 2 view .LVU855
 2958 0140 1AEA000F 		tst	r10, r0
 2959 0144 02D0     		beq	.L121
 2960              	.L130:
 748:Middlewares/lvgl/src/core/lv_obj_pos.c ****     }
 2961              		.loc 1 748 34 is_stmt 1 discriminator 3 view .LVU856
 2962 0146 3846     		mov	r0, r7
 2963              	.LVL281:
 748:Middlewares/lvgl/src/core/lv_obj_pos.c ****     }
 2964              		.loc 1 748 34 is_stmt 0 discriminator 3 view .LVU857
 2965 0148 FFF7FEFF 		bl	lv_obj_scrollbar_invalidate
 2966              	.LVL282:
 2967              	.L121:
 748:Middlewares/lvgl/src/core/lv_obj_pos.c ****     }
 2968              		.loc 1 748 34 discriminator 3 view .LVU858
 2969              	.LBE193:
 750:Middlewares/lvgl/src/core/lv_obj_pos.c **** 
 2970              		.loc 1 750 1 view .LVU859
 2971 014c 07B0     		add	sp, sp, #28
 2972              	.LCFI56:
 2973              		.cfi_def_cfa_offset 36
 2974              		@ sp needed
 2975 014e BDE8F08F 		pop	{r4, r5, r6, r7, r8, r9, r10, fp, pc}
 750:Middlewares/lvgl/src/core/lv_obj_pos.c **** 
 2976              		.loc 1 750 1 view .LVU860
 2977              		.cfi_endproc
 2978              	.LFE184:
 2980              		.section	.text.lv_obj_refr_pos,"ax",%progbits
 2981              		.align	1
 2982              		.global	lv_obj_refr_pos
 2983              		.syntax unified
 2984              		.thumb
 2985              		.thumb_func
 2987              	lv_obj_refr_pos:
 2988              	.LVL283:
 2989              	.LFB183:
 602:Middlewares/lvgl/src/core/lv_obj_pos.c ****     if(lv_obj_is_layout_positioned(obj)) return;
 2990              		.loc 1 602 1 is_stmt 1 view -0
 2991              		.cfi_startproc
 2992              		@ args = 0, pretend = 0, frame = 16
 2993              		@ frame_needed = 0, uses_anonymous_args = 0
 602:Middlewares/lvgl/src/core/lv_obj_pos.c ****     if(lv_obj_is_layout_positioned(obj)) return;
 2994              		.loc 1 602 1 is_stmt 0 view .LVU862
 2995 0000 2DE9F04F 		push	{r4, r5, r6, r7, r8, r9, r10, fp, lr}
 2996              	.LCFI57:
 2997              		.cfi_def_cfa_offset 36
 2998              		.cfi_offset 4, -36
 2999              		.cfi_offset 5, -32
 3000              		.cfi_offset 6, -28
 3001              		.cfi_offset 7, -24
 3002              		.cfi_offset 8, -20
 3003              		.cfi_offset 9, -16
 3004              		.cfi_offset 10, -12
 3005              		.cfi_offset 11, -8
 3006              		.cfi_offset 14, -4
ARM GAS  /tmp/ccnhv9Lg.s 			page 87


 3007 0004 85B0     		sub	sp, sp, #20
 3008              	.LCFI58:
 3009              		.cfi_def_cfa_offset 56
 3010 0006 0446     		mov	r4, r0
 603:Middlewares/lvgl/src/core/lv_obj_pos.c **** 
 3011              		.loc 1 603 5 is_stmt 1 view .LVU863
 603:Middlewares/lvgl/src/core/lv_obj_pos.c **** 
 3012              		.loc 1 603 8 is_stmt 0 view .LVU864
 3013 0008 FFF7FEFF 		bl	lv_obj_is_layout_positioned
 3014              	.LVL284:
 603:Middlewares/lvgl/src/core/lv_obj_pos.c **** 
 3015              		.loc 1 603 7 view .LVU865
 3016 000c 10B1     		cbz	r0, .L175
 3017              	.L133:
 678:Middlewares/lvgl/src/core/lv_obj_pos.c **** 
 3018              		.loc 1 678 1 view .LVU866
 3019 000e 05B0     		add	sp, sp, #20
 3020              	.LCFI59:
 3021              		.cfi_remember_state
 3022              		.cfi_def_cfa_offset 36
 3023              		@ sp needed
 3024 0010 BDE8F08F 		pop	{r4, r5, r6, r7, r8, r9, r10, fp, pc}
 3025              	.LVL285:
 3026              	.L175:
 3027              	.LCFI60:
 3028              		.cfi_restore_state
 605:Middlewares/lvgl/src/core/lv_obj_pos.c ****     lv_coord_t x = lv_obj_get_style_x(obj, LV_PART_MAIN);
 3029              		.loc 1 605 5 is_stmt 1 view .LVU867
 605:Middlewares/lvgl/src/core/lv_obj_pos.c ****     lv_coord_t x = lv_obj_get_style_x(obj, LV_PART_MAIN);
 3030              		.loc 1 605 25 is_stmt 0 view .LVU868
 3031 0014 2046     		mov	r0, r4
 3032 0016 FFF7FEFF 		bl	lv_obj_get_parent
 3033              	.LVL286:
 3034 001a 0746     		mov	r7, r0
 3035              	.LVL287:
 606:Middlewares/lvgl/src/core/lv_obj_pos.c ****     lv_coord_t y = lv_obj_get_style_y(obj, LV_PART_MAIN);
 3036              		.loc 1 606 5 is_stmt 1 view .LVU869
 3037              	.LBB194:
 3038              	.LBI194:
  37:Middlewares/lvgl/src/core/lv_obj_style_gen.h **** {
 3039              		.loc 2 37 26 view .LVU870
 3040              	.LBB195:
  39:Middlewares/lvgl/src/core/lv_obj_style_gen.h ****     return (lv_coord_t)v.num;
 3041              		.loc 2 39 5 view .LVU871
  39:Middlewares/lvgl/src/core/lv_obj_style_gen.h ****     return (lv_coord_t)v.num;
 3042              		.loc 2 39 26 is_stmt 0 view .LVU872
 3043 001c 41F20702 		movw	r2, #4103
 3044 0020 0021     		movs	r1, #0
 3045 0022 2046     		mov	r0, r4
 3046              	.LVL288:
  39:Middlewares/lvgl/src/core/lv_obj_style_gen.h ****     return (lv_coord_t)v.num;
 3047              		.loc 2 39 26 view .LVU873
 3048 0024 FFF7FEFF 		bl	lv_obj_get_style_prop
 3049              	.LVL289:
 3050 0028 8146     		mov	r9, r0
  40:Middlewares/lvgl/src/core/lv_obj_style_gen.h **** }
 3051              		.loc 2 40 5 is_stmt 1 view .LVU874
ARM GAS  /tmp/ccnhv9Lg.s 			page 88


  40:Middlewares/lvgl/src/core/lv_obj_style_gen.h **** }
 3052              		.loc 2 40 12 is_stmt 0 view .LVU875
 3053 002a 05B2     		sxth	r5, r0
 3054              	.LVL290:
  40:Middlewares/lvgl/src/core/lv_obj_style_gen.h **** }
 3055              		.loc 2 40 12 view .LVU876
 3056              	.LBE195:
 3057              	.LBE194:
 607:Middlewares/lvgl/src/core/lv_obj_pos.c **** 
 3058              		.loc 1 607 5 is_stmt 1 view .LVU877
 3059              	.LBB196:
 3060              	.LBI196:
  43:Middlewares/lvgl/src/core/lv_obj_style_gen.h **** {
 3061              		.loc 2 43 26 view .LVU878
 3062              	.LBB197:
  45:Middlewares/lvgl/src/core/lv_obj_style_gen.h ****     return (lv_coord_t)v.num;
 3063              		.loc 2 45 5 view .LVU879
  45:Middlewares/lvgl/src/core/lv_obj_style_gen.h ****     return (lv_coord_t)v.num;
 3064              		.loc 2 45 26 is_stmt 0 view .LVU880
 3065 002c 41F20802 		movw	r2, #4104
 3066 0030 0021     		movs	r1, #0
 3067 0032 2046     		mov	r0, r4
 3068 0034 FFF7FEFF 		bl	lv_obj_get_style_prop
 3069              	.LVL291:
 3070 0038 8046     		mov	r8, r0
  46:Middlewares/lvgl/src/core/lv_obj_style_gen.h **** }
 3071              		.loc 2 46 5 is_stmt 1 view .LVU881
  46:Middlewares/lvgl/src/core/lv_obj_style_gen.h **** }
 3072              		.loc 2 46 12 is_stmt 0 view .LVU882
 3073 003a 06B2     		sxth	r6, r0
 3074              	.LVL292:
  46:Middlewares/lvgl/src/core/lv_obj_style_gen.h **** }
 3075              		.loc 2 46 12 view .LVU883
 3076              	.LBE197:
 3077              	.LBE196:
 609:Middlewares/lvgl/src/core/lv_obj_pos.c ****         lv_obj_move_to(obj, x, y);
 3078              		.loc 1 609 5 is_stmt 1 view .LVU884
 609:Middlewares/lvgl/src/core/lv_obj_pos.c ****         lv_obj_move_to(obj, x, y);
 3079              		.loc 1 609 7 is_stmt 0 view .LVU885
 3080 003c 002F     		cmp	r7, #0
 3081 003e 56D0     		beq	.L176
 615:Middlewares/lvgl/src/core/lv_obj_pos.c ****     lv_coord_t ph = lv_obj_get_content_height(parent);
 3082              		.loc 1 615 5 is_stmt 1 view .LVU886
 615:Middlewares/lvgl/src/core/lv_obj_pos.c ****     lv_coord_t ph = lv_obj_get_content_height(parent);
 3083              		.loc 1 615 21 is_stmt 0 view .LVU887
 3084 0040 3846     		mov	r0, r7
 3085 0042 FFF7FEFF 		bl	lv_obj_get_content_width
 3086              	.LVL293:
 3087 0046 0090     		str	r0, [sp]
 3088              	.LVL294:
 616:Middlewares/lvgl/src/core/lv_obj_pos.c ****     if(LV_COORD_IS_PCT(x)) x = (pw * LV_COORD_GET_PCT(x)) / 100;
 3089              		.loc 1 616 5 is_stmt 1 view .LVU888
 616:Middlewares/lvgl/src/core/lv_obj_pos.c ****     if(LV_COORD_IS_PCT(x)) x = (pw * LV_COORD_GET_PCT(x)) / 100;
 3090              		.loc 1 616 21 is_stmt 0 view .LVU889
 3091 0048 3846     		mov	r0, r7
 3092 004a FFF7FEFF 		bl	lv_obj_get_content_height
 3093              	.LVL295:
ARM GAS  /tmp/ccnhv9Lg.s 			page 89


 3094 004e 0190     		str	r0, [sp, #4]
 3095              	.LVL296:
 617:Middlewares/lvgl/src/core/lv_obj_pos.c ****     if(LV_COORD_IS_PCT(y)) y = (ph * LV_COORD_GET_PCT(y)) / 100;
 3096              		.loc 1 617 5 is_stmt 1 view .LVU890
 617:Middlewares/lvgl/src/core/lv_obj_pos.c ****     if(LV_COORD_IS_PCT(y)) y = (ph * LV_COORD_GET_PCT(y)) / 100;
 3097              		.loc 1 617 8 is_stmt 0 view .LVU891
 3098 0050 09F4C049 		and	r9, r9, #24576
 617:Middlewares/lvgl/src/core/lv_obj_pos.c ****     if(LV_COORD_IS_PCT(y)) y = (ph * LV_COORD_GET_PCT(y)) / 100;
 3099              		.loc 1 617 7 view .LVU892
 3100 0054 B9F5005F 		cmp	r9, #8192
 3101 0058 4FD0     		beq	.L177
 3102              	.L136:
 618:Middlewares/lvgl/src/core/lv_obj_pos.c **** 
 3103              		.loc 1 618 5 is_stmt 1 view .LVU893
 618:Middlewares/lvgl/src/core/lv_obj_pos.c **** 
 3104              		.loc 1 618 8 is_stmt 0 view .LVU894
 3105 005a 08F4C048 		and	r8, r8, #24576
 618:Middlewares/lvgl/src/core/lv_obj_pos.c **** 
 3106              		.loc 1 618 7 view .LVU895
 3107 005e B8F5005F 		cmp	r8, #8192
 3108 0062 5FD0     		beq	.L178
 3109              	.L139:
 621:Middlewares/lvgl/src/core/lv_obj_pos.c ****     lv_coord_t tr_y = lv_obj_get_style_translate_y(obj, LV_PART_MAIN);
 3110              		.loc 1 621 5 is_stmt 1 view .LVU896
 3111              	.LVL297:
 3112              	.LBB198:
 3113              	.LBI198:
  67:Middlewares/lvgl/src/core/lv_obj_style_gen.h **** {
 3114              		.loc 2 67 26 view .LVU897
 3115              	.LBB199:
  69:Middlewares/lvgl/src/core/lv_obj_style_gen.h ****     return (lv_coord_t)v.num;
 3116              		.loc 2 69 5 view .LVU898
  69:Middlewares/lvgl/src/core/lv_obj_style_gen.h ****     return (lv_coord_t)v.num;
 3117              		.loc 2 69 26 is_stmt 0 view .LVU899
 3118 0064 43F20C02 		movw	r2, #12300
 3119 0068 0021     		movs	r1, #0
 3120 006a 2046     		mov	r0, r4
 3121 006c FFF7FEFF 		bl	lv_obj_get_style_prop
 3122              	.LVL298:
 3123 0070 8146     		mov	r9, r0
 3124              	.LVL299:
  70:Middlewares/lvgl/src/core/lv_obj_style_gen.h **** }
 3125              		.loc 2 70 5 is_stmt 1 view .LVU900
  70:Middlewares/lvgl/src/core/lv_obj_style_gen.h **** }
 3126              		.loc 2 70 12 is_stmt 0 view .LVU901
 3127 0072 0FFA80FB 		sxth	fp, r0
 3128              	.LVL300:
  70:Middlewares/lvgl/src/core/lv_obj_style_gen.h **** }
 3129              		.loc 2 70 12 view .LVU902
 3130              	.LBE199:
 3131              	.LBE198:
 622:Middlewares/lvgl/src/core/lv_obj_pos.c ****     lv_coord_t w = lv_obj_get_width(obj);
 3132              		.loc 1 622 5 is_stmt 1 view .LVU903
 3133              	.LBB200:
 3134              	.LBI200:
  73:Middlewares/lvgl/src/core/lv_obj_style_gen.h **** {
 3135              		.loc 2 73 26 view .LVU904
ARM GAS  /tmp/ccnhv9Lg.s 			page 90


 3136              	.LBB201:
  75:Middlewares/lvgl/src/core/lv_obj_style_gen.h ****     return (lv_coord_t)v.num;
 3137              		.loc 2 75 5 view .LVU905
  75:Middlewares/lvgl/src/core/lv_obj_style_gen.h ****     return (lv_coord_t)v.num;
 3138              		.loc 2 75 26 is_stmt 0 view .LVU906
 3139 0076 43F20D02 		movw	r2, #12301
 3140 007a 0021     		movs	r1, #0
 3141 007c 2046     		mov	r0, r4
  75:Middlewares/lvgl/src/core/lv_obj_style_gen.h ****     return (lv_coord_t)v.num;
 3142              		.loc 2 75 26 view .LVU907
 3143 007e FFF7FEFF 		bl	lv_obj_get_style_prop
 3144              	.LVL301:
 3145 0082 8046     		mov	r8, r0
  76:Middlewares/lvgl/src/core/lv_obj_style_gen.h **** }
 3146              		.loc 2 76 5 is_stmt 1 view .LVU908
  76:Middlewares/lvgl/src/core/lv_obj_style_gen.h **** }
 3147              		.loc 2 76 12 is_stmt 0 view .LVU909
 3148 0084 0FFA80FA 		sxth	r10, r0
 3149              	.LVL302:
  76:Middlewares/lvgl/src/core/lv_obj_style_gen.h **** }
 3150              		.loc 2 76 12 view .LVU910
 3151              	.LBE201:
 3152              	.LBE200:
 623:Middlewares/lvgl/src/core/lv_obj_pos.c ****     lv_coord_t h = lv_obj_get_height(obj);
 3153              		.loc 1 623 5 is_stmt 1 view .LVU911
 623:Middlewares/lvgl/src/core/lv_obj_pos.c ****     lv_coord_t h = lv_obj_get_height(obj);
 3154              		.loc 1 623 20 is_stmt 0 view .LVU912
 3155 0088 2046     		mov	r0, r4
 3156 008a FFF7FEFF 		bl	lv_obj_get_width
 3157              	.LVL303:
 3158 008e 0290     		str	r0, [sp, #8]
 3159              	.LVL304:
 624:Middlewares/lvgl/src/core/lv_obj_pos.c ****     if(LV_COORD_IS_PCT(tr_x)) tr_x = (w * LV_COORD_GET_PCT(tr_x)) / 100;
 3160              		.loc 1 624 5 is_stmt 1 view .LVU913
 624:Middlewares/lvgl/src/core/lv_obj_pos.c ****     if(LV_COORD_IS_PCT(tr_x)) tr_x = (w * LV_COORD_GET_PCT(tr_x)) / 100;
 3161              		.loc 1 624 20 is_stmt 0 view .LVU914
 3162 0090 2046     		mov	r0, r4
 3163 0092 FFF7FEFF 		bl	lv_obj_get_height
 3164              	.LVL305:
 3165 0096 0390     		str	r0, [sp, #12]
 3166              	.LVL306:
 625:Middlewares/lvgl/src/core/lv_obj_pos.c ****     if(LV_COORD_IS_PCT(tr_y)) tr_y = (h * LV_COORD_GET_PCT(tr_y)) / 100;
 3167              		.loc 1 625 5 is_stmt 1 view .LVU915
 625:Middlewares/lvgl/src/core/lv_obj_pos.c ****     if(LV_COORD_IS_PCT(tr_y)) tr_y = (h * LV_COORD_GET_PCT(tr_y)) / 100;
 3168              		.loc 1 625 8 is_stmt 0 view .LVU916
 3169 0098 09F4C049 		and	r9, r9, #24576
 3170              	.LVL307:
 625:Middlewares/lvgl/src/core/lv_obj_pos.c ****     if(LV_COORD_IS_PCT(tr_y)) tr_y = (h * LV_COORD_GET_PCT(tr_y)) / 100;
 3171              		.loc 1 625 7 view .LVU917
 3172 009c B9F5005F 		cmp	r9, #8192
 3173 00a0 55D0     		beq	.L179
 3174              	.L142:
 626:Middlewares/lvgl/src/core/lv_obj_pos.c **** 
 3175              		.loc 1 626 5 is_stmt 1 view .LVU918
 626:Middlewares/lvgl/src/core/lv_obj_pos.c **** 
 3176              		.loc 1 626 8 is_stmt 0 view .LVU919
 3177 00a2 08F4C048 		and	r8, r8, #24576
ARM GAS  /tmp/ccnhv9Lg.s 			page 91


 626:Middlewares/lvgl/src/core/lv_obj_pos.c **** 
 3178              		.loc 1 626 7 view .LVU920
 3179 00a6 B8F5005F 		cmp	r8, #8192
 3180 00aa 67D0     		beq	.L180
 3181              	.L145:
 629:Middlewares/lvgl/src/core/lv_obj_pos.c ****     y += tr_y;
 3182              		.loc 1 629 5 is_stmt 1 view .LVU921
 629:Middlewares/lvgl/src/core/lv_obj_pos.c ****     y += tr_y;
 3183              		.loc 1 629 7 is_stmt 0 view .LVU922
 3184 00ac 5D44     		add	r5, r5, fp
 3185              	.LVL308:
 629:Middlewares/lvgl/src/core/lv_obj_pos.c ****     y += tr_y;
 3186              		.loc 1 629 7 view .LVU923
 3187 00ae 1FFA85F8 		uxth	r8, r5
 3188 00b2 2DB2     		sxth	r5, r5
 3189              	.LVL309:
 630:Middlewares/lvgl/src/core/lv_obj_pos.c **** 
 3190              		.loc 1 630 5 is_stmt 1 view .LVU924
 630:Middlewares/lvgl/src/core/lv_obj_pos.c **** 
 3191              		.loc 1 630 7 is_stmt 0 view .LVU925
 3192 00b4 5644     		add	r6, r6, r10
 3193              	.LVL310:
 630:Middlewares/lvgl/src/core/lv_obj_pos.c **** 
 3194              		.loc 1 630 7 view .LVU926
 3195 00b6 1FFA86F9 		uxth	r9, r6
 3196 00ba 36B2     		sxth	r6, r6
 3197              	.LVL311:
 632:Middlewares/lvgl/src/core/lv_obj_pos.c **** 
 3198              		.loc 1 632 5 is_stmt 1 view .LVU927
 3199              	.LBB202:
 3200              	.LBI202:
  49:Middlewares/lvgl/src/core/lv_obj_style_gen.h **** {
 3201              		.loc 2 49 26 view .LVU928
 3202              	.LBB203:
  51:Middlewares/lvgl/src/core/lv_obj_style_gen.h ****     return (lv_align_t)v.num;
 3203              		.loc 2 51 5 view .LVU929
  51:Middlewares/lvgl/src/core/lv_obj_style_gen.h ****     return (lv_align_t)v.num;
 3204              		.loc 2 51 26 is_stmt 0 view .LVU930
 3205 00bc 41F20902 		movw	r2, #4105
 3206 00c0 0021     		movs	r1, #0
 3207 00c2 2046     		mov	r0, r4
 3208 00c4 FFF7FEFF 		bl	lv_obj_get_style_prop
 3209              	.LVL312:
  52:Middlewares/lvgl/src/core/lv_obj_style_gen.h **** }
 3210              		.loc 2 52 5 is_stmt 1 view .LVU931
  52:Middlewares/lvgl/src/core/lv_obj_style_gen.h **** }
 3211              		.loc 2 52 5 is_stmt 0 view .LVU932
 3212              	.LBE203:
 3213              	.LBE202:
 634:Middlewares/lvgl/src/core/lv_obj_pos.c ****         if(lv_obj_get_style_base_dir(parent, LV_PART_MAIN) == LV_BASE_DIR_RTL) align = LV_ALIGN_TOP
 3214              		.loc 1 634 5 is_stmt 1 view .LVU933
 634:Middlewares/lvgl/src/core/lv_obj_pos.c ****         if(lv_obj_get_style_base_dir(parent, LV_PART_MAIN) == LV_BASE_DIR_RTL) align = LV_ALIGN_TOP
 3215              		.loc 1 634 7 is_stmt 0 view .LVU934
 3216 00c8 10F0FF00 		ands	r0, r0, #255
 3217              	.LVL313:
 634:Middlewares/lvgl/src/core/lv_obj_pos.c ****         if(lv_obj_get_style_base_dir(parent, LV_PART_MAIN) == LV_BASE_DIR_RTL) align = LV_ALIGN_TOP
 3218              		.loc 1 634 7 view .LVU935
ARM GAS  /tmp/ccnhv9Lg.s 			page 92


 3219 00cc 6DD0     		beq	.L181
 3220              	.LVL314:
 639:Middlewares/lvgl/src/core/lv_obj_pos.c ****         lv_obj_move_to(obj, x, y);
 3221              		.loc 1 639 5 is_stmt 1 view .LVU936
 639:Middlewares/lvgl/src/core/lv_obj_pos.c ****         lv_obj_move_to(obj, x, y);
 3222              		.loc 1 639 7 is_stmt 0 view .LVU937
 3223 00ce 0128     		cmp	r0, #1
 3224 00d0 74D0     		beq	.L150
 3225              	.LVL315:
 3226              	.L149:
 644:Middlewares/lvgl/src/core/lv_obj_pos.c ****         case LV_ALIGN_TOP_MID:
 3227              		.loc 1 644 9 is_stmt 1 view .LVU938
 3228 00d2 0238     		subs	r0, r0, #2
 3229 00d4 0728     		cmp	r0, #7
 3230 00d6 00F28780 		bhi	.L151
 3231 00da DFE810F0 		tbh	[pc, r0, lsl #1]
 3232              	.L153:
 3233 00de 7700     		.2byte	(.L160-.L153)/2
 3234 00e0 8F00     		.2byte	(.L159-.L153)/2
 3235 00e2 A900     		.2byte	(.L158-.L153)/2
 3236 00e4 B000     		.2byte	(.L157-.L153)/2
 3237 00e6 C900     		.2byte	(.L156-.L153)/2
 3238 00e8 9600     		.2byte	(.L155-.L153)/2
 3239 00ea D600     		.2byte	(.L154-.L153)/2
 3240 00ec EF00     		.2byte	(.L152-.L153)/2
 3241              	.LVL316:
 3242              		.p2align 1
 3243              	.L176:
 610:Middlewares/lvgl/src/core/lv_obj_pos.c ****         return;
 3244              		.loc 1 610 9 view .LVU939
 3245 00ee 3246     		mov	r2, r6
 3246 00f0 2946     		mov	r1, r5
 3247 00f2 2046     		mov	r0, r4
 3248 00f4 FFF7FEFF 		bl	lv_obj_move_to
 3249              	.LVL317:
 611:Middlewares/lvgl/src/core/lv_obj_pos.c ****     }
 3250              		.loc 1 611 9 view .LVU940
 3251 00f8 89E7     		b	.L133
 3252              	.LVL318:
 3253              	.L177:
 617:Middlewares/lvgl/src/core/lv_obj_pos.c ****     if(LV_COORD_IS_PCT(y)) y = (ph * LV_COORD_GET_PCT(y)) / 100;
 3254              		.loc 1 617 8 is_stmt 0 discriminator 1 view .LVU941
 3255 00fa 25F4C043 		bic	r3, r5, #24576
 3256 00fe B3F5FA6F 		cmp	r3, #2000
 3257 0102 AADC     		bgt	.L136
 617:Middlewares/lvgl/src/core/lv_obj_pos.c ****     if(LV_COORD_IS_PCT(y)) y = (ph * LV_COORD_GET_PCT(y)) / 100;
 3258              		.loc 1 617 28 is_stmt 1 discriminator 2 view .LVU942
 617:Middlewares/lvgl/src/core/lv_obj_pos.c ****     if(LV_COORD_IS_PCT(y)) y = (ph * LV_COORD_GET_PCT(y)) / 100;
 3259              		.loc 1 617 38 is_stmt 0 discriminator 2 view .LVU943
 3260 0104 B3F57A7F 		cmp	r3, #1000
 3261 0108 01DD     		ble	.L138
 617:Middlewares/lvgl/src/core/lv_obj_pos.c ****     if(LV_COORD_IS_PCT(y)) y = (ph * LV_COORD_GET_PCT(y)) / 100;
 3262              		.loc 1 617 38 discriminator 3 view .LVU944
 3263 010a C3F57A73 		rsb	r3, r3, #1000
 3264              	.L138:
 617:Middlewares/lvgl/src/core/lv_obj_pos.c ****     if(LV_COORD_IS_PCT(y)) y = (ph * LV_COORD_GET_PCT(y)) / 100;
 3265              		.loc 1 617 36 discriminator 6 view .LVU945
ARM GAS  /tmp/ccnhv9Lg.s 			page 93


 3266 010e 009A     		ldr	r2, [sp]
 3267 0110 02FB03F3 		mul	r3, r2, r3
 617:Middlewares/lvgl/src/core/lv_obj_pos.c ****     if(LV_COORD_IS_PCT(y)) y = (ph * LV_COORD_GET_PCT(y)) / 100;
 3268              		.loc 1 617 59 discriminator 6 view .LVU946
 3269 0114 7C4A     		ldr	r2, .L195
 3270 0116 82FB0312 		smull	r1, r2, r2, r3
 3271 011a DD17     		asrs	r5, r3, #31
 3272              	.LVL319:
 617:Middlewares/lvgl/src/core/lv_obj_pos.c ****     if(LV_COORD_IS_PCT(y)) y = (ph * LV_COORD_GET_PCT(y)) / 100;
 3273              		.loc 1 617 59 discriminator 6 view .LVU947
 3274 011c C5EB6215 		rsb	r5, r5, r2, asr #5
 617:Middlewares/lvgl/src/core/lv_obj_pos.c ****     if(LV_COORD_IS_PCT(y)) y = (ph * LV_COORD_GET_PCT(y)) / 100;
 3275              		.loc 1 617 30 discriminator 6 view .LVU948
 3276 0120 2DB2     		sxth	r5, r5
 3277              	.LVL320:
 617:Middlewares/lvgl/src/core/lv_obj_pos.c ****     if(LV_COORD_IS_PCT(y)) y = (ph * LV_COORD_GET_PCT(y)) / 100;
 3278              		.loc 1 617 30 discriminator 6 view .LVU949
 3279 0122 9AE7     		b	.L136
 3280              	.L178:
 618:Middlewares/lvgl/src/core/lv_obj_pos.c **** 
 3281              		.loc 1 618 8 discriminator 1 view .LVU950
 3282 0124 26F4C043 		bic	r3, r6, #24576
 3283 0128 B3F5FA6F 		cmp	r3, #2000
 3284 012c 9ADC     		bgt	.L139
 618:Middlewares/lvgl/src/core/lv_obj_pos.c **** 
 3285              		.loc 1 618 28 is_stmt 1 discriminator 2 view .LVU951
 618:Middlewares/lvgl/src/core/lv_obj_pos.c **** 
 3286              		.loc 1 618 38 is_stmt 0 discriminator 2 view .LVU952
 3287 012e B3F57A7F 		cmp	r3, #1000
 3288 0132 01DD     		ble	.L141
 618:Middlewares/lvgl/src/core/lv_obj_pos.c **** 
 3289              		.loc 1 618 38 discriminator 3 view .LVU953
 3290 0134 C3F57A73 		rsb	r3, r3, #1000
 3291              	.L141:
 618:Middlewares/lvgl/src/core/lv_obj_pos.c **** 
 3292              		.loc 1 618 36 discriminator 6 view .LVU954
 3293 0138 019A     		ldr	r2, [sp, #4]
 3294 013a 02FB03F3 		mul	r3, r2, r3
 618:Middlewares/lvgl/src/core/lv_obj_pos.c **** 
 3295              		.loc 1 618 59 discriminator 6 view .LVU955
 3296 013e 724A     		ldr	r2, .L195
 3297 0140 82FB0312 		smull	r1, r2, r2, r3
 3298 0144 DE17     		asrs	r6, r3, #31
 3299              	.LVL321:
 618:Middlewares/lvgl/src/core/lv_obj_pos.c **** 
 3300              		.loc 1 618 59 discriminator 6 view .LVU956
 3301 0146 C6EB6216 		rsb	r6, r6, r2, asr #5
 618:Middlewares/lvgl/src/core/lv_obj_pos.c **** 
 3302              		.loc 1 618 30 discriminator 6 view .LVU957
 3303 014a 36B2     		sxth	r6, r6
 3304              	.LVL322:
 618:Middlewares/lvgl/src/core/lv_obj_pos.c **** 
 3305              		.loc 1 618 30 discriminator 6 view .LVU958
 3306 014c 8AE7     		b	.L139
 3307              	.LVL323:
 3308              	.L179:
 625:Middlewares/lvgl/src/core/lv_obj_pos.c ****     if(LV_COORD_IS_PCT(tr_y)) tr_y = (h * LV_COORD_GET_PCT(tr_y)) / 100;
ARM GAS  /tmp/ccnhv9Lg.s 			page 94


 3309              		.loc 1 625 8 discriminator 1 view .LVU959
 3310 014e 2BF4C043 		bic	r3, fp, #24576
 3311 0152 B3F5FA6F 		cmp	r3, #2000
 3312 0156 A4DC     		bgt	.L142
 625:Middlewares/lvgl/src/core/lv_obj_pos.c ****     if(LV_COORD_IS_PCT(tr_y)) tr_y = (h * LV_COORD_GET_PCT(tr_y)) / 100;
 3313              		.loc 1 625 31 is_stmt 1 discriminator 2 view .LVU960
 625:Middlewares/lvgl/src/core/lv_obj_pos.c ****     if(LV_COORD_IS_PCT(tr_y)) tr_y = (h * LV_COORD_GET_PCT(tr_y)) / 100;
 3314              		.loc 1 625 43 is_stmt 0 discriminator 2 view .LVU961
 3315 0158 B3F57A7F 		cmp	r3, #1000
 3316 015c 01DD     		ble	.L144
 625:Middlewares/lvgl/src/core/lv_obj_pos.c ****     if(LV_COORD_IS_PCT(tr_y)) tr_y = (h * LV_COORD_GET_PCT(tr_y)) / 100;
 3317              		.loc 1 625 43 discriminator 3 view .LVU962
 3318 015e C3F57A73 		rsb	r3, r3, #1000
 3319              	.L144:
 625:Middlewares/lvgl/src/core/lv_obj_pos.c ****     if(LV_COORD_IS_PCT(tr_y)) tr_y = (h * LV_COORD_GET_PCT(tr_y)) / 100;
 3320              		.loc 1 625 41 discriminator 6 view .LVU963
 3321 0162 029A     		ldr	r2, [sp, #8]
 3322 0164 02FB03F3 		mul	r3, r2, r3
 625:Middlewares/lvgl/src/core/lv_obj_pos.c ****     if(LV_COORD_IS_PCT(tr_y)) tr_y = (h * LV_COORD_GET_PCT(tr_y)) / 100;
 3323              		.loc 1 625 67 discriminator 6 view .LVU964
 3324 0168 674A     		ldr	r2, .L195
 3325 016a 82FB0312 		smull	r1, r2, r2, r3
 3326 016e 4FEAE37B 		asr	fp, r3, #31
 3327              	.LVL324:
 625:Middlewares/lvgl/src/core/lv_obj_pos.c ****     if(LV_COORD_IS_PCT(tr_y)) tr_y = (h * LV_COORD_GET_PCT(tr_y)) / 100;
 3328              		.loc 1 625 67 discriminator 6 view .LVU965
 3329 0172 CBEB621B 		rsb	fp, fp, r2, asr #5
 625:Middlewares/lvgl/src/core/lv_obj_pos.c ****     if(LV_COORD_IS_PCT(tr_y)) tr_y = (h * LV_COORD_GET_PCT(tr_y)) / 100;
 3330              		.loc 1 625 36 discriminator 6 view .LVU966
 3331 0176 0FFA8BFB 		sxth	fp, fp
 3332              	.LVL325:
 625:Middlewares/lvgl/src/core/lv_obj_pos.c ****     if(LV_COORD_IS_PCT(tr_y)) tr_y = (h * LV_COORD_GET_PCT(tr_y)) / 100;
 3333              		.loc 1 625 36 discriminator 6 view .LVU967
 3334 017a 92E7     		b	.L142
 3335              	.L180:
 626:Middlewares/lvgl/src/core/lv_obj_pos.c **** 
 3336              		.loc 1 626 8 discriminator 1 view .LVU968
 3337 017c 2AF4C043 		bic	r3, r10, #24576
 3338 0180 B3F5FA6F 		cmp	r3, #2000
 3339 0184 92DC     		bgt	.L145
 626:Middlewares/lvgl/src/core/lv_obj_pos.c **** 
 3340              		.loc 1 626 31 is_stmt 1 discriminator 2 view .LVU969
 626:Middlewares/lvgl/src/core/lv_obj_pos.c **** 
 3341              		.loc 1 626 43 is_stmt 0 discriminator 2 view .LVU970
 3342 0186 B3F57A7F 		cmp	r3, #1000
 3343 018a 01DD     		ble	.L147
 626:Middlewares/lvgl/src/core/lv_obj_pos.c **** 
 3344              		.loc 1 626 43 discriminator 3 view .LVU971
 3345 018c C3F57A73 		rsb	r3, r3, #1000
 3346              	.L147:
 626:Middlewares/lvgl/src/core/lv_obj_pos.c **** 
 3347              		.loc 1 626 41 discriminator 6 view .LVU972
 3348 0190 039A     		ldr	r2, [sp, #12]
 3349 0192 02FB03F3 		mul	r3, r2, r3
 626:Middlewares/lvgl/src/core/lv_obj_pos.c **** 
 3350              		.loc 1 626 67 discriminator 6 view .LVU973
 3351 0196 5C4A     		ldr	r2, .L195
ARM GAS  /tmp/ccnhv9Lg.s 			page 95


 3352 0198 82FB0312 		smull	r1, r2, r2, r3
 3353 019c 4FEAE37A 		asr	r10, r3, #31
 3354              	.LVL326:
 626:Middlewares/lvgl/src/core/lv_obj_pos.c **** 
 3355              		.loc 1 626 67 discriminator 6 view .LVU974
 3356 01a0 CAEB621A 		rsb	r10, r10, r2, asr #5
 626:Middlewares/lvgl/src/core/lv_obj_pos.c **** 
 3357              		.loc 1 626 36 discriminator 6 view .LVU975
 3358 01a4 0FFA8AFA 		sxth	r10, r10
 3359              	.LVL327:
 626:Middlewares/lvgl/src/core/lv_obj_pos.c **** 
 3360              		.loc 1 626 36 discriminator 6 view .LVU976
 3361 01a8 80E7     		b	.L145
 3362              	.L181:
 635:Middlewares/lvgl/src/core/lv_obj_pos.c ****         else align = LV_ALIGN_TOP_LEFT;
 3363              		.loc 1 635 9 is_stmt 1 view .LVU977
 3364              	.LVL328:
 3365              	.LBB204:
 3366              	.LBI204:
 187:Middlewares/lvgl/src/core/lv_obj_style_gen.h **** {
 3367              		.loc 2 187 29 view .LVU978
 3368              	.LBB205:
 189:Middlewares/lvgl/src/core/lv_obj_style_gen.h ****     return (lv_base_dir_t)v.num;
 3369              		.loc 2 189 5 view .LVU979
 189:Middlewares/lvgl/src/core/lv_obj_style_gen.h ****     return (lv_base_dir_t)v.num;
 3370              		.loc 2 189 26 is_stmt 0 view .LVU980
 3371 01aa 41F26A42 		movw	r2, #5226
 3372 01ae 0021     		movs	r1, #0
 3373 01b0 3846     		mov	r0, r7
 3374 01b2 FFF7FEFF 		bl	lv_obj_get_style_prop
 3375              	.LVL329:
 190:Middlewares/lvgl/src/core/lv_obj_style_gen.h **** }
 3376              		.loc 2 190 5 is_stmt 1 view .LVU981
 190:Middlewares/lvgl/src/core/lv_obj_style_gen.h **** }
 3377              		.loc 2 190 12 is_stmt 0 view .LVU982
 3378 01b6 C0B2     		uxtb	r0, r0
 3379              	.LVL330:
 190:Middlewares/lvgl/src/core/lv_obj_style_gen.h **** }
 3380              		.loc 2 190 12 view .LVU983
 3381              	.LBE205:
 3382              	.LBE204:
 635:Middlewares/lvgl/src/core/lv_obj_pos.c ****         else align = LV_ALIGN_TOP_LEFT;
 3383              		.loc 1 635 11 view .LVU984
 3384 01b8 0128     		cmp	r0, #1
 3385 01ba 05D0     		beq	.L182
 3386              	.L150:
 640:Middlewares/lvgl/src/core/lv_obj_pos.c ****     }
 3387              		.loc 1 640 9 is_stmt 1 view .LVU985
 3388 01bc 3246     		mov	r2, r6
 3389 01be 2946     		mov	r1, r5
 3390 01c0 2046     		mov	r0, r4
 3391 01c2 FFF7FEFF 		bl	lv_obj_move_to
 3392              	.LVL331:
 3393 01c6 22E7     		b	.L133
 3394              	.L182:
 635:Middlewares/lvgl/src/core/lv_obj_pos.c ****         else align = LV_ALIGN_TOP_LEFT;
 3395              		.loc 1 635 86 is_stmt 0 view .LVU986
ARM GAS  /tmp/ccnhv9Lg.s 			page 96


 3396 01c8 0320     		movs	r0, #3
 3397 01ca 82E7     		b	.L149
 3398              	.L160:
 646:Middlewares/lvgl/src/core/lv_obj_pos.c ****             break;
 3399              		.loc 1 646 13 is_stmt 1 view .LVU987
 646:Middlewares/lvgl/src/core/lv_obj_pos.c ****             break;
 3400              		.loc 1 646 25 is_stmt 0 view .LVU988
 3401 01cc 009A     		ldr	r2, [sp]
 3402 01ce 1346     		mov	r3, r2
 3403 01d0 002A     		cmp	r2, #0
 3404 01d2 0FDB     		blt	.L183
 3405              	.L161:
 3406 01d4 5D10     		asrs	r5, r3, #1
 3407              	.LVL332:
 646:Middlewares/lvgl/src/core/lv_obj_pos.c ****             break;
 3408              		.loc 1 646 25 view .LVU989
 3409 01d6 029A     		ldr	r2, [sp, #8]
 3410 01d8 1346     		mov	r3, r2
 3411 01da 002A     		cmp	r2, #0
 3412 01dc 0CDB     		blt	.L184
 3413              	.L162:
 3414 01de A5EB6305 		sub	r5, r5, r3, asr #1
 646:Middlewares/lvgl/src/core/lv_obj_pos.c ****             break;
 3415              		.loc 1 646 15 view .LVU990
 3416 01e2 18FA85F5 		uxtah	r5, r8, r5
 3417 01e6 2DB2     		sxth	r5, r5
 3418              	.LVL333:
 647:Middlewares/lvgl/src/core/lv_obj_pos.c ****         case LV_ALIGN_TOP_RIGHT:
 3419              		.loc 1 647 13 is_stmt 1 view .LVU991
 3420              	.L151:
 676:Middlewares/lvgl/src/core/lv_obj_pos.c ****     }
 3421              		.loc 1 676 9 view .LVU992
 3422 01e8 3246     		mov	r2, r6
 3423 01ea 2946     		mov	r1, r5
 3424 01ec 2046     		mov	r0, r4
 3425 01ee FFF7FEFF 		bl	lv_obj_move_to
 3426              	.LVL334:
 3427 01f2 0CE7     		b	.L133
 3428              	.L183:
 646:Middlewares/lvgl/src/core/lv_obj_pos.c ****             break;
 3429              		.loc 1 646 25 is_stmt 0 view .LVU993
 3430 01f4 0133     		adds	r3, r3, #1
 3431 01f6 EDE7     		b	.L161
 3432              	.LVL335:
 3433              	.L184:
 646:Middlewares/lvgl/src/core/lv_obj_pos.c ****             break;
 3434              		.loc 1 646 25 view .LVU994
 3435 01f8 0133     		adds	r3, r3, #1
 3436 01fa F0E7     		b	.L162
 3437              	.LVL336:
 3438              	.L159:
 649:Middlewares/lvgl/src/core/lv_obj_pos.c ****             break;
 3439              		.loc 1 649 13 is_stmt 1 view .LVU995
 649:Middlewares/lvgl/src/core/lv_obj_pos.c ****             break;
 3440              		.loc 1 649 21 is_stmt 0 view .LVU996
 3441 01fc 009B     		ldr	r3, [sp]
 3442 01fe 029A     		ldr	r2, [sp, #8]
ARM GAS  /tmp/ccnhv9Lg.s 			page 97


 3443 0200 9D1A     		subs	r5, r3, r2
 3444              	.LVL337:
 649:Middlewares/lvgl/src/core/lv_obj_pos.c ****             break;
 3445              		.loc 1 649 15 view .LVU997
 3446 0202 18FA85F5 		uxtah	r5, r8, r5
 3447 0206 2DB2     		sxth	r5, r5
 3448              	.LVL338:
 650:Middlewares/lvgl/src/core/lv_obj_pos.c ****         case LV_ALIGN_LEFT_MID:
 3449              		.loc 1 650 13 is_stmt 1 view .LVU998
 3450 0208 EEE7     		b	.L151
 3451              	.L155:
 652:Middlewares/lvgl/src/core/lv_obj_pos.c ****             break;
 3452              		.loc 1 652 13 view .LVU999
 652:Middlewares/lvgl/src/core/lv_obj_pos.c ****             break;
 3453              		.loc 1 652 25 is_stmt 0 view .LVU1000
 3454 020a 019A     		ldr	r2, [sp, #4]
 3455 020c 1346     		mov	r3, r2
 3456 020e 002A     		cmp	r2, #0
 3457 0210 0ADB     		blt	.L185
 3458              	.L163:
 3459 0212 5E10     		asrs	r6, r3, #1
 3460              	.LVL339:
 652:Middlewares/lvgl/src/core/lv_obj_pos.c ****             break;
 3461              		.loc 1 652 25 view .LVU1001
 3462 0214 039A     		ldr	r2, [sp, #12]
 3463 0216 1346     		mov	r3, r2
 3464 0218 002A     		cmp	r2, #0
 3465 021a 07DB     		blt	.L186
 3466              	.L164:
 3467 021c A6EB6306 		sub	r6, r6, r3, asr #1
 652:Middlewares/lvgl/src/core/lv_obj_pos.c ****             break;
 3468              		.loc 1 652 15 view .LVU1002
 3469 0220 19FA86F6 		uxtah	r6, r9, r6
 3470 0224 36B2     		sxth	r6, r6
 3471              	.LVL340:
 653:Middlewares/lvgl/src/core/lv_obj_pos.c ****         case LV_ALIGN_BOTTOM_LEFT:
 3472              		.loc 1 653 13 is_stmt 1 view .LVU1003
 3473 0226 DFE7     		b	.L151
 3474              	.L185:
 652:Middlewares/lvgl/src/core/lv_obj_pos.c ****             break;
 3475              		.loc 1 652 25 is_stmt 0 view .LVU1004
 3476 0228 0133     		adds	r3, r3, #1
 3477 022a F2E7     		b	.L163
 3478              	.LVL341:
 3479              	.L186:
 652:Middlewares/lvgl/src/core/lv_obj_pos.c ****             break;
 3480              		.loc 1 652 25 view .LVU1005
 3481 022c 0133     		adds	r3, r3, #1
 3482 022e F5E7     		b	.L164
 3483              	.LVL342:
 3484              	.L158:
 655:Middlewares/lvgl/src/core/lv_obj_pos.c ****             break;
 3485              		.loc 1 655 13 is_stmt 1 view .LVU1006
 655:Middlewares/lvgl/src/core/lv_obj_pos.c ****             break;
 3486              		.loc 1 655 21 is_stmt 0 view .LVU1007
 3487 0230 019B     		ldr	r3, [sp, #4]
 3488 0232 039A     		ldr	r2, [sp, #12]
ARM GAS  /tmp/ccnhv9Lg.s 			page 98


 3489 0234 9E1A     		subs	r6, r3, r2
 3490              	.LVL343:
 655:Middlewares/lvgl/src/core/lv_obj_pos.c ****             break;
 3491              		.loc 1 655 15 view .LVU1008
 3492 0236 19FA86F6 		uxtah	r6, r9, r6
 3493 023a 36B2     		sxth	r6, r6
 3494              	.LVL344:
 656:Middlewares/lvgl/src/core/lv_obj_pos.c ****         case LV_ALIGN_BOTTOM_MID:
 3495              		.loc 1 656 13 is_stmt 1 view .LVU1009
 3496 023c D4E7     		b	.L151
 3497              	.L157:
 658:Middlewares/lvgl/src/core/lv_obj_pos.c ****             y += ph - h;
 3498              		.loc 1 658 13 view .LVU1010
 658:Middlewares/lvgl/src/core/lv_obj_pos.c ****             y += ph - h;
 3499              		.loc 1 658 25 is_stmt 0 view .LVU1011
 3500 023e 009A     		ldr	r2, [sp]
 3501 0240 1346     		mov	r3, r2
 3502 0242 002A     		cmp	r2, #0
 3503 0244 10DB     		blt	.L187
 3504              	.L165:
 3505 0246 5D10     		asrs	r5, r3, #1
 3506              	.LVL345:
 658:Middlewares/lvgl/src/core/lv_obj_pos.c ****             y += ph - h;
 3507              		.loc 1 658 25 view .LVU1012
 3508 0248 029A     		ldr	r2, [sp, #8]
 3509 024a 1346     		mov	r3, r2
 3510 024c 002A     		cmp	r2, #0
 3511 024e 0DDB     		blt	.L188
 3512              	.L166:
 3513 0250 A5EB6305 		sub	r5, r5, r3, asr #1
 658:Middlewares/lvgl/src/core/lv_obj_pos.c ****             y += ph - h;
 3514              		.loc 1 658 15 view .LVU1013
 3515 0254 18FA85F5 		uxtah	r5, r8, r5
 3516 0258 2DB2     		sxth	r5, r5
 3517              	.LVL346:
 659:Middlewares/lvgl/src/core/lv_obj_pos.c ****             break;
 3518              		.loc 1 659 13 is_stmt 1 view .LVU1014
 659:Middlewares/lvgl/src/core/lv_obj_pos.c ****             break;
 3519              		.loc 1 659 21 is_stmt 0 view .LVU1015
 3520 025a 019B     		ldr	r3, [sp, #4]
 3521 025c 039A     		ldr	r2, [sp, #12]
 3522 025e 9E1A     		subs	r6, r3, r2
 3523              	.LVL347:
 659:Middlewares/lvgl/src/core/lv_obj_pos.c ****             break;
 3524              		.loc 1 659 15 view .LVU1016
 3525 0260 19FA86F6 		uxtah	r6, r9, r6
 3526 0264 36B2     		sxth	r6, r6
 3527              	.LVL348:
 660:Middlewares/lvgl/src/core/lv_obj_pos.c ****         case LV_ALIGN_BOTTOM_RIGHT:
 3528              		.loc 1 660 13 is_stmt 1 view .LVU1017
 3529 0266 BFE7     		b	.L151
 3530              	.L187:
 658:Middlewares/lvgl/src/core/lv_obj_pos.c ****             y += ph - h;
 3531              		.loc 1 658 25 is_stmt 0 view .LVU1018
 3532 0268 0133     		adds	r3, r3, #1
 3533 026a ECE7     		b	.L165
 3534              	.LVL349:
ARM GAS  /tmp/ccnhv9Lg.s 			page 99


 3535              	.L188:
 658:Middlewares/lvgl/src/core/lv_obj_pos.c ****             y += ph - h;
 3536              		.loc 1 658 25 view .LVU1019
 3537 026c 0133     		adds	r3, r3, #1
 3538 026e EFE7     		b	.L166
 3539              	.LVL350:
 3540              	.L156:
 662:Middlewares/lvgl/src/core/lv_obj_pos.c ****             y += ph - h;
 3541              		.loc 1 662 13 is_stmt 1 view .LVU1020
 662:Middlewares/lvgl/src/core/lv_obj_pos.c ****             y += ph - h;
 3542              		.loc 1 662 21 is_stmt 0 view .LVU1021
 3543 0270 009B     		ldr	r3, [sp]
 3544 0272 029A     		ldr	r2, [sp, #8]
 3545 0274 9D1A     		subs	r5, r3, r2
 3546              	.LVL351:
 662:Middlewares/lvgl/src/core/lv_obj_pos.c ****             y += ph - h;
 3547              		.loc 1 662 15 view .LVU1022
 3548 0276 18FA85F5 		uxtah	r5, r8, r5
 3549 027a 2DB2     		sxth	r5, r5
 3550              	.LVL352:
 663:Middlewares/lvgl/src/core/lv_obj_pos.c ****             break;
 3551              		.loc 1 663 13 is_stmt 1 view .LVU1023
 663:Middlewares/lvgl/src/core/lv_obj_pos.c ****             break;
 3552              		.loc 1 663 21 is_stmt 0 view .LVU1024
 3553 027c 019B     		ldr	r3, [sp, #4]
 3554 027e 039A     		ldr	r2, [sp, #12]
 3555 0280 9E1A     		subs	r6, r3, r2
 3556              	.LVL353:
 663:Middlewares/lvgl/src/core/lv_obj_pos.c ****             break;
 3557              		.loc 1 663 15 view .LVU1025
 3558 0282 19FA86F6 		uxtah	r6, r9, r6
 3559 0286 36B2     		sxth	r6, r6
 3560              	.LVL354:
 664:Middlewares/lvgl/src/core/lv_obj_pos.c ****         case LV_ALIGN_RIGHT_MID:
 3561              		.loc 1 664 13 is_stmt 1 view .LVU1026
 3562 0288 AEE7     		b	.L151
 3563              	.L154:
 666:Middlewares/lvgl/src/core/lv_obj_pos.c ****             y += ph / 2 - h / 2;
 3564              		.loc 1 666 13 view .LVU1027
 666:Middlewares/lvgl/src/core/lv_obj_pos.c ****             y += ph / 2 - h / 2;
 3565              		.loc 1 666 21 is_stmt 0 view .LVU1028
 3566 028a 009B     		ldr	r3, [sp]
 3567 028c 029A     		ldr	r2, [sp, #8]
 3568 028e 9D1A     		subs	r5, r3, r2
 3569              	.LVL355:
 666:Middlewares/lvgl/src/core/lv_obj_pos.c ****             y += ph / 2 - h / 2;
 3570              		.loc 1 666 15 view .LVU1029
 3571 0290 18FA85F5 		uxtah	r5, r8, r5
 3572 0294 2DB2     		sxth	r5, r5
 3573              	.LVL356:
 667:Middlewares/lvgl/src/core/lv_obj_pos.c ****             break;
 3574              		.loc 1 667 13 is_stmt 1 view .LVU1030
 667:Middlewares/lvgl/src/core/lv_obj_pos.c ****             break;
 3575              		.loc 1 667 25 is_stmt 0 view .LVU1031
 3576 0296 019A     		ldr	r2, [sp, #4]
 3577 0298 1346     		mov	r3, r2
 3578 029a 002A     		cmp	r2, #0
ARM GAS  /tmp/ccnhv9Lg.s 			page 100


 3579 029c 0ADB     		blt	.L189
 3580              	.L167:
 3581 029e 5E10     		asrs	r6, r3, #1
 3582              	.LVL357:
 667:Middlewares/lvgl/src/core/lv_obj_pos.c ****             break;
 3583              		.loc 1 667 25 view .LVU1032
 3584 02a0 039A     		ldr	r2, [sp, #12]
 3585 02a2 1346     		mov	r3, r2
 3586 02a4 002A     		cmp	r2, #0
 3587 02a6 07DB     		blt	.L190
 3588              	.L168:
 3589 02a8 A6EB6306 		sub	r6, r6, r3, asr #1
 667:Middlewares/lvgl/src/core/lv_obj_pos.c ****             break;
 3590              		.loc 1 667 15 view .LVU1033
 3591 02ac 19FA86F6 		uxtah	r6, r9, r6
 3592 02b0 36B2     		sxth	r6, r6
 3593              	.LVL358:
 668:Middlewares/lvgl/src/core/lv_obj_pos.c ****         case LV_ALIGN_CENTER:
 3594              		.loc 1 668 13 is_stmt 1 view .LVU1034
 3595 02b2 99E7     		b	.L151
 3596              	.L189:
 667:Middlewares/lvgl/src/core/lv_obj_pos.c ****             break;
 3597              		.loc 1 667 25 is_stmt 0 view .LVU1035
 3598 02b4 0133     		adds	r3, r3, #1
 3599 02b6 F2E7     		b	.L167
 3600              	.LVL359:
 3601              	.L190:
 667:Middlewares/lvgl/src/core/lv_obj_pos.c ****             break;
 3602              		.loc 1 667 25 view .LVU1036
 3603 02b8 0133     		adds	r3, r3, #1
 3604 02ba F5E7     		b	.L168
 3605              	.LVL360:
 3606              	.L152:
 670:Middlewares/lvgl/src/core/lv_obj_pos.c ****             y += ph / 2 - h / 2;
 3607              		.loc 1 670 13 is_stmt 1 view .LVU1037
 670:Middlewares/lvgl/src/core/lv_obj_pos.c ****             y += ph / 2 - h / 2;
 3608              		.loc 1 670 25 is_stmt 0 view .LVU1038
 3609 02bc 009A     		ldr	r2, [sp]
 3610 02be 1346     		mov	r3, r2
 3611 02c0 002A     		cmp	r2, #0
 3612 02c2 18DB     		blt	.L191
 3613              	.L169:
 3614 02c4 5D10     		asrs	r5, r3, #1
 3615              	.LVL361:
 670:Middlewares/lvgl/src/core/lv_obj_pos.c ****             y += ph / 2 - h / 2;
 3616              		.loc 1 670 25 view .LVU1039
 3617 02c6 029A     		ldr	r2, [sp, #8]
 3618 02c8 1346     		mov	r3, r2
 3619 02ca 002A     		cmp	r2, #0
 3620 02cc 15DB     		blt	.L192
 3621              	.L170:
 3622 02ce A5EB6305 		sub	r5, r5, r3, asr #1
 670:Middlewares/lvgl/src/core/lv_obj_pos.c ****             y += ph / 2 - h / 2;
 3623              		.loc 1 670 15 view .LVU1040
 3624 02d2 18FA85F5 		uxtah	r5, r8, r5
 3625 02d6 2DB2     		sxth	r5, r5
 3626              	.LVL362:
ARM GAS  /tmp/ccnhv9Lg.s 			page 101


 671:Middlewares/lvgl/src/core/lv_obj_pos.c ****             break;
 3627              		.loc 1 671 13 is_stmt 1 view .LVU1041
 671:Middlewares/lvgl/src/core/lv_obj_pos.c ****             break;
 3628              		.loc 1 671 25 is_stmt 0 view .LVU1042
 3629 02d8 019A     		ldr	r2, [sp, #4]
 3630 02da 1346     		mov	r3, r2
 3631 02dc 002A     		cmp	r2, #0
 3632 02de 0EDB     		blt	.L193
 3633              	.L171:
 3634 02e0 5E10     		asrs	r6, r3, #1
 3635              	.LVL363:
 671:Middlewares/lvgl/src/core/lv_obj_pos.c ****             break;
 3636              		.loc 1 671 25 view .LVU1043
 3637 02e2 039A     		ldr	r2, [sp, #12]
 3638 02e4 1346     		mov	r3, r2
 3639 02e6 002A     		cmp	r2, #0
 3640 02e8 0BDB     		blt	.L194
 3641              	.L172:
 3642 02ea A6EB6306 		sub	r6, r6, r3, asr #1
 671:Middlewares/lvgl/src/core/lv_obj_pos.c ****             break;
 3643              		.loc 1 671 15 view .LVU1044
 3644 02ee 19FA86F6 		uxtah	r6, r9, r6
 3645 02f2 36B2     		sxth	r6, r6
 3646              	.LVL364:
 672:Middlewares/lvgl/src/core/lv_obj_pos.c ****         default:
 3647              		.loc 1 672 13 is_stmt 1 view .LVU1045
 3648 02f4 78E7     		b	.L151
 3649              	.L191:
 670:Middlewares/lvgl/src/core/lv_obj_pos.c ****             y += ph / 2 - h / 2;
 3650              		.loc 1 670 25 is_stmt 0 view .LVU1046
 3651 02f6 0133     		adds	r3, r3, #1
 3652 02f8 E4E7     		b	.L169
 3653              	.LVL365:
 3654              	.L192:
 670:Middlewares/lvgl/src/core/lv_obj_pos.c ****             y += ph / 2 - h / 2;
 3655              		.loc 1 670 25 view .LVU1047
 3656 02fa 0133     		adds	r3, r3, #1
 3657 02fc E7E7     		b	.L170
 3658              	.LVL366:
 3659              	.L193:
 671:Middlewares/lvgl/src/core/lv_obj_pos.c ****             break;
 3660              		.loc 1 671 25 view .LVU1048
 3661 02fe 0133     		adds	r3, r3, #1
 3662 0300 EEE7     		b	.L171
 3663              	.LVL367:
 3664              	.L194:
 671:Middlewares/lvgl/src/core/lv_obj_pos.c ****             break;
 3665              		.loc 1 671 25 view .LVU1049
 3666 0302 0133     		adds	r3, r3, #1
 3667 0304 F1E7     		b	.L172
 3668              	.L196:
 3669 0306 00BF     		.align	2
 3670              	.L195:
 3671 0308 1F85EB51 		.word	1374389535
 3672              		.cfi_endproc
 3673              	.LFE183:
 3675              		.section	.text.lv_obj_is_visible,"ax",%progbits
ARM GAS  /tmp/ccnhv9Lg.s 			page 102


 3676              		.align	1
 3677              		.global	lv_obj_is_visible
 3678              		.syntax unified
 3679              		.thumb
 3680              		.thumb_func
 3682              	lv_obj_is_visible:
 3683              	.LVL368:
 3684              	.LFB189:
 840:Middlewares/lvgl/src/core/lv_obj_pos.c ****     LV_ASSERT_OBJ(obj, MY_CLASS);
 3685              		.loc 1 840 1 is_stmt 1 view -0
 3686              		.cfi_startproc
 3687              		@ args = 0, pretend = 0, frame = 8
 3688              		@ frame_needed = 0, uses_anonymous_args = 0
 840:Middlewares/lvgl/src/core/lv_obj_pos.c ****     LV_ASSERT_OBJ(obj, MY_CLASS);
 3689              		.loc 1 840 1 is_stmt 0 view .LVU1051
 3690 0000 10B5     		push	{r4, lr}
 3691              	.LCFI61:
 3692              		.cfi_def_cfa_offset 8
 3693              		.cfi_offset 4, -8
 3694              		.cfi_offset 14, -4
 3695 0002 82B0     		sub	sp, sp, #8
 3696              	.LCFI62:
 3697              		.cfi_def_cfa_offset 16
 3698 0004 0446     		mov	r4, r0
 841:Middlewares/lvgl/src/core/lv_obj_pos.c **** 
 3699              		.loc 1 841 5 is_stmt 1 view .LVU1052
 841:Middlewares/lvgl/src/core/lv_obj_pos.c **** 
 3700              		.loc 1 841 5 view .LVU1053
 841:Middlewares/lvgl/src/core/lv_obj_pos.c **** 
 3701              		.loc 1 841 5 view .LVU1054
 843:Middlewares/lvgl/src/core/lv_obj_pos.c ****     lv_coord_t ext_size = _lv_obj_get_ext_draw_size(obj);
 3702              		.loc 1 843 5 view .LVU1055
 844:Middlewares/lvgl/src/core/lv_obj_pos.c ****     lv_area_copy(&obj_coords, &obj->coords);
 3703              		.loc 1 844 5 view .LVU1056
 844:Middlewares/lvgl/src/core/lv_obj_pos.c ****     lv_area_copy(&obj_coords, &obj->coords);
 3704              		.loc 1 844 27 is_stmt 0 view .LVU1057
 3705 0006 FFF7FEFF 		bl	_lv_obj_get_ext_draw_size
 3706              	.LVL369:
 845:Middlewares/lvgl/src/core/lv_obj_pos.c ****     obj_coords.x1 -= ext_size;
 3707              		.loc 1 845 5 is_stmt 1 view .LVU1058
 3708              	.LBB206:
 3709              	.LBI206:
 120:Middlewares/lvgl/src/core/../misc/../font/../misc/lv_area.h **** {
 3710              		.loc 3 120 20 view .LVU1059
 3711              	.LBB207:
 122:Middlewares/lvgl/src/core/../misc/../font/../misc/lv_area.h ****     dest->y1 = src->y1;
 3712              		.loc 3 122 5 view .LVU1060
 122:Middlewares/lvgl/src/core/../misc/../font/../misc/lv_area.h ****     dest->y1 = src->y1;
 3713              		.loc 3 122 19 is_stmt 0 view .LVU1061
 3714 000a B4F914C0 		ldrsh	ip, [r4, #20]
 122:Middlewares/lvgl/src/core/../misc/../font/../misc/lv_area.h ****     dest->y1 = src->y1;
 3715              		.loc 3 122 14 view .LVU1062
 3716 000e ADF800C0 		strh	ip, [sp]	@ movhi
 123:Middlewares/lvgl/src/core/../misc/../font/../misc/lv_area.h ****     dest->x2 = src->x2;
 3717              		.loc 3 123 5 is_stmt 1 view .LVU1063
 123:Middlewares/lvgl/src/core/../misc/../font/../misc/lv_area.h ****     dest->x2 = src->x2;
 3718              		.loc 3 123 19 is_stmt 0 view .LVU1064
ARM GAS  /tmp/ccnhv9Lg.s 			page 103


 3719 0012 B4F91610 		ldrsh	r1, [r4, #22]
 123:Middlewares/lvgl/src/core/../misc/../font/../misc/lv_area.h ****     dest->x2 = src->x2;
 3720              		.loc 3 123 14 view .LVU1065
 3721 0016 ADF80210 		strh	r1, [sp, #2]	@ movhi
 124:Middlewares/lvgl/src/core/../misc/../font/../misc/lv_area.h ****     dest->y2 = src->y2;
 3722              		.loc 3 124 5 is_stmt 1 view .LVU1066
 124:Middlewares/lvgl/src/core/../misc/../font/../misc/lv_area.h ****     dest->y2 = src->y2;
 3723              		.loc 3 124 19 is_stmt 0 view .LVU1067
 3724 001a B4F91820 		ldrsh	r2, [r4, #24]
 124:Middlewares/lvgl/src/core/../misc/../font/../misc/lv_area.h ****     dest->y2 = src->y2;
 3725              		.loc 3 124 14 view .LVU1068
 3726 001e ADF80420 		strh	r2, [sp, #4]	@ movhi
 125:Middlewares/lvgl/src/core/../misc/../font/../misc/lv_area.h **** }
 3727              		.loc 3 125 5 is_stmt 1 view .LVU1069
 125:Middlewares/lvgl/src/core/../misc/../font/../misc/lv_area.h **** }
 3728              		.loc 3 125 19 is_stmt 0 view .LVU1070
 3729 0022 B4F91AE0 		ldrsh	lr, [r4, #26]
 125:Middlewares/lvgl/src/core/../misc/../font/../misc/lv_area.h **** }
 3730              		.loc 3 125 14 view .LVU1071
 3731 0026 ADF806E0 		strh	lr, [sp, #6]	@ movhi
 3732              	.LVL370:
 125:Middlewares/lvgl/src/core/../misc/../font/../misc/lv_area.h **** }
 3733              		.loc 3 125 14 view .LVU1072
 3734              	.LBE207:
 3735              	.LBE206:
 846:Middlewares/lvgl/src/core/lv_obj_pos.c ****     obj_coords.y1 -= ext_size;
 3736              		.loc 1 846 5 is_stmt 1 view .LVU1073
 846:Middlewares/lvgl/src/core/lv_obj_pos.c ****     obj_coords.y1 -= ext_size;
 3737              		.loc 1 846 19 is_stmt 0 view .LVU1074
 3738 002a 83B2     		uxth	r3, r0
 3739 002c ACEB030C 		sub	ip, ip, r3
 3740 0030 ADF800C0 		strh	ip, [sp]	@ movhi
 847:Middlewares/lvgl/src/core/lv_obj_pos.c ****     obj_coords.x2 += ext_size;
 3741              		.loc 1 847 5 is_stmt 1 view .LVU1075
 847:Middlewares/lvgl/src/core/lv_obj_pos.c ****     obj_coords.x2 += ext_size;
 3742              		.loc 1 847 19 is_stmt 0 view .LVU1076
 3743 0034 C91A     		subs	r1, r1, r3
 3744 0036 ADF80210 		strh	r1, [sp, #2]	@ movhi
 848:Middlewares/lvgl/src/core/lv_obj_pos.c ****     obj_coords.y2 += ext_size;
 3745              		.loc 1 848 5 is_stmt 1 view .LVU1077
 848:Middlewares/lvgl/src/core/lv_obj_pos.c ****     obj_coords.y2 += ext_size;
 3746              		.loc 1 848 19 is_stmt 0 view .LVU1078
 3747 003a 1A44     		add	r2, r2, r3
 3748 003c ADF80420 		strh	r2, [sp, #4]	@ movhi
 849:Middlewares/lvgl/src/core/lv_obj_pos.c **** 
 3749              		.loc 1 849 5 is_stmt 1 view .LVU1079
 849:Middlewares/lvgl/src/core/lv_obj_pos.c **** 
 3750              		.loc 1 849 19 is_stmt 0 view .LVU1080
 3751 0040 7344     		add	r3, r3, lr
 3752 0042 ADF80630 		strh	r3, [sp, #6]	@ movhi
 851:Middlewares/lvgl/src/core/lv_obj_pos.c **** 
 3753              		.loc 1 851 5 is_stmt 1 view .LVU1081
 851:Middlewares/lvgl/src/core/lv_obj_pos.c **** 
 3754              		.loc 1 851 12 is_stmt 0 view .LVU1082
 3755 0046 6946     		mov	r1, sp
 3756 0048 2046     		mov	r0, r4
 3757              	.LVL371:
ARM GAS  /tmp/ccnhv9Lg.s 			page 104


 851:Middlewares/lvgl/src/core/lv_obj_pos.c **** 
 3758              		.loc 1 851 12 view .LVU1083
 3759 004a FFF7FEFF 		bl	lv_obj_area_is_visible
 3760              	.LVL372:
 853:Middlewares/lvgl/src/core/lv_obj_pos.c **** 
 3761              		.loc 1 853 1 view .LVU1084
 3762 004e 02B0     		add	sp, sp, #8
 3763              	.LCFI63:
 3764              		.cfi_def_cfa_offset 8
 3765              		@ sp needed
 3766 0050 10BD     		pop	{r4, pc}
 853:Middlewares/lvgl/src/core/lv_obj_pos.c **** 
 3767              		.loc 1 853 1 view .LVU1085
 3768              		.cfi_endproc
 3769              	.LFE189:
 3771              		.section	.text.lv_obj_set_ext_click_area,"ax",%progbits
 3772              		.align	1
 3773              		.global	lv_obj_set_ext_click_area
 3774              		.syntax unified
 3775              		.thumb
 3776              		.thumb_func
 3778              	lv_obj_set_ext_click_area:
 3779              	.LVL373:
 3780              	.LFB190:
 856:Middlewares/lvgl/src/core/lv_obj_pos.c ****     LV_ASSERT_OBJ(obj, MY_CLASS);
 3781              		.loc 1 856 1 is_stmt 1 view -0
 3782              		.cfi_startproc
 3783              		@ args = 0, pretend = 0, frame = 0
 3784              		@ frame_needed = 0, uses_anonymous_args = 0
 856:Middlewares/lvgl/src/core/lv_obj_pos.c ****     LV_ASSERT_OBJ(obj, MY_CLASS);
 3785              		.loc 1 856 1 is_stmt 0 view .LVU1087
 3786 0000 38B5     		push	{r3, r4, r5, lr}
 3787              	.LCFI64:
 3788              		.cfi_def_cfa_offset 16
 3789              		.cfi_offset 3, -16
 3790              		.cfi_offset 4, -12
 3791              		.cfi_offset 5, -8
 3792              		.cfi_offset 14, -4
 3793 0002 0546     		mov	r5, r0
 3794 0004 0C46     		mov	r4, r1
 857:Middlewares/lvgl/src/core/lv_obj_pos.c **** 
 3795              		.loc 1 857 5 is_stmt 1 view .LVU1088
 857:Middlewares/lvgl/src/core/lv_obj_pos.c **** 
 3796              		.loc 1 857 5 view .LVU1089
 857:Middlewares/lvgl/src/core/lv_obj_pos.c **** 
 3797              		.loc 1 857 5 view .LVU1090
 859:Middlewares/lvgl/src/core/lv_obj_pos.c ****     obj->spec_attr->ext_click_pad = size;
 3798              		.loc 1 859 5 view .LVU1091
 3799 0006 FFF7FEFF 		bl	lv_obj_allocate_spec_attr
 3800              	.LVL374:
 860:Middlewares/lvgl/src/core/lv_obj_pos.c **** }
 3801              		.loc 1 860 5 view .LVU1092
 860:Middlewares/lvgl/src/core/lv_obj_pos.c **** }
 3802              		.loc 1 860 8 is_stmt 0 view .LVU1093
 3803 000a AB68     		ldr	r3, [r5, #8]
 860:Middlewares/lvgl/src/core/lv_obj_pos.c **** }
 3804              		.loc 1 860 35 view .LVU1094
ARM GAS  /tmp/ccnhv9Lg.s 			page 105


 3805 000c 9C82     		strh	r4, [r3, #20]	@ movhi
 861:Middlewares/lvgl/src/core/lv_obj_pos.c **** 
 3806              		.loc 1 861 1 view .LVU1095
 3807 000e 38BD     		pop	{r3, r4, r5, pc}
 861:Middlewares/lvgl/src/core/lv_obj_pos.c **** 
 3808              		.loc 1 861 1 view .LVU1096
 3809              		.cfi_endproc
 3810              	.LFE190:
 3812              		.section	.text.lv_obj_get_click_area,"ax",%progbits
 3813              		.align	1
 3814              		.global	lv_obj_get_click_area
 3815              		.syntax unified
 3816              		.thumb
 3817              		.thumb_func
 3819              	lv_obj_get_click_area:
 3820              	.LVL375:
 3821              	.LFB191:
 864:Middlewares/lvgl/src/core/lv_obj_pos.c ****     lv_area_copy(area, &obj->coords);
 3822              		.loc 1 864 1 is_stmt 1 view -0
 3823              		.cfi_startproc
 3824              		@ args = 0, pretend = 0, frame = 0
 3825              		@ frame_needed = 0, uses_anonymous_args = 0
 864:Middlewares/lvgl/src/core/lv_obj_pos.c ****     lv_area_copy(area, &obj->coords);
 3826              		.loc 1 864 1 is_stmt 0 view .LVU1098
 3827 0000 10B5     		push	{r4, lr}
 3828              	.LCFI65:
 3829              		.cfi_def_cfa_offset 8
 3830              		.cfi_offset 4, -8
 3831              		.cfi_offset 14, -4
 865:Middlewares/lvgl/src/core/lv_obj_pos.c ****     if(obj->spec_attr) {
 3832              		.loc 1 865 5 is_stmt 1 view .LVU1099
 3833              	.LVL376:
 3834              	.LBB208:
 3835              	.LBI208:
 120:Middlewares/lvgl/src/core/../misc/../font/../misc/lv_area.h **** {
 3836              		.loc 3 120 20 view .LVU1100
 3837              	.LBB209:
 122:Middlewares/lvgl/src/core/../misc/../font/../misc/lv_area.h ****     dest->y1 = src->y1;
 3838              		.loc 3 122 5 view .LVU1101
 122:Middlewares/lvgl/src/core/../misc/../font/../misc/lv_area.h ****     dest->y1 = src->y1;
 3839              		.loc 3 122 19 is_stmt 0 view .LVU1102
 3840 0002 B0F91420 		ldrsh	r2, [r0, #20]
 122:Middlewares/lvgl/src/core/../misc/../font/../misc/lv_area.h ****     dest->y1 = src->y1;
 3841              		.loc 3 122 14 view .LVU1103
 3842 0006 0A80     		strh	r2, [r1]	@ movhi
 123:Middlewares/lvgl/src/core/../misc/../font/../misc/lv_area.h ****     dest->x2 = src->x2;
 3843              		.loc 3 123 5 is_stmt 1 view .LVU1104
 123:Middlewares/lvgl/src/core/../misc/../font/../misc/lv_area.h ****     dest->x2 = src->x2;
 3844              		.loc 3 123 19 is_stmt 0 view .LVU1105
 3845 0008 B0F91630 		ldrsh	r3, [r0, #22]
 123:Middlewares/lvgl/src/core/../misc/../font/../misc/lv_area.h ****     dest->x2 = src->x2;
 3846              		.loc 3 123 14 view .LVU1106
 3847 000c 4B80     		strh	r3, [r1, #2]	@ movhi
 124:Middlewares/lvgl/src/core/../misc/../font/../misc/lv_area.h ****     dest->y2 = src->y2;
 3848              		.loc 3 124 5 is_stmt 1 view .LVU1107
 124:Middlewares/lvgl/src/core/../misc/../font/../misc/lv_area.h ****     dest->y2 = src->y2;
 3849              		.loc 3 124 19 is_stmt 0 view .LVU1108
ARM GAS  /tmp/ccnhv9Lg.s 			page 106


 3850 000e B0F918E0 		ldrsh	lr, [r0, #24]
 124:Middlewares/lvgl/src/core/../misc/../font/../misc/lv_area.h ****     dest->y2 = src->y2;
 3851              		.loc 3 124 14 view .LVU1109
 3852 0012 A1F804E0 		strh	lr, [r1, #4]	@ movhi
 125:Middlewares/lvgl/src/core/../misc/../font/../misc/lv_area.h **** }
 3853              		.loc 3 125 5 is_stmt 1 view .LVU1110
 125:Middlewares/lvgl/src/core/../misc/../font/../misc/lv_area.h **** }
 3854              		.loc 3 125 19 is_stmt 0 view .LVU1111
 3855 0016 B0F91AC0 		ldrsh	ip, [r0, #26]
 125:Middlewares/lvgl/src/core/../misc/../font/../misc/lv_area.h **** }
 3856              		.loc 3 125 14 view .LVU1112
 3857 001a A1F806C0 		strh	ip, [r1, #6]	@ movhi
 3858              	.LVL377:
 125:Middlewares/lvgl/src/core/../misc/../font/../misc/lv_area.h **** }
 3859              		.loc 3 125 14 view .LVU1113
 3860              	.LBE209:
 3861              	.LBE208:
 866:Middlewares/lvgl/src/core/lv_obj_pos.c ****         area->x1 -= obj->spec_attr->ext_click_pad;
 3862              		.loc 1 866 5 is_stmt 1 view .LVU1114
 866:Middlewares/lvgl/src/core/lv_obj_pos.c ****         area->x1 -= obj->spec_attr->ext_click_pad;
 3863              		.loc 1 866 11 is_stmt 0 view .LVU1115
 3864 001e 8468     		ldr	r4, [r0, #8]
 866:Middlewares/lvgl/src/core/lv_obj_pos.c ****         area->x1 -= obj->spec_attr->ext_click_pad;
 3865              		.loc 1 866 7 view .LVU1116
 3866 0020 74B1     		cbz	r4, .L201
 867:Middlewares/lvgl/src/core/lv_obj_pos.c ****         area->x2 += obj->spec_attr->ext_click_pad;
 3867              		.loc 1 867 9 is_stmt 1 view .LVU1117
 867:Middlewares/lvgl/src/core/lv_obj_pos.c ****         area->x2 += obj->spec_attr->ext_click_pad;
 3868              		.loc 1 867 35 is_stmt 0 view .LVU1118
 3869 0022 A48A     		ldrh	r4, [r4, #20]
 867:Middlewares/lvgl/src/core/lv_obj_pos.c ****         area->x2 += obj->spec_attr->ext_click_pad;
 3870              		.loc 1 867 18 view .LVU1119
 3871 0024 121B     		subs	r2, r2, r4
 3872 0026 0A80     		strh	r2, [r1]	@ movhi
 868:Middlewares/lvgl/src/core/lv_obj_pos.c ****         area->y1 -= obj->spec_attr->ext_click_pad;
 3873              		.loc 1 868 9 is_stmt 1 view .LVU1120
 868:Middlewares/lvgl/src/core/lv_obj_pos.c ****         area->y1 -= obj->spec_attr->ext_click_pad;
 3874              		.loc 1 868 24 is_stmt 0 view .LVU1121
 3875 0028 8268     		ldr	r2, [r0, #8]
 868:Middlewares/lvgl/src/core/lv_obj_pos.c ****         area->y1 -= obj->spec_attr->ext_click_pad;
 3876              		.loc 1 868 35 view .LVU1122
 3877 002a 928A     		ldrh	r2, [r2, #20]
 868:Middlewares/lvgl/src/core/lv_obj_pos.c ****         area->y1 -= obj->spec_attr->ext_click_pad;
 3878              		.loc 1 868 18 view .LVU1123
 3879 002c 7244     		add	r2, r2, lr
 3880 002e 8A80     		strh	r2, [r1, #4]	@ movhi
 869:Middlewares/lvgl/src/core/lv_obj_pos.c ****         area->y2 += obj->spec_attr->ext_click_pad;
 3881              		.loc 1 869 9 is_stmt 1 view .LVU1124
 869:Middlewares/lvgl/src/core/lv_obj_pos.c ****         area->y2 += obj->spec_attr->ext_click_pad;
 3882              		.loc 1 869 24 is_stmt 0 view .LVU1125
 3883 0030 8268     		ldr	r2, [r0, #8]
 869:Middlewares/lvgl/src/core/lv_obj_pos.c ****         area->y2 += obj->spec_attr->ext_click_pad;
 3884              		.loc 1 869 35 view .LVU1126
 3885 0032 928A     		ldrh	r2, [r2, #20]
 869:Middlewares/lvgl/src/core/lv_obj_pos.c ****         area->y2 += obj->spec_attr->ext_click_pad;
 3886              		.loc 1 869 18 view .LVU1127
 3887 0034 9B1A     		subs	r3, r3, r2
ARM GAS  /tmp/ccnhv9Lg.s 			page 107


 3888 0036 4B80     		strh	r3, [r1, #2]	@ movhi
 870:Middlewares/lvgl/src/core/lv_obj_pos.c ****     }
 3889              		.loc 1 870 9 is_stmt 1 view .LVU1128
 870:Middlewares/lvgl/src/core/lv_obj_pos.c ****     }
 3890              		.loc 1 870 24 is_stmt 0 view .LVU1129
 3891 0038 8368     		ldr	r3, [r0, #8]
 870:Middlewares/lvgl/src/core/lv_obj_pos.c ****     }
 3892              		.loc 1 870 35 view .LVU1130
 3893 003a 9B8A     		ldrh	r3, [r3, #20]
 870:Middlewares/lvgl/src/core/lv_obj_pos.c ****     }
 3894              		.loc 1 870 18 view .LVU1131
 3895 003c 6344     		add	r3, r3, ip
 3896 003e CB80     		strh	r3, [r1, #6]	@ movhi
 3897              	.L201:
 872:Middlewares/lvgl/src/core/lv_obj_pos.c **** 
 3898              		.loc 1 872 1 view .LVU1132
 3899 0040 10BD     		pop	{r4, pc}
 3900              		.cfi_endproc
 3901              	.LFE191:
 3903              		.section	.text.lv_obj_hit_test,"ax",%progbits
 3904              		.align	1
 3905              		.global	lv_obj_hit_test
 3906              		.syntax unified
 3907              		.thumb
 3908              		.thumb_func
 3910              	lv_obj_hit_test:
 3911              	.LVL378:
 3912              	.LFB192:
 875:Middlewares/lvgl/src/core/lv_obj_pos.c ****     lv_area_t a;
 3913              		.loc 1 875 1 is_stmt 1 view -0
 3914              		.cfi_startproc
 3915              		@ args = 0, pretend = 0, frame = 16
 3916              		@ frame_needed = 0, uses_anonymous_args = 0
 875:Middlewares/lvgl/src/core/lv_obj_pos.c ****     lv_area_t a;
 3917              		.loc 1 875 1 is_stmt 0 view .LVU1134
 3918 0000 70B5     		push	{r4, r5, r6, lr}
 3919              	.LCFI66:
 3920              		.cfi_def_cfa_offset 16
 3921              		.cfi_offset 4, -16
 3922              		.cfi_offset 5, -12
 3923              		.cfi_offset 6, -8
 3924              		.cfi_offset 14, -4
 3925 0002 84B0     		sub	sp, sp, #16
 3926              	.LCFI67:
 3927              		.cfi_def_cfa_offset 32
 3928 0004 0546     		mov	r5, r0
 3929 0006 0C46     		mov	r4, r1
 876:Middlewares/lvgl/src/core/lv_obj_pos.c ****     lv_obj_get_click_area(obj, &a);
 3930              		.loc 1 876 5 is_stmt 1 view .LVU1135
 877:Middlewares/lvgl/src/core/lv_obj_pos.c ****     bool res = _lv_area_is_point_on(&a, point, 0);
 3931              		.loc 1 877 5 view .LVU1136
 3932 0008 02A9     		add	r1, sp, #8
 3933              	.LVL379:
 877:Middlewares/lvgl/src/core/lv_obj_pos.c ****     bool res = _lv_area_is_point_on(&a, point, 0);
 3934              		.loc 1 877 5 is_stmt 0 view .LVU1137
 3935 000a FFF7FEFF 		bl	lv_obj_get_click_area
 3936              	.LVL380:
ARM GAS  /tmp/ccnhv9Lg.s 			page 108


 878:Middlewares/lvgl/src/core/lv_obj_pos.c ****     if(res == false) return false;
 3937              		.loc 1 878 5 is_stmt 1 view .LVU1138
 878:Middlewares/lvgl/src/core/lv_obj_pos.c ****     if(res == false) return false;
 3938              		.loc 1 878 16 is_stmt 0 view .LVU1139
 3939 000e 0022     		movs	r2, #0
 3940 0010 2146     		mov	r1, r4
 3941 0012 02A8     		add	r0, sp, #8
 3942 0014 FFF7FEFF 		bl	_lv_area_is_point_on
 3943              	.LVL381:
 879:Middlewares/lvgl/src/core/lv_obj_pos.c **** 
 3944              		.loc 1 879 5 is_stmt 1 view .LVU1140
 879:Middlewares/lvgl/src/core/lv_obj_pos.c **** 
 3945              		.loc 1 879 7 is_stmt 0 view .LVU1141
 3946 0018 0646     		mov	r6, r0
 3947 001a 10B9     		cbnz	r0, .L207
 3948              	.LVL382:
 3949              	.L205:
 890:Middlewares/lvgl/src/core/lv_obj_pos.c **** 
 3950              		.loc 1 890 1 discriminator 1 view .LVU1142
 3951 001c 3046     		mov	r0, r6
 3952 001e 04B0     		add	sp, sp, #16
 3953              	.LCFI68:
 3954              		.cfi_remember_state
 3955              		.cfi_def_cfa_offset 16
 3956              		@ sp needed
 3957 0020 70BD     		pop	{r4, r5, r6, pc}
 3958              	.LVL383:
 3959              	.L207:
 3960              	.LCFI69:
 3961              		.cfi_restore_state
 881:Middlewares/lvgl/src/core/lv_obj_pos.c ****         lv_hit_test_info_t hit_info;
 3962              		.loc 1 881 5 is_stmt 1 view .LVU1143
 881:Middlewares/lvgl/src/core/lv_obj_pos.c ****         lv_hit_test_info_t hit_info;
 3963              		.loc 1 881 8 is_stmt 0 view .LVU1144
 3964 0022 4FF48041 		mov	r1, #16384
 3965 0026 2846     		mov	r0, r5
 3966              	.LVL384:
 881:Middlewares/lvgl/src/core/lv_obj_pos.c ****         lv_hit_test_info_t hit_info;
 3967              		.loc 1 881 8 view .LVU1145
 3968 0028 FFF7FEFF 		bl	lv_obj_has_flag
 3969              	.LVL385:
 881:Middlewares/lvgl/src/core/lv_obj_pos.c ****         lv_hit_test_info_t hit_info;
 3970              		.loc 1 881 7 view .LVU1146
 3971 002c 0028     		cmp	r0, #0
 3972 002e F5D0     		beq	.L205
 3973              	.LBB210:
 882:Middlewares/lvgl/src/core/lv_obj_pos.c ****         hit_info.point = point;
 3974              		.loc 1 882 9 is_stmt 1 view .LVU1147
 883:Middlewares/lvgl/src/core/lv_obj_pos.c ****         hit_info.res = true;
 3975              		.loc 1 883 9 view .LVU1148
 883:Middlewares/lvgl/src/core/lv_obj_pos.c ****         hit_info.res = true;
 3976              		.loc 1 883 24 is_stmt 0 view .LVU1149
 3977 0030 0094     		str	r4, [sp]
 884:Middlewares/lvgl/src/core/lv_obj_pos.c ****         lv_event_send(obj, LV_EVENT_HIT_TEST, &hit_info);
 3978              		.loc 1 884 9 is_stmt 1 view .LVU1150
 884:Middlewares/lvgl/src/core/lv_obj_pos.c ****         lv_event_send(obj, LV_EVENT_HIT_TEST, &hit_info);
 3979              		.loc 1 884 22 is_stmt 0 view .LVU1151
ARM GAS  /tmp/ccnhv9Lg.s 			page 109


 3980 0032 0123     		movs	r3, #1
 3981 0034 8DF80430 		strb	r3, [sp, #4]
 885:Middlewares/lvgl/src/core/lv_obj_pos.c ****         return hit_info.res;
 3982              		.loc 1 885 9 is_stmt 1 view .LVU1152
 3983 0038 6A46     		mov	r2, sp
 3984 003a 1121     		movs	r1, #17
 3985 003c 2846     		mov	r0, r5
 3986 003e FFF7FEFF 		bl	lv_event_send
 3987              	.LVL386:
 886:Middlewares/lvgl/src/core/lv_obj_pos.c ****     }
 3988              		.loc 1 886 9 view .LVU1153
 886:Middlewares/lvgl/src/core/lv_obj_pos.c ****     }
 3989              		.loc 1 886 24 is_stmt 0 view .LVU1154
 3990 0042 9DF80460 		ldrb	r6, [sp, #4]	@ zero_extendqisi2
 3991 0046 E9E7     		b	.L205
 3992              	.LBE210:
 3993              		.cfi_endproc
 3994              	.LFE192:
 3996              		.section	.text.lv_clamp_width,"ax",%progbits
 3997              		.align	1
 3998              		.global	lv_clamp_width
 3999              		.syntax unified
 4000              		.thumb
 4001              		.thumb_func
 4003              	lv_clamp_width:
 4004              	.LVL387:
 4005              	.LFB193:
 893:Middlewares/lvgl/src/core/lv_obj_pos.c ****     if(LV_COORD_IS_PCT(min_width)) min_width = (ref_width * LV_COORD_GET_PCT(min_width)) / 100;
 4006              		.loc 1 893 1 is_stmt 1 view -0
 4007              		.cfi_startproc
 4008              		@ args = 0, pretend = 0, frame = 0
 4009              		@ frame_needed = 0, uses_anonymous_args = 0
 893:Middlewares/lvgl/src/core/lv_obj_pos.c ****     if(LV_COORD_IS_PCT(min_width)) min_width = (ref_width * LV_COORD_GET_PCT(min_width)) / 100;
 4010              		.loc 1 893 1 is_stmt 0 view .LVU1156
 4011 0000 00B5     		push	{lr}
 4012              	.LCFI70:
 4013              		.cfi_def_cfa_offset 4
 4014              		.cfi_offset 14, -4
 894:Middlewares/lvgl/src/core/lv_obj_pos.c ****     if(LV_COORD_IS_PCT(max_width)) max_width = (ref_width * LV_COORD_GET_PCT(max_width)) / 100;
 4015              		.loc 1 894 5 is_stmt 1 view .LVU1157
 894:Middlewares/lvgl/src/core/lv_obj_pos.c ****     if(LV_COORD_IS_PCT(max_width)) max_width = (ref_width * LV_COORD_GET_PCT(max_width)) / 100;
 4016              		.loc 1 894 7 is_stmt 0 view .LVU1158
 4017 0002 01F4C04C 		and	ip, r1, #24576
 4018 0006 BCF5005F 		cmp	ip, #8192
 4019 000a 0CD0     		beq	.L216
 4020              	.L209:
 895:Middlewares/lvgl/src/core/lv_obj_pos.c ****     return LV_CLAMP(min_width, width, max_width);
 4021              		.loc 1 895 5 is_stmt 1 view .LVU1159
 895:Middlewares/lvgl/src/core/lv_obj_pos.c ****     return LV_CLAMP(min_width, width, max_width);
 4022              		.loc 1 895 7 is_stmt 0 view .LVU1160
 4023 000c 02F4C04C 		and	ip, r2, #24576
 4024 0010 BCF5005F 		cmp	ip, #8192
 4025 0014 1CD0     		beq	.L217
 4026              	.LVL388:
 4027              	.L212:
 896:Middlewares/lvgl/src/core/lv_obj_pos.c **** }
 4028              		.loc 1 896 5 is_stmt 1 view .LVU1161
ARM GAS  /tmp/ccnhv9Lg.s 			page 110


 896:Middlewares/lvgl/src/core/lv_obj_pos.c **** }
 4029              		.loc 1 896 12 is_stmt 0 view .LVU1162
 4030 0016 9042     		cmp	r0, r2
 4031 0018 A8BF     		it	ge
 4032 001a 1046     		movge	r0, r2
 4033              	.LVL389:
 897:Middlewares/lvgl/src/core/lv_obj_pos.c **** 
 4034              		.loc 1 897 1 view .LVU1163
 4035 001c 8842     		cmp	r0, r1
 4036 001e B8BF     		it	lt
 4037 0020 0846     		movlt	r0, r1
 4038 0022 5DF804FB 		ldr	pc, [sp], #4
 4039              	.LVL390:
 4040              	.L216:
 894:Middlewares/lvgl/src/core/lv_obj_pos.c ****     if(LV_COORD_IS_PCT(max_width)) max_width = (ref_width * LV_COORD_GET_PCT(max_width)) / 100;
 4041              		.loc 1 894 8 discriminator 1 view .LVU1164
 4042 0026 21F4C04C 		bic	ip, r1, #24576
 4043 002a BCF5FA6F 		cmp	ip, #2000
 4044 002e EDDC     		bgt	.L209
 894:Middlewares/lvgl/src/core/lv_obj_pos.c ****     if(LV_COORD_IS_PCT(max_width)) max_width = (ref_width * LV_COORD_GET_PCT(max_width)) / 100;
 4045              		.loc 1 894 36 is_stmt 1 discriminator 2 view .LVU1165
 894:Middlewares/lvgl/src/core/lv_obj_pos.c ****     if(LV_COORD_IS_PCT(max_width)) max_width = (ref_width * LV_COORD_GET_PCT(max_width)) / 100;
 4046              		.loc 1 894 61 is_stmt 0 discriminator 2 view .LVU1166
 4047 0030 BCF57A7F 		cmp	ip, #1000
 4048 0034 01DD     		ble	.L211
 894:Middlewares/lvgl/src/core/lv_obj_pos.c ****     if(LV_COORD_IS_PCT(max_width)) max_width = (ref_width * LV_COORD_GET_PCT(max_width)) / 100;
 4049              		.loc 1 894 61 discriminator 3 view .LVU1167
 4050 0036 CCF57A7C 		rsb	ip, ip, #1000
 4051              	.L211:
 894:Middlewares/lvgl/src/core/lv_obj_pos.c ****     if(LV_COORD_IS_PCT(max_width)) max_width = (ref_width * LV_COORD_GET_PCT(max_width)) / 100;
 4052              		.loc 1 894 59 discriminator 6 view .LVU1168
 4053 003a 0CFB03FC 		mul	ip, ip, r3
 894:Middlewares/lvgl/src/core/lv_obj_pos.c ****     if(LV_COORD_IS_PCT(max_width)) max_width = (ref_width * LV_COORD_GET_PCT(max_width)) / 100;
 4054              		.loc 1 894 90 discriminator 6 view .LVU1169
 4055 003e 0E49     		ldr	r1, .L218
 4056              	.LVL391:
 894:Middlewares/lvgl/src/core/lv_obj_pos.c ****     if(LV_COORD_IS_PCT(max_width)) max_width = (ref_width * LV_COORD_GET_PCT(max_width)) / 100;
 4057              		.loc 1 894 90 discriminator 6 view .LVU1170
 4058 0040 81FB0C1E 		smull	r1, lr, r1, ip
 4059 0044 4FEAEC71 		asr	r1, ip, #31
 4060 0048 C1EB6E11 		rsb	r1, r1, lr, asr #5
 894:Middlewares/lvgl/src/core/lv_obj_pos.c ****     if(LV_COORD_IS_PCT(max_width)) max_width = (ref_width * LV_COORD_GET_PCT(max_width)) / 100;
 4061              		.loc 1 894 46 discriminator 6 view .LVU1171
 4062 004c 09B2     		sxth	r1, r1
 4063              	.LVL392:
 894:Middlewares/lvgl/src/core/lv_obj_pos.c ****     if(LV_COORD_IS_PCT(max_width)) max_width = (ref_width * LV_COORD_GET_PCT(max_width)) / 100;
 4064              		.loc 1 894 46 discriminator 6 view .LVU1172
 4065 004e DDE7     		b	.L209
 4066              	.L217:
 895:Middlewares/lvgl/src/core/lv_obj_pos.c ****     return LV_CLAMP(min_width, width, max_width);
 4067              		.loc 1 895 8 discriminator 1 view .LVU1173
 4068 0050 22F4C04C 		bic	ip, r2, #24576
 4069 0054 BCF5FA6F 		cmp	ip, #2000
 4070 0058 DDDC     		bgt	.L212
 895:Middlewares/lvgl/src/core/lv_obj_pos.c ****     return LV_CLAMP(min_width, width, max_width);
 4071              		.loc 1 895 36 is_stmt 1 discriminator 2 view .LVU1174
 895:Middlewares/lvgl/src/core/lv_obj_pos.c ****     return LV_CLAMP(min_width, width, max_width);
ARM GAS  /tmp/ccnhv9Lg.s 			page 111


 4072              		.loc 1 895 61 is_stmt 0 discriminator 2 view .LVU1175
 4073 005a BCF57A7F 		cmp	ip, #1000
 4074 005e 01DD     		ble	.L214
 895:Middlewares/lvgl/src/core/lv_obj_pos.c ****     return LV_CLAMP(min_width, width, max_width);
 4075              		.loc 1 895 61 discriminator 3 view .LVU1176
 4076 0060 CCF57A7C 		rsb	ip, ip, #1000
 4077              	.L214:
 895:Middlewares/lvgl/src/core/lv_obj_pos.c ****     return LV_CLAMP(min_width, width, max_width);
 4078              		.loc 1 895 59 discriminator 6 view .LVU1177
 4079 0064 0CFB03F3 		mul	r3, ip, r3
 4080              	.LVL393:
 895:Middlewares/lvgl/src/core/lv_obj_pos.c ****     return LV_CLAMP(min_width, width, max_width);
 4081              		.loc 1 895 90 discriminator 6 view .LVU1178
 4082 0068 034A     		ldr	r2, .L218
 4083              	.LVL394:
 895:Middlewares/lvgl/src/core/lv_obj_pos.c ****     return LV_CLAMP(min_width, width, max_width);
 4084              		.loc 1 895 90 discriminator 6 view .LVU1179
 4085 006a 82FB03C2 		smull	ip, r2, r2, r3
 4086 006e DB17     		asrs	r3, r3, #31
 4087 0070 C3EB6213 		rsb	r3, r3, r2, asr #5
 895:Middlewares/lvgl/src/core/lv_obj_pos.c ****     return LV_CLAMP(min_width, width, max_width);
 4088              		.loc 1 895 46 discriminator 6 view .LVU1180
 4089 0074 1AB2     		sxth	r2, r3
 4090              	.LVL395:
 895:Middlewares/lvgl/src/core/lv_obj_pos.c ****     return LV_CLAMP(min_width, width, max_width);
 4091              		.loc 1 895 46 discriminator 6 view .LVU1181
 4092 0076 CEE7     		b	.L212
 4093              	.L219:
 4094              		.align	2
 4095              	.L218:
 4096 0078 1F85EB51 		.word	1374389535
 4097              		.cfi_endproc
 4098              	.LFE193:
 4100              		.section	.text.lv_clamp_height,"ax",%progbits
 4101              		.align	1
 4102              		.global	lv_clamp_height
 4103              		.syntax unified
 4104              		.thumb
 4105              		.thumb_func
 4107              	lv_clamp_height:
 4108              	.LVL396:
 4109              	.LFB194:
 900:Middlewares/lvgl/src/core/lv_obj_pos.c ****     if(LV_COORD_IS_PCT(min_height)) min_height = (ref_height * LV_COORD_GET_PCT(min_height)) / 100;
 4110              		.loc 1 900 1 is_stmt 1 view -0
 4111              		.cfi_startproc
 4112              		@ args = 0, pretend = 0, frame = 0
 4113              		@ frame_needed = 0, uses_anonymous_args = 0
 900:Middlewares/lvgl/src/core/lv_obj_pos.c ****     if(LV_COORD_IS_PCT(min_height)) min_height = (ref_height * LV_COORD_GET_PCT(min_height)) / 100;
 4114              		.loc 1 900 1 is_stmt 0 view .LVU1183
 4115 0000 00B5     		push	{lr}
 4116              	.LCFI71:
 4117              		.cfi_def_cfa_offset 4
 4118              		.cfi_offset 14, -4
 901:Middlewares/lvgl/src/core/lv_obj_pos.c ****     if(LV_COORD_IS_PCT(max_height)) max_height = (ref_height * LV_COORD_GET_PCT(max_height)) / 100;
 4119              		.loc 1 901 5 is_stmt 1 view .LVU1184
 901:Middlewares/lvgl/src/core/lv_obj_pos.c ****     if(LV_COORD_IS_PCT(max_height)) max_height = (ref_height * LV_COORD_GET_PCT(max_height)) / 100;
 4120              		.loc 1 901 7 is_stmt 0 view .LVU1185
ARM GAS  /tmp/ccnhv9Lg.s 			page 112


 4121 0002 01F4C04C 		and	ip, r1, #24576
 4122 0006 BCF5005F 		cmp	ip, #8192
 4123 000a 0CD0     		beq	.L228
 4124              	.L221:
 902:Middlewares/lvgl/src/core/lv_obj_pos.c ****     return LV_CLAMP(min_height, height, max_height);
 4125              		.loc 1 902 5 is_stmt 1 view .LVU1186
 902:Middlewares/lvgl/src/core/lv_obj_pos.c ****     return LV_CLAMP(min_height, height, max_height);
 4126              		.loc 1 902 7 is_stmt 0 view .LVU1187
 4127 000c 02F4C04C 		and	ip, r2, #24576
 4128 0010 BCF5005F 		cmp	ip, #8192
 4129 0014 1CD0     		beq	.L229
 4130              	.LVL397:
 4131              	.L224:
 903:Middlewares/lvgl/src/core/lv_obj_pos.c **** }
 4132              		.loc 1 903 5 is_stmt 1 view .LVU1188
 903:Middlewares/lvgl/src/core/lv_obj_pos.c **** }
 4133              		.loc 1 903 12 is_stmt 0 view .LVU1189
 4134 0016 9042     		cmp	r0, r2
 4135 0018 A8BF     		it	ge
 4136 001a 1046     		movge	r0, r2
 4137              	.LVL398:
 904:Middlewares/lvgl/src/core/lv_obj_pos.c **** 
 4138              		.loc 1 904 1 view .LVU1190
 4139 001c 8842     		cmp	r0, r1
 4140 001e B8BF     		it	lt
 4141 0020 0846     		movlt	r0, r1
 4142 0022 5DF804FB 		ldr	pc, [sp], #4
 4143              	.LVL399:
 4144              	.L228:
 901:Middlewares/lvgl/src/core/lv_obj_pos.c ****     if(LV_COORD_IS_PCT(max_height)) max_height = (ref_height * LV_COORD_GET_PCT(max_height)) / 100;
 4145              		.loc 1 901 8 discriminator 1 view .LVU1191
 4146 0026 21F4C04C 		bic	ip, r1, #24576
 4147 002a BCF5FA6F 		cmp	ip, #2000
 4148 002e EDDC     		bgt	.L221
 901:Middlewares/lvgl/src/core/lv_obj_pos.c ****     if(LV_COORD_IS_PCT(max_height)) max_height = (ref_height * LV_COORD_GET_PCT(max_height)) / 100;
 4149              		.loc 1 901 37 is_stmt 1 discriminator 2 view .LVU1192
 901:Middlewares/lvgl/src/core/lv_obj_pos.c ****     if(LV_COORD_IS_PCT(max_height)) max_height = (ref_height * LV_COORD_GET_PCT(max_height)) / 100;
 4150              		.loc 1 901 64 is_stmt 0 discriminator 2 view .LVU1193
 4151 0030 BCF57A7F 		cmp	ip, #1000
 4152 0034 01DD     		ble	.L223
 901:Middlewares/lvgl/src/core/lv_obj_pos.c ****     if(LV_COORD_IS_PCT(max_height)) max_height = (ref_height * LV_COORD_GET_PCT(max_height)) / 100;
 4153              		.loc 1 901 64 discriminator 3 view .LVU1194
 4154 0036 CCF57A7C 		rsb	ip, ip, #1000
 4155              	.L223:
 901:Middlewares/lvgl/src/core/lv_obj_pos.c ****     if(LV_COORD_IS_PCT(max_height)) max_height = (ref_height * LV_COORD_GET_PCT(max_height)) / 100;
 4156              		.loc 1 901 62 discriminator 6 view .LVU1195
 4157 003a 0CFB03FC 		mul	ip, ip, r3
 901:Middlewares/lvgl/src/core/lv_obj_pos.c ****     if(LV_COORD_IS_PCT(max_height)) max_height = (ref_height * LV_COORD_GET_PCT(max_height)) / 100;
 4158              		.loc 1 901 94 discriminator 6 view .LVU1196
 4159 003e 0E49     		ldr	r1, .L230
 4160              	.LVL400:
 901:Middlewares/lvgl/src/core/lv_obj_pos.c ****     if(LV_COORD_IS_PCT(max_height)) max_height = (ref_height * LV_COORD_GET_PCT(max_height)) / 100;
 4161              		.loc 1 901 94 discriminator 6 view .LVU1197
 4162 0040 81FB0C1E 		smull	r1, lr, r1, ip
 4163 0044 4FEAEC71 		asr	r1, ip, #31
 4164 0048 C1EB6E11 		rsb	r1, r1, lr, asr #5
 901:Middlewares/lvgl/src/core/lv_obj_pos.c ****     if(LV_COORD_IS_PCT(max_height)) max_height = (ref_height * LV_COORD_GET_PCT(max_height)) / 100;
ARM GAS  /tmp/ccnhv9Lg.s 			page 113


 4165              		.loc 1 901 48 discriminator 6 view .LVU1198
 4166 004c 09B2     		sxth	r1, r1
 4167              	.LVL401:
 901:Middlewares/lvgl/src/core/lv_obj_pos.c ****     if(LV_COORD_IS_PCT(max_height)) max_height = (ref_height * LV_COORD_GET_PCT(max_height)) / 100;
 4168              		.loc 1 901 48 discriminator 6 view .LVU1199
 4169 004e DDE7     		b	.L221
 4170              	.L229:
 902:Middlewares/lvgl/src/core/lv_obj_pos.c ****     return LV_CLAMP(min_height, height, max_height);
 4171              		.loc 1 902 8 discriminator 1 view .LVU1200
 4172 0050 22F4C04C 		bic	ip, r2, #24576
 4173 0054 BCF5FA6F 		cmp	ip, #2000
 4174 0058 DDDC     		bgt	.L224
 902:Middlewares/lvgl/src/core/lv_obj_pos.c ****     return LV_CLAMP(min_height, height, max_height);
 4175              		.loc 1 902 37 is_stmt 1 discriminator 2 view .LVU1201
 902:Middlewares/lvgl/src/core/lv_obj_pos.c ****     return LV_CLAMP(min_height, height, max_height);
 4176              		.loc 1 902 64 is_stmt 0 discriminator 2 view .LVU1202
 4177 005a BCF57A7F 		cmp	ip, #1000
 4178 005e 01DD     		ble	.L226
 902:Middlewares/lvgl/src/core/lv_obj_pos.c ****     return LV_CLAMP(min_height, height, max_height);
 4179              		.loc 1 902 64 discriminator 3 view .LVU1203
 4180 0060 CCF57A7C 		rsb	ip, ip, #1000
 4181              	.L226:
 902:Middlewares/lvgl/src/core/lv_obj_pos.c ****     return LV_CLAMP(min_height, height, max_height);
 4182              		.loc 1 902 62 discriminator 6 view .LVU1204
 4183 0064 0CFB03F3 		mul	r3, ip, r3
 4184              	.LVL402:
 902:Middlewares/lvgl/src/core/lv_obj_pos.c ****     return LV_CLAMP(min_height, height, max_height);
 4185              		.loc 1 902 94 discriminator 6 view .LVU1205
 4186 0068 034A     		ldr	r2, .L230
 4187              	.LVL403:
 902:Middlewares/lvgl/src/core/lv_obj_pos.c ****     return LV_CLAMP(min_height, height, max_height);
 4188              		.loc 1 902 94 discriminator 6 view .LVU1206
 4189 006a 82FB03C2 		smull	ip, r2, r2, r3
 4190 006e DB17     		asrs	r3, r3, #31
 4191 0070 C3EB6213 		rsb	r3, r3, r2, asr #5
 902:Middlewares/lvgl/src/core/lv_obj_pos.c ****     return LV_CLAMP(min_height, height, max_height);
 4192              		.loc 1 902 48 discriminator 6 view .LVU1207
 4193 0074 1AB2     		sxth	r2, r3
 4194              	.LVL404:
 902:Middlewares/lvgl/src/core/lv_obj_pos.c ****     return LV_CLAMP(min_height, height, max_height);
 4195              		.loc 1 902 48 discriminator 6 view .LVU1208
 4196 0076 CEE7     		b	.L224
 4197              	.L231:
 4198              		.align	2
 4199              	.L230:
 4200 0078 1F85EB51 		.word	1374389535
 4201              		.cfi_endproc
 4202              	.LFE194:
 4204              		.section	.text.lv_obj_refr_size,"ax",%progbits
 4205              		.align	1
 4206              		.global	lv_obj_refr_size
 4207              		.syntax unified
 4208              		.thumb
 4209              		.thumb_func
 4211              	lv_obj_refr_size:
 4212              	.LVL405:
 4213              	.LFB156:
ARM GAS  /tmp/ccnhv9Lg.s 			page 114


  85:Middlewares/lvgl/src/core/lv_obj_pos.c ****     LV_ASSERT_OBJ(obj, MY_CLASS);
 4214              		.loc 1 85 1 is_stmt 1 view -0
 4215              		.cfi_startproc
 4216              		@ args = 0, pretend = 0, frame = 24
 4217              		@ frame_needed = 0, uses_anonymous_args = 0
  86:Middlewares/lvgl/src/core/lv_obj_pos.c **** 
 4218              		.loc 1 86 5 view .LVU1210
  86:Middlewares/lvgl/src/core/lv_obj_pos.c **** 
 4219              		.loc 1 86 5 view .LVU1211
  86:Middlewares/lvgl/src/core/lv_obj_pos.c **** 
 4220              		.loc 1 86 5 view .LVU1212
  89:Middlewares/lvgl/src/core/lv_obj_pos.c **** 
 4221              		.loc 1 89 5 view .LVU1213
  89:Middlewares/lvgl/src/core/lv_obj_pos.c **** 
 4222              		.loc 1 89 22 is_stmt 0 view .LVU1214
 4223 0000 90F82330 		ldrb	r3, [r0, #35]	@ zero_extendqisi2
 4224 0004 03F00603 		and	r3, r3, #6
  89:Middlewares/lvgl/src/core/lv_obj_pos.c **** 
 4225              		.loc 1 89 7 view .LVU1215
 4226 0008 062B     		cmp	r3, #6
 4227 000a 00F06B81 		beq	.L254
  85:Middlewares/lvgl/src/core/lv_obj_pos.c ****     LV_ASSERT_OBJ(obj, MY_CLASS);
 4228              		.loc 1 85 1 view .LVU1216
 4229 000e 2DE9F04F 		push	{r4, r5, r6, r7, r8, r9, r10, fp, lr}
 4230              	.LCFI72:
 4231              		.cfi_def_cfa_offset 36
 4232              		.cfi_offset 4, -36
 4233              		.cfi_offset 5, -32
 4234              		.cfi_offset 6, -28
 4235              		.cfi_offset 7, -24
 4236              		.cfi_offset 8, -20
 4237              		.cfi_offset 9, -16
 4238              		.cfi_offset 10, -12
 4239              		.cfi_offset 11, -8
 4240              		.cfi_offset 14, -4
 4241 0012 87B0     		sub	sp, sp, #28
 4242              	.LCFI73:
 4243              		.cfi_def_cfa_offset 64
 4244 0014 0446     		mov	r4, r0
  91:Middlewares/lvgl/src/core/lv_obj_pos.c ****     if(parent == NULL) return false;
 4245              		.loc 1 91 5 is_stmt 1 view .LVU1217
  91:Middlewares/lvgl/src/core/lv_obj_pos.c ****     if(parent == NULL) return false;
 4246              		.loc 1 91 25 is_stmt 0 view .LVU1218
 4247 0016 FFF7FEFF 		bl	lv_obj_get_parent
 4248              	.LVL406:
  92:Middlewares/lvgl/src/core/lv_obj_pos.c **** 
 4249              		.loc 1 92 5 is_stmt 1 view .LVU1219
  92:Middlewares/lvgl/src/core/lv_obj_pos.c **** 
 4250              		.loc 1 92 7 is_stmt 0 view .LVU1220
 4251 001a 0646     		mov	r6, r0
 4252 001c 0028     		cmp	r0, #0
 4253 001e 00F06381 		beq	.L255
  94:Middlewares/lvgl/src/core/lv_obj_pos.c ****     lv_coord_t sl_ori = lv_obj_get_scroll_left(obj);
 4254              		.loc 1 94 5 is_stmt 1 view .LVU1221
  95:Middlewares/lvgl/src/core/lv_obj_pos.c ****     bool w_content = false;
 4255              		.loc 1 95 5 view .LVU1222
  95:Middlewares/lvgl/src/core/lv_obj_pos.c ****     bool w_content = false;
ARM GAS  /tmp/ccnhv9Lg.s 			page 115


 4256              		.loc 1 95 25 is_stmt 0 view .LVU1223
 4257 0022 2046     		mov	r0, r4
 4258              	.LVL407:
  95:Middlewares/lvgl/src/core/lv_obj_pos.c ****     bool w_content = false;
 4259              		.loc 1 95 25 view .LVU1224
 4260 0024 FFF7FEFF 		bl	lv_obj_get_scroll_left
 4261              	.LVL408:
 4262 0028 0546     		mov	r5, r0
 4263              	.LVL409:
  96:Middlewares/lvgl/src/core/lv_obj_pos.c ****     if(obj->w_layout) {
 4264              		.loc 1 96 5 is_stmt 1 view .LVU1225
  97:Middlewares/lvgl/src/core/lv_obj_pos.c ****         w = lv_obj_get_width(obj);
 4265              		.loc 1 97 5 view .LVU1226
  97:Middlewares/lvgl/src/core/lv_obj_pos.c ****         w = lv_obj_get_width(obj);
 4266              		.loc 1 97 8 is_stmt 0 view .LVU1227
 4267 002a 94F82330 		ldrb	r3, [r4, #35]	@ zero_extendqisi2
  97:Middlewares/lvgl/src/core/lv_obj_pos.c ****         w = lv_obj_get_width(obj);
 4268              		.loc 1 97 7 view .LVU1228
 4269 002e 13F0040F 		tst	r3, #4
 4270 0032 7BD0     		beq	.L234
  98:Middlewares/lvgl/src/core/lv_obj_pos.c ****     } else {
 4271              		.loc 1 98 9 is_stmt 1 view .LVU1229
  98:Middlewares/lvgl/src/core/lv_obj_pos.c ****     } else {
 4272              		.loc 1 98 13 is_stmt 0 view .LVU1230
 4273 0034 2046     		mov	r0, r4
 4274 0036 FFF7FEFF 		bl	lv_obj_get_width
 4275              	.LVL410:
  98:Middlewares/lvgl/src/core/lv_obj_pos.c ****     } else {
 4276              		.loc 1 98 11 view .LVU1231
 4277 003a ADF81600 		strh	r0, [sp, #22]	@ movhi
  96:Middlewares/lvgl/src/core/lv_obj_pos.c ****     if(obj->w_layout) {
 4278              		.loc 1 96 10 view .LVU1232
 4279 003e 4FF00009 		mov	r9, #0
 4280              	.LVL411:
 4281              	.L235:
 120:Middlewares/lvgl/src/core/lv_obj_pos.c ****     lv_coord_t st_ori = lv_obj_get_scroll_top(obj);
 4282              		.loc 1 120 5 is_stmt 1 view .LVU1233
 121:Middlewares/lvgl/src/core/lv_obj_pos.c ****     bool h_content = false;
 4283              		.loc 1 121 5 view .LVU1234
 121:Middlewares/lvgl/src/core/lv_obj_pos.c ****     bool h_content = false;
 4284              		.loc 1 121 25 is_stmt 0 view .LVU1235
 4285 0042 2046     		mov	r0, r4
 4286 0044 FFF7FEFF 		bl	lv_obj_get_scroll_top
 4287              	.LVL412:
 4288 0048 0746     		mov	r7, r0
 4289              	.LVL413:
 122:Middlewares/lvgl/src/core/lv_obj_pos.c ****     if(obj->h_layout) {
 4290              		.loc 1 122 5 is_stmt 1 view .LVU1236
 123:Middlewares/lvgl/src/core/lv_obj_pos.c ****         h = lv_obj_get_height(obj);
 4291              		.loc 1 123 5 view .LVU1237
 123:Middlewares/lvgl/src/core/lv_obj_pos.c ****         h = lv_obj_get_height(obj);
 4292              		.loc 1 123 8 is_stmt 0 view .LVU1238
 4293 004a 94F82330 		ldrb	r3, [r4, #35]	@ zero_extendqisi2
 123:Middlewares/lvgl/src/core/lv_obj_pos.c ****         h = lv_obj_get_height(obj);
 4294              		.loc 1 123 7 view .LVU1239
 4295 004e 13F0020F 		tst	r3, #2
 4296 0052 00F0D080 		beq	.L241
ARM GAS  /tmp/ccnhv9Lg.s 			page 116


 124:Middlewares/lvgl/src/core/lv_obj_pos.c ****     } else {
 4297              		.loc 1 124 9 is_stmt 1 view .LVU1240
 124:Middlewares/lvgl/src/core/lv_obj_pos.c ****     } else {
 4298              		.loc 1 124 13 is_stmt 0 view .LVU1241
 4299 0056 2046     		mov	r0, r4
 4300 0058 FFF7FEFF 		bl	lv_obj_get_height
 4301              	.LVL414:
 124:Middlewares/lvgl/src/core/lv_obj_pos.c ****     } else {
 4302              		.loc 1 124 11 view .LVU1242
 4303 005c ADF81400 		strh	r0, [sp, #20]	@ movhi
 122:Middlewares/lvgl/src/core/lv_obj_pos.c ****     if(obj->h_layout) {
 4304              		.loc 1 122 10 view .LVU1243
 4305 0060 4FF00008 		mov	r8, #0
 4306              	.LVL415:
 4307              	.L242:
 146:Middlewares/lvgl/src/core/lv_obj_pos.c ****         lv_obj_scroll_to(obj, sl_ori, st_ori, LV_ANIM_OFF);
 4308              		.loc 1 146 5 is_stmt 1 view .LVU1244
 146:Middlewares/lvgl/src/core/lv_obj_pos.c ****         lv_obj_scroll_to(obj, sl_ori, st_ori, LV_ANIM_OFF);
 4309              		.loc 1 146 7 is_stmt 0 view .LVU1245
 4310 0064 59EA0803 		orrs	r3, r9, r8
 4311 0068 40F02981 		bne	.L266
 4312              	.L248:
 152:Middlewares/lvgl/src/core/lv_obj_pos.c **** 
 4313              		.loc 1 152 5 is_stmt 1 view .LVU1246
 152:Middlewares/lvgl/src/core/lv_obj_pos.c **** 
 4314              		.loc 1 152 8 is_stmt 0 view .LVU1247
 4315 006c 2046     		mov	r0, r4
 4316 006e FFF7FEFF 		bl	lv_obj_get_width
 4317              	.LVL416:
 152:Middlewares/lvgl/src/core/lv_obj_pos.c **** 
 4318              		.loc 1 152 30 view .LVU1248
 4319 0072 BDF91630 		ldrsh	r3, [sp, #22]
 152:Middlewares/lvgl/src/core/lv_obj_pos.c **** 
 4320              		.loc 1 152 7 view .LVU1249
 4321 0076 9842     		cmp	r0, r3
 4322 0078 07D1     		bne	.L249
 152:Middlewares/lvgl/src/core/lv_obj_pos.c **** 
 4323              		.loc 1 152 38 discriminator 1 view .LVU1250
 4324 007a 2046     		mov	r0, r4
 4325 007c FFF7FEFF 		bl	lv_obj_get_height
 4326              	.LVL417:
 152:Middlewares/lvgl/src/core/lv_obj_pos.c **** 
 4327              		.loc 1 152 61 discriminator 1 view .LVU1251
 4328 0080 BDF91430 		ldrsh	r3, [sp, #20]
 152:Middlewares/lvgl/src/core/lv_obj_pos.c **** 
 4329              		.loc 1 152 35 discriminator 1 view .LVU1252
 4330 0084 9842     		cmp	r0, r3
 4331 0086 00F03181 		beq	.L260
 4332              	.L249:
 155:Middlewares/lvgl/src/core/lv_obj_pos.c **** 
 4333              		.loc 1 155 5 is_stmt 1 view .LVU1253
 4334 008a 2046     		mov	r0, r4
 4335 008c FFF7FEFF 		bl	lv_obj_invalidate
 4336              	.LVL418:
 158:Middlewares/lvgl/src/core/lv_obj_pos.c ****     lv_obj_get_coords(obj, &ori);
 4337              		.loc 1 158 5 view .LVU1254
 159:Middlewares/lvgl/src/core/lv_obj_pos.c **** 
ARM GAS  /tmp/ccnhv9Lg.s 			page 117


 4338              		.loc 1 159 5 view .LVU1255
 4339 0090 03A9     		add	r1, sp, #12
 4340 0092 2046     		mov	r0, r4
 4341 0094 FFF7FEFF 		bl	lv_obj_get_coords
 4342              	.LVL419:
 162:Middlewares/lvgl/src/core/lv_obj_pos.c ****     lv_obj_get_content_coords(parent, &parent_fit_area);
 4343              		.loc 1 162 5 view .LVU1256
 163:Middlewares/lvgl/src/core/lv_obj_pos.c **** 
 4344              		.loc 1 163 5 view .LVU1257
 4345 0098 01A9     		add	r1, sp, #4
 4346 009a 3046     		mov	r0, r6
 4347 009c FFF7FEFF 		bl	lv_obj_get_content_coords
 4348              	.LVL420:
 167:Middlewares/lvgl/src/core/lv_obj_pos.c ****     if(!on1) lv_obj_scrollbar_invalidate(parent);
 4349              		.loc 1 167 5 view .LVU1258
 167:Middlewares/lvgl/src/core/lv_obj_pos.c ****     if(!on1) lv_obj_scrollbar_invalidate(parent);
 4350              		.loc 1 167 16 is_stmt 0 view .LVU1259
 4351 00a0 0022     		movs	r2, #0
 4352 00a2 01A9     		add	r1, sp, #4
 4353 00a4 03A8     		add	r0, sp, #12
 4354 00a6 FFF7FEFF 		bl	_lv_area_is_in
 4355              	.LVL421:
 4356 00aa 0546     		mov	r5, r0
 4357              	.LVL422:
 168:Middlewares/lvgl/src/core/lv_obj_pos.c **** 
 4358              		.loc 1 168 5 is_stmt 1 view .LVU1260
 168:Middlewares/lvgl/src/core/lv_obj_pos.c **** 
 4359              		.loc 1 168 8 is_stmt 0 view .LVU1261
 4360 00ac 80F00107 		eor	r7, r0, #1
 4361              	.LVL423:
 168:Middlewares/lvgl/src/core/lv_obj_pos.c **** 
 4362              		.loc 1 168 8 view .LVU1262
 4363 00b0 FFB2     		uxtb	r7, r7
 168:Middlewares/lvgl/src/core/lv_obj_pos.c **** 
 4364              		.loc 1 168 7 view .LVU1263
 4365 00b2 0028     		cmp	r0, #0
 4366 00b4 00F00A81 		beq	.L267
 4367              	.LVL424:
 4368              	.L250:
 172:Middlewares/lvgl/src/core/lv_obj_pos.c ****     if(lv_obj_get_style_base_dir(obj, LV_PART_MAIN) == LV_BASE_DIR_RTL) {
 4369              		.loc 1 172 5 is_stmt 1 view .LVU1264
 172:Middlewares/lvgl/src/core/lv_obj_pos.c ****     if(lv_obj_get_style_base_dir(obj, LV_PART_MAIN) == LV_BASE_DIR_RTL) {
 4370              		.loc 1 172 33 is_stmt 0 view .LVU1265
 4371 00b8 E38A     		ldrh	r3, [r4, #22]
 172:Middlewares/lvgl/src/core/lv_obj_pos.c ****     if(lv_obj_get_style_base_dir(obj, LV_PART_MAIN) == LV_BASE_DIR_RTL) {
 4372              		.loc 1 172 37 view .LVU1266
 4373 00ba BDF81420 		ldrh	r2, [sp, #20]
 4374 00be 1344     		add	r3, r3, r2
 4375 00c0 9BB2     		uxth	r3, r3
 172:Middlewares/lvgl/src/core/lv_obj_pos.c ****     if(lv_obj_get_style_base_dir(obj, LV_PART_MAIN) == LV_BASE_DIR_RTL) {
 4376              		.loc 1 172 41 view .LVU1267
 4377 00c2 013B     		subs	r3, r3, #1
 172:Middlewares/lvgl/src/core/lv_obj_pos.c ****     if(lv_obj_get_style_base_dir(obj, LV_PART_MAIN) == LV_BASE_DIR_RTL) {
 4378              		.loc 1 172 20 view .LVU1268
 4379 00c4 6383     		strh	r3, [r4, #26]	@ movhi
 173:Middlewares/lvgl/src/core/lv_obj_pos.c ****         obj->coords.x1 = obj->coords.x2 - w + 1;
 4380              		.loc 1 173 5 is_stmt 1 view .LVU1269
ARM GAS  /tmp/ccnhv9Lg.s 			page 118


 4381              	.LVL425:
 4382              	.LBB211:
 4383              	.LBI211:
 187:Middlewares/lvgl/src/core/lv_obj_style_gen.h **** {
 4384              		.loc 2 187 29 view .LVU1270
 4385              	.LBB212:
 189:Middlewares/lvgl/src/core/lv_obj_style_gen.h ****     return (lv_base_dir_t)v.num;
 4386              		.loc 2 189 5 view .LVU1271
 189:Middlewares/lvgl/src/core/lv_obj_style_gen.h ****     return (lv_base_dir_t)v.num;
 4387              		.loc 2 189 26 is_stmt 0 view .LVU1272
 4388 00c6 41F26A42 		movw	r2, #5226
 4389 00ca 0021     		movs	r1, #0
 4390 00cc 2046     		mov	r0, r4
 4391 00ce FFF7FEFF 		bl	lv_obj_get_style_prop
 4392              	.LVL426:
 190:Middlewares/lvgl/src/core/lv_obj_style_gen.h **** }
 4393              		.loc 2 190 5 is_stmt 1 view .LVU1273
 190:Middlewares/lvgl/src/core/lv_obj_style_gen.h **** }
 4394              		.loc 2 190 12 is_stmt 0 view .LVU1274
 4395 00d2 C0B2     		uxtb	r0, r0
 4396              	.LVL427:
 190:Middlewares/lvgl/src/core/lv_obj_style_gen.h **** }
 4397              		.loc 2 190 12 view .LVU1275
 4398              	.LBE212:
 4399              	.LBE211:
 173:Middlewares/lvgl/src/core/lv_obj_pos.c ****         obj->coords.x1 = obj->coords.x2 - w + 1;
 4400              		.loc 1 173 7 view .LVU1276
 4401 00d4 0128     		cmp	r0, #1
 4402 00d6 00F0FD80 		beq	.L268
 177:Middlewares/lvgl/src/core/lv_obj_pos.c ****     }
 4403              		.loc 1 177 9 is_stmt 1 view .LVU1277
 177:Middlewares/lvgl/src/core/lv_obj_pos.c ****     }
 4404              		.loc 1 177 37 is_stmt 0 view .LVU1278
 4405 00da A38A     		ldrh	r3, [r4, #20]
 177:Middlewares/lvgl/src/core/lv_obj_pos.c ****     }
 4406              		.loc 1 177 41 view .LVU1279
 4407 00dc BDF81620 		ldrh	r2, [sp, #22]
 4408 00e0 1344     		add	r3, r3, r2
 4409 00e2 9BB2     		uxth	r3, r3
 177:Middlewares/lvgl/src/core/lv_obj_pos.c ****     }
 4410              		.loc 1 177 45 view .LVU1280
 4411 00e4 013B     		subs	r3, r3, #1
 177:Middlewares/lvgl/src/core/lv_obj_pos.c ****     }
 4412              		.loc 1 177 24 view .LVU1281
 4413 00e6 2383     		strh	r3, [r4, #24]	@ movhi
 4414              	.L252:
 181:Middlewares/lvgl/src/core/lv_obj_pos.c **** 
 4415              		.loc 1 181 5 is_stmt 1 view .LVU1282
 4416 00e8 03AA     		add	r2, sp, #12
 4417 00ea 2321     		movs	r1, #35
 4418 00ec 2046     		mov	r0, r4
 4419 00ee FFF7FEFF 		bl	lv_event_send
 4420              	.LVL428:
 184:Middlewares/lvgl/src/core/lv_obj_pos.c **** 
 4421              		.loc 1 184 5 view .LVU1283
 4422 00f2 2246     		mov	r2, r4
 4423 00f4 2221     		movs	r1, #34
ARM GAS  /tmp/ccnhv9Lg.s 			page 119


 4424 00f6 3046     		mov	r0, r6
 4425 00f8 FFF7FEFF 		bl	lv_event_send
 4426              	.LVL429:
 187:Middlewares/lvgl/src/core/lv_obj_pos.c **** 
 4427              		.loc 1 187 5 view .LVU1284
 4428 00fc 2046     		mov	r0, r4
 4429 00fe FFF7FEFF 		bl	lv_obj_invalidate
 4430              	.LVL430:
 189:Middlewares/lvgl/src/core/lv_obj_pos.c **** 
 4431              		.loc 1 189 5 view .LVU1285
 4432 0102 0021     		movs	r1, #0
 4433 0104 2046     		mov	r0, r4
 4434 0106 FFF7FEFF 		bl	lv_obj_readjust_scroll
 4435              	.LVL431:
 193:Middlewares/lvgl/src/core/lv_obj_pos.c ****     if(on1 || (!on1 && on2)) lv_obj_scrollbar_invalidate(parent);
 4436              		.loc 1 193 5 view .LVU1286
 193:Middlewares/lvgl/src/core/lv_obj_pos.c ****     if(on1 || (!on1 && on2)) lv_obj_scrollbar_invalidate(parent);
 4437              		.loc 1 193 16 is_stmt 0 view .LVU1287
 4438 010a 0022     		movs	r2, #0
 4439 010c 01A9     		add	r1, sp, #4
 4440 010e 04F11400 		add	r0, r4, #20
 4441 0112 FFF7FEFF 		bl	_lv_area_is_in
 4442              	.LVL432:
 194:Middlewares/lvgl/src/core/lv_obj_pos.c **** 
 4443              		.loc 1 194 5 is_stmt 1 view .LVU1288
 194:Middlewares/lvgl/src/core/lv_obj_pos.c **** 
 4444              		.loc 1 194 7 is_stmt 0 view .LVU1289
 4445 0116 15B9     		cbnz	r5, .L253
 194:Middlewares/lvgl/src/core/lv_obj_pos.c **** 
 4446              		.loc 1 194 12 discriminator 2 view .LVU1290
 4447 0118 0742     		tst	r7, r0
 4448 011a 00F0E980 		beq	.L261
 4449              	.L253:
 194:Middlewares/lvgl/src/core/lv_obj_pos.c **** 
 4450              		.loc 1 194 30 is_stmt 1 discriminator 3 view .LVU1291
 4451 011e 3046     		mov	r0, r6
 4452              	.LVL433:
 194:Middlewares/lvgl/src/core/lv_obj_pos.c **** 
 4453              		.loc 1 194 30 is_stmt 0 discriminator 3 view .LVU1292
 4454 0120 FFF7FEFF 		bl	lv_obj_scrollbar_invalidate
 4455              	.LVL434:
 200:Middlewares/lvgl/src/core/lv_obj_pos.c **** }
 4456              		.loc 1 200 12 discriminator 3 view .LVU1293
 4457 0124 0120     		movs	r0, #1
 4458              	.LVL435:
 4459              	.L233:
 201:Middlewares/lvgl/src/core/lv_obj_pos.c **** 
 4460              		.loc 1 201 1 view .LVU1294
 4461 0126 07B0     		add	sp, sp, #28
 4462              	.LCFI74:
 4463              		.cfi_remember_state
 4464              		.cfi_def_cfa_offset 36
 4465              		@ sp needed
 4466 0128 BDE8F08F 		pop	{r4, r5, r6, r7, r8, r9, r10, fp, pc}
 4467              	.LVL436:
 4468              	.L234:
 4469              	.LCFI75:
ARM GAS  /tmp/ccnhv9Lg.s 			page 120


 4470              		.cfi_restore_state
 4471              	.LBB213:
 100:Middlewares/lvgl/src/core/lv_obj_pos.c ****         w_content = w == LV_SIZE_CONTENT ? true : false;
 4472              		.loc 1 100 9 is_stmt 1 view .LVU1295
 4473              	.LBB214:
 4474              	.LBI214:
   1:Middlewares/lvgl/src/core/lv_obj_style_gen.h **** {
 4475              		.loc 2 1 26 view .LVU1296
 4476              	.LBB215:
   3:Middlewares/lvgl/src/core/lv_obj_style_gen.h ****     return (lv_coord_t)v.num;
 4477              		.loc 2 3 5 view .LVU1297
   3:Middlewares/lvgl/src/core/lv_obj_style_gen.h ****     return (lv_coord_t)v.num;
 4478              		.loc 2 3 26 is_stmt 0 view .LVU1298
 4479 012c 41F20102 		movw	r2, #4097
 4480 0130 0021     		movs	r1, #0
 4481 0132 2046     		mov	r0, r4
 4482 0134 FFF7FEFF 		bl	lv_obj_get_style_prop
 4483              	.LVL437:
   4:Middlewares/lvgl/src/core/lv_obj_style_gen.h **** }
 4484              		.loc 2 4 5 is_stmt 1 view .LVU1299
   4:Middlewares/lvgl/src/core/lv_obj_style_gen.h **** }
 4485              		.loc 2 4 12 is_stmt 0 view .LVU1300
 4486 0138 00B2     		sxth	r0, r0
 4487              	.LVL438:
   4:Middlewares/lvgl/src/core/lv_obj_style_gen.h **** }
 4488              		.loc 2 4 12 view .LVU1301
 4489              	.LBE215:
 4490              	.LBE214:
 100:Middlewares/lvgl/src/core/lv_obj_pos.c ****         w_content = w == LV_SIZE_CONTENT ? true : false;
 4491              		.loc 1 100 11 view .LVU1302
 4492 013a ADF81600 		strh	r0, [sp, #22]	@ movhi
 101:Middlewares/lvgl/src/core/lv_obj_pos.c **** 
 4493              		.loc 1 101 9 is_stmt 1 view .LVU1303
 101:Middlewares/lvgl/src/core/lv_obj_pos.c **** 
 4494              		.loc 1 101 19 is_stmt 0 view .LVU1304
 4495 013e 42F2D173 		movw	r3, #10193
 4496 0142 9842     		cmp	r0, r3
 4497 0144 0CBF     		ite	eq
 4498 0146 4FF00109 		moveq	r9, #1
 4499 014a 4FF00009 		movne	r9, #0
 4500              	.LVL439:
 104:Middlewares/lvgl/src/core/lv_obj_pos.c ****             lv_obj_scroll_to_x(obj, 0, LV_ANIM_OFF);
 4501              		.loc 1 104 9 is_stmt 1 view .LVU1305
 104:Middlewares/lvgl/src/core/lv_obj_pos.c ****             lv_obj_scroll_to_x(obj, 0, LV_ANIM_OFF);
 4502              		.loc 1 104 11 is_stmt 0 view .LVU1306
 4503 014e 3BD0     		beq	.L269
 4504              	.L236:
 110:Middlewares/lvgl/src/core/lv_obj_pos.c **** 
 4505              		.loc 1 110 9 is_stmt 1 view .LVU1307
 110:Middlewares/lvgl/src/core/lv_obj_pos.c **** 
 4506              		.loc 1 110 22 is_stmt 0 view .LVU1308
 4507 0150 BDF91630 		ldrsh	r3, [sp, #22]
 110:Middlewares/lvgl/src/core/lv_obj_pos.c **** 
 4508              		.loc 1 110 48 view .LVU1309
 4509 0154 03F4C042 		and	r2, r3, #24576
 4510 0158 B2F5005F 		cmp	r2, #8192
 4511 015c 40D0     		beq	.L270
ARM GAS  /tmp/ccnhv9Lg.s 			page 121


 4512 015e 4FF00008 		mov	r8, #0
 4513              	.L237:
 4514              	.LVL440:
 112:Middlewares/lvgl/src/core/lv_obj_pos.c ****         if(pct_w) w = (LV_COORD_GET_PCT(w) * parent_w) / 100;
 4515              		.loc 1 112 9 is_stmt 1 discriminator 6 view .LVU1310
 112:Middlewares/lvgl/src/core/lv_obj_pos.c ****         if(pct_w) w = (LV_COORD_GET_PCT(w) * parent_w) / 100;
 4516              		.loc 1 112 31 is_stmt 0 discriminator 6 view .LVU1311
 4517 0162 3046     		mov	r0, r6
 4518 0164 FFF7FEFF 		bl	lv_obj_get_content_width
 4519              	.LVL441:
 4520 0168 0746     		mov	r7, r0
 4521              	.LVL442:
 113:Middlewares/lvgl/src/core/lv_obj_pos.c **** 
 4522              		.loc 1 113 9 is_stmt 1 discriminator 6 view .LVU1312
 113:Middlewares/lvgl/src/core/lv_obj_pos.c **** 
 4523              		.loc 1 113 11 is_stmt 0 discriminator 6 view .LVU1313
 4524 016a B8F1000F 		cmp	r8, #0
 4525 016e 13D0     		beq	.L238
 113:Middlewares/lvgl/src/core/lv_obj_pos.c **** 
 4526              		.loc 1 113 19 is_stmt 1 discriminator 1 view .LVU1314
 113:Middlewares/lvgl/src/core/lv_obj_pos.c **** 
 4527              		.loc 1 113 24 is_stmt 0 discriminator 1 view .LVU1315
 4528 0170 BDF81620 		ldrh	r2, [sp, #22]
 4529 0174 22F4C042 		bic	r2, r2, #24576
 4530 0178 12B2     		sxth	r2, r2
 4531 017a B2F57A7F 		cmp	r2, #1000
 4532 017e 01DD     		ble	.L240
 113:Middlewares/lvgl/src/core/lv_obj_pos.c **** 
 4533              		.loc 1 113 24 discriminator 2 view .LVU1316
 4534 0180 C2F57A72 		rsb	r2, r2, #1000
 4535              	.L240:
 113:Middlewares/lvgl/src/core/lv_obj_pos.c **** 
 4536              		.loc 1 113 44 discriminator 5 view .LVU1317
 4537 0184 07FB02F2 		mul	r2, r7, r2
 113:Middlewares/lvgl/src/core/lv_obj_pos.c **** 
 4538              		.loc 1 113 56 discriminator 5 view .LVU1318
 4539 0188 5A4B     		ldr	r3, .L273
 4540 018a 83FB0213 		smull	r1, r3, r3, r2
 4541 018e D217     		asrs	r2, r2, #31
 4542 0190 C2EB6312 		rsb	r2, r2, r3, asr #5
 113:Middlewares/lvgl/src/core/lv_obj_pos.c **** 
 4543              		.loc 1 113 21 discriminator 5 view .LVU1319
 4544 0194 ADF81620 		strh	r2, [sp, #22]	@ movhi
 4545              	.L238:
 115:Middlewares/lvgl/src/core/lv_obj_pos.c ****         lv_coord_t maxw = lv_obj_get_style_max_width(obj, LV_PART_MAIN);
 4546              		.loc 1 115 9 is_stmt 1 view .LVU1320
 4547              	.LVL443:
 4548              	.LBB216:
 4549              	.LBI216:
   7:Middlewares/lvgl/src/core/lv_obj_style_gen.h **** {
 4550              		.loc 2 7 26 view .LVU1321
 4551              	.LBB217:
   9:Middlewares/lvgl/src/core/lv_obj_style_gen.h ****     return (lv_coord_t)v.num;
 4552              		.loc 2 9 5 view .LVU1322
   9:Middlewares/lvgl/src/core/lv_obj_style_gen.h ****     return (lv_coord_t)v.num;
 4553              		.loc 2 9 26 is_stmt 0 view .LVU1323
 4554 0198 41F20202 		movw	r2, #4098
ARM GAS  /tmp/ccnhv9Lg.s 			page 122


 4555 019c 0021     		movs	r1, #0
 4556 019e 2046     		mov	r0, r4
 4557 01a0 FFF7FEFF 		bl	lv_obj_get_style_prop
 4558              	.LVL444:
  10:Middlewares/lvgl/src/core/lv_obj_style_gen.h **** }
 4559              		.loc 2 10 5 is_stmt 1 view .LVU1324
  10:Middlewares/lvgl/src/core/lv_obj_style_gen.h **** }
 4560              		.loc 2 10 12 is_stmt 0 view .LVU1325
 4561 01a4 0FFA80F8 		sxth	r8, r0
 4562              	.LVL445:
  10:Middlewares/lvgl/src/core/lv_obj_style_gen.h **** }
 4563              		.loc 2 10 12 view .LVU1326
 4564              	.LBE217:
 4565              	.LBE216:
 116:Middlewares/lvgl/src/core/lv_obj_pos.c ****         w = lv_clamp_width(w, minw, maxw, parent_w);
 4566              		.loc 1 116 9 is_stmt 1 view .LVU1327
 4567              	.LBB218:
 4568              	.LBI218:
  13:Middlewares/lvgl/src/core/lv_obj_style_gen.h **** {
 4569              		.loc 2 13 26 view .LVU1328
 4570              	.LBB219:
  15:Middlewares/lvgl/src/core/lv_obj_style_gen.h ****     return (lv_coord_t)v.num;
 4571              		.loc 2 15 5 view .LVU1329
  15:Middlewares/lvgl/src/core/lv_obj_style_gen.h ****     return (lv_coord_t)v.num;
 4572              		.loc 2 15 26 is_stmt 0 view .LVU1330
 4573 01a8 41F20302 		movw	r2, #4099
 4574 01ac 0021     		movs	r1, #0
 4575 01ae 2046     		mov	r0, r4
 4576 01b0 FFF7FEFF 		bl	lv_obj_get_style_prop
 4577              	.LVL446:
  16:Middlewares/lvgl/src/core/lv_obj_style_gen.h **** }
 4578              		.loc 2 16 5 is_stmt 1 view .LVU1331
  16:Middlewares/lvgl/src/core/lv_obj_style_gen.h **** }
 4579              		.loc 2 16 5 is_stmt 0 view .LVU1332
 4580              	.LBE219:
 4581              	.LBE218:
 117:Middlewares/lvgl/src/core/lv_obj_pos.c ****     }
 4582              		.loc 1 117 9 is_stmt 1 view .LVU1333
 117:Middlewares/lvgl/src/core/lv_obj_pos.c ****     }
 4583              		.loc 1 117 13 is_stmt 0 view .LVU1334
 4584 01b4 3B46     		mov	r3, r7
 4585 01b6 02B2     		sxth	r2, r0
 4586 01b8 4146     		mov	r1, r8
 4587 01ba BDF91600 		ldrsh	r0, [sp, #22]
 4588              	.LVL447:
 117:Middlewares/lvgl/src/core/lv_obj_pos.c ****     }
 4589              		.loc 1 117 13 view .LVU1335
 4590 01be FFF7FEFF 		bl	lv_clamp_width
 4591              	.LVL448:
 117:Middlewares/lvgl/src/core/lv_obj_pos.c ****     }
 4592              		.loc 1 117 11 view .LVU1336
 4593 01c2 ADF81600 		strh	r0, [sp, #22]	@ movhi
 4594 01c6 3CE7     		b	.L235
 4595              	.LVL449:
 4596              	.L269:
 105:Middlewares/lvgl/src/core/lv_obj_pos.c ****             calc_auto_size(obj, &w, NULL);
 4597              		.loc 1 105 13 is_stmt 1 view .LVU1337
ARM GAS  /tmp/ccnhv9Lg.s 			page 123


 4598 01c8 0022     		movs	r2, #0
 4599 01ca 1146     		mov	r1, r2
 4600 01cc 2046     		mov	r0, r4
 4601 01ce FFF7FEFF 		bl	lv_obj_scroll_to_x
 4602              	.LVL450:
 106:Middlewares/lvgl/src/core/lv_obj_pos.c ****         }
 4603              		.loc 1 106 13 view .LVU1338
 4604 01d2 0022     		movs	r2, #0
 4605 01d4 0DF11601 		add	r1, sp, #22
 4606 01d8 2046     		mov	r0, r4
 4607 01da FFF7FEFF 		bl	calc_auto_size
 4608              	.LVL451:
 4609 01de B7E7     		b	.L236
 4610              	.L270:
 110:Middlewares/lvgl/src/core/lv_obj_pos.c **** 
 4611              		.loc 1 110 22 is_stmt 0 discriminator 1 view .LVU1339
 4612 01e0 23F4C043 		bic	r3, r3, #24576
 110:Middlewares/lvgl/src/core/lv_obj_pos.c **** 
 4613              		.loc 1 110 48 discriminator 1 view .LVU1340
 4614 01e4 B3F5FA6F 		cmp	r3, #2000
 4615 01e8 02DD     		ble	.L257
 110:Middlewares/lvgl/src/core/lv_obj_pos.c **** 
 4616              		.loc 1 110 48 view .LVU1341
 4617 01ea 4FF00008 		mov	r8, #0
 4618 01ee B8E7     		b	.L237
 4619              	.L257:
 4620 01f0 4FF00108 		mov	r8, #1
 4621 01f4 B5E7     		b	.L237
 4622              	.LVL452:
 4623              	.L241:
 110:Middlewares/lvgl/src/core/lv_obj_pos.c **** 
 4624              		.loc 1 110 48 view .LVU1342
 4625              	.LBE213:
 4626              	.LBB220:
 126:Middlewares/lvgl/src/core/lv_obj_pos.c ****         h_content = h == LV_SIZE_CONTENT ? true : false;
 4627              		.loc 1 126 9 is_stmt 1 view .LVU1343
 4628              	.LBB221:
 4629              	.LBI221:
  19:Middlewares/lvgl/src/core/lv_obj_style_gen.h **** {
 4630              		.loc 2 19 26 view .LVU1344
 4631              	.LBB222:
  21:Middlewares/lvgl/src/core/lv_obj_style_gen.h ****     return (lv_coord_t)v.num;
 4632              		.loc 2 21 5 view .LVU1345
  21:Middlewares/lvgl/src/core/lv_obj_style_gen.h ****     return (lv_coord_t)v.num;
 4633              		.loc 2 21 26 is_stmt 0 view .LVU1346
 4634 01f6 41F20402 		movw	r2, #4100
 4635 01fa 0021     		movs	r1, #0
 4636 01fc 2046     		mov	r0, r4
 4637 01fe FFF7FEFF 		bl	lv_obj_get_style_prop
 4638              	.LVL453:
  22:Middlewares/lvgl/src/core/lv_obj_style_gen.h **** }
 4639              		.loc 2 22 5 is_stmt 1 view .LVU1347
  22:Middlewares/lvgl/src/core/lv_obj_style_gen.h **** }
 4640              		.loc 2 22 12 is_stmt 0 view .LVU1348
 4641 0202 00B2     		sxth	r0, r0
 4642              	.LVL454:
  22:Middlewares/lvgl/src/core/lv_obj_style_gen.h **** }
ARM GAS  /tmp/ccnhv9Lg.s 			page 124


 4643              		.loc 2 22 12 view .LVU1349
 4644              	.LBE222:
 4645              	.LBE221:
 126:Middlewares/lvgl/src/core/lv_obj_pos.c ****         h_content = h == LV_SIZE_CONTENT ? true : false;
 4646              		.loc 1 126 11 view .LVU1350
 4647 0204 ADF81400 		strh	r0, [sp, #20]	@ movhi
 127:Middlewares/lvgl/src/core/lv_obj_pos.c **** 
 4648              		.loc 1 127 9 is_stmt 1 view .LVU1351
 127:Middlewares/lvgl/src/core/lv_obj_pos.c **** 
 4649              		.loc 1 127 19 is_stmt 0 view .LVU1352
 4650 0208 42F2D173 		movw	r3, #10193
 4651 020c 9842     		cmp	r0, r3
 4652 020e 0CBF     		ite	eq
 4653 0210 4FF00108 		moveq	r8, #1
 4654 0214 4FF00008 		movne	r8, #0
 4655              	.LVL455:
 130:Middlewares/lvgl/src/core/lv_obj_pos.c ****             lv_obj_scroll_to_y(obj, 0, LV_ANIM_OFF);
 4656              		.loc 1 130 9 is_stmt 1 view .LVU1353
 130:Middlewares/lvgl/src/core/lv_obj_pos.c ****             lv_obj_scroll_to_y(obj, 0, LV_ANIM_OFF);
 4657              		.loc 1 130 11 is_stmt 0 view .LVU1354
 4658 0218 3BD0     		beq	.L271
 4659              	.L243:
 136:Middlewares/lvgl/src/core/lv_obj_pos.c ****         lv_coord_t parent_h = lv_obj_get_content_height(parent);
 4660              		.loc 1 136 9 is_stmt 1 view .LVU1355
 136:Middlewares/lvgl/src/core/lv_obj_pos.c ****         lv_coord_t parent_h = lv_obj_get_content_height(parent);
 4661              		.loc 1 136 22 is_stmt 0 view .LVU1356
 4662 021a BDF91430 		ldrsh	r3, [sp, #20]
 136:Middlewares/lvgl/src/core/lv_obj_pos.c ****         lv_coord_t parent_h = lv_obj_get_content_height(parent);
 4663              		.loc 1 136 48 view .LVU1357
 4664 021e 03F4C042 		and	r2, r3, #24576
 4665 0222 B2F5005F 		cmp	r2, #8192
 4666 0226 3FD0     		beq	.L272
 4667 0228 4FF0000B 		mov	fp, #0
 4668              	.L244:
 4669              	.LVL456:
 137:Middlewares/lvgl/src/core/lv_obj_pos.c ****         if(pct_h) h = (LV_COORD_GET_PCT(h) * parent_h) / 100;
 4670              		.loc 1 137 9 is_stmt 1 discriminator 6 view .LVU1358
 137:Middlewares/lvgl/src/core/lv_obj_pos.c ****         if(pct_h) h = (LV_COORD_GET_PCT(h) * parent_h) / 100;
 4671              		.loc 1 137 31 is_stmt 0 discriminator 6 view .LVU1359
 4672 022c 3046     		mov	r0, r6
 4673 022e FFF7FEFF 		bl	lv_obj_get_content_height
 4674              	.LVL457:
 4675 0232 8246     		mov	r10, r0
 4676              	.LVL458:
 138:Middlewares/lvgl/src/core/lv_obj_pos.c **** 
 4677              		.loc 1 138 9 is_stmt 1 discriminator 6 view .LVU1360
 138:Middlewares/lvgl/src/core/lv_obj_pos.c **** 
 4678              		.loc 1 138 11 is_stmt 0 discriminator 6 view .LVU1361
 4679 0234 BBF1000F 		cmp	fp, #0
 4680 0238 13D0     		beq	.L245
 138:Middlewares/lvgl/src/core/lv_obj_pos.c **** 
 4681              		.loc 1 138 19 is_stmt 1 discriminator 1 view .LVU1362
 138:Middlewares/lvgl/src/core/lv_obj_pos.c **** 
 4682              		.loc 1 138 24 is_stmt 0 discriminator 1 view .LVU1363
 4683 023a BDF81420 		ldrh	r2, [sp, #20]
 4684 023e 22F4C042 		bic	r2, r2, #24576
 4685 0242 12B2     		sxth	r2, r2
ARM GAS  /tmp/ccnhv9Lg.s 			page 125


 4686 0244 B2F57A7F 		cmp	r2, #1000
 4687 0248 01DD     		ble	.L247
 138:Middlewares/lvgl/src/core/lv_obj_pos.c **** 
 4688              		.loc 1 138 24 discriminator 2 view .LVU1364
 4689 024a C2F57A72 		rsb	r2, r2, #1000
 4690              	.L247:
 138:Middlewares/lvgl/src/core/lv_obj_pos.c **** 
 4691              		.loc 1 138 44 discriminator 5 view .LVU1365
 4692 024e 02FB0AF2 		mul	r2, r2, r10
 138:Middlewares/lvgl/src/core/lv_obj_pos.c **** 
 4693              		.loc 1 138 56 discriminator 5 view .LVU1366
 4694 0252 284B     		ldr	r3, .L273
 4695 0254 83FB0213 		smull	r1, r3, r3, r2
 4696 0258 D217     		asrs	r2, r2, #31
 4697 025a C2EB6312 		rsb	r2, r2, r3, asr #5
 138:Middlewares/lvgl/src/core/lv_obj_pos.c **** 
 4698              		.loc 1 138 21 discriminator 5 view .LVU1367
 4699 025e ADF81420 		strh	r2, [sp, #20]	@ movhi
 4700              	.L245:
 140:Middlewares/lvgl/src/core/lv_obj_pos.c ****         lv_coord_t maxh = lv_obj_get_style_max_height(obj, LV_PART_MAIN);
 4701              		.loc 1 140 9 is_stmt 1 view .LVU1368
 4702              	.LVL459:
 4703              	.LBB223:
 4704              	.LBI223:
  25:Middlewares/lvgl/src/core/lv_obj_style_gen.h **** {
 4705              		.loc 2 25 26 view .LVU1369
 4706              	.LBB224:
  27:Middlewares/lvgl/src/core/lv_obj_style_gen.h ****     return (lv_coord_t)v.num;
 4707              		.loc 2 27 5 view .LVU1370
  27:Middlewares/lvgl/src/core/lv_obj_style_gen.h ****     return (lv_coord_t)v.num;
 4708              		.loc 2 27 26 is_stmt 0 view .LVU1371
 4709 0262 41F20502 		movw	r2, #4101
 4710 0266 0021     		movs	r1, #0
 4711 0268 2046     		mov	r0, r4
 4712 026a FFF7FEFF 		bl	lv_obj_get_style_prop
 4713              	.LVL460:
  28:Middlewares/lvgl/src/core/lv_obj_style_gen.h **** }
 4714              		.loc 2 28 5 is_stmt 1 view .LVU1372
  28:Middlewares/lvgl/src/core/lv_obj_style_gen.h **** }
 4715              		.loc 2 28 12 is_stmt 0 view .LVU1373
 4716 026e 0FFA80FB 		sxth	fp, r0
 4717              	.LVL461:
  28:Middlewares/lvgl/src/core/lv_obj_style_gen.h **** }
 4718              		.loc 2 28 12 view .LVU1374
 4719              	.LBE224:
 4720              	.LBE223:
 141:Middlewares/lvgl/src/core/lv_obj_pos.c ****         h = lv_clamp_height(h, minh, maxh, parent_h);
 4721              		.loc 1 141 9 is_stmt 1 view .LVU1375
 4722              	.LBB225:
 4723              	.LBI225:
  31:Middlewares/lvgl/src/core/lv_obj_style_gen.h **** {
 4724              		.loc 2 31 26 view .LVU1376
 4725              	.LBB226:
  33:Middlewares/lvgl/src/core/lv_obj_style_gen.h ****     return (lv_coord_t)v.num;
 4726              		.loc 2 33 5 view .LVU1377
  33:Middlewares/lvgl/src/core/lv_obj_style_gen.h ****     return (lv_coord_t)v.num;
 4727              		.loc 2 33 26 is_stmt 0 view .LVU1378
ARM GAS  /tmp/ccnhv9Lg.s 			page 126


 4728 0272 41F20602 		movw	r2, #4102
 4729 0276 0021     		movs	r1, #0
 4730 0278 2046     		mov	r0, r4
 4731 027a FFF7FEFF 		bl	lv_obj_get_style_prop
 4732              	.LVL462:
  34:Middlewares/lvgl/src/core/lv_obj_style_gen.h **** }
 4733              		.loc 2 34 5 is_stmt 1 view .LVU1379
  34:Middlewares/lvgl/src/core/lv_obj_style_gen.h **** }
 4734              		.loc 2 34 5 is_stmt 0 view .LVU1380
 4735              	.LBE226:
 4736              	.LBE225:
 142:Middlewares/lvgl/src/core/lv_obj_pos.c ****     }
 4737              		.loc 1 142 9 is_stmt 1 view .LVU1381
 142:Middlewares/lvgl/src/core/lv_obj_pos.c ****     }
 4738              		.loc 1 142 13 is_stmt 0 view .LVU1382
 4739 027e 5346     		mov	r3, r10
 4740 0280 02B2     		sxth	r2, r0
 4741 0282 5946     		mov	r1, fp
 4742 0284 BDF91400 		ldrsh	r0, [sp, #20]
 4743              	.LVL463:
 142:Middlewares/lvgl/src/core/lv_obj_pos.c ****     }
 4744              		.loc 1 142 13 view .LVU1383
 4745 0288 FFF7FEFF 		bl	lv_clamp_height
 4746              	.LVL464:
 142:Middlewares/lvgl/src/core/lv_obj_pos.c ****     }
 4747              		.loc 1 142 11 view .LVU1384
 4748 028c ADF81400 		strh	r0, [sp, #20]	@ movhi
 4749 0290 E8E6     		b	.L242
 4750              	.LVL465:
 4751              	.L271:
 131:Middlewares/lvgl/src/core/lv_obj_pos.c ****             calc_auto_size(obj, NULL, &h);
 4752              		.loc 1 131 13 is_stmt 1 view .LVU1385
 4753 0292 0022     		movs	r2, #0
 4754 0294 1146     		mov	r1, r2
 4755 0296 2046     		mov	r0, r4
 4756 0298 FFF7FEFF 		bl	lv_obj_scroll_to_y
 4757              	.LVL466:
 132:Middlewares/lvgl/src/core/lv_obj_pos.c ****         }
 4758              		.loc 1 132 13 view .LVU1386
 4759 029c 05AA     		add	r2, sp, #20
 4760 029e 0021     		movs	r1, #0
 4761 02a0 2046     		mov	r0, r4
 4762 02a2 FFF7FEFF 		bl	calc_auto_size
 4763              	.LVL467:
 4764 02a6 B8E7     		b	.L243
 4765              	.L272:
 136:Middlewares/lvgl/src/core/lv_obj_pos.c ****         lv_coord_t parent_h = lv_obj_get_content_height(parent);
 4766              		.loc 1 136 22 is_stmt 0 discriminator 1 view .LVU1387
 4767 02a8 23F4C043 		bic	r3, r3, #24576
 136:Middlewares/lvgl/src/core/lv_obj_pos.c ****         lv_coord_t parent_h = lv_obj_get_content_height(parent);
 4768              		.loc 1 136 48 discriminator 1 view .LVU1388
 4769 02ac B3F5FA6F 		cmp	r3, #2000
 4770 02b0 02DD     		ble	.L259
 136:Middlewares/lvgl/src/core/lv_obj_pos.c ****         lv_coord_t parent_h = lv_obj_get_content_height(parent);
 4771              		.loc 1 136 48 view .LVU1389
 4772 02b2 4FF0000B 		mov	fp, #0
 4773 02b6 B9E7     		b	.L244
ARM GAS  /tmp/ccnhv9Lg.s 			page 127


 4774              	.L259:
 4775 02b8 4FF0010B 		mov	fp, #1
 4776 02bc B6E7     		b	.L244
 4777              	.L266:
 136:Middlewares/lvgl/src/core/lv_obj_pos.c ****         lv_coord_t parent_h = lv_obj_get_content_height(parent);
 4778              		.loc 1 136 48 view .LVU1390
 4779              	.LBE220:
 147:Middlewares/lvgl/src/core/lv_obj_pos.c ****     }
 4780              		.loc 1 147 9 is_stmt 1 view .LVU1391
 4781 02be 0023     		movs	r3, #0
 4782 02c0 3A46     		mov	r2, r7
 4783 02c2 2946     		mov	r1, r5
 4784 02c4 2046     		mov	r0, r4
 4785 02c6 FFF7FEFF 		bl	lv_obj_scroll_to
 4786              	.LVL468:
 4787 02ca CFE6     		b	.L248
 4788              	.LVL469:
 4789              	.L267:
 168:Middlewares/lvgl/src/core/lv_obj_pos.c **** 
 4790              		.loc 1 168 14 discriminator 1 view .LVU1392
 4791 02cc 3046     		mov	r0, r6
 4792              	.LVL470:
 168:Middlewares/lvgl/src/core/lv_obj_pos.c **** 
 4793              		.loc 1 168 14 is_stmt 0 discriminator 1 view .LVU1393
 4794 02ce FFF7FEFF 		bl	lv_obj_scrollbar_invalidate
 4795              	.LVL471:
 4796 02d2 F1E6     		b	.L250
 4797              	.L268:
 174:Middlewares/lvgl/src/core/lv_obj_pos.c ****     }
 4798              		.loc 1 174 9 is_stmt 1 view .LVU1394
 174:Middlewares/lvgl/src/core/lv_obj_pos.c ****     }
 4799              		.loc 1 174 37 is_stmt 0 view .LVU1395
 4800 02d4 238B     		ldrh	r3, [r4, #24]
 174:Middlewares/lvgl/src/core/lv_obj_pos.c ****     }
 4801              		.loc 1 174 41 view .LVU1396
 4802 02d6 BDF81620 		ldrh	r2, [sp, #22]
 4803 02da 9B1A     		subs	r3, r3, r2
 4804 02dc 9BB2     		uxth	r3, r3
 174:Middlewares/lvgl/src/core/lv_obj_pos.c ****     }
 4805              		.loc 1 174 45 view .LVU1397
 4806 02de 0133     		adds	r3, r3, #1
 174:Middlewares/lvgl/src/core/lv_obj_pos.c ****     }
 4807              		.loc 1 174 24 view .LVU1398
 4808 02e0 A382     		strh	r3, [r4, #20]	@ movhi
 4809 02e2 01E7     		b	.L252
 4810              	.LVL472:
 4811              	.L254:
 4812              	.LCFI76:
 4813              		.cfi_def_cfa_offset 0
 4814              		.cfi_restore 4
 4815              		.cfi_restore 5
 4816              		.cfi_restore 6
 4817              		.cfi_restore 7
 4818              		.cfi_restore 8
 4819              		.cfi_restore 9
 4820              		.cfi_restore 10
 4821              		.cfi_restore 11
ARM GAS  /tmp/ccnhv9Lg.s 			page 128


 4822              		.cfi_restore 14
  89:Middlewares/lvgl/src/core/lv_obj_pos.c **** 
 4823              		.loc 1 89 47 view .LVU1399
 4824 02e4 0020     		movs	r0, #0
 4825              	.LVL473:
 201:Middlewares/lvgl/src/core/lv_obj_pos.c **** 
 4826              		.loc 1 201 1 view .LVU1400
 4827 02e6 7047     		bx	lr
 4828              	.LVL474:
 4829              	.L255:
 4830              	.LCFI77:
 4831              		.cfi_def_cfa_offset 64
 4832              		.cfi_offset 4, -36
 4833              		.cfi_offset 5, -32
 4834              		.cfi_offset 6, -28
 4835              		.cfi_offset 7, -24
 4836              		.cfi_offset 8, -20
 4837              		.cfi_offset 9, -16
 4838              		.cfi_offset 10, -12
 4839              		.cfi_offset 11, -8
 4840              		.cfi_offset 14, -4
  92:Middlewares/lvgl/src/core/lv_obj_pos.c **** 
 4841              		.loc 1 92 31 view .LVU1401
 4842 02e8 0020     		movs	r0, #0
 4843              	.LVL475:
  92:Middlewares/lvgl/src/core/lv_obj_pos.c **** 
 4844              		.loc 1 92 31 view .LVU1402
 4845 02ea 1CE7     		b	.L233
 4846              	.LVL476:
 4847              	.L260:
 152:Middlewares/lvgl/src/core/lv_obj_pos.c **** 
 4848              		.loc 1 152 74 view .LVU1403
 4849 02ec 0020     		movs	r0, #0
 4850 02ee 1AE7     		b	.L233
 4851              	.LVL477:
 4852              	.L261:
 200:Middlewares/lvgl/src/core/lv_obj_pos.c **** }
 4853              		.loc 1 200 12 view .LVU1404
 4854 02f0 0120     		movs	r0, #1
 4855              	.LVL478:
 200:Middlewares/lvgl/src/core/lv_obj_pos.c **** }
 4856              		.loc 1 200 12 view .LVU1405
 4857 02f2 18E7     		b	.L233
 4858              	.L274:
 4859              		.align	2
 4860              	.L273:
 4861 02f4 1F85EB51 		.word	1374389535
 4862              		.cfi_endproc
 4863              	.LFE156:
 4865              		.section	.text.layout_update_core,"ax",%progbits
 4866              		.align	1
 4867              		.syntax unified
 4868              		.thumb
 4869              		.thumb_func
 4871              	layout_update_core:
 4872              	.LVL479:
 4873              	.LFB196:
ARM GAS  /tmp/ccnhv9Lg.s 			page 129


 934:Middlewares/lvgl/src/core/lv_obj_pos.c **** 
 935:Middlewares/lvgl/src/core/lv_obj_pos.c **** static void layout_update_core(lv_obj_t * obj)
 936:Middlewares/lvgl/src/core/lv_obj_pos.c **** {
 4874              		.loc 1 936 1 is_stmt 1 view -0
 4875              		.cfi_startproc
 4876              		@ args = 0, pretend = 0, frame = 0
 4877              		@ frame_needed = 0, uses_anonymous_args = 0
 4878              		.loc 1 936 1 is_stmt 0 view .LVU1407
 4879 0000 70B5     		push	{r4, r5, r6, lr}
 4880              	.LCFI78:
 4881              		.cfi_def_cfa_offset 16
 4882              		.cfi_offset 4, -16
 4883              		.cfi_offset 5, -12
 4884              		.cfi_offset 6, -8
 4885              		.cfi_offset 14, -4
 4886 0002 0546     		mov	r5, r0
 937:Middlewares/lvgl/src/core/lv_obj_pos.c ****     uint32_t i;
 4887              		.loc 1 937 5 is_stmt 1 view .LVU1408
 938:Middlewares/lvgl/src/core/lv_obj_pos.c ****     uint32_t child_cnt = lv_obj_get_child_cnt(obj);
 4888              		.loc 1 938 5 view .LVU1409
 4889              		.loc 1 938 26 is_stmt 0 view .LVU1410
 4890 0004 FFF7FEFF 		bl	lv_obj_get_child_cnt
 4891              	.LVL480:
 4892              		.loc 1 938 26 view .LVU1411
 4893 0008 0646     		mov	r6, r0
 4894              	.LVL481:
 939:Middlewares/lvgl/src/core/lv_obj_pos.c ****     for(i = 0; i < child_cnt; i++) {
 4895              		.loc 1 939 5 is_stmt 1 view .LVU1412
 4896              		.loc 1 939 11 is_stmt 0 view .LVU1413
 4897 000a 0024     		movs	r4, #0
 4898              		.loc 1 939 5 view .LVU1414
 4899 000c 06E0     		b	.L276
 4900              	.LVL482:
 4901              	.L277:
 4902              	.LBB227:
 940:Middlewares/lvgl/src/core/lv_obj_pos.c ****         lv_obj_t * child = lv_obj_get_child(obj, i);
 4903              		.loc 1 940 9 is_stmt 1 discriminator 3 view .LVU1415
 4904              		.loc 1 940 28 is_stmt 0 discriminator 3 view .LVU1416
 4905 000e 2146     		mov	r1, r4
 4906 0010 2846     		mov	r0, r5
 4907 0012 FFF7FEFF 		bl	lv_obj_get_child
 4908              	.LVL483:
 941:Middlewares/lvgl/src/core/lv_obj_pos.c ****         layout_update_core(child);
 4909              		.loc 1 941 9 is_stmt 1 discriminator 3 view .LVU1417
 4910 0016 FFF7F3FF 		bl	layout_update_core
 4911              	.LVL484:
 4912              		.loc 1 941 9 is_stmt 0 discriminator 3 view .LVU1418
 4913              	.LBE227:
 939:Middlewares/lvgl/src/core/lv_obj_pos.c ****     for(i = 0; i < child_cnt; i++) {
 4914              		.loc 1 939 31 is_stmt 1 discriminator 3 view .LVU1419
 939:Middlewares/lvgl/src/core/lv_obj_pos.c ****     for(i = 0; i < child_cnt; i++) {
 4915              		.loc 1 939 32 is_stmt 0 discriminator 3 view .LVU1420
 4916 001a 0134     		adds	r4, r4, #1
 4917              	.LVL485:
 4918              	.L276:
 939:Middlewares/lvgl/src/core/lv_obj_pos.c ****     for(i = 0; i < child_cnt; i++) {
 4919              		.loc 1 939 16 is_stmt 1 discriminator 1 view .LVU1421
ARM GAS  /tmp/ccnhv9Lg.s 			page 130


 939:Middlewares/lvgl/src/core/lv_obj_pos.c ****     for(i = 0; i < child_cnt; i++) {
 4920              		.loc 1 939 5 is_stmt 0 discriminator 1 view .LVU1422
 4921 001c B442     		cmp	r4, r6
 4922 001e F6D3     		bcc	.L277
 942:Middlewares/lvgl/src/core/lv_obj_pos.c ****     }
 943:Middlewares/lvgl/src/core/lv_obj_pos.c **** 
 944:Middlewares/lvgl/src/core/lv_obj_pos.c ****     if(obj->layout_inv == 0) return;
 4923              		.loc 1 944 5 is_stmt 1 view .LVU1423
 4924              		.loc 1 944 24 is_stmt 0 view .LVU1424
 4925 0020 95F82230 		ldrb	r3, [r5, #34]	@ zero_extendqisi2
 4926              		.loc 1 944 7 view .LVU1425
 4927 0024 13F0010F 		tst	r3, #1
 4928 0028 00D1     		bne	.L280
 4929              	.L275:
 945:Middlewares/lvgl/src/core/lv_obj_pos.c **** 
 946:Middlewares/lvgl/src/core/lv_obj_pos.c ****     obj->layout_inv = 0;
 947:Middlewares/lvgl/src/core/lv_obj_pos.c **** 
 948:Middlewares/lvgl/src/core/lv_obj_pos.c ****     lv_obj_refr_size(obj);
 949:Middlewares/lvgl/src/core/lv_obj_pos.c ****     lv_obj_refr_pos(obj);
 950:Middlewares/lvgl/src/core/lv_obj_pos.c **** 
 951:Middlewares/lvgl/src/core/lv_obj_pos.c ****     if(lv_obj_get_child_cnt(obj) > 0) {
 952:Middlewares/lvgl/src/core/lv_obj_pos.c ****         uint32_t layout_id = lv_obj_get_style_layout(obj, LV_PART_MAIN);
 953:Middlewares/lvgl/src/core/lv_obj_pos.c ****         if(layout_id > 0 && layout_id <= layout_cnt) {
 954:Middlewares/lvgl/src/core/lv_obj_pos.c ****             void  * user_data = LV_GC_ROOT(_lv_layout_list)[layout_id -1].user_data;
 955:Middlewares/lvgl/src/core/lv_obj_pos.c ****             LV_GC_ROOT(_lv_layout_list)[layout_id -1].cb(obj, user_data);
 956:Middlewares/lvgl/src/core/lv_obj_pos.c ****         }
 957:Middlewares/lvgl/src/core/lv_obj_pos.c ****     }
 958:Middlewares/lvgl/src/core/lv_obj_pos.c **** }
 4930              		.loc 1 958 1 view .LVU1426
 4931 002a 70BD     		pop	{r4, r5, r6, pc}
 4932              	.LVL486:
 4933              	.L280:
 946:Middlewares/lvgl/src/core/lv_obj_pos.c **** 
 4934              		.loc 1 946 5 is_stmt 1 view .LVU1427
 946:Middlewares/lvgl/src/core/lv_obj_pos.c **** 
 4935              		.loc 1 946 21 is_stmt 0 view .LVU1428
 4936 002c 95F82230 		ldrb	r3, [r5, #34]	@ zero_extendqisi2
 4937 0030 6FF30003 		bfc	r3, #0, #1
 4938 0034 85F82230 		strb	r3, [r5, #34]
 948:Middlewares/lvgl/src/core/lv_obj_pos.c ****     lv_obj_refr_pos(obj);
 4939              		.loc 1 948 5 is_stmt 1 view .LVU1429
 4940 0038 2846     		mov	r0, r5
 4941 003a FFF7FEFF 		bl	lv_obj_refr_size
 4942              	.LVL487:
 949:Middlewares/lvgl/src/core/lv_obj_pos.c **** 
 4943              		.loc 1 949 5 view .LVU1430
 4944 003e 2846     		mov	r0, r5
 4945 0040 FFF7FEFF 		bl	lv_obj_refr_pos
 4946              	.LVL488:
 951:Middlewares/lvgl/src/core/lv_obj_pos.c ****         uint32_t layout_id = lv_obj_get_style_layout(obj, LV_PART_MAIN);
 4947              		.loc 1 951 5 view .LVU1431
 951:Middlewares/lvgl/src/core/lv_obj_pos.c ****         uint32_t layout_id = lv_obj_get_style_layout(obj, LV_PART_MAIN);
 4948              		.loc 1 951 8 is_stmt 0 view .LVU1432
 4949 0044 2846     		mov	r0, r5
 4950 0046 FFF7FEFF 		bl	lv_obj_get_child_cnt
 4951              	.LVL489:
 951:Middlewares/lvgl/src/core/lv_obj_pos.c ****         uint32_t layout_id = lv_obj_get_style_layout(obj, LV_PART_MAIN);
ARM GAS  /tmp/ccnhv9Lg.s 			page 131


 4952              		.loc 1 951 7 view .LVU1433
 4953 004a 0028     		cmp	r0, #0
 4954 004c EDD0     		beq	.L275
 4955              	.LBB228:
 952:Middlewares/lvgl/src/core/lv_obj_pos.c ****         if(layout_id > 0 && layout_id <= layout_cnt) {
 4956              		.loc 1 952 9 is_stmt 1 view .LVU1434
 4957              	.LVL490:
 4958              	.LBB229:
 4959              	.LBI229:
 181:Middlewares/lvgl/src/core/lv_obj_style_gen.h **** {
 4960              		.loc 2 181 24 view .LVU1435
 4961              	.LBB230:
 183:Middlewares/lvgl/src/core/lv_obj_style_gen.h ****     return (uint16_t)v.num;
 4962              		.loc 2 183 5 view .LVU1436
 183:Middlewares/lvgl/src/core/lv_obj_style_gen.h ****     return (uint16_t)v.num;
 4963              		.loc 2 183 26 is_stmt 0 view .LVU1437
 4964 004e 41F26902 		movw	r2, #4201
 4965 0052 0021     		movs	r1, #0
 4966 0054 2846     		mov	r0, r5
 4967 0056 FFF7FEFF 		bl	lv_obj_get_style_prop
 4968              	.LVL491:
 184:Middlewares/lvgl/src/core/lv_obj_style_gen.h **** }
 4969              		.loc 2 184 5 is_stmt 1 view .LVU1438
 184:Middlewares/lvgl/src/core/lv_obj_style_gen.h **** }
 4970              		.loc 2 184 5 is_stmt 0 view .LVU1439
 4971              	.LBE230:
 4972              	.LBE229:
 952:Middlewares/lvgl/src/core/lv_obj_pos.c ****         if(layout_id > 0 && layout_id <= layout_cnt) {
 4973              		.loc 1 952 18 view .LVU1440
 4974 005a 80B2     		uxth	r0, r0
 4975              	.LVL492:
 953:Middlewares/lvgl/src/core/lv_obj_pos.c ****             void  * user_data = LV_GC_ROOT(_lv_layout_list)[layout_id -1].user_data;
 4976              		.loc 1 953 9 is_stmt 1 view .LVU1441
 953:Middlewares/lvgl/src/core/lv_obj_pos.c ****             void  * user_data = LV_GC_ROOT(_lv_layout_list)[layout_id -1].user_data;
 4977              		.loc 1 953 11 is_stmt 0 view .LVU1442
 4978 005c 0028     		cmp	r0, #0
 4979 005e E4D0     		beq	.L275
 953:Middlewares/lvgl/src/core/lv_obj_pos.c ****             void  * user_data = LV_GC_ROOT(_lv_layout_list)[layout_id -1].user_data;
 4980              		.loc 1 953 39 discriminator 1 view .LVU1443
 4981 0060 084B     		ldr	r3, .L281
 4982 0062 1B68     		ldr	r3, [r3]
 953:Middlewares/lvgl/src/core/lv_obj_pos.c ****             void  * user_data = LV_GC_ROOT(_lv_layout_list)[layout_id -1].user_data;
 4983              		.loc 1 953 26 discriminator 1 view .LVU1444
 4984 0064 8342     		cmp	r3, r0
 4985 0066 E0D3     		bcc	.L275
 4986              	.LBB231:
 954:Middlewares/lvgl/src/core/lv_obj_pos.c ****             LV_GC_ROOT(_lv_layout_list)[layout_id -1].cb(obj, user_data);
 4987              		.loc 1 954 13 is_stmt 1 view .LVU1445
 954:Middlewares/lvgl/src/core/lv_obj_pos.c ****             LV_GC_ROOT(_lv_layout_list)[layout_id -1].cb(obj, user_data);
 4988              		.loc 1 954 60 is_stmt 0 view .LVU1446
 4989 0068 6FF06043 		mvn	r3, #-536870912
 4990 006c 0344     		add	r3, r3, r0
 4991 006e 064A     		ldr	r2, .L281+4
 4992 0070 1268     		ldr	r2, [r2]
 4993 0072 02EBC301 		add	r1, r2, r3, lsl #3
 4994              	.LVL493:
 955:Middlewares/lvgl/src/core/lv_obj_pos.c ****         }
ARM GAS  /tmp/ccnhv9Lg.s 			page 132


 4995              		.loc 1 955 13 is_stmt 1 view .LVU1447
 955:Middlewares/lvgl/src/core/lv_obj_pos.c ****         }
 4996              		.loc 1 955 54 is_stmt 0 view .LVU1448
 4997 0076 52F83330 		ldr	r3, [r2, r3, lsl #3]
 955:Middlewares/lvgl/src/core/lv_obj_pos.c ****         }
 4998              		.loc 1 955 13 view .LVU1449
 4999 007a 4968     		ldr	r1, [r1, #4]
 5000              	.LVL494:
 955:Middlewares/lvgl/src/core/lv_obj_pos.c ****         }
 5001              		.loc 1 955 13 view .LVU1450
 5002 007c 2846     		mov	r0, r5
 5003              	.LVL495:
 955:Middlewares/lvgl/src/core/lv_obj_pos.c ****         }
 5004              		.loc 1 955 13 view .LVU1451
 5005 007e 9847     		blx	r3
 5006              	.LVL496:
 955:Middlewares/lvgl/src/core/lv_obj_pos.c ****         }
 5007              		.loc 1 955 13 view .LVU1452
 5008 0080 D3E7     		b	.L275
 5009              	.L282:
 5010 0082 00BF     		.align	2
 5011              	.L281:
 5012 0084 00000000 		.word	.LANCHOR0
 5013 0088 00000000 		.word	_lv_layout_list
 5014              	.LBE231:
 5015              	.LBE228:
 5016              		.cfi_endproc
 5017              	.LFE196:
 5019              		.section	.text.lv_obj_update_layout,"ax",%progbits
 5020              		.align	1
 5021              		.global	lv_obj_update_layout
 5022              		.syntax unified
 5023              		.thumb
 5024              		.thumb_func
 5026              	lv_obj_update_layout:
 5027              	.LVL497:
 5028              	.LFB165:
 290:Middlewares/lvgl/src/core/lv_obj_pos.c ****     static bool mutex = false;
 5029              		.loc 1 290 1 is_stmt 1 view -0
 5030              		.cfi_startproc
 5031              		@ args = 0, pretend = 0, frame = 0
 5032              		@ frame_needed = 0, uses_anonymous_args = 0
 291:Middlewares/lvgl/src/core/lv_obj_pos.c ****     if(mutex) {
 5033              		.loc 1 291 5 view .LVU1454
 292:Middlewares/lvgl/src/core/lv_obj_pos.c ****         LV_LOG_TRACE("Already running, returning")
 5034              		.loc 1 292 5 view .LVU1455
 292:Middlewares/lvgl/src/core/lv_obj_pos.c ****         LV_LOG_TRACE("Already running, returning")
 5035              		.loc 1 292 8 is_stmt 0 view .LVU1456
 5036 0000 0E4B     		ldr	r3, .L292
 5037 0002 1B78     		ldrb	r3, [r3]	@ zero_extendqisi2
 292:Middlewares/lvgl/src/core/lv_obj_pos.c ****         LV_LOG_TRACE("Already running, returning")
 5038              		.loc 1 292 7 view .LVU1457
 5039 0004 03B1     		cbz	r3, .L291
 5040 0006 7047     		bx	lr
 5041              	.L291:
 290:Middlewares/lvgl/src/core/lv_obj_pos.c ****     static bool mutex = false;
 5042              		.loc 1 290 1 view .LVU1458
ARM GAS  /tmp/ccnhv9Lg.s 			page 133


 5043 0008 10B5     		push	{r4, lr}
 5044              	.LCFI79:
 5045              		.cfi_def_cfa_offset 8
 5046              		.cfi_offset 4, -8
 5047              		.cfi_offset 14, -4
 296:Middlewares/lvgl/src/core/lv_obj_pos.c **** 
 5048              		.loc 1 296 5 is_stmt 1 view .LVU1459
 296:Middlewares/lvgl/src/core/lv_obj_pos.c **** 
 5049              		.loc 1 296 11 is_stmt 0 view .LVU1460
 5050 000a 0C4B     		ldr	r3, .L292
 5051 000c 0122     		movs	r2, #1
 5052 000e 1A70     		strb	r2, [r3]
 298:Middlewares/lvgl/src/core/lv_obj_pos.c **** 
 5053              		.loc 1 298 5 is_stmt 1 view .LVU1461
 298:Middlewares/lvgl/src/core/lv_obj_pos.c **** 
 5054              		.loc 1 298 22 is_stmt 0 view .LVU1462
 5055 0010 FFF7FEFF 		bl	lv_obj_get_screen
 5056              	.LVL498:
 298:Middlewares/lvgl/src/core/lv_obj_pos.c **** 
 5057              		.loc 1 298 22 view .LVU1463
 5058 0014 0446     		mov	r4, r0
 5059              	.LVL499:
 301:Middlewares/lvgl/src/core/lv_obj_pos.c ****         LV_LOG_INFO("Layout update begin")
 5060              		.loc 1 301 5 is_stmt 1 view .LVU1464
 301:Middlewares/lvgl/src/core/lv_obj_pos.c ****         LV_LOG_INFO("Layout update begin")
 5061              		.loc 1 301 10 is_stmt 0 view .LVU1465
 5062 0016 08E0     		b	.L285
 5063              	.LVL500:
 5064              	.L286:
 303:Middlewares/lvgl/src/core/lv_obj_pos.c ****         layout_update_core(scr);
 5065              		.loc 1 303 9 is_stmt 1 view .LVU1466
 303:Middlewares/lvgl/src/core/lv_obj_pos.c ****         layout_update_core(scr);
 5066              		.loc 1 303 29 is_stmt 0 view .LVU1467
 5067 0018 94F82230 		ldrb	r3, [r4, #34]	@ zero_extendqisi2
 5068 001c 6FF34103 		bfc	r3, #1, #1
 5069 0020 84F82230 		strb	r3, [r4, #34]
 304:Middlewares/lvgl/src/core/lv_obj_pos.c ****         LV_LOG_TRACE("Layout update end")
 5070              		.loc 1 304 9 is_stmt 1 view .LVU1468
 5071 0024 2046     		mov	r0, r4
 5072 0026 FFF7FEFF 		bl	layout_update_core
 5073              	.LVL501:
 5074              	.L285:
 301:Middlewares/lvgl/src/core/lv_obj_pos.c ****         LV_LOG_INFO("Layout update begin")
 5075              		.loc 1 301 10 view .LVU1469
 301:Middlewares/lvgl/src/core/lv_obj_pos.c ****         LV_LOG_INFO("Layout update begin")
 5076              		.loc 1 301 11 is_stmt 0 view .LVU1470
 5077 002a 94F82230 		ldrb	r3, [r4, #34]	@ zero_extendqisi2
 301:Middlewares/lvgl/src/core/lv_obj_pos.c ****         LV_LOG_INFO("Layout update begin")
 5078              		.loc 1 301 10 view .LVU1471
 5079 002e 13F0020F 		tst	r3, #2
 5080 0032 F1D1     		bne	.L286
 308:Middlewares/lvgl/src/core/lv_obj_pos.c **** }
 5081              		.loc 1 308 5 is_stmt 1 view .LVU1472
 308:Middlewares/lvgl/src/core/lv_obj_pos.c **** }
 5082              		.loc 1 308 11 is_stmt 0 view .LVU1473
 5083 0034 014B     		ldr	r3, .L292
 5084 0036 0022     		movs	r2, #0
ARM GAS  /tmp/ccnhv9Lg.s 			page 134


 5085 0038 1A70     		strb	r2, [r3]
 309:Middlewares/lvgl/src/core/lv_obj_pos.c **** 
 5086              		.loc 1 309 1 view .LVU1474
 5087 003a 10BD     		pop	{r4, pc}
 5088              	.LVL502:
 5089              	.L293:
 309:Middlewares/lvgl/src/core/lv_obj_pos.c **** 
 5090              		.loc 1 309 1 view .LVU1475
 5091              		.align	2
 5092              	.L292:
 5093 003c 00000000 		.word	.LANCHOR1
 5094              		.cfi_endproc
 5095              	.LFE165:
 5097              		.section	.text.lv_obj_align_to,"ax",%progbits
 5098              		.align	1
 5099              		.global	lv_obj_align_to
 5100              		.syntax unified
 5101              		.thumb
 5102              		.thumb_func
 5104              	lv_obj_align_to:
 5105              	.LVL503:
 5106              	.LFB169:
 334:Middlewares/lvgl/src/core/lv_obj_pos.c ****     LV_ASSERT_OBJ(obj, MY_CLASS);
 5107              		.loc 1 334 1 is_stmt 1 view -0
 5108              		.cfi_startproc
 5109              		@ args = 4, pretend = 0, frame = 16
 5110              		@ frame_needed = 0, uses_anonymous_args = 0
 334:Middlewares/lvgl/src/core/lv_obj_pos.c ****     LV_ASSERT_OBJ(obj, MY_CLASS);
 5111              		.loc 1 334 1 is_stmt 0 view .LVU1477
 5112 0000 2DE9F04F 		push	{r4, r5, r6, r7, r8, r9, r10, fp, lr}
 5113              	.LCFI80:
 5114              		.cfi_def_cfa_offset 36
 5115              		.cfi_offset 4, -36
 5116              		.cfi_offset 5, -32
 5117              		.cfi_offset 6, -28
 5118              		.cfi_offset 7, -24
 5119              		.cfi_offset 8, -20
 5120              		.cfi_offset 9, -16
 5121              		.cfi_offset 10, -12
 5122              		.cfi_offset 11, -8
 5123              		.cfi_offset 14, -4
 5124 0004 85B0     		sub	sp, sp, #20
 5125              	.LCFI81:
 5126              		.cfi_def_cfa_offset 56
 5127 0006 8046     		mov	r8, r0
 5128 0008 0D46     		mov	r5, r1
 5129 000a 9346     		mov	fp, r2
 5130 000c 0193     		str	r3, [sp, #4]
 335:Middlewares/lvgl/src/core/lv_obj_pos.c **** 
 5131              		.loc 1 335 5 is_stmt 1 view .LVU1478
 335:Middlewares/lvgl/src/core/lv_obj_pos.c **** 
 5132              		.loc 1 335 5 view .LVU1479
 335:Middlewares/lvgl/src/core/lv_obj_pos.c **** 
 5133              		.loc 1 335 5 view .LVU1480
 337:Middlewares/lvgl/src/core/lv_obj_pos.c ****     if(base == NULL) base = lv_obj_get_parent(obj);
 5134              		.loc 1 337 5 view .LVU1481
 5135 000e FFF7FEFF 		bl	lv_obj_update_layout
ARM GAS  /tmp/ccnhv9Lg.s 			page 135


 5136              	.LVL504:
 338:Middlewares/lvgl/src/core/lv_obj_pos.c **** 
 5137              		.loc 1 338 5 view .LVU1482
 338:Middlewares/lvgl/src/core/lv_obj_pos.c **** 
 5138              		.loc 1 338 7 is_stmt 0 view .LVU1483
 5139 0012 002D     		cmp	r5, #0
 5140 0014 5AD0     		beq	.L341
 5141              	.L295:
 340:Middlewares/lvgl/src/core/lv_obj_pos.c **** 
 5142              		.loc 1 340 5 is_stmt 1 view .LVU1484
 340:Middlewares/lvgl/src/core/lv_obj_pos.c **** 
 5143              		.loc 1 340 5 view .LVU1485
 340:Middlewares/lvgl/src/core/lv_obj_pos.c **** 
 5144              		.loc 1 340 5 view .LVU1486
 342:Middlewares/lvgl/src/core/lv_obj_pos.c ****     lv_coord_t y = 0;
 5145              		.loc 1 342 5 view .LVU1487
 5146              	.LVL505:
 343:Middlewares/lvgl/src/core/lv_obj_pos.c **** 
 5147              		.loc 1 343 5 view .LVU1488
 345:Middlewares/lvgl/src/core/lv_obj_pos.c ****     lv_coord_t pborder = lv_obj_get_style_border_width(parent, LV_PART_MAIN);
 5148              		.loc 1 345 5 view .LVU1489
 345:Middlewares/lvgl/src/core/lv_obj_pos.c ****     lv_coord_t pborder = lv_obj_get_style_border_width(parent, LV_PART_MAIN);
 5149              		.loc 1 345 25 is_stmt 0 view .LVU1490
 5150 0016 4046     		mov	r0, r8
 5151 0018 FFF7FEFF 		bl	lv_obj_get_parent
 5152              	.LVL506:
 5153 001c 0746     		mov	r7, r0
 5154              	.LVL507:
 346:Middlewares/lvgl/src/core/lv_obj_pos.c ****     lv_coord_t pleft = lv_obj_get_style_pad_left(parent, LV_PART_MAIN) + pborder;
 5155              		.loc 1 346 5 is_stmt 1 view .LVU1491
 5156              	.LBB232:
 5157              	.LBI232:
 295:Middlewares/lvgl/src/core/lv_obj_style_gen.h **** {
 5158              		.loc 2 295 26 view .LVU1492
 5159              	.LBB233:
 297:Middlewares/lvgl/src/core/lv_obj_style_gen.h ****     return (lv_coord_t)v.num;
 5160              		.loc 2 297 5 view .LVU1493
 297:Middlewares/lvgl/src/core/lv_obj_style_gen.h ****     return (lv_coord_t)v.num;
 5161              		.loc 2 297 26 is_stmt 0 view .LVU1494
 5162 001e 41F23202 		movw	r2, #4146
 5163 0022 0021     		movs	r1, #0
 5164 0024 FFF7FEFF 		bl	lv_obj_get_style_prop
 5165              	.LVL508:
 297:Middlewares/lvgl/src/core/lv_obj_style_gen.h ****     return (lv_coord_t)v.num;
 5166              		.loc 2 297 26 view .LVU1495
 5167 0028 0446     		mov	r4, r0
 5168              	.LVL509:
 5169              		.loc 2 298 5 is_stmt 1 view .LVU1496
 5170              		.loc 2 298 5 is_stmt 0 view .LVU1497
 5171              	.LBE233:
 5172              	.LBE232:
 347:Middlewares/lvgl/src/core/lv_obj_pos.c ****     lv_coord_t ptop = lv_obj_get_style_pad_top(parent, LV_PART_MAIN) + pborder;
 5173              		.loc 1 347 5 is_stmt 1 view .LVU1498
 5174              	.LBB234:
 5175              	.LBI234:
 103:Middlewares/lvgl/src/core/lv_obj_style_gen.h **** {
 5176              		.loc 2 103 26 view .LVU1499
ARM GAS  /tmp/ccnhv9Lg.s 			page 136


 5177              	.LBB235:
 105:Middlewares/lvgl/src/core/lv_obj_style_gen.h ****     return (lv_coord_t)v.num;
 5178              		.loc 2 105 5 view .LVU1500
 105:Middlewares/lvgl/src/core/lv_obj_style_gen.h ****     return (lv_coord_t)v.num;
 5179              		.loc 2 105 26 is_stmt 0 view .LVU1501
 5180 002a 41F21202 		movw	r2, #4114
 5181 002e 0021     		movs	r1, #0
 5182 0030 3846     		mov	r0, r7
 5183 0032 FFF7FEFF 		bl	lv_obj_get_style_prop
 5184              	.LVL510:
 106:Middlewares/lvgl/src/core/lv_obj_style_gen.h **** }
 5185              		.loc 2 106 5 is_stmt 1 view .LVU1502
 106:Middlewares/lvgl/src/core/lv_obj_style_gen.h **** }
 5186              		.loc 2 106 5 is_stmt 0 view .LVU1503
 5187              	.LBE235:
 5188              	.LBE234:
 347:Middlewares/lvgl/src/core/lv_obj_pos.c ****     lv_coord_t ptop = lv_obj_get_style_pad_top(parent, LV_PART_MAIN) + pborder;
 5189              		.loc 1 347 72 view .LVU1504
 5190 0036 A4B2     		uxth	r4, r4
 347:Middlewares/lvgl/src/core/lv_obj_pos.c ****     lv_coord_t ptop = lv_obj_get_style_pad_top(parent, LV_PART_MAIN) + pborder;
 5191              		.loc 1 347 72 view .LVU1505
 5192 0038 14FA80FA 		uxtah	r10, r4, r0
 347:Middlewares/lvgl/src/core/lv_obj_pos.c ****     lv_coord_t ptop = lv_obj_get_style_pad_top(parent, LV_PART_MAIN) + pborder;
 5193              		.loc 1 347 16 view .LVU1506
 5194 003c 0FFA8AFA 		sxth	r10, r10
 5195              	.LVL511:
 348:Middlewares/lvgl/src/core/lv_obj_pos.c **** 
 5196              		.loc 1 348 5 is_stmt 1 view .LVU1507
 5197              	.LBB236:
 5198              	.LBI236:
  91:Middlewares/lvgl/src/core/lv_obj_style_gen.h **** {
 5199              		.loc 2 91 26 view .LVU1508
 5200              	.LBB237:
  93:Middlewares/lvgl/src/core/lv_obj_style_gen.h ****     return (lv_coord_t)v.num;
 5201              		.loc 2 93 5 view .LVU1509
  93:Middlewares/lvgl/src/core/lv_obj_style_gen.h ****     return (lv_coord_t)v.num;
 5202              		.loc 2 93 26 is_stmt 0 view .LVU1510
 5203 0040 41F21002 		movw	r2, #4112
 5204 0044 0021     		movs	r1, #0
 5205 0046 3846     		mov	r0, r7
 5206 0048 FFF7FEFF 		bl	lv_obj_get_style_prop
 5207              	.LVL512:
  94:Middlewares/lvgl/src/core/lv_obj_style_gen.h **** }
 5208              		.loc 2 94 5 is_stmt 1 view .LVU1511
  94:Middlewares/lvgl/src/core/lv_obj_style_gen.h **** }
 5209              		.loc 2 94 5 is_stmt 0 view .LVU1512
 5210              	.LBE237:
 5211              	.LBE236:
 348:Middlewares/lvgl/src/core/lv_obj_pos.c **** 
 5212              		.loc 1 348 70 view .LVU1513
 5213 004c 14FA80F9 		uxtah	r9, r4, r0
 348:Middlewares/lvgl/src/core/lv_obj_pos.c **** 
 5214              		.loc 1 348 16 view .LVU1514
 5215 0050 0FFA89F9 		sxth	r9, r9
 5216              	.LVL513:
 350:Middlewares/lvgl/src/core/lv_obj_pos.c ****     lv_coord_t bleft = lv_obj_get_style_pad_left(base, LV_PART_MAIN) + bborder;
 5217              		.loc 1 350 5 is_stmt 1 view .LVU1515
ARM GAS  /tmp/ccnhv9Lg.s 			page 137


 5218              	.LBB238:
 5219              	.LBI238:
 295:Middlewares/lvgl/src/core/lv_obj_style_gen.h **** {
 5220              		.loc 2 295 26 view .LVU1516
 5221              	.LBB239:
 297:Middlewares/lvgl/src/core/lv_obj_style_gen.h ****     return (lv_coord_t)v.num;
 5222              		.loc 2 297 5 view .LVU1517
 297:Middlewares/lvgl/src/core/lv_obj_style_gen.h ****     return (lv_coord_t)v.num;
 5223              		.loc 2 297 26 is_stmt 0 view .LVU1518
 5224 0054 41F23202 		movw	r2, #4146
 5225 0058 0021     		movs	r1, #0
 5226 005a 2846     		mov	r0, r5
 5227 005c FFF7FEFF 		bl	lv_obj_get_style_prop
 5228              	.LVL514:
 5229 0060 0646     		mov	r6, r0
 5230              	.LVL515:
 5231              		.loc 2 298 5 is_stmt 1 view .LVU1519
 5232              		.loc 2 298 5 is_stmt 0 view .LVU1520
 5233              	.LBE239:
 5234              	.LBE238:
 351:Middlewares/lvgl/src/core/lv_obj_pos.c ****     lv_coord_t btop = lv_obj_get_style_pad_top(base, LV_PART_MAIN) + bborder;
 5235              		.loc 1 351 5 is_stmt 1 view .LVU1521
 5236              	.LBB240:
 5237              	.LBI240:
 103:Middlewares/lvgl/src/core/lv_obj_style_gen.h **** {
 5238              		.loc 2 103 26 view .LVU1522
 5239              	.LBB241:
 105:Middlewares/lvgl/src/core/lv_obj_style_gen.h ****     return (lv_coord_t)v.num;
 5240              		.loc 2 105 5 view .LVU1523
 105:Middlewares/lvgl/src/core/lv_obj_style_gen.h ****     return (lv_coord_t)v.num;
 5241              		.loc 2 105 26 is_stmt 0 view .LVU1524
 5242 0062 41F21202 		movw	r2, #4114
 5243 0066 0021     		movs	r1, #0
 5244 0068 2846     		mov	r0, r5
 5245 006a FFF7FEFF 		bl	lv_obj_get_style_prop
 5246              	.LVL516:
 106:Middlewares/lvgl/src/core/lv_obj_style_gen.h **** }
 5247              		.loc 2 106 5 is_stmt 1 view .LVU1525
 106:Middlewares/lvgl/src/core/lv_obj_style_gen.h **** }
 5248              		.loc 2 106 5 is_stmt 0 view .LVU1526
 5249              	.LBE241:
 5250              	.LBE240:
 351:Middlewares/lvgl/src/core/lv_obj_pos.c ****     lv_coord_t btop = lv_obj_get_style_pad_top(base, LV_PART_MAIN) + bborder;
 5251              		.loc 1 351 70 view .LVU1527
 5252 006e B6B2     		uxth	r6, r6
 351:Middlewares/lvgl/src/core/lv_obj_pos.c ****     lv_coord_t btop = lv_obj_get_style_pad_top(base, LV_PART_MAIN) + bborder;
 5253              		.loc 1 351 70 view .LVU1528
 5254 0070 16FA80F0 		uxtah	r0, r6, r0
 5255 0074 83B2     		uxth	r3, r0
 5256 0076 0293     		str	r3, [sp, #8]
 351:Middlewares/lvgl/src/core/lv_obj_pos.c ****     lv_coord_t btop = lv_obj_get_style_pad_top(base, LV_PART_MAIN) + bborder;
 5257              		.loc 1 351 16 view .LVU1529
 5258 0078 04B2     		sxth	r4, r0
 5259              	.LVL517:
 352:Middlewares/lvgl/src/core/lv_obj_pos.c **** 
 5260              		.loc 1 352 5 is_stmt 1 view .LVU1530
 5261              	.LBB242:
ARM GAS  /tmp/ccnhv9Lg.s 			page 138


 5262              	.LBI242:
  91:Middlewares/lvgl/src/core/lv_obj_style_gen.h **** {
 5263              		.loc 2 91 26 view .LVU1531
 5264              	.LBB243:
  93:Middlewares/lvgl/src/core/lv_obj_style_gen.h ****     return (lv_coord_t)v.num;
 5265              		.loc 2 93 5 view .LVU1532
  93:Middlewares/lvgl/src/core/lv_obj_style_gen.h ****     return (lv_coord_t)v.num;
 5266              		.loc 2 93 26 is_stmt 0 view .LVU1533
 5267 007a 41F21002 		movw	r2, #4112
 5268 007e 0021     		movs	r1, #0
 5269 0080 2846     		mov	r0, r5
 5270 0082 FFF7FEFF 		bl	lv_obj_get_style_prop
 5271              	.LVL518:
  94:Middlewares/lvgl/src/core/lv_obj_style_gen.h **** }
 5272              		.loc 2 94 5 is_stmt 1 view .LVU1534
  94:Middlewares/lvgl/src/core/lv_obj_style_gen.h **** }
 5273              		.loc 2 94 5 is_stmt 0 view .LVU1535
 5274              	.LBE243:
 5275              	.LBE242:
 352:Middlewares/lvgl/src/core/lv_obj_pos.c **** 
 5276              		.loc 1 352 68 view .LVU1536
 5277 0086 16FA80F6 		uxtah	r6, r6, r0
 5278              	.LVL519:
 352:Middlewares/lvgl/src/core/lv_obj_pos.c **** 
 5279              		.loc 1 352 68 view .LVU1537
 5280 008a B3B2     		uxth	r3, r6
 5281 008c 0393     		str	r3, [sp, #12]
 352:Middlewares/lvgl/src/core/lv_obj_pos.c **** 
 5282              		.loc 1 352 16 view .LVU1538
 5283 008e 36B2     		sxth	r6, r6
 5284              	.LVL520:
 354:Middlewares/lvgl/src/core/lv_obj_pos.c ****         if(lv_obj_get_style_base_dir(base, LV_PART_MAIN) == LV_BASE_DIR_RTL) align = LV_ALIGN_TOP_R
 5285              		.loc 1 354 5 is_stmt 1 view .LVU1539
 354:Middlewares/lvgl/src/core/lv_obj_pos.c ****         if(lv_obj_get_style_base_dir(base, LV_PART_MAIN) == LV_BASE_DIR_RTL) align = LV_ALIGN_TOP_R
 5286              		.loc 1 354 7 is_stmt 0 view .LVU1540
 5287 0090 BBF1000F 		cmp	fp, #0
 5288 0094 1FD0     		beq	.L342
 5289              	.LVL521:
 359:Middlewares/lvgl/src/core/lv_obj_pos.c ****     case LV_ALIGN_CENTER:
 5290              		.loc 1 359 5 is_stmt 1 view .LVU1541
 5291 0096 0BF1FF32 		add	r2, fp, #-1
 5292 009a 142A     		cmp	r2, #20
 5293 009c 52D8     		bhi	.L299
 5294 009e DFE812F0 		tbh	[pc, r2, lsl #1]
 5295              	.L301:
 5296 00a2 2300     		.2byte	(.L298-.L301)/2
 5297 00a4 8500     		.2byte	(.L319-.L301)/2
 5298 00a6 9E00     		.2byte	(.L297-.L301)/2
 5299 00a8 AC00     		.2byte	(.L318-.L301)/2
 5300 00aa BA00     		.2byte	(.L317-.L301)/2
 5301 00ac E000     		.2byte	(.L316-.L301)/2
 5302 00ae FB00     		.2byte	(.L315-.L301)/2
 5303 00b0 1401     		.2byte	(.L314-.L301)/2
 5304 00b2 5400     		.2byte	(.L313-.L301)/2
 5305 00b4 3A01     		.2byte	(.L312-.L301)/2
 5306 00b6 4201     		.2byte	(.L311-.L301)/2
 5307 00b8 5E01     		.2byte	(.L310-.L301)/2
ARM GAS  /tmp/ccnhv9Lg.s 			page 139


 5308 00ba 6F01     		.2byte	(.L309-.L301)/2
 5309 00bc 7501     		.2byte	(.L308-.L301)/2
 5310 00be 8F01     		.2byte	(.L307-.L301)/2
 5311 00c0 9E01     		.2byte	(.L306-.L301)/2
 5312 00c2 A601     		.2byte	(.L305-.L301)/2
 5313 00c4 C201     		.2byte	(.L304-.L301)/2
 5314 00c6 D301     		.2byte	(.L303-.L301)/2
 5315 00c8 D901     		.2byte	(.L302-.L301)/2
 5316 00ca F301     		.2byte	(.L300-.L301)/2
 5317              	.LVL522:
 5318              		.p2align 1
 5319              	.L341:
 338:Middlewares/lvgl/src/core/lv_obj_pos.c **** 
 5320              		.loc 1 338 22 discriminator 1 view .LVU1542
 338:Middlewares/lvgl/src/core/lv_obj_pos.c **** 
 5321              		.loc 1 338 29 is_stmt 0 discriminator 1 view .LVU1543
 5322 00cc 4046     		mov	r0, r8
 5323 00ce FFF7FEFF 		bl	lv_obj_get_parent
 5324              	.LVL523:
 5325 00d2 0546     		mov	r5, r0
 5326              	.LVL524:
 338:Middlewares/lvgl/src/core/lv_obj_pos.c **** 
 5327              		.loc 1 338 29 discriminator 1 view .LVU1544
 5328 00d4 9FE7     		b	.L295
 5329              	.LVL525:
 5330              	.L342:
 355:Middlewares/lvgl/src/core/lv_obj_pos.c ****         else align = LV_ALIGN_TOP_LEFT;
 5331              		.loc 1 355 9 is_stmt 1 view .LVU1545
 5332              	.LBB244:
 5333              	.LBI244:
 187:Middlewares/lvgl/src/core/lv_obj_style_gen.h **** {
 5334              		.loc 2 187 29 view .LVU1546
 5335              	.LBB245:
 189:Middlewares/lvgl/src/core/lv_obj_style_gen.h ****     return (lv_base_dir_t)v.num;
 5336              		.loc 2 189 5 view .LVU1547
 189:Middlewares/lvgl/src/core/lv_obj_style_gen.h ****     return (lv_base_dir_t)v.num;
 5337              		.loc 2 189 26 is_stmt 0 view .LVU1548
 5338 00d6 41F26A42 		movw	r2, #5226
 5339 00da 0021     		movs	r1, #0
 5340 00dc 2846     		mov	r0, r5
 5341 00de FFF7FEFF 		bl	lv_obj_get_style_prop
 5342              	.LVL526:
 190:Middlewares/lvgl/src/core/lv_obj_style_gen.h **** }
 5343              		.loc 2 190 5 is_stmt 1 view .LVU1549
 190:Middlewares/lvgl/src/core/lv_obj_style_gen.h **** }
 5344              		.loc 2 190 12 is_stmt 0 view .LVU1550
 5345 00e2 C0B2     		uxtb	r0, r0
 5346              	.LVL527:
 190:Middlewares/lvgl/src/core/lv_obj_style_gen.h **** }
 5347              		.loc 2 190 12 view .LVU1551
 5348              	.LBE245:
 5349              	.LBE244:
 355:Middlewares/lvgl/src/core/lv_obj_pos.c ****         else align = LV_ALIGN_TOP_LEFT;
 5350              		.loc 1 355 11 view .LVU1552
 5351 00e4 0128     		cmp	r0, #1
 5352 00e6 7AD0     		beq	.L297
 5353              	.LVL528:
ARM GAS  /tmp/ccnhv9Lg.s 			page 140


 5354              	.L298:
 463:Middlewares/lvgl/src/core/lv_obj_pos.c ****     y += y_ofs + base->coords.y1 - parent->coords.y1 + lv_obj_get_scroll_top(parent) - ptop;
 5355              		.loc 1 463 5 is_stmt 1 view .LVU1553
 463:Middlewares/lvgl/src/core/lv_obj_pos.c ****     y += y_ofs + base->coords.y1 - parent->coords.y1 + lv_obj_get_scroll_top(parent) - ptop;
 5356              		.loc 1 463 30 is_stmt 0 view .LVU1554
 5357 00e8 B5F914B0 		ldrsh	fp, [r5, #20]
 463:Middlewares/lvgl/src/core/lv_obj_pos.c ****     y += y_ofs + base->coords.y1 - parent->coords.y1 + lv_obj_get_scroll_top(parent) - ptop;
 5358              		.loc 1 463 16 view .LVU1555
 5359 00ec 019B     		ldr	r3, [sp, #4]
 5360 00ee 5B44     		add	r3, r3, fp
 5361 00f0 9B46     		mov	fp, r3
 463:Middlewares/lvgl/src/core/lv_obj_pos.c ****     y += y_ofs + base->coords.y1 - parent->coords.y1 + lv_obj_get_scroll_top(parent) - ptop;
 5362              		.loc 1 463 50 view .LVU1556
 5363 00f2 B7F91430 		ldrsh	r3, [r7, #20]
 463:Middlewares/lvgl/src/core/lv_obj_pos.c ****     y += y_ofs + base->coords.y1 - parent->coords.y1 + lv_obj_get_scroll_top(parent) - ptop;
 5364              		.loc 1 463 34 view .LVU1557
 5365 00f6 ABEB030B 		sub	fp, fp, r3
 463:Middlewares/lvgl/src/core/lv_obj_pos.c ****     y += y_ofs + base->coords.y1 - parent->coords.y1 + lv_obj_get_scroll_top(parent) - ptop;
 5366              		.loc 1 463 56 view .LVU1558
 5367 00fa 3846     		mov	r0, r7
 5368 00fc FFF7FEFF 		bl	lv_obj_get_scroll_left
 5369              	.LVL529:
 463:Middlewares/lvgl/src/core/lv_obj_pos.c ****     y += y_ofs + base->coords.y1 - parent->coords.y1 + lv_obj_get_scroll_top(parent) - ptop;
 5370              		.loc 1 463 54 view .LVU1559
 5371 0100 8344     		add	fp, fp, r0
 463:Middlewares/lvgl/src/core/lv_obj_pos.c ****     y += y_ofs + base->coords.y1 - parent->coords.y1 + lv_obj_get_scroll_top(parent) - ptop;
 5372              		.loc 1 463 87 view .LVU1560
 5373 0102 ABEB0A0A 		sub	r10, fp, r10
 5374              	.LVL530:
 463:Middlewares/lvgl/src/core/lv_obj_pos.c ****     y += y_ofs + base->coords.y1 - parent->coords.y1 + lv_obj_get_scroll_top(parent) - ptop;
 5375              		.loc 1 463 7 view .LVU1561
 5376 0106 5444     		add	r4, r4, r10
 5377              	.LVL531:
 463:Middlewares/lvgl/src/core/lv_obj_pos.c ****     y += y_ofs + base->coords.y1 - parent->coords.y1 + lv_obj_get_scroll_top(parent) - ptop;
 5378              		.loc 1 463 7 view .LVU1562
 5379 0108 24B2     		sxth	r4, r4
 5380              	.LVL532:
 464:Middlewares/lvgl/src/core/lv_obj_pos.c ****     lv_obj_set_style_align(obj, LV_ALIGN_TOP_LEFT, 0);
 5381              		.loc 1 464 5 is_stmt 1 view .LVU1563
 464:Middlewares/lvgl/src/core/lv_obj_pos.c ****     lv_obj_set_style_align(obj, LV_ALIGN_TOP_LEFT, 0);
 5382              		.loc 1 464 30 is_stmt 0 view .LVU1564
 5383 010a B5F91630 		ldrsh	r3, [r5, #22]
 464:Middlewares/lvgl/src/core/lv_obj_pos.c ****     lv_obj_set_style_align(obj, LV_ALIGN_TOP_LEFT, 0);
 5384              		.loc 1 464 16 view .LVU1565
 5385 010e BDF93850 		ldrsh	r5, [sp, #56]
 5386              	.LVL533:
 464:Middlewares/lvgl/src/core/lv_obj_pos.c ****     lv_obj_set_style_align(obj, LV_ALIGN_TOP_LEFT, 0);
 5387              		.loc 1 464 16 view .LVU1566
 5388 0112 1D44     		add	r5, r5, r3
 464:Middlewares/lvgl/src/core/lv_obj_pos.c ****     lv_obj_set_style_align(obj, LV_ALIGN_TOP_LEFT, 0);
 5389              		.loc 1 464 50 view .LVU1567
 5390 0114 B7F91630 		ldrsh	r3, [r7, #22]
 464:Middlewares/lvgl/src/core/lv_obj_pos.c ****     lv_obj_set_style_align(obj, LV_ALIGN_TOP_LEFT, 0);
 5391              		.loc 1 464 34 view .LVU1568
 5392 0118 ED1A     		subs	r5, r5, r3
 464:Middlewares/lvgl/src/core/lv_obj_pos.c ****     lv_obj_set_style_align(obj, LV_ALIGN_TOP_LEFT, 0);
 5393              		.loc 1 464 56 view .LVU1569
ARM GAS  /tmp/ccnhv9Lg.s 			page 141


 5394 011a 3846     		mov	r0, r7
 5395 011c FFF7FEFF 		bl	lv_obj_get_scroll_top
 5396              	.LVL534:
 464:Middlewares/lvgl/src/core/lv_obj_pos.c ****     lv_obj_set_style_align(obj, LV_ALIGN_TOP_LEFT, 0);
 5397              		.loc 1 464 54 view .LVU1570
 5398 0120 0544     		add	r5, r5, r0
 464:Middlewares/lvgl/src/core/lv_obj_pos.c ****     lv_obj_set_style_align(obj, LV_ALIGN_TOP_LEFT, 0);
 5399              		.loc 1 464 86 view .LVU1571
 5400 0122 A5EB0909 		sub	r9, r5, r9
 5401              	.LVL535:
 464:Middlewares/lvgl/src/core/lv_obj_pos.c ****     lv_obj_set_style_align(obj, LV_ALIGN_TOP_LEFT, 0);
 5402              		.loc 1 464 7 view .LVU1572
 5403 0126 4E44     		add	r6, r6, r9
 5404              	.LVL536:
 464:Middlewares/lvgl/src/core/lv_obj_pos.c ****     lv_obj_set_style_align(obj, LV_ALIGN_TOP_LEFT, 0);
 5405              		.loc 1 464 7 view .LVU1573
 5406 0128 36B2     		sxth	r6, r6
 5407              	.LVL537:
 465:Middlewares/lvgl/src/core/lv_obj_pos.c ****     lv_obj_set_pos(obj, x, y);
 5408              		.loc 1 465 5 is_stmt 1 view .LVU1574
 5409 012a 0022     		movs	r2, #0
 5410 012c 0121     		movs	r1, #1
 5411 012e 4046     		mov	r0, r8
 5412 0130 FFF7FEFF 		bl	lv_obj_set_style_align
 5413              	.LVL538:
 466:Middlewares/lvgl/src/core/lv_obj_pos.c **** 
 5414              		.loc 1 466 5 view .LVU1575
 5415 0134 3246     		mov	r2, r6
 5416 0136 2146     		mov	r1, r4
 5417 0138 4046     		mov	r0, r8
 5418 013a FFF7FEFF 		bl	lv_obj_set_pos
 5419              	.LVL539:
 468:Middlewares/lvgl/src/core/lv_obj_pos.c **** 
 5420              		.loc 1 468 1 is_stmt 0 view .LVU1576
 5421 013e 05B0     		add	sp, sp, #20
 5422              	.LCFI82:
 5423              		.cfi_remember_state
 5424              		.cfi_def_cfa_offset 36
 5425              		@ sp needed
 5426 0140 BDE8F08F 		pop	{r4, r5, r6, r7, r8, r9, r10, fp, pc}
 5427              	.LVL540:
 5428              	.L299:
 5429              	.LCFI83:
 5430              		.cfi_restore_state
 359:Middlewares/lvgl/src/core/lv_obj_pos.c ****     case LV_ALIGN_CENTER:
 5431              		.loc 1 359 5 view .LVU1577
 5432 0144 0026     		movs	r6, #0
 5433              	.LVL541:
 359:Middlewares/lvgl/src/core/lv_obj_pos.c ****     case LV_ALIGN_CENTER:
 5434              		.loc 1 359 5 view .LVU1578
 5435 0146 3446     		mov	r4, r6
 5436              	.LVL542:
 359:Middlewares/lvgl/src/core/lv_obj_pos.c ****     case LV_ALIGN_CENTER:
 5437              		.loc 1 359 5 view .LVU1579
 5438 0148 CEE7     		b	.L298
 5439              	.LVL543:
 5440              	.L313:
ARM GAS  /tmp/ccnhv9Lg.s 			page 142


 361:Middlewares/lvgl/src/core/lv_obj_pos.c ****         y = lv_obj_get_content_height(base) / 2 - lv_obj_get_height(obj) / 2 + btop;
 5441              		.loc 1 361 9 is_stmt 1 view .LVU1580
 361:Middlewares/lvgl/src/core/lv_obj_pos.c ****         y = lv_obj_get_content_height(base) / 2 - lv_obj_get_height(obj) / 2 + btop;
 5442              		.loc 1 361 13 is_stmt 0 view .LVU1581
 5443 014a 2846     		mov	r0, r5
 5444 014c FFF7FEFF 		bl	lv_obj_get_content_width
 5445              	.LVL544:
 5446 0150 0446     		mov	r4, r0
 5447              	.LVL545:
 361:Middlewares/lvgl/src/core/lv_obj_pos.c ****         y = lv_obj_get_content_height(base) / 2 - lv_obj_get_height(obj) / 2 + btop;
 5448              		.loc 1 361 50 view .LVU1582
 5449 0152 4046     		mov	r0, r8
 5450 0154 FFF7FEFF 		bl	lv_obj_get_width
 5451              	.LVL546:
 361:Middlewares/lvgl/src/core/lv_obj_pos.c ****         y = lv_obj_get_content_height(base) / 2 - lv_obj_get_height(obj) / 2 + btop;
 5452              		.loc 1 361 48 view .LVU1583
 5453 0158 2346     		mov	r3, r4
 5454 015a 002C     		cmp	r4, #0
 5455 015c 1EDB     		blt	.L343
 5456              	.L320:
 5457 015e 5C10     		asrs	r4, r3, #1
 5458 0160 0346     		mov	r3, r0
 5459 0162 0028     		cmp	r0, #0
 5460 0164 1CDB     		blt	.L344
 5461              	.L321:
 5462 0166 A4EB6304 		sub	r4, r4, r3, asr #1
 361:Middlewares/lvgl/src/core/lv_obj_pos.c ****         y = lv_obj_get_content_height(base) / 2 - lv_obj_get_height(obj) / 2 + btop;
 5463              		.loc 1 361 76 view .LVU1584
 5464 016a 029B     		ldr	r3, [sp, #8]
 5465 016c 13FA84F4 		uxtah	r4, r3, r4
 361:Middlewares/lvgl/src/core/lv_obj_pos.c ****         y = lv_obj_get_content_height(base) / 2 - lv_obj_get_height(obj) / 2 + btop;
 5466              		.loc 1 361 11 view .LVU1585
 5467 0170 24B2     		sxth	r4, r4
 5468              	.LVL547:
 362:Middlewares/lvgl/src/core/lv_obj_pos.c ****         break;
 5469              		.loc 1 362 9 is_stmt 1 view .LVU1586
 362:Middlewares/lvgl/src/core/lv_obj_pos.c ****         break;
 5470              		.loc 1 362 13 is_stmt 0 view .LVU1587
 5471 0172 2846     		mov	r0, r5
 5472 0174 FFF7FEFF 		bl	lv_obj_get_content_height
 5473              	.LVL548:
 5474 0178 0646     		mov	r6, r0
 5475              	.LVL549:
 362:Middlewares/lvgl/src/core/lv_obj_pos.c ****         break;
 5476              		.loc 1 362 51 view .LVU1588
 5477 017a 4046     		mov	r0, r8
 5478 017c FFF7FEFF 		bl	lv_obj_get_height
 5479              	.LVL550:
 362:Middlewares/lvgl/src/core/lv_obj_pos.c ****         break;
 5480              		.loc 1 362 49 view .LVU1589
 5481 0180 3346     		mov	r3, r6
 5482 0182 002E     		cmp	r6, #0
 5483 0184 0EDB     		blt	.L345
 5484              	.L322:
 5485 0186 5E10     		asrs	r6, r3, #1
 5486 0188 0346     		mov	r3, r0
 5487 018a 0028     		cmp	r0, #0
ARM GAS  /tmp/ccnhv9Lg.s 			page 143


 5488 018c 0CDB     		blt	.L346
 5489              	.L323:
 5490 018e A6EB6306 		sub	r6, r6, r3, asr #1
 362:Middlewares/lvgl/src/core/lv_obj_pos.c ****         break;
 5491              		.loc 1 362 78 view .LVU1590
 5492 0192 039B     		ldr	r3, [sp, #12]
 5493 0194 13FA86F6 		uxtah	r6, r3, r6
 362:Middlewares/lvgl/src/core/lv_obj_pos.c ****         break;
 5494              		.loc 1 362 11 view .LVU1591
 5495 0198 36B2     		sxth	r6, r6
 5496              	.LVL551:
 363:Middlewares/lvgl/src/core/lv_obj_pos.c ****     case LV_ALIGN_TOP_LEFT:
 5497              		.loc 1 363 9 is_stmt 1 view .LVU1592
 5498 019a A5E7     		b	.L298
 5499              	.LVL552:
 5500              	.L343:
 361:Middlewares/lvgl/src/core/lv_obj_pos.c ****         y = lv_obj_get_content_height(base) / 2 - lv_obj_get_height(obj) / 2 + btop;
 5501              		.loc 1 361 48 is_stmt 0 view .LVU1593
 5502 019c 631C     		adds	r3, r4, #1
 5503 019e DEE7     		b	.L320
 5504              	.L344:
 5505 01a0 431C     		adds	r3, r0, #1
 5506 01a2 E0E7     		b	.L321
 5507              	.LVL553:
 5508              	.L345:
 362:Middlewares/lvgl/src/core/lv_obj_pos.c ****         break;
 5509              		.loc 1 362 49 view .LVU1594
 5510 01a4 731C     		adds	r3, r6, #1
 5511 01a6 EEE7     		b	.L322
 5512              	.L346:
 5513 01a8 431C     		adds	r3, r0, #1
 5514 01aa F0E7     		b	.L323
 5515              	.LVL554:
 5516              	.L319:
 369:Middlewares/lvgl/src/core/lv_obj_pos.c ****         y = btop;
 5517              		.loc 1 369 9 is_stmt 1 view .LVU1595
 369:Middlewares/lvgl/src/core/lv_obj_pos.c ****         y = btop;
 5518              		.loc 1 369 13 is_stmt 0 view .LVU1596
 5519 01ac 2846     		mov	r0, r5
 5520 01ae FFF7FEFF 		bl	lv_obj_get_content_width
 5521              	.LVL555:
 5522 01b2 0446     		mov	r4, r0
 5523              	.LVL556:
 369:Middlewares/lvgl/src/core/lv_obj_pos.c ****         y = btop;
 5524              		.loc 1 369 50 view .LVU1597
 5525 01b4 4046     		mov	r0, r8
 5526 01b6 FFF7FEFF 		bl	lv_obj_get_width
 5527              	.LVL557:
 369:Middlewares/lvgl/src/core/lv_obj_pos.c ****         y = btop;
 5528              		.loc 1 369 48 view .LVU1598
 5529 01ba 2346     		mov	r3, r4
 5530 01bc 002C     		cmp	r4, #0
 5531 01be 0ADB     		blt	.L347
 5532              	.L324:
 5533 01c0 5C10     		asrs	r4, r3, #1
 5534 01c2 0346     		mov	r3, r0
 5535 01c4 0028     		cmp	r0, #0
ARM GAS  /tmp/ccnhv9Lg.s 			page 144


 5536 01c6 08DB     		blt	.L348
 5537              	.L325:
 5538 01c8 A4EB6304 		sub	r4, r4, r3, asr #1
 369:Middlewares/lvgl/src/core/lv_obj_pos.c ****         y = btop;
 5539              		.loc 1 369 76 view .LVU1599
 5540 01cc 029B     		ldr	r3, [sp, #8]
 5541 01ce 13FA84F4 		uxtah	r4, r3, r4
 369:Middlewares/lvgl/src/core/lv_obj_pos.c ****         y = btop;
 5542              		.loc 1 369 11 view .LVU1600
 5543 01d2 24B2     		sxth	r4, r4
 5544              	.LVL558:
 370:Middlewares/lvgl/src/core/lv_obj_pos.c ****         break;
 5545              		.loc 1 370 9 is_stmt 1 view .LVU1601
 371:Middlewares/lvgl/src/core/lv_obj_pos.c **** 
 5546              		.loc 1 371 9 view .LVU1602
 5547 01d4 88E7     		b	.L298
 5548              	.LVL559:
 5549              	.L347:
 369:Middlewares/lvgl/src/core/lv_obj_pos.c ****         y = btop;
 5550              		.loc 1 369 48 is_stmt 0 view .LVU1603
 5551 01d6 631C     		adds	r3, r4, #1
 5552 01d8 F2E7     		b	.L324
 5553              	.L348:
 5554 01da 431C     		adds	r3, r0, #1
 5555 01dc F4E7     		b	.L325
 5556              	.LVL560:
 5557              	.L297:
 374:Middlewares/lvgl/src/core/lv_obj_pos.c ****         y = btop;
 5558              		.loc 1 374 9 is_stmt 1 view .LVU1604
 374:Middlewares/lvgl/src/core/lv_obj_pos.c ****         y = btop;
 5559              		.loc 1 374 13 is_stmt 0 view .LVU1605
 5560 01de 2846     		mov	r0, r5
 5561 01e0 FFF7FEFF 		bl	lv_obj_get_content_width
 5562              	.LVL561:
 5563 01e4 84B2     		uxth	r4, r0
 5564              	.LVL562:
 374:Middlewares/lvgl/src/core/lv_obj_pos.c ****         y = btop;
 5565              		.loc 1 374 46 view .LVU1606
 5566 01e6 4046     		mov	r0, r8
 5567 01e8 FFF7FEFF 		bl	lv_obj_get_width
 5568              	.LVL563:
 5569 01ec 80B2     		uxth	r0, r0
 374:Middlewares/lvgl/src/core/lv_obj_pos.c ****         y = btop;
 5570              		.loc 1 374 44 view .LVU1607
 5571 01ee 241A     		subs	r4, r4, r0
 374:Middlewares/lvgl/src/core/lv_obj_pos.c ****         y = btop;
 5572              		.loc 1 374 68 view .LVU1608
 5573 01f0 029B     		ldr	r3, [sp, #8]
 5574 01f2 13FA84F4 		uxtah	r4, r3, r4
 374:Middlewares/lvgl/src/core/lv_obj_pos.c ****         y = btop;
 5575              		.loc 1 374 11 view .LVU1609
 5576 01f6 24B2     		sxth	r4, r4
 5577              	.LVL564:
 375:Middlewares/lvgl/src/core/lv_obj_pos.c ****         break;
 5578              		.loc 1 375 9 is_stmt 1 view .LVU1610
 376:Middlewares/lvgl/src/core/lv_obj_pos.c **** 
 5579              		.loc 1 376 9 view .LVU1611
ARM GAS  /tmp/ccnhv9Lg.s 			page 145


 5580 01f8 76E7     		b	.L298
 5581              	.LVL565:
 5582              	.L318:
 379:Middlewares/lvgl/src/core/lv_obj_pos.c ****         y = lv_obj_get_content_height(base) - lv_obj_get_height(obj) + btop;
 5583              		.loc 1 379 9 view .LVU1612
 380:Middlewares/lvgl/src/core/lv_obj_pos.c ****         break;
 5584              		.loc 1 380 9 view .LVU1613
 380:Middlewares/lvgl/src/core/lv_obj_pos.c ****         break;
 5585              		.loc 1 380 13 is_stmt 0 view .LVU1614
 5586 01fa 2846     		mov	r0, r5
 5587 01fc FFF7FEFF 		bl	lv_obj_get_content_height
 5588              	.LVL566:
 5589 0200 86B2     		uxth	r6, r0
 5590              	.LVL567:
 380:Middlewares/lvgl/src/core/lv_obj_pos.c ****         break;
 5591              		.loc 1 380 47 view .LVU1615
 5592 0202 4046     		mov	r0, r8
 5593 0204 FFF7FEFF 		bl	lv_obj_get_height
 5594              	.LVL568:
 5595 0208 80B2     		uxth	r0, r0
 380:Middlewares/lvgl/src/core/lv_obj_pos.c ****         break;
 5596              		.loc 1 380 45 view .LVU1616
 5597 020a 361A     		subs	r6, r6, r0
 380:Middlewares/lvgl/src/core/lv_obj_pos.c ****         break;
 5598              		.loc 1 380 70 view .LVU1617
 5599 020c 039B     		ldr	r3, [sp, #12]
 5600 020e 13FA86F6 		uxtah	r6, r3, r6
 380:Middlewares/lvgl/src/core/lv_obj_pos.c ****         break;
 5601              		.loc 1 380 11 view .LVU1618
 5602 0212 36B2     		sxth	r6, r6
 5603              	.LVL569:
 381:Middlewares/lvgl/src/core/lv_obj_pos.c ****     case LV_ALIGN_BOTTOM_MID:
 5604              		.loc 1 381 9 is_stmt 1 view .LVU1619
 5605 0214 68E7     		b	.L298
 5606              	.LVL570:
 5607              	.L317:
 383:Middlewares/lvgl/src/core/lv_obj_pos.c ****         y = lv_obj_get_content_height(base) - lv_obj_get_height(obj) + btop;
 5608              		.loc 1 383 9 view .LVU1620
 383:Middlewares/lvgl/src/core/lv_obj_pos.c ****         y = lv_obj_get_content_height(base) - lv_obj_get_height(obj) + btop;
 5609              		.loc 1 383 13 is_stmt 0 view .LVU1621
 5610 0216 2846     		mov	r0, r5
 5611 0218 FFF7FEFF 		bl	lv_obj_get_content_width
 5612              	.LVL571:
 5613 021c 0446     		mov	r4, r0
 5614              	.LVL572:
 383:Middlewares/lvgl/src/core/lv_obj_pos.c ****         y = lv_obj_get_content_height(base) - lv_obj_get_height(obj) + btop;
 5615              		.loc 1 383 50 view .LVU1622
 5616 021e 4046     		mov	r0, r8
 5617 0220 FFF7FEFF 		bl	lv_obj_get_width
 5618              	.LVL573:
 383:Middlewares/lvgl/src/core/lv_obj_pos.c ****         y = lv_obj_get_content_height(base) - lv_obj_get_height(obj) + btop;
 5619              		.loc 1 383 48 view .LVU1623
 5620 0224 2346     		mov	r3, r4
 5621 0226 002C     		cmp	r4, #0
 5622 0228 17DB     		blt	.L349
 5623              	.L326:
 5624 022a 5C10     		asrs	r4, r3, #1
ARM GAS  /tmp/ccnhv9Lg.s 			page 146


 5625 022c 0346     		mov	r3, r0
 5626 022e 0028     		cmp	r0, #0
 5627 0230 15DB     		blt	.L350
 5628              	.L327:
 5629 0232 A4EB6304 		sub	r4, r4, r3, asr #1
 383:Middlewares/lvgl/src/core/lv_obj_pos.c ****         y = lv_obj_get_content_height(base) - lv_obj_get_height(obj) + btop;
 5630              		.loc 1 383 76 view .LVU1624
 5631 0236 029B     		ldr	r3, [sp, #8]
 5632 0238 13FA84F4 		uxtah	r4, r3, r4
 383:Middlewares/lvgl/src/core/lv_obj_pos.c ****         y = lv_obj_get_content_height(base) - lv_obj_get_height(obj) + btop;
 5633              		.loc 1 383 11 view .LVU1625
 5634 023c 24B2     		sxth	r4, r4
 5635              	.LVL574:
 384:Middlewares/lvgl/src/core/lv_obj_pos.c ****         break;
 5636              		.loc 1 384 9 is_stmt 1 view .LVU1626
 384:Middlewares/lvgl/src/core/lv_obj_pos.c ****         break;
 5637              		.loc 1 384 13 is_stmt 0 view .LVU1627
 5638 023e 2846     		mov	r0, r5
 5639 0240 FFF7FEFF 		bl	lv_obj_get_content_height
 5640              	.LVL575:
 5641 0244 86B2     		uxth	r6, r0
 5642              	.LVL576:
 384:Middlewares/lvgl/src/core/lv_obj_pos.c ****         break;
 5643              		.loc 1 384 47 view .LVU1628
 5644 0246 4046     		mov	r0, r8
 5645 0248 FFF7FEFF 		bl	lv_obj_get_height
 5646              	.LVL577:
 5647 024c 80B2     		uxth	r0, r0
 384:Middlewares/lvgl/src/core/lv_obj_pos.c ****         break;
 5648              		.loc 1 384 45 view .LVU1629
 5649 024e 361A     		subs	r6, r6, r0
 384:Middlewares/lvgl/src/core/lv_obj_pos.c ****         break;
 5650              		.loc 1 384 70 view .LVU1630
 5651 0250 039B     		ldr	r3, [sp, #12]
 5652 0252 13FA86F6 		uxtah	r6, r3, r6
 384:Middlewares/lvgl/src/core/lv_obj_pos.c ****         break;
 5653              		.loc 1 384 11 view .LVU1631
 5654 0256 36B2     		sxth	r6, r6
 5655              	.LVL578:
 385:Middlewares/lvgl/src/core/lv_obj_pos.c **** 
 5656              		.loc 1 385 9 is_stmt 1 view .LVU1632
 5657 0258 46E7     		b	.L298
 5658              	.LVL579:
 5659              	.L349:
 383:Middlewares/lvgl/src/core/lv_obj_pos.c ****         y = lv_obj_get_content_height(base) - lv_obj_get_height(obj) + btop;
 5660              		.loc 1 383 48 is_stmt 0 view .LVU1633
 5661 025a 631C     		adds	r3, r4, #1
 5662 025c E5E7     		b	.L326
 5663              	.L350:
 5664 025e 431C     		adds	r3, r0, #1
 5665 0260 E7E7     		b	.L327
 5666              	.LVL580:
 5667              	.L316:
 388:Middlewares/lvgl/src/core/lv_obj_pos.c ****         y = lv_obj_get_content_height(base) - lv_obj_get_height(obj) + btop;
 5668              		.loc 1 388 9 is_stmt 1 view .LVU1634
 388:Middlewares/lvgl/src/core/lv_obj_pos.c ****         y = lv_obj_get_content_height(base) - lv_obj_get_height(obj) + btop;
 5669              		.loc 1 388 13 is_stmt 0 view .LVU1635
ARM GAS  /tmp/ccnhv9Lg.s 			page 147


 5670 0262 2846     		mov	r0, r5
 5671 0264 FFF7FEFF 		bl	lv_obj_get_content_width
 5672              	.LVL581:
 5673 0268 84B2     		uxth	r4, r0
 5674              	.LVL582:
 388:Middlewares/lvgl/src/core/lv_obj_pos.c ****         y = lv_obj_get_content_height(base) - lv_obj_get_height(obj) + btop;
 5675              		.loc 1 388 46 view .LVU1636
 5676 026a 4046     		mov	r0, r8
 5677 026c FFF7FEFF 		bl	lv_obj_get_width
 5678              	.LVL583:
 5679 0270 80B2     		uxth	r0, r0
 388:Middlewares/lvgl/src/core/lv_obj_pos.c ****         y = lv_obj_get_content_height(base) - lv_obj_get_height(obj) + btop;
 5680              		.loc 1 388 44 view .LVU1637
 5681 0272 241A     		subs	r4, r4, r0
 388:Middlewares/lvgl/src/core/lv_obj_pos.c ****         y = lv_obj_get_content_height(base) - lv_obj_get_height(obj) + btop;
 5682              		.loc 1 388 68 view .LVU1638
 5683 0274 029B     		ldr	r3, [sp, #8]
 5684 0276 13FA84F4 		uxtah	r4, r3, r4
 388:Middlewares/lvgl/src/core/lv_obj_pos.c ****         y = lv_obj_get_content_height(base) - lv_obj_get_height(obj) + btop;
 5685              		.loc 1 388 11 view .LVU1639
 5686 027a 24B2     		sxth	r4, r4
 5687              	.LVL584:
 389:Middlewares/lvgl/src/core/lv_obj_pos.c ****         break;
 5688              		.loc 1 389 9 is_stmt 1 view .LVU1640
 389:Middlewares/lvgl/src/core/lv_obj_pos.c ****         break;
 5689              		.loc 1 389 13 is_stmt 0 view .LVU1641
 5690 027c 2846     		mov	r0, r5
 5691 027e FFF7FEFF 		bl	lv_obj_get_content_height
 5692              	.LVL585:
 5693 0282 86B2     		uxth	r6, r0
 5694              	.LVL586:
 389:Middlewares/lvgl/src/core/lv_obj_pos.c ****         break;
 5695              		.loc 1 389 47 view .LVU1642
 5696 0284 4046     		mov	r0, r8
 5697 0286 FFF7FEFF 		bl	lv_obj_get_height
 5698              	.LVL587:
 5699 028a 80B2     		uxth	r0, r0
 389:Middlewares/lvgl/src/core/lv_obj_pos.c ****         break;
 5700              		.loc 1 389 45 view .LVU1643
 5701 028c 361A     		subs	r6, r6, r0
 389:Middlewares/lvgl/src/core/lv_obj_pos.c ****         break;
 5702              		.loc 1 389 70 view .LVU1644
 5703 028e 039B     		ldr	r3, [sp, #12]
 5704 0290 13FA86F6 		uxtah	r6, r3, r6
 389:Middlewares/lvgl/src/core/lv_obj_pos.c ****         break;
 5705              		.loc 1 389 11 view .LVU1645
 5706 0294 36B2     		sxth	r6, r6
 5707              	.LVL588:
 390:Middlewares/lvgl/src/core/lv_obj_pos.c **** 
 5708              		.loc 1 390 9 is_stmt 1 view .LVU1646
 5709 0296 27E7     		b	.L298
 5710              	.LVL589:
 5711              	.L315:
 393:Middlewares/lvgl/src/core/lv_obj_pos.c ****         y = lv_obj_get_content_height(base) / 2 - lv_obj_get_height(obj) / 2 + btop;
 5712              		.loc 1 393 9 view .LVU1647
 394:Middlewares/lvgl/src/core/lv_obj_pos.c ****         break;
 5713              		.loc 1 394 9 view .LVU1648
ARM GAS  /tmp/ccnhv9Lg.s 			page 148


 394:Middlewares/lvgl/src/core/lv_obj_pos.c ****         break;
 5714              		.loc 1 394 13 is_stmt 0 view .LVU1649
 5715 0298 2846     		mov	r0, r5
 5716 029a FFF7FEFF 		bl	lv_obj_get_content_height
 5717              	.LVL590:
 5718 029e 0646     		mov	r6, r0
 5719              	.LVL591:
 394:Middlewares/lvgl/src/core/lv_obj_pos.c ****         break;
 5720              		.loc 1 394 51 view .LVU1650
 5721 02a0 4046     		mov	r0, r8
 5722 02a2 FFF7FEFF 		bl	lv_obj_get_height
 5723              	.LVL592:
 394:Middlewares/lvgl/src/core/lv_obj_pos.c ****         break;
 5724              		.loc 1 394 49 view .LVU1651
 5725 02a6 3346     		mov	r3, r6
 5726 02a8 002E     		cmp	r6, #0
 5727 02aa 0ADB     		blt	.L351
 5728              	.L328:
 394:Middlewares/lvgl/src/core/lv_obj_pos.c ****         break;
 5729              		.loc 1 394 49 view .LVU1652
 5730 02ac 5E10     		asrs	r6, r3, #1
 5731 02ae 0346     		mov	r3, r0
 5732 02b0 0028     		cmp	r0, #0
 5733 02b2 08DB     		blt	.L352
 5734              	.L329:
 5735 02b4 A6EB6306 		sub	r6, r6, r3, asr #1
 394:Middlewares/lvgl/src/core/lv_obj_pos.c ****         break;
 5736              		.loc 1 394 78 view .LVU1653
 5737 02b8 039B     		ldr	r3, [sp, #12]
 5738 02ba 13FA86F6 		uxtah	r6, r3, r6
 394:Middlewares/lvgl/src/core/lv_obj_pos.c ****         break;
 5739              		.loc 1 394 11 view .LVU1654
 5740 02be 36B2     		sxth	r6, r6
 5741              	.LVL593:
 395:Middlewares/lvgl/src/core/lv_obj_pos.c **** 
 5742              		.loc 1 395 9 is_stmt 1 view .LVU1655
 5743 02c0 12E7     		b	.L298
 5744              	.LVL594:
 5745              	.L351:
 394:Middlewares/lvgl/src/core/lv_obj_pos.c ****         break;
 5746              		.loc 1 394 49 is_stmt 0 view .LVU1656
 5747 02c2 731C     		adds	r3, r6, #1
 5748 02c4 F2E7     		b	.L328
 5749              	.L352:
 394:Middlewares/lvgl/src/core/lv_obj_pos.c ****         break;
 5750              		.loc 1 394 49 view .LVU1657
 5751 02c6 431C     		adds	r3, r0, #1
 5752 02c8 F4E7     		b	.L329
 5753              	.LVL595:
 5754              	.L314:
 398:Middlewares/lvgl/src/core/lv_obj_pos.c ****         y = lv_obj_get_content_height(base) / 2 - lv_obj_get_height(obj) / 2 + btop;
 5755              		.loc 1 398 9 is_stmt 1 view .LVU1658
 398:Middlewares/lvgl/src/core/lv_obj_pos.c ****         y = lv_obj_get_content_height(base) / 2 - lv_obj_get_height(obj) / 2 + btop;
 5756              		.loc 1 398 13 is_stmt 0 view .LVU1659
 5757 02ca 2846     		mov	r0, r5
 5758 02cc FFF7FEFF 		bl	lv_obj_get_content_width
 5759              	.LVL596:
ARM GAS  /tmp/ccnhv9Lg.s 			page 149


 5760 02d0 84B2     		uxth	r4, r0
 5761              	.LVL597:
 398:Middlewares/lvgl/src/core/lv_obj_pos.c ****         y = lv_obj_get_content_height(base) / 2 - lv_obj_get_height(obj) / 2 + btop;
 5762              		.loc 1 398 46 view .LVU1660
 5763 02d2 4046     		mov	r0, r8
 5764 02d4 FFF7FEFF 		bl	lv_obj_get_width
 5765              	.LVL598:
 5766 02d8 80B2     		uxth	r0, r0
 398:Middlewares/lvgl/src/core/lv_obj_pos.c ****         y = lv_obj_get_content_height(base) / 2 - lv_obj_get_height(obj) / 2 + btop;
 5767              		.loc 1 398 44 view .LVU1661
 5768 02da 241A     		subs	r4, r4, r0
 398:Middlewares/lvgl/src/core/lv_obj_pos.c ****         y = lv_obj_get_content_height(base) / 2 - lv_obj_get_height(obj) / 2 + btop;
 5769              		.loc 1 398 68 view .LVU1662
 5770 02dc 029B     		ldr	r3, [sp, #8]
 5771 02de 13FA84F4 		uxtah	r4, r3, r4
 398:Middlewares/lvgl/src/core/lv_obj_pos.c ****         y = lv_obj_get_content_height(base) / 2 - lv_obj_get_height(obj) / 2 + btop;
 5772              		.loc 1 398 11 view .LVU1663
 5773 02e2 24B2     		sxth	r4, r4
 5774              	.LVL599:
 399:Middlewares/lvgl/src/core/lv_obj_pos.c ****         break;
 5775              		.loc 1 399 9 is_stmt 1 view .LVU1664
 399:Middlewares/lvgl/src/core/lv_obj_pos.c ****         break;
 5776              		.loc 1 399 13 is_stmt 0 view .LVU1665
 5777 02e4 2846     		mov	r0, r5
 5778 02e6 FFF7FEFF 		bl	lv_obj_get_content_height
 5779              	.LVL600:
 5780 02ea 0646     		mov	r6, r0
 5781              	.LVL601:
 399:Middlewares/lvgl/src/core/lv_obj_pos.c ****         break;
 5782              		.loc 1 399 51 view .LVU1666
 5783 02ec 4046     		mov	r0, r8
 5784 02ee FFF7FEFF 		bl	lv_obj_get_height
 5785              	.LVL602:
 399:Middlewares/lvgl/src/core/lv_obj_pos.c ****         break;
 5786              		.loc 1 399 49 view .LVU1667
 5787 02f2 3346     		mov	r3, r6
 5788 02f4 002E     		cmp	r6, #0
 5789 02f6 0ADB     		blt	.L353
 5790              	.L330:
 5791 02f8 5E10     		asrs	r6, r3, #1
 5792 02fa 0346     		mov	r3, r0
 5793 02fc 0028     		cmp	r0, #0
 5794 02fe 08DB     		blt	.L354
 5795              	.L331:
 5796 0300 A6EB6306 		sub	r6, r6, r3, asr #1
 399:Middlewares/lvgl/src/core/lv_obj_pos.c ****         break;
 5797              		.loc 1 399 78 view .LVU1668
 5798 0304 039B     		ldr	r3, [sp, #12]
 5799 0306 13FA86F6 		uxtah	r6, r3, r6
 399:Middlewares/lvgl/src/core/lv_obj_pos.c ****         break;
 5800              		.loc 1 399 11 view .LVU1669
 5801 030a 36B2     		sxth	r6, r6
 5802              	.LVL603:
 400:Middlewares/lvgl/src/core/lv_obj_pos.c **** 
 5803              		.loc 1 400 9 is_stmt 1 view .LVU1670
 5804 030c ECE6     		b	.L298
 5805              	.LVL604:
ARM GAS  /tmp/ccnhv9Lg.s 			page 150


 5806              	.L353:
 399:Middlewares/lvgl/src/core/lv_obj_pos.c ****         break;
 5807              		.loc 1 399 49 is_stmt 0 view .LVU1671
 5808 030e 731C     		adds	r3, r6, #1
 5809 0310 F2E7     		b	.L330
 5810              	.L354:
 5811 0312 431C     		adds	r3, r0, #1
 5812 0314 F4E7     		b	.L331
 5813              	.LVL605:
 5814              	.L312:
 403:Middlewares/lvgl/src/core/lv_obj_pos.c ****         y = -lv_obj_get_height(obj);
 5815              		.loc 1 403 9 is_stmt 1 view .LVU1672
 404:Middlewares/lvgl/src/core/lv_obj_pos.c ****         break;
 5816              		.loc 1 404 9 view .LVU1673
 404:Middlewares/lvgl/src/core/lv_obj_pos.c ****         break;
 5817              		.loc 1 404 14 is_stmt 0 view .LVU1674
 5818 0316 4046     		mov	r0, r8
 5819 0318 FFF7FEFF 		bl	lv_obj_get_height
 5820              	.LVL606:
 5821 031c 86B2     		uxth	r6, r0
 5822              	.LVL607:
 404:Middlewares/lvgl/src/core/lv_obj_pos.c ****         break;
 5823              		.loc 1 404 11 view .LVU1675
 5824 031e 7642     		rsbs	r6, r6, #0
 5825 0320 36B2     		sxth	r6, r6
 5826              	.LVL608:
 405:Middlewares/lvgl/src/core/lv_obj_pos.c **** 
 5827              		.loc 1 405 9 is_stmt 1 view .LVU1676
 403:Middlewares/lvgl/src/core/lv_obj_pos.c ****         y = -lv_obj_get_height(obj);
 5828              		.loc 1 403 11 is_stmt 0 view .LVU1677
 5829 0322 0024     		movs	r4, #0
 5830              	.LVL609:
 405:Middlewares/lvgl/src/core/lv_obj_pos.c **** 
 5831              		.loc 1 405 9 view .LVU1678
 5832 0324 E0E6     		b	.L298
 5833              	.LVL610:
 5834              	.L311:
 408:Middlewares/lvgl/src/core/lv_obj_pos.c ****         y = -lv_obj_get_height(obj);
 5835              		.loc 1 408 9 is_stmt 1 view .LVU1679
 408:Middlewares/lvgl/src/core/lv_obj_pos.c ****         y = -lv_obj_get_height(obj);
 5836              		.loc 1 408 13 is_stmt 0 view .LVU1680
 5837 0326 2846     		mov	r0, r5
 5838 0328 FFF7FEFF 		bl	lv_obj_get_width
 5839              	.LVL611:
 5840 032c 0446     		mov	r4, r0
 5841              	.LVL612:
 408:Middlewares/lvgl/src/core/lv_obj_pos.c ****         y = -lv_obj_get_height(obj);
 5842              		.loc 1 408 42 view .LVU1681
 5843 032e 4046     		mov	r0, r8
 5844 0330 FFF7FEFF 		bl	lv_obj_get_width
 5845              	.LVL613:
 408:Middlewares/lvgl/src/core/lv_obj_pos.c ****         y = -lv_obj_get_height(obj);
 5846              		.loc 1 408 40 view .LVU1682
 5847 0334 2346     		mov	r3, r4
 5848 0336 002C     		cmp	r4, #0
 5849 0338 0DDB     		blt	.L355
 5850              	.L332:
ARM GAS  /tmp/ccnhv9Lg.s 			page 151


 5851 033a 5C10     		asrs	r4, r3, #1
 5852 033c 0346     		mov	r3, r0
 5853 033e 0028     		cmp	r0, #0
 5854 0340 0BDB     		blt	.L356
 5855              	.L333:
 5856 0342 A4EB6304 		sub	r4, r4, r3, asr #1
 408:Middlewares/lvgl/src/core/lv_obj_pos.c ****         y = -lv_obj_get_height(obj);
 5857              		.loc 1 408 11 view .LVU1683
 5858 0346 24B2     		sxth	r4, r4
 5859              	.LVL614:
 409:Middlewares/lvgl/src/core/lv_obj_pos.c ****         break;
 5860              		.loc 1 409 9 is_stmt 1 view .LVU1684
 409:Middlewares/lvgl/src/core/lv_obj_pos.c ****         break;
 5861              		.loc 1 409 14 is_stmt 0 view .LVU1685
 5862 0348 4046     		mov	r0, r8
 5863 034a FFF7FEFF 		bl	lv_obj_get_height
 5864              	.LVL615:
 5865 034e 86B2     		uxth	r6, r0
 5866              	.LVL616:
 409:Middlewares/lvgl/src/core/lv_obj_pos.c ****         break;
 5867              		.loc 1 409 11 view .LVU1686
 5868 0350 7642     		rsbs	r6, r6, #0
 5869 0352 36B2     		sxth	r6, r6
 5870              	.LVL617:
 410:Middlewares/lvgl/src/core/lv_obj_pos.c **** 
 5871              		.loc 1 410 9 is_stmt 1 view .LVU1687
 5872 0354 C8E6     		b	.L298
 5873              	.LVL618:
 5874              	.L355:
 408:Middlewares/lvgl/src/core/lv_obj_pos.c ****         y = -lv_obj_get_height(obj);
 5875              		.loc 1 408 40 is_stmt 0 view .LVU1688
 5876 0356 631C     		adds	r3, r4, #1
 5877 0358 EFE7     		b	.L332
 5878              	.L356:
 5879 035a 431C     		adds	r3, r0, #1
 5880 035c F1E7     		b	.L333
 5881              	.LVL619:
 5882              	.L310:
 413:Middlewares/lvgl/src/core/lv_obj_pos.c ****         y = -lv_obj_get_height(obj);
 5883              		.loc 1 413 9 is_stmt 1 view .LVU1689
 413:Middlewares/lvgl/src/core/lv_obj_pos.c ****         y = -lv_obj_get_height(obj);
 5884              		.loc 1 413 13 is_stmt 0 view .LVU1690
 5885 035e 2846     		mov	r0, r5
 5886 0360 FFF7FEFF 		bl	lv_obj_get_width
 5887              	.LVL620:
 5888 0364 84B2     		uxth	r4, r0
 5889              	.LVL621:
 413:Middlewares/lvgl/src/core/lv_obj_pos.c ****         y = -lv_obj_get_height(obj);
 5890              		.loc 1 413 38 view .LVU1691
 5891 0366 4046     		mov	r0, r8
 5892 0368 FFF7FEFF 		bl	lv_obj_get_width
 5893              	.LVL622:
 5894 036c 80B2     		uxth	r0, r0
 413:Middlewares/lvgl/src/core/lv_obj_pos.c ****         y = -lv_obj_get_height(obj);
 5895              		.loc 1 413 36 view .LVU1692
 5896 036e 241A     		subs	r4, r4, r0
 413:Middlewares/lvgl/src/core/lv_obj_pos.c ****         y = -lv_obj_get_height(obj);
ARM GAS  /tmp/ccnhv9Lg.s 			page 152


 5897              		.loc 1 413 11 view .LVU1693
 5898 0370 24B2     		sxth	r4, r4
 5899              	.LVL623:
 414:Middlewares/lvgl/src/core/lv_obj_pos.c ****         break;
 5900              		.loc 1 414 9 is_stmt 1 view .LVU1694
 414:Middlewares/lvgl/src/core/lv_obj_pos.c ****         break;
 5901              		.loc 1 414 14 is_stmt 0 view .LVU1695
 5902 0372 4046     		mov	r0, r8
 5903 0374 FFF7FEFF 		bl	lv_obj_get_height
 5904              	.LVL624:
 5905 0378 86B2     		uxth	r6, r0
 5906              	.LVL625:
 414:Middlewares/lvgl/src/core/lv_obj_pos.c ****         break;
 5907              		.loc 1 414 11 view .LVU1696
 5908 037a 7642     		rsbs	r6, r6, #0
 5909 037c 36B2     		sxth	r6, r6
 5910              	.LVL626:
 415:Middlewares/lvgl/src/core/lv_obj_pos.c **** 
 5911              		.loc 1 415 9 is_stmt 1 view .LVU1697
 5912 037e B3E6     		b	.L298
 5913              	.LVL627:
 5914              	.L309:
 418:Middlewares/lvgl/src/core/lv_obj_pos.c ****         y = lv_obj_get_height(base);
 5915              		.loc 1 418 9 view .LVU1698
 419:Middlewares/lvgl/src/core/lv_obj_pos.c ****         break;
 5916              		.loc 1 419 9 view .LVU1699
 419:Middlewares/lvgl/src/core/lv_obj_pos.c ****         break;
 5917              		.loc 1 419 13 is_stmt 0 view .LVU1700
 5918 0380 2846     		mov	r0, r5
 5919 0382 FFF7FEFF 		bl	lv_obj_get_height
 5920              	.LVL628:
 5921 0386 0646     		mov	r6, r0
 5922              	.LVL629:
 420:Middlewares/lvgl/src/core/lv_obj_pos.c **** 
 5923              		.loc 1 420 9 is_stmt 1 view .LVU1701
 418:Middlewares/lvgl/src/core/lv_obj_pos.c ****         y = lv_obj_get_height(base);
 5924              		.loc 1 418 11 is_stmt 0 view .LVU1702
 5925 0388 0024     		movs	r4, #0
 5926              	.LVL630:
 420:Middlewares/lvgl/src/core/lv_obj_pos.c **** 
 5927              		.loc 1 420 9 view .LVU1703
 5928 038a ADE6     		b	.L298
 5929              	.LVL631:
 5930              	.L308:
 423:Middlewares/lvgl/src/core/lv_obj_pos.c ****         y = lv_obj_get_height(base);
 5931              		.loc 1 423 9 is_stmt 1 view .LVU1704
 423:Middlewares/lvgl/src/core/lv_obj_pos.c ****         y = lv_obj_get_height(base);
 5932              		.loc 1 423 13 is_stmt 0 view .LVU1705
 5933 038c 2846     		mov	r0, r5
 5934 038e FFF7FEFF 		bl	lv_obj_get_width
 5935              	.LVL632:
 5936 0392 0446     		mov	r4, r0
 5937              	.LVL633:
 423:Middlewares/lvgl/src/core/lv_obj_pos.c ****         y = lv_obj_get_height(base);
 5938              		.loc 1 423 42 view .LVU1706
 5939 0394 4046     		mov	r0, r8
 5940 0396 FFF7FEFF 		bl	lv_obj_get_width
ARM GAS  /tmp/ccnhv9Lg.s 			page 153


 5941              	.LVL634:
 423:Middlewares/lvgl/src/core/lv_obj_pos.c ****         y = lv_obj_get_height(base);
 5942              		.loc 1 423 40 view .LVU1707
 5943 039a 2346     		mov	r3, r4
 5944 039c 002C     		cmp	r4, #0
 5945 039e 0BDB     		blt	.L357
 5946              	.L334:
 5947 03a0 5C10     		asrs	r4, r3, #1
 5948 03a2 0346     		mov	r3, r0
 5949 03a4 0028     		cmp	r0, #0
 5950 03a6 09DB     		blt	.L358
 5951              	.L335:
 5952 03a8 A4EB6304 		sub	r4, r4, r3, asr #1
 423:Middlewares/lvgl/src/core/lv_obj_pos.c ****         y = lv_obj_get_height(base);
 5953              		.loc 1 423 11 view .LVU1708
 5954 03ac 24B2     		sxth	r4, r4
 5955              	.LVL635:
 424:Middlewares/lvgl/src/core/lv_obj_pos.c ****         break;
 5956              		.loc 1 424 9 is_stmt 1 view .LVU1709
 424:Middlewares/lvgl/src/core/lv_obj_pos.c ****         break;
 5957              		.loc 1 424 13 is_stmt 0 view .LVU1710
 5958 03ae 2846     		mov	r0, r5
 5959 03b0 FFF7FEFF 		bl	lv_obj_get_height
 5960              	.LVL636:
 5961 03b4 0646     		mov	r6, r0
 5962              	.LVL637:
 425:Middlewares/lvgl/src/core/lv_obj_pos.c **** 
 5963              		.loc 1 425 9 is_stmt 1 view .LVU1711
 5964 03b6 97E6     		b	.L298
 5965              	.LVL638:
 5966              	.L357:
 423:Middlewares/lvgl/src/core/lv_obj_pos.c ****         y = lv_obj_get_height(base);
 5967              		.loc 1 423 40 is_stmt 0 view .LVU1712
 5968 03b8 631C     		adds	r3, r4, #1
 5969 03ba F1E7     		b	.L334
 5970              	.L358:
 5971 03bc 431C     		adds	r3, r0, #1
 5972 03be F3E7     		b	.L335
 5973              	.LVL639:
 5974              	.L307:
 428:Middlewares/lvgl/src/core/lv_obj_pos.c ****         y = lv_obj_get_height(base);
 5975              		.loc 1 428 9 is_stmt 1 view .LVU1713
 428:Middlewares/lvgl/src/core/lv_obj_pos.c ****         y = lv_obj_get_height(base);
 5976              		.loc 1 428 13 is_stmt 0 view .LVU1714
 5977 03c0 2846     		mov	r0, r5
 5978 03c2 FFF7FEFF 		bl	lv_obj_get_width
 5979              	.LVL640:
 5980 03c6 84B2     		uxth	r4, r0
 5981              	.LVL641:
 428:Middlewares/lvgl/src/core/lv_obj_pos.c ****         y = lv_obj_get_height(base);
 5982              		.loc 1 428 38 view .LVU1715
 5983 03c8 4046     		mov	r0, r8
 5984 03ca FFF7FEFF 		bl	lv_obj_get_width
 5985              	.LVL642:
 5986 03ce 80B2     		uxth	r0, r0
 428:Middlewares/lvgl/src/core/lv_obj_pos.c ****         y = lv_obj_get_height(base);
 5987              		.loc 1 428 36 view .LVU1716
ARM GAS  /tmp/ccnhv9Lg.s 			page 154


 5988 03d0 241A     		subs	r4, r4, r0
 428:Middlewares/lvgl/src/core/lv_obj_pos.c ****         y = lv_obj_get_height(base);
 5989              		.loc 1 428 11 view .LVU1717
 5990 03d2 24B2     		sxth	r4, r4
 5991              	.LVL643:
 429:Middlewares/lvgl/src/core/lv_obj_pos.c ****         break;
 5992              		.loc 1 429 9 is_stmt 1 view .LVU1718
 429:Middlewares/lvgl/src/core/lv_obj_pos.c ****         break;
 5993              		.loc 1 429 13 is_stmt 0 view .LVU1719
 5994 03d4 2846     		mov	r0, r5
 5995 03d6 FFF7FEFF 		bl	lv_obj_get_height
 5996              	.LVL644:
 5997 03da 0646     		mov	r6, r0
 5998              	.LVL645:
 430:Middlewares/lvgl/src/core/lv_obj_pos.c **** 
 5999              		.loc 1 430 9 is_stmt 1 view .LVU1720
 6000 03dc 84E6     		b	.L298
 6001              	.LVL646:
 6002              	.L306:
 433:Middlewares/lvgl/src/core/lv_obj_pos.c ****         y = 0;
 6003              		.loc 1 433 9 view .LVU1721
 433:Middlewares/lvgl/src/core/lv_obj_pos.c ****         y = 0;
 6004              		.loc 1 433 14 is_stmt 0 view .LVU1722
 6005 03de 4046     		mov	r0, r8
 6006 03e0 FFF7FEFF 		bl	lv_obj_get_width
 6007              	.LVL647:
 6008 03e4 84B2     		uxth	r4, r0
 6009              	.LVL648:
 433:Middlewares/lvgl/src/core/lv_obj_pos.c ****         y = 0;
 6010              		.loc 1 433 11 view .LVU1723
 6011 03e6 6442     		rsbs	r4, r4, #0
 6012 03e8 24B2     		sxth	r4, r4
 6013              	.LVL649:
 434:Middlewares/lvgl/src/core/lv_obj_pos.c ****         break;
 6014              		.loc 1 434 9 is_stmt 1 view .LVU1724
 435:Middlewares/lvgl/src/core/lv_obj_pos.c **** 
 6015              		.loc 1 435 9 view .LVU1725
 434:Middlewares/lvgl/src/core/lv_obj_pos.c ****         break;
 6016              		.loc 1 434 11 is_stmt 0 view .LVU1726
 6017 03ea 0026     		movs	r6, #0
 6018              	.LVL650:
 435:Middlewares/lvgl/src/core/lv_obj_pos.c **** 
 6019              		.loc 1 435 9 view .LVU1727
 6020 03ec 7CE6     		b	.L298
 6021              	.LVL651:
 6022              	.L305:
 438:Middlewares/lvgl/src/core/lv_obj_pos.c ****         y = lv_obj_get_height(base) / 2 - lv_obj_get_height(obj) / 2;
 6023              		.loc 1 438 9 is_stmt 1 view .LVU1728
 438:Middlewares/lvgl/src/core/lv_obj_pos.c ****         y = lv_obj_get_height(base) / 2 - lv_obj_get_height(obj) / 2;
 6024              		.loc 1 438 14 is_stmt 0 view .LVU1729
 6025 03ee 4046     		mov	r0, r8
 6026 03f0 FFF7FEFF 		bl	lv_obj_get_width
 6027              	.LVL652:
 6028 03f4 84B2     		uxth	r4, r0
 6029              	.LVL653:
 438:Middlewares/lvgl/src/core/lv_obj_pos.c ****         y = lv_obj_get_height(base) / 2 - lv_obj_get_height(obj) / 2;
 6030              		.loc 1 438 11 view .LVU1730
ARM GAS  /tmp/ccnhv9Lg.s 			page 155


 6031 03f6 6442     		rsbs	r4, r4, #0
 6032 03f8 24B2     		sxth	r4, r4
 6033              	.LVL654:
 439:Middlewares/lvgl/src/core/lv_obj_pos.c ****         break;
 6034              		.loc 1 439 9 is_stmt 1 view .LVU1731
 439:Middlewares/lvgl/src/core/lv_obj_pos.c ****         break;
 6035              		.loc 1 439 13 is_stmt 0 view .LVU1732
 6036 03fa 2846     		mov	r0, r5
 6037 03fc FFF7FEFF 		bl	lv_obj_get_height
 6038              	.LVL655:
 6039 0400 0646     		mov	r6, r0
 6040              	.LVL656:
 439:Middlewares/lvgl/src/core/lv_obj_pos.c ****         break;
 6041              		.loc 1 439 43 view .LVU1733
 6042 0402 4046     		mov	r0, r8
 6043 0404 FFF7FEFF 		bl	lv_obj_get_height
 6044              	.LVL657:
 439:Middlewares/lvgl/src/core/lv_obj_pos.c ****         break;
 6045              		.loc 1 439 41 view .LVU1734
 6046 0408 3346     		mov	r3, r6
 6047 040a 002E     		cmp	r6, #0
 6048 040c 07DB     		blt	.L359
 6049              	.L336:
 6050 040e 5E10     		asrs	r6, r3, #1
 6051 0410 0346     		mov	r3, r0
 6052 0412 0028     		cmp	r0, #0
 6053 0414 05DB     		blt	.L360
 6054              	.L337:
 6055 0416 A6EB6306 		sub	r6, r6, r3, asr #1
 439:Middlewares/lvgl/src/core/lv_obj_pos.c ****         break;
 6056              		.loc 1 439 11 view .LVU1735
 6057 041a 36B2     		sxth	r6, r6
 6058              	.LVL658:
 440:Middlewares/lvgl/src/core/lv_obj_pos.c **** 
 6059              		.loc 1 440 9 is_stmt 1 view .LVU1736
 6060 041c 64E6     		b	.L298
 6061              	.LVL659:
 6062              	.L359:
 439:Middlewares/lvgl/src/core/lv_obj_pos.c ****         break;
 6063              		.loc 1 439 41 is_stmt 0 view .LVU1737
 6064 041e 731C     		adds	r3, r6, #1
 6065 0420 F5E7     		b	.L336
 6066              	.L360:
 6067 0422 431C     		adds	r3, r0, #1
 6068 0424 F7E7     		b	.L337
 6069              	.LVL660:
 6070              	.L304:
 443:Middlewares/lvgl/src/core/lv_obj_pos.c ****         y = lv_obj_get_height(base) - lv_obj_get_height(obj);
 6071              		.loc 1 443 9 is_stmt 1 view .LVU1738
 443:Middlewares/lvgl/src/core/lv_obj_pos.c ****         y = lv_obj_get_height(base) - lv_obj_get_height(obj);
 6072              		.loc 1 443 14 is_stmt 0 view .LVU1739
 6073 0426 4046     		mov	r0, r8
 6074 0428 FFF7FEFF 		bl	lv_obj_get_width
 6075              	.LVL661:
 6076 042c 84B2     		uxth	r4, r0
 6077              	.LVL662:
 443:Middlewares/lvgl/src/core/lv_obj_pos.c ****         y = lv_obj_get_height(base) - lv_obj_get_height(obj);
ARM GAS  /tmp/ccnhv9Lg.s 			page 156


 6078              		.loc 1 443 11 view .LVU1740
 6079 042e 6442     		rsbs	r4, r4, #0
 6080 0430 24B2     		sxth	r4, r4
 6081              	.LVL663:
 444:Middlewares/lvgl/src/core/lv_obj_pos.c ****         break;
 6082              		.loc 1 444 9 is_stmt 1 view .LVU1741
 444:Middlewares/lvgl/src/core/lv_obj_pos.c ****         break;
 6083              		.loc 1 444 13 is_stmt 0 view .LVU1742
 6084 0432 2846     		mov	r0, r5
 6085 0434 FFF7FEFF 		bl	lv_obj_get_height
 6086              	.LVL664:
 6087 0438 86B2     		uxth	r6, r0
 6088              	.LVL665:
 444:Middlewares/lvgl/src/core/lv_obj_pos.c ****         break;
 6089              		.loc 1 444 39 view .LVU1743
 6090 043a 4046     		mov	r0, r8
 6091 043c FFF7FEFF 		bl	lv_obj_get_height
 6092              	.LVL666:
 6093 0440 80B2     		uxth	r0, r0
 444:Middlewares/lvgl/src/core/lv_obj_pos.c ****         break;
 6094              		.loc 1 444 37 view .LVU1744
 6095 0442 361A     		subs	r6, r6, r0
 444:Middlewares/lvgl/src/core/lv_obj_pos.c ****         break;
 6096              		.loc 1 444 11 view .LVU1745
 6097 0444 36B2     		sxth	r6, r6
 6098              	.LVL667:
 445:Middlewares/lvgl/src/core/lv_obj_pos.c **** 
 6099              		.loc 1 445 9 is_stmt 1 view .LVU1746
 6100 0446 4FE6     		b	.L298
 6101              	.LVL668:
 6102              	.L303:
 448:Middlewares/lvgl/src/core/lv_obj_pos.c ****         y = 0;
 6103              		.loc 1 448 9 view .LVU1747
 448:Middlewares/lvgl/src/core/lv_obj_pos.c ****         y = 0;
 6104              		.loc 1 448 13 is_stmt 0 view .LVU1748
 6105 0448 2846     		mov	r0, r5
 6106 044a FFF7FEFF 		bl	lv_obj_get_width
 6107              	.LVL669:
 6108 044e 0446     		mov	r4, r0
 6109              	.LVL670:
 449:Middlewares/lvgl/src/core/lv_obj_pos.c ****         break;
 6110              		.loc 1 449 9 is_stmt 1 view .LVU1749
 450:Middlewares/lvgl/src/core/lv_obj_pos.c **** 
 6111              		.loc 1 450 9 view .LVU1750
 449:Middlewares/lvgl/src/core/lv_obj_pos.c ****         break;
 6112              		.loc 1 449 11 is_stmt 0 view .LVU1751
 6113 0450 0026     		movs	r6, #0
 6114              	.LVL671:
 450:Middlewares/lvgl/src/core/lv_obj_pos.c **** 
 6115              		.loc 1 450 9 view .LVU1752
 6116 0452 49E6     		b	.L298
 6117              	.LVL672:
 6118              	.L302:
 453:Middlewares/lvgl/src/core/lv_obj_pos.c ****         y = lv_obj_get_height(base) / 2 - lv_obj_get_height(obj) / 2;
 6119              		.loc 1 453 9 is_stmt 1 view .LVU1753
 453:Middlewares/lvgl/src/core/lv_obj_pos.c ****         y = lv_obj_get_height(base) / 2 - lv_obj_get_height(obj) / 2;
 6120              		.loc 1 453 13 is_stmt 0 view .LVU1754
ARM GAS  /tmp/ccnhv9Lg.s 			page 157


 6121 0454 2846     		mov	r0, r5
 6122 0456 FFF7FEFF 		bl	lv_obj_get_width
 6123              	.LVL673:
 6124 045a 0446     		mov	r4, r0
 6125              	.LVL674:
 454:Middlewares/lvgl/src/core/lv_obj_pos.c ****         break;
 6126              		.loc 1 454 9 is_stmt 1 view .LVU1755
 454:Middlewares/lvgl/src/core/lv_obj_pos.c ****         break;
 6127              		.loc 1 454 13 is_stmt 0 view .LVU1756
 6128 045c 2846     		mov	r0, r5
 6129 045e FFF7FEFF 		bl	lv_obj_get_height
 6130              	.LVL675:
 6131 0462 0646     		mov	r6, r0
 6132              	.LVL676:
 454:Middlewares/lvgl/src/core/lv_obj_pos.c ****         break;
 6133              		.loc 1 454 43 view .LVU1757
 6134 0464 4046     		mov	r0, r8
 6135 0466 FFF7FEFF 		bl	lv_obj_get_height
 6136              	.LVL677:
 454:Middlewares/lvgl/src/core/lv_obj_pos.c ****         break;
 6137              		.loc 1 454 41 view .LVU1758
 6138 046a 3346     		mov	r3, r6
 6139 046c 002E     		cmp	r6, #0
 6140 046e 07DB     		blt	.L361
 6141              	.L338:
 6142 0470 5E10     		asrs	r6, r3, #1
 6143 0472 0346     		mov	r3, r0
 6144 0474 0028     		cmp	r0, #0
 6145 0476 05DB     		blt	.L362
 6146              	.L339:
 6147 0478 A6EB6306 		sub	r6, r6, r3, asr #1
 454:Middlewares/lvgl/src/core/lv_obj_pos.c ****         break;
 6148              		.loc 1 454 11 view .LVU1759
 6149 047c 36B2     		sxth	r6, r6
 6150              	.LVL678:
 455:Middlewares/lvgl/src/core/lv_obj_pos.c **** 
 6151              		.loc 1 455 9 is_stmt 1 view .LVU1760
 6152 047e 33E6     		b	.L298
 6153              	.LVL679:
 6154              	.L361:
 454:Middlewares/lvgl/src/core/lv_obj_pos.c ****         break;
 6155              		.loc 1 454 41 is_stmt 0 view .LVU1761
 6156 0480 731C     		adds	r3, r6, #1
 6157 0482 F5E7     		b	.L338
 6158              	.L362:
 6159 0484 431C     		adds	r3, r0, #1
 6160 0486 F7E7     		b	.L339
 6161              	.LVL680:
 6162              	.L300:
 458:Middlewares/lvgl/src/core/lv_obj_pos.c ****         y = lv_obj_get_height(base) - lv_obj_get_height(obj);
 6163              		.loc 1 458 9 is_stmt 1 view .LVU1762
 458:Middlewares/lvgl/src/core/lv_obj_pos.c ****         y = lv_obj_get_height(base) - lv_obj_get_height(obj);
 6164              		.loc 1 458 13 is_stmt 0 view .LVU1763
 6165 0488 2846     		mov	r0, r5
 6166 048a FFF7FEFF 		bl	lv_obj_get_width
 6167              	.LVL681:
 6168 048e 0446     		mov	r4, r0
ARM GAS  /tmp/ccnhv9Lg.s 			page 158


 6169              	.LVL682:
 459:Middlewares/lvgl/src/core/lv_obj_pos.c ****         break;
 6170              		.loc 1 459 9 is_stmt 1 view .LVU1764
 459:Middlewares/lvgl/src/core/lv_obj_pos.c ****         break;
 6171              		.loc 1 459 13 is_stmt 0 view .LVU1765
 6172 0490 2846     		mov	r0, r5
 6173 0492 FFF7FEFF 		bl	lv_obj_get_height
 6174              	.LVL683:
 6175 0496 86B2     		uxth	r6, r0
 6176              	.LVL684:
 459:Middlewares/lvgl/src/core/lv_obj_pos.c ****         break;
 6177              		.loc 1 459 39 view .LVU1766
 6178 0498 4046     		mov	r0, r8
 6179 049a FFF7FEFF 		bl	lv_obj_get_height
 6180              	.LVL685:
 6181 049e 80B2     		uxth	r0, r0
 459:Middlewares/lvgl/src/core/lv_obj_pos.c ****         break;
 6182              		.loc 1 459 37 view .LVU1767
 6183 04a0 361A     		subs	r6, r6, r0
 459:Middlewares/lvgl/src/core/lv_obj_pos.c ****         break;
 6184              		.loc 1 459 11 view .LVU1768
 6185 04a2 36B2     		sxth	r6, r6
 6186              	.LVL686:
 460:Middlewares/lvgl/src/core/lv_obj_pos.c ****     }
 6187              		.loc 1 460 9 is_stmt 1 view .LVU1769
 6188 04a4 20E6     		b	.L298
 6189              		.cfi_endproc
 6190              	.LFE169:
 6192              		.section	.bss.layout_cnt,"aw",%nobits
 6193              		.align	2
 6194              		.set	.LANCHOR0,. + 0
 6197              	layout_cnt:
 6198 0000 00000000 		.space	4
 6199              		.section	.bss.mutex.0,"aw",%nobits
 6200              		.set	.LANCHOR1,. + 0
 6203              	mutex.0:
 6204 0000 00       		.space	1
 6205              		.text
 6206              	.Letext0:
 6207              		.file 4 "/home/akinya/gcc-arm-none-eabi/arm-none-eabi/include/machine/_default_types.h"
 6208              		.file 5 "/home/akinya/gcc-arm-none-eabi/arm-none-eabi/include/sys/_stdint.h"
 6209              		.file 6 "Middlewares/lvgl/src/core/../misc/../font/lv_font.h"
 6210              		.file 7 "Middlewares/lvgl/src/core/../misc/lv_types.h"
 6211              		.file 8 "Middlewares/lvgl/src/core/../misc/lv_color.h"
 6212              		.file 9 "Middlewares/lvgl/src/core/../misc/lv_anim.h"
 6213              		.file 10 "Middlewares/lvgl/src/core/../misc/lv_bidi.h"
 6214              		.file 11 "Middlewares/lvgl/src/core/../misc/lv_style.h"
 6215              		.file 12 "Middlewares/lvgl/src/core/../hal/../misc/lv_ll.h"
 6216              		.file 13 "Middlewares/lvgl/src/core/../hal/../misc/lv_timer.h"
 6217              		.file 14 "Middlewares/lvgl/src/core/../hal/lv_hal_disp.h"
 6218              		.file 15 "Middlewares/lvgl/src/core/lv_theme.h"
 6219              		.file 16 "Middlewares/lvgl/src/core/lv_obj.h"
 6220              		.file 17 "Middlewares/lvgl/src/core/lv_group.h"
 6221              		.file 18 "Middlewares/lvgl/src/core/lv_obj_pos.h"
 6222              		.file 19 "Middlewares/lvgl/src/core/lv_obj_scroll.h"
 6223              		.file 20 "Middlewares/lvgl/src/core/lv_obj_style.h"
 6224              		.file 21 "Middlewares/lvgl/src/core/lv_obj_class.h"
ARM GAS  /tmp/ccnhv9Lg.s 			page 159


 6225              		.file 22 "Middlewares/lvgl/src/core/lv_event.h"
 6226              		.file 23 "Middlewares/lvgl/src/core/../misc/lv_gc.h"
 6227              		.file 24 "Middlewares/lvgl/src/core/lv_obj_tree.h"
 6228              		.file 25 "Middlewares/lvgl/src/core/lv_obj_draw.h"
 6229              		.file 26 "Middlewares/lvgl/src/core/lv_disp.h"
 6230              		.file 27 "Middlewares/lvgl/src/core/lv_refr.h"
 6231              		.file 28 "Middlewares/lvgl/src/core/../hal/../misc/lv_mem.h"
ARM GAS  /tmp/ccnhv9Lg.s 			page 160


DEFINED SYMBOLS
                            *ABS*:0000000000000000 lv_obj_pos.c
     /tmp/ccnhv9Lg.s:19     .text.lv_obj_set_width:0000000000000000 $t
     /tmp/ccnhv9Lg.s:25     .text.lv_obj_set_width:0000000000000000 lv_obj_set_width
     /tmp/ccnhv9Lg.s:97     .text.lv_obj_set_height:0000000000000000 $t
     /tmp/ccnhv9Lg.s:103    .text.lv_obj_set_height:0000000000000000 lv_obj_set_height
     /tmp/ccnhv9Lg.s:174    .text.lv_obj_set_size:0000000000000000 $t
     /tmp/ccnhv9Lg.s:180    .text.lv_obj_set_size:0000000000000000 lv_obj_set_size
     /tmp/ccnhv9Lg.s:215    .text.lv_obj_set_content_width:0000000000000000 $t
     /tmp/ccnhv9Lg.s:221    .text.lv_obj_set_content_width:0000000000000000 lv_obj_set_content_width
     /tmp/ccnhv9Lg.s:320    .text.lv_obj_set_content_height:0000000000000000 $t
     /tmp/ccnhv9Lg.s:326    .text.lv_obj_set_content_height:0000000000000000 lv_obj_set_content_height
     /tmp/ccnhv9Lg.s:424    .text.lv_obj_is_layout_positioned:0000000000000000 $t
     /tmp/ccnhv9Lg.s:430    .text.lv_obj_is_layout_positioned:0000000000000000 lv_obj_is_layout_positioned
     /tmp/ccnhv9Lg.s:501    .text.lv_obj_is_layout_positioned:0000000000000034 $d
     /tmp/ccnhv9Lg.s:506    .text.lv_obj_set_x:0000000000000000 $t
     /tmp/ccnhv9Lg.s:512    .text.lv_obj_set_x:0000000000000000 lv_obj_set_x
     /tmp/ccnhv9Lg.s:592    .text.lv_obj_set_y:0000000000000000 $t
     /tmp/ccnhv9Lg.s:598    .text.lv_obj_set_y:0000000000000000 lv_obj_set_y
     /tmp/ccnhv9Lg.s:678    .text.lv_obj_set_pos:0000000000000000 $t
     /tmp/ccnhv9Lg.s:684    .text.lv_obj_set_pos:0000000000000000 lv_obj_set_pos
     /tmp/ccnhv9Lg.s:719    .text.lv_obj_mark_layout_as_dirty:0000000000000000 $t
     /tmp/ccnhv9Lg.s:725    .text.lv_obj_mark_layout_as_dirty:0000000000000000 lv_obj_mark_layout_as_dirty
     /tmp/ccnhv9Lg.s:768    .text.lv_obj_set_layout:0000000000000000 $t
     /tmp/ccnhv9Lg.s:774    .text.lv_obj_set_layout:0000000000000000 lv_obj_set_layout
     /tmp/ccnhv9Lg.s:809    .text.lv_layout_register:0000000000000000 $t
     /tmp/ccnhv9Lg.s:815    .text.lv_layout_register:0000000000000000 lv_layout_register
     /tmp/ccnhv9Lg.s:885    .text.lv_layout_register:000000000000003c $d
     /tmp/ccnhv9Lg.s:891    .text.lv_obj_set_align:0000000000000000 $t
     /tmp/ccnhv9Lg.s:897    .text.lv_obj_set_align:0000000000000000 lv_obj_set_align
     /tmp/ccnhv9Lg.s:920    .text.lv_obj_align:0000000000000000 $t
     /tmp/ccnhv9Lg.s:926    .text.lv_obj_align:0000000000000000 lv_obj_align
     /tmp/ccnhv9Lg.s:963    .text.lv_obj_get_coords:0000000000000000 $t
     /tmp/ccnhv9Lg.s:969    .text.lv_obj_get_coords:0000000000000000 lv_obj_get_coords
     /tmp/ccnhv9Lg.s:1016   .text.lv_obj_get_x:0000000000000000 $t
     /tmp/ccnhv9Lg.s:1022   .text.lv_obj_get_x:0000000000000000 lv_obj_get_x
     /tmp/ccnhv9Lg.s:1132   .text.lv_obj_get_y:0000000000000000 $t
     /tmp/ccnhv9Lg.s:1138   .text.lv_obj_get_y:0000000000000000 lv_obj_get_y
     /tmp/ccnhv9Lg.s:1248   .text.lv_obj_get_width:0000000000000000 $t
     /tmp/ccnhv9Lg.s:1254   .text.lv_obj_get_width:0000000000000000 lv_obj_get_width
     /tmp/ccnhv9Lg.s:1296   .text.lv_obj_get_x2:0000000000000000 $t
     /tmp/ccnhv9Lg.s:1302   .text.lv_obj_get_x2:0000000000000000 lv_obj_get_x2
     /tmp/ccnhv9Lg.s:1341   .text.lv_obj_get_height:0000000000000000 $t
     /tmp/ccnhv9Lg.s:1347   .text.lv_obj_get_height:0000000000000000 lv_obj_get_height
     /tmp/ccnhv9Lg.s:1389   .text.calc_auto_size:0000000000000000 $t
     /tmp/ccnhv9Lg.s:1394   .text.calc_auto_size:0000000000000000 calc_auto_size
     /tmp/ccnhv9Lg.s:1504   .text.lv_obj_get_y2:0000000000000000 $t
     /tmp/ccnhv9Lg.s:1510   .text.lv_obj_get_y2:0000000000000000 lv_obj_get_y2
     /tmp/ccnhv9Lg.s:1549   .text.lv_obj_get_content_width:0000000000000000 $t
     /tmp/ccnhv9Lg.s:1555   .text.lv_obj_get_content_width:0000000000000000 lv_obj_get_content_width
     /tmp/ccnhv9Lg.s:1656   .text.lv_obj_get_content_height:0000000000000000 $t
     /tmp/ccnhv9Lg.s:1662   .text.lv_obj_get_content_height:0000000000000000 lv_obj_get_content_height
     /tmp/ccnhv9Lg.s:1763   .text.lv_obj_get_content_coords:0000000000000000 $t
     /tmp/ccnhv9Lg.s:1769   .text.lv_obj_get_content_coords:0000000000000000 lv_obj_get_content_coords
     /tmp/ccnhv9Lg.s:1916   .text.lv_obj_get_self_width:0000000000000000 $t
     /tmp/ccnhv9Lg.s:1922   .text.lv_obj_get_self_width:0000000000000000 lv_obj_get_self_width
     /tmp/ccnhv9Lg.s:1960   .text.lv_obj_get_self_height:0000000000000000 $t
ARM GAS  /tmp/ccnhv9Lg.s 			page 161


     /tmp/ccnhv9Lg.s:1966   .text.lv_obj_get_self_height:0000000000000000 lv_obj_get_self_height
     /tmp/ccnhv9Lg.s:2004   .text.lv_obj_refresh_self_size:0000000000000000 $t
     /tmp/ccnhv9Lg.s:2010   .text.lv_obj_refresh_self_size:0000000000000000 lv_obj_refresh_self_size
     /tmp/ccnhv9Lg.s:2094   .text.lv_obj_move_children_by:0000000000000000 $t
     /tmp/ccnhv9Lg.s:2100   .text.lv_obj_move_children_by:0000000000000000 lv_obj_move_children_by
     /tmp/ccnhv9Lg.s:2212   .text.lv_obj_area_is_visible:0000000000000000 $t
     /tmp/ccnhv9Lg.s:2218   .text.lv_obj_area_is_visible:0000000000000000 lv_obj_area_is_visible
     /tmp/ccnhv9Lg.s:2444   .text.lv_obj_invalidate_area:0000000000000000 $t
     /tmp/ccnhv9Lg.s:2450   .text.lv_obj_invalidate_area:0000000000000000 lv_obj_invalidate_area
     /tmp/ccnhv9Lg.s:2539   .text.lv_obj_invalidate:0000000000000000 $t
     /tmp/ccnhv9Lg.s:2545   .text.lv_obj_invalidate:0000000000000000 lv_obj_invalidate
     /tmp/ccnhv9Lg.s:2634   .text.lv_obj_move_to:0000000000000000 $t
     /tmp/ccnhv9Lg.s:2640   .text.lv_obj_move_to:0000000000000000 lv_obj_move_to
     /tmp/ccnhv9Lg.s:2981   .text.lv_obj_refr_pos:0000000000000000 $t
     /tmp/ccnhv9Lg.s:2987   .text.lv_obj_refr_pos:0000000000000000 lv_obj_refr_pos
     /tmp/ccnhv9Lg.s:3233   .text.lv_obj_refr_pos:00000000000000de $d
     /tmp/ccnhv9Lg.s:3242   .text.lv_obj_refr_pos:00000000000000ee $t
     /tmp/ccnhv9Lg.s:3671   .text.lv_obj_refr_pos:0000000000000308 $d
     /tmp/ccnhv9Lg.s:3676   .text.lv_obj_is_visible:0000000000000000 $t
     /tmp/ccnhv9Lg.s:3682   .text.lv_obj_is_visible:0000000000000000 lv_obj_is_visible
     /tmp/ccnhv9Lg.s:3772   .text.lv_obj_set_ext_click_area:0000000000000000 $t
     /tmp/ccnhv9Lg.s:3778   .text.lv_obj_set_ext_click_area:0000000000000000 lv_obj_set_ext_click_area
     /tmp/ccnhv9Lg.s:3813   .text.lv_obj_get_click_area:0000000000000000 $t
     /tmp/ccnhv9Lg.s:3819   .text.lv_obj_get_click_area:0000000000000000 lv_obj_get_click_area
     /tmp/ccnhv9Lg.s:3904   .text.lv_obj_hit_test:0000000000000000 $t
     /tmp/ccnhv9Lg.s:3910   .text.lv_obj_hit_test:0000000000000000 lv_obj_hit_test
     /tmp/ccnhv9Lg.s:3997   .text.lv_clamp_width:0000000000000000 $t
     /tmp/ccnhv9Lg.s:4003   .text.lv_clamp_width:0000000000000000 lv_clamp_width
     /tmp/ccnhv9Lg.s:4096   .text.lv_clamp_width:0000000000000078 $d
     /tmp/ccnhv9Lg.s:4101   .text.lv_clamp_height:0000000000000000 $t
     /tmp/ccnhv9Lg.s:4107   .text.lv_clamp_height:0000000000000000 lv_clamp_height
     /tmp/ccnhv9Lg.s:4200   .text.lv_clamp_height:0000000000000078 $d
     /tmp/ccnhv9Lg.s:4205   .text.lv_obj_refr_size:0000000000000000 $t
     /tmp/ccnhv9Lg.s:4211   .text.lv_obj_refr_size:0000000000000000 lv_obj_refr_size
     /tmp/ccnhv9Lg.s:4861   .text.lv_obj_refr_size:00000000000002f4 $d
     /tmp/ccnhv9Lg.s:4866   .text.layout_update_core:0000000000000000 $t
     /tmp/ccnhv9Lg.s:4871   .text.layout_update_core:0000000000000000 layout_update_core
     /tmp/ccnhv9Lg.s:5012   .text.layout_update_core:0000000000000084 $d
     /tmp/ccnhv9Lg.s:5020   .text.lv_obj_update_layout:0000000000000000 $t
     /tmp/ccnhv9Lg.s:5026   .text.lv_obj_update_layout:0000000000000000 lv_obj_update_layout
     /tmp/ccnhv9Lg.s:5093   .text.lv_obj_update_layout:000000000000003c $d
     /tmp/ccnhv9Lg.s:5098   .text.lv_obj_align_to:0000000000000000 $t
     /tmp/ccnhv9Lg.s:5104   .text.lv_obj_align_to:0000000000000000 lv_obj_align_to
     /tmp/ccnhv9Lg.s:5296   .text.lv_obj_align_to:00000000000000a2 $d
     /tmp/ccnhv9Lg.s:5318   .text.lv_obj_align_to:00000000000000cc $t
     /tmp/ccnhv9Lg.s:6193   .bss.layout_cnt:0000000000000000 $d
     /tmp/ccnhv9Lg.s:6197   .bss.layout_cnt:0000000000000000 layout_cnt
     /tmp/ccnhv9Lg.s:6203   .bss.mutex.0:0000000000000000 mutex.0
     /tmp/ccnhv9Lg.s:6204   .bss.mutex.0:0000000000000000 $d

UNDEFINED SYMBOLS
lv_obj_get_local_style_prop
lv_obj_set_style_width
lv_obj_set_style_height
lv_obj_get_style_prop
lv_obj_has_flag_any
lv_obj_get_parent
ARM GAS  /tmp/ccnhv9Lg.s 			page 162


lv_obj_set_style_x
lv_obj_set_style_y
lv_obj_get_screen
lv_obj_get_disp
lv_timer_resume
lv_obj_set_style_layout
lv_mem_realloc
_lv_layout_list
lv_obj_set_style_align
lv_obj_get_scroll_x
lv_obj_get_scroll_y
lv_obj_get_scroll_right
lv_obj_get_scroll_left
lv_obj_get_scroll_bottom
lv_obj_get_scroll_top
lv_area_increase
lv_event_send
lv_obj_get_child_cnt
lv_obj_get_child
lv_obj_has_flag
lv_disp_get_scr_act
lv_disp_get_scr_prev
lv_disp_get_layer_top
lv_disp_get_layer_sys
_lv_obj_get_ext_draw_size
_lv_area_intersect
_lv_inv_area
_lv_area_is_in
lv_obj_scrollbar_invalidate
lv_obj_allocate_spec_attr
_lv_area_is_point_on
lv_obj_readjust_scroll
lv_obj_scroll_to_x
lv_obj_scroll_to_y
lv_obj_scroll_to
