ARM GAS  /tmp/ccXWhpqg.s 			page 1


   1              		.cpu cortex-m7
   2              		.eabi_attribute 28, 1
   3              		.eabi_attribute 20, 1
   4              		.eabi_attribute 21, 1
   5              		.eabi_attribute 23, 3
   6              		.eabi_attribute 24, 1
   7              		.eabi_attribute 25, 1
   8              		.eabi_attribute 26, 1
   9              		.eabi_attribute 30, 1
  10              		.eabi_attribute 34, 1
  11              		.eabi_attribute 18, 4
  12              		.file	"lv_obj_draw.c"
  13              		.text
  14              	.Ltext0:
  15              		.cfi_sections	.debug_frame
  16              		.section	.text.lv_obj_init_draw_rect_dsc,"ax",%progbits
  17              		.align	1
  18              		.global	lv_obj_init_draw_rect_dsc
  19              		.arch armv7e-m
  20              		.syntax unified
  21              		.thumb
  22              		.thumb_func
  23              		.fpu fpv5-d16
  25              	lv_obj_init_draw_rect_dsc:
  26              	.LVL0:
  27              	.LFB153:
  28              		.file 1 "Middlewares/lvgl/src/core/lv_obj_draw.c"
   1:Middlewares/lvgl/src/core/lv_obj_draw.c **** /**
   2:Middlewares/lvgl/src/core/lv_obj_draw.c ****  * @file lv_obj_draw.c
   3:Middlewares/lvgl/src/core/lv_obj_draw.c ****  *
   4:Middlewares/lvgl/src/core/lv_obj_draw.c ****  */
   5:Middlewares/lvgl/src/core/lv_obj_draw.c **** 
   6:Middlewares/lvgl/src/core/lv_obj_draw.c **** /*********************
   7:Middlewares/lvgl/src/core/lv_obj_draw.c ****  *      INCLUDES
   8:Middlewares/lvgl/src/core/lv_obj_draw.c ****  *********************/
   9:Middlewares/lvgl/src/core/lv_obj_draw.c **** #include "lv_obj_draw.h"
  10:Middlewares/lvgl/src/core/lv_obj_draw.c **** #include "lv_obj.h"
  11:Middlewares/lvgl/src/core/lv_obj_draw.c **** #include "lv_disp.h"
  12:Middlewares/lvgl/src/core/lv_obj_draw.c **** #include "lv_indev.h"
  13:Middlewares/lvgl/src/core/lv_obj_draw.c **** 
  14:Middlewares/lvgl/src/core/lv_obj_draw.c **** /*********************
  15:Middlewares/lvgl/src/core/lv_obj_draw.c ****  *      DEFINES
  16:Middlewares/lvgl/src/core/lv_obj_draw.c ****  *********************/
  17:Middlewares/lvgl/src/core/lv_obj_draw.c **** #define MY_CLASS &lv_obj_class
  18:Middlewares/lvgl/src/core/lv_obj_draw.c **** 
  19:Middlewares/lvgl/src/core/lv_obj_draw.c **** /**********************
  20:Middlewares/lvgl/src/core/lv_obj_draw.c ****  *      TYPEDEFS
  21:Middlewares/lvgl/src/core/lv_obj_draw.c ****  **********************/
  22:Middlewares/lvgl/src/core/lv_obj_draw.c **** 
  23:Middlewares/lvgl/src/core/lv_obj_draw.c **** /**********************
  24:Middlewares/lvgl/src/core/lv_obj_draw.c ****  *  STATIC PROTOTYPES
  25:Middlewares/lvgl/src/core/lv_obj_draw.c ****  **********************/
  26:Middlewares/lvgl/src/core/lv_obj_draw.c **** 
  27:Middlewares/lvgl/src/core/lv_obj_draw.c **** /**********************
  28:Middlewares/lvgl/src/core/lv_obj_draw.c ****  *  STATIC VARIABLES
  29:Middlewares/lvgl/src/core/lv_obj_draw.c ****  **********************/
  30:Middlewares/lvgl/src/core/lv_obj_draw.c **** 
ARM GAS  /tmp/ccXWhpqg.s 			page 2


  31:Middlewares/lvgl/src/core/lv_obj_draw.c **** /**********************
  32:Middlewares/lvgl/src/core/lv_obj_draw.c ****  *      MACROS
  33:Middlewares/lvgl/src/core/lv_obj_draw.c ****  **********************/
  34:Middlewares/lvgl/src/core/lv_obj_draw.c **** 
  35:Middlewares/lvgl/src/core/lv_obj_draw.c **** /**********************
  36:Middlewares/lvgl/src/core/lv_obj_draw.c ****  *   GLOBAL FUNCTIONS
  37:Middlewares/lvgl/src/core/lv_obj_draw.c ****  **********************/
  38:Middlewares/lvgl/src/core/lv_obj_draw.c **** 
  39:Middlewares/lvgl/src/core/lv_obj_draw.c **** void lv_obj_init_draw_rect_dsc(lv_obj_t * obj, uint32_t part, lv_draw_rect_dsc_t * draw_dsc)
  40:Middlewares/lvgl/src/core/lv_obj_draw.c **** {
  29              		.loc 1 40 1 view -0
  30              		.cfi_startproc
  31              		@ args = 0, pretend = 0, frame = 0
  32              		@ frame_needed = 0, uses_anonymous_args = 0
  33              		.loc 1 40 1 is_stmt 0 view .LVU1
  34 0000 2DE9F041 		push	{r4, r5, r6, r7, r8, lr}
  35              	.LCFI0:
  36              		.cfi_def_cfa_offset 24
  37              		.cfi_offset 4, -24
  38              		.cfi_offset 5, -20
  39              		.cfi_offset 6, -16
  40              		.cfi_offset 7, -12
  41              		.cfi_offset 8, -8
  42              		.cfi_offset 14, -4
  43 0004 0646     		mov	r6, r0
  44 0006 0D46     		mov	r5, r1
  45 0008 1446     		mov	r4, r2
  41:Middlewares/lvgl/src/core/lv_obj_draw.c **** 
  42:Middlewares/lvgl/src/core/lv_obj_draw.c **** #if LV_DRAW_COMPLEX
  43:Middlewares/lvgl/src/core/lv_obj_draw.c ****     draw_dsc->radius = lv_obj_get_style_radius(obj, part);
  46              		.loc 1 43 5 is_stmt 1 view .LVU2
  47              	.LVL1:
  48              	.LBB150:
  49              	.LBI150:
  50              		.file 2 "Middlewares/lvgl/src/core/lv_obj_style_gen.h"
   1:Middlewares/lvgl/src/core/lv_obj_style_gen.h **** static inline lv_coord_t lv_obj_get_style_width(const struct _lv_obj_t * obj, uint32_t part)
   2:Middlewares/lvgl/src/core/lv_obj_style_gen.h **** {
   3:Middlewares/lvgl/src/core/lv_obj_style_gen.h ****     lv_style_value_t v = lv_obj_get_style_prop(obj, part, LV_STYLE_WIDTH);
   4:Middlewares/lvgl/src/core/lv_obj_style_gen.h ****     return (lv_coord_t)v.num;
   5:Middlewares/lvgl/src/core/lv_obj_style_gen.h **** }
   6:Middlewares/lvgl/src/core/lv_obj_style_gen.h **** 
   7:Middlewares/lvgl/src/core/lv_obj_style_gen.h **** static inline lv_coord_t lv_obj_get_style_min_width(const struct _lv_obj_t * obj, uint32_t part)
   8:Middlewares/lvgl/src/core/lv_obj_style_gen.h **** {
   9:Middlewares/lvgl/src/core/lv_obj_style_gen.h ****     lv_style_value_t v = lv_obj_get_style_prop(obj, part, LV_STYLE_MIN_WIDTH);
  10:Middlewares/lvgl/src/core/lv_obj_style_gen.h ****     return (lv_coord_t)v.num;
  11:Middlewares/lvgl/src/core/lv_obj_style_gen.h **** }
  12:Middlewares/lvgl/src/core/lv_obj_style_gen.h **** 
  13:Middlewares/lvgl/src/core/lv_obj_style_gen.h **** static inline lv_coord_t lv_obj_get_style_max_width(const struct _lv_obj_t * obj, uint32_t part)
  14:Middlewares/lvgl/src/core/lv_obj_style_gen.h **** {
  15:Middlewares/lvgl/src/core/lv_obj_style_gen.h ****     lv_style_value_t v = lv_obj_get_style_prop(obj, part, LV_STYLE_MAX_WIDTH);
  16:Middlewares/lvgl/src/core/lv_obj_style_gen.h ****     return (lv_coord_t)v.num;
  17:Middlewares/lvgl/src/core/lv_obj_style_gen.h **** }
  18:Middlewares/lvgl/src/core/lv_obj_style_gen.h **** 
  19:Middlewares/lvgl/src/core/lv_obj_style_gen.h **** static inline lv_coord_t lv_obj_get_style_height(const struct _lv_obj_t * obj, uint32_t part)
  20:Middlewares/lvgl/src/core/lv_obj_style_gen.h **** {
  21:Middlewares/lvgl/src/core/lv_obj_style_gen.h ****     lv_style_value_t v = lv_obj_get_style_prop(obj, part, LV_STYLE_HEIGHT);
  22:Middlewares/lvgl/src/core/lv_obj_style_gen.h ****     return (lv_coord_t)v.num;
ARM GAS  /tmp/ccXWhpqg.s 			page 3


  23:Middlewares/lvgl/src/core/lv_obj_style_gen.h **** }
  24:Middlewares/lvgl/src/core/lv_obj_style_gen.h **** 
  25:Middlewares/lvgl/src/core/lv_obj_style_gen.h **** static inline lv_coord_t lv_obj_get_style_min_height(const struct _lv_obj_t * obj, uint32_t part)
  26:Middlewares/lvgl/src/core/lv_obj_style_gen.h **** {
  27:Middlewares/lvgl/src/core/lv_obj_style_gen.h ****     lv_style_value_t v = lv_obj_get_style_prop(obj, part, LV_STYLE_MIN_HEIGHT);
  28:Middlewares/lvgl/src/core/lv_obj_style_gen.h ****     return (lv_coord_t)v.num;
  29:Middlewares/lvgl/src/core/lv_obj_style_gen.h **** }
  30:Middlewares/lvgl/src/core/lv_obj_style_gen.h **** 
  31:Middlewares/lvgl/src/core/lv_obj_style_gen.h **** static inline lv_coord_t lv_obj_get_style_max_height(const struct _lv_obj_t * obj, uint32_t part)
  32:Middlewares/lvgl/src/core/lv_obj_style_gen.h **** {
  33:Middlewares/lvgl/src/core/lv_obj_style_gen.h ****     lv_style_value_t v = lv_obj_get_style_prop(obj, part, LV_STYLE_MAX_HEIGHT);
  34:Middlewares/lvgl/src/core/lv_obj_style_gen.h ****     return (lv_coord_t)v.num;
  35:Middlewares/lvgl/src/core/lv_obj_style_gen.h **** }
  36:Middlewares/lvgl/src/core/lv_obj_style_gen.h **** 
  37:Middlewares/lvgl/src/core/lv_obj_style_gen.h **** static inline lv_coord_t lv_obj_get_style_x(const struct _lv_obj_t * obj, uint32_t part)
  38:Middlewares/lvgl/src/core/lv_obj_style_gen.h **** {
  39:Middlewares/lvgl/src/core/lv_obj_style_gen.h ****     lv_style_value_t v = lv_obj_get_style_prop(obj, part, LV_STYLE_X);
  40:Middlewares/lvgl/src/core/lv_obj_style_gen.h ****     return (lv_coord_t)v.num;
  41:Middlewares/lvgl/src/core/lv_obj_style_gen.h **** }
  42:Middlewares/lvgl/src/core/lv_obj_style_gen.h **** 
  43:Middlewares/lvgl/src/core/lv_obj_style_gen.h **** static inline lv_coord_t lv_obj_get_style_y(const struct _lv_obj_t * obj, uint32_t part)
  44:Middlewares/lvgl/src/core/lv_obj_style_gen.h **** {
  45:Middlewares/lvgl/src/core/lv_obj_style_gen.h ****     lv_style_value_t v = lv_obj_get_style_prop(obj, part, LV_STYLE_Y);
  46:Middlewares/lvgl/src/core/lv_obj_style_gen.h ****     return (lv_coord_t)v.num;
  47:Middlewares/lvgl/src/core/lv_obj_style_gen.h **** }
  48:Middlewares/lvgl/src/core/lv_obj_style_gen.h **** 
  49:Middlewares/lvgl/src/core/lv_obj_style_gen.h **** static inline lv_align_t lv_obj_get_style_align(const struct _lv_obj_t * obj, uint32_t part)
  50:Middlewares/lvgl/src/core/lv_obj_style_gen.h **** {
  51:Middlewares/lvgl/src/core/lv_obj_style_gen.h ****     lv_style_value_t v = lv_obj_get_style_prop(obj, part, LV_STYLE_ALIGN);
  52:Middlewares/lvgl/src/core/lv_obj_style_gen.h ****     return (lv_align_t)v.num;
  53:Middlewares/lvgl/src/core/lv_obj_style_gen.h **** }
  54:Middlewares/lvgl/src/core/lv_obj_style_gen.h **** 
  55:Middlewares/lvgl/src/core/lv_obj_style_gen.h **** static inline lv_coord_t lv_obj_get_style_transform_width(const struct _lv_obj_t * obj, uint32_t pa
  56:Middlewares/lvgl/src/core/lv_obj_style_gen.h **** {
  57:Middlewares/lvgl/src/core/lv_obj_style_gen.h ****     lv_style_value_t v = lv_obj_get_style_prop(obj, part, LV_STYLE_TRANSFORM_WIDTH);
  58:Middlewares/lvgl/src/core/lv_obj_style_gen.h ****     return (lv_coord_t)v.num;
  59:Middlewares/lvgl/src/core/lv_obj_style_gen.h **** }
  60:Middlewares/lvgl/src/core/lv_obj_style_gen.h **** 
  61:Middlewares/lvgl/src/core/lv_obj_style_gen.h **** static inline lv_coord_t lv_obj_get_style_transform_height(const struct _lv_obj_t * obj, uint32_t p
  62:Middlewares/lvgl/src/core/lv_obj_style_gen.h **** {
  63:Middlewares/lvgl/src/core/lv_obj_style_gen.h ****     lv_style_value_t v = lv_obj_get_style_prop(obj, part, LV_STYLE_TRANSFORM_HEIGHT);
  64:Middlewares/lvgl/src/core/lv_obj_style_gen.h ****     return (lv_coord_t)v.num;
  65:Middlewares/lvgl/src/core/lv_obj_style_gen.h **** }
  66:Middlewares/lvgl/src/core/lv_obj_style_gen.h **** 
  67:Middlewares/lvgl/src/core/lv_obj_style_gen.h **** static inline lv_coord_t lv_obj_get_style_translate_x(const struct _lv_obj_t * obj, uint32_t part)
  68:Middlewares/lvgl/src/core/lv_obj_style_gen.h **** {
  69:Middlewares/lvgl/src/core/lv_obj_style_gen.h ****     lv_style_value_t v = lv_obj_get_style_prop(obj, part, LV_STYLE_TRANSLATE_X);
  70:Middlewares/lvgl/src/core/lv_obj_style_gen.h ****     return (lv_coord_t)v.num;
  71:Middlewares/lvgl/src/core/lv_obj_style_gen.h **** }
  72:Middlewares/lvgl/src/core/lv_obj_style_gen.h **** 
  73:Middlewares/lvgl/src/core/lv_obj_style_gen.h **** static inline lv_coord_t lv_obj_get_style_translate_y(const struct _lv_obj_t * obj, uint32_t part)
  74:Middlewares/lvgl/src/core/lv_obj_style_gen.h **** {
  75:Middlewares/lvgl/src/core/lv_obj_style_gen.h ****     lv_style_value_t v = lv_obj_get_style_prop(obj, part, LV_STYLE_TRANSLATE_Y);
  76:Middlewares/lvgl/src/core/lv_obj_style_gen.h ****     return (lv_coord_t)v.num;
  77:Middlewares/lvgl/src/core/lv_obj_style_gen.h **** }
  78:Middlewares/lvgl/src/core/lv_obj_style_gen.h **** 
  79:Middlewares/lvgl/src/core/lv_obj_style_gen.h **** static inline lv_coord_t lv_obj_get_style_transform_zoom(const struct _lv_obj_t * obj, uint32_t par
ARM GAS  /tmp/ccXWhpqg.s 			page 4


  80:Middlewares/lvgl/src/core/lv_obj_style_gen.h **** {
  81:Middlewares/lvgl/src/core/lv_obj_style_gen.h ****     lv_style_value_t v = lv_obj_get_style_prop(obj, part, LV_STYLE_TRANSFORM_ZOOM);
  82:Middlewares/lvgl/src/core/lv_obj_style_gen.h ****     return (lv_coord_t)v.num;
  83:Middlewares/lvgl/src/core/lv_obj_style_gen.h **** }
  84:Middlewares/lvgl/src/core/lv_obj_style_gen.h **** 
  85:Middlewares/lvgl/src/core/lv_obj_style_gen.h **** static inline lv_coord_t lv_obj_get_style_transform_angle(const struct _lv_obj_t * obj, uint32_t pa
  86:Middlewares/lvgl/src/core/lv_obj_style_gen.h **** {
  87:Middlewares/lvgl/src/core/lv_obj_style_gen.h ****     lv_style_value_t v = lv_obj_get_style_prop(obj, part, LV_STYLE_TRANSFORM_ANGLE);
  88:Middlewares/lvgl/src/core/lv_obj_style_gen.h ****     return (lv_coord_t)v.num;
  89:Middlewares/lvgl/src/core/lv_obj_style_gen.h **** }
  90:Middlewares/lvgl/src/core/lv_obj_style_gen.h **** 
  91:Middlewares/lvgl/src/core/lv_obj_style_gen.h **** static inline lv_coord_t lv_obj_get_style_pad_top(const struct _lv_obj_t * obj, uint32_t part)
  92:Middlewares/lvgl/src/core/lv_obj_style_gen.h **** {
  93:Middlewares/lvgl/src/core/lv_obj_style_gen.h ****     lv_style_value_t v = lv_obj_get_style_prop(obj, part, LV_STYLE_PAD_TOP);
  94:Middlewares/lvgl/src/core/lv_obj_style_gen.h ****     return (lv_coord_t)v.num;
  95:Middlewares/lvgl/src/core/lv_obj_style_gen.h **** }
  96:Middlewares/lvgl/src/core/lv_obj_style_gen.h **** 
  97:Middlewares/lvgl/src/core/lv_obj_style_gen.h **** static inline lv_coord_t lv_obj_get_style_pad_bottom(const struct _lv_obj_t * obj, uint32_t part)
  98:Middlewares/lvgl/src/core/lv_obj_style_gen.h **** {
  99:Middlewares/lvgl/src/core/lv_obj_style_gen.h ****     lv_style_value_t v = lv_obj_get_style_prop(obj, part, LV_STYLE_PAD_BOTTOM);
 100:Middlewares/lvgl/src/core/lv_obj_style_gen.h ****     return (lv_coord_t)v.num;
 101:Middlewares/lvgl/src/core/lv_obj_style_gen.h **** }
 102:Middlewares/lvgl/src/core/lv_obj_style_gen.h **** 
 103:Middlewares/lvgl/src/core/lv_obj_style_gen.h **** static inline lv_coord_t lv_obj_get_style_pad_left(const struct _lv_obj_t * obj, uint32_t part)
 104:Middlewares/lvgl/src/core/lv_obj_style_gen.h **** {
 105:Middlewares/lvgl/src/core/lv_obj_style_gen.h ****     lv_style_value_t v = lv_obj_get_style_prop(obj, part, LV_STYLE_PAD_LEFT);
 106:Middlewares/lvgl/src/core/lv_obj_style_gen.h ****     return (lv_coord_t)v.num;
 107:Middlewares/lvgl/src/core/lv_obj_style_gen.h **** }
 108:Middlewares/lvgl/src/core/lv_obj_style_gen.h **** 
 109:Middlewares/lvgl/src/core/lv_obj_style_gen.h **** static inline lv_coord_t lv_obj_get_style_pad_right(const struct _lv_obj_t * obj, uint32_t part)
 110:Middlewares/lvgl/src/core/lv_obj_style_gen.h **** {
 111:Middlewares/lvgl/src/core/lv_obj_style_gen.h ****     lv_style_value_t v = lv_obj_get_style_prop(obj, part, LV_STYLE_PAD_RIGHT);
 112:Middlewares/lvgl/src/core/lv_obj_style_gen.h ****     return (lv_coord_t)v.num;
 113:Middlewares/lvgl/src/core/lv_obj_style_gen.h **** }
 114:Middlewares/lvgl/src/core/lv_obj_style_gen.h **** 
 115:Middlewares/lvgl/src/core/lv_obj_style_gen.h **** static inline lv_coord_t lv_obj_get_style_pad_row(const struct _lv_obj_t * obj, uint32_t part)
 116:Middlewares/lvgl/src/core/lv_obj_style_gen.h **** {
 117:Middlewares/lvgl/src/core/lv_obj_style_gen.h ****     lv_style_value_t v = lv_obj_get_style_prop(obj, part, LV_STYLE_PAD_ROW);
 118:Middlewares/lvgl/src/core/lv_obj_style_gen.h ****     return (lv_coord_t)v.num;
 119:Middlewares/lvgl/src/core/lv_obj_style_gen.h **** }
 120:Middlewares/lvgl/src/core/lv_obj_style_gen.h **** 
 121:Middlewares/lvgl/src/core/lv_obj_style_gen.h **** static inline lv_coord_t lv_obj_get_style_pad_column(const struct _lv_obj_t * obj, uint32_t part)
 122:Middlewares/lvgl/src/core/lv_obj_style_gen.h **** {
 123:Middlewares/lvgl/src/core/lv_obj_style_gen.h ****     lv_style_value_t v = lv_obj_get_style_prop(obj, part, LV_STYLE_PAD_COLUMN);
 124:Middlewares/lvgl/src/core/lv_obj_style_gen.h ****     return (lv_coord_t)v.num;
 125:Middlewares/lvgl/src/core/lv_obj_style_gen.h **** }
 126:Middlewares/lvgl/src/core/lv_obj_style_gen.h **** 
 127:Middlewares/lvgl/src/core/lv_obj_style_gen.h **** static inline lv_coord_t lv_obj_get_style_radius(const struct _lv_obj_t * obj, uint32_t part)
  51              		.loc 2 127 26 view .LVU3
  52              	.LBB151:
 128:Middlewares/lvgl/src/core/lv_obj_style_gen.h **** {
 129:Middlewares/lvgl/src/core/lv_obj_style_gen.h ****     lv_style_value_t v = lv_obj_get_style_prop(obj, part, LV_STYLE_RADIUS);
  53              		.loc 2 129 5 view .LVU4
  54              		.loc 2 129 26 is_stmt 0 view .LVU5
  55 000a 6022     		movs	r2, #96
  56              	.LVL2:
  57              		.loc 2 129 26 view .LVU6
ARM GAS  /tmp/ccXWhpqg.s 			page 5


  58 000c FFF7FEFF 		bl	lv_obj_get_style_prop
  59              	.LVL3:
 130:Middlewares/lvgl/src/core/lv_obj_style_gen.h ****     return (lv_coord_t)v.num;
  60              		.loc 2 130 5 is_stmt 1 view .LVU7
  61              		.loc 2 130 5 is_stmt 0 view .LVU8
  62              	.LBE151:
  63              	.LBE150:
  64              		.loc 1 43 22 view .LVU9
  65 0010 2080     		strh	r0, [r4]	@ movhi
  44:Middlewares/lvgl/src/core/lv_obj_draw.c **** 
  45:Middlewares/lvgl/src/core/lv_obj_draw.c ****     lv_opa_t main_opa = part != LV_PART_MAIN ? lv_obj_get_style_opa(obj, part) : LV_OPA_COVER;
  66              		.loc 1 45 5 is_stmt 1 view .LVU10
  67              		.loc 1 45 14 is_stmt 0 view .LVU11
  68 0012 B5B9     		cbnz	r5, .L14
  69 0014 4FF0FF08 		mov	r8, #255
  70              	.L2:
  71              	.LVL4:
  46:Middlewares/lvgl/src/core/lv_obj_draw.c ****     lv_opa_t opa = lv_obj_get_style_opa(obj, part);
  72              		.loc 1 46 5 is_stmt 1 discriminator 4 view .LVU12
  73              	.LBB152:
  74              	.LBI152:
 131:Middlewares/lvgl/src/core/lv_obj_style_gen.h **** }
 132:Middlewares/lvgl/src/core/lv_obj_style_gen.h **** 
 133:Middlewares/lvgl/src/core/lv_obj_style_gen.h **** static inline bool lv_obj_get_style_clip_corner(const struct _lv_obj_t * obj, uint32_t part)
 134:Middlewares/lvgl/src/core/lv_obj_style_gen.h **** {
 135:Middlewares/lvgl/src/core/lv_obj_style_gen.h ****     lv_style_value_t v = lv_obj_get_style_prop(obj, part, LV_STYLE_CLIP_CORNER);
 136:Middlewares/lvgl/src/core/lv_obj_style_gen.h ****     return (bool)v.num;
 137:Middlewares/lvgl/src/core/lv_obj_style_gen.h **** }
 138:Middlewares/lvgl/src/core/lv_obj_style_gen.h **** 
 139:Middlewares/lvgl/src/core/lv_obj_style_gen.h **** static inline lv_opa_t lv_obj_get_style_opa(const struct _lv_obj_t * obj, uint32_t part)
  75              		.loc 2 139 24 discriminator 4 view .LVU13
  76              	.LBB153:
 140:Middlewares/lvgl/src/core/lv_obj_style_gen.h **** {
 141:Middlewares/lvgl/src/core/lv_obj_style_gen.h ****     lv_style_value_t v = lv_obj_get_style_prop(obj, part, LV_STYLE_OPA);
  77              		.loc 2 141 5 discriminator 4 view .LVU14
  78              		.loc 2 141 26 is_stmt 0 discriminator 4 view .LVU15
  79 0018 40F26242 		movw	r2, #1122
  80 001c 2946     		mov	r1, r5
  81 001e 3046     		mov	r0, r6
  82 0020 FFF7FEFF 		bl	lv_obj_get_style_prop
  83              	.LVL5:
 142:Middlewares/lvgl/src/core/lv_obj_style_gen.h ****     return (lv_opa_t)v.num;
  84              		.loc 2 142 5 is_stmt 1 discriminator 4 view .LVU16
  85              		.loc 2 142 12 is_stmt 0 discriminator 4 view .LVU17
  86 0024 C7B2     		uxtb	r7, r0
  87              	.LVL6:
  88              		.loc 2 142 12 discriminator 4 view .LVU18
  89              	.LBE153:
  90              	.LBE152:
  47:Middlewares/lvgl/src/core/lv_obj_draw.c ****     if(opa <= LV_OPA_MIN || main_opa <= LV_OPA_MIN) {
  91              		.loc 1 47 5 is_stmt 1 discriminator 4 view .LVU19
  92              		.loc 1 47 7 is_stmt 0 discriminator 4 view .LVU20
  93 0026 B8F1020F 		cmp	r8, #2
  94 002a 88BF     		it	hi
  95 002c 022F     		cmphi	r7, #2
  96 002e 11D8     		bhi	.L3
  48:Middlewares/lvgl/src/core/lv_obj_draw.c ****         draw_dsc->bg_opa = LV_OPA_TRANSP;
ARM GAS  /tmp/ccXWhpqg.s 			page 6


  97              		.loc 1 48 9 is_stmt 1 view .LVU21
  98              		.loc 1 48 26 is_stmt 0 view .LVU22
  99 0030 0023     		movs	r3, #0
 100 0032 A372     		strb	r3, [r4, #10]
  49:Middlewares/lvgl/src/core/lv_obj_draw.c ****         draw_dsc->border_opa = LV_OPA_TRANSP;
 101              		.loc 1 49 9 is_stmt 1 view .LVU23
 102              		.loc 1 49 30 is_stmt 0 view .LVU24
 103 0034 A377     		strb	r3, [r4, #30]
  50:Middlewares/lvgl/src/core/lv_obj_draw.c ****         draw_dsc->shadow_opa = LV_OPA_TRANSP;
 104              		.loc 1 50 9 is_stmt 1 view .LVU25
 105              		.loc 1 50 30 is_stmt 0 view .LVU26
 106 0036 84F83230 		strb	r3, [r4, #50]
  51:Middlewares/lvgl/src/core/lv_obj_draw.c ****         draw_dsc->outline_opa = LV_OPA_TRANSP;
 107              		.loc 1 51 9 is_stmt 1 view .LVU27
 108              		.loc 1 51 31 is_stmt 0 view .LVU28
 109 003a 84F82630 		strb	r3, [r4, #38]
  52:Middlewares/lvgl/src/core/lv_obj_draw.c ****         return;
 110              		.loc 1 52 9 is_stmt 1 view .LVU29
 111              	.LVL7:
 112              	.L1:
  53:Middlewares/lvgl/src/core/lv_obj_draw.c ****     }
  54:Middlewares/lvgl/src/core/lv_obj_draw.c **** 
  55:Middlewares/lvgl/src/core/lv_obj_draw.c ****     draw_dsc->blend_mode = lv_obj_get_style_blend_mode(obj, part);
  56:Middlewares/lvgl/src/core/lv_obj_draw.c **** 
  57:Middlewares/lvgl/src/core/lv_obj_draw.c ****     if(draw_dsc->bg_opa != LV_OPA_TRANSP) {
  58:Middlewares/lvgl/src/core/lv_obj_draw.c ****         draw_dsc->bg_opa = lv_obj_get_style_bg_opa(obj, part);
  59:Middlewares/lvgl/src/core/lv_obj_draw.c ****         if(draw_dsc->bg_opa > LV_OPA_MIN) {
  60:Middlewares/lvgl/src/core/lv_obj_draw.c ****             draw_dsc->bg_color = lv_obj_get_style_bg_color_filtered(obj, part);
  61:Middlewares/lvgl/src/core/lv_obj_draw.c ****             draw_dsc->bg_grad_dir =  lv_obj_get_style_bg_grad_dir(obj, part);
  62:Middlewares/lvgl/src/core/lv_obj_draw.c ****             if(draw_dsc->bg_grad_dir != LV_GRAD_DIR_NONE) {
  63:Middlewares/lvgl/src/core/lv_obj_draw.c ****                 draw_dsc->bg_grad_color = lv_obj_get_style_bg_grad_color_filtered(obj, part);
  64:Middlewares/lvgl/src/core/lv_obj_draw.c ****                 draw_dsc->bg_main_color_stop =  lv_obj_get_style_bg_main_stop(obj, part);
  65:Middlewares/lvgl/src/core/lv_obj_draw.c ****                 draw_dsc->bg_grad_color_stop =  lv_obj_get_style_bg_grad_stop(obj, part);
  66:Middlewares/lvgl/src/core/lv_obj_draw.c ****             }
  67:Middlewares/lvgl/src/core/lv_obj_draw.c ****         }
  68:Middlewares/lvgl/src/core/lv_obj_draw.c ****     }
  69:Middlewares/lvgl/src/core/lv_obj_draw.c **** 
  70:Middlewares/lvgl/src/core/lv_obj_draw.c ****     draw_dsc->border_width = lv_obj_get_style_border_width(obj, part);
  71:Middlewares/lvgl/src/core/lv_obj_draw.c ****     if(draw_dsc->border_width) {
  72:Middlewares/lvgl/src/core/lv_obj_draw.c ****         if(draw_dsc->border_opa != LV_OPA_TRANSP) {
  73:Middlewares/lvgl/src/core/lv_obj_draw.c ****             draw_dsc->border_opa = lv_obj_get_style_border_opa(obj, part);
  74:Middlewares/lvgl/src/core/lv_obj_draw.c ****             if(draw_dsc->border_opa > LV_OPA_MIN) {
  75:Middlewares/lvgl/src/core/lv_obj_draw.c ****                 draw_dsc->border_side = lv_obj_get_style_border_side(obj, part);
  76:Middlewares/lvgl/src/core/lv_obj_draw.c ****                 draw_dsc->border_color = lv_obj_get_style_border_color_filtered(obj, part);
  77:Middlewares/lvgl/src/core/lv_obj_draw.c ****             }
  78:Middlewares/lvgl/src/core/lv_obj_draw.c ****         }
  79:Middlewares/lvgl/src/core/lv_obj_draw.c ****     }
  80:Middlewares/lvgl/src/core/lv_obj_draw.c **** 
  81:Middlewares/lvgl/src/core/lv_obj_draw.c ****     draw_dsc->outline_width = lv_obj_get_style_outline_width(obj, part);
  82:Middlewares/lvgl/src/core/lv_obj_draw.c ****     if(draw_dsc->outline_width) {
  83:Middlewares/lvgl/src/core/lv_obj_draw.c ****         if(draw_dsc->outline_opa != LV_OPA_TRANSP) {
  84:Middlewares/lvgl/src/core/lv_obj_draw.c ****             draw_dsc->outline_opa = lv_obj_get_style_outline_opa(obj, part);
  85:Middlewares/lvgl/src/core/lv_obj_draw.c ****             if(draw_dsc->outline_opa > LV_OPA_MIN) {
  86:Middlewares/lvgl/src/core/lv_obj_draw.c ****                 draw_dsc->outline_pad = lv_obj_get_style_outline_pad(obj, part);
  87:Middlewares/lvgl/src/core/lv_obj_draw.c ****                 draw_dsc->outline_color = lv_obj_get_style_outline_color(obj, part);
  88:Middlewares/lvgl/src/core/lv_obj_draw.c ****             }
  89:Middlewares/lvgl/src/core/lv_obj_draw.c ****         }
ARM GAS  /tmp/ccXWhpqg.s 			page 7


  90:Middlewares/lvgl/src/core/lv_obj_draw.c ****     }
  91:Middlewares/lvgl/src/core/lv_obj_draw.c **** 
  92:Middlewares/lvgl/src/core/lv_obj_draw.c ****     if(draw_dsc->bg_img_opa != LV_OPA_TRANSP) {
  93:Middlewares/lvgl/src/core/lv_obj_draw.c ****         draw_dsc->bg_img_src = lv_obj_get_style_bg_img_src(obj, part);
  94:Middlewares/lvgl/src/core/lv_obj_draw.c ****         if(draw_dsc->bg_img_src) {
  95:Middlewares/lvgl/src/core/lv_obj_draw.c ****             draw_dsc->bg_img_opa = lv_obj_get_style_bg_img_opa(obj, part);
  96:Middlewares/lvgl/src/core/lv_obj_draw.c ****             if(draw_dsc->bg_img_opa > LV_OPA_MIN) {
  97:Middlewares/lvgl/src/core/lv_obj_draw.c ****                 if(lv_img_src_get_type(draw_dsc->bg_img_src) == LV_IMG_SRC_SYMBOL) {
  98:Middlewares/lvgl/src/core/lv_obj_draw.c ****                     draw_dsc->bg_img_symbol_font= lv_obj_get_style_text_font(obj, part);
  99:Middlewares/lvgl/src/core/lv_obj_draw.c ****                     draw_dsc->bg_img_recolor = lv_obj_get_style_text_color(obj, part);
 100:Middlewares/lvgl/src/core/lv_obj_draw.c ****                 } else {
 101:Middlewares/lvgl/src/core/lv_obj_draw.c ****                     draw_dsc->bg_img_recolor = lv_obj_get_style_bg_img_recolor(obj, part);
 102:Middlewares/lvgl/src/core/lv_obj_draw.c ****                     draw_dsc->bg_img_recolor_opa = lv_obj_get_style_bg_img_recolor_opa(obj, part);
 103:Middlewares/lvgl/src/core/lv_obj_draw.c ****                     draw_dsc->bg_img_tiled = lv_obj_get_style_bg_img_tiled(obj, part);
 104:Middlewares/lvgl/src/core/lv_obj_draw.c ****                 }
 105:Middlewares/lvgl/src/core/lv_obj_draw.c ****             }
 106:Middlewares/lvgl/src/core/lv_obj_draw.c ****         }
 107:Middlewares/lvgl/src/core/lv_obj_draw.c ****     }
 108:Middlewares/lvgl/src/core/lv_obj_draw.c **** 
 109:Middlewares/lvgl/src/core/lv_obj_draw.c ****     if(draw_dsc->shadow_opa) {
 110:Middlewares/lvgl/src/core/lv_obj_draw.c ****         draw_dsc->shadow_width = lv_obj_get_style_shadow_width(obj, part);
 111:Middlewares/lvgl/src/core/lv_obj_draw.c ****         if(draw_dsc->shadow_width) {
 112:Middlewares/lvgl/src/core/lv_obj_draw.c ****             if(draw_dsc->shadow_opa > LV_OPA_MIN) {
 113:Middlewares/lvgl/src/core/lv_obj_draw.c ****                 draw_dsc->shadow_opa = lv_obj_get_style_shadow_opa(obj, part);
 114:Middlewares/lvgl/src/core/lv_obj_draw.c ****                 if(draw_dsc->shadow_opa > LV_OPA_MIN) {
 115:Middlewares/lvgl/src/core/lv_obj_draw.c ****                     draw_dsc->shadow_ofs_x = lv_obj_get_style_shadow_ofs_x(obj, part);
 116:Middlewares/lvgl/src/core/lv_obj_draw.c ****                     draw_dsc->shadow_ofs_y = lv_obj_get_style_shadow_ofs_y(obj, part);
 117:Middlewares/lvgl/src/core/lv_obj_draw.c ****                     draw_dsc->shadow_spread = lv_obj_get_style_shadow_spread(obj, part);
 118:Middlewares/lvgl/src/core/lv_obj_draw.c ****                     draw_dsc->shadow_color = lv_obj_get_style_shadow_color_filtered(obj, part);
 119:Middlewares/lvgl/src/core/lv_obj_draw.c ****                 }
 120:Middlewares/lvgl/src/core/lv_obj_draw.c ****             }
 121:Middlewares/lvgl/src/core/lv_obj_draw.c ****         }
 122:Middlewares/lvgl/src/core/lv_obj_draw.c ****     }
 123:Middlewares/lvgl/src/core/lv_obj_draw.c **** 
 124:Middlewares/lvgl/src/core/lv_obj_draw.c ****     if(main_opa < LV_OPA_MAX) {
 125:Middlewares/lvgl/src/core/lv_obj_draw.c ****         opa = (uint16_t)((uint16_t) main_opa * opa) >> 8;
 126:Middlewares/lvgl/src/core/lv_obj_draw.c ****     }
 127:Middlewares/lvgl/src/core/lv_obj_draw.c **** 
 128:Middlewares/lvgl/src/core/lv_obj_draw.c ****     if(opa < LV_OPA_MAX) {
 129:Middlewares/lvgl/src/core/lv_obj_draw.c ****         draw_dsc->bg_opa = (uint16_t)((uint16_t)draw_dsc->bg_opa * opa) >> 8;
 130:Middlewares/lvgl/src/core/lv_obj_draw.c ****         draw_dsc->border_opa = (uint16_t)((uint16_t)draw_dsc->border_opa * opa) >> 8;
 131:Middlewares/lvgl/src/core/lv_obj_draw.c ****         draw_dsc->shadow_opa = (uint16_t)((uint16_t)draw_dsc->shadow_opa * opa) >> 8;
 132:Middlewares/lvgl/src/core/lv_obj_draw.c ****         draw_dsc->outline_opa = (uint16_t)((uint16_t)draw_dsc->outline_opa * opa) >> 8;
 133:Middlewares/lvgl/src/core/lv_obj_draw.c ****     }
 134:Middlewares/lvgl/src/core/lv_obj_draw.c **** #else /*LV_DRAW_COMPLEX*/
 135:Middlewares/lvgl/src/core/lv_obj_draw.c ****     if(draw_dsc->bg_opa != LV_OPA_TRANSP) {
 136:Middlewares/lvgl/src/core/lv_obj_draw.c ****         draw_dsc->bg_opa = lv_obj_get_style_bg_opa(obj, part);
 137:Middlewares/lvgl/src/core/lv_obj_draw.c ****         if(draw_dsc->bg_opa > LV_OPA_MIN) {
 138:Middlewares/lvgl/src/core/lv_obj_draw.c ****             draw_dsc->bg_color = lv_obj_get_style_bg_color_filtered(obj, part);
 139:Middlewares/lvgl/src/core/lv_obj_draw.c ****         }
 140:Middlewares/lvgl/src/core/lv_obj_draw.c ****     }
 141:Middlewares/lvgl/src/core/lv_obj_draw.c **** 
 142:Middlewares/lvgl/src/core/lv_obj_draw.c ****     draw_dsc->border_width = lv_obj_get_style_border_width(obj, part);
 143:Middlewares/lvgl/src/core/lv_obj_draw.c ****     if(draw_dsc->border_width) {
 144:Middlewares/lvgl/src/core/lv_obj_draw.c ****         if(draw_dsc->border_opa != LV_OPA_TRANSP) {
 145:Middlewares/lvgl/src/core/lv_obj_draw.c ****             draw_dsc->border_opa = lv_obj_get_style_border_opa(obj, part);
 146:Middlewares/lvgl/src/core/lv_obj_draw.c ****             if(draw_dsc->border_opa > LV_OPA_MIN) {
ARM GAS  /tmp/ccXWhpqg.s 			page 8


 147:Middlewares/lvgl/src/core/lv_obj_draw.c ****                 draw_dsc->border_color = lv_obj_get_style_border_color_filtered(obj, part);
 148:Middlewares/lvgl/src/core/lv_obj_draw.c ****                 draw_dsc->border_side = lv_obj_get_style_border_side(obj, part);
 149:Middlewares/lvgl/src/core/lv_obj_draw.c ****             }
 150:Middlewares/lvgl/src/core/lv_obj_draw.c ****         }
 151:Middlewares/lvgl/src/core/lv_obj_draw.c ****     }
 152:Middlewares/lvgl/src/core/lv_obj_draw.c **** 
 153:Middlewares/lvgl/src/core/lv_obj_draw.c ****     draw_dsc->outline_width = lv_obj_get_style_outline_width(obj, part);
 154:Middlewares/lvgl/src/core/lv_obj_draw.c ****     if(draw_dsc->outline_width) {
 155:Middlewares/lvgl/src/core/lv_obj_draw.c ****         if(draw_dsc->outline_opa != LV_OPA_TRANSP) {
 156:Middlewares/lvgl/src/core/lv_obj_draw.c ****             draw_dsc->outline_opa = lv_obj_get_style_outline_opa(obj, part);
 157:Middlewares/lvgl/src/core/lv_obj_draw.c ****             if(draw_dsc->outline_opa > LV_OPA_MIN) {
 158:Middlewares/lvgl/src/core/lv_obj_draw.c ****                 draw_dsc->outline_pad = lv_obj_get_style_outline_pad(obj, part);
 159:Middlewares/lvgl/src/core/lv_obj_draw.c ****                 draw_dsc->outline_color = lv_obj_get_style_outline_color(obj, part);
 160:Middlewares/lvgl/src/core/lv_obj_draw.c ****             }
 161:Middlewares/lvgl/src/core/lv_obj_draw.c ****         }
 162:Middlewares/lvgl/src/core/lv_obj_draw.c ****     }
 163:Middlewares/lvgl/src/core/lv_obj_draw.c **** 
 164:Middlewares/lvgl/src/core/lv_obj_draw.c ****     if(draw_dsc->bg_img_opa != LV_OPA_TRANSP) {
 165:Middlewares/lvgl/src/core/lv_obj_draw.c ****         draw_dsc->bg_img_src = lv_obj_get_style_bg_img_src(obj, part);
 166:Middlewares/lvgl/src/core/lv_obj_draw.c ****         if(draw_dsc->bg_img_src) {
 167:Middlewares/lvgl/src/core/lv_obj_draw.c ****             draw_dsc->bg_img_opa = lv_obj_get_style_bg_img_opa(obj, part);
 168:Middlewares/lvgl/src/core/lv_obj_draw.c ****             if(draw_dsc->bg_img_opa > LV_OPA_MIN) {
 169:Middlewares/lvgl/src/core/lv_obj_draw.c ****                 if(lv_img_src_get_type(draw_dsc->bg_img_src) == LV_IMG_SRC_SYMBOL) {
 170:Middlewares/lvgl/src/core/lv_obj_draw.c ****                    draw_dsc->bg_img_symbol_font= lv_obj_get_style_text_font(obj, part);
 171:Middlewares/lvgl/src/core/lv_obj_draw.c ****                    draw_dsc->bg_img_recolor = lv_obj_get_style_text_color(obj, part);
 172:Middlewares/lvgl/src/core/lv_obj_draw.c ****                } else {
 173:Middlewares/lvgl/src/core/lv_obj_draw.c ****                    draw_dsc->bg_img_recolor = lv_obj_get_style_bg_img_recolor(obj, part);
 174:Middlewares/lvgl/src/core/lv_obj_draw.c ****                    draw_dsc->bg_img_recolor_opa = lv_obj_get_style_bg_img_recolor_opa(obj, part);
 175:Middlewares/lvgl/src/core/lv_obj_draw.c ****                    draw_dsc->bg_img_tiled = lv_obj_get_style_bg_img_tiled(obj, part);
 176:Middlewares/lvgl/src/core/lv_obj_draw.c ****                }
 177:Middlewares/lvgl/src/core/lv_obj_draw.c ****             }
 178:Middlewares/lvgl/src/core/lv_obj_draw.c ****         }
 179:Middlewares/lvgl/src/core/lv_obj_draw.c ****     }
 180:Middlewares/lvgl/src/core/lv_obj_draw.c **** #endif
 181:Middlewares/lvgl/src/core/lv_obj_draw.c **** }
 113              		.loc 1 181 1 is_stmt 0 view .LVU30
 114 003e BDE8F081 		pop	{r4, r5, r6, r7, r8, pc}
 115              	.LVL8:
 116              	.L14:
 117              	.LBB154:
 118              	.LBI154:
 139:Middlewares/lvgl/src/core/lv_obj_style_gen.h **** {
 119              		.loc 2 139 24 is_stmt 1 view .LVU31
 120              	.LBB155:
 141:Middlewares/lvgl/src/core/lv_obj_style_gen.h ****     return (lv_opa_t)v.num;
 121              		.loc 2 141 5 view .LVU32
 141:Middlewares/lvgl/src/core/lv_obj_style_gen.h ****     return (lv_opa_t)v.num;
 122              		.loc 2 141 26 is_stmt 0 view .LVU33
 123 0042 40F26242 		movw	r2, #1122
 124 0046 2946     		mov	r1, r5
 125 0048 3046     		mov	r0, r6
 126 004a FFF7FEFF 		bl	lv_obj_get_style_prop
 127              	.LVL9:
 128              		.loc 2 142 5 is_stmt 1 view .LVU34
 129              		.loc 2 142 12 is_stmt 0 view .LVU35
 130 004e 5FFA80F8 		uxtb	r8, r0
 131              	.LVL10:
ARM GAS  /tmp/ccXWhpqg.s 			page 9


 132              		.loc 2 142 12 view .LVU36
 133              	.LBE155:
 134              	.LBE154:
 135 0052 E1E7     		b	.L2
 136              	.LVL11:
 137              	.L3:
  55:Middlewares/lvgl/src/core/lv_obj_draw.c **** 
 138              		.loc 1 55 5 is_stmt 1 view .LVU37
 139              	.LBB156:
 140              	.LBI156:
 143:Middlewares/lvgl/src/core/lv_obj_style_gen.h **** }
 144:Middlewares/lvgl/src/core/lv_obj_style_gen.h **** 
 145:Middlewares/lvgl/src/core/lv_obj_style_gen.h **** static inline const lv_color_filter_dsc_t * lv_obj_get_style_color_filter_dsc(const struct _lv_obj_
 146:Middlewares/lvgl/src/core/lv_obj_style_gen.h **** {
 147:Middlewares/lvgl/src/core/lv_obj_style_gen.h ****     lv_style_value_t v = lv_obj_get_style_prop(obj, part, LV_STYLE_COLOR_FILTER_DSC);
 148:Middlewares/lvgl/src/core/lv_obj_style_gen.h ****     return (const lv_color_filter_dsc_t *)v.ptr;
 149:Middlewares/lvgl/src/core/lv_obj_style_gen.h **** }
 150:Middlewares/lvgl/src/core/lv_obj_style_gen.h **** 
 151:Middlewares/lvgl/src/core/lv_obj_style_gen.h **** static inline lv_opa_t lv_obj_get_style_color_filter_opa(const struct _lv_obj_t * obj, uint32_t par
 152:Middlewares/lvgl/src/core/lv_obj_style_gen.h **** {
 153:Middlewares/lvgl/src/core/lv_obj_style_gen.h ****     lv_style_value_t v = lv_obj_get_style_prop(obj, part, LV_STYLE_COLOR_FILTER_OPA);
 154:Middlewares/lvgl/src/core/lv_obj_style_gen.h ****     return (lv_opa_t)v.num;
 155:Middlewares/lvgl/src/core/lv_obj_style_gen.h **** }
 156:Middlewares/lvgl/src/core/lv_obj_style_gen.h **** 
 157:Middlewares/lvgl/src/core/lv_obj_style_gen.h **** static inline uint32_t lv_obj_get_style_anim_time(const struct _lv_obj_t * obj, uint32_t part)
 158:Middlewares/lvgl/src/core/lv_obj_style_gen.h **** {
 159:Middlewares/lvgl/src/core/lv_obj_style_gen.h ****     lv_style_value_t v = lv_obj_get_style_prop(obj, part, LV_STYLE_ANIM_TIME);
 160:Middlewares/lvgl/src/core/lv_obj_style_gen.h ****     return (uint32_t)v.num;
 161:Middlewares/lvgl/src/core/lv_obj_style_gen.h **** }
 162:Middlewares/lvgl/src/core/lv_obj_style_gen.h **** 
 163:Middlewares/lvgl/src/core/lv_obj_style_gen.h **** static inline uint32_t lv_obj_get_style_anim_speed(const struct _lv_obj_t * obj, uint32_t part)
 164:Middlewares/lvgl/src/core/lv_obj_style_gen.h **** {
 165:Middlewares/lvgl/src/core/lv_obj_style_gen.h ****     lv_style_value_t v = lv_obj_get_style_prop(obj, part, LV_STYLE_ANIM_SPEED);
 166:Middlewares/lvgl/src/core/lv_obj_style_gen.h ****     return (uint32_t)v.num;
 167:Middlewares/lvgl/src/core/lv_obj_style_gen.h **** }
 168:Middlewares/lvgl/src/core/lv_obj_style_gen.h **** 
 169:Middlewares/lvgl/src/core/lv_obj_style_gen.h **** static inline const lv_style_transition_dsc_t * lv_obj_get_style_transition(const struct _lv_obj_t 
 170:Middlewares/lvgl/src/core/lv_obj_style_gen.h **** {
 171:Middlewares/lvgl/src/core/lv_obj_style_gen.h ****     lv_style_value_t v = lv_obj_get_style_prop(obj, part, LV_STYLE_TRANSITION);
 172:Middlewares/lvgl/src/core/lv_obj_style_gen.h ****     return (const lv_style_transition_dsc_t *)v.ptr;
 173:Middlewares/lvgl/src/core/lv_obj_style_gen.h **** }
 174:Middlewares/lvgl/src/core/lv_obj_style_gen.h **** 
 175:Middlewares/lvgl/src/core/lv_obj_style_gen.h **** static inline lv_blend_mode_t lv_obj_get_style_blend_mode(const struct _lv_obj_t * obj, uint32_t pa
 141              		.loc 2 175 31 view .LVU38
 142              	.LBB157:
 176:Middlewares/lvgl/src/core/lv_obj_style_gen.h **** {
 177:Middlewares/lvgl/src/core/lv_obj_style_gen.h ****     lv_style_value_t v = lv_obj_get_style_prop(obj, part, LV_STYLE_BLEND_MODE);
 143              		.loc 2 177 5 view .LVU39
 144              		.loc 2 177 26 is_stmt 0 view .LVU40
 145 0054 6822     		movs	r2, #104
 146 0056 2946     		mov	r1, r5
 147 0058 3046     		mov	r0, r6
 148 005a FFF7FEFF 		bl	lv_obj_get_style_prop
 149              	.LVL12:
 178:Middlewares/lvgl/src/core/lv_obj_style_gen.h ****     return (lv_blend_mode_t)v.num;
 150              		.loc 2 178 5 is_stmt 1 view .LVU41
 151              		.loc 2 178 5 is_stmt 0 view .LVU42
ARM GAS  /tmp/ccXWhpqg.s 			page 10


 152              	.LBE157:
 153              	.LBE156:
  55:Middlewares/lvgl/src/core/lv_obj_draw.c **** 
 154              		.loc 1 55 26 view .LVU43
 155 005e A070     		strb	r0, [r4, #2]
  57:Middlewares/lvgl/src/core/lv_obj_draw.c ****         draw_dsc->bg_opa = lv_obj_get_style_bg_opa(obj, part);
 156              		.loc 1 57 5 is_stmt 1 view .LVU44
  57:Middlewares/lvgl/src/core/lv_obj_draw.c ****         draw_dsc->bg_opa = lv_obj_get_style_bg_opa(obj, part);
 157              		.loc 1 57 16 is_stmt 0 view .LVU45
 158 0060 A37A     		ldrb	r3, [r4, #10]	@ zero_extendqisi2
  57:Middlewares/lvgl/src/core/lv_obj_draw.c ****         draw_dsc->bg_opa = lv_obj_get_style_bg_opa(obj, part);
 159              		.loc 1 57 7 view .LVU46
 160 0062 002B     		cmp	r3, #0
 161 0064 43D1     		bne	.L15
 162              	.L5:
  70:Middlewares/lvgl/src/core/lv_obj_draw.c ****     if(draw_dsc->border_width) {
 163              		.loc 1 70 5 is_stmt 1 view .LVU47
 164              	.LVL13:
 165              	.LBB158:
 166              	.LBI158:
 179:Middlewares/lvgl/src/core/lv_obj_style_gen.h **** }
 180:Middlewares/lvgl/src/core/lv_obj_style_gen.h **** 
 181:Middlewares/lvgl/src/core/lv_obj_style_gen.h **** static inline uint16_t lv_obj_get_style_layout(const struct _lv_obj_t * obj, uint32_t part)
 182:Middlewares/lvgl/src/core/lv_obj_style_gen.h **** {
 183:Middlewares/lvgl/src/core/lv_obj_style_gen.h ****     lv_style_value_t v = lv_obj_get_style_prop(obj, part, LV_STYLE_LAYOUT);
 184:Middlewares/lvgl/src/core/lv_obj_style_gen.h ****     return (uint16_t)v.num;
 185:Middlewares/lvgl/src/core/lv_obj_style_gen.h **** }
 186:Middlewares/lvgl/src/core/lv_obj_style_gen.h **** 
 187:Middlewares/lvgl/src/core/lv_obj_style_gen.h **** static inline lv_base_dir_t lv_obj_get_style_base_dir(const struct _lv_obj_t * obj, uint32_t part)
 188:Middlewares/lvgl/src/core/lv_obj_style_gen.h **** {
 189:Middlewares/lvgl/src/core/lv_obj_style_gen.h ****     lv_style_value_t v = lv_obj_get_style_prop(obj, part, LV_STYLE_BASE_DIR);
 190:Middlewares/lvgl/src/core/lv_obj_style_gen.h ****     return (lv_base_dir_t)v.num;
 191:Middlewares/lvgl/src/core/lv_obj_style_gen.h **** }
 192:Middlewares/lvgl/src/core/lv_obj_style_gen.h **** 
 193:Middlewares/lvgl/src/core/lv_obj_style_gen.h **** static inline lv_color_t lv_obj_get_style_bg_color(const struct _lv_obj_t * obj, uint32_t part)
 194:Middlewares/lvgl/src/core/lv_obj_style_gen.h **** {
 195:Middlewares/lvgl/src/core/lv_obj_style_gen.h ****     lv_style_value_t v = lv_obj_get_style_prop(obj, part, LV_STYLE_BG_COLOR);
 196:Middlewares/lvgl/src/core/lv_obj_style_gen.h ****     return v.color;
 197:Middlewares/lvgl/src/core/lv_obj_style_gen.h **** }
 198:Middlewares/lvgl/src/core/lv_obj_style_gen.h **** 
 199:Middlewares/lvgl/src/core/lv_obj_style_gen.h **** static inline lv_color_t lv_obj_get_style_bg_color_filtered(const struct _lv_obj_t * obj, uint32_t 
 200:Middlewares/lvgl/src/core/lv_obj_style_gen.h **** {
 201:Middlewares/lvgl/src/core/lv_obj_style_gen.h ****     lv_style_value_t v = lv_obj_get_style_prop(obj, part, LV_STYLE_BG_COLOR_FILTERED);
 202:Middlewares/lvgl/src/core/lv_obj_style_gen.h ****     return v.color;
 203:Middlewares/lvgl/src/core/lv_obj_style_gen.h **** }
 204:Middlewares/lvgl/src/core/lv_obj_style_gen.h **** 
 205:Middlewares/lvgl/src/core/lv_obj_style_gen.h **** static inline lv_opa_t lv_obj_get_style_bg_opa(const struct _lv_obj_t * obj, uint32_t part)
 206:Middlewares/lvgl/src/core/lv_obj_style_gen.h **** {
 207:Middlewares/lvgl/src/core/lv_obj_style_gen.h ****     lv_style_value_t v = lv_obj_get_style_prop(obj, part, LV_STYLE_BG_OPA);
 208:Middlewares/lvgl/src/core/lv_obj_style_gen.h ****     return (lv_opa_t)v.num;
 209:Middlewares/lvgl/src/core/lv_obj_style_gen.h **** }
 210:Middlewares/lvgl/src/core/lv_obj_style_gen.h **** 
 211:Middlewares/lvgl/src/core/lv_obj_style_gen.h **** static inline lv_color_t lv_obj_get_style_bg_grad_color(const struct _lv_obj_t * obj, uint32_t part
 212:Middlewares/lvgl/src/core/lv_obj_style_gen.h **** {
 213:Middlewares/lvgl/src/core/lv_obj_style_gen.h ****     lv_style_value_t v = lv_obj_get_style_prop(obj, part, LV_STYLE_BG_GRAD_COLOR);
 214:Middlewares/lvgl/src/core/lv_obj_style_gen.h ****     return v.color;
 215:Middlewares/lvgl/src/core/lv_obj_style_gen.h **** }
ARM GAS  /tmp/ccXWhpqg.s 			page 11


 216:Middlewares/lvgl/src/core/lv_obj_style_gen.h **** 
 217:Middlewares/lvgl/src/core/lv_obj_style_gen.h **** static inline lv_color_t lv_obj_get_style_bg_grad_color_filtered(const struct _lv_obj_t * obj, uint
 218:Middlewares/lvgl/src/core/lv_obj_style_gen.h **** {
 219:Middlewares/lvgl/src/core/lv_obj_style_gen.h ****     lv_style_value_t v = lv_obj_get_style_prop(obj, part, LV_STYLE_BG_GRAD_COLOR_FILTERED);
 220:Middlewares/lvgl/src/core/lv_obj_style_gen.h ****     return v.color;
 221:Middlewares/lvgl/src/core/lv_obj_style_gen.h **** }
 222:Middlewares/lvgl/src/core/lv_obj_style_gen.h **** 
 223:Middlewares/lvgl/src/core/lv_obj_style_gen.h **** static inline lv_grad_dir_t lv_obj_get_style_bg_grad_dir(const struct _lv_obj_t * obj, uint32_t par
 224:Middlewares/lvgl/src/core/lv_obj_style_gen.h **** {
 225:Middlewares/lvgl/src/core/lv_obj_style_gen.h ****     lv_style_value_t v = lv_obj_get_style_prop(obj, part, LV_STYLE_BG_GRAD_DIR);
 226:Middlewares/lvgl/src/core/lv_obj_style_gen.h ****     return (lv_grad_dir_t)v.num;
 227:Middlewares/lvgl/src/core/lv_obj_style_gen.h **** }
 228:Middlewares/lvgl/src/core/lv_obj_style_gen.h **** 
 229:Middlewares/lvgl/src/core/lv_obj_style_gen.h **** static inline lv_coord_t lv_obj_get_style_bg_main_stop(const struct _lv_obj_t * obj, uint32_t part)
 230:Middlewares/lvgl/src/core/lv_obj_style_gen.h **** {
 231:Middlewares/lvgl/src/core/lv_obj_style_gen.h ****     lv_style_value_t v = lv_obj_get_style_prop(obj, part, LV_STYLE_BG_MAIN_STOP);
 232:Middlewares/lvgl/src/core/lv_obj_style_gen.h ****     return (lv_coord_t)v.num;
 233:Middlewares/lvgl/src/core/lv_obj_style_gen.h **** }
 234:Middlewares/lvgl/src/core/lv_obj_style_gen.h **** 
 235:Middlewares/lvgl/src/core/lv_obj_style_gen.h **** static inline lv_coord_t lv_obj_get_style_bg_grad_stop(const struct _lv_obj_t * obj, uint32_t part)
 236:Middlewares/lvgl/src/core/lv_obj_style_gen.h **** {
 237:Middlewares/lvgl/src/core/lv_obj_style_gen.h ****     lv_style_value_t v = lv_obj_get_style_prop(obj, part, LV_STYLE_BG_GRAD_STOP);
 238:Middlewares/lvgl/src/core/lv_obj_style_gen.h ****     return (lv_coord_t)v.num;
 239:Middlewares/lvgl/src/core/lv_obj_style_gen.h **** }
 240:Middlewares/lvgl/src/core/lv_obj_style_gen.h **** 
 241:Middlewares/lvgl/src/core/lv_obj_style_gen.h **** static inline const void * lv_obj_get_style_bg_img_src(const struct _lv_obj_t * obj, uint32_t part)
 242:Middlewares/lvgl/src/core/lv_obj_style_gen.h **** {
 243:Middlewares/lvgl/src/core/lv_obj_style_gen.h ****     lv_style_value_t v = lv_obj_get_style_prop(obj, part, LV_STYLE_BG_IMG_SRC);
 244:Middlewares/lvgl/src/core/lv_obj_style_gen.h ****     return (const void *)v.ptr;
 245:Middlewares/lvgl/src/core/lv_obj_style_gen.h **** }
 246:Middlewares/lvgl/src/core/lv_obj_style_gen.h **** 
 247:Middlewares/lvgl/src/core/lv_obj_style_gen.h **** static inline lv_opa_t lv_obj_get_style_bg_img_opa(const struct _lv_obj_t * obj, uint32_t part)
 248:Middlewares/lvgl/src/core/lv_obj_style_gen.h **** {
 249:Middlewares/lvgl/src/core/lv_obj_style_gen.h ****     lv_style_value_t v = lv_obj_get_style_prop(obj, part, LV_STYLE_BG_IMG_OPA);
 250:Middlewares/lvgl/src/core/lv_obj_style_gen.h ****     return (lv_opa_t)v.num;
 251:Middlewares/lvgl/src/core/lv_obj_style_gen.h **** }
 252:Middlewares/lvgl/src/core/lv_obj_style_gen.h **** 
 253:Middlewares/lvgl/src/core/lv_obj_style_gen.h **** static inline lv_color_t lv_obj_get_style_bg_img_recolor(const struct _lv_obj_t * obj, uint32_t par
 254:Middlewares/lvgl/src/core/lv_obj_style_gen.h **** {
 255:Middlewares/lvgl/src/core/lv_obj_style_gen.h ****     lv_style_value_t v = lv_obj_get_style_prop(obj, part, LV_STYLE_BG_IMG_RECOLOR);
 256:Middlewares/lvgl/src/core/lv_obj_style_gen.h ****     return v.color;
 257:Middlewares/lvgl/src/core/lv_obj_style_gen.h **** }
 258:Middlewares/lvgl/src/core/lv_obj_style_gen.h **** 
 259:Middlewares/lvgl/src/core/lv_obj_style_gen.h **** static inline lv_color_t lv_obj_get_style_bg_img_recolor_filtered(const struct _lv_obj_t * obj, uin
 260:Middlewares/lvgl/src/core/lv_obj_style_gen.h **** {
 261:Middlewares/lvgl/src/core/lv_obj_style_gen.h ****     lv_style_value_t v = lv_obj_get_style_prop(obj, part, LV_STYLE_BG_IMG_RECOLOR_FILTERED);
 262:Middlewares/lvgl/src/core/lv_obj_style_gen.h ****     return v.color;
 263:Middlewares/lvgl/src/core/lv_obj_style_gen.h **** }
 264:Middlewares/lvgl/src/core/lv_obj_style_gen.h **** 
 265:Middlewares/lvgl/src/core/lv_obj_style_gen.h **** static inline lv_opa_t lv_obj_get_style_bg_img_recolor_opa(const struct _lv_obj_t * obj, uint32_t p
 266:Middlewares/lvgl/src/core/lv_obj_style_gen.h **** {
 267:Middlewares/lvgl/src/core/lv_obj_style_gen.h ****     lv_style_value_t v = lv_obj_get_style_prop(obj, part, LV_STYLE_BG_IMG_RECOLOR_OPA);
 268:Middlewares/lvgl/src/core/lv_obj_style_gen.h ****     return (lv_opa_t)v.num;
 269:Middlewares/lvgl/src/core/lv_obj_style_gen.h **** }
 270:Middlewares/lvgl/src/core/lv_obj_style_gen.h **** 
 271:Middlewares/lvgl/src/core/lv_obj_style_gen.h **** static inline bool lv_obj_get_style_bg_img_tiled(const struct _lv_obj_t * obj, uint32_t part)
 272:Middlewares/lvgl/src/core/lv_obj_style_gen.h **** {
ARM GAS  /tmp/ccXWhpqg.s 			page 12


 273:Middlewares/lvgl/src/core/lv_obj_style_gen.h ****     lv_style_value_t v = lv_obj_get_style_prop(obj, part, LV_STYLE_BG_IMG_TILED);
 274:Middlewares/lvgl/src/core/lv_obj_style_gen.h ****     return (bool)v.num;
 275:Middlewares/lvgl/src/core/lv_obj_style_gen.h **** }
 276:Middlewares/lvgl/src/core/lv_obj_style_gen.h **** 
 277:Middlewares/lvgl/src/core/lv_obj_style_gen.h **** static inline lv_color_t lv_obj_get_style_border_color(const struct _lv_obj_t * obj, uint32_t part)
 278:Middlewares/lvgl/src/core/lv_obj_style_gen.h **** {
 279:Middlewares/lvgl/src/core/lv_obj_style_gen.h ****     lv_style_value_t v = lv_obj_get_style_prop(obj, part, LV_STYLE_BORDER_COLOR);
 280:Middlewares/lvgl/src/core/lv_obj_style_gen.h ****     return v.color;
 281:Middlewares/lvgl/src/core/lv_obj_style_gen.h **** }
 282:Middlewares/lvgl/src/core/lv_obj_style_gen.h **** 
 283:Middlewares/lvgl/src/core/lv_obj_style_gen.h **** static inline lv_color_t lv_obj_get_style_border_color_filtered(const struct _lv_obj_t * obj, uint3
 284:Middlewares/lvgl/src/core/lv_obj_style_gen.h **** {
 285:Middlewares/lvgl/src/core/lv_obj_style_gen.h ****     lv_style_value_t v = lv_obj_get_style_prop(obj, part, LV_STYLE_BORDER_COLOR_FILTERED);
 286:Middlewares/lvgl/src/core/lv_obj_style_gen.h ****     return v.color;
 287:Middlewares/lvgl/src/core/lv_obj_style_gen.h **** }
 288:Middlewares/lvgl/src/core/lv_obj_style_gen.h **** 
 289:Middlewares/lvgl/src/core/lv_obj_style_gen.h **** static inline lv_opa_t lv_obj_get_style_border_opa(const struct _lv_obj_t * obj, uint32_t part)
 290:Middlewares/lvgl/src/core/lv_obj_style_gen.h **** {
 291:Middlewares/lvgl/src/core/lv_obj_style_gen.h ****     lv_style_value_t v = lv_obj_get_style_prop(obj, part, LV_STYLE_BORDER_OPA);
 292:Middlewares/lvgl/src/core/lv_obj_style_gen.h ****     return (lv_opa_t)v.num;
 293:Middlewares/lvgl/src/core/lv_obj_style_gen.h **** }
 294:Middlewares/lvgl/src/core/lv_obj_style_gen.h **** 
 295:Middlewares/lvgl/src/core/lv_obj_style_gen.h **** static inline lv_coord_t lv_obj_get_style_border_width(const struct _lv_obj_t * obj, uint32_t part)
 167              		.loc 2 295 26 view .LVU48
 168              	.LBB159:
 296:Middlewares/lvgl/src/core/lv_obj_style_gen.h **** {
 297:Middlewares/lvgl/src/core/lv_obj_style_gen.h ****     lv_style_value_t v = lv_obj_get_style_prop(obj, part, LV_STYLE_BORDER_WIDTH);
 169              		.loc 2 297 5 view .LVU49
 170              		.loc 2 297 26 is_stmt 0 view .LVU50
 171 0066 41F23202 		movw	r2, #4146
 172 006a 2946     		mov	r1, r5
 173 006c 3046     		mov	r0, r6
 174 006e FFF7FEFF 		bl	lv_obj_get_style_prop
 175              	.LVL14:
 298:Middlewares/lvgl/src/core/lv_obj_style_gen.h ****     return (lv_coord_t)v.num;
 176              		.loc 2 298 5 is_stmt 1 view .LVU51
 177              		.loc 2 298 12 is_stmt 0 view .LVU52
 178 0072 00B2     		sxth	r0, r0
 179              	.LVL15:
 180              		.loc 2 298 12 view .LVU53
 181              	.LBE159:
 182              	.LBE158:
  70:Middlewares/lvgl/src/core/lv_obj_draw.c ****     if(draw_dsc->border_width) {
 183              		.loc 1 70 28 view .LVU54
 184 0074 A083     		strh	r0, [r4, #28]	@ movhi
  71:Middlewares/lvgl/src/core/lv_obj_draw.c ****         if(draw_dsc->border_opa != LV_OPA_TRANSP) {
 185              		.loc 1 71 5 is_stmt 1 view .LVU55
  71:Middlewares/lvgl/src/core/lv_obj_draw.c ****         if(draw_dsc->border_opa != LV_OPA_TRANSP) {
 186              		.loc 1 71 7 is_stmt 0 view .LVU56
 187 0076 10B1     		cbz	r0, .L6
  72:Middlewares/lvgl/src/core/lv_obj_draw.c ****             draw_dsc->border_opa = lv_obj_get_style_border_opa(obj, part);
 188              		.loc 1 72 9 is_stmt 1 view .LVU57
  72:Middlewares/lvgl/src/core/lv_obj_draw.c ****             draw_dsc->border_opa = lv_obj_get_style_border_opa(obj, part);
 189              		.loc 1 72 20 is_stmt 0 view .LVU58
 190 0078 A37F     		ldrb	r3, [r4, #30]	@ zero_extendqisi2
  72:Middlewares/lvgl/src/core/lv_obj_draw.c ****             draw_dsc->border_opa = lv_obj_get_style_border_opa(obj, part);
 191              		.loc 1 72 11 view .LVU59
ARM GAS  /tmp/ccXWhpqg.s 			page 13


 192 007a 002B     		cmp	r3, #0
 193 007c 68D1     		bne	.L16
 194              	.L6:
  81:Middlewares/lvgl/src/core/lv_obj_draw.c ****     if(draw_dsc->outline_width) {
 195              		.loc 1 81 5 is_stmt 1 view .LVU60
 196              	.LVL16:
 197              	.LBB160:
 198              	.LBI160:
 299:Middlewares/lvgl/src/core/lv_obj_style_gen.h **** }
 300:Middlewares/lvgl/src/core/lv_obj_style_gen.h **** 
 301:Middlewares/lvgl/src/core/lv_obj_style_gen.h **** static inline lv_border_side_t lv_obj_get_style_border_side(const struct _lv_obj_t * obj, uint32_t 
 302:Middlewares/lvgl/src/core/lv_obj_style_gen.h **** {
 303:Middlewares/lvgl/src/core/lv_obj_style_gen.h ****     lv_style_value_t v = lv_obj_get_style_prop(obj, part, LV_STYLE_BORDER_SIDE);
 304:Middlewares/lvgl/src/core/lv_obj_style_gen.h ****     return (lv_border_side_t)v.num;
 305:Middlewares/lvgl/src/core/lv_obj_style_gen.h **** }
 306:Middlewares/lvgl/src/core/lv_obj_style_gen.h **** 
 307:Middlewares/lvgl/src/core/lv_obj_style_gen.h **** static inline bool lv_obj_get_style_border_post(const struct _lv_obj_t * obj, uint32_t part)
 308:Middlewares/lvgl/src/core/lv_obj_style_gen.h **** {
 309:Middlewares/lvgl/src/core/lv_obj_style_gen.h ****     lv_style_value_t v = lv_obj_get_style_prop(obj, part, LV_STYLE_BORDER_POST);
 310:Middlewares/lvgl/src/core/lv_obj_style_gen.h ****     return (bool)v.num;
 311:Middlewares/lvgl/src/core/lv_obj_style_gen.h **** }
 312:Middlewares/lvgl/src/core/lv_obj_style_gen.h **** 
 313:Middlewares/lvgl/src/core/lv_obj_style_gen.h **** static inline lv_color_t lv_obj_get_style_text_color(const struct _lv_obj_t * obj, uint32_t part)
 314:Middlewares/lvgl/src/core/lv_obj_style_gen.h **** {
 315:Middlewares/lvgl/src/core/lv_obj_style_gen.h ****     lv_style_value_t v = lv_obj_get_style_prop(obj, part, LV_STYLE_TEXT_COLOR);
 316:Middlewares/lvgl/src/core/lv_obj_style_gen.h ****     return v.color;
 317:Middlewares/lvgl/src/core/lv_obj_style_gen.h **** }
 318:Middlewares/lvgl/src/core/lv_obj_style_gen.h **** 
 319:Middlewares/lvgl/src/core/lv_obj_style_gen.h **** static inline lv_color_t lv_obj_get_style_text_color_filtered(const struct _lv_obj_t * obj, uint32_
 320:Middlewares/lvgl/src/core/lv_obj_style_gen.h **** {
 321:Middlewares/lvgl/src/core/lv_obj_style_gen.h ****     lv_style_value_t v = lv_obj_get_style_prop(obj, part, LV_STYLE_TEXT_COLOR_FILTERED);
 322:Middlewares/lvgl/src/core/lv_obj_style_gen.h ****     return v.color;
 323:Middlewares/lvgl/src/core/lv_obj_style_gen.h **** }
 324:Middlewares/lvgl/src/core/lv_obj_style_gen.h **** 
 325:Middlewares/lvgl/src/core/lv_obj_style_gen.h **** static inline lv_opa_t lv_obj_get_style_text_opa(const struct _lv_obj_t * obj, uint32_t part)
 326:Middlewares/lvgl/src/core/lv_obj_style_gen.h **** {
 327:Middlewares/lvgl/src/core/lv_obj_style_gen.h ****     lv_style_value_t v = lv_obj_get_style_prop(obj, part, LV_STYLE_TEXT_OPA);
 328:Middlewares/lvgl/src/core/lv_obj_style_gen.h ****     return (lv_opa_t)v.num;
 329:Middlewares/lvgl/src/core/lv_obj_style_gen.h **** }
 330:Middlewares/lvgl/src/core/lv_obj_style_gen.h **** 
 331:Middlewares/lvgl/src/core/lv_obj_style_gen.h **** static inline const lv_font_t * lv_obj_get_style_text_font(const struct _lv_obj_t * obj, uint32_t p
 332:Middlewares/lvgl/src/core/lv_obj_style_gen.h **** {
 333:Middlewares/lvgl/src/core/lv_obj_style_gen.h ****     lv_style_value_t v = lv_obj_get_style_prop(obj, part, LV_STYLE_TEXT_FONT);
 334:Middlewares/lvgl/src/core/lv_obj_style_gen.h ****     return (const lv_font_t *)v.ptr;
 335:Middlewares/lvgl/src/core/lv_obj_style_gen.h **** }
 336:Middlewares/lvgl/src/core/lv_obj_style_gen.h **** 
 337:Middlewares/lvgl/src/core/lv_obj_style_gen.h **** static inline lv_coord_t lv_obj_get_style_text_letter_space(const struct _lv_obj_t * obj, uint32_t 
 338:Middlewares/lvgl/src/core/lv_obj_style_gen.h **** {
 339:Middlewares/lvgl/src/core/lv_obj_style_gen.h ****     lv_style_value_t v = lv_obj_get_style_prop(obj, part, LV_STYLE_TEXT_LETTER_SPACE);
 340:Middlewares/lvgl/src/core/lv_obj_style_gen.h ****     return (lv_coord_t)v.num;
 341:Middlewares/lvgl/src/core/lv_obj_style_gen.h **** }
 342:Middlewares/lvgl/src/core/lv_obj_style_gen.h **** 
 343:Middlewares/lvgl/src/core/lv_obj_style_gen.h **** static inline lv_coord_t lv_obj_get_style_text_line_space(const struct _lv_obj_t * obj, uint32_t pa
 344:Middlewares/lvgl/src/core/lv_obj_style_gen.h **** {
 345:Middlewares/lvgl/src/core/lv_obj_style_gen.h ****     lv_style_value_t v = lv_obj_get_style_prop(obj, part, LV_STYLE_TEXT_LINE_SPACE);
 346:Middlewares/lvgl/src/core/lv_obj_style_gen.h ****     return (lv_coord_t)v.num;
 347:Middlewares/lvgl/src/core/lv_obj_style_gen.h **** }
ARM GAS  /tmp/ccXWhpqg.s 			page 14


 348:Middlewares/lvgl/src/core/lv_obj_style_gen.h **** 
 349:Middlewares/lvgl/src/core/lv_obj_style_gen.h **** static inline lv_text_decor_t lv_obj_get_style_text_decor(const struct _lv_obj_t * obj, uint32_t pa
 350:Middlewares/lvgl/src/core/lv_obj_style_gen.h **** {
 351:Middlewares/lvgl/src/core/lv_obj_style_gen.h ****     lv_style_value_t v = lv_obj_get_style_prop(obj, part, LV_STYLE_TEXT_DECOR);
 352:Middlewares/lvgl/src/core/lv_obj_style_gen.h ****     return (lv_text_decor_t)v.num;
 353:Middlewares/lvgl/src/core/lv_obj_style_gen.h **** }
 354:Middlewares/lvgl/src/core/lv_obj_style_gen.h **** 
 355:Middlewares/lvgl/src/core/lv_obj_style_gen.h **** static inline lv_text_align_t lv_obj_get_style_text_align(const struct _lv_obj_t * obj, uint32_t pa
 356:Middlewares/lvgl/src/core/lv_obj_style_gen.h **** {
 357:Middlewares/lvgl/src/core/lv_obj_style_gen.h ****     lv_style_value_t v = lv_obj_get_style_prop(obj, part, LV_STYLE_TEXT_ALIGN);
 358:Middlewares/lvgl/src/core/lv_obj_style_gen.h ****     return (lv_text_align_t)v.num;
 359:Middlewares/lvgl/src/core/lv_obj_style_gen.h **** }
 360:Middlewares/lvgl/src/core/lv_obj_style_gen.h **** 
 361:Middlewares/lvgl/src/core/lv_obj_style_gen.h **** static inline lv_opa_t lv_obj_get_style_img_opa(const struct _lv_obj_t * obj, uint32_t part)
 362:Middlewares/lvgl/src/core/lv_obj_style_gen.h **** {
 363:Middlewares/lvgl/src/core/lv_obj_style_gen.h ****     lv_style_value_t v = lv_obj_get_style_prop(obj, part, LV_STYLE_IMG_OPA);
 364:Middlewares/lvgl/src/core/lv_obj_style_gen.h ****     return (lv_opa_t)v.num;
 365:Middlewares/lvgl/src/core/lv_obj_style_gen.h **** }
 366:Middlewares/lvgl/src/core/lv_obj_style_gen.h **** 
 367:Middlewares/lvgl/src/core/lv_obj_style_gen.h **** static inline lv_color_t lv_obj_get_style_img_recolor(const struct _lv_obj_t * obj, uint32_t part)
 368:Middlewares/lvgl/src/core/lv_obj_style_gen.h **** {
 369:Middlewares/lvgl/src/core/lv_obj_style_gen.h ****     lv_style_value_t v = lv_obj_get_style_prop(obj, part, LV_STYLE_IMG_RECOLOR);
 370:Middlewares/lvgl/src/core/lv_obj_style_gen.h ****     return v.color;
 371:Middlewares/lvgl/src/core/lv_obj_style_gen.h **** }
 372:Middlewares/lvgl/src/core/lv_obj_style_gen.h **** 
 373:Middlewares/lvgl/src/core/lv_obj_style_gen.h **** static inline lv_color_t lv_obj_get_style_img_recolor_filtered(const struct _lv_obj_t * obj, uint32
 374:Middlewares/lvgl/src/core/lv_obj_style_gen.h **** {
 375:Middlewares/lvgl/src/core/lv_obj_style_gen.h ****     lv_style_value_t v = lv_obj_get_style_prop(obj, part, LV_STYLE_IMG_RECOLOR_FILTERED);
 376:Middlewares/lvgl/src/core/lv_obj_style_gen.h ****     return v.color;
 377:Middlewares/lvgl/src/core/lv_obj_style_gen.h **** }
 378:Middlewares/lvgl/src/core/lv_obj_style_gen.h **** 
 379:Middlewares/lvgl/src/core/lv_obj_style_gen.h **** static inline lv_opa_t lv_obj_get_style_img_recolor_opa(const struct _lv_obj_t * obj, uint32_t part
 380:Middlewares/lvgl/src/core/lv_obj_style_gen.h **** {
 381:Middlewares/lvgl/src/core/lv_obj_style_gen.h ****     lv_style_value_t v = lv_obj_get_style_prop(obj, part, LV_STYLE_IMG_RECOLOR_OPA);
 382:Middlewares/lvgl/src/core/lv_obj_style_gen.h ****     return (lv_opa_t)v.num;
 383:Middlewares/lvgl/src/core/lv_obj_style_gen.h **** }
 384:Middlewares/lvgl/src/core/lv_obj_style_gen.h **** 
 385:Middlewares/lvgl/src/core/lv_obj_style_gen.h **** static inline lv_coord_t lv_obj_get_style_outline_width(const struct _lv_obj_t * obj, uint32_t part
 199              		.loc 2 385 26 view .LVU61
 200              	.LBB161:
 386:Middlewares/lvgl/src/core/lv_obj_style_gen.h **** {
 387:Middlewares/lvgl/src/core/lv_obj_style_gen.h ****     lv_style_value_t v = lv_obj_get_style_prop(obj, part, LV_STYLE_OUTLINE_WIDTH);
 201              		.loc 2 387 5 view .LVU62
 202              		.loc 2 387 26 is_stmt 0 view .LVU63
 203 007e 40F63A02 		movw	r2, #2106
 204 0082 2946     		mov	r1, r5
 205 0084 3046     		mov	r0, r6
 206 0086 FFF7FEFF 		bl	lv_obj_get_style_prop
 207              	.LVL17:
 388:Middlewares/lvgl/src/core/lv_obj_style_gen.h ****     return (lv_coord_t)v.num;
 208              		.loc 2 388 5 is_stmt 1 view .LVU64
 209              		.loc 2 388 12 is_stmt 0 view .LVU65
 210 008a 00B2     		sxth	r0, r0
 211              	.LVL18:
 212              		.loc 2 388 12 view .LVU66
 213              	.LBE161:
 214              	.LBE160:
ARM GAS  /tmp/ccXWhpqg.s 			page 15


  81:Middlewares/lvgl/src/core/lv_obj_draw.c ****     if(draw_dsc->outline_width) {
 215              		.loc 1 81 29 view .LVU67
 216 008c 6084     		strh	r0, [r4, #34]	@ movhi
  82:Middlewares/lvgl/src/core/lv_obj_draw.c ****         if(draw_dsc->outline_opa != LV_OPA_TRANSP) {
 217              		.loc 1 82 5 is_stmt 1 view .LVU68
  82:Middlewares/lvgl/src/core/lv_obj_draw.c ****         if(draw_dsc->outline_opa != LV_OPA_TRANSP) {
 218              		.loc 1 82 7 is_stmt 0 view .LVU69
 219 008e 18B1     		cbz	r0, .L7
  83:Middlewares/lvgl/src/core/lv_obj_draw.c ****             draw_dsc->outline_opa = lv_obj_get_style_outline_opa(obj, part);
 220              		.loc 1 83 9 is_stmt 1 view .LVU70
  83:Middlewares/lvgl/src/core/lv_obj_draw.c ****             draw_dsc->outline_opa = lv_obj_get_style_outline_opa(obj, part);
 221              		.loc 1 83 20 is_stmt 0 view .LVU71
 222 0090 94F82630 		ldrb	r3, [r4, #38]	@ zero_extendqisi2
  83:Middlewares/lvgl/src/core/lv_obj_draw.c ****             draw_dsc->outline_opa = lv_obj_get_style_outline_opa(obj, part);
 223              		.loc 1 83 11 view .LVU72
 224 0094 002B     		cmp	r3, #0
 225 0096 75D1     		bne	.L17
 226              	.L7:
  92:Middlewares/lvgl/src/core/lv_obj_draw.c ****         draw_dsc->bg_img_src = lv_obj_get_style_bg_img_src(obj, part);
 227              		.loc 1 92 5 is_stmt 1 view .LVU73
  92:Middlewares/lvgl/src/core/lv_obj_draw.c ****         draw_dsc->bg_img_src = lv_obj_get_style_bg_img_src(obj, part);
 228              		.loc 1 92 16 is_stmt 0 view .LVU74
 229 0098 A37D     		ldrb	r3, [r4, #22]	@ zero_extendqisi2
  92:Middlewares/lvgl/src/core/lv_obj_draw.c ****         draw_dsc->bg_img_src = lv_obj_get_style_bg_img_src(obj, part);
 230              		.loc 1 92 7 view .LVU75
 231 009a 002B     		cmp	r3, #0
 232 009c 40F08C80 		bne	.L18
 233              	.LVL19:
 234              	.L8:
 109:Middlewares/lvgl/src/core/lv_obj_draw.c ****         draw_dsc->shadow_width = lv_obj_get_style_shadow_width(obj, part);
 235              		.loc 1 109 5 is_stmt 1 view .LVU76
 109:Middlewares/lvgl/src/core/lv_obj_draw.c ****         draw_dsc->shadow_width = lv_obj_get_style_shadow_width(obj, part);
 236              		.loc 1 109 16 is_stmt 0 view .LVU77
 237 00a0 94F83230 		ldrb	r3, [r4, #50]	@ zero_extendqisi2
 109:Middlewares/lvgl/src/core/lv_obj_draw.c ****         draw_dsc->shadow_width = lv_obj_get_style_shadow_width(obj, part);
 238              		.loc 1 109 7 view .LVU78
 239 00a4 002B     		cmp	r3, #0
 240 00a6 40F0C480 		bne	.L19
 241              	.L10:
 124:Middlewares/lvgl/src/core/lv_obj_draw.c ****         opa = (uint16_t)((uint16_t) main_opa * opa) >> 8;
 242              		.loc 1 124 5 is_stmt 1 view .LVU79
 124:Middlewares/lvgl/src/core/lv_obj_draw.c ****         opa = (uint16_t)((uint16_t) main_opa * opa) >> 8;
 243              		.loc 1 124 7 is_stmt 0 view .LVU80
 244 00aa B8F1FC0F 		cmp	r8, #252
 245 00ae 03D8     		bhi	.L11
 125:Middlewares/lvgl/src/core/lv_obj_draw.c ****     }
 246              		.loc 1 125 9 is_stmt 1 view .LVU81
 125:Middlewares/lvgl/src/core/lv_obj_draw.c ****     }
 247              		.loc 1 125 15 is_stmt 0 view .LVU82
 248 00b0 08FB07F7 		mul	r7, r8, r7
 249              	.LVL20:
 125:Middlewares/lvgl/src/core/lv_obj_draw.c ****     }
 250              		.loc 1 125 13 view .LVU83
 251 00b4 C7F30727 		ubfx	r7, r7, #8, #8
 252              	.LVL21:
 253              	.L11:
 128:Middlewares/lvgl/src/core/lv_obj_draw.c ****         draw_dsc->bg_opa = (uint16_t)((uint16_t)draw_dsc->bg_opa * opa) >> 8;
ARM GAS  /tmp/ccXWhpqg.s 			page 16


 254              		.loc 1 128 5 is_stmt 1 view .LVU84
 128:Middlewares/lvgl/src/core/lv_obj_draw.c ****         draw_dsc->bg_opa = (uint16_t)((uint16_t)draw_dsc->bg_opa * opa) >> 8;
 255              		.loc 1 128 7 is_stmt 0 view .LVU85
 256 00b8 FC2F     		cmp	r7, #252
 257 00ba C0D8     		bhi	.L1
 129:Middlewares/lvgl/src/core/lv_obj_draw.c ****         draw_dsc->border_opa = (uint16_t)((uint16_t)draw_dsc->border_opa * opa) >> 8;
 258              		.loc 1 129 9 is_stmt 1 view .LVU86
 129:Middlewares/lvgl/src/core/lv_obj_draw.c ****         draw_dsc->border_opa = (uint16_t)((uint16_t)draw_dsc->border_opa * opa) >> 8;
 259              		.loc 1 129 57 is_stmt 0 view .LVU87
 260 00bc A37A     		ldrb	r3, [r4, #10]	@ zero_extendqisi2
 129:Middlewares/lvgl/src/core/lv_obj_draw.c ****         draw_dsc->border_opa = (uint16_t)((uint16_t)draw_dsc->border_opa * opa) >> 8;
 261              		.loc 1 129 28 view .LVU88
 262 00be 07FB03F3 		mul	r3, r7, r3
 129:Middlewares/lvgl/src/core/lv_obj_draw.c ****         draw_dsc->border_opa = (uint16_t)((uint16_t)draw_dsc->border_opa * opa) >> 8;
 263              		.loc 1 129 26 view .LVU89
 264 00c2 1B0A     		lsrs	r3, r3, #8
 265 00c4 A372     		strb	r3, [r4, #10]
 130:Middlewares/lvgl/src/core/lv_obj_draw.c ****         draw_dsc->shadow_opa = (uint16_t)((uint16_t)draw_dsc->shadow_opa * opa) >> 8;
 266              		.loc 1 130 9 is_stmt 1 view .LVU90
 130:Middlewares/lvgl/src/core/lv_obj_draw.c ****         draw_dsc->shadow_opa = (uint16_t)((uint16_t)draw_dsc->shadow_opa * opa) >> 8;
 267              		.loc 1 130 61 is_stmt 0 view .LVU91
 268 00c6 A37F     		ldrb	r3, [r4, #30]	@ zero_extendqisi2
 130:Middlewares/lvgl/src/core/lv_obj_draw.c ****         draw_dsc->shadow_opa = (uint16_t)((uint16_t)draw_dsc->shadow_opa * opa) >> 8;
 269              		.loc 1 130 32 view .LVU92
 270 00c8 07FB03F3 		mul	r3, r7, r3
 130:Middlewares/lvgl/src/core/lv_obj_draw.c ****         draw_dsc->shadow_opa = (uint16_t)((uint16_t)draw_dsc->shadow_opa * opa) >> 8;
 271              		.loc 1 130 30 view .LVU93
 272 00cc 1B0A     		lsrs	r3, r3, #8
 273 00ce A377     		strb	r3, [r4, #30]
 131:Middlewares/lvgl/src/core/lv_obj_draw.c ****         draw_dsc->outline_opa = (uint16_t)((uint16_t)draw_dsc->outline_opa * opa) >> 8;
 274              		.loc 1 131 9 is_stmt 1 view .LVU94
 131:Middlewares/lvgl/src/core/lv_obj_draw.c ****         draw_dsc->outline_opa = (uint16_t)((uint16_t)draw_dsc->outline_opa * opa) >> 8;
 275              		.loc 1 131 61 is_stmt 0 view .LVU95
 276 00d0 94F83230 		ldrb	r3, [r4, #50]	@ zero_extendqisi2
 131:Middlewares/lvgl/src/core/lv_obj_draw.c ****         draw_dsc->outline_opa = (uint16_t)((uint16_t)draw_dsc->outline_opa * opa) >> 8;
 277              		.loc 1 131 32 view .LVU96
 278 00d4 07FB03F3 		mul	r3, r7, r3
 131:Middlewares/lvgl/src/core/lv_obj_draw.c ****         draw_dsc->outline_opa = (uint16_t)((uint16_t)draw_dsc->outline_opa * opa) >> 8;
 279              		.loc 1 131 30 view .LVU97
 280 00d8 1B0A     		lsrs	r3, r3, #8
 281 00da 84F83230 		strb	r3, [r4, #50]
 132:Middlewares/lvgl/src/core/lv_obj_draw.c ****     }
 282              		.loc 1 132 9 is_stmt 1 view .LVU98
 132:Middlewares/lvgl/src/core/lv_obj_draw.c ****     }
 283              		.loc 1 132 62 is_stmt 0 view .LVU99
 284 00de 94F82600 		ldrb	r0, [r4, #38]	@ zero_extendqisi2
 285              	.LVL22:
 132:Middlewares/lvgl/src/core/lv_obj_draw.c ****     }
 286              		.loc 1 132 33 view .LVU100
 287 00e2 00FB07F7 		mul	r7, r0, r7
 288              	.LVL23:
 132:Middlewares/lvgl/src/core/lv_obj_draw.c ****     }
 289              		.loc 1 132 31 view .LVU101
 290 00e6 3F0A     		lsrs	r7, r7, #8
 291 00e8 84F82670 		strb	r7, [r4, #38]
 292 00ec A7E7     		b	.L1
 293              	.LVL24:
ARM GAS  /tmp/ccXWhpqg.s 			page 17


 294              	.L15:
  58:Middlewares/lvgl/src/core/lv_obj_draw.c ****         if(draw_dsc->bg_opa > LV_OPA_MIN) {
 295              		.loc 1 58 9 is_stmt 1 view .LVU102
 296              	.LBB162:
 297              	.LBI162:
 205:Middlewares/lvgl/src/core/lv_obj_style_gen.h **** {
 298              		.loc 2 205 24 view .LVU103
 299              	.LBB163:
 207:Middlewares/lvgl/src/core/lv_obj_style_gen.h ****     return (lv_opa_t)v.num;
 300              		.loc 2 207 5 view .LVU104
 207:Middlewares/lvgl/src/core/lv_obj_style_gen.h ****     return (lv_opa_t)v.num;
 301              		.loc 2 207 26 is_stmt 0 view .LVU105
 302 00ee 2122     		movs	r2, #33
 303 00f0 2946     		mov	r1, r5
 304 00f2 3046     		mov	r0, r6
 305 00f4 FFF7FEFF 		bl	lv_obj_get_style_prop
 306              	.LVL25:
 208:Middlewares/lvgl/src/core/lv_obj_style_gen.h **** }
 307              		.loc 2 208 5 is_stmt 1 view .LVU106
 208:Middlewares/lvgl/src/core/lv_obj_style_gen.h **** }
 308              		.loc 2 208 12 is_stmt 0 view .LVU107
 309 00f8 C0B2     		uxtb	r0, r0
 310              	.LVL26:
 208:Middlewares/lvgl/src/core/lv_obj_style_gen.h **** }
 311              		.loc 2 208 12 view .LVU108
 312              	.LBE163:
 313              	.LBE162:
  58:Middlewares/lvgl/src/core/lv_obj_draw.c ****         if(draw_dsc->bg_opa > LV_OPA_MIN) {
 314              		.loc 1 58 26 view .LVU109
 315 00fa A072     		strb	r0, [r4, #10]
  59:Middlewares/lvgl/src/core/lv_obj_draw.c ****             draw_dsc->bg_color = lv_obj_get_style_bg_color_filtered(obj, part);
 316              		.loc 1 59 9 is_stmt 1 view .LVU110
  59:Middlewares/lvgl/src/core/lv_obj_draw.c ****             draw_dsc->bg_color = lv_obj_get_style_bg_color_filtered(obj, part);
 317              		.loc 1 59 11 is_stmt 0 view .LVU111
 318 00fc 0228     		cmp	r0, #2
 319 00fe B2D9     		bls	.L5
  60:Middlewares/lvgl/src/core/lv_obj_draw.c ****             draw_dsc->bg_grad_dir =  lv_obj_get_style_bg_grad_dir(obj, part);
 320              		.loc 1 60 13 is_stmt 1 view .LVU112
 321              	.LVL27:
 322              	.LBB164:
 323              	.LBI164:
 199:Middlewares/lvgl/src/core/lv_obj_style_gen.h **** {
 324              		.loc 2 199 26 view .LVU113
 325              	.LBB165:
 201:Middlewares/lvgl/src/core/lv_obj_style_gen.h ****     return v.color;
 326              		.loc 2 201 5 view .LVU114
 201:Middlewares/lvgl/src/core/lv_obj_style_gen.h ****     return v.color;
 327              		.loc 2 201 26 is_stmt 0 view .LVU115
 328 0100 44F22002 		movw	r2, #16416
 329 0104 2946     		mov	r1, r5
 330 0106 3046     		mov	r0, r6
 331 0108 FFF7FEFF 		bl	lv_obj_get_style_prop
 332              	.LVL28:
 202:Middlewares/lvgl/src/core/lv_obj_style_gen.h **** }
 333              		.loc 2 202 5 is_stmt 1 view .LVU116
 202:Middlewares/lvgl/src/core/lv_obj_style_gen.h **** }
 334              		.loc 2 202 5 is_stmt 0 view .LVU117
ARM GAS  /tmp/ccXWhpqg.s 			page 18


 335              	.LBE165:
 336              	.LBE164:
  60:Middlewares/lvgl/src/core/lv_obj_draw.c ****             draw_dsc->bg_grad_dir =  lv_obj_get_style_bg_grad_dir(obj, part);
 337              		.loc 1 60 34 view .LVU118
 338 010c A080     		strh	r0, [r4, #4]	@ movhi
  61:Middlewares/lvgl/src/core/lv_obj_draw.c ****             if(draw_dsc->bg_grad_dir != LV_GRAD_DIR_NONE) {
 339              		.loc 1 61 13 is_stmt 1 view .LVU119
 340              	.LVL29:
 341              	.LBB166:
 342              	.LBI166:
 223:Middlewares/lvgl/src/core/lv_obj_style_gen.h **** {
 343              		.loc 2 223 29 view .LVU120
 344              	.LBB167:
 225:Middlewares/lvgl/src/core/lv_obj_style_gen.h ****     return (lv_grad_dir_t)v.num;
 345              		.loc 2 225 5 view .LVU121
 225:Middlewares/lvgl/src/core/lv_obj_style_gen.h ****     return (lv_grad_dir_t)v.num;
 346              		.loc 2 225 26 is_stmt 0 view .LVU122
 347 010e 2322     		movs	r2, #35
 348 0110 2946     		mov	r1, r5
 349 0112 3046     		mov	r0, r6
 350 0114 FFF7FEFF 		bl	lv_obj_get_style_prop
 351              	.LVL30:
 226:Middlewares/lvgl/src/core/lv_obj_style_gen.h **** }
 352              		.loc 2 226 5 is_stmt 1 view .LVU123
 226:Middlewares/lvgl/src/core/lv_obj_style_gen.h **** }
 353              		.loc 2 226 5 is_stmt 0 view .LVU124
 354              	.LBE167:
 355              	.LBE166:
  61:Middlewares/lvgl/src/core/lv_obj_draw.c ****             if(draw_dsc->bg_grad_dir != LV_GRAD_DIR_NONE) {
 356              		.loc 1 61 35 view .LVU125
 357 0118 E37A     		ldrb	r3, [r4, #11]	@ zero_extendqisi2
 358 011a 60F30203 		bfi	r3, r0, #0, #3
 359 011e E372     		strb	r3, [r4, #11]
  62:Middlewares/lvgl/src/core/lv_obj_draw.c ****                 draw_dsc->bg_grad_color = lv_obj_get_style_bg_grad_color_filtered(obj, part);
 360              		.loc 1 62 13 is_stmt 1 view .LVU126
  62:Middlewares/lvgl/src/core/lv_obj_draw.c ****                 draw_dsc->bg_grad_color = lv_obj_get_style_bg_grad_color_filtered(obj, part);
 361              		.loc 1 62 38 is_stmt 0 view .LVU127
 362 0120 DBB2     		uxtb	r3, r3
  62:Middlewares/lvgl/src/core/lv_obj_draw.c ****                 draw_dsc->bg_grad_color = lv_obj_get_style_bg_grad_color_filtered(obj, part);
 363              		.loc 1 62 15 view .LVU128
 364 0122 13F0070F 		tst	r3, #7
 365 0126 9ED0     		beq	.L5
  63:Middlewares/lvgl/src/core/lv_obj_draw.c ****                 draw_dsc->bg_main_color_stop =  lv_obj_get_style_bg_main_stop(obj, part);
 366              		.loc 1 63 17 is_stmt 1 view .LVU129
 367              	.LVL31:
 368              	.LBB168:
 369              	.LBI168:
 217:Middlewares/lvgl/src/core/lv_obj_style_gen.h **** {
 370              		.loc 2 217 26 view .LVU130
 371              	.LBB169:
 219:Middlewares/lvgl/src/core/lv_obj_style_gen.h ****     return v.color;
 372              		.loc 2 219 5 view .LVU131
 219:Middlewares/lvgl/src/core/lv_obj_style_gen.h ****     return v.color;
 373              		.loc 2 219 26 is_stmt 0 view .LVU132
 374 0128 44F22202 		movw	r2, #16418
 375 012c 2946     		mov	r1, r5
 376 012e 3046     		mov	r0, r6
ARM GAS  /tmp/ccXWhpqg.s 			page 19


 377 0130 FFF7FEFF 		bl	lv_obj_get_style_prop
 378              	.LVL32:
 220:Middlewares/lvgl/src/core/lv_obj_style_gen.h **** }
 379              		.loc 2 220 5 is_stmt 1 view .LVU133
 220:Middlewares/lvgl/src/core/lv_obj_style_gen.h **** }
 380              		.loc 2 220 5 is_stmt 0 view .LVU134
 381              	.LBE169:
 382              	.LBE168:
  63:Middlewares/lvgl/src/core/lv_obj_draw.c ****                 draw_dsc->bg_main_color_stop =  lv_obj_get_style_bg_main_stop(obj, part);
 383              		.loc 1 63 43 view .LVU135
 384 0134 E080     		strh	r0, [r4, #6]	@ movhi
  64:Middlewares/lvgl/src/core/lv_obj_draw.c ****                 draw_dsc->bg_grad_color_stop =  lv_obj_get_style_bg_grad_stop(obj, part);
 385              		.loc 1 64 17 is_stmt 1 view .LVU136
 386              	.LVL33:
 387              	.LBB170:
 388              	.LBI170:
 229:Middlewares/lvgl/src/core/lv_obj_style_gen.h **** {
 389              		.loc 2 229 26 view .LVU137
 390              	.LBB171:
 231:Middlewares/lvgl/src/core/lv_obj_style_gen.h ****     return (lv_coord_t)v.num;
 391              		.loc 2 231 5 view .LVU138
 231:Middlewares/lvgl/src/core/lv_obj_style_gen.h ****     return (lv_coord_t)v.num;
 392              		.loc 2 231 26 is_stmt 0 view .LVU139
 393 0136 2422     		movs	r2, #36
 394 0138 2946     		mov	r1, r5
 395 013a 3046     		mov	r0, r6
 396 013c FFF7FEFF 		bl	lv_obj_get_style_prop
 397              	.LVL34:
 232:Middlewares/lvgl/src/core/lv_obj_style_gen.h **** }
 398              		.loc 2 232 5 is_stmt 1 view .LVU140
 232:Middlewares/lvgl/src/core/lv_obj_style_gen.h **** }
 399              		.loc 2 232 5 is_stmt 0 view .LVU141
 400              	.LBE171:
 401              	.LBE170:
  64:Middlewares/lvgl/src/core/lv_obj_draw.c ****                 draw_dsc->bg_grad_color_stop =  lv_obj_get_style_bg_grad_stop(obj, part);
 402              		.loc 1 64 46 view .LVU142
 403 0140 2072     		strb	r0, [r4, #8]
  65:Middlewares/lvgl/src/core/lv_obj_draw.c ****             }
 404              		.loc 1 65 17 is_stmt 1 view .LVU143
 405              	.LVL35:
 406              	.LBB172:
 407              	.LBI172:
 235:Middlewares/lvgl/src/core/lv_obj_style_gen.h **** {
 408              		.loc 2 235 26 view .LVU144
 409              	.LBB173:
 237:Middlewares/lvgl/src/core/lv_obj_style_gen.h ****     return (lv_coord_t)v.num;
 410              		.loc 2 237 5 view .LVU145
 237:Middlewares/lvgl/src/core/lv_obj_style_gen.h ****     return (lv_coord_t)v.num;
 411              		.loc 2 237 26 is_stmt 0 view .LVU146
 412 0142 2522     		movs	r2, #37
 413 0144 2946     		mov	r1, r5
 414 0146 3046     		mov	r0, r6
 415 0148 FFF7FEFF 		bl	lv_obj_get_style_prop
 416              	.LVL36:
 238:Middlewares/lvgl/src/core/lv_obj_style_gen.h **** }
 417              		.loc 2 238 5 is_stmt 1 view .LVU147
 238:Middlewares/lvgl/src/core/lv_obj_style_gen.h **** }
ARM GAS  /tmp/ccXWhpqg.s 			page 20


 418              		.loc 2 238 5 is_stmt 0 view .LVU148
 419              	.LBE173:
 420              	.LBE172:
  65:Middlewares/lvgl/src/core/lv_obj_draw.c ****             }
 421              		.loc 1 65 46 view .LVU149
 422 014c 6072     		strb	r0, [r4, #9]
 423 014e 8AE7     		b	.L5
 424              	.L16:
  73:Middlewares/lvgl/src/core/lv_obj_draw.c ****             if(draw_dsc->border_opa > LV_OPA_MIN) {
 425              		.loc 1 73 13 is_stmt 1 view .LVU150
 426              	.LVL37:
 427              	.LBB174:
 428              	.LBI174:
 289:Middlewares/lvgl/src/core/lv_obj_style_gen.h **** {
 429              		.loc 2 289 24 view .LVU151
 430              	.LBB175:
 291:Middlewares/lvgl/src/core/lv_obj_style_gen.h ****     return (lv_opa_t)v.num;
 431              		.loc 2 291 5 view .LVU152
 291:Middlewares/lvgl/src/core/lv_obj_style_gen.h ****     return (lv_opa_t)v.num;
 432              		.loc 2 291 26 is_stmt 0 view .LVU153
 433 0150 3122     		movs	r2, #49
 434 0152 2946     		mov	r1, r5
 435 0154 3046     		mov	r0, r6
 436 0156 FFF7FEFF 		bl	lv_obj_get_style_prop
 437              	.LVL38:
 292:Middlewares/lvgl/src/core/lv_obj_style_gen.h **** }
 438              		.loc 2 292 5 is_stmt 1 view .LVU154
 292:Middlewares/lvgl/src/core/lv_obj_style_gen.h **** }
 439              		.loc 2 292 12 is_stmt 0 view .LVU155
 440 015a C0B2     		uxtb	r0, r0
 441              	.LVL39:
 292:Middlewares/lvgl/src/core/lv_obj_style_gen.h **** }
 442              		.loc 2 292 12 view .LVU156
 443              	.LBE175:
 444              	.LBE174:
  73:Middlewares/lvgl/src/core/lv_obj_draw.c ****             if(draw_dsc->border_opa > LV_OPA_MIN) {
 445              		.loc 1 73 34 view .LVU157
 446 015c A077     		strb	r0, [r4, #30]
  74:Middlewares/lvgl/src/core/lv_obj_draw.c ****                 draw_dsc->border_side = lv_obj_get_style_border_side(obj, part);
 447              		.loc 1 74 13 is_stmt 1 view .LVU158
  74:Middlewares/lvgl/src/core/lv_obj_draw.c ****                 draw_dsc->border_side = lv_obj_get_style_border_side(obj, part);
 448              		.loc 1 74 15 is_stmt 0 view .LVU159
 449 015e 0228     		cmp	r0, #2
 450 0160 8DD9     		bls	.L6
  75:Middlewares/lvgl/src/core/lv_obj_draw.c ****                 draw_dsc->border_color = lv_obj_get_style_border_color_filtered(obj, part);
 451              		.loc 1 75 17 is_stmt 1 view .LVU160
 452              	.LVL40:
 453              	.LBB176:
 454              	.LBI176:
 301:Middlewares/lvgl/src/core/lv_obj_style_gen.h **** {
 455              		.loc 2 301 32 view .LVU161
 456              	.LBB177:
 303:Middlewares/lvgl/src/core/lv_obj_style_gen.h ****     return (lv_border_side_t)v.num;
 457              		.loc 2 303 5 view .LVU162
 303:Middlewares/lvgl/src/core/lv_obj_style_gen.h ****     return (lv_border_side_t)v.num;
 458              		.loc 2 303 26 is_stmt 0 view .LVU163
 459 0162 3322     		movs	r2, #51
ARM GAS  /tmp/ccXWhpqg.s 			page 21


 460 0164 2946     		mov	r1, r5
 461 0166 3046     		mov	r0, r6
 462 0168 FFF7FEFF 		bl	lv_obj_get_style_prop
 463              	.LVL41:
 304:Middlewares/lvgl/src/core/lv_obj_style_gen.h **** }
 464              		.loc 2 304 5 is_stmt 1 view .LVU164
 304:Middlewares/lvgl/src/core/lv_obj_style_gen.h **** }
 465              		.loc 2 304 5 is_stmt 0 view .LVU165
 466              	.LBE177:
 467              	.LBE176:
  75:Middlewares/lvgl/src/core/lv_obj_draw.c ****                 draw_dsc->border_color = lv_obj_get_style_border_color_filtered(obj, part);
 468              		.loc 1 75 39 view .LVU166
 469 016c E37F     		ldrb	r3, [r4, #31]	@ zero_extendqisi2
 470 016e 60F34503 		bfi	r3, r0, #1, #5
 471 0172 E377     		strb	r3, [r4, #31]
  76:Middlewares/lvgl/src/core/lv_obj_draw.c ****             }
 472              		.loc 1 76 17 is_stmt 1 view .LVU167
 473              	.LVL42:
 474              	.LBB178:
 475              	.LBI178:
 283:Middlewares/lvgl/src/core/lv_obj_style_gen.h **** {
 476              		.loc 2 283 26 view .LVU168
 477              	.LBB179:
 285:Middlewares/lvgl/src/core/lv_obj_style_gen.h ****     return v.color;
 478              		.loc 2 285 5 view .LVU169
 285:Middlewares/lvgl/src/core/lv_obj_style_gen.h ****     return v.color;
 479              		.loc 2 285 26 is_stmt 0 view .LVU170
 480 0174 44F23002 		movw	r2, #16432
 481 0178 2946     		mov	r1, r5
 482 017a 3046     		mov	r0, r6
 483 017c FFF7FEFF 		bl	lv_obj_get_style_prop
 484              	.LVL43:
 286:Middlewares/lvgl/src/core/lv_obj_style_gen.h **** }
 485              		.loc 2 286 5 is_stmt 1 view .LVU171
 286:Middlewares/lvgl/src/core/lv_obj_style_gen.h **** }
 486              		.loc 2 286 5 is_stmt 0 view .LVU172
 487              	.LBE179:
 488              	.LBE178:
  76:Middlewares/lvgl/src/core/lv_obj_draw.c ****             }
 489              		.loc 1 76 42 view .LVU173
 490 0180 6083     		strh	r0, [r4, #26]	@ movhi
 491 0182 7CE7     		b	.L6
 492              	.L17:
  84:Middlewares/lvgl/src/core/lv_obj_draw.c ****             if(draw_dsc->outline_opa > LV_OPA_MIN) {
 493              		.loc 1 84 13 is_stmt 1 view .LVU174
 494              	.LVL44:
 495              	.LBB180:
 496              	.LBI180:
 389:Middlewares/lvgl/src/core/lv_obj_style_gen.h **** }
 390:Middlewares/lvgl/src/core/lv_obj_style_gen.h **** 
 391:Middlewares/lvgl/src/core/lv_obj_style_gen.h **** static inline lv_color_t lv_obj_get_style_outline_color(const struct _lv_obj_t * obj, uint32_t part
 392:Middlewares/lvgl/src/core/lv_obj_style_gen.h **** {
 393:Middlewares/lvgl/src/core/lv_obj_style_gen.h ****     lv_style_value_t v = lv_obj_get_style_prop(obj, part, LV_STYLE_OUTLINE_COLOR);
 394:Middlewares/lvgl/src/core/lv_obj_style_gen.h ****     return v.color;
 395:Middlewares/lvgl/src/core/lv_obj_style_gen.h **** }
 396:Middlewares/lvgl/src/core/lv_obj_style_gen.h **** 
 397:Middlewares/lvgl/src/core/lv_obj_style_gen.h **** static inline lv_color_t lv_obj_get_style_outline_color_filtered(const struct _lv_obj_t * obj, uint
ARM GAS  /tmp/ccXWhpqg.s 			page 22


 398:Middlewares/lvgl/src/core/lv_obj_style_gen.h **** {
 399:Middlewares/lvgl/src/core/lv_obj_style_gen.h ****     lv_style_value_t v = lv_obj_get_style_prop(obj, part, LV_STYLE_OUTLINE_COLOR_FILTERED);
 400:Middlewares/lvgl/src/core/lv_obj_style_gen.h ****     return v.color;
 401:Middlewares/lvgl/src/core/lv_obj_style_gen.h **** }
 402:Middlewares/lvgl/src/core/lv_obj_style_gen.h **** 
 403:Middlewares/lvgl/src/core/lv_obj_style_gen.h **** static inline lv_opa_t lv_obj_get_style_outline_opa(const struct _lv_obj_t * obj, uint32_t part)
 497              		.loc 2 403 24 view .LVU175
 498              	.LBB181:
 404:Middlewares/lvgl/src/core/lv_obj_style_gen.h **** {
 405:Middlewares/lvgl/src/core/lv_obj_style_gen.h ****     lv_style_value_t v = lv_obj_get_style_prop(obj, part, LV_STYLE_OUTLINE_OPA);
 499              		.loc 2 405 5 view .LVU176
 500              		.loc 2 405 26 is_stmt 0 view .LVU177
 501 0184 40F63C02 		movw	r2, #2108
 502 0188 2946     		mov	r1, r5
 503 018a 3046     		mov	r0, r6
 504 018c FFF7FEFF 		bl	lv_obj_get_style_prop
 505              	.LVL45:
 406:Middlewares/lvgl/src/core/lv_obj_style_gen.h ****     return (lv_opa_t)v.num;
 506              		.loc 2 406 5 is_stmt 1 view .LVU178
 507              		.loc 2 406 12 is_stmt 0 view .LVU179
 508 0190 C0B2     		uxtb	r0, r0
 509              	.LVL46:
 510              		.loc 2 406 12 view .LVU180
 511              	.LBE181:
 512              	.LBE180:
  84:Middlewares/lvgl/src/core/lv_obj_draw.c ****             if(draw_dsc->outline_opa > LV_OPA_MIN) {
 513              		.loc 1 84 35 view .LVU181
 514 0192 84F82600 		strb	r0, [r4, #38]
  85:Middlewares/lvgl/src/core/lv_obj_draw.c ****                 draw_dsc->outline_pad = lv_obj_get_style_outline_pad(obj, part);
 515              		.loc 1 85 13 is_stmt 1 view .LVU182
  85:Middlewares/lvgl/src/core/lv_obj_draw.c ****                 draw_dsc->outline_pad = lv_obj_get_style_outline_pad(obj, part);
 516              		.loc 1 85 15 is_stmt 0 view .LVU183
 517 0196 0228     		cmp	r0, #2
 518 0198 7FF67EAF 		bls	.L7
  86:Middlewares/lvgl/src/core/lv_obj_draw.c ****                 draw_dsc->outline_color = lv_obj_get_style_outline_color(obj, part);
 519              		.loc 1 86 17 is_stmt 1 view .LVU184
 520              	.LVL47:
 521              	.LBB182:
 522              	.LBI182:
 407:Middlewares/lvgl/src/core/lv_obj_style_gen.h **** }
 408:Middlewares/lvgl/src/core/lv_obj_style_gen.h **** 
 409:Middlewares/lvgl/src/core/lv_obj_style_gen.h **** static inline lv_coord_t lv_obj_get_style_outline_pad(const struct _lv_obj_t * obj, uint32_t part)
 523              		.loc 2 409 26 view .LVU185
 524              	.LBB183:
 410:Middlewares/lvgl/src/core/lv_obj_style_gen.h **** {
 411:Middlewares/lvgl/src/core/lv_obj_style_gen.h ****     lv_style_value_t v = lv_obj_get_style_prop(obj, part, LV_STYLE_OUTLINE_PAD);
 525              		.loc 2 411 5 view .LVU186
 526              		.loc 2 411 26 is_stmt 0 view .LVU187
 527 019c 40F63D02 		movw	r2, #2109
 528 01a0 2946     		mov	r1, r5
 529 01a2 3046     		mov	r0, r6
 530 01a4 FFF7FEFF 		bl	lv_obj_get_style_prop
 531              	.LVL48:
 412:Middlewares/lvgl/src/core/lv_obj_style_gen.h ****     return (lv_coord_t)v.num;
 532              		.loc 2 412 5 is_stmt 1 view .LVU188
 533              		.loc 2 412 5 is_stmt 0 view .LVU189
 534              	.LBE183:
ARM GAS  /tmp/ccXWhpqg.s 			page 23


 535              	.LBE182:
  86:Middlewares/lvgl/src/core/lv_obj_draw.c ****                 draw_dsc->outline_color = lv_obj_get_style_outline_color(obj, part);
 536              		.loc 1 86 39 view .LVU190
 537 01a8 A084     		strh	r0, [r4, #36]	@ movhi
  87:Middlewares/lvgl/src/core/lv_obj_draw.c ****             }
 538              		.loc 1 87 17 is_stmt 1 view .LVU191
 539              	.LVL49:
 540              	.LBB184:
 541              	.LBI184:
 391:Middlewares/lvgl/src/core/lv_obj_style_gen.h **** {
 542              		.loc 2 391 26 view .LVU192
 543              	.LBB185:
 393:Middlewares/lvgl/src/core/lv_obj_style_gen.h ****     return v.color;
 544              		.loc 2 393 5 view .LVU193
 393:Middlewares/lvgl/src/core/lv_obj_style_gen.h ****     return v.color;
 545              		.loc 2 393 26 is_stmt 0 view .LVU194
 546 01aa 3B22     		movs	r2, #59
 547 01ac 2946     		mov	r1, r5
 548 01ae 3046     		mov	r0, r6
 549 01b0 FFF7FEFF 		bl	lv_obj_get_style_prop
 550              	.LVL50:
 394:Middlewares/lvgl/src/core/lv_obj_style_gen.h **** }
 551              		.loc 2 394 5 is_stmt 1 view .LVU195
 394:Middlewares/lvgl/src/core/lv_obj_style_gen.h **** }
 552              		.loc 2 394 5 is_stmt 0 view .LVU196
 553              	.LBE185:
 554              	.LBE184:
  87:Middlewares/lvgl/src/core/lv_obj_draw.c ****             }
 555              		.loc 1 87 43 view .LVU197
 556 01b4 2084     		strh	r0, [r4, #32]	@ movhi
 557 01b6 6FE7     		b	.L7
 558              	.L18:
  93:Middlewares/lvgl/src/core/lv_obj_draw.c ****         if(draw_dsc->bg_img_src) {
 559              		.loc 1 93 9 is_stmt 1 view .LVU198
 560              	.LVL51:
 561              	.LBB186:
 562              	.LBI186:
 241:Middlewares/lvgl/src/core/lv_obj_style_gen.h **** {
 563              		.loc 2 241 28 view .LVU199
 564              	.LBB187:
 243:Middlewares/lvgl/src/core/lv_obj_style_gen.h ****     return (const void *)v.ptr;
 565              		.loc 2 243 5 view .LVU200
 243:Middlewares/lvgl/src/core/lv_obj_style_gen.h ****     return (const void *)v.ptr;
 566              		.loc 2 243 26 is_stmt 0 view .LVU201
 567 01b8 2622     		movs	r2, #38
 568 01ba 2946     		mov	r1, r5
 569 01bc 3046     		mov	r0, r6
 570 01be FFF7FEFF 		bl	lv_obj_get_style_prop
 571              	.LVL52:
 244:Middlewares/lvgl/src/core/lv_obj_style_gen.h **** }
 572              		.loc 2 244 5 is_stmt 1 view .LVU202
 244:Middlewares/lvgl/src/core/lv_obj_style_gen.h **** }
 573              		.loc 2 244 5 is_stmt 0 view .LVU203
 574              	.LBE187:
 575              	.LBE186:
  93:Middlewares/lvgl/src/core/lv_obj_draw.c ****         if(draw_dsc->bg_img_src) {
 576              		.loc 1 93 30 view .LVU204
ARM GAS  /tmp/ccXWhpqg.s 			page 24


 577 01c2 E060     		str	r0, [r4, #12]
  94:Middlewares/lvgl/src/core/lv_obj_draw.c ****             draw_dsc->bg_img_opa = lv_obj_get_style_bg_img_opa(obj, part);
 578              		.loc 1 94 9 is_stmt 1 view .LVU205
  94:Middlewares/lvgl/src/core/lv_obj_draw.c ****             draw_dsc->bg_img_opa = lv_obj_get_style_bg_img_opa(obj, part);
 579              		.loc 1 94 11 is_stmt 0 view .LVU206
 580 01c4 0028     		cmp	r0, #0
 581 01c6 3FF46BAF 		beq	.L8
  95:Middlewares/lvgl/src/core/lv_obj_draw.c ****             if(draw_dsc->bg_img_opa > LV_OPA_MIN) {
 582              		.loc 1 95 13 is_stmt 1 view .LVU207
 583              	.LVL53:
 584              	.LBB188:
 585              	.LBI188:
 247:Middlewares/lvgl/src/core/lv_obj_style_gen.h **** {
 586              		.loc 2 247 24 view .LVU208
 587              	.LBB189:
 249:Middlewares/lvgl/src/core/lv_obj_style_gen.h ****     return (lv_opa_t)v.num;
 588              		.loc 2 249 5 view .LVU209
 249:Middlewares/lvgl/src/core/lv_obj_style_gen.h ****     return (lv_opa_t)v.num;
 589              		.loc 2 249 26 is_stmt 0 view .LVU210
 590 01ca 2722     		movs	r2, #39
 591 01cc 2946     		mov	r1, r5
 592 01ce 3046     		mov	r0, r6
 593              	.LVL54:
 249:Middlewares/lvgl/src/core/lv_obj_style_gen.h ****     return (lv_opa_t)v.num;
 594              		.loc 2 249 26 view .LVU211
 595 01d0 FFF7FEFF 		bl	lv_obj_get_style_prop
 596              	.LVL55:
 250:Middlewares/lvgl/src/core/lv_obj_style_gen.h **** }
 597              		.loc 2 250 5 is_stmt 1 view .LVU212
 250:Middlewares/lvgl/src/core/lv_obj_style_gen.h **** }
 598              		.loc 2 250 12 is_stmt 0 view .LVU213
 599 01d4 C0B2     		uxtb	r0, r0
 600              	.LVL56:
 250:Middlewares/lvgl/src/core/lv_obj_style_gen.h **** }
 601              		.loc 2 250 12 view .LVU214
 602              	.LBE189:
 603              	.LBE188:
  95:Middlewares/lvgl/src/core/lv_obj_draw.c ****             if(draw_dsc->bg_img_opa > LV_OPA_MIN) {
 604              		.loc 1 95 34 view .LVU215
 605 01d6 A075     		strb	r0, [r4, #22]
  96:Middlewares/lvgl/src/core/lv_obj_draw.c ****                 if(lv_img_src_get_type(draw_dsc->bg_img_src) == LV_IMG_SRC_SYMBOL) {
 606              		.loc 1 96 13 is_stmt 1 view .LVU216
  96:Middlewares/lvgl/src/core/lv_obj_draw.c ****                 if(lv_img_src_get_type(draw_dsc->bg_img_src) == LV_IMG_SRC_SYMBOL) {
 607              		.loc 1 96 15 is_stmt 0 view .LVU217
 608 01d8 0228     		cmp	r0, #2
 609 01da 7FF661AF 		bls	.L8
  97:Middlewares/lvgl/src/core/lv_obj_draw.c ****                     draw_dsc->bg_img_symbol_font= lv_obj_get_style_text_font(obj, part);
 610              		.loc 1 97 17 is_stmt 1 view .LVU218
  97:Middlewares/lvgl/src/core/lv_obj_draw.c ****                     draw_dsc->bg_img_symbol_font= lv_obj_get_style_text_font(obj, part);
 611              		.loc 1 97 20 is_stmt 0 view .LVU219
 612 01de E068     		ldr	r0, [r4, #12]
 613 01e0 FFF7FEFF 		bl	lv_img_src_get_type
 614              	.LVL57:
  97:Middlewares/lvgl/src/core/lv_obj_draw.c ****                     draw_dsc->bg_img_symbol_font= lv_obj_get_style_text_font(obj, part);
 615              		.loc 1 97 19 view .LVU220
 616 01e4 0228     		cmp	r0, #2
 617 01e6 15D0     		beq	.L20
ARM GAS  /tmp/ccXWhpqg.s 			page 25


 101:Middlewares/lvgl/src/core/lv_obj_draw.c ****                     draw_dsc->bg_img_recolor_opa = lv_obj_get_style_bg_img_recolor_opa(obj, part);
 618              		.loc 1 101 21 is_stmt 1 view .LVU221
 619              	.LVL58:
 620              	.LBB190:
 621              	.LBI190:
 253:Middlewares/lvgl/src/core/lv_obj_style_gen.h **** {
 622              		.loc 2 253 26 view .LVU222
 623              	.LBB191:
 255:Middlewares/lvgl/src/core/lv_obj_style_gen.h ****     return v.color;
 624              		.loc 2 255 5 view .LVU223
 255:Middlewares/lvgl/src/core/lv_obj_style_gen.h ****     return v.color;
 625              		.loc 2 255 26 is_stmt 0 view .LVU224
 626 01e8 2822     		movs	r2, #40
 627 01ea 2946     		mov	r1, r5
 628 01ec 3046     		mov	r0, r6
 629 01ee FFF7FEFF 		bl	lv_obj_get_style_prop
 630              	.LVL59:
 256:Middlewares/lvgl/src/core/lv_obj_style_gen.h **** }
 631              		.loc 2 256 5 is_stmt 1 view .LVU225
 256:Middlewares/lvgl/src/core/lv_obj_style_gen.h **** }
 632              		.loc 2 256 5 is_stmt 0 view .LVU226
 633              	.LBE191:
 634              	.LBE190:
 101:Middlewares/lvgl/src/core/lv_obj_draw.c ****                     draw_dsc->bg_img_recolor_opa = lv_obj_get_style_bg_img_recolor_opa(obj, part);
 635              		.loc 1 101 48 view .LVU227
 636 01f2 A082     		strh	r0, [r4, #20]	@ movhi
 102:Middlewares/lvgl/src/core/lv_obj_draw.c ****                     draw_dsc->bg_img_tiled = lv_obj_get_style_bg_img_tiled(obj, part);
 637              		.loc 1 102 21 is_stmt 1 view .LVU228
 638              	.LVL60:
 639              	.LBB192:
 640              	.LBI192:
 265:Middlewares/lvgl/src/core/lv_obj_style_gen.h **** {
 641              		.loc 2 265 24 view .LVU229
 642              	.LBB193:
 267:Middlewares/lvgl/src/core/lv_obj_style_gen.h ****     return (lv_opa_t)v.num;
 643              		.loc 2 267 5 view .LVU230
 267:Middlewares/lvgl/src/core/lv_obj_style_gen.h ****     return (lv_opa_t)v.num;
 644              		.loc 2 267 26 is_stmt 0 view .LVU231
 645 01f4 2922     		movs	r2, #41
 646 01f6 2946     		mov	r1, r5
 647 01f8 3046     		mov	r0, r6
 648 01fa FFF7FEFF 		bl	lv_obj_get_style_prop
 649              	.LVL61:
 268:Middlewares/lvgl/src/core/lv_obj_style_gen.h **** }
 650              		.loc 2 268 5 is_stmt 1 view .LVU232
 268:Middlewares/lvgl/src/core/lv_obj_style_gen.h **** }
 651              		.loc 2 268 5 is_stmt 0 view .LVU233
 652              	.LBE193:
 653              	.LBE192:
 102:Middlewares/lvgl/src/core/lv_obj_draw.c ****                     draw_dsc->bg_img_tiled = lv_obj_get_style_bg_img_tiled(obj, part);
 654              		.loc 1 102 50 view .LVU234
 655 01fe E075     		strb	r0, [r4, #23]
 103:Middlewares/lvgl/src/core/lv_obj_draw.c ****                 }
 656              		.loc 1 103 21 is_stmt 1 view .LVU235
 657              	.LVL62:
 658              	.LBB194:
 659              	.LBI194:
ARM GAS  /tmp/ccXWhpqg.s 			page 26


 271:Middlewares/lvgl/src/core/lv_obj_style_gen.h **** {
 660              		.loc 2 271 20 view .LVU236
 661              	.LBB195:
 273:Middlewares/lvgl/src/core/lv_obj_style_gen.h ****     return (bool)v.num;
 662              		.loc 2 273 5 view .LVU237
 273:Middlewares/lvgl/src/core/lv_obj_style_gen.h ****     return (bool)v.num;
 663              		.loc 2 273 26 is_stmt 0 view .LVU238
 664 0200 2A22     		movs	r2, #42
 665 0202 2946     		mov	r1, r5
 666 0204 3046     		mov	r0, r6
 667 0206 FFF7FEFF 		bl	lv_obj_get_style_prop
 668              	.LVL63:
 274:Middlewares/lvgl/src/core/lv_obj_style_gen.h **** }
 669              		.loc 2 274 5 is_stmt 1 view .LVU239
 274:Middlewares/lvgl/src/core/lv_obj_style_gen.h **** }
 670              		.loc 2 274 12 is_stmt 0 view .LVU240
 671 020a 0038     		subs	r0, r0, #0
 672 020c 18BF     		it	ne
 673 020e 0120     		movne	r0, #1
 674              	.LVL64:
 274:Middlewares/lvgl/src/core/lv_obj_style_gen.h **** }
 675              		.loc 2 274 12 view .LVU241
 676              	.LBE195:
 677              	.LBE194:
 103:Middlewares/lvgl/src/core/lv_obj_draw.c ****                 }
 678              		.loc 1 103 44 view .LVU242
 679 0210 2076     		strb	r0, [r4, #24]
 680 0212 45E7     		b	.L8
 681              	.L20:
  98:Middlewares/lvgl/src/core/lv_obj_draw.c ****                     draw_dsc->bg_img_recolor = lv_obj_get_style_text_color(obj, part);
 682              		.loc 1 98 21 is_stmt 1 view .LVU243
 683              	.LVL65:
 684              	.LBB196:
 685              	.LBI196:
 331:Middlewares/lvgl/src/core/lv_obj_style_gen.h **** {
 686              		.loc 2 331 33 view .LVU244
 687              	.LBB197:
 333:Middlewares/lvgl/src/core/lv_obj_style_gen.h ****     return (const lv_font_t *)v.ptr;
 688              		.loc 2 333 5 view .LVU245
 333:Middlewares/lvgl/src/core/lv_obj_style_gen.h ****     return (const lv_font_t *)v.ptr;
 689              		.loc 2 333 26 is_stmt 0 view .LVU246
 690 0214 41F25942 		movw	r2, #5209
 691 0218 2946     		mov	r1, r5
 692 021a 3046     		mov	r0, r6
 693 021c FFF7FEFF 		bl	lv_obj_get_style_prop
 694              	.LVL66:
 334:Middlewares/lvgl/src/core/lv_obj_style_gen.h **** }
 695              		.loc 2 334 5 is_stmt 1 view .LVU247
 334:Middlewares/lvgl/src/core/lv_obj_style_gen.h **** }
 696              		.loc 2 334 5 is_stmt 0 view .LVU248
 697              	.LBE197:
 698              	.LBE196:
  98:Middlewares/lvgl/src/core/lv_obj_draw.c ****                     draw_dsc->bg_img_recolor = lv_obj_get_style_text_color(obj, part);
 699              		.loc 1 98 49 view .LVU249
 700 0220 2061     		str	r0, [r4, #16]
  99:Middlewares/lvgl/src/core/lv_obj_draw.c ****                 } else {
 701              		.loc 1 99 21 is_stmt 1 view .LVU250
ARM GAS  /tmp/ccXWhpqg.s 			page 27


 702              	.LVL67:
 703              	.LBB198:
 704              	.LBI198:
 313:Middlewares/lvgl/src/core/lv_obj_style_gen.h **** {
 705              		.loc 2 313 26 view .LVU251
 706              	.LBB199:
 315:Middlewares/lvgl/src/core/lv_obj_style_gen.h ****     return v.color;
 707              		.loc 2 315 5 view .LVU252
 315:Middlewares/lvgl/src/core/lv_obj_style_gen.h ****     return v.color;
 708              		.loc 2 315 26 is_stmt 0 view .LVU253
 709 0222 40F25742 		movw	r2, #1111
 710 0226 2946     		mov	r1, r5
 711 0228 3046     		mov	r0, r6
 712 022a FFF7FEFF 		bl	lv_obj_get_style_prop
 713              	.LVL68:
 316:Middlewares/lvgl/src/core/lv_obj_style_gen.h **** }
 714              		.loc 2 316 5 is_stmt 1 view .LVU254
 316:Middlewares/lvgl/src/core/lv_obj_style_gen.h **** }
 715              		.loc 2 316 5 is_stmt 0 view .LVU255
 716              	.LBE199:
 717              	.LBE198:
  99:Middlewares/lvgl/src/core/lv_obj_draw.c ****                 } else {
 718              		.loc 1 99 48 view .LVU256
 719 022e A082     		strh	r0, [r4, #20]	@ movhi
 720 0230 36E7     		b	.L8
 721              	.LVL69:
 722              	.L19:
 110:Middlewares/lvgl/src/core/lv_obj_draw.c ****         if(draw_dsc->shadow_width) {
 723              		.loc 1 110 9 is_stmt 1 view .LVU257
 724              	.LBB200:
 725              	.LBI200:
 413:Middlewares/lvgl/src/core/lv_obj_style_gen.h **** }
 414:Middlewares/lvgl/src/core/lv_obj_style_gen.h **** 
 415:Middlewares/lvgl/src/core/lv_obj_style_gen.h **** static inline lv_coord_t lv_obj_get_style_shadow_width(const struct _lv_obj_t * obj, uint32_t part)
 726              		.loc 2 415 26 view .LVU258
 727              	.LBB201:
 416:Middlewares/lvgl/src/core/lv_obj_style_gen.h **** {
 417:Middlewares/lvgl/src/core/lv_obj_style_gen.h ****     lv_style_value_t v = lv_obj_get_style_prop(obj, part, LV_STYLE_SHADOW_WIDTH);
 728              		.loc 2 417 5 view .LVU259
 729              		.loc 2 417 26 is_stmt 0 view .LVU260
 730 0232 4FF40462 		mov	r2, #2112
 731 0236 2946     		mov	r1, r5
 732 0238 3046     		mov	r0, r6
 733              	.LVL70:
 734              		.loc 2 417 26 view .LVU261
 735 023a FFF7FEFF 		bl	lv_obj_get_style_prop
 736              	.LVL71:
 418:Middlewares/lvgl/src/core/lv_obj_style_gen.h ****     return (lv_coord_t)v.num;
 737              		.loc 2 418 5 is_stmt 1 view .LVU262
 738              		.loc 2 418 12 is_stmt 0 view .LVU263
 739 023e 00B2     		sxth	r0, r0
 740              	.LVL72:
 741              		.loc 2 418 12 view .LVU264
 742              	.LBE201:
 743              	.LBE200:
 110:Middlewares/lvgl/src/core/lv_obj_draw.c ****         if(draw_dsc->shadow_width) {
 744              		.loc 1 110 32 view .LVU265
ARM GAS  /tmp/ccXWhpqg.s 			page 28


 745 0240 6085     		strh	r0, [r4, #42]	@ movhi
 111:Middlewares/lvgl/src/core/lv_obj_draw.c ****             if(draw_dsc->shadow_opa > LV_OPA_MIN) {
 746              		.loc 1 111 9 is_stmt 1 view .LVU266
 111:Middlewares/lvgl/src/core/lv_obj_draw.c ****             if(draw_dsc->shadow_opa > LV_OPA_MIN) {
 747              		.loc 1 111 11 is_stmt 0 view .LVU267
 748 0242 0028     		cmp	r0, #0
 749 0244 3FF431AF 		beq	.L10
 112:Middlewares/lvgl/src/core/lv_obj_draw.c ****                 draw_dsc->shadow_opa = lv_obj_get_style_shadow_opa(obj, part);
 750              		.loc 1 112 13 is_stmt 1 view .LVU268
 112:Middlewares/lvgl/src/core/lv_obj_draw.c ****                 draw_dsc->shadow_opa = lv_obj_get_style_shadow_opa(obj, part);
 751              		.loc 1 112 24 is_stmt 0 view .LVU269
 752 0248 94F83230 		ldrb	r3, [r4, #50]	@ zero_extendqisi2
 112:Middlewares/lvgl/src/core/lv_obj_draw.c ****                 draw_dsc->shadow_opa = lv_obj_get_style_shadow_opa(obj, part);
 753              		.loc 1 112 15 view .LVU270
 754 024c 022B     		cmp	r3, #2
 755 024e 7FF62CAF 		bls	.L10
 113:Middlewares/lvgl/src/core/lv_obj_draw.c ****                 if(draw_dsc->shadow_opa > LV_OPA_MIN) {
 756              		.loc 1 113 17 is_stmt 1 view .LVU271
 757              	.LVL73:
 758              	.LBB202:
 759              	.LBI202:
 419:Middlewares/lvgl/src/core/lv_obj_style_gen.h **** }
 420:Middlewares/lvgl/src/core/lv_obj_style_gen.h **** 
 421:Middlewares/lvgl/src/core/lv_obj_style_gen.h **** static inline lv_coord_t lv_obj_get_style_shadow_ofs_x(const struct _lv_obj_t * obj, uint32_t part)
 422:Middlewares/lvgl/src/core/lv_obj_style_gen.h **** {
 423:Middlewares/lvgl/src/core/lv_obj_style_gen.h ****     lv_style_value_t v = lv_obj_get_style_prop(obj, part, LV_STYLE_SHADOW_OFS_X);
 424:Middlewares/lvgl/src/core/lv_obj_style_gen.h ****     return (lv_coord_t)v.num;
 425:Middlewares/lvgl/src/core/lv_obj_style_gen.h **** }
 426:Middlewares/lvgl/src/core/lv_obj_style_gen.h **** 
 427:Middlewares/lvgl/src/core/lv_obj_style_gen.h **** static inline lv_coord_t lv_obj_get_style_shadow_ofs_y(const struct _lv_obj_t * obj, uint32_t part)
 428:Middlewares/lvgl/src/core/lv_obj_style_gen.h **** {
 429:Middlewares/lvgl/src/core/lv_obj_style_gen.h ****     lv_style_value_t v = lv_obj_get_style_prop(obj, part, LV_STYLE_SHADOW_OFS_Y);
 430:Middlewares/lvgl/src/core/lv_obj_style_gen.h ****     return (lv_coord_t)v.num;
 431:Middlewares/lvgl/src/core/lv_obj_style_gen.h **** }
 432:Middlewares/lvgl/src/core/lv_obj_style_gen.h **** 
 433:Middlewares/lvgl/src/core/lv_obj_style_gen.h **** static inline lv_coord_t lv_obj_get_style_shadow_spread(const struct _lv_obj_t * obj, uint32_t part
 434:Middlewares/lvgl/src/core/lv_obj_style_gen.h **** {
 435:Middlewares/lvgl/src/core/lv_obj_style_gen.h ****     lv_style_value_t v = lv_obj_get_style_prop(obj, part, LV_STYLE_SHADOW_SPREAD);
 436:Middlewares/lvgl/src/core/lv_obj_style_gen.h ****     return (lv_coord_t)v.num;
 437:Middlewares/lvgl/src/core/lv_obj_style_gen.h **** }
 438:Middlewares/lvgl/src/core/lv_obj_style_gen.h **** 
 439:Middlewares/lvgl/src/core/lv_obj_style_gen.h **** static inline lv_color_t lv_obj_get_style_shadow_color(const struct _lv_obj_t * obj, uint32_t part)
 440:Middlewares/lvgl/src/core/lv_obj_style_gen.h **** {
 441:Middlewares/lvgl/src/core/lv_obj_style_gen.h ****     lv_style_value_t v = lv_obj_get_style_prop(obj, part, LV_STYLE_SHADOW_COLOR);
 442:Middlewares/lvgl/src/core/lv_obj_style_gen.h ****     return v.color;
 443:Middlewares/lvgl/src/core/lv_obj_style_gen.h **** }
 444:Middlewares/lvgl/src/core/lv_obj_style_gen.h **** 
 445:Middlewares/lvgl/src/core/lv_obj_style_gen.h **** static inline lv_color_t lv_obj_get_style_shadow_color_filtered(const struct _lv_obj_t * obj, uint3
 446:Middlewares/lvgl/src/core/lv_obj_style_gen.h **** {
 447:Middlewares/lvgl/src/core/lv_obj_style_gen.h ****     lv_style_value_t v = lv_obj_get_style_prop(obj, part, LV_STYLE_SHADOW_COLOR_FILTERED);
 448:Middlewares/lvgl/src/core/lv_obj_style_gen.h ****     return v.color;
 449:Middlewares/lvgl/src/core/lv_obj_style_gen.h **** }
 450:Middlewares/lvgl/src/core/lv_obj_style_gen.h **** 
 451:Middlewares/lvgl/src/core/lv_obj_style_gen.h **** static inline lv_opa_t lv_obj_get_style_shadow_opa(const struct _lv_obj_t * obj, uint32_t part)
 760              		.loc 2 451 24 view .LVU272
 761              	.LBB203:
 452:Middlewares/lvgl/src/core/lv_obj_style_gen.h **** {
ARM GAS  /tmp/ccXWhpqg.s 			page 29


 453:Middlewares/lvgl/src/core/lv_obj_style_gen.h ****     lv_style_value_t v = lv_obj_get_style_prop(obj, part, LV_STYLE_SHADOW_OPA);
 762              		.loc 2 453 5 view .LVU273
 763              		.loc 2 453 26 is_stmt 0 view .LVU274
 764 0252 40F64502 		movw	r2, #2117
 765 0256 2946     		mov	r1, r5
 766 0258 3046     		mov	r0, r6
 767 025a FFF7FEFF 		bl	lv_obj_get_style_prop
 768              	.LVL74:
 454:Middlewares/lvgl/src/core/lv_obj_style_gen.h ****     return (lv_opa_t)v.num;
 769              		.loc 2 454 5 is_stmt 1 view .LVU275
 770              		.loc 2 454 12 is_stmt 0 view .LVU276
 771 025e C0B2     		uxtb	r0, r0
 772              	.LVL75:
 773              		.loc 2 454 12 view .LVU277
 774              	.LBE203:
 775              	.LBE202:
 113:Middlewares/lvgl/src/core/lv_obj_draw.c ****                 if(draw_dsc->shadow_opa > LV_OPA_MIN) {
 776              		.loc 1 113 38 view .LVU278
 777 0260 84F83200 		strb	r0, [r4, #50]
 114:Middlewares/lvgl/src/core/lv_obj_draw.c ****                     draw_dsc->shadow_ofs_x = lv_obj_get_style_shadow_ofs_x(obj, part);
 778              		.loc 1 114 17 is_stmt 1 view .LVU279
 114:Middlewares/lvgl/src/core/lv_obj_draw.c ****                     draw_dsc->shadow_ofs_x = lv_obj_get_style_shadow_ofs_x(obj, part);
 779              		.loc 1 114 19 is_stmt 0 view .LVU280
 780 0264 0228     		cmp	r0, #2
 781 0266 7FF620AF 		bls	.L10
 115:Middlewares/lvgl/src/core/lv_obj_draw.c ****                     draw_dsc->shadow_ofs_y = lv_obj_get_style_shadow_ofs_y(obj, part);
 782              		.loc 1 115 21 is_stmt 1 view .LVU281
 783              	.LVL76:
 784              	.LBB204:
 785              	.LBI204:
 421:Middlewares/lvgl/src/core/lv_obj_style_gen.h **** {
 786              		.loc 2 421 26 view .LVU282
 787              	.LBB205:
 423:Middlewares/lvgl/src/core/lv_obj_style_gen.h ****     return (lv_coord_t)v.num;
 788              		.loc 2 423 5 view .LVU283
 423:Middlewares/lvgl/src/core/lv_obj_style_gen.h ****     return (lv_coord_t)v.num;
 789              		.loc 2 423 26 is_stmt 0 view .LVU284
 790 026a 40F64102 		movw	r2, #2113
 791 026e 2946     		mov	r1, r5
 792 0270 3046     		mov	r0, r6
 793 0272 FFF7FEFF 		bl	lv_obj_get_style_prop
 794              	.LVL77:
 424:Middlewares/lvgl/src/core/lv_obj_style_gen.h **** }
 795              		.loc 2 424 5 is_stmt 1 view .LVU285
 424:Middlewares/lvgl/src/core/lv_obj_style_gen.h **** }
 796              		.loc 2 424 5 is_stmt 0 view .LVU286
 797              	.LBE205:
 798              	.LBE204:
 115:Middlewares/lvgl/src/core/lv_obj_draw.c ****                     draw_dsc->shadow_ofs_y = lv_obj_get_style_shadow_ofs_y(obj, part);
 799              		.loc 1 115 44 view .LVU287
 800 0276 A085     		strh	r0, [r4, #44]	@ movhi
 116:Middlewares/lvgl/src/core/lv_obj_draw.c ****                     draw_dsc->shadow_spread = lv_obj_get_style_shadow_spread(obj, part);
 801              		.loc 1 116 21 is_stmt 1 view .LVU288
 802              	.LVL78:
 803              	.LBB206:
 804              	.LBI206:
 427:Middlewares/lvgl/src/core/lv_obj_style_gen.h **** {
ARM GAS  /tmp/ccXWhpqg.s 			page 30


 805              		.loc 2 427 26 view .LVU289
 806              	.LBB207:
 429:Middlewares/lvgl/src/core/lv_obj_style_gen.h ****     return (lv_coord_t)v.num;
 807              		.loc 2 429 5 view .LVU290
 429:Middlewares/lvgl/src/core/lv_obj_style_gen.h ****     return (lv_coord_t)v.num;
 808              		.loc 2 429 26 is_stmt 0 view .LVU291
 809 0278 40F64202 		movw	r2, #2114
 810 027c 2946     		mov	r1, r5
 811 027e 3046     		mov	r0, r6
 812 0280 FFF7FEFF 		bl	lv_obj_get_style_prop
 813              	.LVL79:
 430:Middlewares/lvgl/src/core/lv_obj_style_gen.h **** }
 814              		.loc 2 430 5 is_stmt 1 view .LVU292
 430:Middlewares/lvgl/src/core/lv_obj_style_gen.h **** }
 815              		.loc 2 430 5 is_stmt 0 view .LVU293
 816              	.LBE207:
 817              	.LBE206:
 116:Middlewares/lvgl/src/core/lv_obj_draw.c ****                     draw_dsc->shadow_spread = lv_obj_get_style_shadow_spread(obj, part);
 818              		.loc 1 116 44 view .LVU294
 819 0284 E085     		strh	r0, [r4, #46]	@ movhi
 117:Middlewares/lvgl/src/core/lv_obj_draw.c ****                     draw_dsc->shadow_color = lv_obj_get_style_shadow_color_filtered(obj, part);
 820              		.loc 1 117 21 is_stmt 1 view .LVU295
 821              	.LVL80:
 822              	.LBB208:
 823              	.LBI208:
 433:Middlewares/lvgl/src/core/lv_obj_style_gen.h **** {
 824              		.loc 2 433 26 view .LVU296
 825              	.LBB209:
 435:Middlewares/lvgl/src/core/lv_obj_style_gen.h ****     return (lv_coord_t)v.num;
 826              		.loc 2 435 5 view .LVU297
 435:Middlewares/lvgl/src/core/lv_obj_style_gen.h ****     return (lv_coord_t)v.num;
 827              		.loc 2 435 26 is_stmt 0 view .LVU298
 828 0286 40F64302 		movw	r2, #2115
 829 028a 2946     		mov	r1, r5
 830 028c 3046     		mov	r0, r6
 831 028e FFF7FEFF 		bl	lv_obj_get_style_prop
 832              	.LVL81:
 436:Middlewares/lvgl/src/core/lv_obj_style_gen.h **** }
 833              		.loc 2 436 5 is_stmt 1 view .LVU299
 436:Middlewares/lvgl/src/core/lv_obj_style_gen.h **** }
 834              		.loc 2 436 5 is_stmt 0 view .LVU300
 835              	.LBE209:
 836              	.LBE208:
 117:Middlewares/lvgl/src/core/lv_obj_draw.c ****                     draw_dsc->shadow_color = lv_obj_get_style_shadow_color_filtered(obj, part);
 837              		.loc 1 117 45 view .LVU301
 838 0292 2086     		strh	r0, [r4, #48]	@ movhi
 118:Middlewares/lvgl/src/core/lv_obj_draw.c ****                 }
 839              		.loc 1 118 21 is_stmt 1 view .LVU302
 840              	.LVL82:
 841              	.LBB210:
 842              	.LBI210:
 445:Middlewares/lvgl/src/core/lv_obj_style_gen.h **** {
 843              		.loc 2 445 26 view .LVU303
 844              	.LBB211:
 447:Middlewares/lvgl/src/core/lv_obj_style_gen.h ****     return v.color;
 845              		.loc 2 447 5 view .LVU304
 447:Middlewares/lvgl/src/core/lv_obj_style_gen.h ****     return v.color;
ARM GAS  /tmp/ccXWhpqg.s 			page 31


 846              		.loc 2 447 26 is_stmt 0 view .LVU305
 847 0294 44F24402 		movw	r2, #16452
 848 0298 2946     		mov	r1, r5
 849 029a 3046     		mov	r0, r6
 850 029c FFF7FEFF 		bl	lv_obj_get_style_prop
 851              	.LVL83:
 448:Middlewares/lvgl/src/core/lv_obj_style_gen.h **** }
 852              		.loc 2 448 5 is_stmt 1 view .LVU306
 448:Middlewares/lvgl/src/core/lv_obj_style_gen.h **** }
 853              		.loc 2 448 5 is_stmt 0 view .LVU307
 854              	.LBE211:
 855              	.LBE210:
 118:Middlewares/lvgl/src/core/lv_obj_draw.c ****                 }
 856              		.loc 1 118 46 view .LVU308
 857 02a0 2085     		strh	r0, [r4, #40]	@ movhi
 858 02a2 02E7     		b	.L10
 859              		.cfi_endproc
 860              	.LFE153:
 862              		.section	.text.lv_obj_init_draw_label_dsc,"ax",%progbits
 863              		.align	1
 864              		.global	lv_obj_init_draw_label_dsc
 865              		.syntax unified
 866              		.thumb
 867              		.thumb_func
 868              		.fpu fpv5-d16
 870              	lv_obj_init_draw_label_dsc:
 871              	.LVL84:
 872              	.LFB154:
 182:Middlewares/lvgl/src/core/lv_obj_draw.c **** 
 183:Middlewares/lvgl/src/core/lv_obj_draw.c **** void lv_obj_init_draw_label_dsc(lv_obj_t * obj, uint32_t part, lv_draw_label_dsc_t * draw_dsc)
 184:Middlewares/lvgl/src/core/lv_obj_draw.c **** {
 873              		.loc 1 184 1 is_stmt 1 view -0
 874              		.cfi_startproc
 875              		@ args = 0, pretend = 0, frame = 0
 876              		@ frame_needed = 0, uses_anonymous_args = 0
 877              		.loc 1 184 1 is_stmt 0 view .LVU310
 878 0000 70B5     		push	{r4, r5, r6, lr}
 879              	.LCFI1:
 880              		.cfi_def_cfa_offset 16
 881              		.cfi_offset 4, -16
 882              		.cfi_offset 5, -12
 883              		.cfi_offset 6, -8
 884              		.cfi_offset 14, -4
 885 0002 0546     		mov	r5, r0
 886 0004 0E46     		mov	r6, r1
 887 0006 1446     		mov	r4, r2
 185:Middlewares/lvgl/src/core/lv_obj_draw.c ****     draw_dsc->opa = lv_obj_get_style_text_opa(obj, part);
 888              		.loc 1 185 5 is_stmt 1 view .LVU311
 889              	.LVL85:
 890              	.LBB212:
 891              	.LBI212:
 325:Middlewares/lvgl/src/core/lv_obj_style_gen.h **** {
 892              		.loc 2 325 24 view .LVU312
 893              	.LBB213:
 327:Middlewares/lvgl/src/core/lv_obj_style_gen.h ****     return (lv_opa_t)v.num;
 894              		.loc 2 327 5 view .LVU313
 327:Middlewares/lvgl/src/core/lv_obj_style_gen.h ****     return (lv_opa_t)v.num;
ARM GAS  /tmp/ccXWhpqg.s 			page 32


 895              		.loc 2 327 26 is_stmt 0 view .LVU314
 896 0008 4FF48B62 		mov	r2, #1112
 897              	.LVL86:
 327:Middlewares/lvgl/src/core/lv_obj_style_gen.h ****     return (lv_opa_t)v.num;
 898              		.loc 2 327 26 view .LVU315
 899 000c FFF7FEFF 		bl	lv_obj_get_style_prop
 900              	.LVL87:
 328:Middlewares/lvgl/src/core/lv_obj_style_gen.h **** }
 901              		.loc 2 328 5 is_stmt 1 view .LVU316
 328:Middlewares/lvgl/src/core/lv_obj_style_gen.h **** }
 902              		.loc 2 328 12 is_stmt 0 view .LVU317
 903 0010 C3B2     		uxtb	r3, r0
 904              	.LVL88:
 328:Middlewares/lvgl/src/core/lv_obj_style_gen.h **** }
 905              		.loc 2 328 12 view .LVU318
 906              	.LBE213:
 907              	.LBE212:
 908              		.loc 1 185 19 view .LVU319
 909 0012 A376     		strb	r3, [r4, #26]
 186:Middlewares/lvgl/src/core/lv_obj_draw.c ****     if(draw_dsc->opa <= LV_OPA_MIN) return;
 910              		.loc 1 186 5 is_stmt 1 view .LVU320
 911              		.loc 1 186 7 is_stmt 0 view .LVU321
 912 0014 022B     		cmp	r3, #2
 913 0016 00D8     		bhi	.L26
 914              	.L21:
 187:Middlewares/lvgl/src/core/lv_obj_draw.c **** 
 188:Middlewares/lvgl/src/core/lv_obj_draw.c ****     lv_opa_t opa = lv_obj_get_style_opa(obj, part);
 189:Middlewares/lvgl/src/core/lv_obj_draw.c ****     if(opa < LV_OPA_MAX) {
 190:Middlewares/lvgl/src/core/lv_obj_draw.c ****         draw_dsc->opa = (uint16_t)((uint16_t)draw_dsc->opa * opa) >> 8;
 191:Middlewares/lvgl/src/core/lv_obj_draw.c ****     }
 192:Middlewares/lvgl/src/core/lv_obj_draw.c ****     if(draw_dsc->opa <= LV_OPA_MIN) return;
 193:Middlewares/lvgl/src/core/lv_obj_draw.c **** 
 194:Middlewares/lvgl/src/core/lv_obj_draw.c ****     draw_dsc->color = lv_obj_get_style_text_color_filtered(obj, part);
 195:Middlewares/lvgl/src/core/lv_obj_draw.c ****     draw_dsc->letter_space = lv_obj_get_style_text_letter_space(obj, part);
 196:Middlewares/lvgl/src/core/lv_obj_draw.c ****     draw_dsc->line_space = lv_obj_get_style_text_line_space(obj, part);
 197:Middlewares/lvgl/src/core/lv_obj_draw.c ****     draw_dsc->decor = lv_obj_get_style_text_decor(obj, part);
 198:Middlewares/lvgl/src/core/lv_obj_draw.c **** #if LV_DRAW_COMPLEX
 199:Middlewares/lvgl/src/core/lv_obj_draw.c ****     draw_dsc->blend_mode = lv_obj_get_style_blend_mode(obj, part);
 200:Middlewares/lvgl/src/core/lv_obj_draw.c **** #endif
 201:Middlewares/lvgl/src/core/lv_obj_draw.c **** 
 202:Middlewares/lvgl/src/core/lv_obj_draw.c ****     draw_dsc->font = lv_obj_get_style_text_font(obj, part);
 203:Middlewares/lvgl/src/core/lv_obj_draw.c **** 
 204:Middlewares/lvgl/src/core/lv_obj_draw.c **** #if LV_USE_BIDI
 205:Middlewares/lvgl/src/core/lv_obj_draw.c ****     draw_dsc->bidi_dir = lv_obj_get_style_base_dir(obj, LV_PART_MAIN);
 206:Middlewares/lvgl/src/core/lv_obj_draw.c **** #endif
 207:Middlewares/lvgl/src/core/lv_obj_draw.c **** 
 208:Middlewares/lvgl/src/core/lv_obj_draw.c ****     draw_dsc->align = lv_obj_get_style_text_align(obj, part);
 209:Middlewares/lvgl/src/core/lv_obj_draw.c ****     if(draw_dsc->align == LV_TEXT_ALIGN_AUTO) {
 210:Middlewares/lvgl/src/core/lv_obj_draw.c ****         if(draw_dsc->bidi_dir == LV_BASE_DIR_RTL) draw_dsc->align = LV_TEXT_ALIGN_RIGHT;
 211:Middlewares/lvgl/src/core/lv_obj_draw.c ****         else draw_dsc->align = LV_TEXT_ALIGN_LEFT;
 212:Middlewares/lvgl/src/core/lv_obj_draw.c ****     }
 213:Middlewares/lvgl/src/core/lv_obj_draw.c **** }
 915              		.loc 1 213 1 view .LVU322
 916 0018 70BD     		pop	{r4, r5, r6, pc}
 917              	.LVL89:
 918              	.L26:
 188:Middlewares/lvgl/src/core/lv_obj_draw.c ****     if(opa < LV_OPA_MAX) {
ARM GAS  /tmp/ccXWhpqg.s 			page 33


 919              		.loc 1 188 5 is_stmt 1 view .LVU323
 920              	.LBB214:
 921              	.LBI214:
 139:Middlewares/lvgl/src/core/lv_obj_style_gen.h **** {
 922              		.loc 2 139 24 view .LVU324
 923              	.LBB215:
 141:Middlewares/lvgl/src/core/lv_obj_style_gen.h ****     return (lv_opa_t)v.num;
 924              		.loc 2 141 5 view .LVU325
 141:Middlewares/lvgl/src/core/lv_obj_style_gen.h ****     return (lv_opa_t)v.num;
 925              		.loc 2 141 26 is_stmt 0 view .LVU326
 926 001a 40F26242 		movw	r2, #1122
 927 001e 3146     		mov	r1, r6
 928 0020 2846     		mov	r0, r5
 929 0022 FFF7FEFF 		bl	lv_obj_get_style_prop
 930              	.LVL90:
 142:Middlewares/lvgl/src/core/lv_obj_style_gen.h **** }
 931              		.loc 2 142 5 is_stmt 1 view .LVU327
 142:Middlewares/lvgl/src/core/lv_obj_style_gen.h **** }
 932              		.loc 2 142 12 is_stmt 0 view .LVU328
 933 0026 C3B2     		uxtb	r3, r0
 934              	.LVL91:
 142:Middlewares/lvgl/src/core/lv_obj_style_gen.h **** }
 935              		.loc 2 142 12 view .LVU329
 936              	.LBE215:
 937              	.LBE214:
 189:Middlewares/lvgl/src/core/lv_obj_draw.c ****         draw_dsc->opa = (uint16_t)((uint16_t)draw_dsc->opa * opa) >> 8;
 938              		.loc 1 189 5 is_stmt 1 view .LVU330
 189:Middlewares/lvgl/src/core/lv_obj_draw.c ****         draw_dsc->opa = (uint16_t)((uint16_t)draw_dsc->opa * opa) >> 8;
 939              		.loc 1 189 7 is_stmt 0 view .LVU331
 940 0028 FC2B     		cmp	r3, #252
 941 002a 04D8     		bhi	.L23
 190:Middlewares/lvgl/src/core/lv_obj_draw.c ****     }
 942              		.loc 1 190 9 is_stmt 1 view .LVU332
 190:Middlewares/lvgl/src/core/lv_obj_draw.c ****     }
 943              		.loc 1 190 54 is_stmt 0 view .LVU333
 944 002c A07E     		ldrb	r0, [r4, #26]	@ zero_extendqisi2
 190:Middlewares/lvgl/src/core/lv_obj_draw.c ****     }
 945              		.loc 1 190 25 view .LVU334
 946 002e 00FB03F3 		mul	r3, r0, r3
 947              	.LVL92:
 190:Middlewares/lvgl/src/core/lv_obj_draw.c ****     }
 948              		.loc 1 190 23 view .LVU335
 949 0032 1B0A     		lsrs	r3, r3, #8
 950 0034 A376     		strb	r3, [r4, #26]
 951              	.L23:
 192:Middlewares/lvgl/src/core/lv_obj_draw.c **** 
 952              		.loc 1 192 5 is_stmt 1 view .LVU336
 192:Middlewares/lvgl/src/core/lv_obj_draw.c **** 
 953              		.loc 1 192 16 is_stmt 0 view .LVU337
 954 0036 A37E     		ldrb	r3, [r4, #26]	@ zero_extendqisi2
 192:Middlewares/lvgl/src/core/lv_obj_draw.c **** 
 955              		.loc 1 192 7 view .LVU338
 956 0038 022B     		cmp	r3, #2
 957 003a EDD9     		bls	.L21
 194:Middlewares/lvgl/src/core/lv_obj_draw.c ****     draw_dsc->letter_space = lv_obj_get_style_text_letter_space(obj, part);
 958              		.loc 1 194 5 is_stmt 1 view .LVU339
 959              	.LVL93:
ARM GAS  /tmp/ccXWhpqg.s 			page 34


 960              	.LBB216:
 961              	.LBI216:
 319:Middlewares/lvgl/src/core/lv_obj_style_gen.h **** {
 962              		.loc 2 319 26 view .LVU340
 963              	.LBB217:
 321:Middlewares/lvgl/src/core/lv_obj_style_gen.h ****     return v.color;
 964              		.loc 2 321 5 view .LVU341
 321:Middlewares/lvgl/src/core/lv_obj_style_gen.h ****     return v.color;
 965              		.loc 2 321 26 is_stmt 0 view .LVU342
 966 003c 44F25742 		movw	r2, #17495
 967 0040 3146     		mov	r1, r6
 968 0042 2846     		mov	r0, r5
 969 0044 FFF7FEFF 		bl	lv_obj_get_style_prop
 970              	.LVL94:
 322:Middlewares/lvgl/src/core/lv_obj_style_gen.h **** }
 971              		.loc 2 322 5 is_stmt 1 view .LVU343
 322:Middlewares/lvgl/src/core/lv_obj_style_gen.h **** }
 972              		.loc 2 322 5 is_stmt 0 view .LVU344
 973              	.LBE217:
 974              	.LBE216:
 194:Middlewares/lvgl/src/core/lv_obj_draw.c ****     draw_dsc->letter_space = lv_obj_get_style_text_letter_space(obj, part);
 975              		.loc 1 194 23 view .LVU345
 976 0048 A081     		strh	r0, [r4, #12]	@ movhi
 195:Middlewares/lvgl/src/core/lv_obj_draw.c ****     draw_dsc->line_space = lv_obj_get_style_text_line_space(obj, part);
 977              		.loc 1 195 5 is_stmt 1 view .LVU346
 978              	.LVL95:
 979              	.LBB218:
 980              	.LBI218:
 337:Middlewares/lvgl/src/core/lv_obj_style_gen.h **** {
 981              		.loc 2 337 26 view .LVU347
 982              	.LBB219:
 339:Middlewares/lvgl/src/core/lv_obj_style_gen.h ****     return (lv_coord_t)v.num;
 983              		.loc 2 339 5 view .LVU348
 339:Middlewares/lvgl/src/core/lv_obj_style_gen.h ****     return (lv_coord_t)v.num;
 984              		.loc 2 339 26 is_stmt 0 view .LVU349
 985 004a 41F25A42 		movw	r2, #5210
 986 004e 3146     		mov	r1, r6
 987 0050 2846     		mov	r0, r5
 988 0052 FFF7FEFF 		bl	lv_obj_get_style_prop
 989              	.LVL96:
 340:Middlewares/lvgl/src/core/lv_obj_style_gen.h **** }
 990              		.loc 2 340 5 is_stmt 1 view .LVU350
 340:Middlewares/lvgl/src/core/lv_obj_style_gen.h **** }
 991              		.loc 2 340 5 is_stmt 0 view .LVU351
 992              	.LBE219:
 993              	.LBE218:
 195:Middlewares/lvgl/src/core/lv_obj_draw.c ****     draw_dsc->line_space = lv_obj_get_style_text_line_space(obj, part);
 994              		.loc 1 195 28 view .LVU352
 995 0056 A082     		strh	r0, [r4, #20]	@ movhi
 196:Middlewares/lvgl/src/core/lv_obj_draw.c ****     draw_dsc->decor = lv_obj_get_style_text_decor(obj, part);
 996              		.loc 1 196 5 is_stmt 1 view .LVU353
 997              	.LVL97:
 998              	.LBB220:
 999              	.LBI220:
 343:Middlewares/lvgl/src/core/lv_obj_style_gen.h **** {
 1000              		.loc 2 343 26 view .LVU354
 1001              	.LBB221:
ARM GAS  /tmp/ccXWhpqg.s 			page 35


 345:Middlewares/lvgl/src/core/lv_obj_style_gen.h ****     return (lv_coord_t)v.num;
 1002              		.loc 2 345 5 view .LVU355
 345:Middlewares/lvgl/src/core/lv_obj_style_gen.h ****     return (lv_coord_t)v.num;
 1003              		.loc 2 345 26 is_stmt 0 view .LVU356
 1004 0058 41F25B42 		movw	r2, #5211
 1005 005c 3146     		mov	r1, r6
 1006 005e 2846     		mov	r0, r5
 1007 0060 FFF7FEFF 		bl	lv_obj_get_style_prop
 1008              	.LVL98:
 346:Middlewares/lvgl/src/core/lv_obj_style_gen.h **** }
 1009              		.loc 2 346 5 is_stmt 1 view .LVU357
 346:Middlewares/lvgl/src/core/lv_obj_style_gen.h **** }
 1010              		.loc 2 346 5 is_stmt 0 view .LVU358
 1011              	.LBE221:
 1012              	.LBE220:
 196:Middlewares/lvgl/src/core/lv_obj_draw.c ****     draw_dsc->decor = lv_obj_get_style_text_decor(obj, part);
 1013              		.loc 1 196 26 view .LVU359
 1014 0064 6082     		strh	r0, [r4, #18]	@ movhi
 197:Middlewares/lvgl/src/core/lv_obj_draw.c **** #if LV_DRAW_COMPLEX
 1015              		.loc 1 197 5 is_stmt 1 view .LVU360
 1016              	.LVL99:
 1017              	.LBB222:
 1018              	.LBI222:
 349:Middlewares/lvgl/src/core/lv_obj_style_gen.h **** {
 1019              		.loc 2 349 31 view .LVU361
 1020              	.LBB223:
 351:Middlewares/lvgl/src/core/lv_obj_style_gen.h ****     return (lv_text_decor_t)v.num;
 1021              		.loc 2 351 5 view .LVU362
 351:Middlewares/lvgl/src/core/lv_obj_style_gen.h ****     return (lv_text_decor_t)v.num;
 1022              		.loc 2 351 26 is_stmt 0 view .LVU363
 1023 0066 40F25C42 		movw	r2, #1116
 1024 006a 3146     		mov	r1, r6
 1025 006c 2846     		mov	r0, r5
 1026 006e FFF7FEFF 		bl	lv_obj_get_style_prop
 1027              	.LVL100:
 352:Middlewares/lvgl/src/core/lv_obj_style_gen.h **** }
 1028              		.loc 2 352 5 is_stmt 1 view .LVU364
 352:Middlewares/lvgl/src/core/lv_obj_style_gen.h **** }
 1029              		.loc 2 352 5 is_stmt 0 view .LVU365
 1030              	.LBE223:
 1031              	.LBE222:
 197:Middlewares/lvgl/src/core/lv_obj_draw.c **** #if LV_DRAW_COMPLEX
 1032              		.loc 1 197 21 view .LVU366
 1033 0072 637F     		ldrb	r3, [r4, #29]	@ zero_extendqisi2
 1034 0074 60F38403 		bfi	r3, r0, #2, #3
 1035 0078 6377     		strb	r3, [r4, #29]
 199:Middlewares/lvgl/src/core/lv_obj_draw.c **** #endif
 1036              		.loc 1 199 5 is_stmt 1 view .LVU367
 1037              	.LVL101:
 1038              	.LBB224:
 1039              	.LBI224:
 175:Middlewares/lvgl/src/core/lv_obj_style_gen.h **** {
 1040              		.loc 2 175 31 view .LVU368
 1041              	.LBB225:
 177:Middlewares/lvgl/src/core/lv_obj_style_gen.h ****     return (lv_blend_mode_t)v.num;
 1042              		.loc 2 177 5 view .LVU369
 177:Middlewares/lvgl/src/core/lv_obj_style_gen.h ****     return (lv_blend_mode_t)v.num;
ARM GAS  /tmp/ccXWhpqg.s 			page 36


 1043              		.loc 2 177 26 is_stmt 0 view .LVU370
 1044 007a 6822     		movs	r2, #104
 1045 007c 3146     		mov	r1, r6
 1046 007e 2846     		mov	r0, r5
 1047 0080 FFF7FEFF 		bl	lv_obj_get_style_prop
 1048              	.LVL102:
 178:Middlewares/lvgl/src/core/lv_obj_style_gen.h **** }
 1049              		.loc 2 178 5 is_stmt 1 view .LVU371
 178:Middlewares/lvgl/src/core/lv_obj_style_gen.h **** }
 1050              		.loc 2 178 5 is_stmt 0 view .LVU372
 1051              	.LBE225:
 1052              	.LBE224:
 199:Middlewares/lvgl/src/core/lv_obj_draw.c **** #endif
 1053              		.loc 1 199 26 view .LVU373
 1054 0084 637F     		ldrb	r3, [r4, #29]	@ zero_extendqisi2
 1055 0086 60F34713 		bfi	r3, r0, #5, #3
 1056 008a 6377     		strb	r3, [r4, #29]
 202:Middlewares/lvgl/src/core/lv_obj_draw.c **** 
 1057              		.loc 1 202 5 is_stmt 1 view .LVU374
 1058              	.LVL103:
 1059              	.LBB226:
 1060              	.LBI226:
 331:Middlewares/lvgl/src/core/lv_obj_style_gen.h **** {
 1061              		.loc 2 331 33 view .LVU375
 1062              	.LBB227:
 333:Middlewares/lvgl/src/core/lv_obj_style_gen.h ****     return (const lv_font_t *)v.ptr;
 1063              		.loc 2 333 5 view .LVU376
 333:Middlewares/lvgl/src/core/lv_obj_style_gen.h ****     return (const lv_font_t *)v.ptr;
 1064              		.loc 2 333 26 is_stmt 0 view .LVU377
 1065 008c 41F25942 		movw	r2, #5209
 1066 0090 3146     		mov	r1, r6
 1067 0092 2846     		mov	r0, r5
 1068 0094 FFF7FEFF 		bl	lv_obj_get_style_prop
 1069              	.LVL104:
 334:Middlewares/lvgl/src/core/lv_obj_style_gen.h **** }
 1070              		.loc 2 334 5 is_stmt 1 view .LVU378
 334:Middlewares/lvgl/src/core/lv_obj_style_gen.h **** }
 1071              		.loc 2 334 5 is_stmt 0 view .LVU379
 1072              	.LBE227:
 1073              	.LBE226:
 202:Middlewares/lvgl/src/core/lv_obj_draw.c **** 
 1074              		.loc 1 202 20 view .LVU380
 1075 0098 2060     		str	r0, [r4]
 208:Middlewares/lvgl/src/core/lv_obj_draw.c ****     if(draw_dsc->align == LV_TEXT_ALIGN_AUTO) {
 1076              		.loc 1 208 5 is_stmt 1 view .LVU381
 1077              	.LVL105:
 1078              	.LBB228:
 1079              	.LBI228:
 355:Middlewares/lvgl/src/core/lv_obj_style_gen.h **** {
 1080              		.loc 2 355 31 view .LVU382
 1081              	.LBB229:
 357:Middlewares/lvgl/src/core/lv_obj_style_gen.h ****     return (lv_text_align_t)v.num;
 1082              		.loc 2 357 5 view .LVU383
 357:Middlewares/lvgl/src/core/lv_obj_style_gen.h ****     return (lv_text_align_t)v.num;
 1083              		.loc 2 357 26 is_stmt 0 view .LVU384
 1084 009a 41F25D42 		movw	r2, #5213
 1085 009e 3146     		mov	r1, r6
ARM GAS  /tmp/ccXWhpqg.s 			page 37


 1086 00a0 2846     		mov	r0, r5
 1087 00a2 FFF7FEFF 		bl	lv_obj_get_style_prop
 1088              	.LVL106:
 358:Middlewares/lvgl/src/core/lv_obj_style_gen.h **** }
 1089              		.loc 2 358 5 is_stmt 1 view .LVU385
 358:Middlewares/lvgl/src/core/lv_obj_style_gen.h **** }
 1090              		.loc 2 358 5 is_stmt 0 view .LVU386
 1091              	.LBE229:
 1092              	.LBE228:
 208:Middlewares/lvgl/src/core/lv_obj_draw.c ****     if(draw_dsc->align == LV_TEXT_ALIGN_AUTO) {
 1093              		.loc 1 208 21 view .LVU387
 1094 00a6 637F     		ldrb	r3, [r4, #29]	@ zero_extendqisi2
 1095 00a8 60F30103 		bfi	r3, r0, #0, #2
 1096 00ac 6377     		strb	r3, [r4, #29]
 209:Middlewares/lvgl/src/core/lv_obj_draw.c ****         if(draw_dsc->bidi_dir == LV_BASE_DIR_RTL) draw_dsc->align = LV_TEXT_ALIGN_RIGHT;
 1097              		.loc 1 209 5 is_stmt 1 view .LVU388
 209:Middlewares/lvgl/src/core/lv_obj_draw.c ****         if(draw_dsc->bidi_dir == LV_BASE_DIR_RTL) draw_dsc->align = LV_TEXT_ALIGN_RIGHT;
 1098              		.loc 1 209 24 is_stmt 0 view .LVU389
 1099 00ae DBB2     		uxtb	r3, r3
 209:Middlewares/lvgl/src/core/lv_obj_draw.c ****         if(draw_dsc->bidi_dir == LV_BASE_DIR_RTL) draw_dsc->align = LV_TEXT_ALIGN_RIGHT;
 1100              		.loc 1 209 7 view .LVU390
 1101 00b0 13F0030F 		tst	r3, #3
 1102 00b4 B0D1     		bne	.L21
 210:Middlewares/lvgl/src/core/lv_obj_draw.c ****         else draw_dsc->align = LV_TEXT_ALIGN_LEFT;
 1103              		.loc 1 210 9 is_stmt 1 view .LVU391
 210:Middlewares/lvgl/src/core/lv_obj_draw.c ****         else draw_dsc->align = LV_TEXT_ALIGN_LEFT;
 1104              		.loc 1 210 20 is_stmt 0 view .LVU392
 1105 00b6 E37E     		ldrb	r3, [r4, #27]	@ zero_extendqisi2
 210:Middlewares/lvgl/src/core/lv_obj_draw.c ****         else draw_dsc->align = LV_TEXT_ALIGN_LEFT;
 1106              		.loc 1 210 11 view .LVU393
 1107 00b8 012B     		cmp	r3, #1
 1108 00ba 05D0     		beq	.L27
 211:Middlewares/lvgl/src/core/lv_obj_draw.c ****     }
 1109              		.loc 1 211 14 is_stmt 1 view .LVU394
 211:Middlewares/lvgl/src/core/lv_obj_draw.c ****     }
 1110              		.loc 1 211 30 is_stmt 0 view .LVU395
 1111 00bc 637F     		ldrb	r3, [r4, #29]	@ zero_extendqisi2
 1112 00be 0122     		movs	r2, #1
 1113 00c0 62F30103 		bfi	r3, r2, #0, #2
 1114 00c4 6377     		strb	r3, [r4, #29]
 1115 00c6 A7E7     		b	.L21
 1116              	.L27:
 210:Middlewares/lvgl/src/core/lv_obj_draw.c ****         else draw_dsc->align = LV_TEXT_ALIGN_LEFT;
 1117              		.loc 1 210 51 is_stmt 1 discriminator 1 view .LVU396
 210:Middlewares/lvgl/src/core/lv_obj_draw.c ****         else draw_dsc->align = LV_TEXT_ALIGN_LEFT;
 1118              		.loc 1 210 67 is_stmt 0 discriminator 1 view .LVU397
 1119 00c8 637F     		ldrb	r3, [r4, #29]	@ zero_extendqisi2
 1120 00ca 43F00303 		orr	r3, r3, #3
 1121 00ce 6377     		strb	r3, [r4, #29]
 1122 00d0 A2E7     		b	.L21
 1123              		.cfi_endproc
 1124              	.LFE154:
 1126              		.section	.text.lv_obj_init_draw_img_dsc,"ax",%progbits
 1127              		.align	1
 1128              		.global	lv_obj_init_draw_img_dsc
 1129              		.syntax unified
 1130              		.thumb
ARM GAS  /tmp/ccXWhpqg.s 			page 38


 1131              		.thumb_func
 1132              		.fpu fpv5-d16
 1134              	lv_obj_init_draw_img_dsc:
 1135              	.LVL107:
 1136              	.LFB155:
 214:Middlewares/lvgl/src/core/lv_obj_draw.c **** 
 215:Middlewares/lvgl/src/core/lv_obj_draw.c **** void lv_obj_init_draw_img_dsc(lv_obj_t * obj, uint32_t part, lv_draw_img_dsc_t * draw_dsc)
 216:Middlewares/lvgl/src/core/lv_obj_draw.c **** {
 1137              		.loc 1 216 1 is_stmt 1 view -0
 1138              		.cfi_startproc
 1139              		@ args = 0, pretend = 0, frame = 0
 1140              		@ frame_needed = 0, uses_anonymous_args = 0
 1141              		.loc 1 216 1 is_stmt 0 view .LVU399
 1142 0000 70B5     		push	{r4, r5, r6, lr}
 1143              	.LCFI2:
 1144              		.cfi_def_cfa_offset 16
 1145              		.cfi_offset 4, -16
 1146              		.cfi_offset 5, -12
 1147              		.cfi_offset 6, -8
 1148              		.cfi_offset 14, -4
 1149 0002 0546     		mov	r5, r0
 1150 0004 0E46     		mov	r6, r1
 1151 0006 1446     		mov	r4, r2
 217:Middlewares/lvgl/src/core/lv_obj_draw.c ****     draw_dsc->opa = lv_obj_get_style_img_opa(obj, part);
 1152              		.loc 1 217 5 is_stmt 1 view .LVU400
 1153              	.LVL108:
 1154              	.LBB230:
 1155              	.LBI230:
 361:Middlewares/lvgl/src/core/lv_obj_style_gen.h **** {
 1156              		.loc 2 361 24 view .LVU401
 1157              	.LBB231:
 363:Middlewares/lvgl/src/core/lv_obj_style_gen.h ****     return (lv_opa_t)v.num;
 1158              		.loc 2 363 5 view .LVU402
 363:Middlewares/lvgl/src/core/lv_obj_style_gen.h ****     return (lv_opa_t)v.num;
 1159              		.loc 2 363 26 is_stmt 0 view .LVU403
 1160 0008 4622     		movs	r2, #70
 1161              	.LVL109:
 363:Middlewares/lvgl/src/core/lv_obj_style_gen.h ****     return (lv_opa_t)v.num;
 1162              		.loc 2 363 26 view .LVU404
 1163 000a FFF7FEFF 		bl	lv_obj_get_style_prop
 1164              	.LVL110:
 364:Middlewares/lvgl/src/core/lv_obj_style_gen.h **** }
 1165              		.loc 2 364 5 is_stmt 1 view .LVU405
 364:Middlewares/lvgl/src/core/lv_obj_style_gen.h **** }
 1166              		.loc 2 364 12 is_stmt 0 view .LVU406
 1167 000e C3B2     		uxtb	r3, r0
 1168              	.LVL111:
 364:Middlewares/lvgl/src/core/lv_obj_style_gen.h **** }
 1169              		.loc 2 364 12 view .LVU407
 1170              	.LBE231:
 1171              	.LBE230:
 1172              		.loc 1 217 19 view .LVU408
 1173 0010 E372     		strb	r3, [r4, #11]
 218:Middlewares/lvgl/src/core/lv_obj_draw.c ****     if(draw_dsc->opa <= LV_OPA_MIN)  return;
 1174              		.loc 1 218 5 is_stmt 1 view .LVU409
 1175              		.loc 1 218 7 is_stmt 0 view .LVU410
 1176 0012 022B     		cmp	r3, #2
ARM GAS  /tmp/ccXWhpqg.s 			page 39


 1177 0014 00D8     		bhi	.L35
 1178              	.L28:
 219:Middlewares/lvgl/src/core/lv_obj_draw.c **** 
 220:Middlewares/lvgl/src/core/lv_obj_draw.c ****     lv_opa_t opa_scale = lv_obj_get_style_opa(obj, part);
 221:Middlewares/lvgl/src/core/lv_obj_draw.c ****     if(opa_scale < LV_OPA_MAX) {
 222:Middlewares/lvgl/src/core/lv_obj_draw.c ****         draw_dsc->opa = (uint16_t)((uint16_t)draw_dsc->opa * opa_scale) >> 8;
 223:Middlewares/lvgl/src/core/lv_obj_draw.c ****     }
 224:Middlewares/lvgl/src/core/lv_obj_draw.c ****     if(draw_dsc->opa <= LV_OPA_MIN)  return;
 225:Middlewares/lvgl/src/core/lv_obj_draw.c **** 
 226:Middlewares/lvgl/src/core/lv_obj_draw.c ****     draw_dsc->angle = 0;
 227:Middlewares/lvgl/src/core/lv_obj_draw.c ****     draw_dsc->zoom = LV_IMG_ZOOM_NONE;
 228:Middlewares/lvgl/src/core/lv_obj_draw.c ****     draw_dsc->pivot.x = lv_area_get_width(&obj->coords) / 2;
 229:Middlewares/lvgl/src/core/lv_obj_draw.c ****     draw_dsc->pivot.y = lv_area_get_height(&obj->coords) / 2;
 230:Middlewares/lvgl/src/core/lv_obj_draw.c **** 
 231:Middlewares/lvgl/src/core/lv_obj_draw.c ****     draw_dsc->recolor_opa = lv_obj_get_style_img_recolor_opa(obj, part);
 232:Middlewares/lvgl/src/core/lv_obj_draw.c ****     if(draw_dsc->recolor_opa > 0) {
 233:Middlewares/lvgl/src/core/lv_obj_draw.c ****         draw_dsc->recolor = lv_obj_get_style_img_recolor(obj, part);
 234:Middlewares/lvgl/src/core/lv_obj_draw.c ****     }
 235:Middlewares/lvgl/src/core/lv_obj_draw.c **** #if LV_DRAW_COMPLEX
 236:Middlewares/lvgl/src/core/lv_obj_draw.c ****     draw_dsc->blend_mode = lv_obj_get_style_blend_mode(obj, part);
 237:Middlewares/lvgl/src/core/lv_obj_draw.c **** #endif
 238:Middlewares/lvgl/src/core/lv_obj_draw.c **** }
 1179              		.loc 1 238 1 view .LVU411
 1180 0016 70BD     		pop	{r4, r5, r6, pc}
 1181              	.LVL112:
 1182              	.L35:
 220:Middlewares/lvgl/src/core/lv_obj_draw.c ****     if(opa_scale < LV_OPA_MAX) {
 1183              		.loc 1 220 5 is_stmt 1 view .LVU412
 1184              	.LBB232:
 1185              	.LBI232:
 139:Middlewares/lvgl/src/core/lv_obj_style_gen.h **** {
 1186              		.loc 2 139 24 view .LVU413
 1187              	.LBB233:
 141:Middlewares/lvgl/src/core/lv_obj_style_gen.h ****     return (lv_opa_t)v.num;
 1188              		.loc 2 141 5 view .LVU414
 141:Middlewares/lvgl/src/core/lv_obj_style_gen.h ****     return (lv_opa_t)v.num;
 1189              		.loc 2 141 26 is_stmt 0 view .LVU415
 1190 0018 40F26242 		movw	r2, #1122
 1191 001c 3146     		mov	r1, r6
 1192 001e 2846     		mov	r0, r5
 1193 0020 FFF7FEFF 		bl	lv_obj_get_style_prop
 1194              	.LVL113:
 142:Middlewares/lvgl/src/core/lv_obj_style_gen.h **** }
 1195              		.loc 2 142 5 is_stmt 1 view .LVU416
 142:Middlewares/lvgl/src/core/lv_obj_style_gen.h **** }
 1196              		.loc 2 142 12 is_stmt 0 view .LVU417
 1197 0024 C0B2     		uxtb	r0, r0
 1198              	.LVL114:
 142:Middlewares/lvgl/src/core/lv_obj_style_gen.h **** }
 1199              		.loc 2 142 12 view .LVU418
 1200              	.LBE233:
 1201              	.LBE232:
 221:Middlewares/lvgl/src/core/lv_obj_draw.c ****         draw_dsc->opa = (uint16_t)((uint16_t)draw_dsc->opa * opa_scale) >> 8;
 1202              		.loc 1 221 5 is_stmt 1 view .LVU419
 221:Middlewares/lvgl/src/core/lv_obj_draw.c ****         draw_dsc->opa = (uint16_t)((uint16_t)draw_dsc->opa * opa_scale) >> 8;
 1203              		.loc 1 221 7 is_stmt 0 view .LVU420
 1204 0026 FC28     		cmp	r0, #252
ARM GAS  /tmp/ccXWhpqg.s 			page 40


 1205 0028 04D8     		bhi	.L30
 222:Middlewares/lvgl/src/core/lv_obj_draw.c ****     }
 1206              		.loc 1 222 9 is_stmt 1 view .LVU421
 222:Middlewares/lvgl/src/core/lv_obj_draw.c ****     }
 1207              		.loc 1 222 54 is_stmt 0 view .LVU422
 1208 002a E37A     		ldrb	r3, [r4, #11]	@ zero_extendqisi2
 222:Middlewares/lvgl/src/core/lv_obj_draw.c ****     }
 1209              		.loc 1 222 25 view .LVU423
 1210 002c 03FB00F0 		mul	r0, r3, r0
 1211              	.LVL115:
 222:Middlewares/lvgl/src/core/lv_obj_draw.c ****     }
 1212              		.loc 1 222 23 view .LVU424
 1213 0030 000A     		lsrs	r0, r0, #8
 1214 0032 E072     		strb	r0, [r4, #11]
 1215              	.L30:
 224:Middlewares/lvgl/src/core/lv_obj_draw.c **** 
 1216              		.loc 1 224 5 is_stmt 1 view .LVU425
 224:Middlewares/lvgl/src/core/lv_obj_draw.c **** 
 1217              		.loc 1 224 16 is_stmt 0 view .LVU426
 1218 0034 E37A     		ldrb	r3, [r4, #11]	@ zero_extendqisi2
 224:Middlewares/lvgl/src/core/lv_obj_draw.c **** 
 1219              		.loc 1 224 7 view .LVU427
 1220 0036 022B     		cmp	r3, #2
 1221 0038 EDD9     		bls	.L28
 226:Middlewares/lvgl/src/core/lv_obj_draw.c ****     draw_dsc->zoom = LV_IMG_ZOOM_NONE;
 1222              		.loc 1 226 5 is_stmt 1 view .LVU428
 226:Middlewares/lvgl/src/core/lv_obj_draw.c ****     draw_dsc->zoom = LV_IMG_ZOOM_NONE;
 1223              		.loc 1 226 21 is_stmt 0 view .LVU429
 1224 003a 0023     		movs	r3, #0
 1225 003c 2380     		strh	r3, [r4]	@ movhi
 227:Middlewares/lvgl/src/core/lv_obj_draw.c ****     draw_dsc->pivot.x = lv_area_get_width(&obj->coords) / 2;
 1226              		.loc 1 227 5 is_stmt 1 view .LVU430
 227:Middlewares/lvgl/src/core/lv_obj_draw.c ****     draw_dsc->pivot.x = lv_area_get_width(&obj->coords) / 2;
 1227              		.loc 1 227 20 is_stmt 0 view .LVU431
 1228 003e 4FF48073 		mov	r3, #256
 1229 0042 6380     		strh	r3, [r4, #2]	@ movhi
 228:Middlewares/lvgl/src/core/lv_obj_draw.c ****     draw_dsc->pivot.y = lv_area_get_height(&obj->coords) / 2;
 1230              		.loc 1 228 5 is_stmt 1 view .LVU432
 1231              	.LVL116:
 1232              	.LBB234:
 1233              	.LBI234:
 1234              		.file 3 "Middlewares/lvgl/src/core/../draw/../misc/../font/../misc/lv_area.h"
   1:Middlewares/lvgl/src/core/../draw/../misc/../font/../misc/lv_area.h **** /**
   2:Middlewares/lvgl/src/core/../draw/../misc/../font/../misc/lv_area.h ****  * @file lv_area.h
   3:Middlewares/lvgl/src/core/../draw/../misc/../font/../misc/lv_area.h ****  *
   4:Middlewares/lvgl/src/core/../draw/../misc/../font/../misc/lv_area.h ****  */
   5:Middlewares/lvgl/src/core/../draw/../misc/../font/../misc/lv_area.h **** 
   6:Middlewares/lvgl/src/core/../draw/../misc/../font/../misc/lv_area.h **** #ifndef LV_AREA_H
   7:Middlewares/lvgl/src/core/../draw/../misc/../font/../misc/lv_area.h **** #define LV_AREA_H
   8:Middlewares/lvgl/src/core/../draw/../misc/../font/../misc/lv_area.h **** 
   9:Middlewares/lvgl/src/core/../draw/../misc/../font/../misc/lv_area.h **** #ifdef __cplusplus
  10:Middlewares/lvgl/src/core/../draw/../misc/../font/../misc/lv_area.h **** extern "C" {
  11:Middlewares/lvgl/src/core/../draw/../misc/../font/../misc/lv_area.h **** #endif
  12:Middlewares/lvgl/src/core/../draw/../misc/../font/../misc/lv_area.h **** 
  13:Middlewares/lvgl/src/core/../draw/../misc/../font/../misc/lv_area.h **** /*********************
  14:Middlewares/lvgl/src/core/../draw/../misc/../font/../misc/lv_area.h ****  *      INCLUDES
  15:Middlewares/lvgl/src/core/../draw/../misc/../font/../misc/lv_area.h ****  *********************/
ARM GAS  /tmp/ccXWhpqg.s 			page 41


  16:Middlewares/lvgl/src/core/../draw/../misc/../font/../misc/lv_area.h **** #include "../lv_conf_internal.h"
  17:Middlewares/lvgl/src/core/../draw/../misc/../font/../misc/lv_area.h **** #include <string.h>
  18:Middlewares/lvgl/src/core/../draw/../misc/../font/../misc/lv_area.h **** #include <stdbool.h>
  19:Middlewares/lvgl/src/core/../draw/../misc/../font/../misc/lv_area.h **** #include <stdint.h>
  20:Middlewares/lvgl/src/core/../draw/../misc/../font/../misc/lv_area.h **** 
  21:Middlewares/lvgl/src/core/../draw/../misc/../font/../misc/lv_area.h **** /*********************
  22:Middlewares/lvgl/src/core/../draw/../misc/../font/../misc/lv_area.h ****  *      DEFINES
  23:Middlewares/lvgl/src/core/../draw/../misc/../font/../misc/lv_area.h ****  *********************/
  24:Middlewares/lvgl/src/core/../draw/../misc/../font/../misc/lv_area.h **** 
  25:Middlewares/lvgl/src/core/../draw/../misc/../font/../misc/lv_area.h **** #define _LV_COORD_MAX_REDUCE    8192
  26:Middlewares/lvgl/src/core/../draw/../misc/../font/../misc/lv_area.h **** 
  27:Middlewares/lvgl/src/core/../draw/../misc/../font/../misc/lv_area.h **** #if LV_USE_LARGE_COORD
  28:Middlewares/lvgl/src/core/../draw/../misc/../font/../misc/lv_area.h **** typedef int32_t lv_coord_t;
  29:Middlewares/lvgl/src/core/../draw/../misc/../font/../misc/lv_area.h **** #else
  30:Middlewares/lvgl/src/core/../draw/../misc/../font/../misc/lv_area.h **** typedef int16_t lv_coord_t;
  31:Middlewares/lvgl/src/core/../draw/../misc/../font/../misc/lv_area.h **** #endif
  32:Middlewares/lvgl/src/core/../draw/../misc/../font/../misc/lv_area.h **** 
  33:Middlewares/lvgl/src/core/../draw/../misc/../font/../misc/lv_area.h **** /*To allow some special values in the end reduce the max value*/
  34:Middlewares/lvgl/src/core/../draw/../misc/../font/../misc/lv_area.h **** #define LV_COORD_MAX ((lv_coord_t)((uint32_t)((uint32_t)1 << (8 * sizeof(lv_coord_t) - 1)) - _LV_CO
  35:Middlewares/lvgl/src/core/../draw/../misc/../font/../misc/lv_area.h **** #define LV_COORD_MIN (-LV_COORD_MAX)
  36:Middlewares/lvgl/src/core/../draw/../misc/../font/../misc/lv_area.h **** 
  37:Middlewares/lvgl/src/core/../draw/../misc/../font/../misc/lv_area.h **** LV_EXPORT_CONST_INT(LV_COORD_MAX);
  38:Middlewares/lvgl/src/core/../draw/../misc/../font/../misc/lv_area.h **** LV_EXPORT_CONST_INT(LV_COORD_MIN);
  39:Middlewares/lvgl/src/core/../draw/../misc/../font/../misc/lv_area.h **** 
  40:Middlewares/lvgl/src/core/../draw/../misc/../font/../misc/lv_area.h **** /**********************
  41:Middlewares/lvgl/src/core/../draw/../misc/../font/../misc/lv_area.h ****  *      TYPEDEFS
  42:Middlewares/lvgl/src/core/../draw/../misc/../font/../misc/lv_area.h ****  **********************/
  43:Middlewares/lvgl/src/core/../draw/../misc/../font/../misc/lv_area.h **** 
  44:Middlewares/lvgl/src/core/../draw/../misc/../font/../misc/lv_area.h **** /**
  45:Middlewares/lvgl/src/core/../draw/../misc/../font/../misc/lv_area.h ****  * Represents a point on the screen.
  46:Middlewares/lvgl/src/core/../draw/../misc/../font/../misc/lv_area.h ****  */
  47:Middlewares/lvgl/src/core/../draw/../misc/../font/../misc/lv_area.h **** typedef struct {
  48:Middlewares/lvgl/src/core/../draw/../misc/../font/../misc/lv_area.h ****     lv_coord_t x;
  49:Middlewares/lvgl/src/core/../draw/../misc/../font/../misc/lv_area.h ****     lv_coord_t y;
  50:Middlewares/lvgl/src/core/../draw/../misc/../font/../misc/lv_area.h **** } lv_point_t;
  51:Middlewares/lvgl/src/core/../draw/../misc/../font/../misc/lv_area.h **** 
  52:Middlewares/lvgl/src/core/../draw/../misc/../font/../misc/lv_area.h **** /** Represents an area of the screen.*/
  53:Middlewares/lvgl/src/core/../draw/../misc/../font/../misc/lv_area.h **** typedef struct {
  54:Middlewares/lvgl/src/core/../draw/../misc/../font/../misc/lv_area.h ****     lv_coord_t x1;
  55:Middlewares/lvgl/src/core/../draw/../misc/../font/../misc/lv_area.h ****     lv_coord_t y1;
  56:Middlewares/lvgl/src/core/../draw/../misc/../font/../misc/lv_area.h ****     lv_coord_t x2;
  57:Middlewares/lvgl/src/core/../draw/../misc/../font/../misc/lv_area.h ****     lv_coord_t y2;
  58:Middlewares/lvgl/src/core/../draw/../misc/../font/../misc/lv_area.h **** } lv_area_t;
  59:Middlewares/lvgl/src/core/../draw/../misc/../font/../misc/lv_area.h **** 
  60:Middlewares/lvgl/src/core/../draw/../misc/../font/../misc/lv_area.h **** /** Alignments*/
  61:Middlewares/lvgl/src/core/../draw/../misc/../font/../misc/lv_area.h **** enum {
  62:Middlewares/lvgl/src/core/../draw/../misc/../font/../misc/lv_area.h ****     LV_ALIGN_DEFAULT = 0,
  63:Middlewares/lvgl/src/core/../draw/../misc/../font/../misc/lv_area.h ****     LV_ALIGN_TOP_LEFT,
  64:Middlewares/lvgl/src/core/../draw/../misc/../font/../misc/lv_area.h ****     LV_ALIGN_TOP_MID,
  65:Middlewares/lvgl/src/core/../draw/../misc/../font/../misc/lv_area.h ****     LV_ALIGN_TOP_RIGHT,
  66:Middlewares/lvgl/src/core/../draw/../misc/../font/../misc/lv_area.h ****     LV_ALIGN_BOTTOM_LEFT,
  67:Middlewares/lvgl/src/core/../draw/../misc/../font/../misc/lv_area.h ****     LV_ALIGN_BOTTOM_MID,
  68:Middlewares/lvgl/src/core/../draw/../misc/../font/../misc/lv_area.h ****     LV_ALIGN_BOTTOM_RIGHT,
  69:Middlewares/lvgl/src/core/../draw/../misc/../font/../misc/lv_area.h ****     LV_ALIGN_LEFT_MID,
  70:Middlewares/lvgl/src/core/../draw/../misc/../font/../misc/lv_area.h ****     LV_ALIGN_RIGHT_MID,
  71:Middlewares/lvgl/src/core/../draw/../misc/../font/../misc/lv_area.h ****     LV_ALIGN_CENTER,
  72:Middlewares/lvgl/src/core/../draw/../misc/../font/../misc/lv_area.h **** 
ARM GAS  /tmp/ccXWhpqg.s 			page 42


  73:Middlewares/lvgl/src/core/../draw/../misc/../font/../misc/lv_area.h ****     LV_ALIGN_OUT_TOP_LEFT,
  74:Middlewares/lvgl/src/core/../draw/../misc/../font/../misc/lv_area.h ****     LV_ALIGN_OUT_TOP_MID,
  75:Middlewares/lvgl/src/core/../draw/../misc/../font/../misc/lv_area.h ****     LV_ALIGN_OUT_TOP_RIGHT,
  76:Middlewares/lvgl/src/core/../draw/../misc/../font/../misc/lv_area.h ****     LV_ALIGN_OUT_BOTTOM_LEFT,
  77:Middlewares/lvgl/src/core/../draw/../misc/../font/../misc/lv_area.h ****     LV_ALIGN_OUT_BOTTOM_MID,
  78:Middlewares/lvgl/src/core/../draw/../misc/../font/../misc/lv_area.h ****     LV_ALIGN_OUT_BOTTOM_RIGHT,
  79:Middlewares/lvgl/src/core/../draw/../misc/../font/../misc/lv_area.h ****     LV_ALIGN_OUT_LEFT_TOP,
  80:Middlewares/lvgl/src/core/../draw/../misc/../font/../misc/lv_area.h ****     LV_ALIGN_OUT_LEFT_MID,
  81:Middlewares/lvgl/src/core/../draw/../misc/../font/../misc/lv_area.h ****     LV_ALIGN_OUT_LEFT_BOTTOM,
  82:Middlewares/lvgl/src/core/../draw/../misc/../font/../misc/lv_area.h ****     LV_ALIGN_OUT_RIGHT_TOP,
  83:Middlewares/lvgl/src/core/../draw/../misc/../font/../misc/lv_area.h ****     LV_ALIGN_OUT_RIGHT_MID,
  84:Middlewares/lvgl/src/core/../draw/../misc/../font/../misc/lv_area.h ****     LV_ALIGN_OUT_RIGHT_BOTTOM,
  85:Middlewares/lvgl/src/core/../draw/../misc/../font/../misc/lv_area.h **** };
  86:Middlewares/lvgl/src/core/../draw/../misc/../font/../misc/lv_area.h **** typedef uint8_t lv_align_t;
  87:Middlewares/lvgl/src/core/../draw/../misc/../font/../misc/lv_area.h **** 
  88:Middlewares/lvgl/src/core/../draw/../misc/../font/../misc/lv_area.h **** enum {
  89:Middlewares/lvgl/src/core/../draw/../misc/../font/../misc/lv_area.h ****     LV_DIR_NONE     = 0x00,
  90:Middlewares/lvgl/src/core/../draw/../misc/../font/../misc/lv_area.h ****     LV_DIR_LEFT     = (1 << 0),
  91:Middlewares/lvgl/src/core/../draw/../misc/../font/../misc/lv_area.h ****     LV_DIR_RIGHT    = (1 << 1),
  92:Middlewares/lvgl/src/core/../draw/../misc/../font/../misc/lv_area.h ****     LV_DIR_TOP      = (1 << 2),
  93:Middlewares/lvgl/src/core/../draw/../misc/../font/../misc/lv_area.h ****     LV_DIR_BOTTOM   = (1 << 3),
  94:Middlewares/lvgl/src/core/../draw/../misc/../font/../misc/lv_area.h ****     LV_DIR_HOR      = LV_DIR_LEFT | LV_DIR_RIGHT,
  95:Middlewares/lvgl/src/core/../draw/../misc/../font/../misc/lv_area.h ****     LV_DIR_VER      = LV_DIR_TOP | LV_DIR_BOTTOM,
  96:Middlewares/lvgl/src/core/../draw/../misc/../font/../misc/lv_area.h ****     LV_DIR_ALL      = LV_DIR_HOR | LV_DIR_VER,
  97:Middlewares/lvgl/src/core/../draw/../misc/../font/../misc/lv_area.h **** };
  98:Middlewares/lvgl/src/core/../draw/../misc/../font/../misc/lv_area.h **** 
  99:Middlewares/lvgl/src/core/../draw/../misc/../font/../misc/lv_area.h **** typedef uint8_t lv_dir_t;
 100:Middlewares/lvgl/src/core/../draw/../misc/../font/../misc/lv_area.h **** 
 101:Middlewares/lvgl/src/core/../draw/../misc/../font/../misc/lv_area.h **** /**********************
 102:Middlewares/lvgl/src/core/../draw/../misc/../font/../misc/lv_area.h ****  * GLOBAL PROTOTYPES
 103:Middlewares/lvgl/src/core/../draw/../misc/../font/../misc/lv_area.h ****  **********************/
 104:Middlewares/lvgl/src/core/../draw/../misc/../font/../misc/lv_area.h **** 
 105:Middlewares/lvgl/src/core/../draw/../misc/../font/../misc/lv_area.h **** /**
 106:Middlewares/lvgl/src/core/../draw/../misc/../font/../misc/lv_area.h ****  * Initialize an area
 107:Middlewares/lvgl/src/core/../draw/../misc/../font/../misc/lv_area.h ****  * @param area_p pointer to an area
 108:Middlewares/lvgl/src/core/../draw/../misc/../font/../misc/lv_area.h ****  * @param x1 left coordinate of the area
 109:Middlewares/lvgl/src/core/../draw/../misc/../font/../misc/lv_area.h ****  * @param y1 top coordinate of the area
 110:Middlewares/lvgl/src/core/../draw/../misc/../font/../misc/lv_area.h ****  * @param x2 right coordinate of the area
 111:Middlewares/lvgl/src/core/../draw/../misc/../font/../misc/lv_area.h ****  * @param y2 bottom coordinate of the area
 112:Middlewares/lvgl/src/core/../draw/../misc/../font/../misc/lv_area.h ****  */
 113:Middlewares/lvgl/src/core/../draw/../misc/../font/../misc/lv_area.h **** void lv_area_set(lv_area_t * area_p, lv_coord_t x1, lv_coord_t y1, lv_coord_t x2, lv_coord_t y2);
 114:Middlewares/lvgl/src/core/../draw/../misc/../font/../misc/lv_area.h **** 
 115:Middlewares/lvgl/src/core/../draw/../misc/../font/../misc/lv_area.h **** /**
 116:Middlewares/lvgl/src/core/../draw/../misc/../font/../misc/lv_area.h ****  * Copy an area
 117:Middlewares/lvgl/src/core/../draw/../misc/../font/../misc/lv_area.h ****  * @param dest pointer to the destination area
 118:Middlewares/lvgl/src/core/../draw/../misc/../font/../misc/lv_area.h ****  * @param src pointer to the source area
 119:Middlewares/lvgl/src/core/../draw/../misc/../font/../misc/lv_area.h ****  */
 120:Middlewares/lvgl/src/core/../draw/../misc/../font/../misc/lv_area.h **** inline static void lv_area_copy(lv_area_t * dest, const lv_area_t * src)
 121:Middlewares/lvgl/src/core/../draw/../misc/../font/../misc/lv_area.h **** {
 122:Middlewares/lvgl/src/core/../draw/../misc/../font/../misc/lv_area.h ****     dest->x1 = src->x1;
 123:Middlewares/lvgl/src/core/../draw/../misc/../font/../misc/lv_area.h ****     dest->y1 = src->y1;
 124:Middlewares/lvgl/src/core/../draw/../misc/../font/../misc/lv_area.h ****     dest->x2 = src->x2;
 125:Middlewares/lvgl/src/core/../draw/../misc/../font/../misc/lv_area.h ****     dest->y2 = src->y2;
 126:Middlewares/lvgl/src/core/../draw/../misc/../font/../misc/lv_area.h **** }
 127:Middlewares/lvgl/src/core/../draw/../misc/../font/../misc/lv_area.h **** 
 128:Middlewares/lvgl/src/core/../draw/../misc/../font/../misc/lv_area.h **** /**
 129:Middlewares/lvgl/src/core/../draw/../misc/../font/../misc/lv_area.h ****  * Get the width of an area
ARM GAS  /tmp/ccXWhpqg.s 			page 43


 130:Middlewares/lvgl/src/core/../draw/../misc/../font/../misc/lv_area.h ****  * @param area_p pointer to an area
 131:Middlewares/lvgl/src/core/../draw/../misc/../font/../misc/lv_area.h ****  * @return the width of the area (if x1 == x2 -> width = 1)
 132:Middlewares/lvgl/src/core/../draw/../misc/../font/../misc/lv_area.h ****  */
 133:Middlewares/lvgl/src/core/../draw/../misc/../font/../misc/lv_area.h **** static inline lv_coord_t lv_area_get_width(const lv_area_t * area_p)
 1235              		.loc 3 133 26 view .LVU433
 1236              	.LBB235:
 134:Middlewares/lvgl/src/core/../draw/../misc/../font/../misc/lv_area.h **** {
 135:Middlewares/lvgl/src/core/../draw/../misc/../font/../misc/lv_area.h ****     return (lv_coord_t)(area_p->x2 - area_p->x1 + 1);
 1237              		.loc 3 135 5 view .LVU434
 1238              		.loc 3 135 31 is_stmt 0 view .LVU435
 1239 0044 2B8B     		ldrh	r3, [r5, #24]
 1240              		.loc 3 135 44 view .LVU436
 1241 0046 AA8A     		ldrh	r2, [r5, #20]
 1242              		.loc 3 135 36 view .LVU437
 1243 0048 9B1A     		subs	r3, r3, r2
 1244 004a 9BB2     		uxth	r3, r3
 1245              		.loc 3 135 49 view .LVU438
 1246 004c 0133     		adds	r3, r3, #1
 1247              		.loc 3 135 12 view .LVU439
 1248 004e 1BB2     		sxth	r3, r3
 1249              	.LVL117:
 1250              		.loc 3 135 12 view .LVU440
 1251              	.LBE235:
 1252              	.LBE234:
 228:Middlewares/lvgl/src/core/lv_obj_draw.c ****     draw_dsc->pivot.y = lv_area_get_height(&obj->coords) / 2;
 1253              		.loc 1 228 23 view .LVU441
 1254 0050 002B     		cmp	r3, #0
 1255 0052 1DDB     		blt	.L36
 1256              	.L31:
 1257 0054 5B10     		asrs	r3, r3, #1
 1258 0056 A380     		strh	r3, [r4, #4]	@ movhi
 229:Middlewares/lvgl/src/core/lv_obj_draw.c **** 
 1259              		.loc 1 229 5 is_stmt 1 view .LVU442
 1260              	.LVL118:
 1261              	.LBB236:
 1262              	.LBI236:
 136:Middlewares/lvgl/src/core/../draw/../misc/../font/../misc/lv_area.h **** }
 137:Middlewares/lvgl/src/core/../draw/../misc/../font/../misc/lv_area.h **** 
 138:Middlewares/lvgl/src/core/../draw/../misc/../font/../misc/lv_area.h **** /**
 139:Middlewares/lvgl/src/core/../draw/../misc/../font/../misc/lv_area.h ****  * Get the height of an area
 140:Middlewares/lvgl/src/core/../draw/../misc/../font/../misc/lv_area.h ****  * @param area_p pointer to an area
 141:Middlewares/lvgl/src/core/../draw/../misc/../font/../misc/lv_area.h ****  * @return the height of the area (if y1 == y2 -> height = 1)
 142:Middlewares/lvgl/src/core/../draw/../misc/../font/../misc/lv_area.h ****  */
 143:Middlewares/lvgl/src/core/../draw/../misc/../font/../misc/lv_area.h **** static inline lv_coord_t lv_area_get_height(const lv_area_t * area_p)
 1263              		.loc 3 143 26 view .LVU443
 1264              	.LBB237:
 144:Middlewares/lvgl/src/core/../draw/../misc/../font/../misc/lv_area.h **** {
 145:Middlewares/lvgl/src/core/../draw/../misc/../font/../misc/lv_area.h ****     return (lv_coord_t)(area_p->y2 - area_p->y1 + 1);
 1265              		.loc 3 145 5 view .LVU444
 1266              		.loc 3 145 31 is_stmt 0 view .LVU445
 1267 0058 6B8B     		ldrh	r3, [r5, #26]
 1268              		.loc 3 145 44 view .LVU446
 1269 005a EA8A     		ldrh	r2, [r5, #22]
 1270              		.loc 3 145 36 view .LVU447
 1271 005c 9B1A     		subs	r3, r3, r2
 1272 005e 9BB2     		uxth	r3, r3
 1273              		.loc 3 145 49 view .LVU448
ARM GAS  /tmp/ccXWhpqg.s 			page 44


 1274 0060 0133     		adds	r3, r3, #1
 1275              		.loc 3 145 12 view .LVU449
 1276 0062 1BB2     		sxth	r3, r3
 1277              	.LVL119:
 1278              		.loc 3 145 12 view .LVU450
 1279              	.LBE237:
 1280              	.LBE236:
 229:Middlewares/lvgl/src/core/lv_obj_draw.c **** 
 1281              		.loc 1 229 23 view .LVU451
 1282 0064 002B     		cmp	r3, #0
 1283 0066 15DB     		blt	.L37
 1284              	.L32:
 1285 0068 5B10     		asrs	r3, r3, #1
 1286 006a E380     		strh	r3, [r4, #6]	@ movhi
 231:Middlewares/lvgl/src/core/lv_obj_draw.c ****     if(draw_dsc->recolor_opa > 0) {
 1287              		.loc 1 231 5 is_stmt 1 view .LVU452
 1288              	.LVL120:
 1289              	.LBB238:
 1290              	.LBI238:
 379:Middlewares/lvgl/src/core/lv_obj_style_gen.h **** {
 1291              		.loc 2 379 24 view .LVU453
 1292              	.LBB239:
 381:Middlewares/lvgl/src/core/lv_obj_style_gen.h ****     return (lv_opa_t)v.num;
 1293              		.loc 2 381 5 view .LVU454
 381:Middlewares/lvgl/src/core/lv_obj_style_gen.h ****     return (lv_opa_t)v.num;
 1294              		.loc 2 381 26 is_stmt 0 view .LVU455
 1295 006c 4822     		movs	r2, #72
 1296 006e 3146     		mov	r1, r6
 1297 0070 2846     		mov	r0, r5
 1298 0072 FFF7FEFF 		bl	lv_obj_get_style_prop
 1299              	.LVL121:
 382:Middlewares/lvgl/src/core/lv_obj_style_gen.h **** }
 1300              		.loc 2 382 5 is_stmt 1 view .LVU456
 382:Middlewares/lvgl/src/core/lv_obj_style_gen.h **** }
 1301              		.loc 2 382 12 is_stmt 0 view .LVU457
 1302 0076 C0B2     		uxtb	r0, r0
 1303              	.LVL122:
 382:Middlewares/lvgl/src/core/lv_obj_style_gen.h **** }
 1304              		.loc 2 382 12 view .LVU458
 1305              	.LBE239:
 1306              	.LBE238:
 231:Middlewares/lvgl/src/core/lv_obj_draw.c ****     if(draw_dsc->recolor_opa > 0) {
 1307              		.loc 1 231 27 view .LVU459
 1308 0078 A072     		strb	r0, [r4, #10]
 232:Middlewares/lvgl/src/core/lv_obj_draw.c ****         draw_dsc->recolor = lv_obj_get_style_img_recolor(obj, part);
 1309              		.loc 1 232 5 is_stmt 1 view .LVU460
 232:Middlewares/lvgl/src/core/lv_obj_draw.c ****         draw_dsc->recolor = lv_obj_get_style_img_recolor(obj, part);
 1310              		.loc 1 232 7 is_stmt 0 view .LVU461
 1311 007a 68B9     		cbnz	r0, .L38
 1312              	.L33:
 236:Middlewares/lvgl/src/core/lv_obj_draw.c **** #endif
 1313              		.loc 1 236 5 is_stmt 1 view .LVU462
 1314              	.LVL123:
 1315              	.LBB240:
 1316              	.LBI240:
 175:Middlewares/lvgl/src/core/lv_obj_style_gen.h **** {
 1317              		.loc 2 175 31 view .LVU463
ARM GAS  /tmp/ccXWhpqg.s 			page 45


 1318              	.LBB241:
 177:Middlewares/lvgl/src/core/lv_obj_style_gen.h ****     return (lv_blend_mode_t)v.num;
 1319              		.loc 2 177 5 view .LVU464
 177:Middlewares/lvgl/src/core/lv_obj_style_gen.h ****     return (lv_blend_mode_t)v.num;
 1320              		.loc 2 177 26 is_stmt 0 view .LVU465
 1321 007c 6822     		movs	r2, #104
 1322 007e 3146     		mov	r1, r6
 1323 0080 2846     		mov	r0, r5
 1324 0082 FFF7FEFF 		bl	lv_obj_get_style_prop
 1325              	.LVL124:
 178:Middlewares/lvgl/src/core/lv_obj_style_gen.h **** }
 1326              		.loc 2 178 5 is_stmt 1 view .LVU466
 178:Middlewares/lvgl/src/core/lv_obj_style_gen.h **** }
 1327              		.loc 2 178 5 is_stmt 0 view .LVU467
 1328              	.LBE241:
 1329              	.LBE240:
 236:Middlewares/lvgl/src/core/lv_obj_draw.c **** #endif
 1330              		.loc 1 236 26 view .LVU468
 1331 0086 237B     		ldrb	r3, [r4, #12]	@ zero_extendqisi2
 1332 0088 60F30303 		bfi	r3, r0, #0, #4
 1333 008c 2373     		strb	r3, [r4, #12]
 1334 008e C2E7     		b	.L28
 1335              	.L36:
 228:Middlewares/lvgl/src/core/lv_obj_draw.c ****     draw_dsc->pivot.y = lv_area_get_height(&obj->coords) / 2;
 1336              		.loc 1 228 23 view .LVU469
 1337 0090 0133     		adds	r3, r3, #1
 1338 0092 DFE7     		b	.L31
 1339              	.L37:
 229:Middlewares/lvgl/src/core/lv_obj_draw.c **** 
 1340              		.loc 1 229 23 view .LVU470
 1341 0094 0133     		adds	r3, r3, #1
 1342 0096 E7E7     		b	.L32
 1343              	.L38:
 233:Middlewares/lvgl/src/core/lv_obj_draw.c ****     }
 1344              		.loc 1 233 9 is_stmt 1 view .LVU471
 1345              	.LVL125:
 1346              	.LBB242:
 1347              	.LBI242:
 367:Middlewares/lvgl/src/core/lv_obj_style_gen.h **** {
 1348              		.loc 2 367 26 view .LVU472
 1349              	.LBB243:
 369:Middlewares/lvgl/src/core/lv_obj_style_gen.h ****     return v.color;
 1350              		.loc 2 369 5 view .LVU473
 369:Middlewares/lvgl/src/core/lv_obj_style_gen.h ****     return v.color;
 1351              		.loc 2 369 26 is_stmt 0 view .LVU474
 1352 0098 4722     		movs	r2, #71
 1353 009a 3146     		mov	r1, r6
 1354 009c 2846     		mov	r0, r5
 1355 009e FFF7FEFF 		bl	lv_obj_get_style_prop
 1356              	.LVL126:
 370:Middlewares/lvgl/src/core/lv_obj_style_gen.h **** }
 1357              		.loc 2 370 5 is_stmt 1 view .LVU475
 370:Middlewares/lvgl/src/core/lv_obj_style_gen.h **** }
 1358              		.loc 2 370 5 is_stmt 0 view .LVU476
 1359              	.LBE243:
 1360              	.LBE242:
 233:Middlewares/lvgl/src/core/lv_obj_draw.c ****     }
ARM GAS  /tmp/ccXWhpqg.s 			page 46


 1361              		.loc 1 233 29 view .LVU477
 1362 00a2 2081     		strh	r0, [r4, #8]	@ movhi
 1363 00a4 EAE7     		b	.L33
 1364              		.cfi_endproc
 1365              	.LFE155:
 1367              		.section	.text.lv_obj_init_draw_line_dsc,"ax",%progbits
 1368              		.align	1
 1369              		.global	lv_obj_init_draw_line_dsc
 1370              		.syntax unified
 1371              		.thumb
 1372              		.thumb_func
 1373              		.fpu fpv5-d16
 1375              	lv_obj_init_draw_line_dsc:
 1376              	.LVL127:
 1377              	.LFB156:
 239:Middlewares/lvgl/src/core/lv_obj_draw.c **** 
 240:Middlewares/lvgl/src/core/lv_obj_draw.c **** void lv_obj_init_draw_line_dsc(lv_obj_t * obj, uint32_t part, lv_draw_line_dsc_t * draw_dsc)
 241:Middlewares/lvgl/src/core/lv_obj_draw.c **** {
 1378              		.loc 1 241 1 is_stmt 1 view -0
 1379              		.cfi_startproc
 1380              		@ args = 0, pretend = 0, frame = 0
 1381              		@ frame_needed = 0, uses_anonymous_args = 0
 1382              		.loc 1 241 1 is_stmt 0 view .LVU479
 1383 0000 70B5     		push	{r4, r5, r6, lr}
 1384              	.LCFI3:
 1385              		.cfi_def_cfa_offset 16
 1386              		.cfi_offset 4, -16
 1387              		.cfi_offset 5, -12
 1388              		.cfi_offset 6, -8
 1389              		.cfi_offset 14, -4
 1390 0002 0546     		mov	r5, r0
 1391 0004 0E46     		mov	r6, r1
 1392 0006 1446     		mov	r4, r2
 242:Middlewares/lvgl/src/core/lv_obj_draw.c ****     draw_dsc->width = lv_obj_get_style_line_width(obj, part);
 1393              		.loc 1 242 5 is_stmt 1 view .LVU480
 1394              	.LVL128:
 1395              	.LBB244:
 1396              	.LBI244:
 455:Middlewares/lvgl/src/core/lv_obj_style_gen.h **** }
 456:Middlewares/lvgl/src/core/lv_obj_style_gen.h **** 
 457:Middlewares/lvgl/src/core/lv_obj_style_gen.h **** static inline lv_coord_t lv_obj_get_style_line_width(const struct _lv_obj_t * obj, uint32_t part)
 1397              		.loc 2 457 26 view .LVU481
 1398              	.LBB245:
 458:Middlewares/lvgl/src/core/lv_obj_style_gen.h **** {
 459:Middlewares/lvgl/src/core/lv_obj_style_gen.h ****     lv_style_value_t v = lv_obj_get_style_prop(obj, part, LV_STYLE_LINE_WIDTH);
 1399              		.loc 2 459 5 view .LVU482
 1400              		.loc 2 459 26 is_stmt 0 view .LVU483
 1401 0008 40F64902 		movw	r2, #2121
 1402              	.LVL129:
 1403              		.loc 2 459 26 view .LVU484
 1404 000c FFF7FEFF 		bl	lv_obj_get_style_prop
 1405              	.LVL130:
 460:Middlewares/lvgl/src/core/lv_obj_style_gen.h ****     return (lv_coord_t)v.num;
 1406              		.loc 2 460 5 is_stmt 1 view .LVU485
 1407              		.loc 2 460 12 is_stmt 0 view .LVU486
 1408 0010 00B2     		sxth	r0, r0
 1409              	.LVL131:
ARM GAS  /tmp/ccXWhpqg.s 			page 47


 1410              		.loc 2 460 12 view .LVU487
 1411              	.LBE245:
 1412              	.LBE244:
 1413              		.loc 1 242 21 view .LVU488
 1414 0012 6080     		strh	r0, [r4, #2]	@ movhi
 243:Middlewares/lvgl/src/core/lv_obj_draw.c ****     if(draw_dsc->width == 0) return;
 1415              		.loc 1 243 5 is_stmt 1 view .LVU489
 1416              		.loc 1 243 7 is_stmt 0 view .LVU490
 1417 0014 00B9     		cbnz	r0, .L44
 1418              	.L39:
 244:Middlewares/lvgl/src/core/lv_obj_draw.c **** 
 245:Middlewares/lvgl/src/core/lv_obj_draw.c ****     draw_dsc->opa = lv_obj_get_style_line_opa(obj, part);
 246:Middlewares/lvgl/src/core/lv_obj_draw.c ****     if(draw_dsc->opa <= LV_OPA_MIN)  return;
 247:Middlewares/lvgl/src/core/lv_obj_draw.c **** 
 248:Middlewares/lvgl/src/core/lv_obj_draw.c ****     lv_opa_t opa = lv_obj_get_style_opa(obj, part);
 249:Middlewares/lvgl/src/core/lv_obj_draw.c ****     if(opa < LV_OPA_MAX) {
 250:Middlewares/lvgl/src/core/lv_obj_draw.c ****         draw_dsc->opa = (uint16_t)((uint16_t)draw_dsc->opa * opa) >> 8;
 251:Middlewares/lvgl/src/core/lv_obj_draw.c ****     }
 252:Middlewares/lvgl/src/core/lv_obj_draw.c ****     if(draw_dsc->opa <= LV_OPA_MIN)  return;
 253:Middlewares/lvgl/src/core/lv_obj_draw.c **** 
 254:Middlewares/lvgl/src/core/lv_obj_draw.c ****     draw_dsc->color = lv_obj_get_style_line_color(obj, part);
 255:Middlewares/lvgl/src/core/lv_obj_draw.c **** 
 256:Middlewares/lvgl/src/core/lv_obj_draw.c ****     draw_dsc->dash_width = lv_obj_get_style_line_dash_width(obj, part);
 257:Middlewares/lvgl/src/core/lv_obj_draw.c ****     if(draw_dsc->dash_width) {
 258:Middlewares/lvgl/src/core/lv_obj_draw.c ****         draw_dsc->dash_gap = lv_obj_get_style_line_dash_gap(obj, part);
 259:Middlewares/lvgl/src/core/lv_obj_draw.c ****     }
 260:Middlewares/lvgl/src/core/lv_obj_draw.c **** 
 261:Middlewares/lvgl/src/core/lv_obj_draw.c ****     draw_dsc->round_start = lv_obj_get_style_line_rounded(obj, part);
 262:Middlewares/lvgl/src/core/lv_obj_draw.c ****     draw_dsc->round_end = draw_dsc->round_start;
 263:Middlewares/lvgl/src/core/lv_obj_draw.c **** 
 264:Middlewares/lvgl/src/core/lv_obj_draw.c **** #if LV_DRAW_COMPLEX
 265:Middlewares/lvgl/src/core/lv_obj_draw.c ****     draw_dsc->blend_mode = lv_obj_get_style_blend_mode(obj, part);
 266:Middlewares/lvgl/src/core/lv_obj_draw.c **** #endif
 267:Middlewares/lvgl/src/core/lv_obj_draw.c **** }
 1419              		.loc 1 267 1 view .LVU491
 1420 0016 70BD     		pop	{r4, r5, r6, pc}
 1421              	.LVL132:
 1422              	.L44:
 245:Middlewares/lvgl/src/core/lv_obj_draw.c ****     if(draw_dsc->opa <= LV_OPA_MIN)  return;
 1423              		.loc 1 245 5 is_stmt 1 view .LVU492
 1424              	.LBB246:
 1425              	.LBI246:
 461:Middlewares/lvgl/src/core/lv_obj_style_gen.h **** }
 462:Middlewares/lvgl/src/core/lv_obj_style_gen.h **** 
 463:Middlewares/lvgl/src/core/lv_obj_style_gen.h **** static inline lv_coord_t lv_obj_get_style_line_dash_width(const struct _lv_obj_t * obj, uint32_t pa
 464:Middlewares/lvgl/src/core/lv_obj_style_gen.h **** {
 465:Middlewares/lvgl/src/core/lv_obj_style_gen.h ****     lv_style_value_t v = lv_obj_get_style_prop(obj, part, LV_STYLE_LINE_DASH_WIDTH);
 466:Middlewares/lvgl/src/core/lv_obj_style_gen.h ****     return (lv_coord_t)v.num;
 467:Middlewares/lvgl/src/core/lv_obj_style_gen.h **** }
 468:Middlewares/lvgl/src/core/lv_obj_style_gen.h **** 
 469:Middlewares/lvgl/src/core/lv_obj_style_gen.h **** static inline lv_coord_t lv_obj_get_style_line_dash_gap(const struct _lv_obj_t * obj, uint32_t part
 470:Middlewares/lvgl/src/core/lv_obj_style_gen.h **** {
 471:Middlewares/lvgl/src/core/lv_obj_style_gen.h ****     lv_style_value_t v = lv_obj_get_style_prop(obj, part, LV_STYLE_LINE_DASH_GAP);
 472:Middlewares/lvgl/src/core/lv_obj_style_gen.h ****     return (lv_coord_t)v.num;
 473:Middlewares/lvgl/src/core/lv_obj_style_gen.h **** }
 474:Middlewares/lvgl/src/core/lv_obj_style_gen.h **** 
 475:Middlewares/lvgl/src/core/lv_obj_style_gen.h **** static inline lv_coord_t lv_obj_get_style_line_rounded(const struct _lv_obj_t * obj, uint32_t part)
ARM GAS  /tmp/ccXWhpqg.s 			page 48


 476:Middlewares/lvgl/src/core/lv_obj_style_gen.h **** {
 477:Middlewares/lvgl/src/core/lv_obj_style_gen.h ****     lv_style_value_t v = lv_obj_get_style_prop(obj, part, LV_STYLE_LINE_ROUNDED);
 478:Middlewares/lvgl/src/core/lv_obj_style_gen.h ****     return (lv_coord_t)v.num;
 479:Middlewares/lvgl/src/core/lv_obj_style_gen.h **** }
 480:Middlewares/lvgl/src/core/lv_obj_style_gen.h **** 
 481:Middlewares/lvgl/src/core/lv_obj_style_gen.h **** static inline lv_color_t lv_obj_get_style_line_color(const struct _lv_obj_t * obj, uint32_t part)
 482:Middlewares/lvgl/src/core/lv_obj_style_gen.h **** {
 483:Middlewares/lvgl/src/core/lv_obj_style_gen.h ****     lv_style_value_t v = lv_obj_get_style_prop(obj, part, LV_STYLE_LINE_COLOR);
 484:Middlewares/lvgl/src/core/lv_obj_style_gen.h ****     return v.color;
 485:Middlewares/lvgl/src/core/lv_obj_style_gen.h **** }
 486:Middlewares/lvgl/src/core/lv_obj_style_gen.h **** 
 487:Middlewares/lvgl/src/core/lv_obj_style_gen.h **** static inline lv_color_t lv_obj_get_style_line_color_filtered(const struct _lv_obj_t * obj, uint32_
 488:Middlewares/lvgl/src/core/lv_obj_style_gen.h **** {
 489:Middlewares/lvgl/src/core/lv_obj_style_gen.h ****     lv_style_value_t v = lv_obj_get_style_prop(obj, part, LV_STYLE_LINE_COLOR_FILTERED);
 490:Middlewares/lvgl/src/core/lv_obj_style_gen.h ****     return v.color;
 491:Middlewares/lvgl/src/core/lv_obj_style_gen.h **** }
 492:Middlewares/lvgl/src/core/lv_obj_style_gen.h **** 
 493:Middlewares/lvgl/src/core/lv_obj_style_gen.h **** static inline lv_opa_t lv_obj_get_style_line_opa(const struct _lv_obj_t * obj, uint32_t part)
 1426              		.loc 2 493 24 view .LVU493
 1427              	.LBB247:
 494:Middlewares/lvgl/src/core/lv_obj_style_gen.h **** {
 495:Middlewares/lvgl/src/core/lv_obj_style_gen.h ****     lv_style_value_t v = lv_obj_get_style_prop(obj, part, LV_STYLE_LINE_OPA);
 1428              		.loc 2 495 5 view .LVU494
 1429              		.loc 2 495 26 is_stmt 0 view .LVU495
 1430 0018 4E22     		movs	r2, #78
 1431 001a 3146     		mov	r1, r6
 1432 001c 2846     		mov	r0, r5
 1433 001e FFF7FEFF 		bl	lv_obj_get_style_prop
 1434              	.LVL133:
 496:Middlewares/lvgl/src/core/lv_obj_style_gen.h ****     return (lv_opa_t)v.num;
 1435              		.loc 2 496 5 is_stmt 1 view .LVU496
 1436              		.loc 2 496 12 is_stmt 0 view .LVU497
 1437 0022 C3B2     		uxtb	r3, r0
 1438              	.LVL134:
 1439              		.loc 2 496 12 view .LVU498
 1440              	.LBE247:
 1441              	.LBE246:
 245:Middlewares/lvgl/src/core/lv_obj_draw.c ****     if(draw_dsc->opa <= LV_OPA_MIN)  return;
 1442              		.loc 1 245 19 view .LVU499
 1443 0024 2372     		strb	r3, [r4, #8]
 246:Middlewares/lvgl/src/core/lv_obj_draw.c **** 
 1444              		.loc 1 246 5 is_stmt 1 view .LVU500
 246:Middlewares/lvgl/src/core/lv_obj_draw.c **** 
 1445              		.loc 1 246 7 is_stmt 0 view .LVU501
 1446 0026 022B     		cmp	r3, #2
 1447 0028 F5D9     		bls	.L39
 248:Middlewares/lvgl/src/core/lv_obj_draw.c ****     if(opa < LV_OPA_MAX) {
 1448              		.loc 1 248 5 is_stmt 1 view .LVU502
 1449              	.LVL135:
 1450              	.LBB248:
 1451              	.LBI248:
 139:Middlewares/lvgl/src/core/lv_obj_style_gen.h **** {
 1452              		.loc 2 139 24 view .LVU503
 1453              	.LBB249:
 141:Middlewares/lvgl/src/core/lv_obj_style_gen.h ****     return (lv_opa_t)v.num;
 1454              		.loc 2 141 5 view .LVU504
 141:Middlewares/lvgl/src/core/lv_obj_style_gen.h ****     return (lv_opa_t)v.num;
ARM GAS  /tmp/ccXWhpqg.s 			page 49


 1455              		.loc 2 141 26 is_stmt 0 view .LVU505
 1456 002a 40F26242 		movw	r2, #1122
 1457 002e 3146     		mov	r1, r6
 1458 0030 2846     		mov	r0, r5
 1459 0032 FFF7FEFF 		bl	lv_obj_get_style_prop
 1460              	.LVL136:
 142:Middlewares/lvgl/src/core/lv_obj_style_gen.h **** }
 1461              		.loc 2 142 5 is_stmt 1 view .LVU506
 142:Middlewares/lvgl/src/core/lv_obj_style_gen.h **** }
 1462              		.loc 2 142 12 is_stmt 0 view .LVU507
 1463 0036 C0B2     		uxtb	r0, r0
 1464              	.LVL137:
 142:Middlewares/lvgl/src/core/lv_obj_style_gen.h **** }
 1465              		.loc 2 142 12 view .LVU508
 1466              	.LBE249:
 1467              	.LBE248:
 249:Middlewares/lvgl/src/core/lv_obj_draw.c ****         draw_dsc->opa = (uint16_t)((uint16_t)draw_dsc->opa * opa) >> 8;
 1468              		.loc 1 249 5 is_stmt 1 view .LVU509
 249:Middlewares/lvgl/src/core/lv_obj_draw.c ****         draw_dsc->opa = (uint16_t)((uint16_t)draw_dsc->opa * opa) >> 8;
 1469              		.loc 1 249 7 is_stmt 0 view .LVU510
 1470 0038 FC28     		cmp	r0, #252
 1471 003a 04D8     		bhi	.L41
 250:Middlewares/lvgl/src/core/lv_obj_draw.c ****     }
 1472              		.loc 1 250 9 is_stmt 1 view .LVU511
 250:Middlewares/lvgl/src/core/lv_obj_draw.c ****     }
 1473              		.loc 1 250 54 is_stmt 0 view .LVU512
 1474 003c 237A     		ldrb	r3, [r4, #8]	@ zero_extendqisi2
 250:Middlewares/lvgl/src/core/lv_obj_draw.c ****     }
 1475              		.loc 1 250 25 view .LVU513
 1476 003e 03FB00F0 		mul	r0, r3, r0
 1477              	.LVL138:
 250:Middlewares/lvgl/src/core/lv_obj_draw.c ****     }
 1478              		.loc 1 250 23 view .LVU514
 1479 0042 000A     		lsrs	r0, r0, #8
 1480 0044 2072     		strb	r0, [r4, #8]
 1481              	.L41:
 252:Middlewares/lvgl/src/core/lv_obj_draw.c **** 
 1482              		.loc 1 252 5 is_stmt 1 view .LVU515
 252:Middlewares/lvgl/src/core/lv_obj_draw.c **** 
 1483              		.loc 1 252 16 is_stmt 0 view .LVU516
 1484 0046 237A     		ldrb	r3, [r4, #8]	@ zero_extendqisi2
 252:Middlewares/lvgl/src/core/lv_obj_draw.c **** 
 1485              		.loc 1 252 7 view .LVU517
 1486 0048 022B     		cmp	r3, #2
 1487 004a E4D9     		bls	.L39
 254:Middlewares/lvgl/src/core/lv_obj_draw.c **** 
 1488              		.loc 1 254 5 is_stmt 1 view .LVU518
 1489              	.LVL139:
 1490              	.LBB250:
 1491              	.LBI250:
 481:Middlewares/lvgl/src/core/lv_obj_style_gen.h **** {
 1492              		.loc 2 481 26 view .LVU519
 1493              	.LBB251:
 483:Middlewares/lvgl/src/core/lv_obj_style_gen.h ****     return v.color;
 1494              		.loc 2 483 5 view .LVU520
 483:Middlewares/lvgl/src/core/lv_obj_style_gen.h ****     return v.color;
 1495              		.loc 2 483 26 is_stmt 0 view .LVU521
ARM GAS  /tmp/ccXWhpqg.s 			page 50


 1496 004c 4D22     		movs	r2, #77
 1497 004e 3146     		mov	r1, r6
 1498 0050 2846     		mov	r0, r5
 1499 0052 FFF7FEFF 		bl	lv_obj_get_style_prop
 1500              	.LVL140:
 484:Middlewares/lvgl/src/core/lv_obj_style_gen.h **** }
 1501              		.loc 2 484 5 is_stmt 1 view .LVU522
 484:Middlewares/lvgl/src/core/lv_obj_style_gen.h **** }
 1502              		.loc 2 484 5 is_stmt 0 view .LVU523
 1503              	.LBE251:
 1504              	.LBE250:
 254:Middlewares/lvgl/src/core/lv_obj_draw.c **** 
 1505              		.loc 1 254 23 view .LVU524
 1506 0056 2080     		strh	r0, [r4]	@ movhi
 256:Middlewares/lvgl/src/core/lv_obj_draw.c ****     if(draw_dsc->dash_width) {
 1507              		.loc 1 256 5 is_stmt 1 view .LVU525
 1508              	.LVL141:
 1509              	.LBB252:
 1510              	.LBI252:
 463:Middlewares/lvgl/src/core/lv_obj_style_gen.h **** {
 1511              		.loc 2 463 26 view .LVU526
 1512              	.LBB253:
 465:Middlewares/lvgl/src/core/lv_obj_style_gen.h ****     return (lv_coord_t)v.num;
 1513              		.loc 2 465 5 view .LVU527
 465:Middlewares/lvgl/src/core/lv_obj_style_gen.h ****     return (lv_coord_t)v.num;
 1514              		.loc 2 465 26 is_stmt 0 view .LVU528
 1515 0058 4A22     		movs	r2, #74
 1516 005a 3146     		mov	r1, r6
 1517 005c 2846     		mov	r0, r5
 1518 005e FFF7FEFF 		bl	lv_obj_get_style_prop
 1519              	.LVL142:
 466:Middlewares/lvgl/src/core/lv_obj_style_gen.h **** }
 1520              		.loc 2 466 5 is_stmt 1 view .LVU529
 466:Middlewares/lvgl/src/core/lv_obj_style_gen.h **** }
 1521              		.loc 2 466 12 is_stmt 0 view .LVU530
 1522 0062 00B2     		sxth	r0, r0
 1523              	.LVL143:
 466:Middlewares/lvgl/src/core/lv_obj_style_gen.h **** }
 1524              		.loc 2 466 12 view .LVU531
 1525              	.LBE253:
 1526              	.LBE252:
 256:Middlewares/lvgl/src/core/lv_obj_draw.c ****     if(draw_dsc->dash_width) {
 1527              		.loc 1 256 26 view .LVU532
 1528 0064 A080     		strh	r0, [r4, #4]	@ movhi
 257:Middlewares/lvgl/src/core/lv_obj_draw.c ****         draw_dsc->dash_gap = lv_obj_get_style_line_dash_gap(obj, part);
 1529              		.loc 1 257 5 is_stmt 1 view .LVU533
 257:Middlewares/lvgl/src/core/lv_obj_draw.c ****         draw_dsc->dash_gap = lv_obj_get_style_line_dash_gap(obj, part);
 1530              		.loc 1 257 7 is_stmt 0 view .LVU534
 1531 0066 C0B9     		cbnz	r0, .L45
 1532              	.L42:
 261:Middlewares/lvgl/src/core/lv_obj_draw.c ****     draw_dsc->round_end = draw_dsc->round_start;
 1533              		.loc 1 261 5 is_stmt 1 view .LVU535
 1534              	.LVL144:
 1535              	.LBB254:
 1536              	.LBI254:
 475:Middlewares/lvgl/src/core/lv_obj_style_gen.h **** {
 1537              		.loc 2 475 26 view .LVU536
ARM GAS  /tmp/ccXWhpqg.s 			page 51


 1538              	.LBB255:
 477:Middlewares/lvgl/src/core/lv_obj_style_gen.h ****     return (lv_coord_t)v.num;
 1539              		.loc 2 477 5 view .LVU537
 477:Middlewares/lvgl/src/core/lv_obj_style_gen.h ****     return (lv_coord_t)v.num;
 1540              		.loc 2 477 26 is_stmt 0 view .LVU538
 1541 0068 4C22     		movs	r2, #76
 1542 006a 3146     		mov	r1, r6
 1543 006c 2846     		mov	r0, r5
 1544 006e FFF7FEFF 		bl	lv_obj_get_style_prop
 1545              	.LVL145:
 478:Middlewares/lvgl/src/core/lv_obj_style_gen.h **** }
 1546              		.loc 2 478 5 is_stmt 1 view .LVU539
 478:Middlewares/lvgl/src/core/lv_obj_style_gen.h **** }
 1547              		.loc 2 478 5 is_stmt 0 view .LVU540
 1548              	.LBE255:
 1549              	.LBE254:
 261:Middlewares/lvgl/src/core/lv_obj_draw.c ****     draw_dsc->round_end = draw_dsc->round_start;
 1550              		.loc 1 261 29 view .LVU541
 1551 0072 00F00100 		and	r0, r0, #1
 261:Middlewares/lvgl/src/core/lv_obj_draw.c ****     draw_dsc->round_end = draw_dsc->round_start;
 1552              		.loc 1 261 27 view .LVU542
 1553 0076 637A     		ldrb	r3, [r4, #9]	@ zero_extendqisi2
 1554 0078 60F38203 		bfi	r3, r0, #2, #1
 1555 007c 6372     		strb	r3, [r4, #9]
 262:Middlewares/lvgl/src/core/lv_obj_draw.c **** 
 1556              		.loc 1 262 5 is_stmt 1 view .LVU543
 262:Middlewares/lvgl/src/core/lv_obj_draw.c **** 
 1557              		.loc 1 262 25 is_stmt 0 view .LVU544
 1558 007e DBB2     		uxtb	r3, r3
 1559 0080 60F3C303 		bfi	r3, r0, #3, #1
 1560 0084 6372     		strb	r3, [r4, #9]
 265:Middlewares/lvgl/src/core/lv_obj_draw.c **** #endif
 1561              		.loc 1 265 5 is_stmt 1 view .LVU545
 1562              	.LVL146:
 1563              	.LBB256:
 1564              	.LBI256:
 175:Middlewares/lvgl/src/core/lv_obj_style_gen.h **** {
 1565              		.loc 2 175 31 view .LVU546
 1566              	.LBB257:
 177:Middlewares/lvgl/src/core/lv_obj_style_gen.h ****     return (lv_blend_mode_t)v.num;
 1567              		.loc 2 177 5 view .LVU547
 177:Middlewares/lvgl/src/core/lv_obj_style_gen.h ****     return (lv_blend_mode_t)v.num;
 1568              		.loc 2 177 26 is_stmt 0 view .LVU548
 1569 0086 6822     		movs	r2, #104
 1570 0088 3146     		mov	r1, r6
 1571 008a 2846     		mov	r0, r5
 1572 008c FFF7FEFF 		bl	lv_obj_get_style_prop
 1573              	.LVL147:
 178:Middlewares/lvgl/src/core/lv_obj_style_gen.h **** }
 1574              		.loc 2 178 5 is_stmt 1 view .LVU549
 178:Middlewares/lvgl/src/core/lv_obj_style_gen.h **** }
 1575              		.loc 2 178 5 is_stmt 0 view .LVU550
 1576              	.LBE257:
 1577              	.LBE256:
 265:Middlewares/lvgl/src/core/lv_obj_draw.c **** #endif
 1578              		.loc 1 265 26 view .LVU551
 1579 0090 637A     		ldrb	r3, [r4, #9]	@ zero_extendqisi2
ARM GAS  /tmp/ccXWhpqg.s 			page 52


 1580 0092 60F30103 		bfi	r3, r0, #0, #2
 1581 0096 6372     		strb	r3, [r4, #9]
 1582 0098 BDE7     		b	.L39
 1583              	.L45:
 258:Middlewares/lvgl/src/core/lv_obj_draw.c ****     }
 1584              		.loc 1 258 9 is_stmt 1 view .LVU552
 1585              	.LVL148:
 1586              	.LBB258:
 1587              	.LBI258:
 469:Middlewares/lvgl/src/core/lv_obj_style_gen.h **** {
 1588              		.loc 2 469 26 view .LVU553
 1589              	.LBB259:
 471:Middlewares/lvgl/src/core/lv_obj_style_gen.h ****     return (lv_coord_t)v.num;
 1590              		.loc 2 471 5 view .LVU554
 471:Middlewares/lvgl/src/core/lv_obj_style_gen.h ****     return (lv_coord_t)v.num;
 1591              		.loc 2 471 26 is_stmt 0 view .LVU555
 1592 009a 4B22     		movs	r2, #75
 1593 009c 3146     		mov	r1, r6
 1594 009e 2846     		mov	r0, r5
 1595 00a0 FFF7FEFF 		bl	lv_obj_get_style_prop
 1596              	.LVL149:
 472:Middlewares/lvgl/src/core/lv_obj_style_gen.h **** }
 1597              		.loc 2 472 5 is_stmt 1 view .LVU556
 472:Middlewares/lvgl/src/core/lv_obj_style_gen.h **** }
 1598              		.loc 2 472 5 is_stmt 0 view .LVU557
 1599              	.LBE259:
 1600              	.LBE258:
 258:Middlewares/lvgl/src/core/lv_obj_draw.c ****     }
 1601              		.loc 1 258 28 view .LVU558
 1602 00a4 E080     		strh	r0, [r4, #6]	@ movhi
 1603 00a6 DFE7     		b	.L42
 1604              		.cfi_endproc
 1605              	.LFE156:
 1607              		.section	.text.lv_obj_init_draw_arc_dsc,"ax",%progbits
 1608              		.align	1
 1609              		.global	lv_obj_init_draw_arc_dsc
 1610              		.syntax unified
 1611              		.thumb
 1612              		.thumb_func
 1613              		.fpu fpv5-d16
 1615              	lv_obj_init_draw_arc_dsc:
 1616              	.LVL150:
 1617              	.LFB157:
 268:Middlewares/lvgl/src/core/lv_obj_draw.c **** 
 269:Middlewares/lvgl/src/core/lv_obj_draw.c **** void lv_obj_init_draw_arc_dsc(lv_obj_t * obj, uint32_t part, lv_draw_arc_dsc_t * draw_dsc)
 270:Middlewares/lvgl/src/core/lv_obj_draw.c **** {
 1618              		.loc 1 270 1 is_stmt 1 view -0
 1619              		.cfi_startproc
 1620              		@ args = 0, pretend = 0, frame = 0
 1621              		@ frame_needed = 0, uses_anonymous_args = 0
 1622              		.loc 1 270 1 is_stmt 0 view .LVU560
 1623 0000 70B5     		push	{r4, r5, r6, lr}
 1624              	.LCFI4:
 1625              		.cfi_def_cfa_offset 16
 1626              		.cfi_offset 4, -16
 1627              		.cfi_offset 5, -12
 1628              		.cfi_offset 6, -8
ARM GAS  /tmp/ccXWhpqg.s 			page 53


 1629              		.cfi_offset 14, -4
 1630 0002 0546     		mov	r5, r0
 1631 0004 0E46     		mov	r6, r1
 1632 0006 1446     		mov	r4, r2
 271:Middlewares/lvgl/src/core/lv_obj_draw.c ****     draw_dsc->width = lv_obj_get_style_arc_width(obj, part);
 1633              		.loc 1 271 5 is_stmt 1 view .LVU561
 1634              	.LVL151:
 1635              	.LBB260:
 1636              	.LBI260:
 497:Middlewares/lvgl/src/core/lv_obj_style_gen.h **** }
 498:Middlewares/lvgl/src/core/lv_obj_style_gen.h **** 
 499:Middlewares/lvgl/src/core/lv_obj_style_gen.h **** static inline lv_coord_t lv_obj_get_style_arc_width(const struct _lv_obj_t * obj, uint32_t part)
 1637              		.loc 2 499 26 view .LVU562
 1638              	.LBB261:
 500:Middlewares/lvgl/src/core/lv_obj_style_gen.h **** {
 501:Middlewares/lvgl/src/core/lv_obj_style_gen.h ****     lv_style_value_t v = lv_obj_get_style_prop(obj, part, LV_STYLE_ARC_WIDTH);
 1639              		.loc 2 501 5 view .LVU563
 1640              		.loc 2 501 26 is_stmt 0 view .LVU564
 1641 0008 4FF40562 		mov	r2, #2128
 1642              	.LVL152:
 1643              		.loc 2 501 26 view .LVU565
 1644 000c FFF7FEFF 		bl	lv_obj_get_style_prop
 1645              	.LVL153:
 502:Middlewares/lvgl/src/core/lv_obj_style_gen.h ****     return (lv_coord_t)v.num;
 1646              		.loc 2 502 5 is_stmt 1 view .LVU566
 1647              		.loc 2 502 12 is_stmt 0 view .LVU567
 1648 0010 00B2     		sxth	r0, r0
 1649              	.LVL154:
 1650              		.loc 2 502 12 view .LVU568
 1651              	.LBE261:
 1652              	.LBE260:
 1653              		.loc 1 271 21 view .LVU569
 1654 0012 6080     		strh	r0, [r4, #2]	@ movhi
 272:Middlewares/lvgl/src/core/lv_obj_draw.c ****     if(draw_dsc->width == 0) return;
 1655              		.loc 1 272 5 is_stmt 1 view .LVU570
 1656              		.loc 1 272 7 is_stmt 0 view .LVU571
 1657 0014 00B9     		cbnz	r0, .L50
 1658              	.L46:
 273:Middlewares/lvgl/src/core/lv_obj_draw.c **** 
 274:Middlewares/lvgl/src/core/lv_obj_draw.c ****     draw_dsc->opa = lv_obj_get_style_arc_opa(obj, part);
 275:Middlewares/lvgl/src/core/lv_obj_draw.c ****     if(draw_dsc->opa <= LV_OPA_MIN)  return;
 276:Middlewares/lvgl/src/core/lv_obj_draw.c **** 
 277:Middlewares/lvgl/src/core/lv_obj_draw.c ****     lv_opa_t opa = lv_obj_get_style_opa(obj, part);
 278:Middlewares/lvgl/src/core/lv_obj_draw.c ****     if(opa < LV_OPA_MAX) {
 279:Middlewares/lvgl/src/core/lv_obj_draw.c ****         draw_dsc->opa = (uint16_t)((uint16_t)draw_dsc->opa * opa) >> 8;
 280:Middlewares/lvgl/src/core/lv_obj_draw.c ****     }
 281:Middlewares/lvgl/src/core/lv_obj_draw.c ****     if(draw_dsc->opa <= LV_OPA_MIN)  return;
 282:Middlewares/lvgl/src/core/lv_obj_draw.c **** 
 283:Middlewares/lvgl/src/core/lv_obj_draw.c ****     draw_dsc->color = lv_obj_get_style_arc_color(obj, part);
 284:Middlewares/lvgl/src/core/lv_obj_draw.c ****     draw_dsc->img_src = lv_obj_get_style_arc_img_src(obj, part);
 285:Middlewares/lvgl/src/core/lv_obj_draw.c **** 
 286:Middlewares/lvgl/src/core/lv_obj_draw.c ****     draw_dsc->rounded = lv_obj_get_style_arc_rounded(obj, part);
 287:Middlewares/lvgl/src/core/lv_obj_draw.c **** 
 288:Middlewares/lvgl/src/core/lv_obj_draw.c **** #if LV_DRAW_COMPLEX
 289:Middlewares/lvgl/src/core/lv_obj_draw.c ****     draw_dsc->blend_mode = lv_obj_get_style_blend_mode(obj, part);
 290:Middlewares/lvgl/src/core/lv_obj_draw.c **** #endif
 291:Middlewares/lvgl/src/core/lv_obj_draw.c **** }
ARM GAS  /tmp/ccXWhpqg.s 			page 54


 1659              		.loc 1 291 1 view .LVU572
 1660 0016 70BD     		pop	{r4, r5, r6, pc}
 1661              	.LVL155:
 1662              	.L50:
 274:Middlewares/lvgl/src/core/lv_obj_draw.c ****     if(draw_dsc->opa <= LV_OPA_MIN)  return;
 1663              		.loc 1 274 5 is_stmt 1 view .LVU573
 1664              	.LBB262:
 1665              	.LBI262:
 503:Middlewares/lvgl/src/core/lv_obj_style_gen.h **** }
 504:Middlewares/lvgl/src/core/lv_obj_style_gen.h **** 
 505:Middlewares/lvgl/src/core/lv_obj_style_gen.h **** static inline lv_coord_t lv_obj_get_style_arc_rounded(const struct _lv_obj_t * obj, uint32_t part)
 506:Middlewares/lvgl/src/core/lv_obj_style_gen.h **** {
 507:Middlewares/lvgl/src/core/lv_obj_style_gen.h ****     lv_style_value_t v = lv_obj_get_style_prop(obj, part, LV_STYLE_ARC_ROUNDED);
 508:Middlewares/lvgl/src/core/lv_obj_style_gen.h ****     return (lv_coord_t)v.num;
 509:Middlewares/lvgl/src/core/lv_obj_style_gen.h **** }
 510:Middlewares/lvgl/src/core/lv_obj_style_gen.h **** 
 511:Middlewares/lvgl/src/core/lv_obj_style_gen.h **** static inline lv_color_t lv_obj_get_style_arc_color(const struct _lv_obj_t * obj, uint32_t part)
 512:Middlewares/lvgl/src/core/lv_obj_style_gen.h **** {
 513:Middlewares/lvgl/src/core/lv_obj_style_gen.h ****     lv_style_value_t v = lv_obj_get_style_prop(obj, part, LV_STYLE_ARC_COLOR);
 514:Middlewares/lvgl/src/core/lv_obj_style_gen.h ****     return v.color;
 515:Middlewares/lvgl/src/core/lv_obj_style_gen.h **** }
 516:Middlewares/lvgl/src/core/lv_obj_style_gen.h **** 
 517:Middlewares/lvgl/src/core/lv_obj_style_gen.h **** static inline lv_color_t lv_obj_get_style_arc_color_filtered(const struct _lv_obj_t * obj, uint32_t
 518:Middlewares/lvgl/src/core/lv_obj_style_gen.h **** {
 519:Middlewares/lvgl/src/core/lv_obj_style_gen.h ****     lv_style_value_t v = lv_obj_get_style_prop(obj, part, LV_STYLE_ARC_COLOR_FILTERED);
 520:Middlewares/lvgl/src/core/lv_obj_style_gen.h ****     return v.color;
 521:Middlewares/lvgl/src/core/lv_obj_style_gen.h **** }
 522:Middlewares/lvgl/src/core/lv_obj_style_gen.h **** 
 523:Middlewares/lvgl/src/core/lv_obj_style_gen.h **** static inline lv_opa_t lv_obj_get_style_arc_opa(const struct _lv_obj_t * obj, uint32_t part)
 1666              		.loc 2 523 24 view .LVU574
 1667              	.LBB263:
 524:Middlewares/lvgl/src/core/lv_obj_style_gen.h **** {
 525:Middlewares/lvgl/src/core/lv_obj_style_gen.h ****     lv_style_value_t v = lv_obj_get_style_prop(obj, part, LV_STYLE_ARC_OPA);
 1668              		.loc 2 525 5 view .LVU575
 1669              		.loc 2 525 26 is_stmt 0 view .LVU576
 1670 0018 5322     		movs	r2, #83
 1671 001a 3146     		mov	r1, r6
 1672 001c 2846     		mov	r0, r5
 1673 001e FFF7FEFF 		bl	lv_obj_get_style_prop
 1674              	.LVL156:
 526:Middlewares/lvgl/src/core/lv_obj_style_gen.h ****     return (lv_opa_t)v.num;
 1675              		.loc 2 526 5 is_stmt 1 view .LVU577
 1676              		.loc 2 526 12 is_stmt 0 view .LVU578
 1677 0022 C3B2     		uxtb	r3, r0
 1678              	.LVL157:
 1679              		.loc 2 526 12 view .LVU579
 1680              	.LBE263:
 1681              	.LBE262:
 274:Middlewares/lvgl/src/core/lv_obj_draw.c ****     if(draw_dsc->opa <= LV_OPA_MIN)  return;
 1682              		.loc 1 274 19 view .LVU580
 1683 0024 2372     		strb	r3, [r4, #8]
 275:Middlewares/lvgl/src/core/lv_obj_draw.c **** 
 1684              		.loc 1 275 5 is_stmt 1 view .LVU581
 275:Middlewares/lvgl/src/core/lv_obj_draw.c **** 
 1685              		.loc 1 275 7 is_stmt 0 view .LVU582
 1686 0026 022B     		cmp	r3, #2
 1687 0028 F5D9     		bls	.L46
ARM GAS  /tmp/ccXWhpqg.s 			page 55


 277:Middlewares/lvgl/src/core/lv_obj_draw.c ****     if(opa < LV_OPA_MAX) {
 1688              		.loc 1 277 5 is_stmt 1 view .LVU583
 1689              	.LVL158:
 1690              	.LBB264:
 1691              	.LBI264:
 139:Middlewares/lvgl/src/core/lv_obj_style_gen.h **** {
 1692              		.loc 2 139 24 view .LVU584
 1693              	.LBB265:
 141:Middlewares/lvgl/src/core/lv_obj_style_gen.h ****     return (lv_opa_t)v.num;
 1694              		.loc 2 141 5 view .LVU585
 141:Middlewares/lvgl/src/core/lv_obj_style_gen.h ****     return (lv_opa_t)v.num;
 1695              		.loc 2 141 26 is_stmt 0 view .LVU586
 1696 002a 40F26242 		movw	r2, #1122
 1697 002e 3146     		mov	r1, r6
 1698 0030 2846     		mov	r0, r5
 1699 0032 FFF7FEFF 		bl	lv_obj_get_style_prop
 1700              	.LVL159:
 142:Middlewares/lvgl/src/core/lv_obj_style_gen.h **** }
 1701              		.loc 2 142 5 is_stmt 1 view .LVU587
 142:Middlewares/lvgl/src/core/lv_obj_style_gen.h **** }
 1702              		.loc 2 142 12 is_stmt 0 view .LVU588
 1703 0036 C0B2     		uxtb	r0, r0
 1704              	.LVL160:
 142:Middlewares/lvgl/src/core/lv_obj_style_gen.h **** }
 1705              		.loc 2 142 12 view .LVU589
 1706              	.LBE265:
 1707              	.LBE264:
 278:Middlewares/lvgl/src/core/lv_obj_draw.c ****         draw_dsc->opa = (uint16_t)((uint16_t)draw_dsc->opa * opa) >> 8;
 1708              		.loc 1 278 5 is_stmt 1 view .LVU590
 278:Middlewares/lvgl/src/core/lv_obj_draw.c ****         draw_dsc->opa = (uint16_t)((uint16_t)draw_dsc->opa * opa) >> 8;
 1709              		.loc 1 278 7 is_stmt 0 view .LVU591
 1710 0038 FC28     		cmp	r0, #252
 1711 003a 04D8     		bhi	.L48
 279:Middlewares/lvgl/src/core/lv_obj_draw.c ****     }
 1712              		.loc 1 279 9 is_stmt 1 view .LVU592
 279:Middlewares/lvgl/src/core/lv_obj_draw.c ****     }
 1713              		.loc 1 279 54 is_stmt 0 view .LVU593
 1714 003c 237A     		ldrb	r3, [r4, #8]	@ zero_extendqisi2
 279:Middlewares/lvgl/src/core/lv_obj_draw.c ****     }
 1715              		.loc 1 279 25 view .LVU594
 1716 003e 03FB00F0 		mul	r0, r3, r0
 1717              	.LVL161:
 279:Middlewares/lvgl/src/core/lv_obj_draw.c ****     }
 1718              		.loc 1 279 23 view .LVU595
 1719 0042 000A     		lsrs	r0, r0, #8
 1720 0044 2072     		strb	r0, [r4, #8]
 1721              	.L48:
 281:Middlewares/lvgl/src/core/lv_obj_draw.c **** 
 1722              		.loc 1 281 5 is_stmt 1 view .LVU596
 281:Middlewares/lvgl/src/core/lv_obj_draw.c **** 
 1723              		.loc 1 281 16 is_stmt 0 view .LVU597
 1724 0046 237A     		ldrb	r3, [r4, #8]	@ zero_extendqisi2
 281:Middlewares/lvgl/src/core/lv_obj_draw.c **** 
 1725              		.loc 1 281 7 view .LVU598
 1726 0048 022B     		cmp	r3, #2
 1727 004a E4D9     		bls	.L46
 283:Middlewares/lvgl/src/core/lv_obj_draw.c ****     draw_dsc->img_src = lv_obj_get_style_arc_img_src(obj, part);
ARM GAS  /tmp/ccXWhpqg.s 			page 56


 1728              		.loc 1 283 5 is_stmt 1 view .LVU599
 1729              	.LVL162:
 1730              	.LBB266:
 1731              	.LBI266:
 511:Middlewares/lvgl/src/core/lv_obj_style_gen.h **** {
 1732              		.loc 2 511 26 view .LVU600
 1733              	.LBB267:
 513:Middlewares/lvgl/src/core/lv_obj_style_gen.h ****     return v.color;
 1734              		.loc 2 513 5 view .LVU601
 513:Middlewares/lvgl/src/core/lv_obj_style_gen.h ****     return v.color;
 1735              		.loc 2 513 26 is_stmt 0 view .LVU602
 1736 004c 5222     		movs	r2, #82
 1737 004e 3146     		mov	r1, r6
 1738 0050 2846     		mov	r0, r5
 1739 0052 FFF7FEFF 		bl	lv_obj_get_style_prop
 1740              	.LVL163:
 514:Middlewares/lvgl/src/core/lv_obj_style_gen.h **** }
 1741              		.loc 2 514 5 is_stmt 1 view .LVU603
 514:Middlewares/lvgl/src/core/lv_obj_style_gen.h **** }
 1742              		.loc 2 514 5 is_stmt 0 view .LVU604
 1743              	.LBE267:
 1744              	.LBE266:
 283:Middlewares/lvgl/src/core/lv_obj_draw.c ****     draw_dsc->img_src = lv_obj_get_style_arc_img_src(obj, part);
 1745              		.loc 1 283 23 view .LVU605
 1746 0056 2080     		strh	r0, [r4]	@ movhi
 284:Middlewares/lvgl/src/core/lv_obj_draw.c **** 
 1747              		.loc 1 284 5 is_stmt 1 view .LVU606
 1748              	.LVL164:
 1749              	.LBB268:
 1750              	.LBI268:
 527:Middlewares/lvgl/src/core/lv_obj_style_gen.h **** }
 528:Middlewares/lvgl/src/core/lv_obj_style_gen.h **** 
 529:Middlewares/lvgl/src/core/lv_obj_style_gen.h **** static inline const void * lv_obj_get_style_arc_img_src(const struct _lv_obj_t * obj, uint32_t part
 1751              		.loc 2 529 28 view .LVU607
 1752              	.LBB269:
 530:Middlewares/lvgl/src/core/lv_obj_style_gen.h **** {
 531:Middlewares/lvgl/src/core/lv_obj_style_gen.h ****     lv_style_value_t v = lv_obj_get_style_prop(obj, part, LV_STYLE_ARC_IMG_SRC);
 1753              		.loc 2 531 5 view .LVU608
 1754              		.loc 2 531 26 is_stmt 0 view .LVU609
 1755 0058 5422     		movs	r2, #84
 1756 005a 3146     		mov	r1, r6
 1757 005c 2846     		mov	r0, r5
 1758 005e FFF7FEFF 		bl	lv_obj_get_style_prop
 1759              	.LVL165:
 532:Middlewares/lvgl/src/core/lv_obj_style_gen.h ****     return (const void *)v.ptr;
 1760              		.loc 2 532 5 is_stmt 1 view .LVU610
 1761              		.loc 2 532 5 is_stmt 0 view .LVU611
 1762              	.LBE269:
 1763              	.LBE268:
 284:Middlewares/lvgl/src/core/lv_obj_draw.c **** 
 1764              		.loc 1 284 23 view .LVU612
 1765 0062 6060     		str	r0, [r4, #4]
 286:Middlewares/lvgl/src/core/lv_obj_draw.c **** 
 1766              		.loc 1 286 5 is_stmt 1 view .LVU613
 1767              	.LVL166:
 1768              	.LBB270:
 1769              	.LBI270:
ARM GAS  /tmp/ccXWhpqg.s 			page 57


 505:Middlewares/lvgl/src/core/lv_obj_style_gen.h **** {
 1770              		.loc 2 505 26 view .LVU614
 1771              	.LBB271:
 507:Middlewares/lvgl/src/core/lv_obj_style_gen.h ****     return (lv_coord_t)v.num;
 1772              		.loc 2 507 5 view .LVU615
 507:Middlewares/lvgl/src/core/lv_obj_style_gen.h ****     return (lv_coord_t)v.num;
 1773              		.loc 2 507 26 is_stmt 0 view .LVU616
 1774 0064 5122     		movs	r2, #81
 1775 0066 3146     		mov	r1, r6
 1776 0068 2846     		mov	r0, r5
 1777 006a FFF7FEFF 		bl	lv_obj_get_style_prop
 1778              	.LVL167:
 508:Middlewares/lvgl/src/core/lv_obj_style_gen.h **** }
 1779              		.loc 2 508 5 is_stmt 1 view .LVU617
 508:Middlewares/lvgl/src/core/lv_obj_style_gen.h **** }
 1780              		.loc 2 508 5 is_stmt 0 view .LVU618
 1781              	.LBE271:
 1782              	.LBE270:
 286:Middlewares/lvgl/src/core/lv_obj_draw.c **** 
 1783              		.loc 1 286 23 view .LVU619
 1784 006e 637A     		ldrb	r3, [r4, #9]	@ zero_extendqisi2
 1785 0070 60F38203 		bfi	r3, r0, #2, #1
 1786 0074 6372     		strb	r3, [r4, #9]
 289:Middlewares/lvgl/src/core/lv_obj_draw.c **** #endif
 1787              		.loc 1 289 5 is_stmt 1 view .LVU620
 1788              	.LVL168:
 1789              	.LBB272:
 1790              	.LBI272:
 175:Middlewares/lvgl/src/core/lv_obj_style_gen.h **** {
 1791              		.loc 2 175 31 view .LVU621
 1792              	.LBB273:
 177:Middlewares/lvgl/src/core/lv_obj_style_gen.h ****     return (lv_blend_mode_t)v.num;
 1793              		.loc 2 177 5 view .LVU622
 177:Middlewares/lvgl/src/core/lv_obj_style_gen.h ****     return (lv_blend_mode_t)v.num;
 1794              		.loc 2 177 26 is_stmt 0 view .LVU623
 1795 0076 6822     		movs	r2, #104
 1796 0078 3146     		mov	r1, r6
 1797 007a 2846     		mov	r0, r5
 1798 007c FFF7FEFF 		bl	lv_obj_get_style_prop
 1799              	.LVL169:
 178:Middlewares/lvgl/src/core/lv_obj_style_gen.h **** }
 1800              		.loc 2 178 5 is_stmt 1 view .LVU624
 178:Middlewares/lvgl/src/core/lv_obj_style_gen.h **** }
 1801              		.loc 2 178 5 is_stmt 0 view .LVU625
 1802              	.LBE273:
 1803              	.LBE272:
 289:Middlewares/lvgl/src/core/lv_obj_draw.c **** #endif
 1804              		.loc 1 289 26 view .LVU626
 1805 0080 637A     		ldrb	r3, [r4, #9]	@ zero_extendqisi2
 1806 0082 60F30103 		bfi	r3, r0, #0, #2
 1807 0086 6372     		strb	r3, [r4, #9]
 1808 0088 C5E7     		b	.L46
 1809              		.cfi_endproc
 1810              	.LFE157:
 1812              		.section	.text.lv_obj_calculate_ext_draw_size,"ax",%progbits
 1813              		.align	1
 1814              		.global	lv_obj_calculate_ext_draw_size
ARM GAS  /tmp/ccXWhpqg.s 			page 58


 1815              		.syntax unified
 1816              		.thumb
 1817              		.thumb_func
 1818              		.fpu fpv5-d16
 1820              	lv_obj_calculate_ext_draw_size:
 1821              	.LVL170:
 1822              	.LFB158:
 292:Middlewares/lvgl/src/core/lv_obj_draw.c **** 
 293:Middlewares/lvgl/src/core/lv_obj_draw.c **** lv_coord_t lv_obj_calculate_ext_draw_size(lv_obj_t * obj, uint32_t part)
 294:Middlewares/lvgl/src/core/lv_obj_draw.c **** {
 1823              		.loc 1 294 1 is_stmt 1 view -0
 1824              		.cfi_startproc
 1825              		@ args = 0, pretend = 0, frame = 0
 1826              		@ frame_needed = 0, uses_anonymous_args = 0
 1827              		.loc 1 294 1 is_stmt 0 view .LVU628
 1828 0000 F8B5     		push	{r3, r4, r5, r6, r7, lr}
 1829              	.LCFI5:
 1830              		.cfi_def_cfa_offset 24
 1831              		.cfi_offset 3, -24
 1832              		.cfi_offset 4, -20
 1833              		.cfi_offset 5, -16
 1834              		.cfi_offset 6, -12
 1835              		.cfi_offset 7, -8
 1836              		.cfi_offset 14, -4
 1837 0002 0546     		mov	r5, r0
 1838 0004 0E46     		mov	r6, r1
 295:Middlewares/lvgl/src/core/lv_obj_draw.c ****     lv_coord_t s = 0;
 1839              		.loc 1 295 5 is_stmt 1 view .LVU629
 1840              	.LVL171:
 296:Middlewares/lvgl/src/core/lv_obj_draw.c **** 
 297:Middlewares/lvgl/src/core/lv_obj_draw.c ****     lv_coord_t sh_width = lv_obj_get_style_shadow_width(obj, part);
 1841              		.loc 1 297 5 view .LVU630
 1842              	.LBB274:
 1843              	.LBI274:
 415:Middlewares/lvgl/src/core/lv_obj_style_gen.h **** {
 1844              		.loc 2 415 26 view .LVU631
 1845              	.LBB275:
 417:Middlewares/lvgl/src/core/lv_obj_style_gen.h ****     return (lv_coord_t)v.num;
 1846              		.loc 2 417 5 view .LVU632
 417:Middlewares/lvgl/src/core/lv_obj_style_gen.h ****     return (lv_coord_t)v.num;
 1847              		.loc 2 417 26 is_stmt 0 view .LVU633
 1848 0006 4FF40462 		mov	r2, #2112
 1849 000a FFF7FEFF 		bl	lv_obj_get_style_prop
 1850              	.LVL172:
 418:Middlewares/lvgl/src/core/lv_obj_style_gen.h **** }
 1851              		.loc 2 418 5 is_stmt 1 view .LVU634
 418:Middlewares/lvgl/src/core/lv_obj_style_gen.h **** }
 1852              		.loc 2 418 12 is_stmt 0 view .LVU635
 1853 000e 04B2     		sxth	r4, r0
 1854              	.LVL173:
 418:Middlewares/lvgl/src/core/lv_obj_style_gen.h **** }
 1855              		.loc 2 418 12 view .LVU636
 1856              	.LBE275:
 1857              	.LBE274:
 298:Middlewares/lvgl/src/core/lv_obj_draw.c ****     if(sh_width) {
 1858              		.loc 1 298 5 is_stmt 1 view .LVU637
 1859              		.loc 1 298 7 is_stmt 0 view .LVU638
ARM GAS  /tmp/ccXWhpqg.s 			page 59


 1860 0010 FCB9     		cbnz	r4, .L58
 1861              	.LVL174:
 1862              	.L52:
 299:Middlewares/lvgl/src/core/lv_obj_draw.c ****         lv_opa_t sh_opa = lv_obj_get_style_shadow_opa(obj, part);
 300:Middlewares/lvgl/src/core/lv_obj_draw.c ****         if(sh_opa > LV_OPA_MIN) {
 301:Middlewares/lvgl/src/core/lv_obj_draw.c ****             sh_width = sh_width / 2 + 1;    /*The blur adds only half width*/
 302:Middlewares/lvgl/src/core/lv_obj_draw.c ****             sh_width += lv_obj_get_style_shadow_spread(obj, part);
 303:Middlewares/lvgl/src/core/lv_obj_draw.c ****             lv_coord_t sh_ofs_x = lv_obj_get_style_shadow_ofs_x(obj, part);
 304:Middlewares/lvgl/src/core/lv_obj_draw.c ****             lv_coord_t sh_ofs_y = lv_obj_get_style_shadow_ofs_y(obj, part);
 305:Middlewares/lvgl/src/core/lv_obj_draw.c ****             sh_width += LV_MAX(LV_ABS(sh_ofs_x), LV_ABS(sh_ofs_y));
 306:Middlewares/lvgl/src/core/lv_obj_draw.c ****             s = LV_MAX(s, sh_width);
 307:Middlewares/lvgl/src/core/lv_obj_draw.c ****         }
 308:Middlewares/lvgl/src/core/lv_obj_draw.c ****     }
 309:Middlewares/lvgl/src/core/lv_obj_draw.c **** 
 310:Middlewares/lvgl/src/core/lv_obj_draw.c ****     lv_coord_t outline_width = lv_obj_get_style_outline_width(obj, part);
 1863              		.loc 1 310 5 is_stmt 1 view .LVU639
 1864              	.LBB276:
 1865              	.LBI276:
 385:Middlewares/lvgl/src/core/lv_obj_style_gen.h **** {
 1866              		.loc 2 385 26 view .LVU640
 1867              	.LBB277:
 387:Middlewares/lvgl/src/core/lv_obj_style_gen.h ****     return (lv_coord_t)v.num;
 1868              		.loc 2 387 5 view .LVU641
 387:Middlewares/lvgl/src/core/lv_obj_style_gen.h ****     return (lv_coord_t)v.num;
 1869              		.loc 2 387 26 is_stmt 0 view .LVU642
 1870 0012 40F63A02 		movw	r2, #2106
 1871 0016 3146     		mov	r1, r6
 1872 0018 2846     		mov	r0, r5
 1873 001a FFF7FEFF 		bl	lv_obj_get_style_prop
 1874              	.LVL175:
 388:Middlewares/lvgl/src/core/lv_obj_style_gen.h **** }
 1875              		.loc 2 388 5 is_stmt 1 view .LVU643
 388:Middlewares/lvgl/src/core/lv_obj_style_gen.h **** }
 1876              		.loc 2 388 12 is_stmt 0 view .LVU644
 1877 001e 07B2     		sxth	r7, r0
 1878              	.LVL176:
 388:Middlewares/lvgl/src/core/lv_obj_style_gen.h **** }
 1879              		.loc 2 388 12 view .LVU645
 1880              	.LBE277:
 1881              	.LBE276:
 311:Middlewares/lvgl/src/core/lv_obj_draw.c ****     if(outline_width) {
 1882              		.loc 1 311 5 is_stmt 1 view .LVU646
 1883              		.loc 1 311 7 is_stmt 0 view .LVU647
 1884 0020 002F     		cmp	r7, #0
 1885 0022 50D1     		bne	.L59
 1886              	.LVL177:
 1887              	.L54:
 312:Middlewares/lvgl/src/core/lv_obj_draw.c ****         lv_opa_t outline_opa = lv_obj_get_style_outline_opa(obj, part);
 313:Middlewares/lvgl/src/core/lv_obj_draw.c ****         if(outline_opa > LV_OPA_MIN) {
 314:Middlewares/lvgl/src/core/lv_obj_draw.c ****             lv_coord_t outline_pad = lv_obj_get_style_outline_pad(obj, part);
 315:Middlewares/lvgl/src/core/lv_obj_draw.c ****             s = LV_MAX(s, outline_pad + outline_width);
 316:Middlewares/lvgl/src/core/lv_obj_draw.c ****         }
 317:Middlewares/lvgl/src/core/lv_obj_draw.c ****     }
 318:Middlewares/lvgl/src/core/lv_obj_draw.c **** 
 319:Middlewares/lvgl/src/core/lv_obj_draw.c ****     lv_coord_t w = lv_obj_get_style_transform_width(obj, part);
 1888              		.loc 1 319 5 is_stmt 1 view .LVU648
 1889              	.LBB278:
ARM GAS  /tmp/ccXWhpqg.s 			page 60


 1890              	.LBI278:
  55:Middlewares/lvgl/src/core/lv_obj_style_gen.h **** {
 1891              		.loc 2 55 26 view .LVU649
 1892              	.LBB279:
  57:Middlewares/lvgl/src/core/lv_obj_style_gen.h ****     return (lv_coord_t)v.num;
 1893              		.loc 2 57 5 view .LVU650
  57:Middlewares/lvgl/src/core/lv_obj_style_gen.h ****     return (lv_coord_t)v.num;
 1894              		.loc 2 57 26 is_stmt 0 view .LVU651
 1895 0024 40F60A02 		movw	r2, #2058
 1896 0028 3146     		mov	r1, r6
 1897 002a 2846     		mov	r0, r5
 1898 002c FFF7FEFF 		bl	lv_obj_get_style_prop
 1899              	.LVL178:
  58:Middlewares/lvgl/src/core/lv_obj_style_gen.h **** }
 1900              		.loc 2 58 5 is_stmt 1 view .LVU652
  58:Middlewares/lvgl/src/core/lv_obj_style_gen.h **** }
 1901              		.loc 2 58 12 is_stmt 0 view .LVU653
 1902 0030 07B2     		sxth	r7, r0
 1903              	.LVL179:
  58:Middlewares/lvgl/src/core/lv_obj_style_gen.h **** }
 1904              		.loc 2 58 12 view .LVU654
 1905              	.LBE279:
 1906              	.LBE278:
 320:Middlewares/lvgl/src/core/lv_obj_draw.c ****     lv_coord_t h = lv_obj_get_style_transform_height(obj, part);
 1907              		.loc 1 320 5 is_stmt 1 view .LVU655
 1908              	.LBB280:
 1909              	.LBI280:
  61:Middlewares/lvgl/src/core/lv_obj_style_gen.h **** {
 1910              		.loc 2 61 26 view .LVU656
 1911              	.LBB281:
  63:Middlewares/lvgl/src/core/lv_obj_style_gen.h ****     return (lv_coord_t)v.num;
 1912              		.loc 2 63 5 view .LVU657
  63:Middlewares/lvgl/src/core/lv_obj_style_gen.h ****     return (lv_coord_t)v.num;
 1913              		.loc 2 63 26 is_stmt 0 view .LVU658
 1914 0032 40F60B02 		movw	r2, #2059
 1915 0036 3146     		mov	r1, r6
 1916 0038 2846     		mov	r0, r5
 1917 003a FFF7FEFF 		bl	lv_obj_get_style_prop
 1918              	.LVL180:
  64:Middlewares/lvgl/src/core/lv_obj_style_gen.h **** }
 1919              		.loc 2 64 5 is_stmt 1 view .LVU659
  64:Middlewares/lvgl/src/core/lv_obj_style_gen.h **** }
 1920              		.loc 2 64 12 is_stmt 0 view .LVU660
 1921 003e 00B2     		sxth	r0, r0
 1922              	.LVL181:
  64:Middlewares/lvgl/src/core/lv_obj_style_gen.h **** }
 1923              		.loc 2 64 12 view .LVU661
 1924              	.LBE281:
 1925              	.LBE280:
 321:Middlewares/lvgl/src/core/lv_obj_draw.c ****     lv_coord_t wh = LV_MAX(w, h);
 1926              		.loc 1 321 5 is_stmt 1 view .LVU662
 1927              		.loc 1 321 16 is_stmt 0 view .LVU663
 1928 0040 B842     		cmp	r0, r7
 1929 0042 B8BF     		it	lt
 1930 0044 3846     		movlt	r0, r7
 1931              	.LVL182:
 322:Middlewares/lvgl/src/core/lv_obj_draw.c ****     if(wh > 0) s += wh;
ARM GAS  /tmp/ccXWhpqg.s 			page 61


 1932              		.loc 1 322 5 is_stmt 1 view .LVU664
 1933              		.loc 1 322 7 is_stmt 0 view .LVU665
 1934 0046 0028     		cmp	r0, #0
 1935 0048 01DD     		ble	.L55
 1936              		.loc 1 322 16 is_stmt 1 discriminator 1 view .LVU666
 1937              		.loc 1 322 18 is_stmt 0 discriminator 1 view .LVU667
 1938 004a 0444     		add	r4, r4, r0
 1939              	.LVL183:
 1940              		.loc 1 322 18 discriminator 1 view .LVU668
 1941 004c 24B2     		sxth	r4, r4
 1942              	.LVL184:
 1943              	.L55:
 323:Middlewares/lvgl/src/core/lv_obj_draw.c **** 
 324:Middlewares/lvgl/src/core/lv_obj_draw.c ****     return s;
 1944              		.loc 1 324 5 is_stmt 1 view .LVU669
 325:Middlewares/lvgl/src/core/lv_obj_draw.c **** }
 1945              		.loc 1 325 1 is_stmt 0 view .LVU670
 1946 004e 2046     		mov	r0, r4
 1947              	.LVL185:
 1948              		.loc 1 325 1 view .LVU671
 1949 0050 F8BD     		pop	{r3, r4, r5, r6, r7, pc}
 1950              	.LVL186:
 1951              	.L58:
 1952              	.LBB282:
 299:Middlewares/lvgl/src/core/lv_obj_draw.c ****         if(sh_opa > LV_OPA_MIN) {
 1953              		.loc 1 299 9 is_stmt 1 view .LVU672
 1954              	.LBB283:
 1955              	.LBI283:
 451:Middlewares/lvgl/src/core/lv_obj_style_gen.h **** {
 1956              		.loc 2 451 24 view .LVU673
 1957              	.LBB284:
 453:Middlewares/lvgl/src/core/lv_obj_style_gen.h ****     return (lv_opa_t)v.num;
 1958              		.loc 2 453 5 view .LVU674
 453:Middlewares/lvgl/src/core/lv_obj_style_gen.h ****     return (lv_opa_t)v.num;
 1959              		.loc 2 453 26 is_stmt 0 view .LVU675
 1960 0052 40F64502 		movw	r2, #2117
 1961 0056 3146     		mov	r1, r6
 1962 0058 2846     		mov	r0, r5
 1963 005a FFF7FEFF 		bl	lv_obj_get_style_prop
 1964              	.LVL187:
 454:Middlewares/lvgl/src/core/lv_obj_style_gen.h **** }
 1965              		.loc 2 454 5 is_stmt 1 view .LVU676
 454:Middlewares/lvgl/src/core/lv_obj_style_gen.h **** }
 1966              		.loc 2 454 12 is_stmt 0 view .LVU677
 1967 005e C0B2     		uxtb	r0, r0
 1968              	.LVL188:
 454:Middlewares/lvgl/src/core/lv_obj_style_gen.h **** }
 1969              		.loc 2 454 12 view .LVU678
 1970              	.LBE284:
 1971              	.LBE283:
 300:Middlewares/lvgl/src/core/lv_obj_draw.c ****             sh_width = sh_width / 2 + 1;    /*The blur adds only half width*/
 1972              		.loc 1 300 9 is_stmt 1 view .LVU679
 300:Middlewares/lvgl/src/core/lv_obj_draw.c ****             sh_width = sh_width / 2 + 1;    /*The blur adds only half width*/
 1973              		.loc 1 300 11 is_stmt 0 view .LVU680
 1974 0060 0228     		cmp	r0, #2
 1975 0062 01D8     		bhi	.L60
 1976              	.LBE282:
ARM GAS  /tmp/ccXWhpqg.s 			page 62


 295:Middlewares/lvgl/src/core/lv_obj_draw.c **** 
 1977              		.loc 1 295 16 view .LVU681
 1978 0064 0024     		movs	r4, #0
 1979              	.LVL189:
 295:Middlewares/lvgl/src/core/lv_obj_draw.c **** 
 1980              		.loc 1 295 16 view .LVU682
 1981 0066 D4E7     		b	.L52
 1982              	.LVL190:
 1983              	.L60:
 1984              	.LBB292:
 1985              	.LBB285:
 301:Middlewares/lvgl/src/core/lv_obj_draw.c ****             sh_width += lv_obj_get_style_shadow_spread(obj, part);
 1986              		.loc 1 301 13 is_stmt 1 view .LVU683
 301:Middlewares/lvgl/src/core/lv_obj_draw.c ****             sh_width += lv_obj_get_style_shadow_spread(obj, part);
 1987              		.loc 1 301 37 is_stmt 0 view .LVU684
 1988 0068 2346     		mov	r3, r4
 1989 006a 002C     		cmp	r4, #0
 1990 006c 29DB     		blt	.L61
 1991              	.L53:
 1992 006e 5C10     		asrs	r4, r3, #1
 1993              	.LVL191:
 301:Middlewares/lvgl/src/core/lv_obj_draw.c ****             sh_width += lv_obj_get_style_shadow_spread(obj, part);
 1994              		.loc 1 301 37 view .LVU685
 1995 0070 0134     		adds	r4, r4, #1
 1996 0072 A4B2     		uxth	r4, r4
 1997              	.LVL192:
 302:Middlewares/lvgl/src/core/lv_obj_draw.c ****             lv_coord_t sh_ofs_x = lv_obj_get_style_shadow_ofs_x(obj, part);
 1998              		.loc 1 302 13 is_stmt 1 view .LVU686
 1999              	.LBB286:
 2000              	.LBI286:
 433:Middlewares/lvgl/src/core/lv_obj_style_gen.h **** {
 2001              		.loc 2 433 26 view .LVU687
 2002              	.LBB287:
 435:Middlewares/lvgl/src/core/lv_obj_style_gen.h ****     return (lv_coord_t)v.num;
 2003              		.loc 2 435 5 view .LVU688
 435:Middlewares/lvgl/src/core/lv_obj_style_gen.h ****     return (lv_coord_t)v.num;
 2004              		.loc 2 435 26 is_stmt 0 view .LVU689
 2005 0074 40F64302 		movw	r2, #2115
 2006 0078 3146     		mov	r1, r6
 2007 007a 2846     		mov	r0, r5
 2008              	.LVL193:
 435:Middlewares/lvgl/src/core/lv_obj_style_gen.h ****     return (lv_coord_t)v.num;
 2009              		.loc 2 435 26 view .LVU690
 2010 007c FFF7FEFF 		bl	lv_obj_get_style_prop
 2011              	.LVL194:
 436:Middlewares/lvgl/src/core/lv_obj_style_gen.h **** }
 2012              		.loc 2 436 5 is_stmt 1 view .LVU691
 436:Middlewares/lvgl/src/core/lv_obj_style_gen.h **** }
 2013              		.loc 2 436 5 is_stmt 0 view .LVU692
 2014              	.LBE287:
 2015              	.LBE286:
 302:Middlewares/lvgl/src/core/lv_obj_draw.c ****             lv_coord_t sh_ofs_x = lv_obj_get_style_shadow_ofs_x(obj, part);
 2016              		.loc 1 302 22 view .LVU693
 2017 0080 14FA80F4 		uxtah	r4, r4, r0
 2018              	.LVL195:
 302:Middlewares/lvgl/src/core/lv_obj_draw.c ****             lv_coord_t sh_ofs_x = lv_obj_get_style_shadow_ofs_x(obj, part);
 2019              		.loc 1 302 22 view .LVU694
ARM GAS  /tmp/ccXWhpqg.s 			page 63


 2020 0084 A4B2     		uxth	r4, r4
 2021              	.LVL196:
 303:Middlewares/lvgl/src/core/lv_obj_draw.c ****             lv_coord_t sh_ofs_y = lv_obj_get_style_shadow_ofs_y(obj, part);
 2022              		.loc 1 303 13 is_stmt 1 view .LVU695
 2023              	.LBB288:
 2024              	.LBI288:
 421:Middlewares/lvgl/src/core/lv_obj_style_gen.h **** {
 2025              		.loc 2 421 26 view .LVU696
 2026              	.LBB289:
 423:Middlewares/lvgl/src/core/lv_obj_style_gen.h ****     return (lv_coord_t)v.num;
 2027              		.loc 2 423 5 view .LVU697
 423:Middlewares/lvgl/src/core/lv_obj_style_gen.h ****     return (lv_coord_t)v.num;
 2028              		.loc 2 423 26 is_stmt 0 view .LVU698
 2029 0086 40F64102 		movw	r2, #2113
 2030 008a 3146     		mov	r1, r6
 2031 008c 2846     		mov	r0, r5
 2032 008e FFF7FEFF 		bl	lv_obj_get_style_prop
 2033              	.LVL197:
 424:Middlewares/lvgl/src/core/lv_obj_style_gen.h **** }
 2034              		.loc 2 424 5 is_stmt 1 view .LVU699
 424:Middlewares/lvgl/src/core/lv_obj_style_gen.h **** }
 2035              		.loc 2 424 12 is_stmt 0 view .LVU700
 2036 0092 07B2     		sxth	r7, r0
 2037              	.LVL198:
 424:Middlewares/lvgl/src/core/lv_obj_style_gen.h **** }
 2038              		.loc 2 424 12 view .LVU701
 2039              	.LBE289:
 2040              	.LBE288:
 304:Middlewares/lvgl/src/core/lv_obj_draw.c ****             sh_width += LV_MAX(LV_ABS(sh_ofs_x), LV_ABS(sh_ofs_y));
 2041              		.loc 1 304 13 is_stmt 1 view .LVU702
 2042              	.LBB290:
 2043              	.LBI290:
 427:Middlewares/lvgl/src/core/lv_obj_style_gen.h **** {
 2044              		.loc 2 427 26 view .LVU703
 2045              	.LBB291:
 429:Middlewares/lvgl/src/core/lv_obj_style_gen.h ****     return (lv_coord_t)v.num;
 2046              		.loc 2 429 5 view .LVU704
 429:Middlewares/lvgl/src/core/lv_obj_style_gen.h ****     return (lv_coord_t)v.num;
 2047              		.loc 2 429 26 is_stmt 0 view .LVU705
 2048 0094 40F64202 		movw	r2, #2114
 2049 0098 3146     		mov	r1, r6
 2050 009a 2846     		mov	r0, r5
 2051 009c FFF7FEFF 		bl	lv_obj_get_style_prop
 2052              	.LVL199:
 430:Middlewares/lvgl/src/core/lv_obj_style_gen.h **** }
 2053              		.loc 2 430 5 is_stmt 1 view .LVU706
 430:Middlewares/lvgl/src/core/lv_obj_style_gen.h **** }
 2054              		.loc 2 430 12 is_stmt 0 view .LVU707
 2055 00a0 03B2     		sxth	r3, r0
 2056              	.LVL200:
 430:Middlewares/lvgl/src/core/lv_obj_style_gen.h **** }
 2057              		.loc 2 430 12 view .LVU708
 2058              	.LBE291:
 2059              	.LBE290:
 305:Middlewares/lvgl/src/core/lv_obj_draw.c ****             s = LV_MAX(s, sh_width);
 2060              		.loc 1 305 13 is_stmt 1 view .LVU709
 305:Middlewares/lvgl/src/core/lv_obj_draw.c ****             s = LV_MAX(s, sh_width);
ARM GAS  /tmp/ccXWhpqg.s 			page 64


 2061              		.loc 1 305 25 is_stmt 0 view .LVU710
 2062 00a2 002B     		cmp	r3, #0
 2063 00a4 B8BF     		it	lt
 2064 00a6 5B42     		rsblt	r3, r3, #0
 2065              	.LVL201:
 305:Middlewares/lvgl/src/core/lv_obj_draw.c ****             s = LV_MAX(s, sh_width);
 2066              		.loc 1 305 25 view .LVU711
 2067 00a8 9BB2     		uxth	r3, r3
 2068 00aa 002F     		cmp	r7, #0
 2069 00ac B8BF     		it	lt
 2070 00ae 7F42     		rsblt	r7, r7, #0
 2071              	.LVL202:
 305:Middlewares/lvgl/src/core/lv_obj_draw.c ****             s = LV_MAX(s, sh_width);
 2072              		.loc 1 305 25 view .LVU712
 2073 00b0 BFB2     		uxth	r7, r7
 305:Middlewares/lvgl/src/core/lv_obj_draw.c ****             s = LV_MAX(s, sh_width);
 2074              		.loc 1 305 22 view .LVU713
 2075 00b2 BB42     		cmp	r3, r7
 2076 00b4 2CBF     		ite	cs
 2077 00b6 E418     		addcs	r4, r4, r3
 2078 00b8 E419     		addcc	r4, r4, r7
 2079              	.LVL203:
 305:Middlewares/lvgl/src/core/lv_obj_draw.c ****             s = LV_MAX(s, sh_width);
 2080              		.loc 1 305 22 view .LVU714
 2081 00ba 24B2     		sxth	r4, r4
 2082              	.LVL204:
 306:Middlewares/lvgl/src/core/lv_obj_draw.c ****         }
 2083              		.loc 1 306 13 is_stmt 1 view .LVU715
 306:Middlewares/lvgl/src/core/lv_obj_draw.c ****         }
 2084              		.loc 1 306 15 is_stmt 0 view .LVU716
 2085 00bc 24EAE474 		bic	r4, r4, r4, asr #31
 2086              	.LVL205:
 306:Middlewares/lvgl/src/core/lv_obj_draw.c ****         }
 2087              		.loc 1 306 15 view .LVU717
 2088 00c0 A7E7     		b	.L52
 2089              	.LVL206:
 2090              	.L61:
 301:Middlewares/lvgl/src/core/lv_obj_draw.c ****             sh_width += lv_obj_get_style_shadow_spread(obj, part);
 2091              		.loc 1 301 37 view .LVU718
 2092 00c2 631C     		adds	r3, r4, #1
 2093 00c4 D3E7     		b	.L53
 2094              	.LVL207:
 2095              	.L59:
 301:Middlewares/lvgl/src/core/lv_obj_draw.c ****             sh_width += lv_obj_get_style_shadow_spread(obj, part);
 2096              		.loc 1 301 37 view .LVU719
 2097              	.LBE285:
 2098              	.LBE292:
 2099              	.LBB293:
 312:Middlewares/lvgl/src/core/lv_obj_draw.c ****         if(outline_opa > LV_OPA_MIN) {
 2100              		.loc 1 312 9 is_stmt 1 view .LVU720
 2101              	.LBB294:
 2102              	.LBI294:
 403:Middlewares/lvgl/src/core/lv_obj_style_gen.h **** {
 2103              		.loc 2 403 24 view .LVU721
 2104              	.LBB295:
 405:Middlewares/lvgl/src/core/lv_obj_style_gen.h ****     return (lv_opa_t)v.num;
 2105              		.loc 2 405 5 view .LVU722
ARM GAS  /tmp/ccXWhpqg.s 			page 65


 405:Middlewares/lvgl/src/core/lv_obj_style_gen.h ****     return (lv_opa_t)v.num;
 2106              		.loc 2 405 26 is_stmt 0 view .LVU723
 2107 00c6 40F63C02 		movw	r2, #2108
 2108 00ca 3146     		mov	r1, r6
 2109 00cc 2846     		mov	r0, r5
 2110 00ce FFF7FEFF 		bl	lv_obj_get_style_prop
 2111              	.LVL208:
 406:Middlewares/lvgl/src/core/lv_obj_style_gen.h **** }
 2112              		.loc 2 406 5 is_stmt 1 view .LVU724
 406:Middlewares/lvgl/src/core/lv_obj_style_gen.h **** }
 2113              		.loc 2 406 12 is_stmt 0 view .LVU725
 2114 00d2 C0B2     		uxtb	r0, r0
 2115              	.LVL209:
 406:Middlewares/lvgl/src/core/lv_obj_style_gen.h **** }
 2116              		.loc 2 406 12 view .LVU726
 2117              	.LBE295:
 2118              	.LBE294:
 313:Middlewares/lvgl/src/core/lv_obj_draw.c ****             lv_coord_t outline_pad = lv_obj_get_style_outline_pad(obj, part);
 2119              		.loc 1 313 9 is_stmt 1 view .LVU727
 313:Middlewares/lvgl/src/core/lv_obj_draw.c ****             lv_coord_t outline_pad = lv_obj_get_style_outline_pad(obj, part);
 2120              		.loc 1 313 11 is_stmt 0 view .LVU728
 2121 00d4 0228     		cmp	r0, #2
 2122 00d6 A5D9     		bls	.L54
 2123              	.LBB296:
 314:Middlewares/lvgl/src/core/lv_obj_draw.c ****             s = LV_MAX(s, outline_pad + outline_width);
 2124              		.loc 1 314 13 is_stmt 1 view .LVU729
 2125              	.LVL210:
 2126              	.LBB297:
 2127              	.LBI297:
 409:Middlewares/lvgl/src/core/lv_obj_style_gen.h **** {
 2128              		.loc 2 409 26 view .LVU730
 2129              	.LBB298:
 411:Middlewares/lvgl/src/core/lv_obj_style_gen.h ****     return (lv_coord_t)v.num;
 2130              		.loc 2 411 5 view .LVU731
 411:Middlewares/lvgl/src/core/lv_obj_style_gen.h ****     return (lv_coord_t)v.num;
 2131              		.loc 2 411 26 is_stmt 0 view .LVU732
 2132 00d8 40F63D02 		movw	r2, #2109
 2133 00dc 3146     		mov	r1, r6
 2134 00de 2846     		mov	r0, r5
 2135              	.LVL211:
 411:Middlewares/lvgl/src/core/lv_obj_style_gen.h ****     return (lv_coord_t)v.num;
 2136              		.loc 2 411 26 view .LVU733
 2137 00e0 FFF7FEFF 		bl	lv_obj_get_style_prop
 2138              	.LVL212:
 412:Middlewares/lvgl/src/core/lv_obj_style_gen.h **** }
 2139              		.loc 2 412 5 is_stmt 1 view .LVU734
 412:Middlewares/lvgl/src/core/lv_obj_style_gen.h **** }
 2140              		.loc 2 412 5 is_stmt 0 view .LVU735
 2141              	.LBE298:
 2142              	.LBE297:
 315:Middlewares/lvgl/src/core/lv_obj_draw.c ****         }
 2143              		.loc 1 315 13 is_stmt 1 view .LVU736
 315:Middlewares/lvgl/src/core/lv_obj_draw.c ****         }
 2144              		.loc 1 315 17 is_stmt 0 view .LVU737
 2145 00e4 07FA80F7 		sxtah	r7, r7, r0
 2146              	.LVL213:
 315:Middlewares/lvgl/src/core/lv_obj_draw.c ****         }
ARM GAS  /tmp/ccXWhpqg.s 			page 66


 2147              		.loc 1 315 17 view .LVU738
 2148 00e8 BC42     		cmp	r4, r7
 2149 00ea B8BF     		it	lt
 2150 00ec 3C46     		movlt	r4, r7
 2151              	.LVL214:
 315:Middlewares/lvgl/src/core/lv_obj_draw.c ****         }
 2152              		.loc 1 315 15 view .LVU739
 2153 00ee 24B2     		sxth	r4, r4
 2154              	.LVL215:
 315:Middlewares/lvgl/src/core/lv_obj_draw.c ****         }
 2155              		.loc 1 315 15 view .LVU740
 2156 00f0 98E7     		b	.L54
 2157              	.LBE296:
 2158              	.LBE293:
 2159              		.cfi_endproc
 2160              	.LFE158:
 2162              		.section	.text.lv_obj_draw_dsc_init,"ax",%progbits
 2163              		.align	1
 2164              		.global	lv_obj_draw_dsc_init
 2165              		.syntax unified
 2166              		.thumb
 2167              		.thumb_func
 2168              		.fpu fpv5-d16
 2170              	lv_obj_draw_dsc_init:
 2171              	.LVL216:
 2172              	.LFB159:
 326:Middlewares/lvgl/src/core/lv_obj_draw.c **** 
 327:Middlewares/lvgl/src/core/lv_obj_draw.c **** void lv_obj_draw_dsc_init(lv_obj_draw_part_dsc_t * dsc, const lv_area_t * clip_area)
 328:Middlewares/lvgl/src/core/lv_obj_draw.c **** {
 2173              		.loc 1 328 1 is_stmt 1 view -0
 2174              		.cfi_startproc
 2175              		@ args = 0, pretend = 0, frame = 0
 2176              		@ frame_needed = 0, uses_anonymous_args = 0
 2177              		.loc 1 328 1 is_stmt 0 view .LVU742
 2178 0000 38B5     		push	{r3, r4, r5, lr}
 2179              	.LCFI6:
 2180              		.cfi_def_cfa_offset 16
 2181              		.cfi_offset 3, -16
 2182              		.cfi_offset 4, -12
 2183              		.cfi_offset 5, -8
 2184              		.cfi_offset 14, -4
 2185 0002 0446     		mov	r4, r0
 2186 0004 0D46     		mov	r5, r1
 329:Middlewares/lvgl/src/core/lv_obj_draw.c ****     lv_memset_00(dsc, sizeof(lv_obj_draw_part_dsc_t));
 2187              		.loc 1 329 5 is_stmt 1 view .LVU743
 2188 0006 4821     		movs	r1, #72
 2189              	.LVL217:
 2190              		.loc 1 329 5 is_stmt 0 view .LVU744
 2191 0008 FFF7FEFF 		bl	lv_memset_00
 2192              	.LVL218:
 330:Middlewares/lvgl/src/core/lv_obj_draw.c ****     dsc->clip_area = clip_area;
 2193              		.loc 1 330 5 is_stmt 1 view .LVU745
 2194              		.loc 1 330 20 is_stmt 0 view .LVU746
 2195 000c 2560     		str	r5, [r4]
 331:Middlewares/lvgl/src/core/lv_obj_draw.c **** }
 2196              		.loc 1 331 1 view .LVU747
 2197 000e 38BD     		pop	{r3, r4, r5, pc}
ARM GAS  /tmp/ccXWhpqg.s 			page 67


 2198              		.loc 1 331 1 view .LVU748
 2199              		.cfi_endproc
 2200              	.LFE159:
 2202              		.section	.text._lv_obj_get_ext_draw_size,"ax",%progbits
 2203              		.align	1
 2204              		.global	_lv_obj_get_ext_draw_size
 2205              		.syntax unified
 2206              		.thumb
 2207              		.thumb_func
 2208              		.fpu fpv5-d16
 2210              	_lv_obj_get_ext_draw_size:
 2211              	.LVL219:
 2212              	.LFB161:
 332:Middlewares/lvgl/src/core/lv_obj_draw.c **** 
 333:Middlewares/lvgl/src/core/lv_obj_draw.c **** void lv_obj_refresh_ext_draw_size(lv_obj_t * obj)
 334:Middlewares/lvgl/src/core/lv_obj_draw.c **** {
 335:Middlewares/lvgl/src/core/lv_obj_draw.c ****     LV_ASSERT_OBJ(obj, MY_CLASS);
 336:Middlewares/lvgl/src/core/lv_obj_draw.c **** 
 337:Middlewares/lvgl/src/core/lv_obj_draw.c ****     lv_coord_t s_old = _lv_obj_get_ext_draw_size(obj);
 338:Middlewares/lvgl/src/core/lv_obj_draw.c ****     lv_coord_t s_new = 0;
 339:Middlewares/lvgl/src/core/lv_obj_draw.c ****     lv_event_send(obj, LV_EVENT_REFR_EXT_DRAW_SIZE, &s_new);
 340:Middlewares/lvgl/src/core/lv_obj_draw.c **** 
 341:Middlewares/lvgl/src/core/lv_obj_draw.c ****     if(s_new != s_old) lv_obj_invalidate(obj);
 342:Middlewares/lvgl/src/core/lv_obj_draw.c **** 
 343:Middlewares/lvgl/src/core/lv_obj_draw.c ****     /*Store the result if the special attrs already allocated*/
 344:Middlewares/lvgl/src/core/lv_obj_draw.c ****     if(obj->spec_attr) {
 345:Middlewares/lvgl/src/core/lv_obj_draw.c ****         obj->spec_attr->ext_draw_size = s_new;
 346:Middlewares/lvgl/src/core/lv_obj_draw.c ****     }
 347:Middlewares/lvgl/src/core/lv_obj_draw.c ****     /*Allocate spec. attrs. only if the result is not zero.
 348:Middlewares/lvgl/src/core/lv_obj_draw.c ****      *Zero is the default value if the spec. attr. are not defined.*/
 349:Middlewares/lvgl/src/core/lv_obj_draw.c ****     else if(s_new != 0) {
 350:Middlewares/lvgl/src/core/lv_obj_draw.c ****         lv_obj_allocate_spec_attr(obj);
 351:Middlewares/lvgl/src/core/lv_obj_draw.c ****         obj->spec_attr->ext_draw_size = s_new;
 352:Middlewares/lvgl/src/core/lv_obj_draw.c ****     }
 353:Middlewares/lvgl/src/core/lv_obj_draw.c **** 
 354:Middlewares/lvgl/src/core/lv_obj_draw.c ****     if(s_new != s_old) lv_obj_invalidate(obj);
 355:Middlewares/lvgl/src/core/lv_obj_draw.c **** }
 356:Middlewares/lvgl/src/core/lv_obj_draw.c **** 
 357:Middlewares/lvgl/src/core/lv_obj_draw.c **** lv_coord_t _lv_obj_get_ext_draw_size(const lv_obj_t * obj)
 358:Middlewares/lvgl/src/core/lv_obj_draw.c **** {
 2213              		.loc 1 358 1 is_stmt 1 view -0
 2214              		.cfi_startproc
 2215              		@ args = 0, pretend = 0, frame = 0
 2216              		@ frame_needed = 0, uses_anonymous_args = 0
 2217              		@ link register save eliminated.
 359:Middlewares/lvgl/src/core/lv_obj_draw.c ****     if(obj->spec_attr) return obj->spec_attr->ext_draw_size;
 2218              		.loc 1 359 5 view .LVU750
 2219              		.loc 1 359 11 is_stmt 0 view .LVU751
 2220 0000 8368     		ldr	r3, [r0, #8]
 2221              		.loc 1 359 7 view .LVU752
 2222 0002 13B1     		cbz	r3, .L66
 2223              		.loc 1 359 24 is_stmt 1 discriminator 1 view .LVU753
 2224              		.loc 1 359 45 is_stmt 0 discriminator 1 view .LVU754
 2225 0004 B3F91600 		ldrsh	r0, [r3, #22]
 2226              	.LVL220:
 2227              		.loc 1 359 45 discriminator 1 view .LVU755
 2228 0008 7047     		bx	lr
ARM GAS  /tmp/ccXWhpqg.s 			page 68


 2229              	.LVL221:
 2230              	.L66:
 360:Middlewares/lvgl/src/core/lv_obj_draw.c ****     else return 0;
 2231              		.loc 1 360 17 view .LVU756
 2232 000a 0020     		movs	r0, #0
 2233              	.LVL222:
 361:Middlewares/lvgl/src/core/lv_obj_draw.c **** }
 2234              		.loc 1 361 1 view .LVU757
 2235 000c 7047     		bx	lr
 2236              		.cfi_endproc
 2237              	.LFE161:
 2239              		.section	.text.lv_obj_refresh_ext_draw_size,"ax",%progbits
 2240              		.align	1
 2241              		.global	lv_obj_refresh_ext_draw_size
 2242              		.syntax unified
 2243              		.thumb
 2244              		.thumb_func
 2245              		.fpu fpv5-d16
 2247              	lv_obj_refresh_ext_draw_size:
 2248              	.LVL223:
 2249              	.LFB160:
 334:Middlewares/lvgl/src/core/lv_obj_draw.c ****     LV_ASSERT_OBJ(obj, MY_CLASS);
 2250              		.loc 1 334 1 is_stmt 1 view -0
 2251              		.cfi_startproc
 2252              		@ args = 0, pretend = 0, frame = 8
 2253              		@ frame_needed = 0, uses_anonymous_args = 0
 334:Middlewares/lvgl/src/core/lv_obj_draw.c ****     LV_ASSERT_OBJ(obj, MY_CLASS);
 2254              		.loc 1 334 1 is_stmt 0 view .LVU759
 2255 0000 30B5     		push	{r4, r5, lr}
 2256              	.LCFI7:
 2257              		.cfi_def_cfa_offset 12
 2258              		.cfi_offset 4, -12
 2259              		.cfi_offset 5, -8
 2260              		.cfi_offset 14, -4
 2261 0002 83B0     		sub	sp, sp, #12
 2262              	.LCFI8:
 2263              		.cfi_def_cfa_offset 24
 2264 0004 0446     		mov	r4, r0
 335:Middlewares/lvgl/src/core/lv_obj_draw.c **** 
 2265              		.loc 1 335 5 is_stmt 1 view .LVU760
 335:Middlewares/lvgl/src/core/lv_obj_draw.c **** 
 2266              		.loc 1 335 5 view .LVU761
 335:Middlewares/lvgl/src/core/lv_obj_draw.c **** 
 2267              		.loc 1 335 5 view .LVU762
 337:Middlewares/lvgl/src/core/lv_obj_draw.c ****     lv_coord_t s_new = 0;
 2268              		.loc 1 337 5 view .LVU763
 337:Middlewares/lvgl/src/core/lv_obj_draw.c ****     lv_coord_t s_new = 0;
 2269              		.loc 1 337 24 is_stmt 0 view .LVU764
 2270 0006 FFF7FEFF 		bl	_lv_obj_get_ext_draw_size
 2271              	.LVL224:
 337:Middlewares/lvgl/src/core/lv_obj_draw.c ****     lv_coord_t s_new = 0;
 2272              		.loc 1 337 24 view .LVU765
 2273 000a 0546     		mov	r5, r0
 2274              	.LVL225:
 338:Middlewares/lvgl/src/core/lv_obj_draw.c ****     lv_event_send(obj, LV_EVENT_REFR_EXT_DRAW_SIZE, &s_new);
 2275              		.loc 1 338 5 is_stmt 1 view .LVU766
 338:Middlewares/lvgl/src/core/lv_obj_draw.c ****     lv_event_send(obj, LV_EVENT_REFR_EXT_DRAW_SIZE, &s_new);
ARM GAS  /tmp/ccXWhpqg.s 			page 69


 2276              		.loc 1 338 16 is_stmt 0 view .LVU767
 2277 000c 0023     		movs	r3, #0
 2278 000e ADF80630 		strh	r3, [sp, #6]	@ movhi
 339:Middlewares/lvgl/src/core/lv_obj_draw.c **** 
 2279              		.loc 1 339 5 is_stmt 1 view .LVU768
 2280 0012 0DF10602 		add	r2, sp, #6
 2281 0016 1321     		movs	r1, #19
 2282 0018 2046     		mov	r0, r4
 2283 001a FFF7FEFF 		bl	lv_event_send
 2284              	.LVL226:
 341:Middlewares/lvgl/src/core/lv_obj_draw.c **** 
 2285              		.loc 1 341 5 view .LVU769
 341:Middlewares/lvgl/src/core/lv_obj_draw.c **** 
 2286              		.loc 1 341 14 is_stmt 0 view .LVU770
 2287 001e BDF90630 		ldrsh	r3, [sp, #6]
 341:Middlewares/lvgl/src/core/lv_obj_draw.c **** 
 2288              		.loc 1 341 7 view .LVU771
 2289 0022 AB42     		cmp	r3, r5
 2290 0024 0AD1     		bne	.L73
 2291              	.L68:
 344:Middlewares/lvgl/src/core/lv_obj_draw.c ****         obj->spec_attr->ext_draw_size = s_new;
 2292              		.loc 1 344 5 is_stmt 1 view .LVU772
 344:Middlewares/lvgl/src/core/lv_obj_draw.c ****         obj->spec_attr->ext_draw_size = s_new;
 2293              		.loc 1 344 11 is_stmt 0 view .LVU773
 2294 0026 A368     		ldr	r3, [r4, #8]
 344:Middlewares/lvgl/src/core/lv_obj_draw.c ****         obj->spec_attr->ext_draw_size = s_new;
 2295              		.loc 1 344 7 view .LVU774
 2296 0028 63B1     		cbz	r3, .L69
 345:Middlewares/lvgl/src/core/lv_obj_draw.c ****     }
 2297              		.loc 1 345 9 is_stmt 1 view .LVU775
 345:Middlewares/lvgl/src/core/lv_obj_draw.c ****     }
 2298              		.loc 1 345 39 is_stmt 0 view .LVU776
 2299 002a BDF80620 		ldrh	r2, [sp, #6]
 2300 002e DA82     		strh	r2, [r3, #22]	@ movhi
 2301              	.L70:
 354:Middlewares/lvgl/src/core/lv_obj_draw.c **** }
 2302              		.loc 1 354 5 is_stmt 1 view .LVU777
 354:Middlewares/lvgl/src/core/lv_obj_draw.c **** }
 2303              		.loc 1 354 14 is_stmt 0 view .LVU778
 2304 0030 BDF90630 		ldrsh	r3, [sp, #6]
 354:Middlewares/lvgl/src/core/lv_obj_draw.c **** }
 2305              		.loc 1 354 7 view .LVU779
 2306 0034 AB42     		cmp	r3, r5
 2307 0036 11D1     		bne	.L74
 2308              	.L67:
 355:Middlewares/lvgl/src/core/lv_obj_draw.c **** 
 2309              		.loc 1 355 1 view .LVU780
 2310 0038 03B0     		add	sp, sp, #12
 2311              	.LCFI9:
 2312              		.cfi_remember_state
 2313              		.cfi_def_cfa_offset 12
 2314              		@ sp needed
 2315 003a 30BD     		pop	{r4, r5, pc}
 2316              	.LVL227:
 2317              	.L73:
 2318              	.LCFI10:
 2319              		.cfi_restore_state
ARM GAS  /tmp/ccXWhpqg.s 			page 70


 341:Middlewares/lvgl/src/core/lv_obj_draw.c **** 
 2320              		.loc 1 341 24 is_stmt 1 discriminator 1 view .LVU781
 2321 003c 2046     		mov	r0, r4
 2322 003e FFF7FEFF 		bl	lv_obj_invalidate
 2323              	.LVL228:
 2324 0042 F0E7     		b	.L68
 2325              	.L69:
 349:Middlewares/lvgl/src/core/lv_obj_draw.c ****         lv_obj_allocate_spec_attr(obj);
 2326              		.loc 1 349 10 view .LVU782
 349:Middlewares/lvgl/src/core/lv_obj_draw.c ****         lv_obj_allocate_spec_attr(obj);
 2327              		.loc 1 349 19 is_stmt 0 view .LVU783
 2328 0044 BDF90630 		ldrsh	r3, [sp, #6]
 349:Middlewares/lvgl/src/core/lv_obj_draw.c ****         lv_obj_allocate_spec_attr(obj);
 2329              		.loc 1 349 12 view .LVU784
 2330 0048 002B     		cmp	r3, #0
 2331 004a F1D0     		beq	.L70
 350:Middlewares/lvgl/src/core/lv_obj_draw.c ****         obj->spec_attr->ext_draw_size = s_new;
 2332              		.loc 1 350 9 is_stmt 1 view .LVU785
 2333 004c 2046     		mov	r0, r4
 2334 004e FFF7FEFF 		bl	lv_obj_allocate_spec_attr
 2335              	.LVL229:
 351:Middlewares/lvgl/src/core/lv_obj_draw.c ****     }
 2336              		.loc 1 351 9 view .LVU786
 351:Middlewares/lvgl/src/core/lv_obj_draw.c ****     }
 2337              		.loc 1 351 12 is_stmt 0 view .LVU787
 2338 0052 A368     		ldr	r3, [r4, #8]
 351:Middlewares/lvgl/src/core/lv_obj_draw.c ****     }
 2339              		.loc 1 351 39 view .LVU788
 2340 0054 BDF80620 		ldrh	r2, [sp, #6]
 2341 0058 DA82     		strh	r2, [r3, #22]	@ movhi
 2342 005a E9E7     		b	.L70
 2343              	.L74:
 354:Middlewares/lvgl/src/core/lv_obj_draw.c **** }
 2344              		.loc 1 354 24 is_stmt 1 discriminator 1 view .LVU789
 2345 005c 2046     		mov	r0, r4
 2346 005e FFF7FEFF 		bl	lv_obj_invalidate
 2347              	.LVL230:
 355:Middlewares/lvgl/src/core/lv_obj_draw.c **** 
 2348              		.loc 1 355 1 is_stmt 0 discriminator 1 view .LVU790
 2349 0062 E9E7     		b	.L67
 2350              		.cfi_endproc
 2351              	.LFE160:
 2353              		.text
 2354              	.Letext0:
 2355              		.file 4 "/home/akinya/gcc-arm-none-eabi/arm-none-eabi/include/machine/_default_types.h"
 2356              		.file 5 "/home/akinya/gcc-arm-none-eabi/arm-none-eabi/include/sys/_stdint.h"
 2357              		.file 6 "Middlewares/lvgl/src/core/../draw/../misc/../font/lv_font.h"
 2358              		.file 7 "Middlewares/lvgl/src/core/../draw/../misc/lv_color.h"
 2359              		.file 8 "Middlewares/lvgl/src/core/../draw/../misc/lv_txt.h"
 2360              		.file 9 "Middlewares/lvgl/src/core/../draw/../misc/lv_bidi.h"
 2361              		.file 10 "Middlewares/lvgl/src/core/../draw/../misc/lv_style.h"
 2362              		.file 11 "Middlewares/lvgl/src/core/../draw/lv_img_decoder.h"
 2363              		.file 12 "Middlewares/lvgl/src/core/../draw/lv_draw_rect.h"
 2364              		.file 13 "Middlewares/lvgl/src/core/../draw/lv_draw_label.h"
 2365              		.file 14 "Middlewares/lvgl/src/core/../draw/lv_draw_img.h"
 2366              		.file 15 "Middlewares/lvgl/src/core/../draw/lv_draw_line.h"
 2367              		.file 16 "Middlewares/lvgl/src/core/../draw/lv_draw_arc.h"
ARM GAS  /tmp/ccXWhpqg.s 			page 71


 2368              		.file 17 "Middlewares/lvgl/src/core/lv_obj_draw.h"
 2369              		.file 18 "Middlewares/lvgl/src/core/../hal/../misc/lv_ll.h"
 2370              		.file 19 "Middlewares/lvgl/src/core/lv_obj.h"
 2371              		.file 20 "Middlewares/lvgl/src/core/lv_group.h"
 2372              		.file 21 "Middlewares/lvgl/src/core/lv_obj_scroll.h"
 2373              		.file 22 "Middlewares/lvgl/src/core/lv_obj_style.h"
 2374              		.file 23 "Middlewares/lvgl/src/core/lv_obj_class.h"
 2375              		.file 24 "Middlewares/lvgl/src/core/lv_event.h"
 2376              		.file 25 "Middlewares/lvgl/src/core/lv_obj_pos.h"
 2377              		.file 26 "Middlewares/lvgl/src/core/../hal/../misc/lv_mem.h"
ARM GAS  /tmp/ccXWhpqg.s 			page 72

