ARM GAS  /tmp/cccpOVCi.s 			page 1


   1              		.cpu cortex-m7
   2              		.eabi_attribute 28, 1
   3              		.eabi_attribute 20, 1
   4              		.eabi_attribute 21, 1
   5              		.eabi_attribute 23, 3
   6              		.eabi_attribute 24, 1
   7              		.eabi_attribute 25, 1
   8              		.eabi_attribute 26, 1
   9              		.eabi_attribute 30, 1
  10              		.eabi_attribute 34, 1
  11              		.eabi_attribute 18, 4
  12              		.file	"lv_refr.c"
  13              		.text
  14              	.Ltext0:
  15              		.cfi_sections	.debug_frame
  16              		.section	.text.draw_buf_rotate_180,"ax",%progbits
  17              		.align	1
  18              		.arch armv7e-m
  19              		.syntax unified
  20              		.thumb
  21              		.thumb_func
  22              		.fpu fpv5-d16
  24              	draw_buf_rotate_180:
  25              	.LVL0:
  26              	.LFB166:
  27              		.file 1 "Middlewares/lvgl/src/core/lv_refr.c"
   1:Middlewares/lvgl/src/core/lv_refr.c **** /**
   2:Middlewares/lvgl/src/core/lv_refr.c ****  * @file lv_refr.c
   3:Middlewares/lvgl/src/core/lv_refr.c ****  *
   4:Middlewares/lvgl/src/core/lv_refr.c ****  */
   5:Middlewares/lvgl/src/core/lv_refr.c **** 
   6:Middlewares/lvgl/src/core/lv_refr.c **** /*********************
   7:Middlewares/lvgl/src/core/lv_refr.c ****  *      INCLUDES
   8:Middlewares/lvgl/src/core/lv_refr.c ****  *********************/
   9:Middlewares/lvgl/src/core/lv_refr.c **** #include <stddef.h>
  10:Middlewares/lvgl/src/core/lv_refr.c **** #include "lv_refr.h"
  11:Middlewares/lvgl/src/core/lv_refr.c **** #include "lv_disp.h"
  12:Middlewares/lvgl/src/core/lv_refr.c **** #include "../hal/lv_hal_tick.h"
  13:Middlewares/lvgl/src/core/lv_refr.c **** #include "../hal/lv_hal_disp.h"
  14:Middlewares/lvgl/src/core/lv_refr.c **** #include "../misc/lv_timer.h"
  15:Middlewares/lvgl/src/core/lv_refr.c **** #include "../misc/lv_mem.h"
  16:Middlewares/lvgl/src/core/lv_refr.c **** #include "../misc/lv_math.h"
  17:Middlewares/lvgl/src/core/lv_refr.c **** #include "../misc/lv_gc.h"
  18:Middlewares/lvgl/src/core/lv_refr.c **** #include "../draw/lv_draw.h"
  19:Middlewares/lvgl/src/core/lv_refr.c **** #include "../font/lv_font_fmt_txt.h"
  20:Middlewares/lvgl/src/core/lv_refr.c **** 
  21:Middlewares/lvgl/src/core/lv_refr.c **** #if LV_USE_PERF_MONITOR || LV_USE_MEM_MONITOR
  22:Middlewares/lvgl/src/core/lv_refr.c ****     #include "../widgets/lv_label.h"
  23:Middlewares/lvgl/src/core/lv_refr.c **** #endif
  24:Middlewares/lvgl/src/core/lv_refr.c **** 
  25:Middlewares/lvgl/src/core/lv_refr.c **** /*********************
  26:Middlewares/lvgl/src/core/lv_refr.c ****  *      DEFINES
  27:Middlewares/lvgl/src/core/lv_refr.c ****  *********************/
  28:Middlewares/lvgl/src/core/lv_refr.c **** 
  29:Middlewares/lvgl/src/core/lv_refr.c **** /**********************
  30:Middlewares/lvgl/src/core/lv_refr.c ****  *      TYPEDEFS
  31:Middlewares/lvgl/src/core/lv_refr.c ****  **********************/
ARM GAS  /tmp/cccpOVCi.s 			page 2


  32:Middlewares/lvgl/src/core/lv_refr.c **** 
  33:Middlewares/lvgl/src/core/lv_refr.c **** /**********************
  34:Middlewares/lvgl/src/core/lv_refr.c ****  *  STATIC PROTOTYPES
  35:Middlewares/lvgl/src/core/lv_refr.c ****  **********************/
  36:Middlewares/lvgl/src/core/lv_refr.c **** static void lv_refr_join_area(void);
  37:Middlewares/lvgl/src/core/lv_refr.c **** static void lv_refr_areas(void);
  38:Middlewares/lvgl/src/core/lv_refr.c **** static void lv_refr_area(const lv_area_t * area_p);
  39:Middlewares/lvgl/src/core/lv_refr.c **** static void lv_refr_area_part(const lv_area_t * area_p);
  40:Middlewares/lvgl/src/core/lv_refr.c **** static lv_obj_t * lv_refr_get_top_obj(const lv_area_t * area_p, lv_obj_t * obj);
  41:Middlewares/lvgl/src/core/lv_refr.c **** static void lv_refr_obj_and_children(lv_obj_t * top_p, const lv_area_t * mask_p);
  42:Middlewares/lvgl/src/core/lv_refr.c **** static void lv_refr_obj(lv_obj_t * obj, const lv_area_t * mask_ori_p);
  43:Middlewares/lvgl/src/core/lv_refr.c **** static void draw_buf_flush(void);
  44:Middlewares/lvgl/src/core/lv_refr.c **** static void call_flush_cb(lv_disp_drv_t * drv, const lv_area_t * area, lv_color_t * color_p);
  45:Middlewares/lvgl/src/core/lv_refr.c **** 
  46:Middlewares/lvgl/src/core/lv_refr.c **** /**********************
  47:Middlewares/lvgl/src/core/lv_refr.c ****  *  STATIC VARIABLES
  48:Middlewares/lvgl/src/core/lv_refr.c ****  **********************/
  49:Middlewares/lvgl/src/core/lv_refr.c **** static uint32_t px_num;
  50:Middlewares/lvgl/src/core/lv_refr.c **** static lv_disp_t * disp_refr; /*Display being refreshed*/
  51:Middlewares/lvgl/src/core/lv_refr.c **** #if LV_USE_PERF_MONITOR
  52:Middlewares/lvgl/src/core/lv_refr.c ****     static uint32_t fps_sum_cnt;
  53:Middlewares/lvgl/src/core/lv_refr.c ****     static uint32_t fps_sum_all;
  54:Middlewares/lvgl/src/core/lv_refr.c **** #endif
  55:Middlewares/lvgl/src/core/lv_refr.c **** 
  56:Middlewares/lvgl/src/core/lv_refr.c **** /**********************
  57:Middlewares/lvgl/src/core/lv_refr.c ****  *      MACROS
  58:Middlewares/lvgl/src/core/lv_refr.c ****  **********************/
  59:Middlewares/lvgl/src/core/lv_refr.c **** #if LV_LOG_TRACE_DISP_REFR
  60:Middlewares/lvgl/src/core/lv_refr.c **** #  define TRACE_REFR(...) LV_LOG_TRACE( __VA_ARGS__)
  61:Middlewares/lvgl/src/core/lv_refr.c **** #else
  62:Middlewares/lvgl/src/core/lv_refr.c **** #  define TRACE_REFR(...)
  63:Middlewares/lvgl/src/core/lv_refr.c **** #endif
  64:Middlewares/lvgl/src/core/lv_refr.c **** 
  65:Middlewares/lvgl/src/core/lv_refr.c **** /**********************
  66:Middlewares/lvgl/src/core/lv_refr.c ****  *   GLOBAL FUNCTIONS
  67:Middlewares/lvgl/src/core/lv_refr.c ****  **********************/
  68:Middlewares/lvgl/src/core/lv_refr.c **** 
  69:Middlewares/lvgl/src/core/lv_refr.c **** /**
  70:Middlewares/lvgl/src/core/lv_refr.c ****  * Initialize the screen refresh subsystem
  71:Middlewares/lvgl/src/core/lv_refr.c ****  */
  72:Middlewares/lvgl/src/core/lv_refr.c **** void _lv_refr_init(void)
  73:Middlewares/lvgl/src/core/lv_refr.c **** {
  74:Middlewares/lvgl/src/core/lv_refr.c ****     /*Nothing to do*/
  75:Middlewares/lvgl/src/core/lv_refr.c **** }
  76:Middlewares/lvgl/src/core/lv_refr.c **** 
  77:Middlewares/lvgl/src/core/lv_refr.c **** /**
  78:Middlewares/lvgl/src/core/lv_refr.c ****  * Redraw the invalidated areas now.
  79:Middlewares/lvgl/src/core/lv_refr.c ****  * Normally the redrawing is periodically executed in `lv_timer_handler` but a long blocking proces
  80:Middlewares/lvgl/src/core/lv_refr.c ****  * can prevent the call of `lv_timer_handler`. In this case if the GUI is updated in the process
  81:Middlewares/lvgl/src/core/lv_refr.c ****  * (e.g. progress bar) this function can be called when the screen should be updated.
  82:Middlewares/lvgl/src/core/lv_refr.c ****  * @param disp pointer to display to refresh. NULL to refresh all displays.
  83:Middlewares/lvgl/src/core/lv_refr.c ****  */
  84:Middlewares/lvgl/src/core/lv_refr.c **** void lv_refr_now(lv_disp_t * disp)
  85:Middlewares/lvgl/src/core/lv_refr.c **** {
  86:Middlewares/lvgl/src/core/lv_refr.c ****     lv_anim_refr_now();
  87:Middlewares/lvgl/src/core/lv_refr.c **** 
  88:Middlewares/lvgl/src/core/lv_refr.c ****     if(disp) {
ARM GAS  /tmp/cccpOVCi.s 			page 3


  89:Middlewares/lvgl/src/core/lv_refr.c ****         _lv_disp_refr_timer(disp->refr_timer);
  90:Middlewares/lvgl/src/core/lv_refr.c ****     }
  91:Middlewares/lvgl/src/core/lv_refr.c ****     else {
  92:Middlewares/lvgl/src/core/lv_refr.c ****         lv_disp_t * d;
  93:Middlewares/lvgl/src/core/lv_refr.c ****         d = lv_disp_get_next(NULL);
  94:Middlewares/lvgl/src/core/lv_refr.c ****         while(d) {
  95:Middlewares/lvgl/src/core/lv_refr.c ****             _lv_disp_refr_timer(d->refr_timer);
  96:Middlewares/lvgl/src/core/lv_refr.c ****             d = lv_disp_get_next(d);
  97:Middlewares/lvgl/src/core/lv_refr.c ****         }
  98:Middlewares/lvgl/src/core/lv_refr.c ****     }
  99:Middlewares/lvgl/src/core/lv_refr.c **** }
 100:Middlewares/lvgl/src/core/lv_refr.c **** 
 101:Middlewares/lvgl/src/core/lv_refr.c **** /**
 102:Middlewares/lvgl/src/core/lv_refr.c ****  * Invalidate an area on display to redraw it
 103:Middlewares/lvgl/src/core/lv_refr.c ****  * @param area_p pointer to area which should be invalidated (NULL: delete the invalidated areas)
 104:Middlewares/lvgl/src/core/lv_refr.c ****  * @param disp pointer to display where the area should be invalidated (NULL can be used if there i
 105:Middlewares/lvgl/src/core/lv_refr.c ****  * only one display)
 106:Middlewares/lvgl/src/core/lv_refr.c ****  */
 107:Middlewares/lvgl/src/core/lv_refr.c **** void _lv_inv_area(lv_disp_t * disp, const lv_area_t * area_p)
 108:Middlewares/lvgl/src/core/lv_refr.c **** {
 109:Middlewares/lvgl/src/core/lv_refr.c ****     if(!disp) disp = lv_disp_get_default();
 110:Middlewares/lvgl/src/core/lv_refr.c ****     if(!disp) return;
 111:Middlewares/lvgl/src/core/lv_refr.c **** 
 112:Middlewares/lvgl/src/core/lv_refr.c ****     /*Clear the invalidate buffer if the parameter is NULL*/
 113:Middlewares/lvgl/src/core/lv_refr.c ****     if(area_p == NULL) {
 114:Middlewares/lvgl/src/core/lv_refr.c ****         disp->inv_p = 0;
 115:Middlewares/lvgl/src/core/lv_refr.c ****         return;
 116:Middlewares/lvgl/src/core/lv_refr.c ****     }
 117:Middlewares/lvgl/src/core/lv_refr.c **** 
 118:Middlewares/lvgl/src/core/lv_refr.c ****     lv_area_t scr_area;
 119:Middlewares/lvgl/src/core/lv_refr.c ****     scr_area.x1 = 0;
 120:Middlewares/lvgl/src/core/lv_refr.c ****     scr_area.y1 = 0;
 121:Middlewares/lvgl/src/core/lv_refr.c ****     scr_area.x2 = lv_disp_get_hor_res(disp) - 1;
 122:Middlewares/lvgl/src/core/lv_refr.c ****     scr_area.y2 = lv_disp_get_ver_res(disp) - 1;
 123:Middlewares/lvgl/src/core/lv_refr.c **** 
 124:Middlewares/lvgl/src/core/lv_refr.c ****     lv_area_t com_area;
 125:Middlewares/lvgl/src/core/lv_refr.c ****     bool suc;
 126:Middlewares/lvgl/src/core/lv_refr.c **** 
 127:Middlewares/lvgl/src/core/lv_refr.c ****     suc = _lv_area_intersect(&com_area, area_p, &scr_area);
 128:Middlewares/lvgl/src/core/lv_refr.c ****     if(suc == false)  return; /*Out of the screen*/
 129:Middlewares/lvgl/src/core/lv_refr.c **** 
 130:Middlewares/lvgl/src/core/lv_refr.c ****     /*If there were at least 1 invalid area in full refresh mode, redraw the whole screen*/
 131:Middlewares/lvgl/src/core/lv_refr.c ****     if(disp->driver->full_refresh) {
 132:Middlewares/lvgl/src/core/lv_refr.c ****         disp->inv_areas[0] = scr_area;
 133:Middlewares/lvgl/src/core/lv_refr.c ****         disp->inv_p = 1;
 134:Middlewares/lvgl/src/core/lv_refr.c ****         lv_timer_resume(disp->refr_timer);
 135:Middlewares/lvgl/src/core/lv_refr.c ****         return;
 136:Middlewares/lvgl/src/core/lv_refr.c ****     }
 137:Middlewares/lvgl/src/core/lv_refr.c **** 
 138:Middlewares/lvgl/src/core/lv_refr.c ****     if(disp->driver->rounder_cb) disp->driver->rounder_cb(disp->driver, &com_area);
 139:Middlewares/lvgl/src/core/lv_refr.c **** 
 140:Middlewares/lvgl/src/core/lv_refr.c ****     /*Save only if this area is not in one of the saved areas*/
 141:Middlewares/lvgl/src/core/lv_refr.c ****     uint16_t i;
 142:Middlewares/lvgl/src/core/lv_refr.c ****     for(i = 0; i < disp->inv_p; i++) {
 143:Middlewares/lvgl/src/core/lv_refr.c ****         if(_lv_area_is_in(&com_area, &disp->inv_areas[i], 0) != false) return;
 144:Middlewares/lvgl/src/core/lv_refr.c ****     }
 145:Middlewares/lvgl/src/core/lv_refr.c **** 
ARM GAS  /tmp/cccpOVCi.s 			page 4


 146:Middlewares/lvgl/src/core/lv_refr.c ****     /*Save the area*/
 147:Middlewares/lvgl/src/core/lv_refr.c ****     if(disp->inv_p < LV_INV_BUF_SIZE) {
 148:Middlewares/lvgl/src/core/lv_refr.c ****         lv_area_copy(&disp->inv_areas[disp->inv_p], &com_area);
 149:Middlewares/lvgl/src/core/lv_refr.c ****     }
 150:Middlewares/lvgl/src/core/lv_refr.c ****     else {   /*If no place for the area add the screen*/
 151:Middlewares/lvgl/src/core/lv_refr.c ****         disp->inv_p = 0;
 152:Middlewares/lvgl/src/core/lv_refr.c ****         lv_area_copy(&disp->inv_areas[disp->inv_p], &scr_area);
 153:Middlewares/lvgl/src/core/lv_refr.c ****     }
 154:Middlewares/lvgl/src/core/lv_refr.c ****     disp->inv_p++;
 155:Middlewares/lvgl/src/core/lv_refr.c ****     lv_timer_resume(disp->refr_timer);
 156:Middlewares/lvgl/src/core/lv_refr.c **** }
 157:Middlewares/lvgl/src/core/lv_refr.c **** 
 158:Middlewares/lvgl/src/core/lv_refr.c **** /**
 159:Middlewares/lvgl/src/core/lv_refr.c ****  * Get the display which is being refreshed
 160:Middlewares/lvgl/src/core/lv_refr.c ****  * @return the display being refreshed
 161:Middlewares/lvgl/src/core/lv_refr.c ****  */
 162:Middlewares/lvgl/src/core/lv_refr.c **** lv_disp_t * _lv_refr_get_disp_refreshing(void)
 163:Middlewares/lvgl/src/core/lv_refr.c **** {
 164:Middlewares/lvgl/src/core/lv_refr.c ****     return disp_refr;
 165:Middlewares/lvgl/src/core/lv_refr.c **** }
 166:Middlewares/lvgl/src/core/lv_refr.c **** 
 167:Middlewares/lvgl/src/core/lv_refr.c **** /**
 168:Middlewares/lvgl/src/core/lv_refr.c ****  * Set the display which is being refreshed.
 169:Middlewares/lvgl/src/core/lv_refr.c ****  * It shouldn't be used directly by the user.
 170:Middlewares/lvgl/src/core/lv_refr.c ****  * It can be used to trick the drawing functions about there is an active display.
 171:Middlewares/lvgl/src/core/lv_refr.c ****  * @param the display being refreshed
 172:Middlewares/lvgl/src/core/lv_refr.c ****  */
 173:Middlewares/lvgl/src/core/lv_refr.c **** void _lv_refr_set_disp_refreshing(lv_disp_t * disp)
 174:Middlewares/lvgl/src/core/lv_refr.c **** {
 175:Middlewares/lvgl/src/core/lv_refr.c ****     disp_refr = disp;
 176:Middlewares/lvgl/src/core/lv_refr.c **** }
 177:Middlewares/lvgl/src/core/lv_refr.c **** 
 178:Middlewares/lvgl/src/core/lv_refr.c **** /**
 179:Middlewares/lvgl/src/core/lv_refr.c ****  * Called periodically to handle the refreshing
 180:Middlewares/lvgl/src/core/lv_refr.c ****  * @param tmr pointer to the timer itself
 181:Middlewares/lvgl/src/core/lv_refr.c ****  */
 182:Middlewares/lvgl/src/core/lv_refr.c **** void _lv_disp_refr_timer(lv_timer_t * tmr)
 183:Middlewares/lvgl/src/core/lv_refr.c **** {
 184:Middlewares/lvgl/src/core/lv_refr.c ****     TRACE_REFR("begin");
 185:Middlewares/lvgl/src/core/lv_refr.c **** 
 186:Middlewares/lvgl/src/core/lv_refr.c ****     uint32_t start = lv_tick_get();
 187:Middlewares/lvgl/src/core/lv_refr.c ****     volatile uint32_t elaps = 0;
 188:Middlewares/lvgl/src/core/lv_refr.c **** 
 189:Middlewares/lvgl/src/core/lv_refr.c ****     disp_refr = tmr->user_data;
 190:Middlewares/lvgl/src/core/lv_refr.c **** 
 191:Middlewares/lvgl/src/core/lv_refr.c **** #if LV_USE_PERF_MONITOR == 0 && LV_USE_MEM_MONITOR == 0
 192:Middlewares/lvgl/src/core/lv_refr.c ****     /**
 193:Middlewares/lvgl/src/core/lv_refr.c ****      * Ensure the timer does not run again automatically.
 194:Middlewares/lvgl/src/core/lv_refr.c ****      * This is done before refreshing in case refreshing invalidates something else.
 195:Middlewares/lvgl/src/core/lv_refr.c ****      */
 196:Middlewares/lvgl/src/core/lv_refr.c ****     lv_timer_pause(tmr);
 197:Middlewares/lvgl/src/core/lv_refr.c **** #endif
 198:Middlewares/lvgl/src/core/lv_refr.c **** 
 199:Middlewares/lvgl/src/core/lv_refr.c ****     /*Refresh the screen's layout if required*/
 200:Middlewares/lvgl/src/core/lv_refr.c ****     lv_obj_update_layout(disp_refr->act_scr);
 201:Middlewares/lvgl/src/core/lv_refr.c ****     if(disp_refr->prev_scr) lv_obj_update_layout(disp_refr->prev_scr);
 202:Middlewares/lvgl/src/core/lv_refr.c **** 
ARM GAS  /tmp/cccpOVCi.s 			page 5


 203:Middlewares/lvgl/src/core/lv_refr.c ****     lv_obj_update_layout(disp_refr->top_layer);
 204:Middlewares/lvgl/src/core/lv_refr.c ****     lv_obj_update_layout(disp_refr->sys_layer);
 205:Middlewares/lvgl/src/core/lv_refr.c **** 
 206:Middlewares/lvgl/src/core/lv_refr.c ****     /*Do nothing if there is no active screen*/
 207:Middlewares/lvgl/src/core/lv_refr.c ****     if(disp_refr->act_scr == NULL) {
 208:Middlewares/lvgl/src/core/lv_refr.c ****         disp_refr->inv_p = 0;
 209:Middlewares/lvgl/src/core/lv_refr.c ****         LV_LOG_WARN("there is no active screen");
 210:Middlewares/lvgl/src/core/lv_refr.c ****         TRACE_REFR("finished");
 211:Middlewares/lvgl/src/core/lv_refr.c ****         return;
 212:Middlewares/lvgl/src/core/lv_refr.c ****     }
 213:Middlewares/lvgl/src/core/lv_refr.c **** 
 214:Middlewares/lvgl/src/core/lv_refr.c ****     lv_refr_join_area();
 215:Middlewares/lvgl/src/core/lv_refr.c **** 
 216:Middlewares/lvgl/src/core/lv_refr.c ****     lv_refr_areas();
 217:Middlewares/lvgl/src/core/lv_refr.c **** 
 218:Middlewares/lvgl/src/core/lv_refr.c ****     /*If refresh happened ...*/
 219:Middlewares/lvgl/src/core/lv_refr.c ****     if(disp_refr->inv_p != 0) {
 220:Middlewares/lvgl/src/core/lv_refr.c ****         if(disp_refr->driver->full_refresh) {
 221:Middlewares/lvgl/src/core/lv_refr.c ****             draw_buf_flush();
 222:Middlewares/lvgl/src/core/lv_refr.c ****         }
 223:Middlewares/lvgl/src/core/lv_refr.c **** 
 224:Middlewares/lvgl/src/core/lv_refr.c ****         /*Clean up*/
 225:Middlewares/lvgl/src/core/lv_refr.c ****         lv_memset_00(disp_refr->inv_areas, sizeof(disp_refr->inv_areas));
 226:Middlewares/lvgl/src/core/lv_refr.c ****         lv_memset_00(disp_refr->inv_area_joined, sizeof(disp_refr->inv_area_joined));
 227:Middlewares/lvgl/src/core/lv_refr.c ****         disp_refr->inv_p = 0;
 228:Middlewares/lvgl/src/core/lv_refr.c **** 
 229:Middlewares/lvgl/src/core/lv_refr.c ****         elaps = lv_tick_elaps(start);
 230:Middlewares/lvgl/src/core/lv_refr.c ****         /*Call monitor cb if present*/
 231:Middlewares/lvgl/src/core/lv_refr.c ****         if(disp_refr->driver->monitor_cb) {
 232:Middlewares/lvgl/src/core/lv_refr.c ****             disp_refr->driver->monitor_cb(disp_refr->driver, elaps, px_num);
 233:Middlewares/lvgl/src/core/lv_refr.c ****         }
 234:Middlewares/lvgl/src/core/lv_refr.c ****     }
 235:Middlewares/lvgl/src/core/lv_refr.c **** 
 236:Middlewares/lvgl/src/core/lv_refr.c ****     lv_mem_buf_free_all();
 237:Middlewares/lvgl/src/core/lv_refr.c ****     _lv_font_clean_up_fmt_txt();
 238:Middlewares/lvgl/src/core/lv_refr.c **** 
 239:Middlewares/lvgl/src/core/lv_refr.c **** #if LV_USE_PERF_MONITOR && LV_USE_LABEL
 240:Middlewares/lvgl/src/core/lv_refr.c ****     static lv_obj_t * perf_label = NULL;
 241:Middlewares/lvgl/src/core/lv_refr.c ****     if(perf_label == NULL) {
 242:Middlewares/lvgl/src/core/lv_refr.c ****         perf_label = lv_label_create(lv_layer_sys());
 243:Middlewares/lvgl/src/core/lv_refr.c ****         lv_obj_set_style_bg_opa(perf_label, LV_OPA_50, 0);
 244:Middlewares/lvgl/src/core/lv_refr.c ****         lv_obj_set_style_bg_color(perf_label, lv_color_black(), 0);
 245:Middlewares/lvgl/src/core/lv_refr.c ****         lv_obj_set_style_text_color(perf_label, lv_color_white(), 0);
 246:Middlewares/lvgl/src/core/lv_refr.c ****         lv_obj_set_style_pad_top(perf_label, 3, 0);
 247:Middlewares/lvgl/src/core/lv_refr.c ****         lv_obj_set_style_pad_bottom(perf_label, 3, 0);
 248:Middlewares/lvgl/src/core/lv_refr.c ****         lv_obj_set_style_pad_left(perf_label, 3, 0);
 249:Middlewares/lvgl/src/core/lv_refr.c ****         lv_obj_set_style_pad_right(perf_label, 3, 0);
 250:Middlewares/lvgl/src/core/lv_refr.c ****         lv_obj_set_style_text_align(perf_label, LV_TEXT_ALIGN_RIGHT, 0);
 251:Middlewares/lvgl/src/core/lv_refr.c ****         lv_label_set_text(perf_label, "?");
 252:Middlewares/lvgl/src/core/lv_refr.c ****         lv_obj_align(perf_label, LV_ALIGN_BOTTOM_RIGHT, 0, 0);
 253:Middlewares/lvgl/src/core/lv_refr.c ****     }
 254:Middlewares/lvgl/src/core/lv_refr.c **** 
 255:Middlewares/lvgl/src/core/lv_refr.c ****     static uint32_t perf_last_time = 0;
 256:Middlewares/lvgl/src/core/lv_refr.c ****     static uint32_t elaps_sum = 0;
 257:Middlewares/lvgl/src/core/lv_refr.c ****     static uint32_t frame_cnt = 0;
 258:Middlewares/lvgl/src/core/lv_refr.c ****     if(lv_tick_elaps(perf_last_time) < 300) {
 259:Middlewares/lvgl/src/core/lv_refr.c ****         if(px_num > 5000) {
ARM GAS  /tmp/cccpOVCi.s 			page 6


 260:Middlewares/lvgl/src/core/lv_refr.c ****             elaps_sum += elaps;
 261:Middlewares/lvgl/src/core/lv_refr.c ****             frame_cnt ++;
 262:Middlewares/lvgl/src/core/lv_refr.c ****         }
 263:Middlewares/lvgl/src/core/lv_refr.c ****     }
 264:Middlewares/lvgl/src/core/lv_refr.c ****     else {
 265:Middlewares/lvgl/src/core/lv_refr.c ****         perf_last_time = lv_tick_get();
 266:Middlewares/lvgl/src/core/lv_refr.c ****         uint32_t fps_limit = 1000 / disp_refr->refr_timer->period;
 267:Middlewares/lvgl/src/core/lv_refr.c ****         uint32_t fps;
 268:Middlewares/lvgl/src/core/lv_refr.c **** 
 269:Middlewares/lvgl/src/core/lv_refr.c ****         if(elaps_sum == 0) elaps_sum = 1;
 270:Middlewares/lvgl/src/core/lv_refr.c ****         if(frame_cnt == 0) fps = fps_limit;
 271:Middlewares/lvgl/src/core/lv_refr.c ****         else fps = (1000 * frame_cnt) / elaps_sum;
 272:Middlewares/lvgl/src/core/lv_refr.c ****         elaps_sum = 0;
 273:Middlewares/lvgl/src/core/lv_refr.c ****         frame_cnt = 0;
 274:Middlewares/lvgl/src/core/lv_refr.c ****         if(fps > fps_limit) fps = fps_limit;
 275:Middlewares/lvgl/src/core/lv_refr.c **** 
 276:Middlewares/lvgl/src/core/lv_refr.c ****         fps_sum_all += fps;
 277:Middlewares/lvgl/src/core/lv_refr.c ****         fps_sum_cnt ++;
 278:Middlewares/lvgl/src/core/lv_refr.c ****         uint32_t cpu = 100 - lv_timer_get_idle();
 279:Middlewares/lvgl/src/core/lv_refr.c ****         lv_label_set_text_fmt(perf_label, "%d FPS\n%d%% CPU", fps, cpu);
 280:Middlewares/lvgl/src/core/lv_refr.c ****     }
 281:Middlewares/lvgl/src/core/lv_refr.c **** #endif
 282:Middlewares/lvgl/src/core/lv_refr.c **** 
 283:Middlewares/lvgl/src/core/lv_refr.c **** #if LV_USE_MEM_MONITOR && LV_MEM_CUSTOM == 0 && LV_USE_LABEL
 284:Middlewares/lvgl/src/core/lv_refr.c ****     static lv_obj_t * mem_label = NULL;
 285:Middlewares/lvgl/src/core/lv_refr.c ****     if(mem_label == NULL) {
 286:Middlewares/lvgl/src/core/lv_refr.c ****         mem_label = lv_label_create(lv_layer_sys());
 287:Middlewares/lvgl/src/core/lv_refr.c ****         lv_obj_set_style_bg_opa(mem_label, LV_OPA_50, 0);
 288:Middlewares/lvgl/src/core/lv_refr.c ****         lv_obj_set_style_bg_color(mem_label, lv_color_black(), 0);
 289:Middlewares/lvgl/src/core/lv_refr.c ****         lv_obj_set_style_text_color(mem_label, lv_color_white(), 0);
 290:Middlewares/lvgl/src/core/lv_refr.c ****         lv_obj_set_style_pad_top(mem_label, 3, 0);
 291:Middlewares/lvgl/src/core/lv_refr.c ****         lv_obj_set_style_pad_bottom(mem_label, 3, 0);
 292:Middlewares/lvgl/src/core/lv_refr.c ****         lv_obj_set_style_pad_left(mem_label, 3, 0);
 293:Middlewares/lvgl/src/core/lv_refr.c ****         lv_obj_set_style_pad_right(mem_label, 3, 0);
 294:Middlewares/lvgl/src/core/lv_refr.c ****         lv_label_set_text(mem_label, "?");
 295:Middlewares/lvgl/src/core/lv_refr.c ****         lv_obj_align(mem_label, LV_ALIGN_BOTTOM_LEFT, 0, 0);
 296:Middlewares/lvgl/src/core/lv_refr.c ****     }
 297:Middlewares/lvgl/src/core/lv_refr.c **** 
 298:Middlewares/lvgl/src/core/lv_refr.c ****     static uint32_t mem_last_time = 0;
 299:Middlewares/lvgl/src/core/lv_refr.c ****     if(lv_tick_elaps(mem_last_time) > 300) {
 300:Middlewares/lvgl/src/core/lv_refr.c ****         mem_last_time = lv_tick_get();
 301:Middlewares/lvgl/src/core/lv_refr.c ****         lv_mem_monitor_t mon;
 302:Middlewares/lvgl/src/core/lv_refr.c ****         lv_mem_monitor(&mon);
 303:Middlewares/lvgl/src/core/lv_refr.c ****         uint32_t used_size = mon.total_size - mon.free_size;;
 304:Middlewares/lvgl/src/core/lv_refr.c ****         uint32_t used_kb = used_size / 1024;
 305:Middlewares/lvgl/src/core/lv_refr.c ****         uint32_t used_kb_tenth = (used_size - (used_kb * 1024)) / 102;
 306:Middlewares/lvgl/src/core/lv_refr.c ****         lv_label_set_text_fmt(mem_label, "%d.%d kB used (%d %%)\n%d%% frag.", used_kb,  used_kb_ten
 307:Middlewares/lvgl/src/core/lv_refr.c ****     }
 308:Middlewares/lvgl/src/core/lv_refr.c **** #endif
 309:Middlewares/lvgl/src/core/lv_refr.c **** 
 310:Middlewares/lvgl/src/core/lv_refr.c ****     TRACE_REFR("finished");
 311:Middlewares/lvgl/src/core/lv_refr.c **** }
 312:Middlewares/lvgl/src/core/lv_refr.c **** 
 313:Middlewares/lvgl/src/core/lv_refr.c **** #if LV_USE_PERF_MONITOR
 314:Middlewares/lvgl/src/core/lv_refr.c **** uint32_t lv_refr_get_fps_avg(void)
 315:Middlewares/lvgl/src/core/lv_refr.c **** {
 316:Middlewares/lvgl/src/core/lv_refr.c ****     return fps_sum_all / fps_sum_cnt;
ARM GAS  /tmp/cccpOVCi.s 			page 7


 317:Middlewares/lvgl/src/core/lv_refr.c **** }
 318:Middlewares/lvgl/src/core/lv_refr.c **** #endif
 319:Middlewares/lvgl/src/core/lv_refr.c **** 
 320:Middlewares/lvgl/src/core/lv_refr.c **** /**********************
 321:Middlewares/lvgl/src/core/lv_refr.c ****  *   STATIC FUNCTIONS
 322:Middlewares/lvgl/src/core/lv_refr.c ****  **********************/
 323:Middlewares/lvgl/src/core/lv_refr.c **** 
 324:Middlewares/lvgl/src/core/lv_refr.c **** /**
 325:Middlewares/lvgl/src/core/lv_refr.c ****  * Join the areas which has got common parts
 326:Middlewares/lvgl/src/core/lv_refr.c ****  */
 327:Middlewares/lvgl/src/core/lv_refr.c **** static void lv_refr_join_area(void)
 328:Middlewares/lvgl/src/core/lv_refr.c **** {
 329:Middlewares/lvgl/src/core/lv_refr.c ****     uint32_t join_from;
 330:Middlewares/lvgl/src/core/lv_refr.c ****     uint32_t join_in;
 331:Middlewares/lvgl/src/core/lv_refr.c ****     lv_area_t joined_area;
 332:Middlewares/lvgl/src/core/lv_refr.c ****     for(join_in = 0; join_in < disp_refr->inv_p; join_in++) {
 333:Middlewares/lvgl/src/core/lv_refr.c ****         if(disp_refr->inv_area_joined[join_in] != 0) continue;
 334:Middlewares/lvgl/src/core/lv_refr.c **** 
 335:Middlewares/lvgl/src/core/lv_refr.c ****         /*Check all areas to join them in 'join_in'*/
 336:Middlewares/lvgl/src/core/lv_refr.c ****         for(join_from = 0; join_from < disp_refr->inv_p; join_from++) {
 337:Middlewares/lvgl/src/core/lv_refr.c ****             /*Handle only unjoined areas and ignore itself*/
 338:Middlewares/lvgl/src/core/lv_refr.c ****             if(disp_refr->inv_area_joined[join_from] != 0 || join_in == join_from) {
 339:Middlewares/lvgl/src/core/lv_refr.c ****                 continue;
 340:Middlewares/lvgl/src/core/lv_refr.c ****             }
 341:Middlewares/lvgl/src/core/lv_refr.c **** 
 342:Middlewares/lvgl/src/core/lv_refr.c ****             /*Check if the areas are on each other*/
 343:Middlewares/lvgl/src/core/lv_refr.c ****             if(_lv_area_is_on(&disp_refr->inv_areas[join_in], &disp_refr->inv_areas[join_from]) == 
 344:Middlewares/lvgl/src/core/lv_refr.c ****                 continue;
 345:Middlewares/lvgl/src/core/lv_refr.c ****             }
 346:Middlewares/lvgl/src/core/lv_refr.c **** 
 347:Middlewares/lvgl/src/core/lv_refr.c ****             _lv_area_join(&joined_area, &disp_refr->inv_areas[join_in], &disp_refr->inv_areas[join_
 348:Middlewares/lvgl/src/core/lv_refr.c **** 
 349:Middlewares/lvgl/src/core/lv_refr.c ****             /*Join two area only if the joined area size is smaller*/
 350:Middlewares/lvgl/src/core/lv_refr.c ****             if(lv_area_get_size(&joined_area) < (lv_area_get_size(&disp_refr->inv_areas[join_in]) +
 351:Middlewares/lvgl/src/core/lv_refr.c ****                                                  lv_area_get_size(&disp_refr->inv_areas[join_from])
 352:Middlewares/lvgl/src/core/lv_refr.c ****                 lv_area_copy(&disp_refr->inv_areas[join_in], &joined_area);
 353:Middlewares/lvgl/src/core/lv_refr.c **** 
 354:Middlewares/lvgl/src/core/lv_refr.c ****                 /*Mark 'join_form' is joined into 'join_in'*/
 355:Middlewares/lvgl/src/core/lv_refr.c ****                 disp_refr->inv_area_joined[join_from] = 1;
 356:Middlewares/lvgl/src/core/lv_refr.c ****             }
 357:Middlewares/lvgl/src/core/lv_refr.c ****         }
 358:Middlewares/lvgl/src/core/lv_refr.c ****     }
 359:Middlewares/lvgl/src/core/lv_refr.c **** }
 360:Middlewares/lvgl/src/core/lv_refr.c **** 
 361:Middlewares/lvgl/src/core/lv_refr.c **** /**
 362:Middlewares/lvgl/src/core/lv_refr.c ****  * Refresh the joined areas
 363:Middlewares/lvgl/src/core/lv_refr.c ****  */
 364:Middlewares/lvgl/src/core/lv_refr.c **** static void lv_refr_areas(void)
 365:Middlewares/lvgl/src/core/lv_refr.c **** {
 366:Middlewares/lvgl/src/core/lv_refr.c ****     px_num = 0;
 367:Middlewares/lvgl/src/core/lv_refr.c **** 
 368:Middlewares/lvgl/src/core/lv_refr.c ****     if(disp_refr->inv_p == 0) return;
 369:Middlewares/lvgl/src/core/lv_refr.c **** 
 370:Middlewares/lvgl/src/core/lv_refr.c ****     /*Find the last area which will be drawn*/
 371:Middlewares/lvgl/src/core/lv_refr.c ****     int32_t i;
 372:Middlewares/lvgl/src/core/lv_refr.c ****     int32_t last_i = 0;
 373:Middlewares/lvgl/src/core/lv_refr.c ****     for(i = disp_refr->inv_p - 1; i >= 0; i--) {
ARM GAS  /tmp/cccpOVCi.s 			page 8


 374:Middlewares/lvgl/src/core/lv_refr.c ****         if(disp_refr->inv_area_joined[i] == 0) {
 375:Middlewares/lvgl/src/core/lv_refr.c ****             last_i = i;
 376:Middlewares/lvgl/src/core/lv_refr.c ****             break;
 377:Middlewares/lvgl/src/core/lv_refr.c ****         }
 378:Middlewares/lvgl/src/core/lv_refr.c ****     }
 379:Middlewares/lvgl/src/core/lv_refr.c **** 
 380:Middlewares/lvgl/src/core/lv_refr.c ****     disp_refr->driver->draw_buf->last_area = 0;
 381:Middlewares/lvgl/src/core/lv_refr.c ****     disp_refr->driver->draw_buf->last_part = 0;
 382:Middlewares/lvgl/src/core/lv_refr.c **** 
 383:Middlewares/lvgl/src/core/lv_refr.c ****     for(i = 0; i < disp_refr->inv_p; i++) {
 384:Middlewares/lvgl/src/core/lv_refr.c ****         /*Refresh the unjoined areas*/
 385:Middlewares/lvgl/src/core/lv_refr.c ****         if(disp_refr->inv_area_joined[i] == 0) {
 386:Middlewares/lvgl/src/core/lv_refr.c **** 
 387:Middlewares/lvgl/src/core/lv_refr.c ****             if(i == last_i) disp_refr->driver->draw_buf->last_area = 1;
 388:Middlewares/lvgl/src/core/lv_refr.c ****             disp_refr->driver->draw_buf->last_part = 0;
 389:Middlewares/lvgl/src/core/lv_refr.c ****             lv_refr_area(&disp_refr->inv_areas[i]);
 390:Middlewares/lvgl/src/core/lv_refr.c **** 
 391:Middlewares/lvgl/src/core/lv_refr.c ****             px_num += lv_area_get_size(&disp_refr->inv_areas[i]);
 392:Middlewares/lvgl/src/core/lv_refr.c ****         }
 393:Middlewares/lvgl/src/core/lv_refr.c ****     }
 394:Middlewares/lvgl/src/core/lv_refr.c **** }
 395:Middlewares/lvgl/src/core/lv_refr.c **** 
 396:Middlewares/lvgl/src/core/lv_refr.c **** /**
 397:Middlewares/lvgl/src/core/lv_refr.c ****  * Refresh an area if there is Virtual Display Buffer
 398:Middlewares/lvgl/src/core/lv_refr.c ****  * @param area_p  pointer to an area to refresh
 399:Middlewares/lvgl/src/core/lv_refr.c ****  */
 400:Middlewares/lvgl/src/core/lv_refr.c **** static void lv_refr_area(const lv_area_t * area_p)
 401:Middlewares/lvgl/src/core/lv_refr.c **** {
 402:Middlewares/lvgl/src/core/lv_refr.c ****     /*With full refresh just redraw directly into the buffer*/
 403:Middlewares/lvgl/src/core/lv_refr.c ****     if(disp_refr->driver->full_refresh) {
 404:Middlewares/lvgl/src/core/lv_refr.c ****         lv_disp_draw_buf_t * draw_buf = lv_disp_get_draw_buf(disp_refr);
 405:Middlewares/lvgl/src/core/lv_refr.c ****         draw_buf->area.x1        = 0;
 406:Middlewares/lvgl/src/core/lv_refr.c ****         draw_buf->area.x2        = lv_disp_get_hor_res(disp_refr) - 1;
 407:Middlewares/lvgl/src/core/lv_refr.c ****         draw_buf->area.y1        = 0;
 408:Middlewares/lvgl/src/core/lv_refr.c ****         draw_buf->area.y2        = lv_disp_get_ver_res(disp_refr) - 1;
 409:Middlewares/lvgl/src/core/lv_refr.c ****         disp_refr->driver->draw_buf->last_part = 1;
 410:Middlewares/lvgl/src/core/lv_refr.c ****         lv_refr_area_part(area_p);
 411:Middlewares/lvgl/src/core/lv_refr.c ****         return;
 412:Middlewares/lvgl/src/core/lv_refr.c ****     }
 413:Middlewares/lvgl/src/core/lv_refr.c **** 
 414:Middlewares/lvgl/src/core/lv_refr.c ****     /*Normal refresh: draw the area in parts*/
 415:Middlewares/lvgl/src/core/lv_refr.c ****     lv_disp_draw_buf_t * draw_buf = lv_disp_get_draw_buf(disp_refr);
 416:Middlewares/lvgl/src/core/lv_refr.c ****     /*Calculate the max row num*/
 417:Middlewares/lvgl/src/core/lv_refr.c ****     lv_coord_t w = lv_area_get_width(area_p);
 418:Middlewares/lvgl/src/core/lv_refr.c ****     lv_coord_t h = lv_area_get_height(area_p);
 419:Middlewares/lvgl/src/core/lv_refr.c ****     lv_coord_t y2 = area_p->y2 >= lv_disp_get_ver_res(disp_refr) ?
 420:Middlewares/lvgl/src/core/lv_refr.c ****                         lv_disp_get_ver_res(disp_refr) - 1 : area_p->y2;
 421:Middlewares/lvgl/src/core/lv_refr.c **** 
 422:Middlewares/lvgl/src/core/lv_refr.c ****     int32_t max_row = (uint32_t)draw_buf->size / w;
 423:Middlewares/lvgl/src/core/lv_refr.c **** 
 424:Middlewares/lvgl/src/core/lv_refr.c ****     if(max_row > h) max_row = h;
 425:Middlewares/lvgl/src/core/lv_refr.c **** 
 426:Middlewares/lvgl/src/core/lv_refr.c ****     /*Round down the lines of draw_buf if rounding is added*/
 427:Middlewares/lvgl/src/core/lv_refr.c ****     if(disp_refr->driver->rounder_cb) {
 428:Middlewares/lvgl/src/core/lv_refr.c ****         lv_area_t tmp;
 429:Middlewares/lvgl/src/core/lv_refr.c ****         tmp.x1 = 0;
 430:Middlewares/lvgl/src/core/lv_refr.c ****         tmp.x2 = 0;
ARM GAS  /tmp/cccpOVCi.s 			page 9


 431:Middlewares/lvgl/src/core/lv_refr.c ****         tmp.y1 = 0;
 432:Middlewares/lvgl/src/core/lv_refr.c **** 
 433:Middlewares/lvgl/src/core/lv_refr.c ****         lv_coord_t h_tmp = max_row;
 434:Middlewares/lvgl/src/core/lv_refr.c ****         do {
 435:Middlewares/lvgl/src/core/lv_refr.c ****             tmp.y2 = h_tmp - 1;
 436:Middlewares/lvgl/src/core/lv_refr.c ****             disp_refr->driver->rounder_cb(disp_refr->driver, &tmp);
 437:Middlewares/lvgl/src/core/lv_refr.c **** 
 438:Middlewares/lvgl/src/core/lv_refr.c ****             /*If this height fits into `max_row` then fine*/
 439:Middlewares/lvgl/src/core/lv_refr.c ****             if(lv_area_get_height(&tmp) <= max_row) break;
 440:Middlewares/lvgl/src/core/lv_refr.c **** 
 441:Middlewares/lvgl/src/core/lv_refr.c ****             /*Decrement the height of the area until it fits into `max_row` after rounding*/
 442:Middlewares/lvgl/src/core/lv_refr.c ****             h_tmp--;
 443:Middlewares/lvgl/src/core/lv_refr.c ****         } while(h_tmp > 0);
 444:Middlewares/lvgl/src/core/lv_refr.c **** 
 445:Middlewares/lvgl/src/core/lv_refr.c ****         if(h_tmp <= 0) {
 446:Middlewares/lvgl/src/core/lv_refr.c ****             LV_LOG_WARN("Can't set draw_buf height using the round function. (Wrong round_cb or to 
 447:Middlewares/lvgl/src/core/lv_refr.c ****                         "small draw_buf)");
 448:Middlewares/lvgl/src/core/lv_refr.c ****             return;
 449:Middlewares/lvgl/src/core/lv_refr.c ****         }
 450:Middlewares/lvgl/src/core/lv_refr.c ****         else {
 451:Middlewares/lvgl/src/core/lv_refr.c ****             max_row = tmp.y2 + 1;
 452:Middlewares/lvgl/src/core/lv_refr.c ****         }
 453:Middlewares/lvgl/src/core/lv_refr.c ****     }
 454:Middlewares/lvgl/src/core/lv_refr.c **** 
 455:Middlewares/lvgl/src/core/lv_refr.c ****     /*Always use the full row*/
 456:Middlewares/lvgl/src/core/lv_refr.c ****     lv_coord_t row;
 457:Middlewares/lvgl/src/core/lv_refr.c ****     lv_coord_t row_last = 0;
 458:Middlewares/lvgl/src/core/lv_refr.c ****     for(row = area_p->y1; row + max_row - 1 <= y2; row += max_row) {
 459:Middlewares/lvgl/src/core/lv_refr.c ****         /*Calc. the next y coordinates of draw_buf*/
 460:Middlewares/lvgl/src/core/lv_refr.c ****         draw_buf->area.x1 = area_p->x1;
 461:Middlewares/lvgl/src/core/lv_refr.c ****         draw_buf->area.x2 = area_p->x2;
 462:Middlewares/lvgl/src/core/lv_refr.c ****         draw_buf->area.y1 = row;
 463:Middlewares/lvgl/src/core/lv_refr.c ****         draw_buf->area.y2 = row + max_row - 1;
 464:Middlewares/lvgl/src/core/lv_refr.c ****         if(draw_buf->area.y2 > y2) draw_buf->area.y2 = y2;
 465:Middlewares/lvgl/src/core/lv_refr.c ****         row_last = draw_buf->area.y2;
 466:Middlewares/lvgl/src/core/lv_refr.c ****         if(y2 == row_last) disp_refr->driver->draw_buf->last_part = 1;
 467:Middlewares/lvgl/src/core/lv_refr.c ****         lv_refr_area_part(area_p);
 468:Middlewares/lvgl/src/core/lv_refr.c ****     }
 469:Middlewares/lvgl/src/core/lv_refr.c **** 
 470:Middlewares/lvgl/src/core/lv_refr.c ****     /*If the last y coordinates are not handled yet ...*/
 471:Middlewares/lvgl/src/core/lv_refr.c ****     if(y2 != row_last) {
 472:Middlewares/lvgl/src/core/lv_refr.c ****         /*Calc. the next y coordinates of draw_buf*/
 473:Middlewares/lvgl/src/core/lv_refr.c ****         draw_buf->area.x1 = area_p->x1;
 474:Middlewares/lvgl/src/core/lv_refr.c ****         draw_buf->area.x2 = area_p->x2;
 475:Middlewares/lvgl/src/core/lv_refr.c ****         draw_buf->area.y1 = row;
 476:Middlewares/lvgl/src/core/lv_refr.c ****         draw_buf->area.y2 = y2;
 477:Middlewares/lvgl/src/core/lv_refr.c **** 
 478:Middlewares/lvgl/src/core/lv_refr.c ****         disp_refr->driver->draw_buf->last_part = 1;
 479:Middlewares/lvgl/src/core/lv_refr.c ****         lv_refr_area_part(area_p);
 480:Middlewares/lvgl/src/core/lv_refr.c ****     }
 481:Middlewares/lvgl/src/core/lv_refr.c **** }
 482:Middlewares/lvgl/src/core/lv_refr.c **** 
 483:Middlewares/lvgl/src/core/lv_refr.c **** /**
 484:Middlewares/lvgl/src/core/lv_refr.c ****  * Refresh a part of an area which is on the actual Virtual Display Buffer
 485:Middlewares/lvgl/src/core/lv_refr.c ****  * @param area_p pointer to an area to refresh
 486:Middlewares/lvgl/src/core/lv_refr.c ****  */
 487:Middlewares/lvgl/src/core/lv_refr.c **** static void lv_refr_area_part(const lv_area_t * area_p)
ARM GAS  /tmp/cccpOVCi.s 			page 10


 488:Middlewares/lvgl/src/core/lv_refr.c **** {
 489:Middlewares/lvgl/src/core/lv_refr.c ****     lv_disp_draw_buf_t * draw_buf = lv_disp_get_draw_buf(disp_refr);
 490:Middlewares/lvgl/src/core/lv_refr.c **** 
 491:Middlewares/lvgl/src/core/lv_refr.c ****     /* Below the `area_p` area will be redrawn into the draw buffer.
 492:Middlewares/lvgl/src/core/lv_refr.c ****      * In single buffered mode wait here until the buffer is freed.*/
 493:Middlewares/lvgl/src/core/lv_refr.c ****     if(draw_buf->buf1 && !draw_buf->buf2) {
 494:Middlewares/lvgl/src/core/lv_refr.c **** 		while(draw_buf->flushing) {
 495:Middlewares/lvgl/src/core/lv_refr.c **** 			if(disp_refr->driver->wait_cb) disp_refr->driver->wait_cb(disp_refr->driver);
 496:Middlewares/lvgl/src/core/lv_refr.c **** 		}
 497:Middlewares/lvgl/src/core/lv_refr.c ****     }
 498:Middlewares/lvgl/src/core/lv_refr.c **** 
 499:Middlewares/lvgl/src/core/lv_refr.c ****     lv_obj_t * top_act_scr = NULL;
 500:Middlewares/lvgl/src/core/lv_refr.c ****     lv_obj_t * top_prev_scr = NULL;
 501:Middlewares/lvgl/src/core/lv_refr.c **** 
 502:Middlewares/lvgl/src/core/lv_refr.c ****     /*Get the new mask from the original area and the act. draw_buf
 503:Middlewares/lvgl/src/core/lv_refr.c ****      It will be a part of 'area_p'*/
 504:Middlewares/lvgl/src/core/lv_refr.c ****     lv_area_t start_mask;
 505:Middlewares/lvgl/src/core/lv_refr.c ****     _lv_area_intersect(&start_mask, area_p, &draw_buf->area);
 506:Middlewares/lvgl/src/core/lv_refr.c **** 
 507:Middlewares/lvgl/src/core/lv_refr.c ****     /*Get the most top object which is not covered by others*/
 508:Middlewares/lvgl/src/core/lv_refr.c ****     top_act_scr = lv_refr_get_top_obj(&start_mask, lv_disp_get_scr_act(disp_refr));
 509:Middlewares/lvgl/src/core/lv_refr.c ****     if(disp_refr->prev_scr) {
 510:Middlewares/lvgl/src/core/lv_refr.c ****         top_prev_scr = lv_refr_get_top_obj(&start_mask, disp_refr->prev_scr);
 511:Middlewares/lvgl/src/core/lv_refr.c ****     }
 512:Middlewares/lvgl/src/core/lv_refr.c **** 
 513:Middlewares/lvgl/src/core/lv_refr.c ****     /*Draw a display background if there is no top object*/
 514:Middlewares/lvgl/src/core/lv_refr.c ****     if(top_act_scr == NULL && top_prev_scr == NULL) {
 515:Middlewares/lvgl/src/core/lv_refr.c ****         if(disp_refr->bg_img) {
 516:Middlewares/lvgl/src/core/lv_refr.c ****             lv_draw_img_dsc_t dsc;
 517:Middlewares/lvgl/src/core/lv_refr.c ****             lv_draw_img_dsc_init(&dsc);
 518:Middlewares/lvgl/src/core/lv_refr.c ****             dsc.opa = disp_refr->bg_opa;
 519:Middlewares/lvgl/src/core/lv_refr.c ****             lv_img_header_t header;
 520:Middlewares/lvgl/src/core/lv_refr.c ****             lv_res_t res;
 521:Middlewares/lvgl/src/core/lv_refr.c ****             res = lv_img_decoder_get_info(disp_refr->bg_img, &header);
 522:Middlewares/lvgl/src/core/lv_refr.c ****             if(res == LV_RES_OK) {
 523:Middlewares/lvgl/src/core/lv_refr.c ****                 lv_area_t a;
 524:Middlewares/lvgl/src/core/lv_refr.c ****                 lv_area_set(&a, 0, 0, header.w - 1, header.h - 1);
 525:Middlewares/lvgl/src/core/lv_refr.c ****                 lv_draw_img(&a, &start_mask, disp_refr->bg_img, &dsc);
 526:Middlewares/lvgl/src/core/lv_refr.c ****             }
 527:Middlewares/lvgl/src/core/lv_refr.c ****             else {
 528:Middlewares/lvgl/src/core/lv_refr.c ****                 LV_LOG_WARN("Can't draw the background image")
 529:Middlewares/lvgl/src/core/lv_refr.c ****             }
 530:Middlewares/lvgl/src/core/lv_refr.c ****         }
 531:Middlewares/lvgl/src/core/lv_refr.c ****         else {
 532:Middlewares/lvgl/src/core/lv_refr.c ****             lv_draw_rect_dsc_t dsc;
 533:Middlewares/lvgl/src/core/lv_refr.c ****             lv_draw_rect_dsc_init(&dsc);
 534:Middlewares/lvgl/src/core/lv_refr.c ****             dsc.bg_color = disp_refr->bg_color;
 535:Middlewares/lvgl/src/core/lv_refr.c ****             dsc.bg_opa = disp_refr->bg_opa;
 536:Middlewares/lvgl/src/core/lv_refr.c ****             lv_draw_rect(&start_mask, &start_mask, &dsc);
 537:Middlewares/lvgl/src/core/lv_refr.c **** 
 538:Middlewares/lvgl/src/core/lv_refr.c ****         }
 539:Middlewares/lvgl/src/core/lv_refr.c ****     }
 540:Middlewares/lvgl/src/core/lv_refr.c ****     /*Refresh the previous screen if any*/
 541:Middlewares/lvgl/src/core/lv_refr.c ****     if(disp_refr->prev_scr) {
 542:Middlewares/lvgl/src/core/lv_refr.c ****         /*Get the most top object which is not covered by others*/
 543:Middlewares/lvgl/src/core/lv_refr.c ****         if(top_prev_scr == NULL) {
 544:Middlewares/lvgl/src/core/lv_refr.c ****             top_prev_scr = disp_refr->prev_scr;
ARM GAS  /tmp/cccpOVCi.s 			page 11


 545:Middlewares/lvgl/src/core/lv_refr.c ****         }
 546:Middlewares/lvgl/src/core/lv_refr.c ****         /*Do the refreshing from the top object*/
 547:Middlewares/lvgl/src/core/lv_refr.c ****         lv_refr_obj_and_children(top_prev_scr, &start_mask);
 548:Middlewares/lvgl/src/core/lv_refr.c **** 
 549:Middlewares/lvgl/src/core/lv_refr.c ****     }
 550:Middlewares/lvgl/src/core/lv_refr.c **** 
 551:Middlewares/lvgl/src/core/lv_refr.c ****     if(top_act_scr == NULL) {
 552:Middlewares/lvgl/src/core/lv_refr.c ****         top_act_scr = disp_refr->act_scr;
 553:Middlewares/lvgl/src/core/lv_refr.c ****     }
 554:Middlewares/lvgl/src/core/lv_refr.c ****     /*Do the refreshing from the top object*/
 555:Middlewares/lvgl/src/core/lv_refr.c ****     lv_refr_obj_and_children(top_act_scr, &start_mask);
 556:Middlewares/lvgl/src/core/lv_refr.c **** 
 557:Middlewares/lvgl/src/core/lv_refr.c ****     /*Also refresh top and sys layer unconditionally*/
 558:Middlewares/lvgl/src/core/lv_refr.c ****     lv_refr_obj_and_children(lv_disp_get_layer_top(disp_refr), &start_mask);
 559:Middlewares/lvgl/src/core/lv_refr.c ****     lv_refr_obj_and_children(lv_disp_get_layer_sys(disp_refr), &start_mask);
 560:Middlewares/lvgl/src/core/lv_refr.c **** 
 561:Middlewares/lvgl/src/core/lv_refr.c ****     /*In true double buffered mode flush only once when all areas were rendered.
 562:Middlewares/lvgl/src/core/lv_refr.c ****      *In normal mode flush after every area*/
 563:Middlewares/lvgl/src/core/lv_refr.c ****     if(disp_refr->driver->full_refresh == false) {
 564:Middlewares/lvgl/src/core/lv_refr.c ****         draw_buf_flush();
 565:Middlewares/lvgl/src/core/lv_refr.c ****     }
 566:Middlewares/lvgl/src/core/lv_refr.c **** }
 567:Middlewares/lvgl/src/core/lv_refr.c **** 
 568:Middlewares/lvgl/src/core/lv_refr.c **** /**
 569:Middlewares/lvgl/src/core/lv_refr.c ****  * Search the most top object which fully covers an area
 570:Middlewares/lvgl/src/core/lv_refr.c ****  * @param area_p pointer to an area
 571:Middlewares/lvgl/src/core/lv_refr.c ****  * @param obj the first object to start the searching (typically a screen)
 572:Middlewares/lvgl/src/core/lv_refr.c ****  * @return
 573:Middlewares/lvgl/src/core/lv_refr.c ****  */
 574:Middlewares/lvgl/src/core/lv_refr.c **** static lv_obj_t * lv_refr_get_top_obj(const lv_area_t * area_p, lv_obj_t * obj)
 575:Middlewares/lvgl/src/core/lv_refr.c **** {
 576:Middlewares/lvgl/src/core/lv_refr.c ****     lv_obj_t * found_p = NULL;
 577:Middlewares/lvgl/src/core/lv_refr.c **** 
 578:Middlewares/lvgl/src/core/lv_refr.c ****     /*If this object is fully cover the draw area check the children too*/
 579:Middlewares/lvgl/src/core/lv_refr.c ****     if(_lv_area_is_in(area_p, &obj->coords, 0) && lv_obj_has_flag(obj, LV_OBJ_FLAG_HIDDEN) == false
 580:Middlewares/lvgl/src/core/lv_refr.c ****         lv_cover_check_info_t info;
 581:Middlewares/lvgl/src/core/lv_refr.c ****         info.res = LV_COVER_RES_COVER;
 582:Middlewares/lvgl/src/core/lv_refr.c ****         info.area = area_p;
 583:Middlewares/lvgl/src/core/lv_refr.c ****         lv_event_send(obj, LV_EVENT_COVER_CHECK, &info);
 584:Middlewares/lvgl/src/core/lv_refr.c ****         if(info.res == LV_COVER_RES_MASKED) return NULL;
 585:Middlewares/lvgl/src/core/lv_refr.c **** 
 586:Middlewares/lvgl/src/core/lv_refr.c ****         uint32_t i;
 587:Middlewares/lvgl/src/core/lv_refr.c ****         uint32_t child_cnt = lv_obj_get_child_cnt(obj);
 588:Middlewares/lvgl/src/core/lv_refr.c ****         for(i = 0; i < child_cnt; i++) {
 589:Middlewares/lvgl/src/core/lv_refr.c ****             lv_obj_t * child = lv_obj_get_child(obj, i);
 590:Middlewares/lvgl/src/core/lv_refr.c ****             found_p = lv_refr_get_top_obj(area_p, child);
 591:Middlewares/lvgl/src/core/lv_refr.c **** 
 592:Middlewares/lvgl/src/core/lv_refr.c ****             /*If a children is ok then break*/
 593:Middlewares/lvgl/src/core/lv_refr.c ****             if(found_p != NULL) {
 594:Middlewares/lvgl/src/core/lv_refr.c ****                 break;
 595:Middlewares/lvgl/src/core/lv_refr.c ****             }
 596:Middlewares/lvgl/src/core/lv_refr.c ****         }
 597:Middlewares/lvgl/src/core/lv_refr.c **** 
 598:Middlewares/lvgl/src/core/lv_refr.c ****         /*If no better children use this object*/
 599:Middlewares/lvgl/src/core/lv_refr.c ****         if(found_p == NULL) {
 600:Middlewares/lvgl/src/core/lv_refr.c ****             if(info.res == LV_COVER_RES_COVER) {
 601:Middlewares/lvgl/src/core/lv_refr.c ****                 found_p = obj;
ARM GAS  /tmp/cccpOVCi.s 			page 12


 602:Middlewares/lvgl/src/core/lv_refr.c ****             }
 603:Middlewares/lvgl/src/core/lv_refr.c ****         }
 604:Middlewares/lvgl/src/core/lv_refr.c ****     }
 605:Middlewares/lvgl/src/core/lv_refr.c **** 
 606:Middlewares/lvgl/src/core/lv_refr.c ****     return found_p;
 607:Middlewares/lvgl/src/core/lv_refr.c **** }
 608:Middlewares/lvgl/src/core/lv_refr.c **** 
 609:Middlewares/lvgl/src/core/lv_refr.c **** /**
 610:Middlewares/lvgl/src/core/lv_refr.c ****  * Make the refreshing from an object. Draw all its children and the youngers too.
 611:Middlewares/lvgl/src/core/lv_refr.c ****  * @param top_p pointer to an objects. Start the drawing from it.
 612:Middlewares/lvgl/src/core/lv_refr.c ****  * @param mask_p pointer to an area, the objects will be drawn only here
 613:Middlewares/lvgl/src/core/lv_refr.c ****  */
 614:Middlewares/lvgl/src/core/lv_refr.c **** static void lv_refr_obj_and_children(lv_obj_t * top_p, const lv_area_t * mask_p)
 615:Middlewares/lvgl/src/core/lv_refr.c **** {
 616:Middlewares/lvgl/src/core/lv_refr.c ****     /*Normally always will be a top_obj (at least the screen)
 617:Middlewares/lvgl/src/core/lv_refr.c ****      *but in special cases (e.g. if the screen has alpha) it won't.
 618:Middlewares/lvgl/src/core/lv_refr.c ****      *In this case use the screen directly*/
 619:Middlewares/lvgl/src/core/lv_refr.c ****     if(top_p == NULL) top_p = lv_disp_get_scr_act(disp_refr);
 620:Middlewares/lvgl/src/core/lv_refr.c ****     if(top_p == NULL) return;  /*Shouldn't happen*/
 621:Middlewares/lvgl/src/core/lv_refr.c **** 
 622:Middlewares/lvgl/src/core/lv_refr.c ****     /*Refresh the top object and its children*/
 623:Middlewares/lvgl/src/core/lv_refr.c ****     lv_refr_obj(top_p, mask_p);
 624:Middlewares/lvgl/src/core/lv_refr.c **** 
 625:Middlewares/lvgl/src/core/lv_refr.c ****     /*Draw the 'younger' sibling objects because they can be on top_obj*/
 626:Middlewares/lvgl/src/core/lv_refr.c ****     lv_obj_t * par;
 627:Middlewares/lvgl/src/core/lv_refr.c ****     lv_obj_t * border_p = top_p;
 628:Middlewares/lvgl/src/core/lv_refr.c **** 
 629:Middlewares/lvgl/src/core/lv_refr.c ****     par = lv_obj_get_parent(top_p);
 630:Middlewares/lvgl/src/core/lv_refr.c **** 
 631:Middlewares/lvgl/src/core/lv_refr.c ****     /*Do until not reach the screen*/
 632:Middlewares/lvgl/src/core/lv_refr.c ****     while(par != NULL) {
 633:Middlewares/lvgl/src/core/lv_refr.c ****         bool go = false;
 634:Middlewares/lvgl/src/core/lv_refr.c ****         uint32_t i;
 635:Middlewares/lvgl/src/core/lv_refr.c ****         uint32_t child_cnt = lv_obj_get_child_cnt(par);
 636:Middlewares/lvgl/src/core/lv_refr.c ****         for(i = 0; i < child_cnt; i++) {
 637:Middlewares/lvgl/src/core/lv_refr.c ****             lv_obj_t * child = lv_obj_get_child(par, i);
 638:Middlewares/lvgl/src/core/lv_refr.c ****             if(!go) {
 639:Middlewares/lvgl/src/core/lv_refr.c ****                 if(child == border_p) go = true;
 640:Middlewares/lvgl/src/core/lv_refr.c ****             } else {
 641:Middlewares/lvgl/src/core/lv_refr.c ****                 /*Refresh the objects*/
 642:Middlewares/lvgl/src/core/lv_refr.c ****                 lv_refr_obj(child, mask_p);
 643:Middlewares/lvgl/src/core/lv_refr.c ****             }
 644:Middlewares/lvgl/src/core/lv_refr.c ****         }
 645:Middlewares/lvgl/src/core/lv_refr.c **** 
 646:Middlewares/lvgl/src/core/lv_refr.c ****         /*Call the post draw draw function of the parents of the to object*/
 647:Middlewares/lvgl/src/core/lv_refr.c ****         lv_event_send(par, LV_EVENT_DRAW_POST_BEGIN, (void*)mask_p);
 648:Middlewares/lvgl/src/core/lv_refr.c ****         lv_event_send(par, LV_EVENT_DRAW_POST, (void*)mask_p);
 649:Middlewares/lvgl/src/core/lv_refr.c ****         lv_event_send(par, LV_EVENT_DRAW_POST_END, (void*)mask_p);
 650:Middlewares/lvgl/src/core/lv_refr.c **** 
 651:Middlewares/lvgl/src/core/lv_refr.c ****         /*The new border will be the last parents,
 652:Middlewares/lvgl/src/core/lv_refr.c ****          *so the 'younger' brothers of parent will be refreshed*/
 653:Middlewares/lvgl/src/core/lv_refr.c ****         border_p = par;
 654:Middlewares/lvgl/src/core/lv_refr.c ****         /*Go a level deeper*/
 655:Middlewares/lvgl/src/core/lv_refr.c ****         par = lv_obj_get_parent(par);
 656:Middlewares/lvgl/src/core/lv_refr.c ****     }
 657:Middlewares/lvgl/src/core/lv_refr.c **** }
 658:Middlewares/lvgl/src/core/lv_refr.c **** 
ARM GAS  /tmp/cccpOVCi.s 			page 13


 659:Middlewares/lvgl/src/core/lv_refr.c **** /**
 660:Middlewares/lvgl/src/core/lv_refr.c ****  * Refresh an object an all of its children. (Called recursively)
 661:Middlewares/lvgl/src/core/lv_refr.c ****  * @param obj pointer to an object to refresh
 662:Middlewares/lvgl/src/core/lv_refr.c ****  * @param mask_ori_p pointer to an area, the objects will be drawn only here
 663:Middlewares/lvgl/src/core/lv_refr.c ****  */
 664:Middlewares/lvgl/src/core/lv_refr.c **** static void lv_refr_obj(lv_obj_t * obj, const lv_area_t * mask_ori_p)
 665:Middlewares/lvgl/src/core/lv_refr.c **** {
 666:Middlewares/lvgl/src/core/lv_refr.c ****     /*Do not refresh hidden objects*/
 667:Middlewares/lvgl/src/core/lv_refr.c ****     if(lv_obj_has_flag(obj, LV_OBJ_FLAG_HIDDEN)) return;
 668:Middlewares/lvgl/src/core/lv_refr.c **** 
 669:Middlewares/lvgl/src/core/lv_refr.c ****     bool union_ok; /*Store the return value of area_union*/
 670:Middlewares/lvgl/src/core/lv_refr.c ****     /*Truncate the original mask to the coordinates of the parent
 671:Middlewares/lvgl/src/core/lv_refr.c ****      *because the parent and its children are visible only here*/
 672:Middlewares/lvgl/src/core/lv_refr.c ****     lv_area_t obj_mask;
 673:Middlewares/lvgl/src/core/lv_refr.c ****     lv_area_t obj_ext_mask;
 674:Middlewares/lvgl/src/core/lv_refr.c ****     lv_area_t obj_area;
 675:Middlewares/lvgl/src/core/lv_refr.c ****     lv_coord_t ext_size = _lv_obj_get_ext_draw_size(obj);
 676:Middlewares/lvgl/src/core/lv_refr.c ****     lv_obj_get_coords(obj, &obj_area);
 677:Middlewares/lvgl/src/core/lv_refr.c ****     obj_area.x1 -= ext_size;
 678:Middlewares/lvgl/src/core/lv_refr.c ****     obj_area.y1 -= ext_size;
 679:Middlewares/lvgl/src/core/lv_refr.c ****     obj_area.x2 += ext_size;
 680:Middlewares/lvgl/src/core/lv_refr.c ****     obj_area.y2 += ext_size;
 681:Middlewares/lvgl/src/core/lv_refr.c ****     union_ok = _lv_area_intersect(&obj_ext_mask, mask_ori_p, &obj_area);
 682:Middlewares/lvgl/src/core/lv_refr.c **** 
 683:Middlewares/lvgl/src/core/lv_refr.c ****     /*Draw the parent and its children only if they ore on 'mask_parent'*/
 684:Middlewares/lvgl/src/core/lv_refr.c ****     if(union_ok != false) {
 685:Middlewares/lvgl/src/core/lv_refr.c ****         /*Redraw the object*/
 686:Middlewares/lvgl/src/core/lv_refr.c ****         lv_event_send(obj, LV_EVENT_DRAW_MAIN_BEGIN, &obj_ext_mask);
 687:Middlewares/lvgl/src/core/lv_refr.c ****         lv_event_send(obj, LV_EVENT_DRAW_MAIN, &obj_ext_mask);
 688:Middlewares/lvgl/src/core/lv_refr.c ****         lv_event_send(obj, LV_EVENT_DRAW_MAIN_END, &obj_ext_mask);
 689:Middlewares/lvgl/src/core/lv_refr.c **** 
 690:Middlewares/lvgl/src/core/lv_refr.c **** #if LV_USE_REFR_DEBUG
 691:Middlewares/lvgl/src/core/lv_refr.c ****         lv_color_t debug_color = lv_color_make(lv_rand(0, 0xFF), lv_rand(0, 0xFF), lv_rand(0, 0xFF)
 692:Middlewares/lvgl/src/core/lv_refr.c ****         lv_draw_rect_dsc_t draw_dsc;
 693:Middlewares/lvgl/src/core/lv_refr.c ****         lv_draw_rect_dsc_init(&draw_dsc);
 694:Middlewares/lvgl/src/core/lv_refr.c ****         draw_dsc.bg_color.full = debug_color.full;
 695:Middlewares/lvgl/src/core/lv_refr.c ****         draw_dsc.bg_opa = LV_OPA_20;
 696:Middlewares/lvgl/src/core/lv_refr.c ****         draw_dsc.border_width = 1;
 697:Middlewares/lvgl/src/core/lv_refr.c ****         draw_dsc.border_opa = LV_OPA_30;
 698:Middlewares/lvgl/src/core/lv_refr.c ****         draw_dsc.border_color = debug_color;
 699:Middlewares/lvgl/src/core/lv_refr.c ****         lv_draw_rect(&obj_ext_mask, &obj_ext_mask, &draw_dsc);
 700:Middlewares/lvgl/src/core/lv_refr.c **** #endif
 701:Middlewares/lvgl/src/core/lv_refr.c ****         /*Create a new 'obj_mask' without 'ext_size' because the children can't be visible there*/
 702:Middlewares/lvgl/src/core/lv_refr.c ****         lv_obj_get_coords(obj, &obj_area);
 703:Middlewares/lvgl/src/core/lv_refr.c ****         union_ok = _lv_area_intersect(&obj_mask, mask_ori_p, &obj_area);
 704:Middlewares/lvgl/src/core/lv_refr.c ****         if(union_ok != false) {
 705:Middlewares/lvgl/src/core/lv_refr.c ****             lv_area_t mask_child; /*Mask from obj and its child*/
 706:Middlewares/lvgl/src/core/lv_refr.c ****             lv_area_t child_area;
 707:Middlewares/lvgl/src/core/lv_refr.c ****             uint32_t i;
 708:Middlewares/lvgl/src/core/lv_refr.c ****             uint32_t child_cnt = lv_obj_get_child_cnt(obj);
 709:Middlewares/lvgl/src/core/lv_refr.c ****             for(i = 0; i < child_cnt; i++) {
 710:Middlewares/lvgl/src/core/lv_refr.c ****                 lv_obj_t * child = lv_obj_get_child(obj, i);
 711:Middlewares/lvgl/src/core/lv_refr.c ****                 lv_obj_get_coords(child, &child_area);
 712:Middlewares/lvgl/src/core/lv_refr.c ****                 ext_size = _lv_obj_get_ext_draw_size(child);
 713:Middlewares/lvgl/src/core/lv_refr.c ****                 child_area.x1 -= ext_size;
 714:Middlewares/lvgl/src/core/lv_refr.c ****                 child_area.y1 -= ext_size;
 715:Middlewares/lvgl/src/core/lv_refr.c ****                 child_area.x2 += ext_size;
ARM GAS  /tmp/cccpOVCi.s 			page 14


 716:Middlewares/lvgl/src/core/lv_refr.c ****                 child_area.y2 += ext_size;
 717:Middlewares/lvgl/src/core/lv_refr.c ****                 /*Get the union (common parts) of original mask (from obj)
 718:Middlewares/lvgl/src/core/lv_refr.c ****                  *and its child*/
 719:Middlewares/lvgl/src/core/lv_refr.c ****                 union_ok = _lv_area_intersect(&mask_child, &obj_mask, &child_area);
 720:Middlewares/lvgl/src/core/lv_refr.c **** 
 721:Middlewares/lvgl/src/core/lv_refr.c ****                 /*If the parent and the child has common area then refresh the child*/
 722:Middlewares/lvgl/src/core/lv_refr.c ****                 if(union_ok) {
 723:Middlewares/lvgl/src/core/lv_refr.c ****                     /*Refresh the next children*/
 724:Middlewares/lvgl/src/core/lv_refr.c ****                     lv_refr_obj(child, &mask_child);
 725:Middlewares/lvgl/src/core/lv_refr.c ****                 }
 726:Middlewares/lvgl/src/core/lv_refr.c ****             }
 727:Middlewares/lvgl/src/core/lv_refr.c ****         }
 728:Middlewares/lvgl/src/core/lv_refr.c **** 
 729:Middlewares/lvgl/src/core/lv_refr.c ****         /*If all the children are redrawn make 'post draw' draw*/
 730:Middlewares/lvgl/src/core/lv_refr.c ****         lv_event_send(obj, LV_EVENT_DRAW_POST_BEGIN, &obj_ext_mask);
 731:Middlewares/lvgl/src/core/lv_refr.c ****         lv_event_send(obj, LV_EVENT_DRAW_POST, &obj_ext_mask);
 732:Middlewares/lvgl/src/core/lv_refr.c ****         lv_event_send(obj, LV_EVENT_DRAW_POST_END, &obj_ext_mask);
 733:Middlewares/lvgl/src/core/lv_refr.c ****     }
 734:Middlewares/lvgl/src/core/lv_refr.c **** }
 735:Middlewares/lvgl/src/core/lv_refr.c **** 
 736:Middlewares/lvgl/src/core/lv_refr.c **** static void draw_buf_rotate_180(lv_disp_drv_t *drv, lv_area_t *area, lv_color_t *color_p) {
  28              		.loc 1 736 91 view -0
  29              		.cfi_startproc
  30              		@ args = 0, pretend = 0, frame = 0
  31              		@ frame_needed = 0, uses_anonymous_args = 0
  32              		.loc 1 736 91 is_stmt 0 view .LVU1
  33 0000 10B5     		push	{r4, lr}
  34              	.LCFI0:
  35              		.cfi_def_cfa_offset 8
  36              		.cfi_offset 4, -8
  37              		.cfi_offset 14, -4
 737:Middlewares/lvgl/src/core/lv_refr.c ****     lv_coord_t area_w = lv_area_get_width(area);
  38              		.loc 1 737 5 is_stmt 1 view .LVU2
  39              	.LVL1:
  40              	.LBB33:
  41              	.LBI33:
  42              		.file 2 "Middlewares/lvgl/src/core/../misc/../font/../misc/lv_area.h"
   1:Middlewares/lvgl/src/core/../misc/../font/../misc/lv_area.h **** /**
   2:Middlewares/lvgl/src/core/../misc/../font/../misc/lv_area.h ****  * @file lv_area.h
   3:Middlewares/lvgl/src/core/../misc/../font/../misc/lv_area.h ****  *
   4:Middlewares/lvgl/src/core/../misc/../font/../misc/lv_area.h ****  */
   5:Middlewares/lvgl/src/core/../misc/../font/../misc/lv_area.h **** 
   6:Middlewares/lvgl/src/core/../misc/../font/../misc/lv_area.h **** #ifndef LV_AREA_H
   7:Middlewares/lvgl/src/core/../misc/../font/../misc/lv_area.h **** #define LV_AREA_H
   8:Middlewares/lvgl/src/core/../misc/../font/../misc/lv_area.h **** 
   9:Middlewares/lvgl/src/core/../misc/../font/../misc/lv_area.h **** #ifdef __cplusplus
  10:Middlewares/lvgl/src/core/../misc/../font/../misc/lv_area.h **** extern "C" {
  11:Middlewares/lvgl/src/core/../misc/../font/../misc/lv_area.h **** #endif
  12:Middlewares/lvgl/src/core/../misc/../font/../misc/lv_area.h **** 
  13:Middlewares/lvgl/src/core/../misc/../font/../misc/lv_area.h **** /*********************
  14:Middlewares/lvgl/src/core/../misc/../font/../misc/lv_area.h ****  *      INCLUDES
  15:Middlewares/lvgl/src/core/../misc/../font/../misc/lv_area.h ****  *********************/
  16:Middlewares/lvgl/src/core/../misc/../font/../misc/lv_area.h **** #include "../lv_conf_internal.h"
  17:Middlewares/lvgl/src/core/../misc/../font/../misc/lv_area.h **** #include <string.h>
  18:Middlewares/lvgl/src/core/../misc/../font/../misc/lv_area.h **** #include <stdbool.h>
  19:Middlewares/lvgl/src/core/../misc/../font/../misc/lv_area.h **** #include <stdint.h>
  20:Middlewares/lvgl/src/core/../misc/../font/../misc/lv_area.h **** 
ARM GAS  /tmp/cccpOVCi.s 			page 15


  21:Middlewares/lvgl/src/core/../misc/../font/../misc/lv_area.h **** /*********************
  22:Middlewares/lvgl/src/core/../misc/../font/../misc/lv_area.h ****  *      DEFINES
  23:Middlewares/lvgl/src/core/../misc/../font/../misc/lv_area.h ****  *********************/
  24:Middlewares/lvgl/src/core/../misc/../font/../misc/lv_area.h **** 
  25:Middlewares/lvgl/src/core/../misc/../font/../misc/lv_area.h **** #define _LV_COORD_MAX_REDUCE    8192
  26:Middlewares/lvgl/src/core/../misc/../font/../misc/lv_area.h **** 
  27:Middlewares/lvgl/src/core/../misc/../font/../misc/lv_area.h **** #if LV_USE_LARGE_COORD
  28:Middlewares/lvgl/src/core/../misc/../font/../misc/lv_area.h **** typedef int32_t lv_coord_t;
  29:Middlewares/lvgl/src/core/../misc/../font/../misc/lv_area.h **** #else
  30:Middlewares/lvgl/src/core/../misc/../font/../misc/lv_area.h **** typedef int16_t lv_coord_t;
  31:Middlewares/lvgl/src/core/../misc/../font/../misc/lv_area.h **** #endif
  32:Middlewares/lvgl/src/core/../misc/../font/../misc/lv_area.h **** 
  33:Middlewares/lvgl/src/core/../misc/../font/../misc/lv_area.h **** /*To allow some special values in the end reduce the max value*/
  34:Middlewares/lvgl/src/core/../misc/../font/../misc/lv_area.h **** #define LV_COORD_MAX ((lv_coord_t)((uint32_t)((uint32_t)1 << (8 * sizeof(lv_coord_t) - 1)) - _LV_CO
  35:Middlewares/lvgl/src/core/../misc/../font/../misc/lv_area.h **** #define LV_COORD_MIN (-LV_COORD_MAX)
  36:Middlewares/lvgl/src/core/../misc/../font/../misc/lv_area.h **** 
  37:Middlewares/lvgl/src/core/../misc/../font/../misc/lv_area.h **** LV_EXPORT_CONST_INT(LV_COORD_MAX);
  38:Middlewares/lvgl/src/core/../misc/../font/../misc/lv_area.h **** LV_EXPORT_CONST_INT(LV_COORD_MIN);
  39:Middlewares/lvgl/src/core/../misc/../font/../misc/lv_area.h **** 
  40:Middlewares/lvgl/src/core/../misc/../font/../misc/lv_area.h **** /**********************
  41:Middlewares/lvgl/src/core/../misc/../font/../misc/lv_area.h ****  *      TYPEDEFS
  42:Middlewares/lvgl/src/core/../misc/../font/../misc/lv_area.h ****  **********************/
  43:Middlewares/lvgl/src/core/../misc/../font/../misc/lv_area.h **** 
  44:Middlewares/lvgl/src/core/../misc/../font/../misc/lv_area.h **** /**
  45:Middlewares/lvgl/src/core/../misc/../font/../misc/lv_area.h ****  * Represents a point on the screen.
  46:Middlewares/lvgl/src/core/../misc/../font/../misc/lv_area.h ****  */
  47:Middlewares/lvgl/src/core/../misc/../font/../misc/lv_area.h **** typedef struct {
  48:Middlewares/lvgl/src/core/../misc/../font/../misc/lv_area.h ****     lv_coord_t x;
  49:Middlewares/lvgl/src/core/../misc/../font/../misc/lv_area.h ****     lv_coord_t y;
  50:Middlewares/lvgl/src/core/../misc/../font/../misc/lv_area.h **** } lv_point_t;
  51:Middlewares/lvgl/src/core/../misc/../font/../misc/lv_area.h **** 
  52:Middlewares/lvgl/src/core/../misc/../font/../misc/lv_area.h **** /** Represents an area of the screen.*/
  53:Middlewares/lvgl/src/core/../misc/../font/../misc/lv_area.h **** typedef struct {
  54:Middlewares/lvgl/src/core/../misc/../font/../misc/lv_area.h ****     lv_coord_t x1;
  55:Middlewares/lvgl/src/core/../misc/../font/../misc/lv_area.h ****     lv_coord_t y1;
  56:Middlewares/lvgl/src/core/../misc/../font/../misc/lv_area.h ****     lv_coord_t x2;
  57:Middlewares/lvgl/src/core/../misc/../font/../misc/lv_area.h ****     lv_coord_t y2;
  58:Middlewares/lvgl/src/core/../misc/../font/../misc/lv_area.h **** } lv_area_t;
  59:Middlewares/lvgl/src/core/../misc/../font/../misc/lv_area.h **** 
  60:Middlewares/lvgl/src/core/../misc/../font/../misc/lv_area.h **** /** Alignments*/
  61:Middlewares/lvgl/src/core/../misc/../font/../misc/lv_area.h **** enum {
  62:Middlewares/lvgl/src/core/../misc/../font/../misc/lv_area.h ****     LV_ALIGN_DEFAULT = 0,
  63:Middlewares/lvgl/src/core/../misc/../font/../misc/lv_area.h ****     LV_ALIGN_TOP_LEFT,
  64:Middlewares/lvgl/src/core/../misc/../font/../misc/lv_area.h ****     LV_ALIGN_TOP_MID,
  65:Middlewares/lvgl/src/core/../misc/../font/../misc/lv_area.h ****     LV_ALIGN_TOP_RIGHT,
  66:Middlewares/lvgl/src/core/../misc/../font/../misc/lv_area.h ****     LV_ALIGN_BOTTOM_LEFT,
  67:Middlewares/lvgl/src/core/../misc/../font/../misc/lv_area.h ****     LV_ALIGN_BOTTOM_MID,
  68:Middlewares/lvgl/src/core/../misc/../font/../misc/lv_area.h ****     LV_ALIGN_BOTTOM_RIGHT,
  69:Middlewares/lvgl/src/core/../misc/../font/../misc/lv_area.h ****     LV_ALIGN_LEFT_MID,
  70:Middlewares/lvgl/src/core/../misc/../font/../misc/lv_area.h ****     LV_ALIGN_RIGHT_MID,
  71:Middlewares/lvgl/src/core/../misc/../font/../misc/lv_area.h ****     LV_ALIGN_CENTER,
  72:Middlewares/lvgl/src/core/../misc/../font/../misc/lv_area.h **** 
  73:Middlewares/lvgl/src/core/../misc/../font/../misc/lv_area.h ****     LV_ALIGN_OUT_TOP_LEFT,
  74:Middlewares/lvgl/src/core/../misc/../font/../misc/lv_area.h ****     LV_ALIGN_OUT_TOP_MID,
  75:Middlewares/lvgl/src/core/../misc/../font/../misc/lv_area.h ****     LV_ALIGN_OUT_TOP_RIGHT,
  76:Middlewares/lvgl/src/core/../misc/../font/../misc/lv_area.h ****     LV_ALIGN_OUT_BOTTOM_LEFT,
  77:Middlewares/lvgl/src/core/../misc/../font/../misc/lv_area.h ****     LV_ALIGN_OUT_BOTTOM_MID,
ARM GAS  /tmp/cccpOVCi.s 			page 16


  78:Middlewares/lvgl/src/core/../misc/../font/../misc/lv_area.h ****     LV_ALIGN_OUT_BOTTOM_RIGHT,
  79:Middlewares/lvgl/src/core/../misc/../font/../misc/lv_area.h ****     LV_ALIGN_OUT_LEFT_TOP,
  80:Middlewares/lvgl/src/core/../misc/../font/../misc/lv_area.h ****     LV_ALIGN_OUT_LEFT_MID,
  81:Middlewares/lvgl/src/core/../misc/../font/../misc/lv_area.h ****     LV_ALIGN_OUT_LEFT_BOTTOM,
  82:Middlewares/lvgl/src/core/../misc/../font/../misc/lv_area.h ****     LV_ALIGN_OUT_RIGHT_TOP,
  83:Middlewares/lvgl/src/core/../misc/../font/../misc/lv_area.h ****     LV_ALIGN_OUT_RIGHT_MID,
  84:Middlewares/lvgl/src/core/../misc/../font/../misc/lv_area.h ****     LV_ALIGN_OUT_RIGHT_BOTTOM,
  85:Middlewares/lvgl/src/core/../misc/../font/../misc/lv_area.h **** };
  86:Middlewares/lvgl/src/core/../misc/../font/../misc/lv_area.h **** typedef uint8_t lv_align_t;
  87:Middlewares/lvgl/src/core/../misc/../font/../misc/lv_area.h **** 
  88:Middlewares/lvgl/src/core/../misc/../font/../misc/lv_area.h **** enum {
  89:Middlewares/lvgl/src/core/../misc/../font/../misc/lv_area.h ****     LV_DIR_NONE     = 0x00,
  90:Middlewares/lvgl/src/core/../misc/../font/../misc/lv_area.h ****     LV_DIR_LEFT     = (1 << 0),
  91:Middlewares/lvgl/src/core/../misc/../font/../misc/lv_area.h ****     LV_DIR_RIGHT    = (1 << 1),
  92:Middlewares/lvgl/src/core/../misc/../font/../misc/lv_area.h ****     LV_DIR_TOP      = (1 << 2),
  93:Middlewares/lvgl/src/core/../misc/../font/../misc/lv_area.h ****     LV_DIR_BOTTOM   = (1 << 3),
  94:Middlewares/lvgl/src/core/../misc/../font/../misc/lv_area.h ****     LV_DIR_HOR      = LV_DIR_LEFT | LV_DIR_RIGHT,
  95:Middlewares/lvgl/src/core/../misc/../font/../misc/lv_area.h ****     LV_DIR_VER      = LV_DIR_TOP | LV_DIR_BOTTOM,
  96:Middlewares/lvgl/src/core/../misc/../font/../misc/lv_area.h ****     LV_DIR_ALL      = LV_DIR_HOR | LV_DIR_VER,
  97:Middlewares/lvgl/src/core/../misc/../font/../misc/lv_area.h **** };
  98:Middlewares/lvgl/src/core/../misc/../font/../misc/lv_area.h **** 
  99:Middlewares/lvgl/src/core/../misc/../font/../misc/lv_area.h **** typedef uint8_t lv_dir_t;
 100:Middlewares/lvgl/src/core/../misc/../font/../misc/lv_area.h **** 
 101:Middlewares/lvgl/src/core/../misc/../font/../misc/lv_area.h **** /**********************
 102:Middlewares/lvgl/src/core/../misc/../font/../misc/lv_area.h ****  * GLOBAL PROTOTYPES
 103:Middlewares/lvgl/src/core/../misc/../font/../misc/lv_area.h ****  **********************/
 104:Middlewares/lvgl/src/core/../misc/../font/../misc/lv_area.h **** 
 105:Middlewares/lvgl/src/core/../misc/../font/../misc/lv_area.h **** /**
 106:Middlewares/lvgl/src/core/../misc/../font/../misc/lv_area.h ****  * Initialize an area
 107:Middlewares/lvgl/src/core/../misc/../font/../misc/lv_area.h ****  * @param area_p pointer to an area
 108:Middlewares/lvgl/src/core/../misc/../font/../misc/lv_area.h ****  * @param x1 left coordinate of the area
 109:Middlewares/lvgl/src/core/../misc/../font/../misc/lv_area.h ****  * @param y1 top coordinate of the area
 110:Middlewares/lvgl/src/core/../misc/../font/../misc/lv_area.h ****  * @param x2 right coordinate of the area
 111:Middlewares/lvgl/src/core/../misc/../font/../misc/lv_area.h ****  * @param y2 bottom coordinate of the area
 112:Middlewares/lvgl/src/core/../misc/../font/../misc/lv_area.h ****  */
 113:Middlewares/lvgl/src/core/../misc/../font/../misc/lv_area.h **** void lv_area_set(lv_area_t * area_p, lv_coord_t x1, lv_coord_t y1, lv_coord_t x2, lv_coord_t y2);
 114:Middlewares/lvgl/src/core/../misc/../font/../misc/lv_area.h **** 
 115:Middlewares/lvgl/src/core/../misc/../font/../misc/lv_area.h **** /**
 116:Middlewares/lvgl/src/core/../misc/../font/../misc/lv_area.h ****  * Copy an area
 117:Middlewares/lvgl/src/core/../misc/../font/../misc/lv_area.h ****  * @param dest pointer to the destination area
 118:Middlewares/lvgl/src/core/../misc/../font/../misc/lv_area.h ****  * @param src pointer to the source area
 119:Middlewares/lvgl/src/core/../misc/../font/../misc/lv_area.h ****  */
 120:Middlewares/lvgl/src/core/../misc/../font/../misc/lv_area.h **** inline static void lv_area_copy(lv_area_t * dest, const lv_area_t * src)
 121:Middlewares/lvgl/src/core/../misc/../font/../misc/lv_area.h **** {
 122:Middlewares/lvgl/src/core/../misc/../font/../misc/lv_area.h ****     dest->x1 = src->x1;
 123:Middlewares/lvgl/src/core/../misc/../font/../misc/lv_area.h ****     dest->y1 = src->y1;
 124:Middlewares/lvgl/src/core/../misc/../font/../misc/lv_area.h ****     dest->x2 = src->x2;
 125:Middlewares/lvgl/src/core/../misc/../font/../misc/lv_area.h ****     dest->y2 = src->y2;
 126:Middlewares/lvgl/src/core/../misc/../font/../misc/lv_area.h **** }
 127:Middlewares/lvgl/src/core/../misc/../font/../misc/lv_area.h **** 
 128:Middlewares/lvgl/src/core/../misc/../font/../misc/lv_area.h **** /**
 129:Middlewares/lvgl/src/core/../misc/../font/../misc/lv_area.h ****  * Get the width of an area
 130:Middlewares/lvgl/src/core/../misc/../font/../misc/lv_area.h ****  * @param area_p pointer to an area
 131:Middlewares/lvgl/src/core/../misc/../font/../misc/lv_area.h ****  * @return the width of the area (if x1 == x2 -> width = 1)
 132:Middlewares/lvgl/src/core/../misc/../font/../misc/lv_area.h ****  */
 133:Middlewares/lvgl/src/core/../misc/../font/../misc/lv_area.h **** static inline lv_coord_t lv_area_get_width(const lv_area_t * area_p)
  43              		.loc 2 133 26 view .LVU3
ARM GAS  /tmp/cccpOVCi.s 			page 17


  44              	.LBB34:
 134:Middlewares/lvgl/src/core/../misc/../font/../misc/lv_area.h **** {
 135:Middlewares/lvgl/src/core/../misc/../font/../misc/lv_area.h ****     return (lv_coord_t)(area_p->x2 - area_p->x1 + 1);
  45              		.loc 2 135 5 view .LVU4
  46              		.loc 2 135 31 is_stmt 0 view .LVU5
  47 0002 8B88     		ldrh	r3, [r1, #4]
  48              		.loc 2 135 44 view .LVU6
  49 0004 B1F800C0 		ldrh	ip, [r1]
  50              		.loc 2 135 36 view .LVU7
  51 0008 A3EB0C03 		sub	r3, r3, ip
  52 000c 9BB2     		uxth	r3, r3
  53              		.loc 2 135 49 view .LVU8
  54 000e 0133     		adds	r3, r3, #1
  55              		.loc 2 135 12 view .LVU9
  56 0010 1BB2     		sxth	r3, r3
  57              	.LVL2:
  58              		.loc 2 135 12 view .LVU10
  59              	.LBE34:
  60              	.LBE33:
 738:Middlewares/lvgl/src/core/lv_refr.c ****     lv_coord_t area_h = lv_area_get_height(area);
  61              		.loc 1 738 5 is_stmt 1 view .LVU11
  62              	.LBB35:
  63              	.LBI35:
 136:Middlewares/lvgl/src/core/../misc/../font/../misc/lv_area.h **** }
 137:Middlewares/lvgl/src/core/../misc/../font/../misc/lv_area.h **** 
 138:Middlewares/lvgl/src/core/../misc/../font/../misc/lv_area.h **** /**
 139:Middlewares/lvgl/src/core/../misc/../font/../misc/lv_area.h ****  * Get the height of an area
 140:Middlewares/lvgl/src/core/../misc/../font/../misc/lv_area.h ****  * @param area_p pointer to an area
 141:Middlewares/lvgl/src/core/../misc/../font/../misc/lv_area.h ****  * @return the height of the area (if y1 == y2 -> height = 1)
 142:Middlewares/lvgl/src/core/../misc/../font/../misc/lv_area.h ****  */
 143:Middlewares/lvgl/src/core/../misc/../font/../misc/lv_area.h **** static inline lv_coord_t lv_area_get_height(const lv_area_t * area_p)
  64              		.loc 2 143 26 view .LVU12
  65              	.LBB36:
 144:Middlewares/lvgl/src/core/../misc/../font/../misc/lv_area.h **** {
 145:Middlewares/lvgl/src/core/../misc/../font/../misc/lv_area.h ****     return (lv_coord_t)(area_p->y2 - area_p->y1 + 1);
  66              		.loc 2 145 5 view .LVU13
  67              		.loc 2 145 31 is_stmt 0 view .LVU14
  68 0012 B1F806C0 		ldrh	ip, [r1, #6]
  69              		.loc 2 145 44 view .LVU15
  70 0016 B1F802E0 		ldrh	lr, [r1, #2]
  71              		.loc 2 145 36 view .LVU16
  72 001a ACEB0E0C 		sub	ip, ip, lr
  73 001e 1FFA8CFC 		uxth	ip, ip
  74              		.loc 2 145 49 view .LVU17
  75 0022 0CF1010C 		add	ip, ip, #1
  76              		.loc 2 145 12 view .LVU18
  77 0026 0FFA8CFC 		sxth	ip, ip
  78              	.LVL3:
  79              		.loc 2 145 12 view .LVU19
  80              	.LBE36:
  81              	.LBE35:
 739:Middlewares/lvgl/src/core/lv_refr.c ****     uint32_t total = area_w * area_h;
  82              		.loc 1 739 5 is_stmt 1 view .LVU20
  83              		.loc 1 739 29 is_stmt 0 view .LVU21
  84 002a 0CFB03F3 		mul	r3, ip, r3
  85              	.LVL4:
 740:Middlewares/lvgl/src/core/lv_refr.c ****     /*Swap the beginning and end values*/
ARM GAS  /tmp/cccpOVCi.s 			page 18


 741:Middlewares/lvgl/src/core/lv_refr.c ****     lv_color_t tmp;
  86              		.loc 1 741 5 is_stmt 1 view .LVU22
 742:Middlewares/lvgl/src/core/lv_refr.c ****     uint32_t i = total - 1, j = 0;
  87              		.loc 1 742 5 view .LVU23
  88              		.loc 1 742 14 is_stmt 0 view .LVU24
  89 002e 013B     		subs	r3, r3, #1
  90              	.LVL5:
 743:Middlewares/lvgl/src/core/lv_refr.c ****     while(i > j) {
  91              		.loc 1 743 5 is_stmt 1 view .LVU25
 742:Middlewares/lvgl/src/core/lv_refr.c ****     uint32_t i = total - 1, j = 0;
  92              		.loc 1 742 29 is_stmt 0 view .LVU26
  93 0030 4FF0000C 		mov	ip, #0
  94              	.LVL6:
  95              		.loc 1 743 10 view .LVU27
  96 0034 0AE0     		b	.L2
  97              	.LVL7:
  98              	.L3:
 744:Middlewares/lvgl/src/core/lv_refr.c ****         tmp = color_p[i];
  99              		.loc 1 744 9 is_stmt 1 view .LVU28
 100              		.loc 1 744 13 is_stmt 0 view .LVU29
 101 0036 32F813E0 		ldrh	lr, [r2, r3, lsl #1]
 102              	.LVL8:
 745:Middlewares/lvgl/src/core/lv_refr.c ****         color_p[i] = color_p[j];
 103              		.loc 1 745 9 is_stmt 1 view .LVU30
 104              		.loc 1 745 20 is_stmt 0 view .LVU31
 105 003a 32F81C40 		ldrh	r4, [r2, ip, lsl #1]
 106 003e 22F81340 		strh	r4, [r2, r3, lsl #1]	@ movhi
 746:Middlewares/lvgl/src/core/lv_refr.c ****         color_p[j] = tmp;
 107              		.loc 1 746 9 is_stmt 1 view .LVU32
 108              	.LVL9:
 109              		.loc 1 746 20 is_stmt 0 view .LVU33
 110 0042 22F81CE0 		strh	lr, [r2, ip, lsl #1]	@ movhi
 747:Middlewares/lvgl/src/core/lv_refr.c ****         i--;
 111              		.loc 1 747 9 is_stmt 1 view .LVU34
 112              		.loc 1 747 10 is_stmt 0 view .LVU35
 113 0046 013B     		subs	r3, r3, #1
 114              	.LVL10:
 748:Middlewares/lvgl/src/core/lv_refr.c ****         j++;
 115              		.loc 1 748 9 is_stmt 1 view .LVU36
 116              		.loc 1 748 10 is_stmt 0 view .LVU37
 117 0048 0CF1010C 		add	ip, ip, #1
 118              	.LVL11:
 119              	.L2:
 743:Middlewares/lvgl/src/core/lv_refr.c ****         tmp = color_p[i];
 120              		.loc 1 743 10 is_stmt 1 view .LVU38
 121 004c 6345     		cmp	r3, ip
 122 004e F2D8     		bhi	.L3
 749:Middlewares/lvgl/src/core/lv_refr.c ****     }
 750:Middlewares/lvgl/src/core/lv_refr.c ****     lv_coord_t tmp_coord;
 123              		.loc 1 750 5 view .LVU39
 751:Middlewares/lvgl/src/core/lv_refr.c ****     tmp_coord = area->y2;
 124              		.loc 1 751 5 view .LVU40
 125              		.loc 1 751 15 is_stmt 0 view .LVU41
 126 0050 B1F906C0 		ldrsh	ip, [r1, #6]
 127              	.LVL12:
 752:Middlewares/lvgl/src/core/lv_refr.c ****     area->y2 = drv->ver_res - area->y1 - 1;
 128              		.loc 1 752 5 is_stmt 1 view .LVU42
ARM GAS  /tmp/cccpOVCi.s 			page 19


 129              		.loc 1 752 19 is_stmt 0 view .LVU43
 130 0054 4288     		ldrh	r2, [r0, #2]
 131              	.LVL13:
 132              		.loc 1 752 35 view .LVU44
 133 0056 4B88     		ldrh	r3, [r1, #2]
 134              	.LVL14:
 135              		.loc 1 752 29 view .LVU45
 136 0058 D21A     		subs	r2, r2, r3
 137 005a 92B2     		uxth	r2, r2
 138              		.loc 1 752 40 view .LVU46
 139 005c 013A     		subs	r2, r2, #1
 140              		.loc 1 752 14 view .LVU47
 141 005e CA80     		strh	r2, [r1, #6]	@ movhi
 753:Middlewares/lvgl/src/core/lv_refr.c ****     area->y1 = drv->ver_res - tmp_coord - 1;
 142              		.loc 1 753 5 is_stmt 1 view .LVU48
 143              		.loc 1 753 19 is_stmt 0 view .LVU49
 144 0060 4388     		ldrh	r3, [r0, #2]
 145              		.loc 1 753 29 view .LVU50
 146 0062 A3EB0C03 		sub	r3, r3, ip
 147 0066 9BB2     		uxth	r3, r3
 148              		.loc 1 753 41 view .LVU51
 149 0068 013B     		subs	r3, r3, #1
 150              		.loc 1 753 14 view .LVU52
 151 006a 4B80     		strh	r3, [r1, #2]	@ movhi
 754:Middlewares/lvgl/src/core/lv_refr.c ****     tmp_coord = area->x2;
 152              		.loc 1 754 5 is_stmt 1 view .LVU53
 153              		.loc 1 754 15 is_stmt 0 view .LVU54
 154 006c B1F904C0 		ldrsh	ip, [r1, #4]
 155              	.LVL15:
 755:Middlewares/lvgl/src/core/lv_refr.c ****     area->x2 = drv->hor_res - area->x1 - 1;
 156              		.loc 1 755 5 is_stmt 1 view .LVU55
 157              		.loc 1 755 19 is_stmt 0 view .LVU56
 158 0070 0288     		ldrh	r2, [r0]
 159              		.loc 1 755 35 view .LVU57
 160 0072 0B88     		ldrh	r3, [r1]
 161              		.loc 1 755 29 view .LVU58
 162 0074 D21A     		subs	r2, r2, r3
 163 0076 92B2     		uxth	r2, r2
 164              		.loc 1 755 40 view .LVU59
 165 0078 013A     		subs	r2, r2, #1
 166              		.loc 1 755 14 view .LVU60
 167 007a 8A80     		strh	r2, [r1, #4]	@ movhi
 756:Middlewares/lvgl/src/core/lv_refr.c ****     area->x1 = drv->hor_res - tmp_coord - 1;
 168              		.loc 1 756 5 is_stmt 1 view .LVU61
 169              		.loc 1 756 19 is_stmt 0 view .LVU62
 170 007c 0388     		ldrh	r3, [r0]
 171              		.loc 1 756 29 view .LVU63
 172 007e A3EB0C03 		sub	r3, r3, ip
 173 0082 9BB2     		uxth	r3, r3
 174              		.loc 1 756 41 view .LVU64
 175 0084 013B     		subs	r3, r3, #1
 176              		.loc 1 756 14 view .LVU65
 177 0086 0B80     		strh	r3, [r1]	@ movhi
 757:Middlewares/lvgl/src/core/lv_refr.c **** }
 178              		.loc 1 757 1 view .LVU66
 179 0088 10BD     		pop	{r4, pc}
 180              		.cfi_endproc
ARM GAS  /tmp/cccpOVCi.s 			page 20


 181              	.LFE166:
 183              		.section	.text.draw_buf_rotate_90,"ax",%progbits
 184              		.align	1
 185              		.syntax unified
 186              		.thumb
 187              		.thumb_func
 188              		.fpu fpv5-d16
 190              	draw_buf_rotate_90:
 191              	.LVL16:
 192              	.LFB167:
 758:Middlewares/lvgl/src/core/lv_refr.c **** 
 759:Middlewares/lvgl/src/core/lv_refr.c **** static LV_ATTRIBUTE_FAST_MEM void draw_buf_rotate_90(bool invert_i, lv_coord_t area_w, lv_coord_t a
 193              		.loc 1 759 154 is_stmt 1 view -0
 194              		.cfi_startproc
 195              		@ args = 4, pretend = 0, frame = 0
 196              		@ frame_needed = 0, uses_anonymous_args = 0
 197              		.loc 1 759 154 is_stmt 0 view .LVU68
 198 0000 2DE9F041 		push	{r4, r5, r6, r7, r8, lr}
 199              	.LCFI1:
 200              		.cfi_def_cfa_offset 24
 201              		.cfi_offset 4, -24
 202              		.cfi_offset 5, -20
 203              		.cfi_offset 6, -16
 204              		.cfi_offset 7, -12
 205              		.cfi_offset 8, -8
 206              		.cfi_offset 14, -4
 207 0004 0446     		mov	r4, r0
 208 0006 0846     		mov	r0, r1
 209              	.LVL17:
 210              		.loc 1 759 154 view .LVU69
 211 0008 1146     		mov	r1, r2
 212              	.LVL18:
 213              		.loc 1 759 154 view .LVU70
 214 000a 069D     		ldr	r5, [sp, #24]
 760:Middlewares/lvgl/src/core/lv_refr.c **** 
 761:Middlewares/lvgl/src/core/lv_refr.c ****     uint32_t invert = (area_w * area_h) - 1;
 215              		.loc 1 761 5 is_stmt 1 view .LVU71
 216              		.loc 1 761 31 is_stmt 0 view .LVU72
 217 000c 02FB00F8 		mul	r8, r2, r0
 218              		.loc 1 761 41 view .LVU73
 219 0010 08F1FF38 		add	r8, r8, #-1
 220              	.LVL19:
 762:Middlewares/lvgl/src/core/lv_refr.c ****     uint32_t initial_i = ((area_w - 1) * area_h);
 221              		.loc 1 762 5 is_stmt 1 view .LVU74
 222              		.loc 1 762 35 is_stmt 0 view .LVU75
 223 0014 471E     		subs	r7, r0, #1
 224              		.loc 1 762 40 view .LVU76
 225 0016 02FB07F7 		mul	r7, r2, r7
 226              	.LVL20:
 763:Middlewares/lvgl/src/core/lv_refr.c ****     for(lv_coord_t y = 0; y < area_h; y++) {
 227              		.loc 1 763 5 is_stmt 1 view .LVU77
 228              	.LBB37:
 229              		.loc 1 763 9 view .LVU78
 230              		.loc 1 763 20 is_stmt 0 view .LVU79
 231 001a 0026     		movs	r6, #0
 232              		.loc 1 763 5 view .LVU80
 233 001c 11E0     		b	.L6
ARM GAS  /tmp/cccpOVCi.s 			page 21


 234              	.LVL21:
 235              	.L9:
 236              	.LBB38:
 237              	.LBB39:
 764:Middlewares/lvgl/src/core/lv_refr.c ****         uint32_t i = initial_i + y;
 765:Middlewares/lvgl/src/core/lv_refr.c ****         if(invert_i)
 766:Middlewares/lvgl/src/core/lv_refr.c ****             i = invert - i;
 767:Middlewares/lvgl/src/core/lv_refr.c ****         for(lv_coord_t x = 0; x < area_w; x++) {
 768:Middlewares/lvgl/src/core/lv_refr.c ****             rot_buf[i] = *(orig_color_p++);
 769:Middlewares/lvgl/src/core/lv_refr.c ****             if(invert_i)
 770:Middlewares/lvgl/src/core/lv_refr.c ****                 i += area_h;
 771:Middlewares/lvgl/src/core/lv_refr.c ****             else
 772:Middlewares/lvgl/src/core/lv_refr.c ****                 i -= area_h;
 238              		.loc 1 772 17 is_stmt 1 view .LVU81
 239              		.loc 1 772 19 is_stmt 0 view .LVU82
 240 001e AEEB010E 		sub	lr, lr, r1
 241              	.LVL22:
 242              	.L10:
 767:Middlewares/lvgl/src/core/lv_refr.c ****             rot_buf[i] = *(orig_color_p++);
 243              		.loc 1 767 43 is_stmt 1 discriminator 2 view .LVU83
 767:Middlewares/lvgl/src/core/lv_refr.c ****             rot_buf[i] = *(orig_color_p++);
 244              		.loc 1 767 44 is_stmt 0 discriminator 2 view .LVU84
 245 0022 0CF1010C 		add	ip, ip, #1
 246              	.LVL23:
 767:Middlewares/lvgl/src/core/lv_refr.c ****             rot_buf[i] = *(orig_color_p++);
 247              		.loc 1 767 44 discriminator 2 view .LVU85
 248 0026 0FFA8CFC 		sxth	ip, ip
 249              	.LVL24:
 250              	.L8:
 767:Middlewares/lvgl/src/core/lv_refr.c ****             rot_buf[i] = *(orig_color_p++);
 251              		.loc 1 767 31 is_stmt 1 discriminator 1 view .LVU86
 767:Middlewares/lvgl/src/core/lv_refr.c ****             rot_buf[i] = *(orig_color_p++);
 252              		.loc 1 767 9 is_stmt 0 discriminator 1 view .LVU87
 253 002a 8445     		cmp	ip, r0
 254 002c 07DA     		bge	.L14
 768:Middlewares/lvgl/src/core/lv_refr.c ****             if(invert_i)
 255              		.loc 1 768 13 is_stmt 1 view .LVU88
 256              	.LVL25:
 768:Middlewares/lvgl/src/core/lv_refr.c ****             if(invert_i)
 257              		.loc 1 768 24 is_stmt 0 view .LVU89
 258 002e 33F8022B 		ldrh	r2, [r3], #2
 259              	.LVL26:
 768:Middlewares/lvgl/src/core/lv_refr.c ****             if(invert_i)
 260              		.loc 1 768 24 view .LVU90
 261 0032 25F81E20 		strh	r2, [r5, lr, lsl #1]	@ movhi
 769:Middlewares/lvgl/src/core/lv_refr.c ****                 i += area_h;
 262              		.loc 1 769 13 is_stmt 1 view .LVU91
 769:Middlewares/lvgl/src/core/lv_refr.c ****                 i += area_h;
 263              		.loc 1 769 15 is_stmt 0 view .LVU92
 264 0036 002C     		cmp	r4, #0
 265 0038 F1D0     		beq	.L9
 770:Middlewares/lvgl/src/core/lv_refr.c ****             else
 266              		.loc 1 770 17 is_stmt 1 view .LVU93
 770:Middlewares/lvgl/src/core/lv_refr.c ****             else
 267              		.loc 1 770 19 is_stmt 0 view .LVU94
 268 003a 8E44     		add	lr, lr, r1
 269              	.LVL27:
ARM GAS  /tmp/cccpOVCi.s 			page 22


 770:Middlewares/lvgl/src/core/lv_refr.c ****             else
 270              		.loc 1 770 19 view .LVU95
 271 003c F1E7     		b	.L10
 272              	.L14:
 770:Middlewares/lvgl/src/core/lv_refr.c ****             else
 273              		.loc 1 770 19 view .LVU96
 274              	.LBE39:
 275              	.LBE38:
 763:Middlewares/lvgl/src/core/lv_refr.c ****         uint32_t i = initial_i + y;
 276              		.loc 1 763 39 is_stmt 1 discriminator 2 view .LVU97
 763:Middlewares/lvgl/src/core/lv_refr.c ****         uint32_t i = initial_i + y;
 277              		.loc 1 763 40 is_stmt 0 discriminator 2 view .LVU98
 278 003e 0136     		adds	r6, r6, #1
 279              	.LVL28:
 763:Middlewares/lvgl/src/core/lv_refr.c ****         uint32_t i = initial_i + y;
 280              		.loc 1 763 40 discriminator 2 view .LVU99
 281 0040 36B2     		sxth	r6, r6
 282              	.LVL29:
 283              	.L6:
 763:Middlewares/lvgl/src/core/lv_refr.c ****         uint32_t i = initial_i + y;
 284              		.loc 1 763 27 is_stmt 1 discriminator 1 view .LVU100
 763:Middlewares/lvgl/src/core/lv_refr.c ****         uint32_t i = initial_i + y;
 285              		.loc 1 763 5 is_stmt 0 discriminator 1 view .LVU101
 286 0042 8E42     		cmp	r6, r1
 287 0044 07DA     		bge	.L15
 288              	.LBB40:
 764:Middlewares/lvgl/src/core/lv_refr.c ****         if(invert_i)
 289              		.loc 1 764 9 is_stmt 1 view .LVU102
 764:Middlewares/lvgl/src/core/lv_refr.c ****         if(invert_i)
 290              		.loc 1 764 18 is_stmt 0 view .LVU103
 291 0046 06EB070E 		add	lr, r6, r7
 292              	.LVL30:
 765:Middlewares/lvgl/src/core/lv_refr.c ****             i = invert - i;
 293              		.loc 1 765 9 is_stmt 1 view .LVU104
 765:Middlewares/lvgl/src/core/lv_refr.c ****             i = invert - i;
 294              		.loc 1 765 11 is_stmt 0 view .LVU105
 295 004a 0CB1     		cbz	r4, .L7
 766:Middlewares/lvgl/src/core/lv_refr.c ****         for(lv_coord_t x = 0; x < area_w; x++) {
 296              		.loc 1 766 13 is_stmt 1 view .LVU106
 766:Middlewares/lvgl/src/core/lv_refr.c ****         for(lv_coord_t x = 0; x < area_w; x++) {
 297              		.loc 1 766 15 is_stmt 0 view .LVU107
 298 004c A8EB0E0E 		sub	lr, r8, lr
 299              	.LVL31:
 300              	.L7:
 766:Middlewares/lvgl/src/core/lv_refr.c ****         for(lv_coord_t x = 0; x < area_w; x++) {
 301              		.loc 1 766 15 view .LVU108
 302              	.LBE40:
 303              	.LBE37:
 759:Middlewares/lvgl/src/core/lv_refr.c **** 
 304              		.loc 1 759 154 discriminator 1 view .LVU109
 305 0050 4FF0000C 		mov	ip, #0
 306 0054 E9E7     		b	.L8
 307              	.LVL32:
 308              	.L15:
 773:Middlewares/lvgl/src/core/lv_refr.c ****         }
 774:Middlewares/lvgl/src/core/lv_refr.c ****     }
 775:Middlewares/lvgl/src/core/lv_refr.c **** }
ARM GAS  /tmp/cccpOVCi.s 			page 23


 309              		.loc 1 775 1 view .LVU110
 310 0056 BDE8F081 		pop	{r4, r5, r6, r7, r8, pc}
 311              		.loc 1 775 1 view .LVU111
 312              		.cfi_endproc
 313              	.LFE167:
 315              		.section	.text.draw_buf_rotate_90_sqr,"ax",%progbits
 316              		.align	1
 317              		.syntax unified
 318              		.thumb
 319              		.thumb_func
 320              		.fpu fpv5-d16
 322              	draw_buf_rotate_90_sqr:
 323              	.LVL33:
 324              	.LFB169:
 776:Middlewares/lvgl/src/core/lv_refr.c **** 
 777:Middlewares/lvgl/src/core/lv_refr.c **** /**
 778:Middlewares/lvgl/src/core/lv_refr.c ****  * Helper function for draw_buf_rotate_90_sqr. Given a list of four numbers, rotate the entire list
 779:Middlewares/lvgl/src/core/lv_refr.c ****  */
 780:Middlewares/lvgl/src/core/lv_refr.c **** static inline void draw_buf_rotate4(lv_color_t *a, lv_color_t *b, lv_color_t * c, lv_color_t * d) {
 781:Middlewares/lvgl/src/core/lv_refr.c ****     lv_color_t tmp;
 782:Middlewares/lvgl/src/core/lv_refr.c ****     tmp = *a;
 783:Middlewares/lvgl/src/core/lv_refr.c ****     *a = *b;
 784:Middlewares/lvgl/src/core/lv_refr.c ****     *b = *c;
 785:Middlewares/lvgl/src/core/lv_refr.c ****     *c = *d;
 786:Middlewares/lvgl/src/core/lv_refr.c ****     *d = tmp;
 787:Middlewares/lvgl/src/core/lv_refr.c **** }
 788:Middlewares/lvgl/src/core/lv_refr.c **** 
 789:Middlewares/lvgl/src/core/lv_refr.c **** /**
 790:Middlewares/lvgl/src/core/lv_refr.c ****  * Rotate a square image 90/270 degrees in place.
 791:Middlewares/lvgl/src/core/lv_refr.c ****  * @note inspired by https://stackoverflow.com/a/43694906
 792:Middlewares/lvgl/src/core/lv_refr.c ****  */
 793:Middlewares/lvgl/src/core/lv_refr.c **** static void draw_buf_rotate_90_sqr(bool is_270, lv_coord_t w, lv_color_t * color_p) {
 325              		.loc 1 793 85 is_stmt 1 view -0
 326              		.cfi_startproc
 327              		@ args = 0, pretend = 0, frame = 0
 328              		@ frame_needed = 0, uses_anonymous_args = 0
 329              		.loc 1 793 85 is_stmt 0 view .LVU113
 330 0000 2DE9F041 		push	{r4, r5, r6, r7, r8, lr}
 331              	.LCFI2:
 332              		.cfi_def_cfa_offset 24
 333              		.cfi_offset 4, -24
 334              		.cfi_offset 5, -20
 335              		.cfi_offset 6, -16
 336              		.cfi_offset 7, -12
 337              		.cfi_offset 8, -8
 338              		.cfi_offset 14, -4
 794:Middlewares/lvgl/src/core/lv_refr.c ****     for(lv_coord_t i = 0; i < w/2; i++) {
 339              		.loc 1 794 5 is_stmt 1 view .LVU114
 340              	.LBB41:
 341              		.loc 1 794 9 view .LVU115
 342              	.LVL34:
 343              		.loc 1 794 20 is_stmt 0 view .LVU116
 344 0004 0024     		movs	r4, #0
 345              		.loc 1 794 5 view .LVU117
 346 0006 4DE0     		b	.L17
 347              	.LVL35:
 348              	.L18:
ARM GAS  /tmp/cccpOVCi.s 			page 24


 349              	.LBB42:
 350              	.LBB43:
 795:Middlewares/lvgl/src/core/lv_refr.c ****         for(lv_coord_t j = 0; j < (w + 1)/2; j++) {
 796:Middlewares/lvgl/src/core/lv_refr.c ****             lv_coord_t inv_i = (w - 1) - i;
 797:Middlewares/lvgl/src/core/lv_refr.c ****             lv_coord_t inv_j = (w - 1) - j;
 798:Middlewares/lvgl/src/core/lv_refr.c ****             if(is_270) {
 799:Middlewares/lvgl/src/core/lv_refr.c ****                 draw_buf_rotate4(
 800:Middlewares/lvgl/src/core/lv_refr.c ****                     &color_p[i * w + j],
 801:Middlewares/lvgl/src/core/lv_refr.c ****                     &color_p[inv_j * w + i],
 802:Middlewares/lvgl/src/core/lv_refr.c ****                     &color_p[inv_i * w + inv_j],
 803:Middlewares/lvgl/src/core/lv_refr.c ****                     &color_p[j * w + inv_i]
 804:Middlewares/lvgl/src/core/lv_refr.c ****                 );
 805:Middlewares/lvgl/src/core/lv_refr.c ****             } else {
 806:Middlewares/lvgl/src/core/lv_refr.c ****                 draw_buf_rotate4(
 351              		.loc 1 806 17 is_stmt 1 view .LVU118
 807:Middlewares/lvgl/src/core/lv_refr.c ****                     &color_p[i * w + j],
 352              		.loc 1 807 36 is_stmt 0 view .LVU119
 353 0008 01FB0456 		mla	r6, r1, r4, r5
 808:Middlewares/lvgl/src/core/lv_refr.c ****                     &color_p[j * w + inv_i],
 354              		.loc 1 808 36 view .LVU120
 355 000c 01FB05C5 		mla	r5, r1, r5, ip
 809:Middlewares/lvgl/src/core/lv_refr.c ****                     &color_p[inv_i * w + inv_j],
 356              		.loc 1 809 40 view .LVU121
 357 0010 01FB0C3C 		mla	ip, r1, ip, r3
 358              	.LVL36:
 810:Middlewares/lvgl/src/core/lv_refr.c ****                     &color_p[inv_j * w + i]
 359              		.loc 1 810 40 view .LVU122
 360 0014 01FB0343 		mla	r3, r1, r3, r4
 361              	.LVL37:
 362              	.LBB44:
 363              	.LBI44:
 780:Middlewares/lvgl/src/core/lv_refr.c ****     lv_color_t tmp;
 364              		.loc 1 780 20 is_stmt 1 view .LVU123
 365              	.LBB45:
 781:Middlewares/lvgl/src/core/lv_refr.c ****     tmp = *a;
 366              		.loc 1 781 5 view .LVU124
 782:Middlewares/lvgl/src/core/lv_refr.c ****     *a = *b;
 367              		.loc 1 782 5 view .LVU125
 782:Middlewares/lvgl/src/core/lv_refr.c ****     *a = *b;
 368              		.loc 1 782 9 is_stmt 0 view .LVU126
 369 0018 32F81670 		ldrh	r7, [r2, r6, lsl #1]
 370              	.LVL38:
 783:Middlewares/lvgl/src/core/lv_refr.c ****     *b = *c;
 371              		.loc 1 783 5 is_stmt 1 view .LVU127
 783:Middlewares/lvgl/src/core/lv_refr.c ****     *b = *c;
 372              		.loc 1 783 8 is_stmt 0 view .LVU128
 373 001c 32F81580 		ldrh	r8, [r2, r5, lsl #1]
 374 0020 22F81680 		strh	r8, [r2, r6, lsl #1]	@ movhi
 784:Middlewares/lvgl/src/core/lv_refr.c ****     *c = *d;
 375              		.loc 1 784 5 is_stmt 1 view .LVU129
 784:Middlewares/lvgl/src/core/lv_refr.c ****     *c = *d;
 376              		.loc 1 784 8 is_stmt 0 view .LVU130
 377 0024 32F81C60 		ldrh	r6, [r2, ip, lsl #1]
 378              	.LVL39:
 784:Middlewares/lvgl/src/core/lv_refr.c ****     *c = *d;
 379              		.loc 1 784 8 view .LVU131
 380 0028 22F81560 		strh	r6, [r2, r5, lsl #1]	@ movhi
ARM GAS  /tmp/cccpOVCi.s 			page 25


 785:Middlewares/lvgl/src/core/lv_refr.c ****     *d = tmp;
 381              		.loc 1 785 5 is_stmt 1 view .LVU132
 785:Middlewares/lvgl/src/core/lv_refr.c ****     *d = tmp;
 382              		.loc 1 785 8 is_stmt 0 view .LVU133
 383 002c 32F81350 		ldrh	r5, [r2, r3, lsl #1]
 384              	.LVL40:
 785:Middlewares/lvgl/src/core/lv_refr.c ****     *d = tmp;
 385              		.loc 1 785 8 view .LVU134
 386 0030 22F81C50 		strh	r5, [r2, ip, lsl #1]	@ movhi
 786:Middlewares/lvgl/src/core/lv_refr.c **** }
 387              		.loc 1 786 5 is_stmt 1 view .LVU135
 388              	.LVL41:
 786:Middlewares/lvgl/src/core/lv_refr.c **** }
 389              		.loc 1 786 8 is_stmt 0 view .LVU136
 390 0034 22F81370 		strh	r7, [r2, r3, lsl #1]	@ movhi
 391              	.LVL42:
 392              	.L19:
 786:Middlewares/lvgl/src/core/lv_refr.c **** }
 393              		.loc 1 786 8 view .LVU137
 394              	.LBE45:
 395              	.LBE44:
 396              	.LBE43:
 795:Middlewares/lvgl/src/core/lv_refr.c ****             lv_coord_t inv_i = (w - 1) - i;
 397              		.loc 1 795 46 is_stmt 1 discriminator 2 view .LVU138
 795:Middlewares/lvgl/src/core/lv_refr.c ****             lv_coord_t inv_i = (w - 1) - i;
 398              		.loc 1 795 47 is_stmt 0 discriminator 2 view .LVU139
 399 0038 0EF1010E 		add	lr, lr, #1
 400              	.LVL43:
 795:Middlewares/lvgl/src/core/lv_refr.c ****             lv_coord_t inv_i = (w - 1) - i;
 401              		.loc 1 795 47 discriminator 2 view .LVU140
 402 003c 0FFA8EFE 		sxth	lr, lr
 403              	.LVL44:
 404              	.L23:
 795:Middlewares/lvgl/src/core/lv_refr.c ****             lv_coord_t inv_i = (w - 1) - i;
 405              		.loc 1 795 31 is_stmt 1 discriminator 1 view .LVU141
 795:Middlewares/lvgl/src/core/lv_refr.c ****             lv_coord_t inv_i = (w - 1) - i;
 406              		.loc 1 795 33 is_stmt 0 discriminator 1 view .LVU142
 407 0040 7546     		mov	r5, lr
 795:Middlewares/lvgl/src/core/lv_refr.c ****             lv_coord_t inv_i = (w - 1) - i;
 408              		.loc 1 795 42 discriminator 1 view .LVU143
 409 0042 4B1C     		adds	r3, r1, #1
 410 0044 2AD4     		bmi	.L26
 411              	.L20:
 795:Middlewares/lvgl/src/core/lv_refr.c ****             lv_coord_t inv_i = (w - 1) - i;
 412              		.loc 1 795 9 discriminator 1 view .LVU144
 413 0046 B5EB630F 		cmp	r5, r3, asr #1
 414 004a 29DA     		bge	.L27
 415              	.LBB48:
 796:Middlewares/lvgl/src/core/lv_refr.c ****             lv_coord_t inv_j = (w - 1) - j;
 416              		.loc 1 796 13 is_stmt 1 view .LVU145
 796:Middlewares/lvgl/src/core/lv_refr.c ****             lv_coord_t inv_j = (w - 1) - j;
 417              		.loc 1 796 40 is_stmt 0 view .LVU146
 418 004c 8BB2     		uxth	r3, r1
 419 004e A3EB040C 		sub	ip, r3, r4
 420              	.LVL45:
 796:Middlewares/lvgl/src/core/lv_refr.c ****             lv_coord_t inv_j = (w - 1) - j;
 421              		.loc 1 796 40 view .LVU147
ARM GAS  /tmp/cccpOVCi.s 			page 26


 422 0052 0CF1FF3C 		add	ip, ip, #-1
 796:Middlewares/lvgl/src/core/lv_refr.c ****             lv_coord_t inv_j = (w - 1) - j;
 423              		.loc 1 796 24 view .LVU148
 424 0056 0FFA8CFC 		sxth	ip, ip
 425              	.LVL46:
 797:Middlewares/lvgl/src/core/lv_refr.c ****             if(is_270) {
 426              		.loc 1 797 13 is_stmt 1 view .LVU149
 797:Middlewares/lvgl/src/core/lv_refr.c ****             if(is_270) {
 427              		.loc 1 797 40 is_stmt 0 view .LVU150
 428 005a 1FFA8EFE 		uxth	lr, lr
 797:Middlewares/lvgl/src/core/lv_refr.c ****             if(is_270) {
 429              		.loc 1 797 40 view .LVU151
 430 005e A3EB0E03 		sub	r3, r3, lr
 431 0062 013B     		subs	r3, r3, #1
 797:Middlewares/lvgl/src/core/lv_refr.c ****             if(is_270) {
 432              		.loc 1 797 24 view .LVU152
 433 0064 1BB2     		sxth	r3, r3
 434              	.LVL47:
 798:Middlewares/lvgl/src/core/lv_refr.c ****                 draw_buf_rotate4(
 435              		.loc 1 798 13 is_stmt 1 view .LVU153
 798:Middlewares/lvgl/src/core/lv_refr.c ****                 draw_buf_rotate4(
 436              		.loc 1 798 15 is_stmt 0 view .LVU154
 437 0066 0028     		cmp	r0, #0
 438 0068 CED0     		beq	.L18
 799:Middlewares/lvgl/src/core/lv_refr.c ****                     &color_p[i * w + j],
 439              		.loc 1 799 17 is_stmt 1 view .LVU155
 800:Middlewares/lvgl/src/core/lv_refr.c ****                     &color_p[inv_j * w + i],
 440              		.loc 1 800 36 is_stmt 0 view .LVU156
 441 006a 01FB0457 		mla	r7, r1, r4, r5
 442              	.LVL48:
 801:Middlewares/lvgl/src/core/lv_refr.c ****                     &color_p[inv_i * w + inv_j],
 443              		.loc 1 801 40 view .LVU157
 444 006e 01FB0346 		mla	r6, r1, r3, r4
 802:Middlewares/lvgl/src/core/lv_refr.c ****                     &color_p[j * w + inv_i]
 445              		.loc 1 802 40 view .LVU158
 446 0072 01FB0C33 		mla	r3, r1, ip, r3
 447              	.LVL49:
 803:Middlewares/lvgl/src/core/lv_refr.c ****                 );
 448              		.loc 1 803 36 view .LVU159
 449 0076 01FB05C5 		mla	r5, r1, r5, ip
 450              	.LVL50:
 451              	.LBB46:
 452              	.LBI46:
 780:Middlewares/lvgl/src/core/lv_refr.c ****     lv_color_t tmp;
 453              		.loc 1 780 20 is_stmt 1 view .LVU160
 454              	.LBB47:
 781:Middlewares/lvgl/src/core/lv_refr.c ****     tmp = *a;
 455              		.loc 1 781 5 view .LVU161
 782:Middlewares/lvgl/src/core/lv_refr.c ****     *a = *b;
 456              		.loc 1 782 5 view .LVU162
 782:Middlewares/lvgl/src/core/lv_refr.c ****     *a = *b;
 457              		.loc 1 782 9 is_stmt 0 view .LVU163
 458 007a 32F817C0 		ldrh	ip, [r2, r7, lsl #1]
 459              	.LVL51:
 783:Middlewares/lvgl/src/core/lv_refr.c ****     *b = *c;
 460              		.loc 1 783 5 is_stmt 1 view .LVU164
 783:Middlewares/lvgl/src/core/lv_refr.c ****     *b = *c;
ARM GAS  /tmp/cccpOVCi.s 			page 27


 461              		.loc 1 783 8 is_stmt 0 view .LVU165
 462 007e 32F81680 		ldrh	r8, [r2, r6, lsl #1]
 463 0082 22F81780 		strh	r8, [r2, r7, lsl #1]	@ movhi
 784:Middlewares/lvgl/src/core/lv_refr.c ****     *c = *d;
 464              		.loc 1 784 5 is_stmt 1 view .LVU166
 784:Middlewares/lvgl/src/core/lv_refr.c ****     *c = *d;
 465              		.loc 1 784 8 is_stmt 0 view .LVU167
 466 0086 32F81370 		ldrh	r7, [r2, r3, lsl #1]
 467              	.LVL52:
 784:Middlewares/lvgl/src/core/lv_refr.c ****     *c = *d;
 468              		.loc 1 784 8 view .LVU168
 469 008a 22F81670 		strh	r7, [r2, r6, lsl #1]	@ movhi
 785:Middlewares/lvgl/src/core/lv_refr.c ****     *d = tmp;
 470              		.loc 1 785 5 is_stmt 1 view .LVU169
 785:Middlewares/lvgl/src/core/lv_refr.c ****     *d = tmp;
 471              		.loc 1 785 8 is_stmt 0 view .LVU170
 472 008e 32F81560 		ldrh	r6, [r2, r5, lsl #1]
 473              	.LVL53:
 785:Middlewares/lvgl/src/core/lv_refr.c ****     *d = tmp;
 474              		.loc 1 785 8 view .LVU171
 475 0092 22F81360 		strh	r6, [r2, r3, lsl #1]	@ movhi
 786:Middlewares/lvgl/src/core/lv_refr.c **** }
 476              		.loc 1 786 5 is_stmt 1 view .LVU172
 477              	.LVL54:
 786:Middlewares/lvgl/src/core/lv_refr.c **** }
 478              		.loc 1 786 8 is_stmt 0 view .LVU173
 479 0096 22F815C0 		strh	ip, [r2, r5, lsl #1]	@ movhi
 787:Middlewares/lvgl/src/core/lv_refr.c **** 
 480              		.loc 1 787 1 view .LVU174
 481 009a CDE7     		b	.L19
 482              	.LVL55:
 483              	.L26:
 787:Middlewares/lvgl/src/core/lv_refr.c **** 
 484              		.loc 1 787 1 view .LVU175
 485              	.LBE47:
 486              	.LBE46:
 487              	.LBE48:
 795:Middlewares/lvgl/src/core/lv_refr.c ****             lv_coord_t inv_i = (w - 1) - i;
 488              		.loc 1 795 42 discriminator 1 view .LVU176
 489 009c 0133     		adds	r3, r3, #1
 490 009e D2E7     		b	.L20
 491              	.L27:
 492              	.LBE42:
 794:Middlewares/lvgl/src/core/lv_refr.c ****         for(lv_coord_t j = 0; j < (w + 1)/2; j++) {
 493              		.loc 1 794 36 is_stmt 1 discriminator 2 view .LVU177
 794:Middlewares/lvgl/src/core/lv_refr.c ****         for(lv_coord_t j = 0; j < (w + 1)/2; j++) {
 494              		.loc 1 794 37 is_stmt 0 discriminator 2 view .LVU178
 495 00a0 0134     		adds	r4, r4, #1
 496              	.LVL56:
 794:Middlewares/lvgl/src/core/lv_refr.c ****         for(lv_coord_t j = 0; j < (w + 1)/2; j++) {
 497              		.loc 1 794 37 discriminator 2 view .LVU179
 498 00a2 24B2     		sxth	r4, r4
 499              	.LVL57:
 500              	.L17:
 794:Middlewares/lvgl/src/core/lv_refr.c ****         for(lv_coord_t j = 0; j < (w + 1)/2; j++) {
 501              		.loc 1 794 27 is_stmt 1 discriminator 1 view .LVU180
 794:Middlewares/lvgl/src/core/lv_refr.c ****         for(lv_coord_t j = 0; j < (w + 1)/2; j++) {
ARM GAS  /tmp/cccpOVCi.s 			page 28


 502              		.loc 1 794 29 is_stmt 0 discriminator 1 view .LVU181
 503 00a4 0B46     		mov	r3, r1
 504 00a6 0029     		cmp	r1, #0
 505 00a8 05DB     		blt	.L28
 506              	.L22:
 794:Middlewares/lvgl/src/core/lv_refr.c ****         for(lv_coord_t j = 0; j < (w + 1)/2; j++) {
 507              		.loc 1 794 5 discriminator 1 view .LVU182
 508 00aa B4EB630F 		cmp	r4, r3, asr #1
 509 00ae 04DA     		bge	.L29
 510              	.LBB49:
 795:Middlewares/lvgl/src/core/lv_refr.c ****             lv_coord_t inv_i = (w - 1) - i;
 511              		.loc 1 795 24 view .LVU183
 512 00b0 4FF0000E 		mov	lr, #0
 513 00b4 C4E7     		b	.L23
 514              	.L28:
 515              	.LBE49:
 794:Middlewares/lvgl/src/core/lv_refr.c ****         for(lv_coord_t j = 0; j < (w + 1)/2; j++) {
 516              		.loc 1 794 29 discriminator 1 view .LVU184
 517 00b6 4B1C     		adds	r3, r1, #1
 518 00b8 F7E7     		b	.L22
 519              	.L29:
 520              	.LBE41:
 811:Middlewares/lvgl/src/core/lv_refr.c ****                 );
 812:Middlewares/lvgl/src/core/lv_refr.c ****             }
 813:Middlewares/lvgl/src/core/lv_refr.c **** 
 814:Middlewares/lvgl/src/core/lv_refr.c ****         }
 815:Middlewares/lvgl/src/core/lv_refr.c ****     }
 816:Middlewares/lvgl/src/core/lv_refr.c **** }
 521              		.loc 1 816 1 view .LVU185
 522 00ba BDE8F081 		pop	{r4, r5, r6, r7, r8, pc}
 523              		.loc 1 816 1 view .LVU186
 524              		.cfi_endproc
 525              	.LFE169:
 527              		.section	.text.call_flush_cb,"ax",%progbits
 528              		.align	1
 529              		.syntax unified
 530              		.thumb
 531              		.thumb_func
 532              		.fpu fpv5-d16
 534              	call_flush_cb:
 535              	.LVL58:
 536              	.LFB172:
 817:Middlewares/lvgl/src/core/lv_refr.c **** 
 818:Middlewares/lvgl/src/core/lv_refr.c **** /**
 819:Middlewares/lvgl/src/core/lv_refr.c ****  * Rotate the draw_buf to the display's native orientation.
 820:Middlewares/lvgl/src/core/lv_refr.c ****  */
 821:Middlewares/lvgl/src/core/lv_refr.c **** static void draw_buf_rotate(lv_area_t *area, lv_color_t *color_p) {
 822:Middlewares/lvgl/src/core/lv_refr.c ****     lv_disp_drv_t * drv = disp_refr->driver;
 823:Middlewares/lvgl/src/core/lv_refr.c ****     if(disp_refr->driver->full_refresh && drv->sw_rotate) {
 824:Middlewares/lvgl/src/core/lv_refr.c ****         LV_LOG_ERROR("cannot rotate a full refreshed display!");
 825:Middlewares/lvgl/src/core/lv_refr.c ****         return;
 826:Middlewares/lvgl/src/core/lv_refr.c ****     }
 827:Middlewares/lvgl/src/core/lv_refr.c ****     if(drv->rotated == LV_DISP_ROT_180) {
 828:Middlewares/lvgl/src/core/lv_refr.c ****         draw_buf_rotate_180(drv, area, color_p);
 829:Middlewares/lvgl/src/core/lv_refr.c ****         call_flush_cb(drv, area, color_p);
 830:Middlewares/lvgl/src/core/lv_refr.c ****     } else if(drv->rotated == LV_DISP_ROT_90 || drv->rotated == LV_DISP_ROT_270) {
 831:Middlewares/lvgl/src/core/lv_refr.c ****         /*Allocate a temporary buffer to store rotated image*/
ARM GAS  /tmp/cccpOVCi.s 			page 29


 832:Middlewares/lvgl/src/core/lv_refr.c ****         lv_color_t * rot_buf = NULL;
 833:Middlewares/lvgl/src/core/lv_refr.c ****         lv_disp_draw_buf_t * draw_buf = lv_disp_get_draw_buf(disp_refr);
 834:Middlewares/lvgl/src/core/lv_refr.c ****         lv_coord_t area_w = lv_area_get_width(area);
 835:Middlewares/lvgl/src/core/lv_refr.c ****         lv_coord_t area_h = lv_area_get_height(area);
 836:Middlewares/lvgl/src/core/lv_refr.c ****         /*Determine the maximum number of rows that can be rotated at a time*/
 837:Middlewares/lvgl/src/core/lv_refr.c ****         lv_coord_t max_row = LV_MIN((lv_coord_t)((LV_DISP_ROT_MAX_BUF/sizeof(lv_color_t)) / area_w)
 838:Middlewares/lvgl/src/core/lv_refr.c ****         lv_coord_t init_y_off;
 839:Middlewares/lvgl/src/core/lv_refr.c ****         init_y_off = area->y1;
 840:Middlewares/lvgl/src/core/lv_refr.c ****         if(drv->rotated == LV_DISP_ROT_90) {
 841:Middlewares/lvgl/src/core/lv_refr.c ****             area->y2 = drv->ver_res - area->x1 - 1;
 842:Middlewares/lvgl/src/core/lv_refr.c ****             area->y1 = area->y2 - area_w + 1;
 843:Middlewares/lvgl/src/core/lv_refr.c ****         }
 844:Middlewares/lvgl/src/core/lv_refr.c ****         else {
 845:Middlewares/lvgl/src/core/lv_refr.c ****             area->y1 = area->x1;
 846:Middlewares/lvgl/src/core/lv_refr.c ****             area->y2 = area->y1 + area_w - 1;
 847:Middlewares/lvgl/src/core/lv_refr.c ****         }
 848:Middlewares/lvgl/src/core/lv_refr.c ****         draw_buf->flushing = 0;
 849:Middlewares/lvgl/src/core/lv_refr.c ****         /*Rotate the screen in chunks, flushing after each one*/
 850:Middlewares/lvgl/src/core/lv_refr.c ****         lv_coord_t row = 0;
 851:Middlewares/lvgl/src/core/lv_refr.c ****         while(row < area_h) {
 852:Middlewares/lvgl/src/core/lv_refr.c ****             lv_coord_t height = LV_MIN(max_row, area_h-row);
 853:Middlewares/lvgl/src/core/lv_refr.c ****             draw_buf->flushing = 1;
 854:Middlewares/lvgl/src/core/lv_refr.c ****             if((row == 0) && (area_h >= area_w)) {
 855:Middlewares/lvgl/src/core/lv_refr.c ****                 /*Rotate the initial area as a square*/
 856:Middlewares/lvgl/src/core/lv_refr.c ****                 height = area_w;
 857:Middlewares/lvgl/src/core/lv_refr.c ****                 draw_buf_rotate_90_sqr(drv->rotated == LV_DISP_ROT_270, area_w, color_p);
 858:Middlewares/lvgl/src/core/lv_refr.c ****                 if(drv->rotated == LV_DISP_ROT_90) {
 859:Middlewares/lvgl/src/core/lv_refr.c ****                     area->x1 = init_y_off;
 860:Middlewares/lvgl/src/core/lv_refr.c ****                     area->x2 = init_y_off + area_w - 1;
 861:Middlewares/lvgl/src/core/lv_refr.c ****                 }
 862:Middlewares/lvgl/src/core/lv_refr.c ****                 else {
 863:Middlewares/lvgl/src/core/lv_refr.c ****                     area->x2 = drv->hor_res - 1 - init_y_off;
 864:Middlewares/lvgl/src/core/lv_refr.c ****                     area->x1 = area->x2 - area_w + 1;
 865:Middlewares/lvgl/src/core/lv_refr.c ****                 }
 866:Middlewares/lvgl/src/core/lv_refr.c ****             }
 867:Middlewares/lvgl/src/core/lv_refr.c ****             else {
 868:Middlewares/lvgl/src/core/lv_refr.c ****                 /*Rotate other areas using a maximum buffer size*/
 869:Middlewares/lvgl/src/core/lv_refr.c ****                 if(rot_buf == NULL) rot_buf = lv_mem_buf_get(LV_DISP_ROT_MAX_BUF);
 870:Middlewares/lvgl/src/core/lv_refr.c ****                 draw_buf_rotate_90(drv->rotated == LV_DISP_ROT_270, area_w, height, color_p, rot_bu
 871:Middlewares/lvgl/src/core/lv_refr.c **** 
 872:Middlewares/lvgl/src/core/lv_refr.c ****                 if(drv->rotated == LV_DISP_ROT_90) {
 873:Middlewares/lvgl/src/core/lv_refr.c ****                     area->x1 = init_y_off + row;
 874:Middlewares/lvgl/src/core/lv_refr.c ****                     area->x2 = init_y_off + row + height - 1;
 875:Middlewares/lvgl/src/core/lv_refr.c ****                 }
 876:Middlewares/lvgl/src/core/lv_refr.c ****                 else {
 877:Middlewares/lvgl/src/core/lv_refr.c ****                     area->x2 = drv->hor_res - 1 - init_y_off - row;
 878:Middlewares/lvgl/src/core/lv_refr.c ****                     area->x1 = area->x2 - height + 1;
 879:Middlewares/lvgl/src/core/lv_refr.c ****                 }
 880:Middlewares/lvgl/src/core/lv_refr.c ****             }
 881:Middlewares/lvgl/src/core/lv_refr.c ****             /*Flush the completed area to the display*/
 882:Middlewares/lvgl/src/core/lv_refr.c ****             call_flush_cb(drv, area, rot_buf == NULL ? color_p : rot_buf);
 883:Middlewares/lvgl/src/core/lv_refr.c ****             /*FIXME: Rotation forces legacy behavior where rendering and flushing are done serially
 884:Middlewares/lvgl/src/core/lv_refr.c ****             while(draw_buf->flushing) {
 885:Middlewares/lvgl/src/core/lv_refr.c ****                 if(drv->wait_cb) drv->wait_cb(drv);
 886:Middlewares/lvgl/src/core/lv_refr.c ****             }
 887:Middlewares/lvgl/src/core/lv_refr.c ****             color_p += area_w * height;
 888:Middlewares/lvgl/src/core/lv_refr.c ****             row += height;
ARM GAS  /tmp/cccpOVCi.s 			page 30


 889:Middlewares/lvgl/src/core/lv_refr.c ****         }
 890:Middlewares/lvgl/src/core/lv_refr.c ****         /*Free the allocated buffer at the end if necessary*/
 891:Middlewares/lvgl/src/core/lv_refr.c ****         if(rot_buf != NULL) lv_mem_buf_release(rot_buf);
 892:Middlewares/lvgl/src/core/lv_refr.c ****     }
 893:Middlewares/lvgl/src/core/lv_refr.c **** }
 894:Middlewares/lvgl/src/core/lv_refr.c **** 
 895:Middlewares/lvgl/src/core/lv_refr.c **** /**
 896:Middlewares/lvgl/src/core/lv_refr.c ****  * Flush the content of the draw buffer
 897:Middlewares/lvgl/src/core/lv_refr.c ****  */
 898:Middlewares/lvgl/src/core/lv_refr.c **** static void draw_buf_flush(void)
 899:Middlewares/lvgl/src/core/lv_refr.c **** {
 900:Middlewares/lvgl/src/core/lv_refr.c ****     lv_disp_draw_buf_t * draw_buf = lv_disp_get_draw_buf(disp_refr);
 901:Middlewares/lvgl/src/core/lv_refr.c ****     lv_color_t * color_p = draw_buf->buf_act;
 902:Middlewares/lvgl/src/core/lv_refr.c **** 
 903:Middlewares/lvgl/src/core/lv_refr.c ****     /*Flush the rendered content to the display*/
 904:Middlewares/lvgl/src/core/lv_refr.c ****     lv_disp_t * disp = _lv_refr_get_disp_refreshing();
 905:Middlewares/lvgl/src/core/lv_refr.c ****     if(disp->driver->gpu_wait_cb) disp->driver->gpu_wait_cb(disp->driver);
 906:Middlewares/lvgl/src/core/lv_refr.c **** 
 907:Middlewares/lvgl/src/core/lv_refr.c ****      /* In double buffered mode wait until the other buffer is freed
 908:Middlewares/lvgl/src/core/lv_refr.c **** 	  * and driver is ready to receive the new buffer */
 909:Middlewares/lvgl/src/core/lv_refr.c **** 	 if(draw_buf->buf1 && draw_buf->buf2) {
 910:Middlewares/lvgl/src/core/lv_refr.c **** 		 while(draw_buf->flushing) {
 911:Middlewares/lvgl/src/core/lv_refr.c **** 			 if(disp_refr->driver->wait_cb) disp_refr->driver->wait_cb(disp_refr->driver);
 912:Middlewares/lvgl/src/core/lv_refr.c **** 		 }
 913:Middlewares/lvgl/src/core/lv_refr.c **** 	 }
 914:Middlewares/lvgl/src/core/lv_refr.c **** 
 915:Middlewares/lvgl/src/core/lv_refr.c **** 	 draw_buf->flushing = 1;
 916:Middlewares/lvgl/src/core/lv_refr.c **** 
 917:Middlewares/lvgl/src/core/lv_refr.c **** 	if(disp_refr->driver->draw_buf->last_area && disp_refr->driver->draw_buf->last_part) draw_buf->flu
 918:Middlewares/lvgl/src/core/lv_refr.c **** 	else draw_buf->flushing_last = 0;
 919:Middlewares/lvgl/src/core/lv_refr.c **** 
 920:Middlewares/lvgl/src/core/lv_refr.c ****     if(disp->driver->flush_cb) {
 921:Middlewares/lvgl/src/core/lv_refr.c ****         /*Rotate the buffer to the display's native orientation if necessary*/
 922:Middlewares/lvgl/src/core/lv_refr.c ****         if(disp->driver->rotated != LV_DISP_ROT_NONE && disp->driver->sw_rotate) {
 923:Middlewares/lvgl/src/core/lv_refr.c ****             draw_buf_rotate(&draw_buf->area, draw_buf->buf_act);
 924:Middlewares/lvgl/src/core/lv_refr.c ****         } else {
 925:Middlewares/lvgl/src/core/lv_refr.c ****             call_flush_cb(disp->driver, &draw_buf->area, color_p);
 926:Middlewares/lvgl/src/core/lv_refr.c ****         }
 927:Middlewares/lvgl/src/core/lv_refr.c ****     }
 928:Middlewares/lvgl/src/core/lv_refr.c ****     if(draw_buf->buf1 && draw_buf->buf2) {
 929:Middlewares/lvgl/src/core/lv_refr.c ****         if(draw_buf->buf_act == draw_buf->buf1)
 930:Middlewares/lvgl/src/core/lv_refr.c ****             draw_buf->buf_act = draw_buf->buf2;
 931:Middlewares/lvgl/src/core/lv_refr.c ****         else
 932:Middlewares/lvgl/src/core/lv_refr.c ****             draw_buf->buf_act = draw_buf->buf1;
 933:Middlewares/lvgl/src/core/lv_refr.c ****     }
 934:Middlewares/lvgl/src/core/lv_refr.c **** }
 935:Middlewares/lvgl/src/core/lv_refr.c **** 
 936:Middlewares/lvgl/src/core/lv_refr.c **** static void call_flush_cb(lv_disp_drv_t * drv, const lv_area_t * area, lv_color_t * color_p)
 937:Middlewares/lvgl/src/core/lv_refr.c **** {
 537              		.loc 1 937 1 is_stmt 1 view -0
 538              		.cfi_startproc
 539              		@ args = 0, pretend = 0, frame = 0
 540              		@ frame_needed = 0, uses_anonymous_args = 0
 541              		.loc 1 937 1 is_stmt 0 view .LVU188
 542 0000 08B5     		push	{r3, lr}
 543              	.LCFI3:
 544              		.cfi_def_cfa_offset 8
ARM GAS  /tmp/cccpOVCi.s 			page 31


 545              		.cfi_offset 3, -8
 546              		.cfi_offset 14, -4
 938:Middlewares/lvgl/src/core/lv_refr.c ****     TRACE_REFR("Calling flush_cb on (%d;%d)(%d;%d) area with %p image pointer", area->x1, area->y1,
 547              		.loc 1 938 129 is_stmt 1 view .LVU189
 939:Middlewares/lvgl/src/core/lv_refr.c ****     drv->flush_cb(drv, area, color_p);
 548              		.loc 1 939 5 view .LVU190
 549              		.loc 1 939 8 is_stmt 0 view .LVU191
 550 0002 C368     		ldr	r3, [r0, #12]
 551              		.loc 1 939 5 view .LVU192
 552 0004 9847     		blx	r3
 553              	.LVL59:
 940:Middlewares/lvgl/src/core/lv_refr.c **** }
 554              		.loc 1 940 1 view .LVU193
 555 0006 08BD     		pop	{r3, pc}
 556              		.cfi_endproc
 557              	.LFE172:
 559              		.section	.text.lv_refr_join_area,"ax",%progbits
 560              		.align	1
 561              		.syntax unified
 562              		.thumb
 563              		.thumb_func
 564              		.fpu fpv5-d16
 566              	lv_refr_join_area:
 567              	.LFB159:
 328:Middlewares/lvgl/src/core/lv_refr.c ****     uint32_t join_from;
 568              		.loc 1 328 1 is_stmt 1 view -0
 569              		.cfi_startproc
 570              		@ args = 0, pretend = 0, frame = 8
 571              		@ frame_needed = 0, uses_anonymous_args = 0
 572 0000 2DE9F043 		push	{r4, r5, r6, r7, r8, r9, lr}
 573              	.LCFI4:
 574              		.cfi_def_cfa_offset 28
 575              		.cfi_offset 4, -28
 576              		.cfi_offset 5, -24
 577              		.cfi_offset 6, -20
 578              		.cfi_offset 7, -16
 579              		.cfi_offset 8, -12
 580              		.cfi_offset 9, -8
 581              		.cfi_offset 14, -4
 582 0004 83B0     		sub	sp, sp, #12
 583              	.LCFI5:
 584              		.cfi_def_cfa_offset 40
 329:Middlewares/lvgl/src/core/lv_refr.c ****     uint32_t join_in;
 585              		.loc 1 329 5 view .LVU195
 330:Middlewares/lvgl/src/core/lv_refr.c ****     lv_area_t joined_area;
 586              		.loc 1 330 5 view .LVU196
 331:Middlewares/lvgl/src/core/lv_refr.c ****     for(join_in = 0; join_in < disp_refr->inv_p; join_in++) {
 587              		.loc 1 331 5 view .LVU197
 332:Middlewares/lvgl/src/core/lv_refr.c ****         if(disp_refr->inv_area_joined[join_in] != 0) continue;
 588              		.loc 1 332 5 view .LVU198
 589              	.LVL60:
 332:Middlewares/lvgl/src/core/lv_refr.c ****         if(disp_refr->inv_area_joined[join_in] != 0) continue;
 590              		.loc 1 332 17 is_stmt 0 view .LVU199
 591 0006 0025     		movs	r5, #0
 332:Middlewares/lvgl/src/core/lv_refr.c ****         if(disp_refr->inv_area_joined[join_in] != 0) continue;
 592              		.loc 1 332 5 view .LVU200
 593 0008 51E0     		b	.L33
ARM GAS  /tmp/cccpOVCi.s 			page 32


 594              	.LVL61:
 595              	.L36:
 336:Middlewares/lvgl/src/core/lv_refr.c ****             /*Handle only unjoined areas and ignore itself*/
 596              		.loc 1 336 58 is_stmt 1 discriminator 2 view .LVU201
 336:Middlewares/lvgl/src/core/lv_refr.c ****             /*Handle only unjoined areas and ignore itself*/
 597              		.loc 1 336 67 is_stmt 0 discriminator 2 view .LVU202
 598 000a 0134     		adds	r4, r4, #1
 599              	.LVL62:
 600              	.L35:
 336:Middlewares/lvgl/src/core/lv_refr.c ****             /*Handle only unjoined areas and ignore itself*/
 601              		.loc 1 336 28 is_stmt 1 discriminator 1 view .LVU203
 336:Middlewares/lvgl/src/core/lv_refr.c ****             /*Handle only unjoined areas and ignore itself*/
 602              		.loc 1 336 49 is_stmt 0 discriminator 1 view .LVU204
 603 000c 304B     		ldr	r3, .L41
 604 000e 1B68     		ldr	r3, [r3]
 605 0010 B3F85021 		ldrh	r2, [r3, #336]
 336:Middlewares/lvgl/src/core/lv_refr.c ****             /*Handle only unjoined areas and ignore itself*/
 606              		.loc 1 336 9 discriminator 1 view .LVU205
 607 0014 A242     		cmp	r2, r4
 608 0016 49D9     		bls	.L34
 338:Middlewares/lvgl/src/core/lv_refr.c ****                 continue;
 609              		.loc 1 338 13 is_stmt 1 view .LVU206
 338:Middlewares/lvgl/src/core/lv_refr.c ****                 continue;
 610              		.loc 1 338 42 is_stmt 0 view .LVU207
 611 0018 1A19     		adds	r2, r3, r4
 612 001a 92F83021 		ldrb	r2, [r2, #304]	@ zero_extendqisi2
 338:Middlewares/lvgl/src/core/lv_refr.c ****                 continue;
 613              		.loc 1 338 15 view .LVU208
 614 001e 002A     		cmp	r2, #0
 615 0020 F3D1     		bne	.L36
 338:Middlewares/lvgl/src/core/lv_refr.c ****                 continue;
 616              		.loc 1 338 59 discriminator 1 view .LVU209
 617 0022 AC42     		cmp	r4, r5
 618 0024 F1D0     		beq	.L36
 343:Middlewares/lvgl/src/core/lv_refr.c ****                 continue;
 619              		.loc 1 343 13 is_stmt 1 view .LVU210
 343:Middlewares/lvgl/src/core/lv_refr.c ****                 continue;
 620              		.loc 1 343 31 is_stmt 0 view .LVU211
 621 0026 A81D     		adds	r0, r5, #6
 343:Middlewares/lvgl/src/core/lv_refr.c ****                 continue;
 622              		.loc 1 343 63 view .LVU212
 623 0028 A11D     		adds	r1, r4, #6
 343:Middlewares/lvgl/src/core/lv_refr.c ****                 continue;
 624              		.loc 1 343 16 view .LVU213
 625 002a 03EBC101 		add	r1, r3, r1, lsl #3
 626 002e 03EBC000 		add	r0, r3, r0, lsl #3
 627 0032 FFF7FEFF 		bl	_lv_area_is_on
 628              	.LVL63:
 343:Middlewares/lvgl/src/core/lv_refr.c ****                 continue;
 629              		.loc 1 343 15 view .LVU214
 630 0036 0028     		cmp	r0, #0
 631 0038 E7D0     		beq	.L36
 347:Middlewares/lvgl/src/core/lv_refr.c **** 
 632              		.loc 1 347 13 is_stmt 1 view .LVU215
 347:Middlewares/lvgl/src/core/lv_refr.c **** 
 633              		.loc 1 347 51 is_stmt 0 view .LVU216
 634 003a DFF89480 		ldr	r8, .L41
ARM GAS  /tmp/cccpOVCi.s 			page 33


 635 003e D8F80030 		ldr	r3, [r8]
 347:Middlewares/lvgl/src/core/lv_refr.c **** 
 636              		.loc 1 347 41 view .LVU217
 637 0042 A91D     		adds	r1, r5, #6
 638 0044 CE00     		lsls	r6, r1, #3
 347:Middlewares/lvgl/src/core/lv_refr.c **** 
 639              		.loc 1 347 73 view .LVU218
 640 0046 A21D     		adds	r2, r4, #6
 641 0048 4FEAC209 		lsl	r9, r2, #3
 347:Middlewares/lvgl/src/core/lv_refr.c **** 
 642              		.loc 1 347 13 view .LVU219
 643 004c 03EBC202 		add	r2, r3, r2, lsl #3
 644 0050 03EBC101 		add	r1, r3, r1, lsl #3
 645 0054 6846     		mov	r0, sp
 646 0056 FFF7FEFF 		bl	_lv_area_join
 647              	.LVL64:
 350:Middlewares/lvgl/src/core/lv_refr.c ****                                                  lv_area_get_size(&disp_refr->inv_areas[join_from])
 648              		.loc 1 350 13 is_stmt 1 view .LVU220
 350:Middlewares/lvgl/src/core/lv_refr.c ****                                                  lv_area_get_size(&disp_refr->inv_areas[join_from])
 649              		.loc 1 350 16 is_stmt 0 view .LVU221
 650 005a 6846     		mov	r0, sp
 651 005c FFF7FEFF 		bl	lv_area_get_size
 652              	.LVL65:
 653 0060 0746     		mov	r7, r0
 350:Middlewares/lvgl/src/core/lv_refr.c ****                                                  lv_area_get_size(&disp_refr->inv_areas[join_from])
 654              		.loc 1 350 77 view .LVU222
 655 0062 D8F80000 		ldr	r0, [r8]
 350:Middlewares/lvgl/src/core/lv_refr.c ****                                                  lv_area_get_size(&disp_refr->inv_areas[join_from])
 656              		.loc 1 350 50 view .LVU223
 657 0066 3044     		add	r0, r0, r6
 658 0068 FFF7FEFF 		bl	lv_area_get_size
 659              	.LVL66:
 660 006c 0646     		mov	r6, r0
 351:Middlewares/lvgl/src/core/lv_refr.c ****                 lv_area_copy(&disp_refr->inv_areas[join_in], &joined_area);
 661              		.loc 1 351 77 view .LVU224
 662 006e D8F80000 		ldr	r0, [r8]
 351:Middlewares/lvgl/src/core/lv_refr.c ****                 lv_area_copy(&disp_refr->inv_areas[join_in], &joined_area);
 663              		.loc 1 351 50 view .LVU225
 664 0072 4844     		add	r0, r0, r9
 665 0074 FFF7FEFF 		bl	lv_area_get_size
 666              	.LVL67:
 350:Middlewares/lvgl/src/core/lv_refr.c ****                                                  lv_area_get_size(&disp_refr->inv_areas[join_from])
 667              		.loc 1 350 99 view .LVU226
 668 0078 0644     		add	r6, r6, r0
 350:Middlewares/lvgl/src/core/lv_refr.c ****                                                  lv_area_get_size(&disp_refr->inv_areas[join_from])
 669              		.loc 1 350 15 view .LVU227
 670 007a B742     		cmp	r7, r6
 671 007c C5D2     		bcs	.L36
 352:Middlewares/lvgl/src/core/lv_refr.c **** 
 672              		.loc 1 352 17 is_stmt 1 view .LVU228
 352:Middlewares/lvgl/src/core/lv_refr.c **** 
 673              		.loc 1 352 40 is_stmt 0 view .LVU229
 674 007e D8F80020 		ldr	r2, [r8]
 675              	.LVL68:
 676              	.LBB50:
 677              	.LBI50:
 120:Middlewares/lvgl/src/core/../misc/../font/../misc/lv_area.h **** {
ARM GAS  /tmp/cccpOVCi.s 			page 34


 678              		.loc 2 120 20 is_stmt 1 view .LVU230
 679              	.LBB51:
 122:Middlewares/lvgl/src/core/../misc/../font/../misc/lv_area.h ****     dest->y1 = src->y1;
 680              		.loc 2 122 5 view .LVU231
 122:Middlewares/lvgl/src/core/../misc/../font/../misc/lv_area.h ****     dest->y1 = src->y1;
 681              		.loc 2 122 19 is_stmt 0 view .LVU232
 682 0082 BDF90010 		ldrsh	r1, [sp]
 122:Middlewares/lvgl/src/core/../misc/../font/../misc/lv_area.h ****     dest->y1 = src->y1;
 683              		.loc 2 122 14 view .LVU233
 684 0086 AB1D     		adds	r3, r5, #6
 685 0088 22F83310 		strh	r1, [r2, r3, lsl #3]	@ movhi
 123:Middlewares/lvgl/src/core/../misc/../font/../misc/lv_area.h ****     dest->x2 = src->x2;
 686              		.loc 2 123 5 is_stmt 1 view .LVU234
 123:Middlewares/lvgl/src/core/../misc/../font/../misc/lv_area.h ****     dest->x2 = src->x2;
 687              		.loc 2 123 19 is_stmt 0 view .LVU235
 688 008c BDF90210 		ldrsh	r1, [sp, #2]
 123:Middlewares/lvgl/src/core/../misc/../font/../misc/lv_area.h ****     dest->x2 = src->x2;
 689              		.loc 2 123 14 view .LVU236
 690 0090 02EBC303 		add	r3, r2, r3, lsl #3
 691              	.LVL69:
 123:Middlewares/lvgl/src/core/../misc/../font/../misc/lv_area.h ****     dest->x2 = src->x2;
 692              		.loc 2 123 14 view .LVU237
 693 0094 5980     		strh	r1, [r3, #2]	@ movhi
 124:Middlewares/lvgl/src/core/../misc/../font/../misc/lv_area.h ****     dest->y2 = src->y2;
 694              		.loc 2 124 5 is_stmt 1 view .LVU238
 124:Middlewares/lvgl/src/core/../misc/../font/../misc/lv_area.h ****     dest->y2 = src->y2;
 695              		.loc 2 124 19 is_stmt 0 view .LVU239
 696 0096 BDF90410 		ldrsh	r1, [sp, #4]
 124:Middlewares/lvgl/src/core/../misc/../font/../misc/lv_area.h ****     dest->y2 = src->y2;
 697              		.loc 2 124 14 view .LVU240
 698 009a 9980     		strh	r1, [r3, #4]	@ movhi
 125:Middlewares/lvgl/src/core/../misc/../font/../misc/lv_area.h **** }
 699              		.loc 2 125 5 is_stmt 1 view .LVU241
 125:Middlewares/lvgl/src/core/../misc/../font/../misc/lv_area.h **** }
 700              		.loc 2 125 19 is_stmt 0 view .LVU242
 701 009c BDF90610 		ldrsh	r1, [sp, #6]
 125:Middlewares/lvgl/src/core/../misc/../font/../misc/lv_area.h **** }
 702              		.loc 2 125 14 view .LVU243
 703 00a0 D980     		strh	r1, [r3, #6]	@ movhi
 704              	.LVL70:
 125:Middlewares/lvgl/src/core/../misc/../font/../misc/lv_area.h **** }
 705              		.loc 2 125 14 view .LVU244
 706              	.LBE51:
 707              	.LBE50:
 355:Middlewares/lvgl/src/core/lv_refr.c ****             }
 708              		.loc 1 355 17 is_stmt 1 view .LVU245
 355:Middlewares/lvgl/src/core/lv_refr.c ****             }
 709              		.loc 1 355 55 is_stmt 0 view .LVU246
 710 00a2 2244     		add	r2, r2, r4
 711 00a4 0123     		movs	r3, #1
 712 00a6 82F83031 		strb	r3, [r2, #304]
 713 00aa AEE7     		b	.L36
 714              	.LVL71:
 715              	.L34:
 332:Middlewares/lvgl/src/core/lv_refr.c ****         if(disp_refr->inv_area_joined[join_in] != 0) continue;
 716              		.loc 1 332 50 is_stmt 1 discriminator 2 view .LVU247
 332:Middlewares/lvgl/src/core/lv_refr.c ****         if(disp_refr->inv_area_joined[join_in] != 0) continue;
ARM GAS  /tmp/cccpOVCi.s 			page 35


 717              		.loc 1 332 57 is_stmt 0 discriminator 2 view .LVU248
 718 00ac 0135     		adds	r5, r5, #1
 719              	.LVL72:
 720              	.L33:
 332:Middlewares/lvgl/src/core/lv_refr.c ****         if(disp_refr->inv_area_joined[join_in] != 0) continue;
 721              		.loc 1 332 22 is_stmt 1 discriminator 1 view .LVU249
 332:Middlewares/lvgl/src/core/lv_refr.c ****         if(disp_refr->inv_area_joined[join_in] != 0) continue;
 722              		.loc 1 332 41 is_stmt 0 discriminator 1 view .LVU250
 723 00ae 084B     		ldr	r3, .L41
 724 00b0 1B68     		ldr	r3, [r3]
 725 00b2 B3F85021 		ldrh	r2, [r3, #336]
 332:Middlewares/lvgl/src/core/lv_refr.c ****         if(disp_refr->inv_area_joined[join_in] != 0) continue;
 726              		.loc 1 332 5 discriminator 1 view .LVU251
 727 00b6 AA42     		cmp	r2, r5
 728 00b8 06D9     		bls	.L40
 333:Middlewares/lvgl/src/core/lv_refr.c **** 
 729              		.loc 1 333 9 is_stmt 1 view .LVU252
 333:Middlewares/lvgl/src/core/lv_refr.c **** 
 730              		.loc 1 333 38 is_stmt 0 view .LVU253
 731 00ba 2B44     		add	r3, r3, r5
 732 00bc 93F83031 		ldrb	r3, [r3, #304]	@ zero_extendqisi2
 333:Middlewares/lvgl/src/core/lv_refr.c **** 
 733              		.loc 1 333 11 view .LVU254
 734 00c0 002B     		cmp	r3, #0
 735 00c2 F3D1     		bne	.L34
 336:Middlewares/lvgl/src/core/lv_refr.c ****             /*Handle only unjoined areas and ignore itself*/
 736              		.loc 1 336 23 view .LVU255
 737 00c4 0024     		movs	r4, #0
 738 00c6 A1E7     		b	.L35
 739              	.L40:
 359:Middlewares/lvgl/src/core/lv_refr.c **** 
 740              		.loc 1 359 1 view .LVU256
 741 00c8 03B0     		add	sp, sp, #12
 742              	.LCFI6:
 743              		.cfi_def_cfa_offset 28
 744              		@ sp needed
 745 00ca BDE8F083 		pop	{r4, r5, r6, r7, r8, r9, pc}
 746              	.LVL73:
 747              	.L42:
 359:Middlewares/lvgl/src/core/lv_refr.c **** 
 748              		.loc 1 359 1 view .LVU257
 749 00ce 00BF     		.align	2
 750              	.L41:
 751 00d0 00000000 		.word	.LANCHOR0
 752              		.cfi_endproc
 753              	.LFE159:
 755              		.section	.text.lv_refr_get_top_obj,"ax",%progbits
 756              		.align	1
 757              		.syntax unified
 758              		.thumb
 759              		.thumb_func
 760              		.fpu fpv5-d16
 762              	lv_refr_get_top_obj:
 763              	.LVL74:
 764              	.LFB163:
 575:Middlewares/lvgl/src/core/lv_refr.c ****     lv_obj_t * found_p = NULL;
 765              		.loc 1 575 1 is_stmt 1 view -0
ARM GAS  /tmp/cccpOVCi.s 			page 36


 766              		.cfi_startproc
 767              		@ args = 0, pretend = 0, frame = 8
 768              		@ frame_needed = 0, uses_anonymous_args = 0
 575:Middlewares/lvgl/src/core/lv_refr.c ****     lv_obj_t * found_p = NULL;
 769              		.loc 1 575 1 is_stmt 0 view .LVU259
 770 0000 F0B5     		push	{r4, r5, r6, r7, lr}
 771              	.LCFI7:
 772              		.cfi_def_cfa_offset 20
 773              		.cfi_offset 4, -20
 774              		.cfi_offset 5, -16
 775              		.cfi_offset 6, -12
 776              		.cfi_offset 7, -8
 777              		.cfi_offset 14, -4
 778 0002 83B0     		sub	sp, sp, #12
 779              	.LCFI8:
 780              		.cfi_def_cfa_offset 32
 781 0004 0646     		mov	r6, r0
 782 0006 0C46     		mov	r4, r1
 576:Middlewares/lvgl/src/core/lv_refr.c **** 
 783              		.loc 1 576 5 is_stmt 1 view .LVU260
 784              	.LVL75:
 579:Middlewares/lvgl/src/core/lv_refr.c ****         lv_cover_check_info_t info;
 785              		.loc 1 579 5 view .LVU261
 579:Middlewares/lvgl/src/core/lv_refr.c ****         lv_cover_check_info_t info;
 786              		.loc 1 579 8 is_stmt 0 view .LVU262
 787 0008 0022     		movs	r2, #0
 788 000a 1431     		adds	r1, r1, #20
 789              	.LVL76:
 579:Middlewares/lvgl/src/core/lv_refr.c ****         lv_cover_check_info_t info;
 790              		.loc 1 579 8 view .LVU263
 791 000c FFF7FEFF 		bl	_lv_area_is_in
 792              	.LVL77:
 579:Middlewares/lvgl/src/core/lv_refr.c ****         lv_cover_check_info_t info;
 793              		.loc 1 579 7 view .LVU264
 794 0010 68B3     		cbz	r0, .L50
 579:Middlewares/lvgl/src/core/lv_refr.c ****         lv_cover_check_info_t info;
 795              		.loc 1 579 51 discriminator 1 view .LVU265
 796 0012 0121     		movs	r1, #1
 797 0014 2046     		mov	r0, r4
 798 0016 FFF7FEFF 		bl	lv_obj_has_flag
 799              	.LVL78:
 579:Middlewares/lvgl/src/core/lv_refr.c ****         lv_cover_check_info_t info;
 800              		.loc 1 579 48 discriminator 1 view .LVU266
 801 001a 60BB     		cbnz	r0, .L51
 802              	.LBB52:
 580:Middlewares/lvgl/src/core/lv_refr.c ****         info.res = LV_COVER_RES_COVER;
 803              		.loc 1 580 9 is_stmt 1 view .LVU267
 581:Middlewares/lvgl/src/core/lv_refr.c ****         info.area = area_p;
 804              		.loc 1 581 9 view .LVU268
 581:Middlewares/lvgl/src/core/lv_refr.c ****         info.area = area_p;
 805              		.loc 1 581 18 is_stmt 0 view .LVU269
 806 001c 0023     		movs	r3, #0
 807 001e 8DF80030 		strb	r3, [sp]
 582:Middlewares/lvgl/src/core/lv_refr.c ****         lv_event_send(obj, LV_EVENT_COVER_CHECK, &info);
 808              		.loc 1 582 9 is_stmt 1 view .LVU270
 582:Middlewares/lvgl/src/core/lv_refr.c ****         lv_event_send(obj, LV_EVENT_COVER_CHECK, &info);
 809              		.loc 1 582 19 is_stmt 0 view .LVU271
ARM GAS  /tmp/cccpOVCi.s 			page 37


 810 0022 0196     		str	r6, [sp, #4]
 583:Middlewares/lvgl/src/core/lv_refr.c ****         if(info.res == LV_COVER_RES_MASKED) return NULL;
 811              		.loc 1 583 9 is_stmt 1 view .LVU272
 812 0024 6A46     		mov	r2, sp
 813 0026 1221     		movs	r1, #18
 814 0028 2046     		mov	r0, r4
 815 002a FFF7FEFF 		bl	lv_event_send
 816              	.LVL79:
 584:Middlewares/lvgl/src/core/lv_refr.c **** 
 817              		.loc 1 584 9 view .LVU273
 584:Middlewares/lvgl/src/core/lv_refr.c **** 
 818              		.loc 1 584 16 is_stmt 0 view .LVU274
 819 002e 9DF80030 		ldrb	r3, [sp]	@ zero_extendqisi2
 584:Middlewares/lvgl/src/core/lv_refr.c **** 
 820              		.loc 1 584 11 view .LVU275
 821 0032 022B     		cmp	r3, #2
 822 0034 13D0     		beq	.L54
 586:Middlewares/lvgl/src/core/lv_refr.c ****         uint32_t child_cnt = lv_obj_get_child_cnt(obj);
 823              		.loc 1 586 9 is_stmt 1 view .LVU276
 587:Middlewares/lvgl/src/core/lv_refr.c ****         for(i = 0; i < child_cnt; i++) {
 824              		.loc 1 587 9 view .LVU277
 587:Middlewares/lvgl/src/core/lv_refr.c ****         for(i = 0; i < child_cnt; i++) {
 825              		.loc 1 587 30 is_stmt 0 view .LVU278
 826 0036 2046     		mov	r0, r4
 827 0038 FFF7FEFF 		bl	lv_obj_get_child_cnt
 828              	.LVL80:
 829 003c 0746     		mov	r7, r0
 830              	.LVL81:
 588:Middlewares/lvgl/src/core/lv_refr.c ****             lv_obj_t * child = lv_obj_get_child(obj, i);
 831              		.loc 1 588 9 is_stmt 1 view .LVU279
 588:Middlewares/lvgl/src/core/lv_refr.c ****             lv_obj_t * child = lv_obj_get_child(obj, i);
 832              		.loc 1 588 15 is_stmt 0 view .LVU280
 833 003e 0025     		movs	r5, #0
 834              	.LBE52:
 576:Middlewares/lvgl/src/core/lv_refr.c **** 
 835              		.loc 1 576 16 view .LVU281
 836 0040 2B46     		mov	r3, r5
 837              	.LVL82:
 838              	.L46:
 839              	.LBB54:
 588:Middlewares/lvgl/src/core/lv_refr.c ****             lv_obj_t * child = lv_obj_get_child(obj, i);
 840              		.loc 1 588 20 is_stmt 1 discriminator 1 view .LVU282
 588:Middlewares/lvgl/src/core/lv_refr.c ****             lv_obj_t * child = lv_obj_get_child(obj, i);
 841              		.loc 1 588 9 is_stmt 0 discriminator 1 view .LVU283
 842 0042 BD42     		cmp	r5, r7
 843 0044 0DD2     		bcs	.L47
 844              	.LBB53:
 589:Middlewares/lvgl/src/core/lv_refr.c ****             found_p = lv_refr_get_top_obj(area_p, child);
 845              		.loc 1 589 13 is_stmt 1 view .LVU284
 589:Middlewares/lvgl/src/core/lv_refr.c ****             found_p = lv_refr_get_top_obj(area_p, child);
 846              		.loc 1 589 32 is_stmt 0 view .LVU285
 847 0046 2946     		mov	r1, r5
 848 0048 2046     		mov	r0, r4
 849 004a FFF7FEFF 		bl	lv_obj_get_child
 850              	.LVL83:
 589:Middlewares/lvgl/src/core/lv_refr.c ****             found_p = lv_refr_get_top_obj(area_p, child);
 851              		.loc 1 589 32 view .LVU286
ARM GAS  /tmp/cccpOVCi.s 			page 38


 852 004e 0146     		mov	r1, r0
 853              	.LVL84:
 590:Middlewares/lvgl/src/core/lv_refr.c **** 
 854              		.loc 1 590 13 is_stmt 1 view .LVU287
 590:Middlewares/lvgl/src/core/lv_refr.c **** 
 855              		.loc 1 590 23 is_stmt 0 view .LVU288
 856 0050 3046     		mov	r0, r6
 857              	.LVL85:
 590:Middlewares/lvgl/src/core/lv_refr.c **** 
 858              		.loc 1 590 23 view .LVU289
 859 0052 FFF7D5FF 		bl	lv_refr_get_top_obj
 860              	.LVL86:
 593:Middlewares/lvgl/src/core/lv_refr.c ****                 break;
 861              		.loc 1 593 13 is_stmt 1 view .LVU290
 593:Middlewares/lvgl/src/core/lv_refr.c ****                 break;
 862              		.loc 1 593 15 is_stmt 0 view .LVU291
 863 0056 0346     		mov	r3, r0
 864 0058 18B9     		cbnz	r0, .L47
 865              	.LBE53:
 588:Middlewares/lvgl/src/core/lv_refr.c ****             lv_obj_t * child = lv_obj_get_child(obj, i);
 866              		.loc 1 588 35 is_stmt 1 discriminator 2 view .LVU292
 588:Middlewares/lvgl/src/core/lv_refr.c ****             lv_obj_t * child = lv_obj_get_child(obj, i);
 867              		.loc 1 588 36 is_stmt 0 discriminator 2 view .LVU293
 868 005a 0135     		adds	r5, r5, #1
 869              	.LVL87:
 588:Middlewares/lvgl/src/core/lv_refr.c ****             lv_obj_t * child = lv_obj_get_child(obj, i);
 870              		.loc 1 588 36 discriminator 2 view .LVU294
 871 005c F1E7     		b	.L46
 872              	.LVL88:
 873              	.L54:
 584:Middlewares/lvgl/src/core/lv_refr.c **** 
 874              		.loc 1 584 45 is_stmt 1 discriminator 1 view .LVU295
 584:Middlewares/lvgl/src/core/lv_refr.c **** 
 875              		.loc 1 584 52 is_stmt 0 discriminator 1 view .LVU296
 876 005e 0023     		movs	r3, #0
 877 0060 06E0     		b	.L43
 878              	.LVL89:
 879              	.L47:
 599:Middlewares/lvgl/src/core/lv_refr.c ****             if(info.res == LV_COVER_RES_COVER) {
 880              		.loc 1 599 9 is_stmt 1 view .LVU297
 599:Middlewares/lvgl/src/core/lv_refr.c ****             if(info.res == LV_COVER_RES_COVER) {
 881              		.loc 1 599 11 is_stmt 0 view .LVU298
 882 0062 2BB9     		cbnz	r3, .L43
 600:Middlewares/lvgl/src/core/lv_refr.c ****                 found_p = obj;
 883              		.loc 1 600 13 is_stmt 1 view .LVU299
 600:Middlewares/lvgl/src/core/lv_refr.c ****                 found_p = obj;
 884              		.loc 1 600 20 is_stmt 0 view .LVU300
 885 0064 9DF80020 		ldrb	r2, [sp]	@ zero_extendqisi2
 600:Middlewares/lvgl/src/core/lv_refr.c ****                 found_p = obj;
 886              		.loc 1 600 15 view .LVU301
 887 0068 12B9     		cbnz	r2, .L43
 601:Middlewares/lvgl/src/core/lv_refr.c ****             }
 888              		.loc 1 601 25 view .LVU302
 889 006a 2346     		mov	r3, r4
 890              	.LVL90:
 601:Middlewares/lvgl/src/core/lv_refr.c ****             }
 891              		.loc 1 601 25 view .LVU303
ARM GAS  /tmp/cccpOVCi.s 			page 39


 892 006c 00E0     		b	.L43
 893              	.LVL91:
 894              	.L50:
 601:Middlewares/lvgl/src/core/lv_refr.c ****             }
 895              		.loc 1 601 25 view .LVU304
 896              	.LBE54:
 576:Middlewares/lvgl/src/core/lv_refr.c **** 
 897              		.loc 1 576 16 view .LVU305
 898 006e 0023     		movs	r3, #0
 899              	.LVL92:
 900              	.L43:
 607:Middlewares/lvgl/src/core/lv_refr.c **** 
 901              		.loc 1 607 1 view .LVU306
 902 0070 1846     		mov	r0, r3
 903 0072 03B0     		add	sp, sp, #12
 904              	.LCFI9:
 905              		.cfi_remember_state
 906              		.cfi_def_cfa_offset 20
 907              		@ sp needed
 908 0074 F0BD     		pop	{r4, r5, r6, r7, pc}
 909              	.LVL93:
 910              	.L51:
 911              	.LCFI10:
 912              		.cfi_restore_state
 576:Middlewares/lvgl/src/core/lv_refr.c **** 
 913              		.loc 1 576 16 view .LVU307
 914 0076 0023     		movs	r3, #0
 915              	.LVL94:
 576:Middlewares/lvgl/src/core/lv_refr.c **** 
 916              		.loc 1 576 16 view .LVU308
 917 0078 FAE7     		b	.L43
 918              		.cfi_endproc
 919              	.LFE163:
 921              		.section	.text.lv_refr_obj,"ax",%progbits
 922              		.align	1
 923              		.syntax unified
 924              		.thumb
 925              		.thumb_func
 926              		.fpu fpv5-d16
 928              	lv_refr_obj:
 929              	.LVL95:
 930              	.LFB165:
 665:Middlewares/lvgl/src/core/lv_refr.c ****     /*Do not refresh hidden objects*/
 931              		.loc 1 665 1 is_stmt 1 view -0
 932              		.cfi_startproc
 933              		@ args = 0, pretend = 0, frame = 40
 934              		@ frame_needed = 0, uses_anonymous_args = 0
 665:Middlewares/lvgl/src/core/lv_refr.c ****     /*Do not refresh hidden objects*/
 935              		.loc 1 665 1 is_stmt 0 view .LVU310
 936 0000 F0B5     		push	{r4, r5, r6, r7, lr}
 937              	.LCFI11:
 938              		.cfi_def_cfa_offset 20
 939              		.cfi_offset 4, -20
 940              		.cfi_offset 5, -16
 941              		.cfi_offset 6, -12
 942              		.cfi_offset 7, -8
 943              		.cfi_offset 14, -4
ARM GAS  /tmp/cccpOVCi.s 			page 40


 944 0002 8BB0     		sub	sp, sp, #44
 945              	.LCFI12:
 946              		.cfi_def_cfa_offset 64
 947 0004 0546     		mov	r5, r0
 948 0006 0E46     		mov	r6, r1
 667:Middlewares/lvgl/src/core/lv_refr.c **** 
 949              		.loc 1 667 5 is_stmt 1 view .LVU311
 667:Middlewares/lvgl/src/core/lv_refr.c **** 
 950              		.loc 1 667 8 is_stmt 0 view .LVU312
 951 0008 0121     		movs	r1, #1
 952              	.LVL96:
 667:Middlewares/lvgl/src/core/lv_refr.c **** 
 953              		.loc 1 667 8 view .LVU313
 954 000a FFF7FEFF 		bl	lv_obj_has_flag
 955              	.LVL97:
 667:Middlewares/lvgl/src/core/lv_refr.c **** 
 956              		.loc 1 667 7 view .LVU314
 957 000e 08B1     		cbz	r0, .L64
 958              	.LVL98:
 959              	.L55:
 734:Middlewares/lvgl/src/core/lv_refr.c **** 
 960              		.loc 1 734 1 view .LVU315
 961 0010 0BB0     		add	sp, sp, #44
 962              	.LCFI13:
 963              		.cfi_remember_state
 964              		.cfi_def_cfa_offset 20
 965              		@ sp needed
 966 0012 F0BD     		pop	{r4, r5, r6, r7, pc}
 967              	.LVL99:
 968              	.L64:
 969              	.LCFI14:
 970              		.cfi_restore_state
 669:Middlewares/lvgl/src/core/lv_refr.c ****     /*Truncate the original mask to the coordinates of the parent
 971              		.loc 1 669 5 is_stmt 1 view .LVU316
 672:Middlewares/lvgl/src/core/lv_refr.c ****     lv_area_t obj_ext_mask;
 972              		.loc 1 672 5 view .LVU317
 673:Middlewares/lvgl/src/core/lv_refr.c ****     lv_area_t obj_area;
 973              		.loc 1 673 5 view .LVU318
 674:Middlewares/lvgl/src/core/lv_refr.c ****     lv_coord_t ext_size = _lv_obj_get_ext_draw_size(obj);
 974              		.loc 1 674 5 view .LVU319
 675:Middlewares/lvgl/src/core/lv_refr.c ****     lv_obj_get_coords(obj, &obj_area);
 975              		.loc 1 675 5 view .LVU320
 675:Middlewares/lvgl/src/core/lv_refr.c ****     lv_obj_get_coords(obj, &obj_area);
 976              		.loc 1 675 27 is_stmt 0 view .LVU321
 977 0014 2846     		mov	r0, r5
 978 0016 FFF7FEFF 		bl	_lv_obj_get_ext_draw_size
 979              	.LVL100:
 980 001a 0446     		mov	r4, r0
 981              	.LVL101:
 676:Middlewares/lvgl/src/core/lv_refr.c ****     obj_area.x1 -= ext_size;
 982              		.loc 1 676 5 is_stmt 1 view .LVU322
 983 001c 04A9     		add	r1, sp, #16
 984 001e 2846     		mov	r0, r5
 985 0020 FFF7FEFF 		bl	lv_obj_get_coords
 986              	.LVL102:
 677:Middlewares/lvgl/src/core/lv_refr.c ****     obj_area.y1 -= ext_size;
 987              		.loc 1 677 5 view .LVU323
ARM GAS  /tmp/cccpOVCi.s 			page 41


 677:Middlewares/lvgl/src/core/lv_refr.c ****     obj_area.y1 -= ext_size;
 988              		.loc 1 677 17 is_stmt 0 view .LVU324
 989 0024 A3B2     		uxth	r3, r4
 990 0026 BDF81020 		ldrh	r2, [sp, #16]
 991 002a D21A     		subs	r2, r2, r3
 992 002c ADF81020 		strh	r2, [sp, #16]	@ movhi
 678:Middlewares/lvgl/src/core/lv_refr.c ****     obj_area.x2 += ext_size;
 993              		.loc 1 678 5 is_stmt 1 view .LVU325
 678:Middlewares/lvgl/src/core/lv_refr.c ****     obj_area.x2 += ext_size;
 994              		.loc 1 678 17 is_stmt 0 view .LVU326
 995 0030 BDF81220 		ldrh	r2, [sp, #18]
 996 0034 D21A     		subs	r2, r2, r3
 997 0036 ADF81220 		strh	r2, [sp, #18]	@ movhi
 679:Middlewares/lvgl/src/core/lv_refr.c ****     obj_area.y2 += ext_size;
 998              		.loc 1 679 5 is_stmt 1 view .LVU327
 679:Middlewares/lvgl/src/core/lv_refr.c ****     obj_area.y2 += ext_size;
 999              		.loc 1 679 17 is_stmt 0 view .LVU328
 1000 003a BDF81420 		ldrh	r2, [sp, #20]
 1001 003e 1A44     		add	r2, r2, r3
 1002 0040 ADF81420 		strh	r2, [sp, #20]	@ movhi
 680:Middlewares/lvgl/src/core/lv_refr.c ****     union_ok = _lv_area_intersect(&obj_ext_mask, mask_ori_p, &obj_area);
 1003              		.loc 1 680 5 is_stmt 1 view .LVU329
 680:Middlewares/lvgl/src/core/lv_refr.c ****     union_ok = _lv_area_intersect(&obj_ext_mask, mask_ori_p, &obj_area);
 1004              		.loc 1 680 17 is_stmt 0 view .LVU330
 1005 0044 BDF81600 		ldrh	r0, [sp, #22]
 1006 0048 0344     		add	r3, r3, r0
 1007 004a ADF81630 		strh	r3, [sp, #22]	@ movhi
 681:Middlewares/lvgl/src/core/lv_refr.c **** 
 1008              		.loc 1 681 5 is_stmt 1 view .LVU331
 681:Middlewares/lvgl/src/core/lv_refr.c **** 
 1009              		.loc 1 681 16 is_stmt 0 view .LVU332
 1010 004e 04AA     		add	r2, sp, #16
 1011 0050 3146     		mov	r1, r6
 1012 0052 06A8     		add	r0, sp, #24
 1013 0054 FFF7FEFF 		bl	_lv_area_intersect
 1014              	.LVL103:
 684:Middlewares/lvgl/src/core/lv_refr.c ****         /*Redraw the object*/
 1015              		.loc 1 684 5 is_stmt 1 view .LVU333
 684:Middlewares/lvgl/src/core/lv_refr.c ****         /*Redraw the object*/
 1016              		.loc 1 684 7 is_stmt 0 view .LVU334
 1017 0058 0028     		cmp	r0, #0
 1018 005a D9D0     		beq	.L55
 686:Middlewares/lvgl/src/core/lv_refr.c ****         lv_event_send(obj, LV_EVENT_DRAW_MAIN, &obj_ext_mask);
 1019              		.loc 1 686 9 is_stmt 1 view .LVU335
 1020 005c 06AA     		add	r2, sp, #24
 1021 005e 1421     		movs	r1, #20
 1022 0060 2846     		mov	r0, r5
 1023              	.LVL104:
 686:Middlewares/lvgl/src/core/lv_refr.c ****         lv_event_send(obj, LV_EVENT_DRAW_MAIN, &obj_ext_mask);
 1024              		.loc 1 686 9 is_stmt 0 view .LVU336
 1025 0062 FFF7FEFF 		bl	lv_event_send
 1026              	.LVL105:
 687:Middlewares/lvgl/src/core/lv_refr.c ****         lv_event_send(obj, LV_EVENT_DRAW_MAIN_END, &obj_ext_mask);
 1027              		.loc 1 687 9 is_stmt 1 view .LVU337
 1028 0066 06AA     		add	r2, sp, #24
 1029 0068 1521     		movs	r1, #21
 1030 006a 2846     		mov	r0, r5
ARM GAS  /tmp/cccpOVCi.s 			page 42


 1031 006c FFF7FEFF 		bl	lv_event_send
 1032              	.LVL106:
 688:Middlewares/lvgl/src/core/lv_refr.c **** 
 1033              		.loc 1 688 9 view .LVU338
 1034 0070 06AA     		add	r2, sp, #24
 1035 0072 1621     		movs	r1, #22
 1036 0074 2846     		mov	r0, r5
 1037 0076 FFF7FEFF 		bl	lv_event_send
 1038              	.LVL107:
 702:Middlewares/lvgl/src/core/lv_refr.c ****         union_ok = _lv_area_intersect(&obj_mask, mask_ori_p, &obj_area);
 1039              		.loc 1 702 9 view .LVU339
 1040 007a 04A9     		add	r1, sp, #16
 1041 007c 2846     		mov	r0, r5
 1042 007e FFF7FEFF 		bl	lv_obj_get_coords
 1043              	.LVL108:
 703:Middlewares/lvgl/src/core/lv_refr.c ****         if(union_ok != false) {
 1044              		.loc 1 703 9 view .LVU340
 703:Middlewares/lvgl/src/core/lv_refr.c ****         if(union_ok != false) {
 1045              		.loc 1 703 20 is_stmt 0 view .LVU341
 1046 0082 04AA     		add	r2, sp, #16
 1047 0084 3146     		mov	r1, r6
 1048 0086 08A8     		add	r0, sp, #32
 1049 0088 FFF7FEFF 		bl	_lv_area_intersect
 1050              	.LVL109:
 704:Middlewares/lvgl/src/core/lv_refr.c ****             lv_area_t mask_child; /*Mask from obj and its child*/
 1051              		.loc 1 704 9 is_stmt 1 view .LVU342
 704:Middlewares/lvgl/src/core/lv_refr.c ****             lv_area_t mask_child; /*Mask from obj and its child*/
 1052              		.loc 1 704 11 is_stmt 0 view .LVU343
 1053 008c 78B9     		cbnz	r0, .L65
 1054              	.LVL110:
 1055              	.L59:
 730:Middlewares/lvgl/src/core/lv_refr.c ****         lv_event_send(obj, LV_EVENT_DRAW_POST, &obj_ext_mask);
 1056              		.loc 1 730 9 is_stmt 1 view .LVU344
 1057 008e 06AA     		add	r2, sp, #24
 1058 0090 1721     		movs	r1, #23
 1059 0092 2846     		mov	r0, r5
 1060 0094 FFF7FEFF 		bl	lv_event_send
 1061              	.LVL111:
 731:Middlewares/lvgl/src/core/lv_refr.c ****         lv_event_send(obj, LV_EVENT_DRAW_POST_END, &obj_ext_mask);
 1062              		.loc 1 731 9 view .LVU345
 1063 0098 06AA     		add	r2, sp, #24
 1064 009a 1821     		movs	r1, #24
 1065 009c 2846     		mov	r0, r5
 1066 009e FFF7FEFF 		bl	lv_event_send
 1067              	.LVL112:
 732:Middlewares/lvgl/src/core/lv_refr.c ****     }
 1068              		.loc 1 732 9 view .LVU346
 1069 00a2 06AA     		add	r2, sp, #24
 1070 00a4 1921     		movs	r1, #25
 1071 00a6 2846     		mov	r0, r5
 1072 00a8 FFF7FEFF 		bl	lv_event_send
 1073              	.LVL113:
 1074 00ac B0E7     		b	.L55
 1075              	.LVL114:
 1076              	.L65:
 1077              	.LBB55:
 705:Middlewares/lvgl/src/core/lv_refr.c ****             lv_area_t child_area;
ARM GAS  /tmp/cccpOVCi.s 			page 43


 1078              		.loc 1 705 13 view .LVU347
 706:Middlewares/lvgl/src/core/lv_refr.c ****             uint32_t i;
 1079              		.loc 1 706 13 view .LVU348
 707:Middlewares/lvgl/src/core/lv_refr.c ****             uint32_t child_cnt = lv_obj_get_child_cnt(obj);
 1080              		.loc 1 707 13 view .LVU349
 708:Middlewares/lvgl/src/core/lv_refr.c ****             for(i = 0; i < child_cnt; i++) {
 1081              		.loc 1 708 13 view .LVU350
 708:Middlewares/lvgl/src/core/lv_refr.c ****             for(i = 0; i < child_cnt; i++) {
 1082              		.loc 1 708 34 is_stmt 0 view .LVU351
 1083 00ae 2846     		mov	r0, r5
 1084              	.LVL115:
 708:Middlewares/lvgl/src/core/lv_refr.c ****             for(i = 0; i < child_cnt; i++) {
 1085              		.loc 1 708 34 view .LVU352
 1086 00b0 FFF7FEFF 		bl	lv_obj_get_child_cnt
 1087              	.LVL116:
 1088 00b4 0746     		mov	r7, r0
 1089              	.LVL117:
 709:Middlewares/lvgl/src/core/lv_refr.c ****                 lv_obj_t * child = lv_obj_get_child(obj, i);
 1090              		.loc 1 709 13 is_stmt 1 view .LVU353
 709:Middlewares/lvgl/src/core/lv_refr.c ****                 lv_obj_t * child = lv_obj_get_child(obj, i);
 1091              		.loc 1 709 19 is_stmt 0 view .LVU354
 1092 00b6 0024     		movs	r4, #0
 1093              	.LVL118:
 709:Middlewares/lvgl/src/core/lv_refr.c ****                 lv_obj_t * child = lv_obj_get_child(obj, i);
 1094              		.loc 1 709 13 view .LVU355
 1095 00b8 00E0     		b	.L60
 1096              	.LVL119:
 1097              	.L61:
 709:Middlewares/lvgl/src/core/lv_refr.c ****                 lv_obj_t * child = lv_obj_get_child(obj, i);
 1098              		.loc 1 709 39 is_stmt 1 discriminator 2 view .LVU356
 709:Middlewares/lvgl/src/core/lv_refr.c ****                 lv_obj_t * child = lv_obj_get_child(obj, i);
 1099              		.loc 1 709 40 is_stmt 0 discriminator 2 view .LVU357
 1100 00ba 0134     		adds	r4, r4, #1
 1101              	.LVL120:
 1102              	.L60:
 709:Middlewares/lvgl/src/core/lv_refr.c ****                 lv_obj_t * child = lv_obj_get_child(obj, i);
 1103              		.loc 1 709 24 is_stmt 1 discriminator 1 view .LVU358
 709:Middlewares/lvgl/src/core/lv_refr.c ****                 lv_obj_t * child = lv_obj_get_child(obj, i);
 1104              		.loc 1 709 13 is_stmt 0 discriminator 1 view .LVU359
 1105 00bc BC42     		cmp	r4, r7
 1106 00be E6D2     		bcs	.L59
 1107              	.LBB56:
 710:Middlewares/lvgl/src/core/lv_refr.c ****                 lv_obj_get_coords(child, &child_area);
 1108              		.loc 1 710 17 is_stmt 1 view .LVU360
 710:Middlewares/lvgl/src/core/lv_refr.c ****                 lv_obj_get_coords(child, &child_area);
 1109              		.loc 1 710 36 is_stmt 0 view .LVU361
 1110 00c0 2146     		mov	r1, r4
 1111 00c2 2846     		mov	r0, r5
 1112 00c4 FFF7FEFF 		bl	lv_obj_get_child
 1113              	.LVL121:
 1114 00c8 0646     		mov	r6, r0
 1115              	.LVL122:
 711:Middlewares/lvgl/src/core/lv_refr.c ****                 ext_size = _lv_obj_get_ext_draw_size(child);
 1116              		.loc 1 711 17 is_stmt 1 view .LVU362
 1117 00ca 02A9     		add	r1, sp, #8
 1118 00cc FFF7FEFF 		bl	lv_obj_get_coords
 1119              	.LVL123:
ARM GAS  /tmp/cccpOVCi.s 			page 44


 712:Middlewares/lvgl/src/core/lv_refr.c ****                 child_area.x1 -= ext_size;
 1120              		.loc 1 712 17 view .LVU363
 712:Middlewares/lvgl/src/core/lv_refr.c ****                 child_area.x1 -= ext_size;
 1121              		.loc 1 712 28 is_stmt 0 view .LVU364
 1122 00d0 3046     		mov	r0, r6
 1123 00d2 FFF7FEFF 		bl	_lv_obj_get_ext_draw_size
 1124              	.LVL124:
 713:Middlewares/lvgl/src/core/lv_refr.c ****                 child_area.y1 -= ext_size;
 1125              		.loc 1 713 17 is_stmt 1 view .LVU365
 713:Middlewares/lvgl/src/core/lv_refr.c ****                 child_area.y1 -= ext_size;
 1126              		.loc 1 713 31 is_stmt 0 view .LVU366
 1127 00d6 83B2     		uxth	r3, r0
 1128 00d8 BDF80820 		ldrh	r2, [sp, #8]
 1129 00dc D21A     		subs	r2, r2, r3
 1130 00de ADF80820 		strh	r2, [sp, #8]	@ movhi
 714:Middlewares/lvgl/src/core/lv_refr.c ****                 child_area.x2 += ext_size;
 1131              		.loc 1 714 17 is_stmt 1 view .LVU367
 714:Middlewares/lvgl/src/core/lv_refr.c ****                 child_area.x2 += ext_size;
 1132              		.loc 1 714 31 is_stmt 0 view .LVU368
 1133 00e2 BDF80A20 		ldrh	r2, [sp, #10]
 1134 00e6 D21A     		subs	r2, r2, r3
 1135 00e8 ADF80A20 		strh	r2, [sp, #10]	@ movhi
 715:Middlewares/lvgl/src/core/lv_refr.c ****                 child_area.y2 += ext_size;
 1136              		.loc 1 715 17 is_stmt 1 view .LVU369
 715:Middlewares/lvgl/src/core/lv_refr.c ****                 child_area.y2 += ext_size;
 1137              		.loc 1 715 31 is_stmt 0 view .LVU370
 1138 00ec BDF80C20 		ldrh	r2, [sp, #12]
 1139 00f0 1A44     		add	r2, r2, r3
 1140 00f2 ADF80C20 		strh	r2, [sp, #12]	@ movhi
 716:Middlewares/lvgl/src/core/lv_refr.c ****                 /*Get the union (common parts) of original mask (from obj)
 1141              		.loc 1 716 17 is_stmt 1 view .LVU371
 716:Middlewares/lvgl/src/core/lv_refr.c ****                 /*Get the union (common parts) of original mask (from obj)
 1142              		.loc 1 716 31 is_stmt 0 view .LVU372
 1143 00f6 BDF80E00 		ldrh	r0, [sp, #14]
 1144              	.LVL125:
 716:Middlewares/lvgl/src/core/lv_refr.c ****                 /*Get the union (common parts) of original mask (from obj)
 1145              		.loc 1 716 31 view .LVU373
 1146 00fa 0344     		add	r3, r3, r0
 1147              	.LVL126:
 716:Middlewares/lvgl/src/core/lv_refr.c ****                 /*Get the union (common parts) of original mask (from obj)
 1148              		.loc 1 716 31 view .LVU374
 1149 00fc ADF80E30 		strh	r3, [sp, #14]	@ movhi
 719:Middlewares/lvgl/src/core/lv_refr.c **** 
 1150              		.loc 1 719 17 is_stmt 1 view .LVU375
 719:Middlewares/lvgl/src/core/lv_refr.c **** 
 1151              		.loc 1 719 28 is_stmt 0 view .LVU376
 1152 0100 02AA     		add	r2, sp, #8
 1153 0102 08A9     		add	r1, sp, #32
 1154 0104 6846     		mov	r0, sp
 1155 0106 FFF7FEFF 		bl	_lv_area_intersect
 1156              	.LVL127:
 722:Middlewares/lvgl/src/core/lv_refr.c ****                     /*Refresh the next children*/
 1157              		.loc 1 722 17 is_stmt 1 view .LVU377
 722:Middlewares/lvgl/src/core/lv_refr.c ****                     /*Refresh the next children*/
 1158              		.loc 1 722 19 is_stmt 0 view .LVU378
 1159 010a 0028     		cmp	r0, #0
 1160 010c D5D0     		beq	.L61
ARM GAS  /tmp/cccpOVCi.s 			page 45


 724:Middlewares/lvgl/src/core/lv_refr.c ****                 }
 1161              		.loc 1 724 21 is_stmt 1 view .LVU379
 1162 010e 6946     		mov	r1, sp
 1163 0110 3046     		mov	r0, r6
 1164              	.LVL128:
 724:Middlewares/lvgl/src/core/lv_refr.c ****                 }
 1165              		.loc 1 724 21 is_stmt 0 view .LVU380
 1166 0112 FFF775FF 		bl	lv_refr_obj
 1167              	.LVL129:
 1168 0116 D0E7     		b	.L61
 1169              	.LBE56:
 1170              	.LBE55:
 1171              		.cfi_endproc
 1172              	.LFE165:
 1174              		.section	.text.lv_refr_obj_and_children,"ax",%progbits
 1175              		.align	1
 1176              		.syntax unified
 1177              		.thumb
 1178              		.thumb_func
 1179              		.fpu fpv5-d16
 1181              	lv_refr_obj_and_children:
 1182              	.LVL130:
 1183              	.LFB164:
 615:Middlewares/lvgl/src/core/lv_refr.c ****     /*Normally always will be a top_obj (at least the screen)
 1184              		.loc 1 615 1 is_stmt 1 view -0
 1185              		.cfi_startproc
 1186              		@ args = 0, pretend = 0, frame = 0
 1187              		@ frame_needed = 0, uses_anonymous_args = 0
 615:Middlewares/lvgl/src/core/lv_refr.c ****     /*Normally always will be a top_obj (at least the screen)
 1188              		.loc 1 615 1 is_stmt 0 view .LVU382
 1189 0000 2DE9F843 		push	{r3, r4, r5, r6, r7, r8, r9, lr}
 1190              	.LCFI15:
 1191              		.cfi_def_cfa_offset 32
 1192              		.cfi_offset 3, -32
 1193              		.cfi_offset 4, -28
 1194              		.cfi_offset 5, -24
 1195              		.cfi_offset 6, -20
 1196              		.cfi_offset 7, -16
 1197              		.cfi_offset 8, -12
 1198              		.cfi_offset 9, -8
 1199              		.cfi_offset 14, -4
 1200 0004 8846     		mov	r8, r1
 619:Middlewares/lvgl/src/core/lv_refr.c ****     if(top_p == NULL) return;  /*Shouldn't happen*/
 1201              		.loc 1 619 5 is_stmt 1 view .LVU383
 619:Middlewares/lvgl/src/core/lv_refr.c ****     if(top_p == NULL) return;  /*Shouldn't happen*/
 1202              		.loc 1 619 7 is_stmt 0 view .LVU384
 1203 0006 0746     		mov	r7, r0
 1204 0008 48B1     		cbz	r0, .L77
 1205              	.LVL131:
 1206              	.L67:
 620:Middlewares/lvgl/src/core/lv_refr.c **** 
 1207              		.loc 1 620 5 is_stmt 1 view .LVU385
 620:Middlewares/lvgl/src/core/lv_refr.c **** 
 1208              		.loc 1 620 7 is_stmt 0 view .LVU386
 1209 000a E7B3     		cbz	r7, .L66
 623:Middlewares/lvgl/src/core/lv_refr.c **** 
 1210              		.loc 1 623 5 is_stmt 1 view .LVU387
ARM GAS  /tmp/cccpOVCi.s 			page 46


 1211 000c 4146     		mov	r1, r8
 1212 000e 3846     		mov	r0, r7
 623:Middlewares/lvgl/src/core/lv_refr.c **** 
 1213              		.loc 1 623 5 is_stmt 0 view .LVU388
 1214 0010 FFF7FEFF 		bl	lv_refr_obj
 1215              	.LVL132:
 626:Middlewares/lvgl/src/core/lv_refr.c ****     lv_obj_t * border_p = top_p;
 1216              		.loc 1 626 5 is_stmt 1 view .LVU389
 627:Middlewares/lvgl/src/core/lv_refr.c **** 
 1217              		.loc 1 627 5 view .LVU390
 629:Middlewares/lvgl/src/core/lv_refr.c **** 
 1218              		.loc 1 629 5 view .LVU391
 629:Middlewares/lvgl/src/core/lv_refr.c **** 
 1219              		.loc 1 629 11 is_stmt 0 view .LVU392
 1220 0014 3846     		mov	r0, r7
 1221 0016 FFF7FEFF 		bl	lv_obj_get_parent
 1222              	.LVL133:
 1223 001a 0546     		mov	r5, r0
 1224              	.LVL134:
 632:Middlewares/lvgl/src/core/lv_refr.c ****         bool go = false;
 1225              		.loc 1 632 5 is_stmt 1 view .LVU393
 632:Middlewares/lvgl/src/core/lv_refr.c ****         bool go = false;
 1226              		.loc 1 632 10 is_stmt 0 view .LVU394
 1227 001c 2BE0     		b	.L69
 1228              	.LVL135:
 1229              	.L77:
 619:Middlewares/lvgl/src/core/lv_refr.c ****     if(top_p == NULL) return;  /*Shouldn't happen*/
 1230              		.loc 1 619 23 is_stmt 1 discriminator 1 view .LVU395
 619:Middlewares/lvgl/src/core/lv_refr.c ****     if(top_p == NULL) return;  /*Shouldn't happen*/
 1231              		.loc 1 619 31 is_stmt 0 discriminator 1 view .LVU396
 1232 001e 1B4B     		ldr	r3, .L79
 1233 0020 1868     		ldr	r0, [r3]
 1234              	.LVL136:
 619:Middlewares/lvgl/src/core/lv_refr.c ****     if(top_p == NULL) return;  /*Shouldn't happen*/
 1235              		.loc 1 619 31 discriminator 1 view .LVU397
 1236 0022 FFF7FEFF 		bl	lv_disp_get_scr_act
 1237              	.LVL137:
 619:Middlewares/lvgl/src/core/lv_refr.c ****     if(top_p == NULL) return;  /*Shouldn't happen*/
 1238              		.loc 1 619 31 discriminator 1 view .LVU398
 1239 0026 0746     		mov	r7, r0
 1240              	.LVL138:
 619:Middlewares/lvgl/src/core/lv_refr.c ****     if(top_p == NULL) return;  /*Shouldn't happen*/
 1241              		.loc 1 619 31 discriminator 1 view .LVU399
 1242 0028 EFE7     		b	.L67
 1243              	.LVL139:
 1244              	.L71:
 1245              	.LBB57:
 1246              	.LBB58:
 642:Middlewares/lvgl/src/core/lv_refr.c ****             }
 1247              		.loc 1 642 17 is_stmt 1 view .LVU400
 1248 002a 4146     		mov	r1, r8
 1249 002c FFF7FEFF 		bl	lv_refr_obj
 1250              	.LVL140:
 1251              	.L72:
 642:Middlewares/lvgl/src/core/lv_refr.c ****             }
 1252              		.loc 1 642 17 is_stmt 0 view .LVU401
 1253              	.LBE58:
ARM GAS  /tmp/cccpOVCi.s 			page 47


 636:Middlewares/lvgl/src/core/lv_refr.c ****             lv_obj_t * child = lv_obj_get_child(par, i);
 1254              		.loc 1 636 35 is_stmt 1 discriminator 2 view .LVU402
 636:Middlewares/lvgl/src/core/lv_refr.c ****             lv_obj_t * child = lv_obj_get_child(par, i);
 1255              		.loc 1 636 36 is_stmt 0 discriminator 2 view .LVU403
 1256 0030 0134     		adds	r4, r4, #1
 1257              	.LVL141:
 1258              	.L70:
 636:Middlewares/lvgl/src/core/lv_refr.c ****             lv_obj_t * child = lv_obj_get_child(par, i);
 1259              		.loc 1 636 20 is_stmt 1 discriminator 1 view .LVU404
 636:Middlewares/lvgl/src/core/lv_refr.c ****             lv_obj_t * child = lv_obj_get_child(par, i);
 1260              		.loc 1 636 9 is_stmt 0 discriminator 1 view .LVU405
 1261 0032 B442     		cmp	r4, r6
 1262 0034 0BD2     		bcs	.L78
 1263              	.LBB59:
 637:Middlewares/lvgl/src/core/lv_refr.c ****             if(!go) {
 1264              		.loc 1 637 13 is_stmt 1 view .LVU406
 637:Middlewares/lvgl/src/core/lv_refr.c ****             if(!go) {
 1265              		.loc 1 637 32 is_stmt 0 view .LVU407
 1266 0036 2146     		mov	r1, r4
 1267 0038 2846     		mov	r0, r5
 1268 003a FFF7FEFF 		bl	lv_obj_get_child
 1269              	.LVL142:
 638:Middlewares/lvgl/src/core/lv_refr.c ****                 if(child == border_p) go = true;
 1270              		.loc 1 638 13 is_stmt 1 view .LVU408
 638:Middlewares/lvgl/src/core/lv_refr.c ****                 if(child == border_p) go = true;
 1271              		.loc 1 638 15 is_stmt 0 view .LVU409
 1272 003e B9F1000F 		cmp	r9, #0
 1273 0042 F2D1     		bne	.L71
 639:Middlewares/lvgl/src/core/lv_refr.c ****             } else {
 1274              		.loc 1 639 17 is_stmt 1 view .LVU410
 639:Middlewares/lvgl/src/core/lv_refr.c ****             } else {
 1275              		.loc 1 639 19 is_stmt 0 view .LVU411
 1276 0044 8742     		cmp	r7, r0
 1277 0046 F3D1     		bne	.L72
 639:Middlewares/lvgl/src/core/lv_refr.c ****             } else {
 1278              		.loc 1 639 42 view .LVU412
 1279 0048 4FF00109 		mov	r9, #1
 1280              	.LVL143:
 639:Middlewares/lvgl/src/core/lv_refr.c ****             } else {
 1281              		.loc 1 639 42 view .LVU413
 1282 004c F0E7     		b	.L72
 1283              	.LVL144:
 1284              	.L78:
 639:Middlewares/lvgl/src/core/lv_refr.c ****             } else {
 1285              		.loc 1 639 42 view .LVU414
 1286              	.LBE59:
 647:Middlewares/lvgl/src/core/lv_refr.c ****         lv_event_send(par, LV_EVENT_DRAW_POST, (void*)mask_p);
 1287              		.loc 1 647 9 is_stmt 1 view .LVU415
 1288 004e 4246     		mov	r2, r8
 1289 0050 1721     		movs	r1, #23
 1290 0052 2846     		mov	r0, r5
 1291 0054 FFF7FEFF 		bl	lv_event_send
 1292              	.LVL145:
 648:Middlewares/lvgl/src/core/lv_refr.c ****         lv_event_send(par, LV_EVENT_DRAW_POST_END, (void*)mask_p);
 1293              		.loc 1 648 9 view .LVU416
 1294 0058 4246     		mov	r2, r8
 1295 005a 1821     		movs	r1, #24
ARM GAS  /tmp/cccpOVCi.s 			page 48


 1296 005c 2846     		mov	r0, r5
 1297 005e FFF7FEFF 		bl	lv_event_send
 1298              	.LVL146:
 649:Middlewares/lvgl/src/core/lv_refr.c **** 
 1299              		.loc 1 649 9 view .LVU417
 1300 0062 4246     		mov	r2, r8
 1301 0064 1921     		movs	r1, #25
 1302 0066 2846     		mov	r0, r5
 1303 0068 FFF7FEFF 		bl	lv_event_send
 1304              	.LVL147:
 653:Middlewares/lvgl/src/core/lv_refr.c ****         /*Go a level deeper*/
 1305              		.loc 1 653 9 view .LVU418
 655:Middlewares/lvgl/src/core/lv_refr.c ****     }
 1306              		.loc 1 655 9 view .LVU419
 655:Middlewares/lvgl/src/core/lv_refr.c ****     }
 1307              		.loc 1 655 15 is_stmt 0 view .LVU420
 1308 006c 2846     		mov	r0, r5
 1309 006e FFF7FEFF 		bl	lv_obj_get_parent
 1310              	.LVL148:
 653:Middlewares/lvgl/src/core/lv_refr.c ****         /*Go a level deeper*/
 1311              		.loc 1 653 18 view .LVU421
 1312 0072 2F46     		mov	r7, r5
 655:Middlewares/lvgl/src/core/lv_refr.c ****     }
 1313              		.loc 1 655 15 view .LVU422
 1314 0074 0546     		mov	r5, r0
 1315              	.LVL149:
 1316              	.L69:
 655:Middlewares/lvgl/src/core/lv_refr.c ****     }
 1317              		.loc 1 655 15 view .LVU423
 1318              	.LBE57:
 632:Middlewares/lvgl/src/core/lv_refr.c ****         bool go = false;
 1319              		.loc 1 632 10 is_stmt 1 view .LVU424
 1320 0076 35B1     		cbz	r5, .L66
 1321              	.LBB60:
 633:Middlewares/lvgl/src/core/lv_refr.c ****         uint32_t i;
 1322              		.loc 1 633 9 view .LVU425
 1323              	.LVL150:
 634:Middlewares/lvgl/src/core/lv_refr.c ****         uint32_t child_cnt = lv_obj_get_child_cnt(par);
 1324              		.loc 1 634 9 view .LVU426
 635:Middlewares/lvgl/src/core/lv_refr.c ****         for(i = 0; i < child_cnt; i++) {
 1325              		.loc 1 635 9 view .LVU427
 635:Middlewares/lvgl/src/core/lv_refr.c ****         for(i = 0; i < child_cnt; i++) {
 1326              		.loc 1 635 30 is_stmt 0 view .LVU428
 1327 0078 2846     		mov	r0, r5
 635:Middlewares/lvgl/src/core/lv_refr.c ****         for(i = 0; i < child_cnt; i++) {
 1328              		.loc 1 635 30 view .LVU429
 1329 007a FFF7FEFF 		bl	lv_obj_get_child_cnt
 1330              	.LVL151:
 635:Middlewares/lvgl/src/core/lv_refr.c ****         for(i = 0; i < child_cnt; i++) {
 1331              		.loc 1 635 30 view .LVU430
 1332 007e 0646     		mov	r6, r0
 1333              	.LVL152:
 636:Middlewares/lvgl/src/core/lv_refr.c ****             lv_obj_t * child = lv_obj_get_child(par, i);
 1334              		.loc 1 636 9 is_stmt 1 view .LVU431
 636:Middlewares/lvgl/src/core/lv_refr.c ****             lv_obj_t * child = lv_obj_get_child(par, i);
 1335              		.loc 1 636 15 is_stmt 0 view .LVU432
 1336 0080 0024     		movs	r4, #0
ARM GAS  /tmp/cccpOVCi.s 			page 49


 633:Middlewares/lvgl/src/core/lv_refr.c ****         uint32_t i;
 1337              		.loc 1 633 14 view .LVU433
 1338 0082 A146     		mov	r9, r4
 636:Middlewares/lvgl/src/core/lv_refr.c ****             lv_obj_t * child = lv_obj_get_child(par, i);
 1339              		.loc 1 636 9 view .LVU434
 1340 0084 D5E7     		b	.L70
 1341              	.LVL153:
 1342              	.L66:
 636:Middlewares/lvgl/src/core/lv_refr.c ****             lv_obj_t * child = lv_obj_get_child(par, i);
 1343              		.loc 1 636 9 view .LVU435
 1344              	.LBE60:
 657:Middlewares/lvgl/src/core/lv_refr.c **** 
 1345              		.loc 1 657 1 view .LVU436
 1346 0086 BDE8F883 		pop	{r3, r4, r5, r6, r7, r8, r9, pc}
 1347              	.LVL154:
 1348              	.L80:
 657:Middlewares/lvgl/src/core/lv_refr.c **** 
 1349              		.loc 1 657 1 view .LVU437
 1350 008a 00BF     		.align	2
 1351              	.L79:
 1352 008c 00000000 		.word	.LANCHOR0
 1353              		.cfi_endproc
 1354              	.LFE164:
 1356              		.section	.text.draw_buf_rotate,"ax",%progbits
 1357              		.align	1
 1358              		.syntax unified
 1359              		.thumb
 1360              		.thumb_func
 1361              		.fpu fpv5-d16
 1363              	draw_buf_rotate:
 1364              	.LVL155:
 1365              	.LFB170:
 821:Middlewares/lvgl/src/core/lv_refr.c ****     lv_disp_drv_t * drv = disp_refr->driver;
 1366              		.loc 1 821 67 is_stmt 1 view -0
 1367              		.cfi_startproc
 1368              		@ args = 0, pretend = 0, frame = 24
 1369              		@ frame_needed = 0, uses_anonymous_args = 0
 821:Middlewares/lvgl/src/core/lv_refr.c ****     lv_disp_drv_t * drv = disp_refr->driver;
 1370              		.loc 1 821 67 is_stmt 0 view .LVU439
 1371 0000 2DE9F04F 		push	{r4, r5, r6, r7, r8, r9, r10, fp, lr}
 1372              	.LCFI16:
 1373              		.cfi_def_cfa_offset 36
 1374              		.cfi_offset 4, -36
 1375              		.cfi_offset 5, -32
 1376              		.cfi_offset 6, -28
 1377              		.cfi_offset 7, -24
 1378              		.cfi_offset 8, -20
 1379              		.cfi_offset 9, -16
 1380              		.cfi_offset 10, -12
 1381              		.cfi_offset 11, -8
 1382              		.cfi_offset 14, -4
 1383 0004 89B0     		sub	sp, sp, #36
 1384              	.LCFI17:
 1385              		.cfi_def_cfa_offset 72
 1386 0006 8046     		mov	r8, r0
 1387 0008 0F46     		mov	r7, r1
 822:Middlewares/lvgl/src/core/lv_refr.c ****     if(disp_refr->driver->full_refresh && drv->sw_rotate) {
ARM GAS  /tmp/cccpOVCi.s 			page 50


 1388              		.loc 1 822 5 is_stmt 1 view .LVU440
 822:Middlewares/lvgl/src/core/lv_refr.c ****     if(disp_refr->driver->full_refresh && drv->sw_rotate) {
 1389              		.loc 1 822 36 is_stmt 0 view .LVU441
 1390 000a 7E4B     		ldr	r3, .L110
 1391 000c 1868     		ldr	r0, [r3]
 1392              	.LVL156:
 822:Middlewares/lvgl/src/core/lv_refr.c ****     if(disp_refr->driver->full_refresh && drv->sw_rotate) {
 1393              		.loc 1 822 21 view .LVU442
 1394 000e 0468     		ldr	r4, [r0]
 1395              	.LVL157:
 823:Middlewares/lvgl/src/core/lv_refr.c ****         LV_LOG_ERROR("cannot rotate a full refreshed display!");
 1396              		.loc 1 823 5 is_stmt 1 view .LVU443
 823:Middlewares/lvgl/src/core/lv_refr.c ****         LV_LOG_ERROR("cannot rotate a full refreshed display!");
 1397              		.loc 1 823 8 is_stmt 0 view .LVU444
 1398 0010 237A     		ldrb	r3, [r4, #8]	@ zero_extendqisi2
 823:Middlewares/lvgl/src/core/lv_refr.c ****         LV_LOG_ERROR("cannot rotate a full refreshed display!");
 1399              		.loc 1 823 7 view .LVU445
 1400 0012 13F0010F 		tst	r3, #1
 1401 0016 02D0     		beq	.L82
 823:Middlewares/lvgl/src/core/lv_refr.c ****         LV_LOG_ERROR("cannot rotate a full refreshed display!");
 1402              		.loc 1 823 40 discriminator 1 view .LVU446
 1403 0018 13F0020F 		tst	r3, #2
 1404 001c 07D1     		bne	.L81
 1405              	.L82:
 827:Middlewares/lvgl/src/core/lv_refr.c ****         draw_buf_rotate_180(drv, area, color_p);
 1406              		.loc 1 827 5 is_stmt 1 view .LVU447
 827:Middlewares/lvgl/src/core/lv_refr.c ****         draw_buf_rotate_180(drv, area, color_p);
 1407              		.loc 1 827 21 is_stmt 0 view .LVU448
 1408 001e 03F01803 		and	r3, r3, #24
 827:Middlewares/lvgl/src/core/lv_refr.c ****         draw_buf_rotate_180(drv, area, color_p);
 1409              		.loc 1 827 7 view .LVU449
 1410 0022 102B     		cmp	r3, #16
 1411 0024 06D0     		beq	.L100
 830:Middlewares/lvgl/src/core/lv_refr.c ****         /*Allocate a temporary buffer to store rotated image*/
 1412              		.loc 1 830 12 is_stmt 1 view .LVU450
 830:Middlewares/lvgl/src/core/lv_refr.c ****         /*Allocate a temporary buffer to store rotated image*/
 1413              		.loc 1 830 14 is_stmt 0 view .LVU451
 1414 0026 182B     		cmp	r3, #24
 1415 0028 18BF     		it	ne
 1416 002a 082B     		cmpne	r3, #8
 1417 002c 0DD0     		beq	.L101
 1418              	.LVL158:
 1419              	.L81:
 893:Middlewares/lvgl/src/core/lv_refr.c **** 
 1420              		.loc 1 893 1 view .LVU452
 1421 002e 09B0     		add	sp, sp, #36
 1422              	.LCFI18:
 1423              		.cfi_remember_state
 1424              		.cfi_def_cfa_offset 36
 1425              		@ sp needed
 1426 0030 BDE8F08F 		pop	{r4, r5, r6, r7, r8, r9, r10, fp, pc}
 1427              	.LVL159:
 1428              	.L100:
 1429              	.LCFI19:
 1430              		.cfi_restore_state
 828:Middlewares/lvgl/src/core/lv_refr.c ****         call_flush_cb(drv, area, color_p);
 1431              		.loc 1 828 9 is_stmt 1 view .LVU453
ARM GAS  /tmp/cccpOVCi.s 			page 51


 1432 0034 3A46     		mov	r2, r7
 1433 0036 4146     		mov	r1, r8
 1434              	.LVL160:
 828:Middlewares/lvgl/src/core/lv_refr.c ****         call_flush_cb(drv, area, color_p);
 1435              		.loc 1 828 9 is_stmt 0 view .LVU454
 1436 0038 2046     		mov	r0, r4
 1437 003a FFF7FEFF 		bl	draw_buf_rotate_180
 1438              	.LVL161:
 829:Middlewares/lvgl/src/core/lv_refr.c ****     } else if(drv->rotated == LV_DISP_ROT_90 || drv->rotated == LV_DISP_ROT_270) {
 1439              		.loc 1 829 9 is_stmt 1 view .LVU455
 1440 003e 3A46     		mov	r2, r7
 1441 0040 4146     		mov	r1, r8
 1442 0042 2046     		mov	r0, r4
 1443 0044 FFF7FEFF 		bl	call_flush_cb
 1444              	.LVL162:
 1445 0048 F1E7     		b	.L81
 1446              	.LVL163:
 1447              	.L101:
 1448              	.LBB61:
 832:Middlewares/lvgl/src/core/lv_refr.c ****         lv_disp_draw_buf_t * draw_buf = lv_disp_get_draw_buf(disp_refr);
 1449              		.loc 1 832 9 view .LVU456
 833:Middlewares/lvgl/src/core/lv_refr.c ****         lv_coord_t area_w = lv_area_get_width(area);
 1450              		.loc 1 833 9 view .LVU457
 833:Middlewares/lvgl/src/core/lv_refr.c ****         lv_coord_t area_w = lv_area_get_width(area);
 1451              		.loc 1 833 41 is_stmt 0 view .LVU458
 1452 004a FFF7FEFF 		bl	lv_disp_get_draw_buf
 1453              	.LVL164:
 833:Middlewares/lvgl/src/core/lv_refr.c ****         lv_coord_t area_w = lv_area_get_width(area);
 1454              		.loc 1 833 41 view .LVU459
 1455 004e 0546     		mov	r5, r0
 1456              	.LVL165:
 834:Middlewares/lvgl/src/core/lv_refr.c ****         lv_coord_t area_h = lv_area_get_height(area);
 1457              		.loc 1 834 9 is_stmt 1 view .LVU460
 1458              	.LBB62:
 1459              	.LBI62:
 133:Middlewares/lvgl/src/core/../misc/../font/../misc/lv_area.h **** {
 1460              		.loc 2 133 26 view .LVU461
 1461              	.LBB63:
 135:Middlewares/lvgl/src/core/../misc/../font/../misc/lv_area.h **** }
 1462              		.loc 2 135 5 view .LVU462
 135:Middlewares/lvgl/src/core/../misc/../font/../misc/lv_area.h **** }
 1463              		.loc 2 135 31 is_stmt 0 view .LVU463
 1464 0050 B8F804A0 		ldrh	r10, [r8, #4]
 135:Middlewares/lvgl/src/core/../misc/../font/../misc/lv_area.h **** }
 1465              		.loc 2 135 44 view .LVU464
 1466 0054 B8F90020 		ldrsh	r2, [r8]
 1467 0058 93B2     		uxth	r3, r2
 135:Middlewares/lvgl/src/core/../misc/../font/../misc/lv_area.h **** }
 1468              		.loc 2 135 36 view .LVU465
 1469 005a AAEB030A 		sub	r10, r10, r3
 1470 005e 1FFA8AFA 		uxth	r10, r10
 135:Middlewares/lvgl/src/core/../misc/../font/../misc/lv_area.h **** }
 1471              		.loc 2 135 49 view .LVU466
 1472 0062 0AF1010A 		add	r10, r10, #1
 1473 0066 1FFA8AF1 		uxth	r1, r10
 1474 006a 0691     		str	r1, [sp, #24]
 135:Middlewares/lvgl/src/core/../misc/../font/../misc/lv_area.h **** }
ARM GAS  /tmp/cccpOVCi.s 			page 52


 1475              		.loc 2 135 12 view .LVU467
 1476 006c 0FFA8AFA 		sxth	r10, r10
 1477              	.LVL166:
 135:Middlewares/lvgl/src/core/../misc/../font/../misc/lv_area.h **** }
 1478              		.loc 2 135 12 view .LVU468
 1479              	.LBE63:
 1480              	.LBE62:
 835:Middlewares/lvgl/src/core/lv_refr.c ****         /*Determine the maximum number of rows that can be rotated at a time*/
 1481              		.loc 1 835 9 is_stmt 1 view .LVU469
 1482              	.LBB64:
 1483              	.LBI64:
 143:Middlewares/lvgl/src/core/../misc/../font/../misc/lv_area.h **** {
 1484              		.loc 2 143 26 view .LVU470
 1485              	.LBB65:
 1486              		.loc 2 145 5 view .LVU471
 1487              		.loc 2 145 31 is_stmt 0 view .LVU472
 1488 0070 B8F806B0 		ldrh	fp, [r8, #6]
 1489              		.loc 2 145 44 view .LVU473
 1490 0074 B8F90210 		ldrsh	r1, [r8, #2]
 1491 0078 0791     		str	r1, [sp, #28]
 1492 007a 89B2     		uxth	r1, r1
 1493 007c 0591     		str	r1, [sp, #20]
 1494              		.loc 2 145 36 view .LVU474
 1495 007e ABEB010B 		sub	fp, fp, r1
 1496 0082 1FFA8BFB 		uxth	fp, fp
 1497              		.loc 2 145 49 view .LVU475
 1498 0086 0BF1010B 		add	fp, fp, #1
 1499              		.loc 2 145 12 view .LVU476
 1500 008a 0FFA8BFB 		sxth	fp, fp
 1501              	.LVL167:
 1502              		.loc 2 145 12 view .LVU477
 1503              	.LBE65:
 1504              	.LBE64:
 837:Middlewares/lvgl/src/core/lv_refr.c ****         lv_coord_t init_y_off;
 1505              		.loc 1 837 9 is_stmt 1 view .LVU478
 837:Middlewares/lvgl/src/core/lv_refr.c ****         lv_coord_t init_y_off;
 1506              		.loc 1 837 30 is_stmt 0 view .LVU479
 1507 008e 4FF4A051 		mov	r1, #5120
 1508 0092 B1FBFAF1 		udiv	r1, r1, r10
 837:Middlewares/lvgl/src/core/lv_refr.c ****         lv_coord_t init_y_off;
 1509              		.loc 1 837 20 view .LVU480
 1510 0096 5945     		cmp	r1, fp
 1511 0098 A8BF     		it	ge
 1512 009a 5946     		movge	r1, fp
 1513 009c 0491     		str	r1, [sp, #16]
 1514              	.LVL168:
 838:Middlewares/lvgl/src/core/lv_refr.c ****         init_y_off = area->y1;
 1515              		.loc 1 838 9 is_stmt 1 view .LVU481
 839:Middlewares/lvgl/src/core/lv_refr.c ****         if(drv->rotated == LV_DISP_ROT_90) {
 1516              		.loc 1 839 9 view .LVU482
 840:Middlewares/lvgl/src/core/lv_refr.c ****             area->y2 = drv->ver_res - area->x1 - 1;
 1517              		.loc 1 840 9 view .LVU483
 840:Middlewares/lvgl/src/core/lv_refr.c ****             area->y2 = drv->ver_res - area->x1 - 1;
 1518              		.loc 1 840 25 is_stmt 0 view .LVU484
 1519 009e 217A     		ldrb	r1, [r4, #8]	@ zero_extendqisi2
 1520 00a0 01F01801 		and	r1, r1, #24
 840:Middlewares/lvgl/src/core/lv_refr.c ****             area->y2 = drv->ver_res - area->x1 - 1;
ARM GAS  /tmp/cccpOVCi.s 			page 53


 1521              		.loc 1 840 11 view .LVU485
 1522 00a4 0829     		cmp	r1, #8
 1523 00a6 0DD0     		beq	.L102
 845:Middlewares/lvgl/src/core/lv_refr.c ****             area->y2 = area->y1 + area_w - 1;
 1524              		.loc 1 845 13 is_stmt 1 view .LVU486
 845:Middlewares/lvgl/src/core/lv_refr.c ****             area->y2 = area->y1 + area_w - 1;
 1525              		.loc 1 845 22 is_stmt 0 view .LVU487
 1526 00a8 A8F80220 		strh	r2, [r8, #2]	@ movhi
 846:Middlewares/lvgl/src/core/lv_refr.c ****         }
 1527              		.loc 1 846 13 is_stmt 1 view .LVU488
 846:Middlewares/lvgl/src/core/lv_refr.c ****         }
 1528              		.loc 1 846 33 is_stmt 0 view .LVU489
 1529 00ac 069A     		ldr	r2, [sp, #24]
 1530 00ae 1344     		add	r3, r3, r2
 1531 00b0 9BB2     		uxth	r3, r3
 846:Middlewares/lvgl/src/core/lv_refr.c ****         }
 1532              		.loc 1 846 42 view .LVU490
 1533 00b2 013B     		subs	r3, r3, #1
 846:Middlewares/lvgl/src/core/lv_refr.c ****         }
 1534              		.loc 1 846 22 view .LVU491
 1535 00b4 A8F80630 		strh	r3, [r8, #6]	@ movhi
 1536              	.L86:
 848:Middlewares/lvgl/src/core/lv_refr.c ****         /*Rotate the screen in chunks, flushing after each one*/
 1537              		.loc 1 848 9 is_stmt 1 view .LVU492
 848:Middlewares/lvgl/src/core/lv_refr.c ****         /*Rotate the screen in chunks, flushing after each one*/
 1538              		.loc 1 848 28 is_stmt 0 view .LVU493
 1539 00b8 0020     		movs	r0, #0
 1540              	.LVL169:
 848:Middlewares/lvgl/src/core/lv_refr.c ****         /*Rotate the screen in chunks, flushing after each one*/
 1541              		.loc 1 848 28 view .LVU494
 1542 00ba A861     		str	r0, [r5, #24]
 850:Middlewares/lvgl/src/core/lv_refr.c ****         while(row < area_h) {
 1543              		.loc 1 850 9 is_stmt 1 view .LVU495
 1544              	.LVL170:
 851:Middlewares/lvgl/src/core/lv_refr.c ****             lv_coord_t height = LV_MIN(max_row, area_h-row);
 1545              		.loc 1 851 9 view .LVU496
 850:Middlewares/lvgl/src/core/lv_refr.c ****         while(row < area_h) {
 1546              		.loc 1 850 20 is_stmt 0 view .LVU497
 1547 00bc 0646     		mov	r6, r0
 832:Middlewares/lvgl/src/core/lv_refr.c ****         lv_disp_draw_buf_t * draw_buf = lv_disp_get_draw_buf(disp_refr);
 1548              		.loc 1 832 22 view .LVU498
 1549 00be 0290     		str	r0, [sp, #8]
 1550 00c0 B946     		mov	r9, r7
 851:Middlewares/lvgl/src/core/lv_refr.c ****             lv_coord_t height = LV_MIN(max_row, area_h-row);
 1551              		.loc 1 851 14 view .LVU499
 1552 00c2 52E0     		b	.L87
 1553              	.LVL171:
 1554              	.L102:
 841:Middlewares/lvgl/src/core/lv_refr.c ****             area->y1 = area->y2 - area_w + 1;
 1555              		.loc 1 841 13 is_stmt 1 view .LVU500
 841:Middlewares/lvgl/src/core/lv_refr.c ****             area->y1 = area->y2 - area_w + 1;
 1556              		.loc 1 841 27 is_stmt 0 view .LVU501
 1557 00c4 6288     		ldrh	r2, [r4, #2]
 841:Middlewares/lvgl/src/core/lv_refr.c ****             area->y1 = area->y2 - area_w + 1;
 1558              		.loc 1 841 37 view .LVU502
 1559 00c6 D31A     		subs	r3, r2, r3
 1560 00c8 9BB2     		uxth	r3, r3
ARM GAS  /tmp/cccpOVCi.s 			page 54


 841:Middlewares/lvgl/src/core/lv_refr.c ****             area->y1 = area->y2 - area_w + 1;
 1561              		.loc 1 841 48 view .LVU503
 1562 00ca 013B     		subs	r3, r3, #1
 1563 00cc 9AB2     		uxth	r2, r3
 841:Middlewares/lvgl/src/core/lv_refr.c ****             area->y1 = area->y2 - area_w + 1;
 1564              		.loc 1 841 22 view .LVU504
 1565 00ce A8F80630 		strh	r3, [r8, #6]	@ movhi
 842:Middlewares/lvgl/src/core/lv_refr.c ****         }
 1566              		.loc 1 842 13 is_stmt 1 view .LVU505
 842:Middlewares/lvgl/src/core/lv_refr.c ****         }
 1567              		.loc 1 842 33 is_stmt 0 view .LVU506
 1568 00d2 069B     		ldr	r3, [sp, #24]
 1569 00d4 D31A     		subs	r3, r2, r3
 1570 00d6 9BB2     		uxth	r3, r3
 842:Middlewares/lvgl/src/core/lv_refr.c ****         }
 1571              		.loc 1 842 42 view .LVU507
 1572 00d8 0133     		adds	r3, r3, #1
 842:Middlewares/lvgl/src/core/lv_refr.c ****         }
 1573              		.loc 1 842 22 view .LVU508
 1574 00da A8F80230 		strh	r3, [r8, #2]	@ movhi
 1575 00de EBE7     		b	.L86
 1576              	.LVL172:
 1577              	.L105:
 1578              	.LBB66:
 856:Middlewares/lvgl/src/core/lv_refr.c ****                 draw_buf_rotate_90_sqr(drv->rotated == LV_DISP_ROT_270, area_w, color_p);
 1579              		.loc 1 856 17 is_stmt 1 view .LVU509
 857:Middlewares/lvgl/src/core/lv_refr.c ****                 if(drv->rotated == LV_DISP_ROT_90) {
 1580              		.loc 1 857 17 view .LVU510
 857:Middlewares/lvgl/src/core/lv_refr.c ****                 if(drv->rotated == LV_DISP_ROT_90) {
 1581              		.loc 1 857 53 is_stmt 0 view .LVU511
 1582 00e0 207A     		ldrb	r0, [r4, #8]	@ zero_extendqisi2
 857:Middlewares/lvgl/src/core/lv_refr.c ****                 if(drv->rotated == LV_DISP_ROT_90) {
 1583              		.loc 1 857 17 view .LVU512
 1584 00e2 00F01800 		and	r0, r0, #24
 1585 00e6 4A46     		mov	r2, r9
 1586 00e8 5146     		mov	r1, r10
 1587 00ea 1828     		cmp	r0, #24
 1588 00ec 14BF     		ite	ne
 1589 00ee 0020     		movne	r0, #0
 1590 00f0 0120     		moveq	r0, #1
 1591 00f2 FFF7FEFF 		bl	draw_buf_rotate_90_sqr
 1592              	.LVL173:
 858:Middlewares/lvgl/src/core/lv_refr.c ****                     area->x1 = init_y_off;
 1593              		.loc 1 858 17 is_stmt 1 view .LVU513
 858:Middlewares/lvgl/src/core/lv_refr.c ****                     area->x1 = init_y_off;
 1594              		.loc 1 858 33 is_stmt 0 view .LVU514
 1595 00f6 237A     		ldrb	r3, [r4, #8]	@ zero_extendqisi2
 1596 00f8 03F01803 		and	r3, r3, #24
 858:Middlewares/lvgl/src/core/lv_refr.c ****                     area->x1 = init_y_off;
 1597              		.loc 1 858 19 view .LVU515
 1598 00fc 082B     		cmp	r3, #8
 1599 00fe 0ED0     		beq	.L103
 863:Middlewares/lvgl/src/core/lv_refr.c ****                     area->x1 = area->x2 - area_w + 1;
 1600              		.loc 1 863 21 is_stmt 1 view .LVU516
 863:Middlewares/lvgl/src/core/lv_refr.c ****                     area->x1 = area->x2 - area_w + 1;
 1601              		.loc 1 863 35 is_stmt 0 view .LVU517
 1602 0100 2288     		ldrh	r2, [r4]
ARM GAS  /tmp/cccpOVCi.s 			page 55


 863:Middlewares/lvgl/src/core/lv_refr.c ****                     area->x1 = area->x2 - area_w + 1;
 1603              		.loc 1 863 49 view .LVU518
 1604 0102 059B     		ldr	r3, [sp, #20]
 1605 0104 D21A     		subs	r2, r2, r3
 1606 0106 013A     		subs	r2, r2, #1
 1607 0108 93B2     		uxth	r3, r2
 863:Middlewares/lvgl/src/core/lv_refr.c ****                     area->x1 = area->x2 - area_w + 1;
 1608              		.loc 1 863 30 view .LVU519
 1609 010a A8F80420 		strh	r2, [r8, #4]	@ movhi
 864:Middlewares/lvgl/src/core/lv_refr.c ****                 }
 1610              		.loc 1 864 21 is_stmt 1 view .LVU520
 864:Middlewares/lvgl/src/core/lv_refr.c ****                 }
 1611              		.loc 1 864 41 is_stmt 0 view .LVU521
 1612 010e 069A     		ldr	r2, [sp, #24]
 1613 0110 9B1A     		subs	r3, r3, r2
 1614 0112 9BB2     		uxth	r3, r3
 864:Middlewares/lvgl/src/core/lv_refr.c ****                 }
 1615              		.loc 1 864 50 view .LVU522
 1616 0114 0133     		adds	r3, r3, #1
 864:Middlewares/lvgl/src/core/lv_refr.c ****                 }
 1617              		.loc 1 864 30 view .LVU523
 1618 0116 A8F80030 		strh	r3, [r8]	@ movhi
 856:Middlewares/lvgl/src/core/lv_refr.c ****                 draw_buf_rotate_90_sqr(drv->rotated == LV_DISP_ROT_270, area_w, color_p);
 1619              		.loc 1 856 24 view .LVU524
 1620 011a 5746     		mov	r7, r10
 1621 011c 5AE0     		b	.L90
 1622              	.L103:
 859:Middlewares/lvgl/src/core/lv_refr.c ****                     area->x2 = init_y_off + area_w - 1;
 1623              		.loc 1 859 21 is_stmt 1 view .LVU525
 859:Middlewares/lvgl/src/core/lv_refr.c ****                     area->x2 = init_y_off + area_w - 1;
 1624              		.loc 1 859 30 is_stmt 0 view .LVU526
 1625 011e 079B     		ldr	r3, [sp, #28]
 1626 0120 A8F80030 		strh	r3, [r8]	@ movhi
 860:Middlewares/lvgl/src/core/lv_refr.c ****                 }
 1627              		.loc 1 860 21 is_stmt 1 view .LVU527
 860:Middlewares/lvgl/src/core/lv_refr.c ****                 }
 1628              		.loc 1 860 43 is_stmt 0 view .LVU528
 1629 0124 059B     		ldr	r3, [sp, #20]
 1630 0126 069A     		ldr	r2, [sp, #24]
 1631 0128 1344     		add	r3, r3, r2
 1632 012a 9BB2     		uxth	r3, r3
 860:Middlewares/lvgl/src/core/lv_refr.c ****                 }
 1633              		.loc 1 860 52 view .LVU529
 1634 012c 013B     		subs	r3, r3, #1
 860:Middlewares/lvgl/src/core/lv_refr.c ****                 }
 1635              		.loc 1 860 30 view .LVU530
 1636 012e A8F80430 		strh	r3, [r8, #4]	@ movhi
 856:Middlewares/lvgl/src/core/lv_refr.c ****                 draw_buf_rotate_90_sqr(drv->rotated == LV_DISP_ROT_270, area_w, color_p);
 1637              		.loc 1 856 24 view .LVU531
 1638 0132 5746     		mov	r7, r10
 1639 0134 4EE0     		b	.L90
 1640              	.LVL174:
 1641              	.L106:
 869:Middlewares/lvgl/src/core/lv_refr.c ****                 draw_buf_rotate_90(drv->rotated == LV_DISP_ROT_270, area_w, height, color_p, rot_bu
 1642              		.loc 1 869 37 is_stmt 1 discriminator 1 view .LVU532
 869:Middlewares/lvgl/src/core/lv_refr.c ****                 draw_buf_rotate_90(drv->rotated == LV_DISP_ROT_270, area_w, height, color_p, rot_bu
 1643              		.loc 1 869 47 is_stmt 0 discriminator 1 view .LVU533
ARM GAS  /tmp/cccpOVCi.s 			page 56


 1644 0136 4FF42050 		mov	r0, #10240
 1645 013a FFF7FEFF 		bl	lv_mem_buf_get
 1646              	.LVL175:
 869:Middlewares/lvgl/src/core/lv_refr.c ****                 draw_buf_rotate_90(drv->rotated == LV_DISP_ROT_270, area_w, height, color_p, rot_bu
 1647              		.loc 1 869 47 discriminator 1 view .LVU534
 1648 013e 0290     		str	r0, [sp, #8]
 1649              	.LVL176:
 869:Middlewares/lvgl/src/core/lv_refr.c ****                 draw_buf_rotate_90(drv->rotated == LV_DISP_ROT_270, area_w, height, color_p, rot_bu
 1650              		.loc 1 869 47 discriminator 1 view .LVU535
 1651 0140 26E0     		b	.L91
 1652              	.LVL177:
 1653              	.L107:
 873:Middlewares/lvgl/src/core/lv_refr.c ****                     area->x2 = init_y_off + row + height - 1;
 1654              		.loc 1 873 21 is_stmt 1 view .LVU536
 873:Middlewares/lvgl/src/core/lv_refr.c ****                     area->x2 = init_y_off + row + height - 1;
 1655              		.loc 1 873 43 is_stmt 0 view .LVU537
 1656 0142 059B     		ldr	r3, [sp, #20]
 1657 0144 3344     		add	r3, r3, r6
 873:Middlewares/lvgl/src/core/lv_refr.c ****                     area->x2 = init_y_off + row + height - 1;
 1658              		.loc 1 873 30 view .LVU538
 1659 0146 A8F80030 		strh	r3, [r8]	@ movhi
 874:Middlewares/lvgl/src/core/lv_refr.c ****                 }
 1660              		.loc 1 874 21 is_stmt 1 view .LVU539
 874:Middlewares/lvgl/src/core/lv_refr.c ****                 }
 1661              		.loc 1 874 49 is_stmt 0 view .LVU540
 1662 014a 039A     		ldr	r2, [sp, #12]
 1663 014c 12FA83F3 		uxtah	r3, r2, r3
 1664 0150 9BB2     		uxth	r3, r3
 874:Middlewares/lvgl/src/core/lv_refr.c ****                 }
 1665              		.loc 1 874 58 view .LVU541
 1666 0152 013B     		subs	r3, r3, #1
 874:Middlewares/lvgl/src/core/lv_refr.c ****                 }
 1667              		.loc 1 874 30 view .LVU542
 1668 0154 A8F80430 		strh	r3, [r8, #4]	@ movhi
 1669 0158 3CE0     		b	.L90
 1670              	.LVL178:
 1671              	.L108:
 882:Middlewares/lvgl/src/core/lv_refr.c ****             /*FIXME: Rotation forces legacy behavior where rendering and flushing are done serially
 1672              		.loc 1 882 13 view .LVU543
 1673 015a 4A46     		mov	r2, r9
 1674              	.LVL179:
 882:Middlewares/lvgl/src/core/lv_refr.c ****             /*FIXME: Rotation forces legacy behavior where rendering and flushing are done serially
 1675              		.loc 1 882 13 view .LVU544
 1676 015c 3DE0     		b	.L93
 1677              	.L109:
 887:Middlewares/lvgl/src/core/lv_refr.c ****             row += height;
 1678              		.loc 1 887 13 is_stmt 1 view .LVU545
 887:Middlewares/lvgl/src/core/lv_refr.c ****             row += height;
 1679              		.loc 1 887 31 is_stmt 0 view .LVU546
 1680 015e 07FB0AF3 		mul	r3, r7, r10
 887:Middlewares/lvgl/src/core/lv_refr.c ****             row += height;
 1681              		.loc 1 887 21 view .LVU547
 1682 0162 09EB4309 		add	r9, r9, r3, lsl #1
 1683              	.LVL180:
 888:Middlewares/lvgl/src/core/lv_refr.c ****         }
 1684              		.loc 1 888 13 is_stmt 1 view .LVU548
 888:Middlewares/lvgl/src/core/lv_refr.c ****         }
ARM GAS  /tmp/cccpOVCi.s 			page 57


 1685              		.loc 1 888 17 is_stmt 0 view .LVU549
 1686 0166 3E44     		add	r6, r6, r7
 1687              	.LVL181:
 888:Middlewares/lvgl/src/core/lv_refr.c ****         }
 1688              		.loc 1 888 17 view .LVU550
 1689 0168 36B2     		sxth	r6, r6
 1690              	.LVL182:
 1691              	.L87:
 888:Middlewares/lvgl/src/core/lv_refr.c ****         }
 1692              		.loc 1 888 17 view .LVU551
 1693              	.LBE66:
 851:Middlewares/lvgl/src/core/lv_refr.c ****             lv_coord_t height = LV_MIN(max_row, area_h-row);
 1694              		.loc 1 851 14 is_stmt 1 view .LVU552
 1695 016a 5E45     		cmp	r6, fp
 1696 016c 42DA     		bge	.L104
 1697              	.LBB67:
 852:Middlewares/lvgl/src/core/lv_refr.c ****             draw_buf->flushing = 1;
 1698              		.loc 1 852 13 view .LVU553
 852:Middlewares/lvgl/src/core/lv_refr.c ****             draw_buf->flushing = 1;
 1699              		.loc 1 852 33 is_stmt 0 view .LVU554
 1700 016e ABEB0603 		sub	r3, fp, r6
 1701 0172 049A     		ldr	r2, [sp, #16]
 1702 0174 9342     		cmp	r3, r2
 1703 0176 A8BF     		it	ge
 1704 0178 1346     		movge	r3, r2
 1705 017a 0393     		str	r3, [sp, #12]
 852:Middlewares/lvgl/src/core/lv_refr.c ****             draw_buf->flushing = 1;
 1706              		.loc 1 852 24 view .LVU555
 1707 017c 1FB2     		sxth	r7, r3
 1708              	.LVL183:
 853:Middlewares/lvgl/src/core/lv_refr.c ****             if((row == 0) && (area_h >= area_w)) {
 1709              		.loc 1 853 13 is_stmt 1 view .LVU556
 853:Middlewares/lvgl/src/core/lv_refr.c ****             if((row == 0) && (area_h >= area_w)) {
 1710              		.loc 1 853 32 is_stmt 0 view .LVU557
 1711 017e 0123     		movs	r3, #1
 1712 0180 AB61     		str	r3, [r5, #24]
 854:Middlewares/lvgl/src/core/lv_refr.c ****                 /*Rotate the initial area as a square*/
 1713              		.loc 1 854 13 is_stmt 1 view .LVU558
 854:Middlewares/lvgl/src/core/lv_refr.c ****                 /*Rotate the initial area as a square*/
 1714              		.loc 1 854 15 is_stmt 0 view .LVU559
 1715 0182 D345     		cmp	fp, r10
 1716 0184 A8BF     		it	ge
 1717 0186 002E     		cmpge	r6, #0
 1718 0188 AAD0     		beq	.L105
 869:Middlewares/lvgl/src/core/lv_refr.c ****                 draw_buf_rotate_90(drv->rotated == LV_DISP_ROT_270, area_w, height, color_p, rot_bu
 1719              		.loc 1 869 17 is_stmt 1 view .LVU560
 869:Middlewares/lvgl/src/core/lv_refr.c ****                 draw_buf_rotate_90(drv->rotated == LV_DISP_ROT_270, area_w, height, color_p, rot_bu
 1720              		.loc 1 869 19 is_stmt 0 view .LVU561
 1721 018a 029B     		ldr	r3, [sp, #8]
 1722 018c 002B     		cmp	r3, #0
 1723 018e D2D0     		beq	.L106
 1724              	.L91:
 870:Middlewares/lvgl/src/core/lv_refr.c **** 
 1725              		.loc 1 870 17 is_stmt 1 view .LVU562
 870:Middlewares/lvgl/src/core/lv_refr.c **** 
 1726              		.loc 1 870 49 is_stmt 0 view .LVU563
 1727 0190 207A     		ldrb	r0, [r4, #8]	@ zero_extendqisi2
ARM GAS  /tmp/cccpOVCi.s 			page 58


 870:Middlewares/lvgl/src/core/lv_refr.c **** 
 1728              		.loc 1 870 17 view .LVU564
 1729 0192 00F01800 		and	r0, r0, #24
 1730 0196 029B     		ldr	r3, [sp, #8]
 1731 0198 0093     		str	r3, [sp]
 1732 019a 4B46     		mov	r3, r9
 1733 019c 3A46     		mov	r2, r7
 1734 019e 5146     		mov	r1, r10
 1735 01a0 1828     		cmp	r0, #24
 1736 01a2 14BF     		ite	ne
 1737 01a4 0020     		movne	r0, #0
 1738 01a6 0120     		moveq	r0, #1
 1739 01a8 FFF7FEFF 		bl	draw_buf_rotate_90
 1740              	.LVL184:
 872:Middlewares/lvgl/src/core/lv_refr.c ****                     area->x1 = init_y_off + row;
 1741              		.loc 1 872 17 is_stmt 1 view .LVU565
 872:Middlewares/lvgl/src/core/lv_refr.c ****                     area->x1 = init_y_off + row;
 1742              		.loc 1 872 33 is_stmt 0 view .LVU566
 1743 01ac 237A     		ldrb	r3, [r4, #8]	@ zero_extendqisi2
 1744 01ae 03F01803 		and	r3, r3, #24
 872:Middlewares/lvgl/src/core/lv_refr.c ****                     area->x1 = init_y_off + row;
 1745              		.loc 1 872 19 view .LVU567
 1746 01b2 082B     		cmp	r3, #8
 1747 01b4 C5D0     		beq	.L107
 877:Middlewares/lvgl/src/core/lv_refr.c ****                     area->x1 = area->x2 - height + 1;
 1748              		.loc 1 877 21 is_stmt 1 view .LVU568
 877:Middlewares/lvgl/src/core/lv_refr.c ****                     area->x1 = area->x2 - height + 1;
 1749              		.loc 1 877 35 is_stmt 0 view .LVU569
 1750 01b6 2388     		ldrh	r3, [r4]
 877:Middlewares/lvgl/src/core/lv_refr.c ****                     area->x1 = area->x2 - height + 1;
 1751              		.loc 1 877 49 view .LVU570
 1752 01b8 059A     		ldr	r2, [sp, #20]
 1753 01ba 9B1A     		subs	r3, r3, r2
 1754 01bc 9BB2     		uxth	r3, r3
 877:Middlewares/lvgl/src/core/lv_refr.c ****                     area->x1 = area->x2 - height + 1;
 1755              		.loc 1 877 62 view .LVU571
 1756 01be 9B1B     		subs	r3, r3, r6
 1757 01c0 013B     		subs	r3, r3, #1
 1758 01c2 9AB2     		uxth	r2, r3
 877:Middlewares/lvgl/src/core/lv_refr.c ****                     area->x1 = area->x2 - height + 1;
 1759              		.loc 1 877 30 view .LVU572
 1760 01c4 A8F80430 		strh	r3, [r8, #4]	@ movhi
 878:Middlewares/lvgl/src/core/lv_refr.c ****                 }
 1761              		.loc 1 878 21 is_stmt 1 view .LVU573
 878:Middlewares/lvgl/src/core/lv_refr.c ****                 }
 1762              		.loc 1 878 41 is_stmt 0 view .LVU574
 1763 01c8 039B     		ldr	r3, [sp, #12]
 1764 01ca D31A     		subs	r3, r2, r3
 1765 01cc 9BB2     		uxth	r3, r3
 878:Middlewares/lvgl/src/core/lv_refr.c ****                 }
 1766              		.loc 1 878 50 view .LVU575
 1767 01ce 0133     		adds	r3, r3, #1
 878:Middlewares/lvgl/src/core/lv_refr.c ****                 }
 1768              		.loc 1 878 30 view .LVU576
 1769 01d0 A8F80030 		strh	r3, [r8]	@ movhi
 1770              	.LVL185:
 1771              	.L90:
ARM GAS  /tmp/cccpOVCi.s 			page 59


 882:Middlewares/lvgl/src/core/lv_refr.c ****             /*FIXME: Rotation forces legacy behavior where rendering and flushing are done serially
 1772              		.loc 1 882 13 is_stmt 1 view .LVU577
 1773 01d4 029A     		ldr	r2, [sp, #8]
 1774 01d6 002A     		cmp	r2, #0
 1775 01d8 BFD0     		beq	.L108
 1776              	.L93:
 882:Middlewares/lvgl/src/core/lv_refr.c ****             /*FIXME: Rotation forces legacy behavior where rendering and flushing are done serially
 1777              		.loc 1 882 13 is_stmt 0 discriminator 4 view .LVU578
 1778 01da 4146     		mov	r1, r8
 1779 01dc 2046     		mov	r0, r4
 1780 01de FFF7FEFF 		bl	call_flush_cb
 1781              	.LVL186:
 884:Middlewares/lvgl/src/core/lv_refr.c ****                 if(drv->wait_cb) drv->wait_cb(drv);
 1782              		.loc 1 884 13 is_stmt 1 discriminator 4 view .LVU579
 1783              	.L95:
 884:Middlewares/lvgl/src/core/lv_refr.c ****                 if(drv->wait_cb) drv->wait_cb(drv);
 1784              		.loc 1 884 18 view .LVU580
 884:Middlewares/lvgl/src/core/lv_refr.c ****                 if(drv->wait_cb) drv->wait_cb(drv);
 1785              		.loc 1 884 27 is_stmt 0 view .LVU581
 1786 01e2 AB69     		ldr	r3, [r5, #24]
 884:Middlewares/lvgl/src/core/lv_refr.c ****                 if(drv->wait_cb) drv->wait_cb(drv);
 1787              		.loc 1 884 18 view .LVU582
 1788 01e4 002B     		cmp	r3, #0
 1789 01e6 BAD0     		beq	.L109
 885:Middlewares/lvgl/src/core/lv_refr.c ****             }
 1790              		.loc 1 885 17 is_stmt 1 view .LVU583
 885:Middlewares/lvgl/src/core/lv_refr.c ****             }
 1791              		.loc 1 885 23 is_stmt 0 view .LVU584
 1792 01e8 E369     		ldr	r3, [r4, #28]
 885:Middlewares/lvgl/src/core/lv_refr.c ****             }
 1793              		.loc 1 885 19 view .LVU585
 1794 01ea 002B     		cmp	r3, #0
 1795 01ec F9D0     		beq	.L95
 885:Middlewares/lvgl/src/core/lv_refr.c ****             }
 1796              		.loc 1 885 34 is_stmt 1 discriminator 1 view .LVU586
 1797 01ee 2046     		mov	r0, r4
 1798 01f0 9847     		blx	r3
 1799              	.LVL187:
 1800 01f2 F6E7     		b	.L95
 1801              	.LVL188:
 1802              	.L104:
 885:Middlewares/lvgl/src/core/lv_refr.c ****             }
 1803              		.loc 1 885 34 is_stmt 0 discriminator 1 view .LVU587
 1804              	.LBE67:
 891:Middlewares/lvgl/src/core/lv_refr.c ****     }
 1805              		.loc 1 891 9 is_stmt 1 view .LVU588
 891:Middlewares/lvgl/src/core/lv_refr.c ****     }
 1806              		.loc 1 891 11 is_stmt 0 view .LVU589
 1807 01f4 029B     		ldr	r3, [sp, #8]
 1808 01f6 002B     		cmp	r3, #0
 1809 01f8 3FF419AF 		beq	.L81
 891:Middlewares/lvgl/src/core/lv_refr.c ****     }
 1810              		.loc 1 891 29 is_stmt 1 discriminator 1 view .LVU590
 1811 01fc 1846     		mov	r0, r3
 1812 01fe FFF7FEFF 		bl	lv_mem_buf_release
 1813              	.LVL189:
 1814 0202 14E7     		b	.L81
ARM GAS  /tmp/cccpOVCi.s 			page 60


 1815              	.L111:
 1816              		.align	2
 1817              	.L110:
 1818 0204 00000000 		.word	.LANCHOR0
 1819              	.LBE61:
 1820              		.cfi_endproc
 1821              	.LFE170:
 1823              		.section	.text._lv_refr_init,"ax",%progbits
 1824              		.align	1
 1825              		.global	_lv_refr_init
 1826              		.syntax unified
 1827              		.thumb
 1828              		.thumb_func
 1829              		.fpu fpv5-d16
 1831              	_lv_refr_init:
 1832              	.LFB153:
  73:Middlewares/lvgl/src/core/lv_refr.c ****     /*Nothing to do*/
 1833              		.loc 1 73 1 view -0
 1834              		.cfi_startproc
 1835              		@ args = 0, pretend = 0, frame = 0
 1836              		@ frame_needed = 0, uses_anonymous_args = 0
 1837              		@ link register save eliminated.
  75:Middlewares/lvgl/src/core/lv_refr.c **** 
 1838              		.loc 1 75 1 view .LVU592
 1839 0000 7047     		bx	lr
 1840              		.cfi_endproc
 1841              	.LFE153:
 1843              		.section	.text._lv_inv_area,"ax",%progbits
 1844              		.align	1
 1845              		.global	_lv_inv_area
 1846              		.syntax unified
 1847              		.thumb
 1848              		.thumb_func
 1849              		.fpu fpv5-d16
 1851              	_lv_inv_area:
 1852              	.LVL190:
 1853              	.LFB155:
 108:Middlewares/lvgl/src/core/lv_refr.c ****     if(!disp) disp = lv_disp_get_default();
 1854              		.loc 1 108 1 view -0
 1855              		.cfi_startproc
 1856              		@ args = 0, pretend = 0, frame = 16
 1857              		@ frame_needed = 0, uses_anonymous_args = 0
 108:Middlewares/lvgl/src/core/lv_refr.c ****     if(!disp) disp = lv_disp_get_default();
 1858              		.loc 1 108 1 is_stmt 0 view .LVU594
 1859 0000 30B5     		push	{r4, r5, lr}
 1860              	.LCFI20:
 1861              		.cfi_def_cfa_offset 12
 1862              		.cfi_offset 4, -12
 1863              		.cfi_offset 5, -8
 1864              		.cfi_offset 14, -4
 1865 0002 85B0     		sub	sp, sp, #20
 1866              	.LCFI21:
 1867              		.cfi_def_cfa_offset 32
 1868 0004 0C46     		mov	r4, r1
 109:Middlewares/lvgl/src/core/lv_refr.c ****     if(!disp) return;
 1869              		.loc 1 109 5 is_stmt 1 view .LVU595
 109:Middlewares/lvgl/src/core/lv_refr.c ****     if(!disp) return;
ARM GAS  /tmp/cccpOVCi.s 			page 61


 1870              		.loc 1 109 7 is_stmt 0 view .LVU596
 1871 0006 0546     		mov	r5, r0
 1872 0008 A0B3     		cbz	r0, .L125
 1873              	.LVL191:
 1874              	.L114:
 110:Middlewares/lvgl/src/core/lv_refr.c **** 
 1875              		.loc 1 110 5 is_stmt 1 view .LVU597
 110:Middlewares/lvgl/src/core/lv_refr.c **** 
 1876              		.loc 1 110 7 is_stmt 0 view .LVU598
 1877 000a 002D     		cmp	r5, #0
 1878 000c 39D0     		beq	.L113
 113:Middlewares/lvgl/src/core/lv_refr.c ****         disp->inv_p = 0;
 1879              		.loc 1 113 5 is_stmt 1 view .LVU599
 113:Middlewares/lvgl/src/core/lv_refr.c ****         disp->inv_p = 0;
 1880              		.loc 1 113 7 is_stmt 0 view .LVU600
 1881 000e ACB3     		cbz	r4, .L126
 118:Middlewares/lvgl/src/core/lv_refr.c ****     scr_area.x1 = 0;
 1882              		.loc 1 118 5 is_stmt 1 view .LVU601
 119:Middlewares/lvgl/src/core/lv_refr.c ****     scr_area.y1 = 0;
 1883              		.loc 1 119 5 view .LVU602
 119:Middlewares/lvgl/src/core/lv_refr.c ****     scr_area.y1 = 0;
 1884              		.loc 1 119 17 is_stmt 0 view .LVU603
 1885 0010 0023     		movs	r3, #0
 1886 0012 ADF80830 		strh	r3, [sp, #8]	@ movhi
 120:Middlewares/lvgl/src/core/lv_refr.c ****     scr_area.x2 = lv_disp_get_hor_res(disp) - 1;
 1887              		.loc 1 120 5 is_stmt 1 view .LVU604
 120:Middlewares/lvgl/src/core/lv_refr.c ****     scr_area.x2 = lv_disp_get_hor_res(disp) - 1;
 1888              		.loc 1 120 17 is_stmt 0 view .LVU605
 1889 0016 ADF80A30 		strh	r3, [sp, #10]	@ movhi
 121:Middlewares/lvgl/src/core/lv_refr.c ****     scr_area.y2 = lv_disp_get_ver_res(disp) - 1;
 1890              		.loc 1 121 5 is_stmt 1 view .LVU606
 121:Middlewares/lvgl/src/core/lv_refr.c ****     scr_area.y2 = lv_disp_get_ver_res(disp) - 1;
 1891              		.loc 1 121 19 is_stmt 0 view .LVU607
 1892 001a 2846     		mov	r0, r5
 121:Middlewares/lvgl/src/core/lv_refr.c ****     scr_area.y2 = lv_disp_get_ver_res(disp) - 1;
 1893              		.loc 1 121 19 view .LVU608
 1894 001c FFF7FEFF 		bl	lv_disp_get_hor_res
 1895              	.LVL192:
 121:Middlewares/lvgl/src/core/lv_refr.c ****     scr_area.y2 = lv_disp_get_ver_res(disp) - 1;
 1896              		.loc 1 121 19 view .LVU609
 1897 0020 80B2     		uxth	r0, r0
 121:Middlewares/lvgl/src/core/lv_refr.c ****     scr_area.y2 = lv_disp_get_ver_res(disp) - 1;
 1898              		.loc 1 121 45 view .LVU610
 1899 0022 0138     		subs	r0, r0, #1
 121:Middlewares/lvgl/src/core/lv_refr.c ****     scr_area.y2 = lv_disp_get_ver_res(disp) - 1;
 1900              		.loc 1 121 17 view .LVU611
 1901 0024 ADF80C00 		strh	r0, [sp, #12]	@ movhi
 122:Middlewares/lvgl/src/core/lv_refr.c **** 
 1902              		.loc 1 122 5 is_stmt 1 view .LVU612
 122:Middlewares/lvgl/src/core/lv_refr.c **** 
 1903              		.loc 1 122 19 is_stmt 0 view .LVU613
 1904 0028 2846     		mov	r0, r5
 1905 002a FFF7FEFF 		bl	lv_disp_get_ver_res
 1906              	.LVL193:
 1907 002e 80B2     		uxth	r0, r0
 122:Middlewares/lvgl/src/core/lv_refr.c **** 
 1908              		.loc 1 122 45 view .LVU614
ARM GAS  /tmp/cccpOVCi.s 			page 62


 1909 0030 0138     		subs	r0, r0, #1
 122:Middlewares/lvgl/src/core/lv_refr.c **** 
 1910              		.loc 1 122 17 view .LVU615
 1911 0032 ADF80E00 		strh	r0, [sp, #14]	@ movhi
 124:Middlewares/lvgl/src/core/lv_refr.c ****     bool suc;
 1912              		.loc 1 124 5 is_stmt 1 view .LVU616
 125:Middlewares/lvgl/src/core/lv_refr.c **** 
 1913              		.loc 1 125 5 view .LVU617
 127:Middlewares/lvgl/src/core/lv_refr.c ****     if(suc == false)  return; /*Out of the screen*/
 1914              		.loc 1 127 5 view .LVU618
 127:Middlewares/lvgl/src/core/lv_refr.c ****     if(suc == false)  return; /*Out of the screen*/
 1915              		.loc 1 127 11 is_stmt 0 view .LVU619
 1916 0036 02AA     		add	r2, sp, #8
 1917 0038 2146     		mov	r1, r4
 1918 003a 6846     		mov	r0, sp
 1919 003c FFF7FEFF 		bl	_lv_area_intersect
 1920              	.LVL194:
 128:Middlewares/lvgl/src/core/lv_refr.c **** 
 1921              		.loc 1 128 5 is_stmt 1 view .LVU620
 128:Middlewares/lvgl/src/core/lv_refr.c **** 
 1922              		.loc 1 128 7 is_stmt 0 view .LVU621
 1923 0040 F8B1     		cbz	r0, .L113
 131:Middlewares/lvgl/src/core/lv_refr.c ****         disp->inv_areas[0] = scr_area;
 1924              		.loc 1 131 5 is_stmt 1 view .LVU622
 131:Middlewares/lvgl/src/core/lv_refr.c ****         disp->inv_areas[0] = scr_area;
 1925              		.loc 1 131 12 is_stmt 0 view .LVU623
 1926 0042 2868     		ldr	r0, [r5]
 1927              	.LVL195:
 131:Middlewares/lvgl/src/core/lv_refr.c ****         disp->inv_areas[0] = scr_area;
 1928              		.loc 1 131 8 view .LVU624
 1929 0044 037A     		ldrb	r3, [r0, #8]	@ zero_extendqisi2
 131:Middlewares/lvgl/src/core/lv_refr.c ****         disp->inv_areas[0] = scr_area;
 1930              		.loc 1 131 7 view .LVU625
 1931 0046 13F0010F 		tst	r3, #1
 1932 004a 1CD1     		bne	.L127
 138:Middlewares/lvgl/src/core/lv_refr.c **** 
 1933              		.loc 1 138 5 is_stmt 1 view .LVU626
 138:Middlewares/lvgl/src/core/lv_refr.c **** 
 1934              		.loc 1 138 20 is_stmt 0 view .LVU627
 1935 004c 0369     		ldr	r3, [r0, #16]
 138:Middlewares/lvgl/src/core/lv_refr.c **** 
 1936              		.loc 1 138 7 view .LVU628
 1937 004e 0BB1     		cbz	r3, .L118
 138:Middlewares/lvgl/src/core/lv_refr.c **** 
 1938              		.loc 1 138 34 is_stmt 1 discriminator 1 view .LVU629
 1939 0050 6946     		mov	r1, sp
 1940 0052 9847     		blx	r3
 1941              	.LVL196:
 1942              	.L118:
 108:Middlewares/lvgl/src/core/lv_refr.c ****     if(!disp) disp = lv_disp_get_default();
 1943              		.loc 1 108 1 is_stmt 0 discriminator 1 view .LVU630
 1944 0054 0024     		movs	r4, #0
 1945              	.LVL197:
 1946              	.L119:
 142:Middlewares/lvgl/src/core/lv_refr.c ****         if(_lv_area_is_in(&com_area, &disp->inv_areas[i], 0) != false) return;
 1947              		.loc 1 142 16 is_stmt 1 discriminator 1 view .LVU631
 142:Middlewares/lvgl/src/core/lv_refr.c ****         if(_lv_area_is_in(&com_area, &disp->inv_areas[i], 0) != false) return;
ARM GAS  /tmp/cccpOVCi.s 			page 63


 1948              		.loc 1 142 24 is_stmt 0 discriminator 1 view .LVU632
 1949 0056 B5F85031 		ldrh	r3, [r5, #336]
 142:Middlewares/lvgl/src/core/lv_refr.c ****         if(_lv_area_is_in(&com_area, &disp->inv_areas[i], 0) != false) return;
 1950              		.loc 1 142 5 discriminator 1 view .LVU633
 1951 005a A342     		cmp	r3, r4
 1952 005c 21D9     		bls	.L128
 143:Middlewares/lvgl/src/core/lv_refr.c ****     }
 1953              		.loc 1 143 9 is_stmt 1 view .LVU634
 143:Middlewares/lvgl/src/core/lv_refr.c ****     }
 1954              		.loc 1 143 38 is_stmt 0 view .LVU635
 1955 005e A11D     		adds	r1, r4, #6
 143:Middlewares/lvgl/src/core/lv_refr.c ****     }
 1956              		.loc 1 143 12 view .LVU636
 1957 0060 0022     		movs	r2, #0
 1958 0062 05EBC101 		add	r1, r5, r1, lsl #3
 1959 0066 6846     		mov	r0, sp
 1960 0068 FFF7FEFF 		bl	_lv_area_is_in
 1961              	.LVL198:
 143:Middlewares/lvgl/src/core/lv_refr.c ****     }
 1962              		.loc 1 143 11 view .LVU637
 1963 006c 48B9     		cbnz	r0, .L113
 142:Middlewares/lvgl/src/core/lv_refr.c ****         if(_lv_area_is_in(&com_area, &disp->inv_areas[i], 0) != false) return;
 1964              		.loc 1 142 33 is_stmt 1 discriminator 2 view .LVU638
 142:Middlewares/lvgl/src/core/lv_refr.c ****         if(_lv_area_is_in(&com_area, &disp->inv_areas[i], 0) != false) return;
 1965              		.loc 1 142 34 is_stmt 0 discriminator 2 view .LVU639
 1966 006e 0134     		adds	r4, r4, #1
 1967              	.LVL199:
 142:Middlewares/lvgl/src/core/lv_refr.c ****         if(_lv_area_is_in(&com_area, &disp->inv_areas[i], 0) != false) return;
 1968              		.loc 1 142 34 discriminator 2 view .LVU640
 1969 0070 A4B2     		uxth	r4, r4
 1970              	.LVL200:
 142:Middlewares/lvgl/src/core/lv_refr.c ****         if(_lv_area_is_in(&com_area, &disp->inv_areas[i], 0) != false) return;
 1971              		.loc 1 142 34 discriminator 2 view .LVU641
 1972 0072 F0E7     		b	.L119
 1973              	.LVL201:
 1974              	.L125:
 109:Middlewares/lvgl/src/core/lv_refr.c ****     if(!disp) return;
 1975              		.loc 1 109 15 is_stmt 1 discriminator 1 view .LVU642
 109:Middlewares/lvgl/src/core/lv_refr.c ****     if(!disp) return;
 1976              		.loc 1 109 22 is_stmt 0 discriminator 1 view .LVU643
 1977 0074 FFF7FEFF 		bl	lv_disp_get_default
 1978              	.LVL202:
 109:Middlewares/lvgl/src/core/lv_refr.c ****     if(!disp) return;
 1979              		.loc 1 109 22 discriminator 1 view .LVU644
 1980 0078 0546     		mov	r5, r0
 1981              	.LVL203:
 109:Middlewares/lvgl/src/core/lv_refr.c ****     if(!disp) return;
 1982              		.loc 1 109 22 discriminator 1 view .LVU645
 1983 007a C6E7     		b	.L114
 1984              	.L126:
 114:Middlewares/lvgl/src/core/lv_refr.c ****         return;
 1985              		.loc 1 114 9 is_stmt 1 view .LVU646
 114:Middlewares/lvgl/src/core/lv_refr.c ****         return;
 1986              		.loc 1 114 21 is_stmt 0 view .LVU647
 1987 007c 0023     		movs	r3, #0
 1988 007e A5F85031 		strh	r3, [r5, #336]	@ movhi
 115:Middlewares/lvgl/src/core/lv_refr.c ****     }
ARM GAS  /tmp/cccpOVCi.s 			page 64


 1989              		.loc 1 115 9 is_stmt 1 view .LVU648
 1990              	.LVL204:
 1991              	.L113:
 156:Middlewares/lvgl/src/core/lv_refr.c **** 
 1992              		.loc 1 156 1 is_stmt 0 view .LVU649
 1993 0082 05B0     		add	sp, sp, #20
 1994              	.LCFI22:
 1995              		.cfi_remember_state
 1996              		.cfi_def_cfa_offset 12
 1997              		@ sp needed
 1998 0084 30BD     		pop	{r4, r5, pc}
 1999              	.LVL205:
 2000              	.L127:
 2001              	.LCFI23:
 2002              		.cfi_restore_state
 132:Middlewares/lvgl/src/core/lv_refr.c ****         disp->inv_p = 1;
 2003              		.loc 1 132 9 is_stmt 1 view .LVU650
 132:Middlewares/lvgl/src/core/lv_refr.c ****         disp->inv_p = 1;
 2004              		.loc 1 132 28 is_stmt 0 view .LVU651
 2005 0086 05F13003 		add	r3, r5, #48
 2006 008a 04AA     		add	r2, sp, #16
 2007 008c 12E90300 		ldmdb	r2, {r0, r1}
 2008 0090 83E80300 		stm	r3, {r0, r1}
 133:Middlewares/lvgl/src/core/lv_refr.c ****         lv_timer_resume(disp->refr_timer);
 2009              		.loc 1 133 9 is_stmt 1 view .LVU652
 133:Middlewares/lvgl/src/core/lv_refr.c ****         lv_timer_resume(disp->refr_timer);
 2010              		.loc 1 133 21 is_stmt 0 view .LVU653
 2011 0094 0123     		movs	r3, #1
 2012 0096 A5F85031 		strh	r3, [r5, #336]	@ movhi
 134:Middlewares/lvgl/src/core/lv_refr.c ****         return;
 2013              		.loc 1 134 9 is_stmt 1 view .LVU654
 2014 009a 6868     		ldr	r0, [r5, #4]
 2015 009c FFF7FEFF 		bl	lv_timer_resume
 2016              	.LVL206:
 135:Middlewares/lvgl/src/core/lv_refr.c ****     }
 2017              		.loc 1 135 9 view .LVU655
 2018 00a0 EFE7     		b	.L113
 2019              	.LVL207:
 2020              	.L128:
 147:Middlewares/lvgl/src/core/lv_refr.c ****         lv_area_copy(&disp->inv_areas[disp->inv_p], &com_area);
 2021              		.loc 1 147 5 view .LVU656
 147:Middlewares/lvgl/src/core/lv_refr.c ****         lv_area_copy(&disp->inv_areas[disp->inv_p], &com_area);
 2022              		.loc 1 147 7 is_stmt 0 view .LVU657
 2023 00a2 1F2B     		cmp	r3, #31
 2024 00a4 18D8     		bhi	.L121
 148:Middlewares/lvgl/src/core/lv_refr.c ****     }
 2025              		.loc 1 148 9 is_stmt 1 view .LVU658
 2026              	.LVL208:
 2027              	.LBB68:
 2028              	.LBI68:
 120:Middlewares/lvgl/src/core/../misc/../font/../misc/lv_area.h **** {
 2029              		.loc 2 120 20 view .LVU659
 2030              	.LBB69:
 122:Middlewares/lvgl/src/core/../misc/../font/../misc/lv_area.h ****     dest->y1 = src->y1;
 2031              		.loc 2 122 5 view .LVU660
 122:Middlewares/lvgl/src/core/../misc/../font/../misc/lv_area.h ****     dest->y1 = src->y1;
 2032              		.loc 2 122 19 is_stmt 0 view .LVU661
ARM GAS  /tmp/cccpOVCi.s 			page 65


 2033 00a6 BDF90020 		ldrsh	r2, [sp]
 122:Middlewares/lvgl/src/core/../misc/../font/../misc/lv_area.h ****     dest->y1 = src->y1;
 2034              		.loc 2 122 14 view .LVU662
 2035 00aa 0633     		adds	r3, r3, #6
 2036              	.LVL209:
 122:Middlewares/lvgl/src/core/../misc/../font/../misc/lv_area.h ****     dest->y1 = src->y1;
 2037              		.loc 2 122 14 view .LVU663
 2038 00ac 25F83320 		strh	r2, [r5, r3, lsl #3]	@ movhi
 2039              	.LVL210:
 123:Middlewares/lvgl/src/core/../misc/../font/../misc/lv_area.h ****     dest->x2 = src->x2;
 2040              		.loc 2 123 5 is_stmt 1 view .LVU664
 123:Middlewares/lvgl/src/core/../misc/../font/../misc/lv_area.h ****     dest->x2 = src->x2;
 2041              		.loc 2 123 19 is_stmt 0 view .LVU665
 2042 00b0 BDF90220 		ldrsh	r2, [sp, #2]
 123:Middlewares/lvgl/src/core/../misc/../font/../misc/lv_area.h ****     dest->x2 = src->x2;
 2043              		.loc 2 123 14 view .LVU666
 2044 00b4 05EBC303 		add	r3, r5, r3, lsl #3
 2045              	.LVL211:
 123:Middlewares/lvgl/src/core/../misc/../font/../misc/lv_area.h ****     dest->x2 = src->x2;
 2046              		.loc 2 123 14 view .LVU667
 2047 00b8 5A80     		strh	r2, [r3, #2]	@ movhi
 124:Middlewares/lvgl/src/core/../misc/../font/../misc/lv_area.h ****     dest->y2 = src->y2;
 2048              		.loc 2 124 5 is_stmt 1 view .LVU668
 124:Middlewares/lvgl/src/core/../misc/../font/../misc/lv_area.h ****     dest->y2 = src->y2;
 2049              		.loc 2 124 19 is_stmt 0 view .LVU669
 2050 00ba BDF90420 		ldrsh	r2, [sp, #4]
 124:Middlewares/lvgl/src/core/../misc/../font/../misc/lv_area.h ****     dest->y2 = src->y2;
 2051              		.loc 2 124 14 view .LVU670
 2052 00be 9A80     		strh	r2, [r3, #4]	@ movhi
 125:Middlewares/lvgl/src/core/../misc/../font/../misc/lv_area.h **** }
 2053              		.loc 2 125 5 is_stmt 1 view .LVU671
 125:Middlewares/lvgl/src/core/../misc/../font/../misc/lv_area.h **** }
 2054              		.loc 2 125 19 is_stmt 0 view .LVU672
 2055 00c0 BDF90620 		ldrsh	r2, [sp, #6]
 125:Middlewares/lvgl/src/core/../misc/../font/../misc/lv_area.h **** }
 2056              		.loc 2 125 14 view .LVU673
 2057 00c4 DA80     		strh	r2, [r3, #6]	@ movhi
 2058              	.LVL212:
 2059              	.L122:
 125:Middlewares/lvgl/src/core/../misc/../font/../misc/lv_area.h **** }
 2060              		.loc 2 125 14 view .LVU674
 2061              	.LBE69:
 2062              	.LBE68:
 154:Middlewares/lvgl/src/core/lv_refr.c ****     lv_timer_resume(disp->refr_timer);
 2063              		.loc 1 154 5 is_stmt 1 view .LVU675
 154:Middlewares/lvgl/src/core/lv_refr.c ****     lv_timer_resume(disp->refr_timer);
 2064              		.loc 1 154 9 is_stmt 0 view .LVU676
 2065 00c6 B5F85031 		ldrh	r3, [r5, #336]
 154:Middlewares/lvgl/src/core/lv_refr.c ****     lv_timer_resume(disp->refr_timer);
 2066              		.loc 1 154 16 view .LVU677
 2067 00ca 0133     		adds	r3, r3, #1
 2068 00cc A5F85031 		strh	r3, [r5, #336]	@ movhi
 155:Middlewares/lvgl/src/core/lv_refr.c **** }
 2069              		.loc 1 155 5 is_stmt 1 view .LVU678
 2070 00d0 6868     		ldr	r0, [r5, #4]
 2071 00d2 FFF7FEFF 		bl	lv_timer_resume
 2072              	.LVL213:
ARM GAS  /tmp/cccpOVCi.s 			page 66


 2073 00d6 D4E7     		b	.L113
 2074              	.L121:
 151:Middlewares/lvgl/src/core/lv_refr.c ****         lv_area_copy(&disp->inv_areas[disp->inv_p], &scr_area);
 2075              		.loc 1 151 9 view .LVU679
 151:Middlewares/lvgl/src/core/lv_refr.c ****         lv_area_copy(&disp->inv_areas[disp->inv_p], &scr_area);
 2076              		.loc 1 151 21 is_stmt 0 view .LVU680
 2077 00d8 0023     		movs	r3, #0
 2078 00da A5F85031 		strh	r3, [r5, #336]	@ movhi
 152:Middlewares/lvgl/src/core/lv_refr.c ****     }
 2079              		.loc 1 152 9 is_stmt 1 view .LVU681
 2080              	.LVL214:
 2081              	.LBB70:
 2082              	.LBI70:
 120:Middlewares/lvgl/src/core/../misc/../font/../misc/lv_area.h **** {
 2083              		.loc 2 120 20 view .LVU682
 2084              	.LBB71:
 122:Middlewares/lvgl/src/core/../misc/../font/../misc/lv_area.h ****     dest->y1 = src->y1;
 2085              		.loc 2 122 5 view .LVU683
 122:Middlewares/lvgl/src/core/../misc/../font/../misc/lv_area.h ****     dest->y1 = src->y1;
 2086              		.loc 2 122 19 is_stmt 0 view .LVU684
 2087 00de BDF90830 		ldrsh	r3, [sp, #8]
 122:Middlewares/lvgl/src/core/../misc/../font/../misc/lv_area.h ****     dest->y1 = src->y1;
 2088              		.loc 2 122 14 view .LVU685
 2089 00e2 2B86     		strh	r3, [r5, #48]	@ movhi
 123:Middlewares/lvgl/src/core/../misc/../font/../misc/lv_area.h ****     dest->x2 = src->x2;
 2090              		.loc 2 123 5 is_stmt 1 view .LVU686
 123:Middlewares/lvgl/src/core/../misc/../font/../misc/lv_area.h ****     dest->x2 = src->x2;
 2091              		.loc 2 123 19 is_stmt 0 view .LVU687
 2092 00e4 BDF90A30 		ldrsh	r3, [sp, #10]
 123:Middlewares/lvgl/src/core/../misc/../font/../misc/lv_area.h ****     dest->x2 = src->x2;
 2093              		.loc 2 123 14 view .LVU688
 2094 00e8 6B86     		strh	r3, [r5, #50]	@ movhi
 124:Middlewares/lvgl/src/core/../misc/../font/../misc/lv_area.h ****     dest->y2 = src->y2;
 2095              		.loc 2 124 5 is_stmt 1 view .LVU689
 124:Middlewares/lvgl/src/core/../misc/../font/../misc/lv_area.h ****     dest->y2 = src->y2;
 2096              		.loc 2 124 19 is_stmt 0 view .LVU690
 2097 00ea BDF90C30 		ldrsh	r3, [sp, #12]
 124:Middlewares/lvgl/src/core/../misc/../font/../misc/lv_area.h ****     dest->y2 = src->y2;
 2098              		.loc 2 124 14 view .LVU691
 2099 00ee AB86     		strh	r3, [r5, #52]	@ movhi
 125:Middlewares/lvgl/src/core/../misc/../font/../misc/lv_area.h **** }
 2100              		.loc 2 125 5 is_stmt 1 view .LVU692
 125:Middlewares/lvgl/src/core/../misc/../font/../misc/lv_area.h **** }
 2101              		.loc 2 125 19 is_stmt 0 view .LVU693
 2102 00f0 BDF90E30 		ldrsh	r3, [sp, #14]
 125:Middlewares/lvgl/src/core/../misc/../font/../misc/lv_area.h **** }
 2103              		.loc 2 125 14 view .LVU694
 2104 00f4 EB86     		strh	r3, [r5, #54]	@ movhi
 126:Middlewares/lvgl/src/core/../misc/../font/../misc/lv_area.h **** 
 2105              		.loc 2 126 1 view .LVU695
 2106 00f6 E6E7     		b	.L122
 2107              	.LBE71:
 2108              	.LBE70:
 2109              		.cfi_endproc
 2110              	.LFE155:
 2112              		.section	.text._lv_refr_get_disp_refreshing,"ax",%progbits
 2113              		.align	1
ARM GAS  /tmp/cccpOVCi.s 			page 67


 2114              		.global	_lv_refr_get_disp_refreshing
 2115              		.syntax unified
 2116              		.thumb
 2117              		.thumb_func
 2118              		.fpu fpv5-d16
 2120              	_lv_refr_get_disp_refreshing:
 2121              	.LFB156:
 163:Middlewares/lvgl/src/core/lv_refr.c ****     return disp_refr;
 2122              		.loc 1 163 1 is_stmt 1 view -0
 2123              		.cfi_startproc
 2124              		@ args = 0, pretend = 0, frame = 0
 2125              		@ frame_needed = 0, uses_anonymous_args = 0
 2126              		@ link register save eliminated.
 164:Middlewares/lvgl/src/core/lv_refr.c **** }
 2127              		.loc 1 164 5 view .LVU697
 165:Middlewares/lvgl/src/core/lv_refr.c **** 
 2128              		.loc 1 165 1 is_stmt 0 view .LVU698
 2129 0000 014B     		ldr	r3, .L130
 2130 0002 1868     		ldr	r0, [r3]
 2131 0004 7047     		bx	lr
 2132              	.L131:
 2133 0006 00BF     		.align	2
 2134              	.L130:
 2135 0008 00000000 		.word	.LANCHOR0
 2136              		.cfi_endproc
 2137              	.LFE156:
 2139              		.section	.text.draw_buf_flush,"ax",%progbits
 2140              		.align	1
 2141              		.syntax unified
 2142              		.thumb
 2143              		.thumb_func
 2144              		.fpu fpv5-d16
 2146              	draw_buf_flush:
 2147              	.LFB171:
 899:Middlewares/lvgl/src/core/lv_refr.c ****     lv_disp_draw_buf_t * draw_buf = lv_disp_get_draw_buf(disp_refr);
 2148              		.loc 1 899 1 is_stmt 1 view -0
 2149              		.cfi_startproc
 2150              		@ args = 0, pretend = 0, frame = 0
 2151              		@ frame_needed = 0, uses_anonymous_args = 0
 2152 0000 70B5     		push	{r4, r5, r6, lr}
 2153              	.LCFI24:
 2154              		.cfi_def_cfa_offset 16
 2155              		.cfi_offset 4, -16
 2156              		.cfi_offset 5, -12
 2157              		.cfi_offset 6, -8
 2158              		.cfi_offset 14, -4
 900:Middlewares/lvgl/src/core/lv_refr.c ****     lv_color_t * color_p = draw_buf->buf_act;
 2159              		.loc 1 900 5 view .LVU700
 900:Middlewares/lvgl/src/core/lv_refr.c ****     lv_color_t * color_p = draw_buf->buf_act;
 2160              		.loc 1 900 37 is_stmt 0 view .LVU701
 2161 0002 274B     		ldr	r3, .L147
 2162 0004 1868     		ldr	r0, [r3]
 2163 0006 FFF7FEFF 		bl	lv_disp_get_draw_buf
 2164              	.LVL215:
 2165 000a 0446     		mov	r4, r0
 2166              	.LVL216:
 901:Middlewares/lvgl/src/core/lv_refr.c **** 
ARM GAS  /tmp/cccpOVCi.s 			page 68


 2167              		.loc 1 901 5 is_stmt 1 view .LVU702
 901:Middlewares/lvgl/src/core/lv_refr.c **** 
 2168              		.loc 1 901 18 is_stmt 0 view .LVU703
 2169 000c 8668     		ldr	r6, [r0, #8]
 2170              	.LVL217:
 904:Middlewares/lvgl/src/core/lv_refr.c ****     if(disp->driver->gpu_wait_cb) disp->driver->gpu_wait_cb(disp->driver);
 2171              		.loc 1 904 5 is_stmt 1 view .LVU704
 904:Middlewares/lvgl/src/core/lv_refr.c ****     if(disp->driver->gpu_wait_cb) disp->driver->gpu_wait_cb(disp->driver);
 2172              		.loc 1 904 24 is_stmt 0 view .LVU705
 2173 000e FFF7FEFF 		bl	_lv_refr_get_disp_refreshing
 2174              	.LVL218:
 904:Middlewares/lvgl/src/core/lv_refr.c ****     if(disp->driver->gpu_wait_cb) disp->driver->gpu_wait_cb(disp->driver);
 2175              		.loc 1 904 24 view .LVU706
 2176 0012 0546     		mov	r5, r0
 2177              	.LVL219:
 905:Middlewares/lvgl/src/core/lv_refr.c **** 
 2178              		.loc 1 905 5 is_stmt 1 view .LVU707
 905:Middlewares/lvgl/src/core/lv_refr.c **** 
 2179              		.loc 1 905 12 is_stmt 0 view .LVU708
 2180 0014 0068     		ldr	r0, [r0]
 2181              	.LVL220:
 905:Middlewares/lvgl/src/core/lv_refr.c **** 
 2182              		.loc 1 905 20 view .LVU709
 2183 0016 436A     		ldr	r3, [r0, #36]
 905:Middlewares/lvgl/src/core/lv_refr.c **** 
 2184              		.loc 1 905 7 view .LVU710
 2185 0018 03B1     		cbz	r3, .L133
 905:Middlewares/lvgl/src/core/lv_refr.c **** 
 2186              		.loc 1 905 35 is_stmt 1 discriminator 1 view .LVU711
 2187 001a 9847     		blx	r3
 2188              	.LVL221:
 2189              	.L133:
 909:Middlewares/lvgl/src/core/lv_refr.c **** 		 while(draw_buf->flushing) {
 2190              		.loc 1 909 3 view .LVU712
 909:Middlewares/lvgl/src/core/lv_refr.c **** 		 while(draw_buf->flushing) {
 2191              		.loc 1 909 14 is_stmt 0 view .LVU713
 2192 001c 2368     		ldr	r3, [r4]
 909:Middlewares/lvgl/src/core/lv_refr.c **** 		 while(draw_buf->flushing) {
 2193              		.loc 1 909 5 view .LVU714
 2194 001e 5BB1     		cbz	r3, .L134
 909:Middlewares/lvgl/src/core/lv_refr.c **** 		 while(draw_buf->flushing) {
 2195              		.loc 1 909 32 discriminator 1 view .LVU715
 2196 0020 6368     		ldr	r3, [r4, #4]
 909:Middlewares/lvgl/src/core/lv_refr.c **** 		 while(draw_buf->flushing) {
 2197              		.loc 1 909 21 discriminator 1 view .LVU716
 2198 0022 4BB1     		cbz	r3, .L134
 2199              	.L136:
 910:Middlewares/lvgl/src/core/lv_refr.c **** 			 if(disp_refr->driver->wait_cb) disp_refr->driver->wait_cb(disp_refr->driver);
 2200              		.loc 1 910 9 is_stmt 1 view .LVU717
 910:Middlewares/lvgl/src/core/lv_refr.c **** 			 if(disp_refr->driver->wait_cb) disp_refr->driver->wait_cb(disp_refr->driver);
 2201              		.loc 1 910 18 is_stmt 0 view .LVU718
 2202 0024 A369     		ldr	r3, [r4, #24]
 910:Middlewares/lvgl/src/core/lv_refr.c **** 			 if(disp_refr->driver->wait_cb) disp_refr->driver->wait_cb(disp_refr->driver);
 2203              		.loc 1 910 9 view .LVU719
 2204 0026 3BB1     		cbz	r3, .L134
 911:Middlewares/lvgl/src/core/lv_refr.c **** 		 }
 2205              		.loc 1 911 5 is_stmt 1 view .LVU720
ARM GAS  /tmp/cccpOVCi.s 			page 69


 911:Middlewares/lvgl/src/core/lv_refr.c **** 		 }
 2206              		.loc 1 911 17 is_stmt 0 view .LVU721
 2207 0028 1D4B     		ldr	r3, .L147
 2208 002a 1B68     		ldr	r3, [r3]
 2209 002c 1868     		ldr	r0, [r3]
 911:Middlewares/lvgl/src/core/lv_refr.c **** 		 }
 2210              		.loc 1 911 25 view .LVU722
 2211 002e C369     		ldr	r3, [r0, #28]
 911:Middlewares/lvgl/src/core/lv_refr.c **** 		 }
 2212              		.loc 1 911 7 view .LVU723
 2213 0030 002B     		cmp	r3, #0
 2214 0032 F7D0     		beq	.L136
 911:Middlewares/lvgl/src/core/lv_refr.c **** 		 }
 2215              		.loc 1 911 36 is_stmt 1 discriminator 1 view .LVU724
 2216 0034 9847     		blx	r3
 2217              	.LVL222:
 2218 0036 F5E7     		b	.L136
 2219              	.L134:
 915:Middlewares/lvgl/src/core/lv_refr.c **** 
 2220              		.loc 1 915 3 view .LVU725
 915:Middlewares/lvgl/src/core/lv_refr.c **** 
 2221              		.loc 1 915 22 is_stmt 0 view .LVU726
 2222 0038 0123     		movs	r3, #1
 2223 003a A361     		str	r3, [r4, #24]
 917:Middlewares/lvgl/src/core/lv_refr.c **** 	else draw_buf->flushing_last = 0;
 2224              		.loc 1 917 2 is_stmt 1 view .LVU727
 917:Middlewares/lvgl/src/core/lv_refr.c **** 	else draw_buf->flushing_last = 0;
 2225              		.loc 1 917 14 is_stmt 0 view .LVU728
 2226 003c 184B     		ldr	r3, .L147
 2227 003e 1B68     		ldr	r3, [r3]
 2228 0040 1B68     		ldr	r3, [r3]
 917:Middlewares/lvgl/src/core/lv_refr.c **** 	else draw_buf->flushing_last = 0;
 2229              		.loc 1 917 22 view .LVU729
 2230 0042 5B68     		ldr	r3, [r3, #4]
 917:Middlewares/lvgl/src/core/lv_refr.c **** 	else draw_buf->flushing_last = 0;
 2231              		.loc 1 917 32 view .LVU730
 2232 0044 1A6A     		ldr	r2, [r3, #32]
 917:Middlewares/lvgl/src/core/lv_refr.c **** 	else draw_buf->flushing_last = 0;
 2233              		.loc 1 917 4 view .LVU731
 2234 0046 12F0010F 		tst	r2, #1
 2235 004a 06D0     		beq	.L138
 917:Middlewares/lvgl/src/core/lv_refr.c **** 	else draw_buf->flushing_last = 0;
 2236              		.loc 1 917 74 discriminator 1 view .LVU732
 2237 004c 1B6A     		ldr	r3, [r3, #32]
 917:Middlewares/lvgl/src/core/lv_refr.c **** 	else draw_buf->flushing_last = 0;
 2238              		.loc 1 917 44 discriminator 1 view .LVU733
 2239 004e 13F0020F 		tst	r3, #2
 2240 0052 02D0     		beq	.L138
 917:Middlewares/lvgl/src/core/lv_refr.c **** 	else draw_buf->flushing_last = 0;
 2241              		.loc 1 917 87 is_stmt 1 discriminator 2 view .LVU734
 917:Middlewares/lvgl/src/core/lv_refr.c **** 	else draw_buf->flushing_last = 0;
 2242              		.loc 1 917 111 is_stmt 0 discriminator 2 view .LVU735
 2243 0054 0123     		movs	r3, #1
 2244 0056 E361     		str	r3, [r4, #28]
 2245 0058 01E0     		b	.L139
 2246              	.L138:
 918:Middlewares/lvgl/src/core/lv_refr.c **** 
ARM GAS  /tmp/cccpOVCi.s 			page 70


 2247              		.loc 1 918 7 is_stmt 1 view .LVU736
 918:Middlewares/lvgl/src/core/lv_refr.c **** 
 2248              		.loc 1 918 31 is_stmt 0 view .LVU737
 2249 005a 0023     		movs	r3, #0
 2250 005c E361     		str	r3, [r4, #28]
 2251              	.L139:
 920:Middlewares/lvgl/src/core/lv_refr.c ****         /*Rotate the buffer to the display's native orientation if necessary*/
 2252              		.loc 1 920 5 is_stmt 1 view .LVU738
 920:Middlewares/lvgl/src/core/lv_refr.c ****         /*Rotate the buffer to the display's native orientation if necessary*/
 2253              		.loc 1 920 12 is_stmt 0 view .LVU739
 2254 005e 2868     		ldr	r0, [r5]
 920:Middlewares/lvgl/src/core/lv_refr.c ****         /*Rotate the buffer to the display's native orientation if necessary*/
 2255              		.loc 1 920 20 view .LVU740
 2256 0060 C368     		ldr	r3, [r0, #12]
 920:Middlewares/lvgl/src/core/lv_refr.c ****         /*Rotate the buffer to the display's native orientation if necessary*/
 2257              		.loc 1 920 7 view .LVU741
 2258 0062 5BB1     		cbz	r3, .L140
 922:Middlewares/lvgl/src/core/lv_refr.c ****             draw_buf_rotate(&draw_buf->area, draw_buf->buf_act);
 2259              		.loc 1 922 9 is_stmt 1 view .LVU742
 922:Middlewares/lvgl/src/core/lv_refr.c ****             draw_buf_rotate(&draw_buf->area, draw_buf->buf_act);
 2260              		.loc 1 922 34 is_stmt 0 view .LVU743
 2261 0064 037A     		ldrb	r3, [r0, #8]	@ zero_extendqisi2
 922:Middlewares/lvgl/src/core/lv_refr.c ****             draw_buf_rotate(&draw_buf->area, draw_buf->buf_act);
 2262              		.loc 1 922 11 view .LVU744
 2263 0066 13F0180F 		tst	r3, #24
 2264 006a 02D0     		beq	.L141
 922:Middlewares/lvgl/src/core/lv_refr.c ****             draw_buf_rotate(&draw_buf->area, draw_buf->buf_act);
 2265              		.loc 1 922 54 discriminator 1 view .LVU745
 2266 006c 13F0020F 		tst	r3, #2
 2267 0070 0DD1     		bne	.L145
 2268              	.L141:
 925:Middlewares/lvgl/src/core/lv_refr.c ****         }
 2269              		.loc 1 925 13 is_stmt 1 view .LVU746
 2270 0072 3246     		mov	r2, r6
 2271 0074 04F11001 		add	r1, r4, #16
 2272 0078 FFF7FEFF 		bl	call_flush_cb
 2273              	.LVL223:
 2274              	.L140:
 928:Middlewares/lvgl/src/core/lv_refr.c ****         if(draw_buf->buf_act == draw_buf->buf1)
 2275              		.loc 1 928 5 view .LVU747
 928:Middlewares/lvgl/src/core/lv_refr.c ****         if(draw_buf->buf_act == draw_buf->buf1)
 2276              		.loc 1 928 16 is_stmt 0 view .LVU748
 2277 007c 2368     		ldr	r3, [r4]
 928:Middlewares/lvgl/src/core/lv_refr.c ****         if(draw_buf->buf_act == draw_buf->buf1)
 2278              		.loc 1 928 7 view .LVU749
 2279 007e 2BB1     		cbz	r3, .L132
 928:Middlewares/lvgl/src/core/lv_refr.c ****         if(draw_buf->buf_act == draw_buf->buf1)
 2280              		.loc 1 928 34 discriminator 1 view .LVU750
 2281 0080 6268     		ldr	r2, [r4, #4]
 928:Middlewares/lvgl/src/core/lv_refr.c ****         if(draw_buf->buf_act == draw_buf->buf1)
 2282              		.loc 1 928 23 discriminator 1 view .LVU751
 2283 0082 1AB1     		cbz	r2, .L132
 929:Middlewares/lvgl/src/core/lv_refr.c ****             draw_buf->buf_act = draw_buf->buf2;
 2284              		.loc 1 929 9 is_stmt 1 view .LVU752
 929:Middlewares/lvgl/src/core/lv_refr.c ****             draw_buf->buf_act = draw_buf->buf2;
 2285              		.loc 1 929 20 is_stmt 0 view .LVU753
 2286 0084 A168     		ldr	r1, [r4, #8]
ARM GAS  /tmp/cccpOVCi.s 			page 71


 929:Middlewares/lvgl/src/core/lv_refr.c ****             draw_buf->buf_act = draw_buf->buf2;
 2287              		.loc 1 929 11 view .LVU754
 2288 0086 8B42     		cmp	r3, r1
 2289 0088 07D0     		beq	.L146
 932:Middlewares/lvgl/src/core/lv_refr.c ****     }
 2290              		.loc 1 932 13 is_stmt 1 view .LVU755
 932:Middlewares/lvgl/src/core/lv_refr.c ****     }
 2291              		.loc 1 932 31 is_stmt 0 view .LVU756
 2292 008a A360     		str	r3, [r4, #8]
 2293              	.L132:
 934:Middlewares/lvgl/src/core/lv_refr.c **** 
 2294              		.loc 1 934 1 view .LVU757
 2295 008c 70BD     		pop	{r4, r5, r6, pc}
 2296              	.LVL224:
 2297              	.L145:
 923:Middlewares/lvgl/src/core/lv_refr.c ****         } else {
 2298              		.loc 1 923 13 is_stmt 1 view .LVU758
 2299 008e A168     		ldr	r1, [r4, #8]
 2300 0090 04F11000 		add	r0, r4, #16
 2301 0094 FFF7FEFF 		bl	draw_buf_rotate
 2302              	.LVL225:
 2303 0098 F0E7     		b	.L140
 2304              	.L146:
 930:Middlewares/lvgl/src/core/lv_refr.c ****         else
 2305              		.loc 1 930 13 view .LVU759
 930:Middlewares/lvgl/src/core/lv_refr.c ****         else
 2306              		.loc 1 930 31 is_stmt 0 view .LVU760
 2307 009a A260     		str	r2, [r4, #8]
 2308 009c F6E7     		b	.L132
 2309              	.L148:
 2310 009e 00BF     		.align	2
 2311              	.L147:
 2312 00a0 00000000 		.word	.LANCHOR0
 2313              		.cfi_endproc
 2314              	.LFE171:
 2316              		.section	.text.lv_refr_area_part,"ax",%progbits
 2317              		.align	1
 2318              		.syntax unified
 2319              		.thumb
 2320              		.thumb_func
 2321              		.fpu fpv5-d16
 2323              	lv_refr_area_part:
 2324              	.LVL226:
 2325              	.LFB162:
 488:Middlewares/lvgl/src/core/lv_refr.c ****     lv_disp_draw_buf_t * draw_buf = lv_disp_get_draw_buf(disp_refr);
 2326              		.loc 1 488 1 is_stmt 1 view -0
 2327              		.cfi_startproc
 2328              		@ args = 0, pretend = 0, frame = 72
 2329              		@ frame_needed = 0, uses_anonymous_args = 0
 488:Middlewares/lvgl/src/core/lv_refr.c ****     lv_disp_draw_buf_t * draw_buf = lv_disp_get_draw_buf(disp_refr);
 2330              		.loc 1 488 1 is_stmt 0 view .LVU762
 2331 0000 30B5     		push	{r4, r5, lr}
 2332              	.LCFI25:
 2333              		.cfi_def_cfa_offset 12
 2334              		.cfi_offset 4, -12
 2335              		.cfi_offset 5, -8
 2336              		.cfi_offset 14, -4
ARM GAS  /tmp/cccpOVCi.s 			page 72


 2337 0002 95B0     		sub	sp, sp, #84
 2338              	.LCFI26:
 2339              		.cfi_def_cfa_offset 96
 2340 0004 0546     		mov	r5, r0
 489:Middlewares/lvgl/src/core/lv_refr.c **** 
 2341              		.loc 1 489 5 is_stmt 1 view .LVU763
 489:Middlewares/lvgl/src/core/lv_refr.c **** 
 2342              		.loc 1 489 37 is_stmt 0 view .LVU764
 2343 0006 4E4B     		ldr	r3, .L168
 2344 0008 1868     		ldr	r0, [r3]
 2345              	.LVL227:
 489:Middlewares/lvgl/src/core/lv_refr.c **** 
 2346              		.loc 1 489 37 view .LVU765
 2347 000a FFF7FEFF 		bl	lv_disp_get_draw_buf
 2348              	.LVL228:
 2349 000e 0446     		mov	r4, r0
 2350              	.LVL229:
 493:Middlewares/lvgl/src/core/lv_refr.c **** 		while(draw_buf->flushing) {
 2351              		.loc 1 493 5 is_stmt 1 view .LVU766
 493:Middlewares/lvgl/src/core/lv_refr.c **** 		while(draw_buf->flushing) {
 2352              		.loc 1 493 16 is_stmt 0 view .LVU767
 2353 0010 0368     		ldr	r3, [r0]
 493:Middlewares/lvgl/src/core/lv_refr.c **** 		while(draw_buf->flushing) {
 2354              		.loc 1 493 7 view .LVU768
 2355 0012 13B1     		cbz	r3, .L150
 493:Middlewares/lvgl/src/core/lv_refr.c **** 		while(draw_buf->flushing) {
 2356              		.loc 1 493 35 discriminator 1 view .LVU769
 2357 0014 4368     		ldr	r3, [r0, #4]
 493:Middlewares/lvgl/src/core/lv_refr.c **** 		while(draw_buf->flushing) {
 2358              		.loc 1 493 23 discriminator 1 view .LVU770
 2359 0016 002B     		cmp	r3, #0
 2360 0018 53D0     		beq	.L152
 2361              	.LVL230:
 2362              	.L150:
 499:Middlewares/lvgl/src/core/lv_refr.c ****     lv_obj_t * top_prev_scr = NULL;
 2363              		.loc 1 499 5 is_stmt 1 view .LVU771
 500:Middlewares/lvgl/src/core/lv_refr.c **** 
 2364              		.loc 1 500 5 view .LVU772
 504:Middlewares/lvgl/src/core/lv_refr.c ****     _lv_area_intersect(&start_mask, area_p, &draw_buf->area);
 2365              		.loc 1 504 5 view .LVU773
 505:Middlewares/lvgl/src/core/lv_refr.c **** 
 2366              		.loc 1 505 5 view .LVU774
 2367 001a 04F11002 		add	r2, r4, #16
 2368 001e 2946     		mov	r1, r5
 2369 0020 12A8     		add	r0, sp, #72
 2370 0022 FFF7FEFF 		bl	_lv_area_intersect
 2371              	.LVL231:
 508:Middlewares/lvgl/src/core/lv_refr.c ****     if(disp_refr->prev_scr) {
 2372              		.loc 1 508 5 view .LVU775
 508:Middlewares/lvgl/src/core/lv_refr.c ****     if(disp_refr->prev_scr) {
 2373              		.loc 1 508 19 is_stmt 0 view .LVU776
 2374 0026 464C     		ldr	r4, .L168
 2375              	.LVL232:
 508:Middlewares/lvgl/src/core/lv_refr.c ****     if(disp_refr->prev_scr) {
 2376              		.loc 1 508 19 view .LVU777
 2377 0028 2068     		ldr	r0, [r4]
 2378 002a FFF7FEFF 		bl	lv_disp_get_scr_act
ARM GAS  /tmp/cccpOVCi.s 			page 73


 2379              	.LVL233:
 2380 002e 0146     		mov	r1, r0
 2381 0030 12A8     		add	r0, sp, #72
 2382 0032 FFF7FEFF 		bl	lv_refr_get_top_obj
 2383              	.LVL234:
 2384 0036 0546     		mov	r5, r0
 2385              	.LVL235:
 509:Middlewares/lvgl/src/core/lv_refr.c ****         top_prev_scr = lv_refr_get_top_obj(&start_mask, disp_refr->prev_scr);
 2386              		.loc 1 509 5 is_stmt 1 view .LVU778
 509:Middlewares/lvgl/src/core/lv_refr.c ****         top_prev_scr = lv_refr_get_top_obj(&start_mask, disp_refr->prev_scr);
 2387              		.loc 1 509 17 is_stmt 0 view .LVU779
 2388 0038 2368     		ldr	r3, [r4]
 2389 003a 5C69     		ldr	r4, [r3, #20]
 509:Middlewares/lvgl/src/core/lv_refr.c ****         top_prev_scr = lv_refr_get_top_obj(&start_mask, disp_refr->prev_scr);
 2390              		.loc 1 509 7 view .LVU780
 2391 003c 24B1     		cbz	r4, .L154
 510:Middlewares/lvgl/src/core/lv_refr.c ****     }
 2392              		.loc 1 510 9 is_stmt 1 view .LVU781
 510:Middlewares/lvgl/src/core/lv_refr.c ****     }
 2393              		.loc 1 510 24 is_stmt 0 view .LVU782
 2394 003e 2146     		mov	r1, r4
 2395 0040 12A8     		add	r0, sp, #72
 2396              	.LVL236:
 510:Middlewares/lvgl/src/core/lv_refr.c ****     }
 2397              		.loc 1 510 24 view .LVU783
 2398 0042 FFF7FEFF 		bl	lv_refr_get_top_obj
 2399              	.LVL237:
 2400 0046 0446     		mov	r4, r0
 2401              	.LVL238:
 2402              	.L154:
 514:Middlewares/lvgl/src/core/lv_refr.c ****         if(disp_refr->bg_img) {
 2403              		.loc 1 514 5 is_stmt 1 view .LVU784
 514:Middlewares/lvgl/src/core/lv_refr.c ****         if(disp_refr->bg_img) {
 2404              		.loc 1 514 7 is_stmt 0 view .LVU785
 2405 0048 002D     		cmp	r5, #0
 2406 004a 08BF     		it	eq
 2407 004c 002C     		cmpeq	r4, #0
 2408 004e 13D1     		bne	.L155
 515:Middlewares/lvgl/src/core/lv_refr.c ****             lv_draw_img_dsc_t dsc;
 2409              		.loc 1 515 9 is_stmt 1 view .LVU786
 515:Middlewares/lvgl/src/core/lv_refr.c ****             lv_draw_img_dsc_t dsc;
 2410              		.loc 1 515 21 is_stmt 0 view .LVU787
 2411 0050 3B4B     		ldr	r3, .L168
 2412 0052 1B68     		ldr	r3, [r3]
 2413 0054 DB6A     		ldr	r3, [r3, #44]
 515:Middlewares/lvgl/src/core/lv_refr.c ****             lv_draw_img_dsc_t dsc;
 2414              		.loc 1 515 11 view .LVU788
 2415 0056 002B     		cmp	r3, #0
 2416 0058 56D0     		beq	.L156
 2417              	.LBB72:
 516:Middlewares/lvgl/src/core/lv_refr.c ****             lv_draw_img_dsc_init(&dsc);
 2418              		.loc 1 516 13 is_stmt 1 view .LVU789
 517:Middlewares/lvgl/src/core/lv_refr.c ****             dsc.opa = disp_refr->bg_opa;
 2419              		.loc 1 517 13 view .LVU790
 2420 005a 05A8     		add	r0, sp, #20
 2421 005c FFF7FEFF 		bl	lv_draw_img_dsc_init
 2422              	.LVL239:
ARM GAS  /tmp/cccpOVCi.s 			page 74


 518:Middlewares/lvgl/src/core/lv_refr.c ****             lv_img_header_t header;
 2423              		.loc 1 518 13 view .LVU791
 518:Middlewares/lvgl/src/core/lv_refr.c ****             lv_img_header_t header;
 2424              		.loc 1 518 32 is_stmt 0 view .LVU792
 2425 0060 374B     		ldr	r3, .L168
 2426 0062 1B68     		ldr	r3, [r3]
 2427 0064 93F82920 		ldrb	r2, [r3, #41]	@ zero_extendqisi2
 518:Middlewares/lvgl/src/core/lv_refr.c ****             lv_img_header_t header;
 2428              		.loc 1 518 21 view .LVU793
 2429 0068 8DF81F20 		strb	r2, [sp, #31]
 519:Middlewares/lvgl/src/core/lv_refr.c ****             lv_res_t res;
 2430              		.loc 1 519 13 is_stmt 1 view .LVU794
 520:Middlewares/lvgl/src/core/lv_refr.c ****             res = lv_img_decoder_get_info(disp_refr->bg_img, &header);
 2431              		.loc 1 520 13 view .LVU795
 521:Middlewares/lvgl/src/core/lv_refr.c ****             if(res == LV_RES_OK) {
 2432              		.loc 1 521 13 view .LVU796
 521:Middlewares/lvgl/src/core/lv_refr.c ****             if(res == LV_RES_OK) {
 2433              		.loc 1 521 19 is_stmt 0 view .LVU797
 2434 006c 02A9     		add	r1, sp, #8
 2435 006e D86A     		ldr	r0, [r3, #44]
 2436 0070 FFF7FEFF 		bl	lv_img_decoder_get_info
 2437              	.LVL240:
 522:Middlewares/lvgl/src/core/lv_refr.c ****                 lv_area_t a;
 2438              		.loc 1 522 13 is_stmt 1 view .LVU798
 522:Middlewares/lvgl/src/core/lv_refr.c ****                 lv_area_t a;
 2439              		.loc 1 522 15 is_stmt 0 view .LVU799
 2440 0074 0128     		cmp	r0, #1
 2441 0076 2FD0     		beq	.L164
 2442              	.LVL241:
 2443              	.L155:
 522:Middlewares/lvgl/src/core/lv_refr.c ****                 lv_area_t a;
 2444              		.loc 1 522 15 view .LVU800
 2445              	.LBE72:
 541:Middlewares/lvgl/src/core/lv_refr.c ****         /*Get the most top object which is not covered by others*/
 2446              		.loc 1 541 5 is_stmt 1 view .LVU801
 541:Middlewares/lvgl/src/core/lv_refr.c ****         /*Get the most top object which is not covered by others*/
 2447              		.loc 1 541 17 is_stmt 0 view .LVU802
 2448 0078 314B     		ldr	r3, .L168
 2449 007a 1B68     		ldr	r3, [r3]
 2450 007c 5B69     		ldr	r3, [r3, #20]
 541:Middlewares/lvgl/src/core/lv_refr.c ****         /*Get the most top object which is not covered by others*/
 2451              		.loc 1 541 7 view .LVU803
 2452 007e 2BB1     		cbz	r3, .L158
 543:Middlewares/lvgl/src/core/lv_refr.c ****             top_prev_scr = disp_refr->prev_scr;
 2453              		.loc 1 543 9 is_stmt 1 view .LVU804
 543:Middlewares/lvgl/src/core/lv_refr.c ****             top_prev_scr = disp_refr->prev_scr;
 2454              		.loc 1 543 11 is_stmt 0 view .LVU805
 2455 0080 002C     		cmp	r4, #0
 2456 0082 53D0     		beq	.L165
 2457              	.LVL242:
 2458              	.L159:
 547:Middlewares/lvgl/src/core/lv_refr.c **** 
 2459              		.loc 1 547 9 is_stmt 1 view .LVU806
 2460 0084 12A9     		add	r1, sp, #72
 2461 0086 2046     		mov	r0, r4
 2462 0088 FFF7FEFF 		bl	lv_refr_obj_and_children
 2463              	.LVL243:
ARM GAS  /tmp/cccpOVCi.s 			page 75


 2464              	.L158:
 551:Middlewares/lvgl/src/core/lv_refr.c ****         top_act_scr = disp_refr->act_scr;
 2465              		.loc 1 551 5 view .LVU807
 551:Middlewares/lvgl/src/core/lv_refr.c ****         top_act_scr = disp_refr->act_scr;
 2466              		.loc 1 551 7 is_stmt 0 view .LVU808
 2467 008c 002D     		cmp	r5, #0
 2468 008e 4FD0     		beq	.L166
 2469              	.L160:
 555:Middlewares/lvgl/src/core/lv_refr.c **** 
 2470              		.loc 1 555 5 is_stmt 1 view .LVU809
 2471 0090 12A9     		add	r1, sp, #72
