ARM GAS  /tmp/cc1iaYtN.s 			page 1


   1              		.cpu cortex-m7
   2              		.arch armv7e-m
   3              		.fpu fpv5-d16
   4              		.eabi_attribute 28, 1
   5              		.eabi_attribute 20, 1
   6              		.eabi_attribute 21, 1
   7              		.eabi_attribute 23, 3
   8              		.eabi_attribute 24, 1
   9              		.eabi_attribute 25, 1
  10              		.eabi_attribute 26, 1
  11              		.eabi_attribute 30, 1
  12              		.eabi_attribute 34, 1
  13              		.eabi_attribute 18, 4
  14              		.file	"lv_span.c"
  15              		.text
  16              	.Ltext0:
  17              		.cfi_sections	.debug_frame
  18              		.section	.text.lv_get_snippet_cnt,"ax",%progbits
  19              		.align	1
  20              		.syntax unified
  21              		.thumb
  22              		.thumb_func
  24              	lv_get_snippet_cnt:
  25              	.LFB208:
  26              		.file 1 "Middlewares/lvgl/src/extra/widgets/span/lv_span.c"
   1:Middlewares/lvgl/src/extra/widgets/span/lv_span.c **** /**
   2:Middlewares/lvgl/src/extra/widgets/span/lv_span.c ****  * @file lv_span.c
   3:Middlewares/lvgl/src/extra/widgets/span/lv_span.c ****  *
   4:Middlewares/lvgl/src/extra/widgets/span/lv_span.c ****  */
   5:Middlewares/lvgl/src/extra/widgets/span/lv_span.c **** 
   6:Middlewares/lvgl/src/extra/widgets/span/lv_span.c **** /*********************
   7:Middlewares/lvgl/src/extra/widgets/span/lv_span.c ****  *      INCLUDES
   8:Middlewares/lvgl/src/extra/widgets/span/lv_span.c ****  *********************/
   9:Middlewares/lvgl/src/extra/widgets/span/lv_span.c **** #include "lv_span.h"
  10:Middlewares/lvgl/src/extra/widgets/span/lv_span.c **** 
  11:Middlewares/lvgl/src/extra/widgets/span/lv_span.c **** #if LV_USE_SPAN != 0
  12:Middlewares/lvgl/src/extra/widgets/span/lv_span.c **** 
  13:Middlewares/lvgl/src/extra/widgets/span/lv_span.c **** /*********************
  14:Middlewares/lvgl/src/extra/widgets/span/lv_span.c ****  *      DEFINES
  15:Middlewares/lvgl/src/extra/widgets/span/lv_span.c ****  *********************/
  16:Middlewares/lvgl/src/extra/widgets/span/lv_span.c **** #define MY_CLASS &lv_spangroup_class
  17:Middlewares/lvgl/src/extra/widgets/span/lv_span.c **** 
  18:Middlewares/lvgl/src/extra/widgets/span/lv_span.c **** /**********************
  19:Middlewares/lvgl/src/extra/widgets/span/lv_span.c ****  *      TYPEDEFS
  20:Middlewares/lvgl/src/extra/widgets/span/lv_span.c ****  **********************/
  21:Middlewares/lvgl/src/extra/widgets/span/lv_span.c **** typedef struct {
  22:Middlewares/lvgl/src/extra/widgets/span/lv_span.c ****     lv_span_t * span;
  23:Middlewares/lvgl/src/extra/widgets/span/lv_span.c ****     const char * txt;
  24:Middlewares/lvgl/src/extra/widgets/span/lv_span.c ****     const lv_font_t * font;
  25:Middlewares/lvgl/src/extra/widgets/span/lv_span.c ****     uint16_t   bytes;
  26:Middlewares/lvgl/src/extra/widgets/span/lv_span.c ****     lv_coord_t txt_w;
  27:Middlewares/lvgl/src/extra/widgets/span/lv_span.c ****     lv_coord_t line_h;
  28:Middlewares/lvgl/src/extra/widgets/span/lv_span.c ****     lv_coord_t letter_space;
  29:Middlewares/lvgl/src/extra/widgets/span/lv_span.c **** } lv_snippet_t;
  30:Middlewares/lvgl/src/extra/widgets/span/lv_span.c **** 
  31:Middlewares/lvgl/src/extra/widgets/span/lv_span.c **** struct _snippet_stack {
  32:Middlewares/lvgl/src/extra/widgets/span/lv_span.c ****     lv_snippet_t    stack[LV_SPAN_SNIPPET_STACK_SIZE];
ARM GAS  /tmp/cc1iaYtN.s 			page 2


  33:Middlewares/lvgl/src/extra/widgets/span/lv_span.c ****     uint16_t        index;
  34:Middlewares/lvgl/src/extra/widgets/span/lv_span.c **** };
  35:Middlewares/lvgl/src/extra/widgets/span/lv_span.c **** 
  36:Middlewares/lvgl/src/extra/widgets/span/lv_span.c **** /**********************
  37:Middlewares/lvgl/src/extra/widgets/span/lv_span.c ****  *  STATIC PROTOTYPES
  38:Middlewares/lvgl/src/extra/widgets/span/lv_span.c ****  **********************/
  39:Middlewares/lvgl/src/extra/widgets/span/lv_span.c **** static void lv_spangroup_destructor(const lv_obj_class_t * class_p, lv_obj_t * obj);
  40:Middlewares/lvgl/src/extra/widgets/span/lv_span.c **** static void lv_spangroup_constructor(const lv_obj_class_t * class_p, lv_obj_t * obj);
  41:Middlewares/lvgl/src/extra/widgets/span/lv_span.c **** static void lv_spangroup_event(const lv_obj_class_t * class_p, lv_event_t * e);
  42:Middlewares/lvgl/src/extra/widgets/span/lv_span.c **** static void draw_main(lv_event_t * e);
  43:Middlewares/lvgl/src/extra/widgets/span/lv_span.c **** 
  44:Middlewares/lvgl/src/extra/widgets/span/lv_span.c **** static const lv_font_t * lv_span_get_style_text_font(lv_obj_t * par, lv_span_t * span);
  45:Middlewares/lvgl/src/extra/widgets/span/lv_span.c **** static lv_coord_t lv_span_get_style_text_letter_space(lv_obj_t * par, lv_span_t * span);
  46:Middlewares/lvgl/src/extra/widgets/span/lv_span.c **** static lv_color_t lv_span_get_style_text_color(lv_obj_t * par, lv_span_t * span);
  47:Middlewares/lvgl/src/extra/widgets/span/lv_span.c **** static lv_color_t lv_span_get_style_text_color(lv_obj_t * par, lv_span_t * span);
  48:Middlewares/lvgl/src/extra/widgets/span/lv_span.c **** static lv_opa_t lv_span_get_style_text_opa(lv_obj_t * par, lv_span_t * span);
  49:Middlewares/lvgl/src/extra/widgets/span/lv_span.c **** static lv_opa_t lv_span_get_style_text_blend_mode(lv_obj_t * par, lv_span_t * span);
  50:Middlewares/lvgl/src/extra/widgets/span/lv_span.c **** static int32_t lv_span_get_style_text_decor(lv_obj_t * par, lv_span_t * span);
  51:Middlewares/lvgl/src/extra/widgets/span/lv_span.c **** 
  52:Middlewares/lvgl/src/extra/widgets/span/lv_span.c **** static inline void span_text_check(const char ** text);
  53:Middlewares/lvgl/src/extra/widgets/span/lv_span.c **** static void get_txt_coords(const lv_obj_t * span, lv_area_t * area);
  54:Middlewares/lvgl/src/extra/widgets/span/lv_span.c **** static void lv_draw_span(lv_obj_t * spans, const lv_area_t * coords, const lv_area_t * mask);
  55:Middlewares/lvgl/src/extra/widgets/span/lv_span.c **** static bool lv_txt_get_snippet(const char * txt, const lv_font_t * font, lv_coord_t letter_space,
  56:Middlewares/lvgl/src/extra/widgets/span/lv_span.c ****                                lv_coord_t max_width, lv_text_flag_t flag, lv_coord_t * use_width,
  57:Middlewares/lvgl/src/extra/widgets/span/lv_span.c ****                                uint32_t * end_ofs);
  58:Middlewares/lvgl/src/extra/widgets/span/lv_span.c **** 
  59:Middlewares/lvgl/src/extra/widgets/span/lv_span.c **** static void lv_snippet_clear(void);
  60:Middlewares/lvgl/src/extra/widgets/span/lv_span.c **** static uint16_t lv_get_snippet_cnt();
  61:Middlewares/lvgl/src/extra/widgets/span/lv_span.c **** static void lv_snippet_push(lv_snippet_t * item);
  62:Middlewares/lvgl/src/extra/widgets/span/lv_span.c **** static lv_snippet_t * lv_get_snippet(uint16_t index);
  63:Middlewares/lvgl/src/extra/widgets/span/lv_span.c **** 
  64:Middlewares/lvgl/src/extra/widgets/span/lv_span.c **** /**********************
  65:Middlewares/lvgl/src/extra/widgets/span/lv_span.c ****  *  STATIC VARIABLES
  66:Middlewares/lvgl/src/extra/widgets/span/lv_span.c ****  **********************/
  67:Middlewares/lvgl/src/extra/widgets/span/lv_span.c **** static struct _snippet_stack snippet_stack;
  68:Middlewares/lvgl/src/extra/widgets/span/lv_span.c **** 
  69:Middlewares/lvgl/src/extra/widgets/span/lv_span.c **** const lv_obj_class_t lv_spangroup_class  = {
  70:Middlewares/lvgl/src/extra/widgets/span/lv_span.c ****     .base_class = &lv_obj_class,
  71:Middlewares/lvgl/src/extra/widgets/span/lv_span.c ****     .constructor_cb = lv_spangroup_constructor,
  72:Middlewares/lvgl/src/extra/widgets/span/lv_span.c ****     .destructor_cb = lv_spangroup_destructor,
  73:Middlewares/lvgl/src/extra/widgets/span/lv_span.c ****     .event_cb = lv_spangroup_event,
  74:Middlewares/lvgl/src/extra/widgets/span/lv_span.c ****     .instance_size = sizeof(lv_spangroup_t),
  75:Middlewares/lvgl/src/extra/widgets/span/lv_span.c **** };
  76:Middlewares/lvgl/src/extra/widgets/span/lv_span.c **** 
  77:Middlewares/lvgl/src/extra/widgets/span/lv_span.c **** /**********************
  78:Middlewares/lvgl/src/extra/widgets/span/lv_span.c ****  *      MACROS
  79:Middlewares/lvgl/src/extra/widgets/span/lv_span.c ****  **********************/
  80:Middlewares/lvgl/src/extra/widgets/span/lv_span.c **** 
  81:Middlewares/lvgl/src/extra/widgets/span/lv_span.c **** /**********************
  82:Middlewares/lvgl/src/extra/widgets/span/lv_span.c ****  *   GLOBAL FUNCTIONS
  83:Middlewares/lvgl/src/extra/widgets/span/lv_span.c ****  **********************/
  84:Middlewares/lvgl/src/extra/widgets/span/lv_span.c **** 
  85:Middlewares/lvgl/src/extra/widgets/span/lv_span.c **** /**
  86:Middlewares/lvgl/src/extra/widgets/span/lv_span.c ****  * Create a spangroup objects
  87:Middlewares/lvgl/src/extra/widgets/span/lv_span.c ****  * @param par pointer to an object, it will be the parent of the new spangroup
  88:Middlewares/lvgl/src/extra/widgets/span/lv_span.c ****  * @return pointer to the created spangroup
  89:Middlewares/lvgl/src/extra/widgets/span/lv_span.c ****  */
ARM GAS  /tmp/cc1iaYtN.s 			page 3


  90:Middlewares/lvgl/src/extra/widgets/span/lv_span.c **** lv_obj_t * lv_spangroup_create(lv_obj_t * par)
  91:Middlewares/lvgl/src/extra/widgets/span/lv_span.c **** {
  92:Middlewares/lvgl/src/extra/widgets/span/lv_span.c ****     lv_obj_t * obj = lv_obj_class_create_obj(&lv_spangroup_class, par);
  93:Middlewares/lvgl/src/extra/widgets/span/lv_span.c ****     lv_obj_class_init_obj(obj);
  94:Middlewares/lvgl/src/extra/widgets/span/lv_span.c ****     return obj;
  95:Middlewares/lvgl/src/extra/widgets/span/lv_span.c **** }
  96:Middlewares/lvgl/src/extra/widgets/span/lv_span.c **** 
  97:Middlewares/lvgl/src/extra/widgets/span/lv_span.c **** /**
  98:Middlewares/lvgl/src/extra/widgets/span/lv_span.c ****  * Create a span string descriptor and add to spangroup.
  99:Middlewares/lvgl/src/extra/widgets/span/lv_span.c ****  * @param obj pointer to a spangroup object.
 100:Middlewares/lvgl/src/extra/widgets/span/lv_span.c ****  * @return pointer to the created span.
 101:Middlewares/lvgl/src/extra/widgets/span/lv_span.c ****  */
 102:Middlewares/lvgl/src/extra/widgets/span/lv_span.c **** lv_span_t * lv_spangroup_new_span(lv_obj_t * obj)
 103:Middlewares/lvgl/src/extra/widgets/span/lv_span.c **** {
 104:Middlewares/lvgl/src/extra/widgets/span/lv_span.c ****     if(obj == NULL) {
 105:Middlewares/lvgl/src/extra/widgets/span/lv_span.c ****         return NULL;
 106:Middlewares/lvgl/src/extra/widgets/span/lv_span.c ****     }
 107:Middlewares/lvgl/src/extra/widgets/span/lv_span.c **** 
 108:Middlewares/lvgl/src/extra/widgets/span/lv_span.c ****     lv_spangroup_t * spans = (lv_spangroup_t *)obj;
 109:Middlewares/lvgl/src/extra/widgets/span/lv_span.c ****     lv_span_t * span = _lv_ll_ins_tail(&spans->child_ll);
 110:Middlewares/lvgl/src/extra/widgets/span/lv_span.c ****     LV_ASSERT_MALLOC(span);
 111:Middlewares/lvgl/src/extra/widgets/span/lv_span.c **** 
 112:Middlewares/lvgl/src/extra/widgets/span/lv_span.c ****     lv_style_init(&span->style);
 113:Middlewares/lvgl/src/extra/widgets/span/lv_span.c ****     span->txt = (char *)"";
 114:Middlewares/lvgl/src/extra/widgets/span/lv_span.c ****     span->static_flag = 1;
 115:Middlewares/lvgl/src/extra/widgets/span/lv_span.c **** 
 116:Middlewares/lvgl/src/extra/widgets/span/lv_span.c ****     lv_obj_invalidate(obj);
 117:Middlewares/lvgl/src/extra/widgets/span/lv_span.c ****     return span;
 118:Middlewares/lvgl/src/extra/widgets/span/lv_span.c **** }
 119:Middlewares/lvgl/src/extra/widgets/span/lv_span.c **** 
 120:Middlewares/lvgl/src/extra/widgets/span/lv_span.c **** /**
 121:Middlewares/lvgl/src/extra/widgets/span/lv_span.c ****  * Remove the span from the spangroup and free memory.
 122:Middlewares/lvgl/src/extra/widgets/span/lv_span.c ****  * @param obj pointer to a spangroup object.
 123:Middlewares/lvgl/src/extra/widgets/span/lv_span.c ****  * @param span pointer to a span.
 124:Middlewares/lvgl/src/extra/widgets/span/lv_span.c ****  */
 125:Middlewares/lvgl/src/extra/widgets/span/lv_span.c **** void lv_spangroup_del_span(lv_obj_t * obj, lv_span_t * span)
 126:Middlewares/lvgl/src/extra/widgets/span/lv_span.c **** {
 127:Middlewares/lvgl/src/extra/widgets/span/lv_span.c ****     if(obj == NULL) {
 128:Middlewares/lvgl/src/extra/widgets/span/lv_span.c ****         return;
 129:Middlewares/lvgl/src/extra/widgets/span/lv_span.c ****     }
 130:Middlewares/lvgl/src/extra/widgets/span/lv_span.c **** 
 131:Middlewares/lvgl/src/extra/widgets/span/lv_span.c ****     lv_spangroup_t * spans = (lv_spangroup_t *)obj;
 132:Middlewares/lvgl/src/extra/widgets/span/lv_span.c ****     lv_span_t * cur_span;
 133:Middlewares/lvgl/src/extra/widgets/span/lv_span.c ****     _LV_LL_READ(&spans->child_ll, cur_span) {
 134:Middlewares/lvgl/src/extra/widgets/span/lv_span.c ****         if(cur_span == span) {
 135:Middlewares/lvgl/src/extra/widgets/span/lv_span.c ****             _lv_ll_remove(&spans->child_ll, cur_span);
 136:Middlewares/lvgl/src/extra/widgets/span/lv_span.c ****             if(cur_span->txt && cur_span->static_flag == 0) {
 137:Middlewares/lvgl/src/extra/widgets/span/lv_span.c ****                 lv_mem_free(cur_span->txt);
 138:Middlewares/lvgl/src/extra/widgets/span/lv_span.c ****             }
 139:Middlewares/lvgl/src/extra/widgets/span/lv_span.c ****             lv_style_reset(&cur_span->style);
 140:Middlewares/lvgl/src/extra/widgets/span/lv_span.c ****             lv_mem_free(cur_span);
 141:Middlewares/lvgl/src/extra/widgets/span/lv_span.c ****             break;
 142:Middlewares/lvgl/src/extra/widgets/span/lv_span.c ****         }
 143:Middlewares/lvgl/src/extra/widgets/span/lv_span.c ****     }
 144:Middlewares/lvgl/src/extra/widgets/span/lv_span.c **** 
 145:Middlewares/lvgl/src/extra/widgets/span/lv_span.c ****     lv_spangroup_refr_mode(obj);
 146:Middlewares/lvgl/src/extra/widgets/span/lv_span.c **** }
ARM GAS  /tmp/cc1iaYtN.s 			page 4


 147:Middlewares/lvgl/src/extra/widgets/span/lv_span.c **** 
 148:Middlewares/lvgl/src/extra/widgets/span/lv_span.c **** /*=====================
 149:Middlewares/lvgl/src/extra/widgets/span/lv_span.c ****  * Setter functions
 150:Middlewares/lvgl/src/extra/widgets/span/lv_span.c ****  *====================*/
 151:Middlewares/lvgl/src/extra/widgets/span/lv_span.c **** 
 152:Middlewares/lvgl/src/extra/widgets/span/lv_span.c **** /**
 153:Middlewares/lvgl/src/extra/widgets/span/lv_span.c ****  * Set a new text for a span. Memory will be allocated to store the text by the span.
 154:Middlewares/lvgl/src/extra/widgets/span/lv_span.c ****  * @param span pointer to a span.
 155:Middlewares/lvgl/src/extra/widgets/span/lv_span.c ****  * @param text pointer to a text.
 156:Middlewares/lvgl/src/extra/widgets/span/lv_span.c ****  */
 157:Middlewares/lvgl/src/extra/widgets/span/lv_span.c **** void lv_span_set_text(lv_span_t * span, const char * text)
 158:Middlewares/lvgl/src/extra/widgets/span/lv_span.c **** {
 159:Middlewares/lvgl/src/extra/widgets/span/lv_span.c ****     if(span == NULL || text == NULL) {
 160:Middlewares/lvgl/src/extra/widgets/span/lv_span.c ****         return;
 161:Middlewares/lvgl/src/extra/widgets/span/lv_span.c ****     }
 162:Middlewares/lvgl/src/extra/widgets/span/lv_span.c **** 
 163:Middlewares/lvgl/src/extra/widgets/span/lv_span.c ****     if(span->txt == NULL || span->static_flag == 1) {
 164:Middlewares/lvgl/src/extra/widgets/span/lv_span.c ****         span->txt = lv_mem_alloc(strlen(text) + 1);
 165:Middlewares/lvgl/src/extra/widgets/span/lv_span.c ****     }
 166:Middlewares/lvgl/src/extra/widgets/span/lv_span.c ****     else {
 167:Middlewares/lvgl/src/extra/widgets/span/lv_span.c ****         lv_mem_realloc(span->txt, strlen(text) + 1);
 168:Middlewares/lvgl/src/extra/widgets/span/lv_span.c ****     }
 169:Middlewares/lvgl/src/extra/widgets/span/lv_span.c ****     span->static_flag = 0;
 170:Middlewares/lvgl/src/extra/widgets/span/lv_span.c ****     strcpy(span->txt, text);
 171:Middlewares/lvgl/src/extra/widgets/span/lv_span.c **** }
 172:Middlewares/lvgl/src/extra/widgets/span/lv_span.c **** 
 173:Middlewares/lvgl/src/extra/widgets/span/lv_span.c **** /**
 174:Middlewares/lvgl/src/extra/widgets/span/lv_span.c ****  * Set a static text. It will not be saved by the span so the 'text' variable
 175:Middlewares/lvgl/src/extra/widgets/span/lv_span.c ****  * has to be 'alive' while the span exist.
 176:Middlewares/lvgl/src/extra/widgets/span/lv_span.c ****  * @param span pointer to a span.
 177:Middlewares/lvgl/src/extra/widgets/span/lv_span.c ****  * @param text pointer to a text.
 178:Middlewares/lvgl/src/extra/widgets/span/lv_span.c ****  */
 179:Middlewares/lvgl/src/extra/widgets/span/lv_span.c **** void lv_span_set_text_static(lv_span_t * span, const char * text)
 180:Middlewares/lvgl/src/extra/widgets/span/lv_span.c **** {
 181:Middlewares/lvgl/src/extra/widgets/span/lv_span.c ****     if(span == NULL || text == NULL) {
 182:Middlewares/lvgl/src/extra/widgets/span/lv_span.c ****         return;
 183:Middlewares/lvgl/src/extra/widgets/span/lv_span.c ****     }
 184:Middlewares/lvgl/src/extra/widgets/span/lv_span.c **** 
 185:Middlewares/lvgl/src/extra/widgets/span/lv_span.c ****     if(span->txt && span->static_flag == 0) {
 186:Middlewares/lvgl/src/extra/widgets/span/lv_span.c ****         lv_mem_free(span->txt);
 187:Middlewares/lvgl/src/extra/widgets/span/lv_span.c ****     }
 188:Middlewares/lvgl/src/extra/widgets/span/lv_span.c ****     span->static_flag = 1;
 189:Middlewares/lvgl/src/extra/widgets/span/lv_span.c ****     span->txt = (char *)text;
 190:Middlewares/lvgl/src/extra/widgets/span/lv_span.c **** }
 191:Middlewares/lvgl/src/extra/widgets/span/lv_span.c **** 
 192:Middlewares/lvgl/src/extra/widgets/span/lv_span.c **** /**
 193:Middlewares/lvgl/src/extra/widgets/span/lv_span.c ****  * Set the align of the spangroup.
 194:Middlewares/lvgl/src/extra/widgets/span/lv_span.c ****  * @param obj pointer to a spangroup object.
 195:Middlewares/lvgl/src/extra/widgets/span/lv_span.c ****  * @param align see lv_text_align_t for details.
 196:Middlewares/lvgl/src/extra/widgets/span/lv_span.c ****  */
 197:Middlewares/lvgl/src/extra/widgets/span/lv_span.c **** void lv_spangroup_set_align(lv_obj_t * obj, lv_text_align_t align)
 198:Middlewares/lvgl/src/extra/widgets/span/lv_span.c **** {
 199:Middlewares/lvgl/src/extra/widgets/span/lv_span.c ****     lv_spangroup_t * spans = (lv_spangroup_t *)obj;
 200:Middlewares/lvgl/src/extra/widgets/span/lv_span.c ****     if(spans->align == align) return;
 201:Middlewares/lvgl/src/extra/widgets/span/lv_span.c **** 
 202:Middlewares/lvgl/src/extra/widgets/span/lv_span.c ****     spans->align = align;
 203:Middlewares/lvgl/src/extra/widgets/span/lv_span.c ****     lv_obj_invalidate(obj);
ARM GAS  /tmp/cc1iaYtN.s 			page 5


 204:Middlewares/lvgl/src/extra/widgets/span/lv_span.c **** }
 205:Middlewares/lvgl/src/extra/widgets/span/lv_span.c **** 
 206:Middlewares/lvgl/src/extra/widgets/span/lv_span.c **** /**
 207:Middlewares/lvgl/src/extra/widgets/span/lv_span.c ****  * Set the overflow of the spangroup.
 208:Middlewares/lvgl/src/extra/widgets/span/lv_span.c ****  * @param obj pointer to a spangroup object.
 209:Middlewares/lvgl/src/extra/widgets/span/lv_span.c ****  * @param overflow see lv_span_overflow_t for details.
 210:Middlewares/lvgl/src/extra/widgets/span/lv_span.c ****  */
 211:Middlewares/lvgl/src/extra/widgets/span/lv_span.c **** void lv_spangroup_set_overflow(lv_obj_t * obj, lv_span_overflow_t overflow)
 212:Middlewares/lvgl/src/extra/widgets/span/lv_span.c **** {
 213:Middlewares/lvgl/src/extra/widgets/span/lv_span.c ****     lv_spangroup_t * spans = (lv_spangroup_t *)obj;
 214:Middlewares/lvgl/src/extra/widgets/span/lv_span.c ****     if(spans->overflow == overflow) return;
 215:Middlewares/lvgl/src/extra/widgets/span/lv_span.c **** 
 216:Middlewares/lvgl/src/extra/widgets/span/lv_span.c ****     spans->overflow = overflow;
 217:Middlewares/lvgl/src/extra/widgets/span/lv_span.c ****     lv_obj_invalidate(obj);
 218:Middlewares/lvgl/src/extra/widgets/span/lv_span.c **** }
 219:Middlewares/lvgl/src/extra/widgets/span/lv_span.c **** 
 220:Middlewares/lvgl/src/extra/widgets/span/lv_span.c **** /**
 221:Middlewares/lvgl/src/extra/widgets/span/lv_span.c ****  * Set the indent of the spangroup.
 222:Middlewares/lvgl/src/extra/widgets/span/lv_span.c ****  * @param obj pointer to a spangroup object.
 223:Middlewares/lvgl/src/extra/widgets/span/lv_span.c ****  * @param indent The first line indentation
 224:Middlewares/lvgl/src/extra/widgets/span/lv_span.c ****  */
 225:Middlewares/lvgl/src/extra/widgets/span/lv_span.c **** void lv_spangroup_set_indent(lv_obj_t * obj, lv_coord_t indent)
 226:Middlewares/lvgl/src/extra/widgets/span/lv_span.c **** {
 227:Middlewares/lvgl/src/extra/widgets/span/lv_span.c ****     lv_spangroup_t * spans = (lv_spangroup_t *)obj;
 228:Middlewares/lvgl/src/extra/widgets/span/lv_span.c ****     if(spans->indent == indent) return;
 229:Middlewares/lvgl/src/extra/widgets/span/lv_span.c **** 
 230:Middlewares/lvgl/src/extra/widgets/span/lv_span.c ****     spans->indent = indent;
 231:Middlewares/lvgl/src/extra/widgets/span/lv_span.c ****     lv_obj_invalidate(obj);
 232:Middlewares/lvgl/src/extra/widgets/span/lv_span.c **** }
 233:Middlewares/lvgl/src/extra/widgets/span/lv_span.c **** 
 234:Middlewares/lvgl/src/extra/widgets/span/lv_span.c **** /**
 235:Middlewares/lvgl/src/extra/widgets/span/lv_span.c ****  * Set the mode of the spangroup.
 236:Middlewares/lvgl/src/extra/widgets/span/lv_span.c ****  * @param obj pointer to a spangroup object.
 237:Middlewares/lvgl/src/extra/widgets/span/lv_span.c ****  * @param mode see lv_span_mode_t for details.
 238:Middlewares/lvgl/src/extra/widgets/span/lv_span.c ****  */
 239:Middlewares/lvgl/src/extra/widgets/span/lv_span.c **** void lv_spangroup_set_mode(lv_obj_t * obj, lv_span_mode_t mode)
 240:Middlewares/lvgl/src/extra/widgets/span/lv_span.c **** {
 241:Middlewares/lvgl/src/extra/widgets/span/lv_span.c ****     lv_spangroup_t * spans = (lv_spangroup_t *)obj;
 242:Middlewares/lvgl/src/extra/widgets/span/lv_span.c ****     if(spans->mode == mode) return;
 243:Middlewares/lvgl/src/extra/widgets/span/lv_span.c **** 
 244:Middlewares/lvgl/src/extra/widgets/span/lv_span.c ****     spans->mode = mode;
 245:Middlewares/lvgl/src/extra/widgets/span/lv_span.c ****     lv_spangroup_refr_mode(obj);
 246:Middlewares/lvgl/src/extra/widgets/span/lv_span.c **** }
 247:Middlewares/lvgl/src/extra/widgets/span/lv_span.c **** 
 248:Middlewares/lvgl/src/extra/widgets/span/lv_span.c **** /*=====================
 249:Middlewares/lvgl/src/extra/widgets/span/lv_span.c ****  * Getter functions
 250:Middlewares/lvgl/src/extra/widgets/span/lv_span.c ****  *====================*/
 251:Middlewares/lvgl/src/extra/widgets/span/lv_span.c **** 
 252:Middlewares/lvgl/src/extra/widgets/span/lv_span.c **** /**
 253:Middlewares/lvgl/src/extra/widgets/span/lv_span.c ****  * get the align of the spangroup.
 254:Middlewares/lvgl/src/extra/widgets/span/lv_span.c ****  * @param obj pointer to a spangroup object.
 255:Middlewares/lvgl/src/extra/widgets/span/lv_span.c ****  * @return the align value.
 256:Middlewares/lvgl/src/extra/widgets/span/lv_span.c ****  */
 257:Middlewares/lvgl/src/extra/widgets/span/lv_span.c **** lv_text_align_t lv_spangroup_get_align(lv_obj_t * obj)
 258:Middlewares/lvgl/src/extra/widgets/span/lv_span.c **** {
 259:Middlewares/lvgl/src/extra/widgets/span/lv_span.c ****     lv_spangroup_t * spans = (lv_spangroup_t *)obj;
 260:Middlewares/lvgl/src/extra/widgets/span/lv_span.c ****     return spans->align;
ARM GAS  /tmp/cc1iaYtN.s 			page 6


 261:Middlewares/lvgl/src/extra/widgets/span/lv_span.c **** }
 262:Middlewares/lvgl/src/extra/widgets/span/lv_span.c **** 
 263:Middlewares/lvgl/src/extra/widgets/span/lv_span.c **** /**
 264:Middlewares/lvgl/src/extra/widgets/span/lv_span.c ****  * get the overflow of the spangroup.
 265:Middlewares/lvgl/src/extra/widgets/span/lv_span.c ****  * @param obj pointer to a spangroup object.
 266:Middlewares/lvgl/src/extra/widgets/span/lv_span.c ****  * @return the overflow value.
 267:Middlewares/lvgl/src/extra/widgets/span/lv_span.c ****  */
 268:Middlewares/lvgl/src/extra/widgets/span/lv_span.c **** lv_span_overflow_t lv_spangroup_get_overflow(lv_obj_t * obj)
 269:Middlewares/lvgl/src/extra/widgets/span/lv_span.c **** {
 270:Middlewares/lvgl/src/extra/widgets/span/lv_span.c ****     lv_spangroup_t * spans = (lv_spangroup_t *)obj;
 271:Middlewares/lvgl/src/extra/widgets/span/lv_span.c ****     return spans->overflow;
 272:Middlewares/lvgl/src/extra/widgets/span/lv_span.c **** }
 273:Middlewares/lvgl/src/extra/widgets/span/lv_span.c **** 
 274:Middlewares/lvgl/src/extra/widgets/span/lv_span.c **** /**
 275:Middlewares/lvgl/src/extra/widgets/span/lv_span.c ****  * get the indent of the spangroup.
 276:Middlewares/lvgl/src/extra/widgets/span/lv_span.c ****  * @param obj pointer to a spangroup object.
 277:Middlewares/lvgl/src/extra/widgets/span/lv_span.c ****  * @return the indent value.
 278:Middlewares/lvgl/src/extra/widgets/span/lv_span.c ****  */
 279:Middlewares/lvgl/src/extra/widgets/span/lv_span.c **** lv_coord_t lv_spangroup_get_indent(lv_obj_t * obj)
 280:Middlewares/lvgl/src/extra/widgets/span/lv_span.c **** {
 281:Middlewares/lvgl/src/extra/widgets/span/lv_span.c ****     lv_spangroup_t * spans = (lv_spangroup_t *)obj;
 282:Middlewares/lvgl/src/extra/widgets/span/lv_span.c ****     return spans->indent;
 283:Middlewares/lvgl/src/extra/widgets/span/lv_span.c **** }
 284:Middlewares/lvgl/src/extra/widgets/span/lv_span.c **** 
 285:Middlewares/lvgl/src/extra/widgets/span/lv_span.c **** /**
 286:Middlewares/lvgl/src/extra/widgets/span/lv_span.c ****  * Set the mode of the spangroup.
 287:Middlewares/lvgl/src/extra/widgets/span/lv_span.c ****  * @param obj pointer to a spangroup object.
 288:Middlewares/lvgl/src/extra/widgets/span/lv_span.c ****  * @return the mode value.
 289:Middlewares/lvgl/src/extra/widgets/span/lv_span.c ****  */
 290:Middlewares/lvgl/src/extra/widgets/span/lv_span.c **** lv_span_mode_t lv_spangroup_get_mode(lv_obj_t * obj)
 291:Middlewares/lvgl/src/extra/widgets/span/lv_span.c **** {
 292:Middlewares/lvgl/src/extra/widgets/span/lv_span.c ****     lv_spangroup_t * spans = (lv_spangroup_t *)obj;
 293:Middlewares/lvgl/src/extra/widgets/span/lv_span.c ****     return spans->mode;
 294:Middlewares/lvgl/src/extra/widgets/span/lv_span.c **** }
 295:Middlewares/lvgl/src/extra/widgets/span/lv_span.c **** 
 296:Middlewares/lvgl/src/extra/widgets/span/lv_span.c **** /**
 297:Middlewares/lvgl/src/extra/widgets/span/lv_span.c ****  * update the mode of the spangroup.
 298:Middlewares/lvgl/src/extra/widgets/span/lv_span.c ****  * @param obj pointer to a spangroup object.
 299:Middlewares/lvgl/src/extra/widgets/span/lv_span.c ****  */
 300:Middlewares/lvgl/src/extra/widgets/span/lv_span.c **** void lv_spangroup_refr_mode(lv_obj_t * obj)
 301:Middlewares/lvgl/src/extra/widgets/span/lv_span.c **** {
 302:Middlewares/lvgl/src/extra/widgets/span/lv_span.c ****     lv_spangroup_t * spans = (lv_spangroup_t *)obj;
 303:Middlewares/lvgl/src/extra/widgets/span/lv_span.c **** 
 304:Middlewares/lvgl/src/extra/widgets/span/lv_span.c ****     if(_lv_ll_get_head(&spans->child_ll) == NULL) {
 305:Middlewares/lvgl/src/extra/widgets/span/lv_span.c ****         return;
 306:Middlewares/lvgl/src/extra/widgets/span/lv_span.c ****     }
 307:Middlewares/lvgl/src/extra/widgets/span/lv_span.c **** 
 308:Middlewares/lvgl/src/extra/widgets/span/lv_span.c ****     if(spans->mode == LV_SPAN_MODE_EXPAND) {
 309:Middlewares/lvgl/src/extra/widgets/span/lv_span.c ****         lv_coord_t width = lv_spangroup_get_expand_width(obj);
 310:Middlewares/lvgl/src/extra/widgets/span/lv_span.c ****         lv_coord_t height = lv_spangroup_get_max_line_h(obj);
 311:Middlewares/lvgl/src/extra/widgets/span/lv_span.c ****         lv_coord_t top_pad = lv_obj_get_style_pad_top(obj, LV_PART_MAIN);
 312:Middlewares/lvgl/src/extra/widgets/span/lv_span.c ****         lv_coord_t bottom_pad = lv_obj_get_style_pad_bottom(obj, LV_PART_MAIN);
 313:Middlewares/lvgl/src/extra/widgets/span/lv_span.c ****         lv_obj_set_width(obj, width + spans->indent);
 314:Middlewares/lvgl/src/extra/widgets/span/lv_span.c ****         lv_obj_set_height(obj, height + top_pad + bottom_pad);
 315:Middlewares/lvgl/src/extra/widgets/span/lv_span.c ****     }
 316:Middlewares/lvgl/src/extra/widgets/span/lv_span.c ****     else if(spans->mode == LV_SPAN_MODE_BREAK) {
 317:Middlewares/lvgl/src/extra/widgets/span/lv_span.c ****         lv_coord_t height = lv_spangroup_get_expand_height(obj, lv_obj_get_width(obj));
ARM GAS  /tmp/cc1iaYtN.s 			page 7


 318:Middlewares/lvgl/src/extra/widgets/span/lv_span.c ****         lv_obj_set_height(obj, height);
 319:Middlewares/lvgl/src/extra/widgets/span/lv_span.c ****     }
 320:Middlewares/lvgl/src/extra/widgets/span/lv_span.c **** 
 321:Middlewares/lvgl/src/extra/widgets/span/lv_span.c ****     lv_obj_invalidate(obj);
 322:Middlewares/lvgl/src/extra/widgets/span/lv_span.c **** }
 323:Middlewares/lvgl/src/extra/widgets/span/lv_span.c **** 
 324:Middlewares/lvgl/src/extra/widgets/span/lv_span.c **** /**
 325:Middlewares/lvgl/src/extra/widgets/span/lv_span.c ****  * get max line height of all span in the spangroup.
 326:Middlewares/lvgl/src/extra/widgets/span/lv_span.c ****  * @param obj pointer to a spangroup object.
 327:Middlewares/lvgl/src/extra/widgets/span/lv_span.c ****  */
 328:Middlewares/lvgl/src/extra/widgets/span/lv_span.c **** lv_coord_t lv_spangroup_get_max_line_h(lv_obj_t * obj)
 329:Middlewares/lvgl/src/extra/widgets/span/lv_span.c **** {
 330:Middlewares/lvgl/src/extra/widgets/span/lv_span.c ****     lv_spangroup_t * spans = (lv_spangroup_t *)obj;
 331:Middlewares/lvgl/src/extra/widgets/span/lv_span.c **** 
 332:Middlewares/lvgl/src/extra/widgets/span/lv_span.c ****     lv_coord_t max_line_h = 0;
 333:Middlewares/lvgl/src/extra/widgets/span/lv_span.c ****     lv_span_t * cur_span;
 334:Middlewares/lvgl/src/extra/widgets/span/lv_span.c ****     _LV_LL_READ(&spans->child_ll, cur_span) {
 335:Middlewares/lvgl/src/extra/widgets/span/lv_span.c ****         const lv_font_t * font = lv_span_get_style_text_font(obj, cur_span);
 336:Middlewares/lvgl/src/extra/widgets/span/lv_span.c ****         lv_coord_t line_h = lv_font_get_line_height(font);
 337:Middlewares/lvgl/src/extra/widgets/span/lv_span.c ****         if(line_h > max_line_h) {
 338:Middlewares/lvgl/src/extra/widgets/span/lv_span.c ****             max_line_h = line_h;
 339:Middlewares/lvgl/src/extra/widgets/span/lv_span.c ****         }
 340:Middlewares/lvgl/src/extra/widgets/span/lv_span.c ****     }
 341:Middlewares/lvgl/src/extra/widgets/span/lv_span.c **** 
 342:Middlewares/lvgl/src/extra/widgets/span/lv_span.c ****     return max_line_h;
 343:Middlewares/lvgl/src/extra/widgets/span/lv_span.c **** }
 344:Middlewares/lvgl/src/extra/widgets/span/lv_span.c **** 
 345:Middlewares/lvgl/src/extra/widgets/span/lv_span.c **** /**
 346:Middlewares/lvgl/src/extra/widgets/span/lv_span.c ****  * get the width when all span of spangroup on a line. include spangroup pad.
 347:Middlewares/lvgl/src/extra/widgets/span/lv_span.c ****  * @param obj pointer to a spangroup object.
 348:Middlewares/lvgl/src/extra/widgets/span/lv_span.c ****  */
 349:Middlewares/lvgl/src/extra/widgets/span/lv_span.c **** lv_coord_t lv_spangroup_get_expand_width(lv_obj_t * obj)
 350:Middlewares/lvgl/src/extra/widgets/span/lv_span.c **** {
 351:Middlewares/lvgl/src/extra/widgets/span/lv_span.c ****     lv_spangroup_t * spans = (lv_spangroup_t *)obj;
 352:Middlewares/lvgl/src/extra/widgets/span/lv_span.c **** 
 353:Middlewares/lvgl/src/extra/widgets/span/lv_span.c ****     if(_lv_ll_get_head(&spans->child_ll) == NULL) {
 354:Middlewares/lvgl/src/extra/widgets/span/lv_span.c ****         return 0;
 355:Middlewares/lvgl/src/extra/widgets/span/lv_span.c ****     }
 356:Middlewares/lvgl/src/extra/widgets/span/lv_span.c **** 
 357:Middlewares/lvgl/src/extra/widgets/span/lv_span.c ****     lv_coord_t width = 0;
 358:Middlewares/lvgl/src/extra/widgets/span/lv_span.c ****     lv_span_t * cur_span;
 359:Middlewares/lvgl/src/extra/widgets/span/lv_span.c ****     _LV_LL_READ(&spans->child_ll, cur_span) {
 360:Middlewares/lvgl/src/extra/widgets/span/lv_span.c ****         const lv_font_t * font = lv_span_get_style_text_font(obj, cur_span);
 361:Middlewares/lvgl/src/extra/widgets/span/lv_span.c ****         lv_coord_t letter_space = lv_span_get_style_text_letter_space(obj, cur_span);
 362:Middlewares/lvgl/src/extra/widgets/span/lv_span.c ****         uint32_t j = 0;
 363:Middlewares/lvgl/src/extra/widgets/span/lv_span.c ****         const char * cur_txt = cur_span->txt;
 364:Middlewares/lvgl/src/extra/widgets/span/lv_span.c ****         span_text_check(&cur_txt);
 365:Middlewares/lvgl/src/extra/widgets/span/lv_span.c ****         while(cur_txt[j] != 0) {
 366:Middlewares/lvgl/src/extra/widgets/span/lv_span.c ****             uint32_t letter      = _lv_txt_encoded_next(cur_txt, &j);
 367:Middlewares/lvgl/src/extra/widgets/span/lv_span.c ****             uint32_t letter_next = _lv_txt_encoded_next(&cur_txt[j], NULL);
 368:Middlewares/lvgl/src/extra/widgets/span/lv_span.c ****             int32_t letter_w = lv_font_get_glyph_width(font, letter, letter_next);
 369:Middlewares/lvgl/src/extra/widgets/span/lv_span.c ****             width = width + letter_w + letter_space;
 370:Middlewares/lvgl/src/extra/widgets/span/lv_span.c ****         }
 371:Middlewares/lvgl/src/extra/widgets/span/lv_span.c ****     }
 372:Middlewares/lvgl/src/extra/widgets/span/lv_span.c **** 
 373:Middlewares/lvgl/src/extra/widgets/span/lv_span.c ****     lv_coord_t left_pad = lv_obj_get_style_pad_left(obj, LV_PART_MAIN);
 374:Middlewares/lvgl/src/extra/widgets/span/lv_span.c ****     lv_coord_t right_pad = lv_obj_get_style_pad_right(obj, LV_PART_MAIN);
ARM GAS  /tmp/cc1iaYtN.s 			page 8


 375:Middlewares/lvgl/src/extra/widgets/span/lv_span.c ****     width = width + left_pad + right_pad;
 376:Middlewares/lvgl/src/extra/widgets/span/lv_span.c **** 
 377:Middlewares/lvgl/src/extra/widgets/span/lv_span.c ****     return width;
 378:Middlewares/lvgl/src/extra/widgets/span/lv_span.c **** }
 379:Middlewares/lvgl/src/extra/widgets/span/lv_span.c **** 
 380:Middlewares/lvgl/src/extra/widgets/span/lv_span.c **** /**
 381:Middlewares/lvgl/src/extra/widgets/span/lv_span.c ****  * get the height with width fixed. the height include spangroup pad.
 382:Middlewares/lvgl/src/extra/widgets/span/lv_span.c ****  * @param obj pointer to a spangroup object.
 383:Middlewares/lvgl/src/extra/widgets/span/lv_span.c ****  */
 384:Middlewares/lvgl/src/extra/widgets/span/lv_span.c **** lv_coord_t lv_spangroup_get_expand_height(lv_obj_t * obj, lv_coord_t width)
 385:Middlewares/lvgl/src/extra/widgets/span/lv_span.c **** {
 386:Middlewares/lvgl/src/extra/widgets/span/lv_span.c ****     lv_spangroup_t * spans = (lv_spangroup_t *)obj;
 387:Middlewares/lvgl/src/extra/widgets/span/lv_span.c ****     if(_lv_ll_get_head(&spans->child_ll) == NULL) {
 388:Middlewares/lvgl/src/extra/widgets/span/lv_span.c ****         return 0;
 389:Middlewares/lvgl/src/extra/widgets/span/lv_span.c ****     }
 390:Middlewares/lvgl/src/extra/widgets/span/lv_span.c **** 
 391:Middlewares/lvgl/src/extra/widgets/span/lv_span.c ****     /* init draw variable */
 392:Middlewares/lvgl/src/extra/widgets/span/lv_span.c ****     lv_text_flag_t txt_flag = LV_TEXT_FLAG_NONE;
 393:Middlewares/lvgl/src/extra/widgets/span/lv_span.c ****     lv_coord_t line_space = lv_obj_get_style_text_line_space(obj, LV_PART_MAIN);
 394:Middlewares/lvgl/src/extra/widgets/span/lv_span.c ****     lv_coord_t left_pad = lv_obj_get_style_pad_left(obj, LV_PART_MAIN);
 395:Middlewares/lvgl/src/extra/widgets/span/lv_span.c ****     lv_coord_t right_pad = lv_obj_get_style_pad_right(obj, LV_PART_MAIN);
 396:Middlewares/lvgl/src/extra/widgets/span/lv_span.c ****     lv_coord_t max_width = width - left_pad - right_pad;
 397:Middlewares/lvgl/src/extra/widgets/span/lv_span.c ****     lv_coord_t max_w  = max_width - spans->indent; /* first line need minus indent */
 398:Middlewares/lvgl/src/extra/widgets/span/lv_span.c **** 
 399:Middlewares/lvgl/src/extra/widgets/span/lv_span.c ****     /* coords of draw span-txt */
 400:Middlewares/lvgl/src/extra/widgets/span/lv_span.c ****     lv_point_t txt_pos;
 401:Middlewares/lvgl/src/extra/widgets/span/lv_span.c ****     txt_pos.y = 0;
 402:Middlewares/lvgl/src/extra/widgets/span/lv_span.c ****     txt_pos.x = 0 + spans->indent; /* first line need add indent */
 403:Middlewares/lvgl/src/extra/widgets/span/lv_span.c **** 
 404:Middlewares/lvgl/src/extra/widgets/span/lv_span.c ****     lv_span_t * cur_span = _lv_ll_get_head(&spans->child_ll);
 405:Middlewares/lvgl/src/extra/widgets/span/lv_span.c ****     const char * cur_txt = cur_span->txt;
 406:Middlewares/lvgl/src/extra/widgets/span/lv_span.c ****     span_text_check(&cur_txt);
 407:Middlewares/lvgl/src/extra/widgets/span/lv_span.c ****     uint32_t cur_txt_ofs = 0;
 408:Middlewares/lvgl/src/extra/widgets/span/lv_span.c ****     lv_snippet_t snippet;   /* use to save cur_span info and push it to stack */
 409:Middlewares/lvgl/src/extra/widgets/span/lv_span.c ****     memset(&snippet, 0, sizeof(snippet));
 410:Middlewares/lvgl/src/extra/widgets/span/lv_span.c **** 
 411:Middlewares/lvgl/src/extra/widgets/span/lv_span.c ****     /* the loop control how many lines need to draw */
 412:Middlewares/lvgl/src/extra/widgets/span/lv_span.c ****     while(cur_span) {
 413:Middlewares/lvgl/src/extra/widgets/span/lv_span.c ****         int snippet_cnt = 0;
 414:Middlewares/lvgl/src/extra/widgets/span/lv_span.c ****         lv_coord_t max_line_h = 0;  /* the max height of span-font when a line have a lot of span *
 415:Middlewares/lvgl/src/extra/widgets/span/lv_span.c **** 
 416:Middlewares/lvgl/src/extra/widgets/span/lv_span.c ****         /* the loop control to find a line and push the relevant span info into stack  */
 417:Middlewares/lvgl/src/extra/widgets/span/lv_span.c ****         while(1) {
 418:Middlewares/lvgl/src/extra/widgets/span/lv_span.c ****             /* switch to the next span when current is end */
 419:Middlewares/lvgl/src/extra/widgets/span/lv_span.c ****             if(cur_txt[cur_txt_ofs] == '\0') {
 420:Middlewares/lvgl/src/extra/widgets/span/lv_span.c ****                 cur_span = _lv_ll_get_next(&spans->child_ll, cur_span);
 421:Middlewares/lvgl/src/extra/widgets/span/lv_span.c ****                 if(cur_span == NULL) break;
 422:Middlewares/lvgl/src/extra/widgets/span/lv_span.c ****                 cur_txt = cur_span->txt;
 423:Middlewares/lvgl/src/extra/widgets/span/lv_span.c ****                 span_text_check(&cur_txt);
 424:Middlewares/lvgl/src/extra/widgets/span/lv_span.c ****                 cur_txt_ofs = 0;
 425:Middlewares/lvgl/src/extra/widgets/span/lv_span.c ****             }
 426:Middlewares/lvgl/src/extra/widgets/span/lv_span.c **** 
 427:Middlewares/lvgl/src/extra/widgets/span/lv_span.c ****             /* init span info to snippet. */
 428:Middlewares/lvgl/src/extra/widgets/span/lv_span.c ****             if(cur_txt_ofs == 0) {
 429:Middlewares/lvgl/src/extra/widgets/span/lv_span.c ****                 snippet.span = cur_span;
 430:Middlewares/lvgl/src/extra/widgets/span/lv_span.c ****                 snippet.font = lv_span_get_style_text_font(obj, cur_span);
 431:Middlewares/lvgl/src/extra/widgets/span/lv_span.c ****                 snippet.letter_space = lv_span_get_style_text_letter_space(obj, cur_span);
ARM GAS  /tmp/cc1iaYtN.s 			page 9


 432:Middlewares/lvgl/src/extra/widgets/span/lv_span.c ****                 snippet.line_h = lv_font_get_line_height(snippet.font) + line_space;
 433:Middlewares/lvgl/src/extra/widgets/span/lv_span.c ****             }
 434:Middlewares/lvgl/src/extra/widgets/span/lv_span.c **** 
 435:Middlewares/lvgl/src/extra/widgets/span/lv_span.c ****             /* get current span text line info */
 436:Middlewares/lvgl/src/extra/widgets/span/lv_span.c ****             uint32_t next_ofs = 0;
 437:Middlewares/lvgl/src/extra/widgets/span/lv_span.c ****             lv_coord_t use_width = 0;
 438:Middlewares/lvgl/src/extra/widgets/span/lv_span.c ****             bool isfill = lv_txt_get_snippet(&cur_txt[cur_txt_ofs], snippet.font, snippet.letter_sp
 439:Middlewares/lvgl/src/extra/widgets/span/lv_span.c ****                                              max_w, txt_flag, &use_width, &next_ofs);
 440:Middlewares/lvgl/src/extra/widgets/span/lv_span.c **** 
 441:Middlewares/lvgl/src/extra/widgets/span/lv_span.c ****             /* break word deal width */
 442:Middlewares/lvgl/src/extra/widgets/span/lv_span.c ****             if(isfill && next_ofs > 0 && snippet_cnt > 0) {
 443:Middlewares/lvgl/src/extra/widgets/span/lv_span.c ****                 uint32_t letter = (uint32_t)cur_txt[cur_txt_ofs + next_ofs - 1];
 444:Middlewares/lvgl/src/extra/widgets/span/lv_span.c ****                 if(!(letter == '\0' || letter == '\n' || letter == '\r' || _lv_txt_is_break_char(le
 445:Middlewares/lvgl/src/extra/widgets/span/lv_span.c ****                     letter = (uint32_t)cur_txt[cur_txt_ofs + next_ofs];
 446:Middlewares/lvgl/src/extra/widgets/span/lv_span.c ****                     if(!(letter == '\0' || letter == '\n'  || letter == '\r' || _lv_txt_is_break_ch
 447:Middlewares/lvgl/src/extra/widgets/span/lv_span.c ****                         break;
 448:Middlewares/lvgl/src/extra/widgets/span/lv_span.c ****                     }
 449:Middlewares/lvgl/src/extra/widgets/span/lv_span.c ****                 }
 450:Middlewares/lvgl/src/extra/widgets/span/lv_span.c ****             }
 451:Middlewares/lvgl/src/extra/widgets/span/lv_span.c **** 
 452:Middlewares/lvgl/src/extra/widgets/span/lv_span.c ****             snippet.txt = &cur_txt[cur_txt_ofs];
 453:Middlewares/lvgl/src/extra/widgets/span/lv_span.c ****             snippet.bytes = next_ofs;
 454:Middlewares/lvgl/src/extra/widgets/span/lv_span.c ****             snippet.txt_w = use_width;
 455:Middlewares/lvgl/src/extra/widgets/span/lv_span.c ****             cur_txt_ofs += next_ofs;
 456:Middlewares/lvgl/src/extra/widgets/span/lv_span.c ****             if(max_line_h < snippet.line_h) {
 457:Middlewares/lvgl/src/extra/widgets/span/lv_span.c ****                 max_line_h = snippet.line_h;
 458:Middlewares/lvgl/src/extra/widgets/span/lv_span.c ****             }
 459:Middlewares/lvgl/src/extra/widgets/span/lv_span.c ****             snippet_cnt ++;
 460:Middlewares/lvgl/src/extra/widgets/span/lv_span.c ****             if(isfill) {
 461:Middlewares/lvgl/src/extra/widgets/span/lv_span.c ****                 break;
 462:Middlewares/lvgl/src/extra/widgets/span/lv_span.c ****             }
 463:Middlewares/lvgl/src/extra/widgets/span/lv_span.c ****             max_w -= use_width;
 464:Middlewares/lvgl/src/extra/widgets/span/lv_span.c ****         }
 465:Middlewares/lvgl/src/extra/widgets/span/lv_span.c **** 
 466:Middlewares/lvgl/src/extra/widgets/span/lv_span.c ****         /* next line init */
 467:Middlewares/lvgl/src/extra/widgets/span/lv_span.c ****         txt_pos.x = 0;
 468:Middlewares/lvgl/src/extra/widgets/span/lv_span.c ****         txt_pos.y += max_line_h;
 469:Middlewares/lvgl/src/extra/widgets/span/lv_span.c ****         max_w = max_width;
 470:Middlewares/lvgl/src/extra/widgets/span/lv_span.c ****     }
 471:Middlewares/lvgl/src/extra/widgets/span/lv_span.c **** 
 472:Middlewares/lvgl/src/extra/widgets/span/lv_span.c ****     lv_coord_t top_pad = lv_obj_get_style_pad_top(obj, LV_PART_MAIN);
 473:Middlewares/lvgl/src/extra/widgets/span/lv_span.c ****     lv_coord_t bottom_pad = lv_obj_get_style_pad_bottom(obj, LV_PART_MAIN);
 474:Middlewares/lvgl/src/extra/widgets/span/lv_span.c ****     txt_pos.y = txt_pos.y + top_pad + bottom_pad - line_space;
 475:Middlewares/lvgl/src/extra/widgets/span/lv_span.c **** 
 476:Middlewares/lvgl/src/extra/widgets/span/lv_span.c ****     return txt_pos.y;
 477:Middlewares/lvgl/src/extra/widgets/span/lv_span.c **** }
 478:Middlewares/lvgl/src/extra/widgets/span/lv_span.c **** 
 479:Middlewares/lvgl/src/extra/widgets/span/lv_span.c **** /**********************
 480:Middlewares/lvgl/src/extra/widgets/span/lv_span.c ****  *   STATIC FUNCTIONS
 481:Middlewares/lvgl/src/extra/widgets/span/lv_span.c ****  **********************/
 482:Middlewares/lvgl/src/extra/widgets/span/lv_span.c **** 
 483:Middlewares/lvgl/src/extra/widgets/span/lv_span.c **** static void lv_spangroup_constructor(const lv_obj_class_t * class_p, lv_obj_t * obj)
 484:Middlewares/lvgl/src/extra/widgets/span/lv_span.c **** {
 485:Middlewares/lvgl/src/extra/widgets/span/lv_span.c ****     LV_UNUSED(class_p);
 486:Middlewares/lvgl/src/extra/widgets/span/lv_span.c ****     lv_spangroup_t * spans = (lv_spangroup_t *)obj;
 487:Middlewares/lvgl/src/extra/widgets/span/lv_span.c ****     _lv_ll_init(&spans->child_ll, sizeof(lv_span_t));
 488:Middlewares/lvgl/src/extra/widgets/span/lv_span.c ****     spans->indent = 0;
ARM GAS  /tmp/cc1iaYtN.s 			page 10


 489:Middlewares/lvgl/src/extra/widgets/span/lv_span.c ****     spans->align = LV_TEXT_ALIGN_LEFT;
 490:Middlewares/lvgl/src/extra/widgets/span/lv_span.c ****     spans->mode = LV_SPAN_MODE_FIXED;
 491:Middlewares/lvgl/src/extra/widgets/span/lv_span.c ****     spans->overflow = LV_SPAN_OVERFLOW_CLIP;
 492:Middlewares/lvgl/src/extra/widgets/span/lv_span.c **** }
 493:Middlewares/lvgl/src/extra/widgets/span/lv_span.c **** 
 494:Middlewares/lvgl/src/extra/widgets/span/lv_span.c **** static void lv_spangroup_destructor(const lv_obj_class_t * class_p, lv_obj_t * obj)
 495:Middlewares/lvgl/src/extra/widgets/span/lv_span.c **** {
 496:Middlewares/lvgl/src/extra/widgets/span/lv_span.c ****     LV_UNUSED(class_p);
 497:Middlewares/lvgl/src/extra/widgets/span/lv_span.c ****     lv_spangroup_t * spans = (lv_spangroup_t *)obj;
 498:Middlewares/lvgl/src/extra/widgets/span/lv_span.c ****     lv_span_t * cur_span = _lv_ll_get_head(&spans->child_ll);
 499:Middlewares/lvgl/src/extra/widgets/span/lv_span.c ****     while(cur_span) {
 500:Middlewares/lvgl/src/extra/widgets/span/lv_span.c ****         _lv_ll_remove(&spans->child_ll, cur_span);
 501:Middlewares/lvgl/src/extra/widgets/span/lv_span.c ****         if(cur_span->txt && cur_span->static_flag == 0) {
 502:Middlewares/lvgl/src/extra/widgets/span/lv_span.c ****             lv_mem_free(cur_span->txt);
 503:Middlewares/lvgl/src/extra/widgets/span/lv_span.c ****         }
 504:Middlewares/lvgl/src/extra/widgets/span/lv_span.c ****         lv_style_reset(&cur_span->style);
 505:Middlewares/lvgl/src/extra/widgets/span/lv_span.c ****         lv_mem_free(cur_span);
 506:Middlewares/lvgl/src/extra/widgets/span/lv_span.c ****         cur_span = _lv_ll_get_head(&spans->child_ll);
 507:Middlewares/lvgl/src/extra/widgets/span/lv_span.c ****     }
 508:Middlewares/lvgl/src/extra/widgets/span/lv_span.c **** }
 509:Middlewares/lvgl/src/extra/widgets/span/lv_span.c **** 
 510:Middlewares/lvgl/src/extra/widgets/span/lv_span.c **** static void lv_spangroup_event(const lv_obj_class_t * class_p, lv_event_t * e)
 511:Middlewares/lvgl/src/extra/widgets/span/lv_span.c **** {
 512:Middlewares/lvgl/src/extra/widgets/span/lv_span.c ****     LV_UNUSED(class_p);
 513:Middlewares/lvgl/src/extra/widgets/span/lv_span.c **** 
 514:Middlewares/lvgl/src/extra/widgets/span/lv_span.c ****     /* Call the ancestor's event handler */
 515:Middlewares/lvgl/src/extra/widgets/span/lv_span.c ****     if(lv_obj_event_base(MY_CLASS, e) != LV_RES_OK) return;
 516:Middlewares/lvgl/src/extra/widgets/span/lv_span.c **** 
 517:Middlewares/lvgl/src/extra/widgets/span/lv_span.c ****     lv_event_code_t code = lv_event_get_code(e);
 518:Middlewares/lvgl/src/extra/widgets/span/lv_span.c ****     lv_obj_t * obj = lv_event_get_target(e);
 519:Middlewares/lvgl/src/extra/widgets/span/lv_span.c **** 
 520:Middlewares/lvgl/src/extra/widgets/span/lv_span.c ****     if(code == LV_EVENT_DRAW_MAIN) {
 521:Middlewares/lvgl/src/extra/widgets/span/lv_span.c ****         draw_main(e);
 522:Middlewares/lvgl/src/extra/widgets/span/lv_span.c ****     }
 523:Middlewares/lvgl/src/extra/widgets/span/lv_span.c ****     else if(code == LV_EVENT_STYLE_CHANGED) {
 524:Middlewares/lvgl/src/extra/widgets/span/lv_span.c ****         lv_spangroup_refr_mode(obj);
 525:Middlewares/lvgl/src/extra/widgets/span/lv_span.c ****     }
 526:Middlewares/lvgl/src/extra/widgets/span/lv_span.c ****     else if(code == LV_EVENT_SIZE_CHANGED) {
 527:Middlewares/lvgl/src/extra/widgets/span/lv_span.c ****         lv_spangroup_refr_mode(obj);
 528:Middlewares/lvgl/src/extra/widgets/span/lv_span.c ****     }
 529:Middlewares/lvgl/src/extra/widgets/span/lv_span.c **** }
 530:Middlewares/lvgl/src/extra/widgets/span/lv_span.c **** 
 531:Middlewares/lvgl/src/extra/widgets/span/lv_span.c **** static void draw_main(lv_event_t * e)
 532:Middlewares/lvgl/src/extra/widgets/span/lv_span.c **** {
 533:Middlewares/lvgl/src/extra/widgets/span/lv_span.c ****     lv_obj_t * obj = lv_event_get_target(e);
 534:Middlewares/lvgl/src/extra/widgets/span/lv_span.c ****     const lv_area_t * clip_area = lv_event_get_param(e);
 535:Middlewares/lvgl/src/extra/widgets/span/lv_span.c **** 
 536:Middlewares/lvgl/src/extra/widgets/span/lv_span.c ****     lv_area_t txt_coords;
 537:Middlewares/lvgl/src/extra/widgets/span/lv_span.c ****     get_txt_coords(obj, &txt_coords);
 538:Middlewares/lvgl/src/extra/widgets/span/lv_span.c **** 
 539:Middlewares/lvgl/src/extra/widgets/span/lv_span.c ****     lv_area_t txt_clip;
 540:Middlewares/lvgl/src/extra/widgets/span/lv_span.c ****     bool is_common = _lv_area_intersect(&txt_clip, clip_area, &txt_coords);
 541:Middlewares/lvgl/src/extra/widgets/span/lv_span.c ****     if(!is_common) return;
 542:Middlewares/lvgl/src/extra/widgets/span/lv_span.c **** 
 543:Middlewares/lvgl/src/extra/widgets/span/lv_span.c ****     lv_draw_span(obj, &txt_coords, clip_area);
 544:Middlewares/lvgl/src/extra/widgets/span/lv_span.c **** }
 545:Middlewares/lvgl/src/extra/widgets/span/lv_span.c **** 
ARM GAS  /tmp/cc1iaYtN.s 			page 11


 546:Middlewares/lvgl/src/extra/widgets/span/lv_span.c **** static void get_txt_coords(const lv_obj_t * obj, lv_area_t * area)
 547:Middlewares/lvgl/src/extra/widgets/span/lv_span.c **** {
 548:Middlewares/lvgl/src/extra/widgets/span/lv_span.c ****     lv_obj_get_coords(obj, area);
 549:Middlewares/lvgl/src/extra/widgets/span/lv_span.c **** 
 550:Middlewares/lvgl/src/extra/widgets/span/lv_span.c ****     lv_coord_t left   = lv_obj_get_style_pad_left(obj, LV_PART_MAIN);
 551:Middlewares/lvgl/src/extra/widgets/span/lv_span.c ****     lv_coord_t right  = lv_obj_get_style_pad_right(obj, LV_PART_MAIN);
 552:Middlewares/lvgl/src/extra/widgets/span/lv_span.c ****     lv_coord_t top    = lv_obj_get_style_pad_top(obj, LV_PART_MAIN);
 553:Middlewares/lvgl/src/extra/widgets/span/lv_span.c ****     lv_coord_t bottom = lv_obj_get_style_pad_bottom(obj, LV_PART_MAIN);
 554:Middlewares/lvgl/src/extra/widgets/span/lv_span.c ****     area->x1 += left;
 555:Middlewares/lvgl/src/extra/widgets/span/lv_span.c ****     area->x2 -= right;
 556:Middlewares/lvgl/src/extra/widgets/span/lv_span.c ****     area->y1 += top;
 557:Middlewares/lvgl/src/extra/widgets/span/lv_span.c ****     area->y2 -= bottom;
 558:Middlewares/lvgl/src/extra/widgets/span/lv_span.c **** }
 559:Middlewares/lvgl/src/extra/widgets/span/lv_span.c **** 
 560:Middlewares/lvgl/src/extra/widgets/span/lv_span.c **** /**
 561:Middlewares/lvgl/src/extra/widgets/span/lv_span.c ****  * @return true for txt fill the max_width.
 562:Middlewares/lvgl/src/extra/widgets/span/lv_span.c ****  */
 563:Middlewares/lvgl/src/extra/widgets/span/lv_span.c **** static bool lv_txt_get_snippet(const char * txt, const lv_font_t * font,
 564:Middlewares/lvgl/src/extra/widgets/span/lv_span.c ****                                lv_coord_t letter_space, lv_coord_t max_width, lv_text_flag_t flag,
 565:Middlewares/lvgl/src/extra/widgets/span/lv_span.c ****                                lv_coord_t * use_width, uint32_t * end_ofs)
 566:Middlewares/lvgl/src/extra/widgets/span/lv_span.c **** {
 567:Middlewares/lvgl/src/extra/widgets/span/lv_span.c ****     uint32_t ofs = _lv_txt_get_next_line(txt, font, letter_space, max_width, flag);
 568:Middlewares/lvgl/src/extra/widgets/span/lv_span.c ****     lv_coord_t width = lv_txt_get_width(txt, ofs, font, letter_space, flag);
 569:Middlewares/lvgl/src/extra/widgets/span/lv_span.c ****     *end_ofs = ofs;
 570:Middlewares/lvgl/src/extra/widgets/span/lv_span.c ****     *use_width = width;
 571:Middlewares/lvgl/src/extra/widgets/span/lv_span.c **** 
 572:Middlewares/lvgl/src/extra/widgets/span/lv_span.c ****     if(txt[ofs] == '\0' && width < max_width) {
 573:Middlewares/lvgl/src/extra/widgets/span/lv_span.c ****         return false;
 574:Middlewares/lvgl/src/extra/widgets/span/lv_span.c ****     }
 575:Middlewares/lvgl/src/extra/widgets/span/lv_span.c ****     else {
 576:Middlewares/lvgl/src/extra/widgets/span/lv_span.c ****         return true;
 577:Middlewares/lvgl/src/extra/widgets/span/lv_span.c ****     }
 578:Middlewares/lvgl/src/extra/widgets/span/lv_span.c **** }
 579:Middlewares/lvgl/src/extra/widgets/span/lv_span.c **** 
 580:Middlewares/lvgl/src/extra/widgets/span/lv_span.c **** static void lv_snippet_push(lv_snippet_t * item)
 581:Middlewares/lvgl/src/extra/widgets/span/lv_span.c **** {
 582:Middlewares/lvgl/src/extra/widgets/span/lv_span.c ****     if(snippet_stack.index < LV_SPAN_SNIPPET_STACK_SIZE) {
 583:Middlewares/lvgl/src/extra/widgets/span/lv_span.c ****         memcpy(&snippet_stack.stack[snippet_stack.index], item, sizeof(lv_snippet_t));
 584:Middlewares/lvgl/src/extra/widgets/span/lv_span.c ****         snippet_stack.index++;
 585:Middlewares/lvgl/src/extra/widgets/span/lv_span.c ****     }
 586:Middlewares/lvgl/src/extra/widgets/span/lv_span.c ****     else {
 587:Middlewares/lvgl/src/extra/widgets/span/lv_span.c ****         LV_LOG_ERROR("span draw stack overflow, please set LV_SPAN_SNIPPET_STACK_SIZE too larger");
 588:Middlewares/lvgl/src/extra/widgets/span/lv_span.c ****     }
 589:Middlewares/lvgl/src/extra/widgets/span/lv_span.c **** }
 590:Middlewares/lvgl/src/extra/widgets/span/lv_span.c **** 
 591:Middlewares/lvgl/src/extra/widgets/span/lv_span.c **** static uint16_t lv_get_snippet_cnt()
 592:Middlewares/lvgl/src/extra/widgets/span/lv_span.c **** {
  27              		.loc 1 592 1 view -0
  28              		.cfi_startproc
  29              		@ args = 0, pretend = 0, frame = 0
  30              		@ frame_needed = 0, uses_anonymous_args = 0
  31              		@ link register save eliminated.
 593:Middlewares/lvgl/src/extra/widgets/span/lv_span.c ****     return snippet_stack.index;
  32              		.loc 1 593 5 view .LVU1
 594:Middlewares/lvgl/src/extra/widgets/span/lv_span.c **** }
  33              		.loc 1 594 1 is_stmt 0 view .LVU2
  34 0000 014B     		ldr	r3, .L2
ARM GAS  /tmp/cc1iaYtN.s 			page 12


  35 0002 B3F80005 		ldrh	r0, [r3, #1280]
  36 0006 7047     		bx	lr
  37              	.L3:
  38              		.align	2
  39              	.L2:
  40 0008 00000000 		.word	.LANCHOR0
  41              		.cfi_endproc
  42              	.LFE208:
  44              		.section	.text.lv_get_snippet,"ax",%progbits
  45              		.align	1
  46              		.syntax unified
  47              		.thumb
  48              		.thumb_func
  50              	lv_get_snippet:
  51              	.LVL0:
  52              	.LFB209:
 595:Middlewares/lvgl/src/extra/widgets/span/lv_span.c **** 
 596:Middlewares/lvgl/src/extra/widgets/span/lv_span.c **** static lv_snippet_t * lv_get_snippet(uint16_t index)
 597:Middlewares/lvgl/src/extra/widgets/span/lv_span.c **** {
  53              		.loc 1 597 1 is_stmt 1 view -0
  54              		.cfi_startproc
  55              		@ args = 0, pretend = 0, frame = 0
  56              		@ frame_needed = 0, uses_anonymous_args = 0
  57              		@ link register save eliminated.
 598:Middlewares/lvgl/src/extra/widgets/span/lv_span.c ****     return &snippet_stack.stack[index];
  58              		.loc 1 598 5 view .LVU4
  59              		.loc 1 598 12 is_stmt 0 view .LVU5
  60 0000 00EB8000 		add	r0, r0, r0, lsl #2
  61              	.LVL1:
 599:Middlewares/lvgl/src/extra/widgets/span/lv_span.c **** }
  62              		.loc 1 599 1 view .LVU6
  63 0004 014B     		ldr	r3, .L5
  64 0006 03EB8000 		add	r0, r3, r0, lsl #2
  65 000a 7047     		bx	lr
  66              	.L6:
  67              		.align	2
  68              	.L5:
  69 000c 00000000 		.word	.LANCHOR0
  70              		.cfi_endproc
  71              	.LFE209:
  73              		.section	.text.lv_snippet_clear,"ax",%progbits
  74              		.align	1
  75              		.syntax unified
  76              		.thumb
  77              		.thumb_func
  79              	lv_snippet_clear:
  80              	.LFB210:
 600:Middlewares/lvgl/src/extra/widgets/span/lv_span.c **** 
 601:Middlewares/lvgl/src/extra/widgets/span/lv_span.c **** static void lv_snippet_clear(void)
 602:Middlewares/lvgl/src/extra/widgets/span/lv_span.c **** {
  81              		.loc 1 602 1 is_stmt 1 view -0
  82              		.cfi_startproc
  83              		@ args = 0, pretend = 0, frame = 0
  84              		@ frame_needed = 0, uses_anonymous_args = 0
  85              		@ link register save eliminated.
 603:Middlewares/lvgl/src/extra/widgets/span/lv_span.c ****     snippet_stack.index = 0;
  86              		.loc 1 603 5 view .LVU8
ARM GAS  /tmp/cc1iaYtN.s 			page 13


  87              		.loc 1 603 25 is_stmt 0 view .LVU9
  88 0000 024B     		ldr	r3, .L8
  89 0002 0022     		movs	r2, #0
  90 0004 A3F80025 		strh	r2, [r3, #1280]	@ movhi
 604:Middlewares/lvgl/src/extra/widgets/span/lv_span.c **** }
  91              		.loc 1 604 1 view .LVU10
  92 0008 7047     		bx	lr
  93              	.L9:
  94 000a 00BF     		.align	2
  95              	.L8:
  96 000c 00000000 		.word	.LANCHOR0
  97              		.cfi_endproc
  98              	.LFE210:
 100              		.section	.text.get_txt_coords,"ax",%progbits
 101              		.align	1
 102              		.syntax unified
 103              		.thumb
 104              		.thumb_func
 106              	get_txt_coords:
 107              	.LVL2:
 108              	.LFB205:
 547:Middlewares/lvgl/src/extra/widgets/span/lv_span.c ****     lv_obj_get_coords(obj, area);
 109              		.loc 1 547 1 is_stmt 1 view -0
 110              		.cfi_startproc
 111              		@ args = 0, pretend = 0, frame = 0
 112              		@ frame_needed = 0, uses_anonymous_args = 0
 547:Middlewares/lvgl/src/extra/widgets/span/lv_span.c ****     lv_obj_get_coords(obj, area);
 113              		.loc 1 547 1 is_stmt 0 view .LVU12
 114 0000 2DE9F041 		push	{r4, r5, r6, r7, r8, lr}
 115              	.LCFI0:
 116              		.cfi_def_cfa_offset 24
 117              		.cfi_offset 4, -24
 118              		.cfi_offset 5, -20
 119              		.cfi_offset 6, -16
 120              		.cfi_offset 7, -12
 121              		.cfi_offset 8, -8
 122              		.cfi_offset 14, -4
 123 0004 0546     		mov	r5, r0
 124 0006 0C46     		mov	r4, r1
 548:Middlewares/lvgl/src/extra/widgets/span/lv_span.c **** 
 125              		.loc 1 548 5 is_stmt 1 view .LVU13
 126 0008 FFF7FEFF 		bl	lv_obj_get_coords
 127              	.LVL3:
 550:Middlewares/lvgl/src/extra/widgets/span/lv_span.c ****     lv_coord_t right  = lv_obj_get_style_pad_right(obj, LV_PART_MAIN);
 128              		.loc 1 550 5 view .LVU14
 129              	.LBB92:
 130              	.LBI92:
 131              		.file 2 "Middlewares/lvgl/src/extra/widgets/span/../../../../src/core/lv_obj_style_gen.h"
   1:Middlewares/lvgl/src/extra/widgets/span/../../../../src/core/lv_obj_style_gen.h **** static inline lv_coord_t lv_obj_get_style_width(const struct _lv_obj_t * obj, uint32_t part)
   2:Middlewares/lvgl/src/extra/widgets/span/../../../../src/core/lv_obj_style_gen.h **** {
   3:Middlewares/lvgl/src/extra/widgets/span/../../../../src/core/lv_obj_style_gen.h ****     lv_style_value_t v = lv_obj_get_style_prop(obj, part, LV_STYLE_WIDTH);
   4:Middlewares/lvgl/src/extra/widgets/span/../../../../src/core/lv_obj_style_gen.h ****     return (lv_coord_t)v.num;
   5:Middlewares/lvgl/src/extra/widgets/span/../../../../src/core/lv_obj_style_gen.h **** }
   6:Middlewares/lvgl/src/extra/widgets/span/../../../../src/core/lv_obj_style_gen.h **** 
   7:Middlewares/lvgl/src/extra/widgets/span/../../../../src/core/lv_obj_style_gen.h **** static inline lv_coord_t lv_obj_get_style_min_width(const struct _lv_obj_t * obj, uint32_t part)
   8:Middlewares/lvgl/src/extra/widgets/span/../../../../src/core/lv_obj_style_gen.h **** {
   9:Middlewares/lvgl/src/extra/widgets/span/../../../../src/core/lv_obj_style_gen.h ****     lv_style_value_t v = lv_obj_get_style_prop(obj, part, LV_STYLE_MIN_WIDTH);
ARM GAS  /tmp/cc1iaYtN.s 			page 14


  10:Middlewares/lvgl/src/extra/widgets/span/../../../../src/core/lv_obj_style_gen.h ****     return (lv_coord_t)v.num;
  11:Middlewares/lvgl/src/extra/widgets/span/../../../../src/core/lv_obj_style_gen.h **** }
  12:Middlewares/lvgl/src/extra/widgets/span/../../../../src/core/lv_obj_style_gen.h **** 
  13:Middlewares/lvgl/src/extra/widgets/span/../../../../src/core/lv_obj_style_gen.h **** static inline lv_coord_t lv_obj_get_style_max_width(const struct _lv_obj_t * obj, uint32_t part)
  14:Middlewares/lvgl/src/extra/widgets/span/../../../../src/core/lv_obj_style_gen.h **** {
  15:Middlewares/lvgl/src/extra/widgets/span/../../../../src/core/lv_obj_style_gen.h ****     lv_style_value_t v = lv_obj_get_style_prop(obj, part, LV_STYLE_MAX_WIDTH);
  16:Middlewares/lvgl/src/extra/widgets/span/../../../../src/core/lv_obj_style_gen.h ****     return (lv_coord_t)v.num;
  17:Middlewares/lvgl/src/extra/widgets/span/../../../../src/core/lv_obj_style_gen.h **** }
  18:Middlewares/lvgl/src/extra/widgets/span/../../../../src/core/lv_obj_style_gen.h **** 
  19:Middlewares/lvgl/src/extra/widgets/span/../../../../src/core/lv_obj_style_gen.h **** static inline lv_coord_t lv_obj_get_style_height(const struct _lv_obj_t * obj, uint32_t part)
  20:Middlewares/lvgl/src/extra/widgets/span/../../../../src/core/lv_obj_style_gen.h **** {
  21:Middlewares/lvgl/src/extra/widgets/span/../../../../src/core/lv_obj_style_gen.h ****     lv_style_value_t v = lv_obj_get_style_prop(obj, part, LV_STYLE_HEIGHT);
  22:Middlewares/lvgl/src/extra/widgets/span/../../../../src/core/lv_obj_style_gen.h ****     return (lv_coord_t)v.num;
  23:Middlewares/lvgl/src/extra/widgets/span/../../../../src/core/lv_obj_style_gen.h **** }
  24:Middlewares/lvgl/src/extra/widgets/span/../../../../src/core/lv_obj_style_gen.h **** 
  25:Middlewares/lvgl/src/extra/widgets/span/../../../../src/core/lv_obj_style_gen.h **** static inline lv_coord_t lv_obj_get_style_min_height(const struct _lv_obj_t * obj, uint32_t part)
  26:Middlewares/lvgl/src/extra/widgets/span/../../../../src/core/lv_obj_style_gen.h **** {
  27:Middlewares/lvgl/src/extra/widgets/span/../../../../src/core/lv_obj_style_gen.h ****     lv_style_value_t v = lv_obj_get_style_prop(obj, part, LV_STYLE_MIN_HEIGHT);
  28:Middlewares/lvgl/src/extra/widgets/span/../../../../src/core/lv_obj_style_gen.h ****     return (lv_coord_t)v.num;
  29:Middlewares/lvgl/src/extra/widgets/span/../../../../src/core/lv_obj_style_gen.h **** }
  30:Middlewares/lvgl/src/extra/widgets/span/../../../../src/core/lv_obj_style_gen.h **** 
  31:Middlewares/lvgl/src/extra/widgets/span/../../../../src/core/lv_obj_style_gen.h **** static inline lv_coord_t lv_obj_get_style_max_height(const struct _lv_obj_t * obj, uint32_t part)
  32:Middlewares/lvgl/src/extra/widgets/span/../../../../src/core/lv_obj_style_gen.h **** {
  33:Middlewares/lvgl/src/extra/widgets/span/../../../../src/core/lv_obj_style_gen.h ****     lv_style_value_t v = lv_obj_get_style_prop(obj, part, LV_STYLE_MAX_HEIGHT);
  34:Middlewares/lvgl/src/extra/widgets/span/../../../../src/core/lv_obj_style_gen.h ****     return (lv_coord_t)v.num;
  35:Middlewares/lvgl/src/extra/widgets/span/../../../../src/core/lv_obj_style_gen.h **** }
  36:Middlewares/lvgl/src/extra/widgets/span/../../../../src/core/lv_obj_style_gen.h **** 
  37:Middlewares/lvgl/src/extra/widgets/span/../../../../src/core/lv_obj_style_gen.h **** static inline lv_coord_t lv_obj_get_style_x(const struct _lv_obj_t * obj, uint32_t part)
  38:Middlewares/lvgl/src/extra/widgets/span/../../../../src/core/lv_obj_style_gen.h **** {
  39:Middlewares/lvgl/src/extra/widgets/span/../../../../src/core/lv_obj_style_gen.h ****     lv_style_value_t v = lv_obj_get_style_prop(obj, part, LV_STYLE_X);
  40:Middlewares/lvgl/src/extra/widgets/span/../../../../src/core/lv_obj_style_gen.h ****     return (lv_coord_t)v.num;
  41:Middlewares/lvgl/src/extra/widgets/span/../../../../src/core/lv_obj_style_gen.h **** }
  42:Middlewares/lvgl/src/extra/widgets/span/../../../../src/core/lv_obj_style_gen.h **** 
  43:Middlewares/lvgl/src/extra/widgets/span/../../../../src/core/lv_obj_style_gen.h **** static inline lv_coord_t lv_obj_get_style_y(const struct _lv_obj_t * obj, uint32_t part)
  44:Middlewares/lvgl/src/extra/widgets/span/../../../../src/core/lv_obj_style_gen.h **** {
  45:Middlewares/lvgl/src/extra/widgets/span/../../../../src/core/lv_obj_style_gen.h ****     lv_style_value_t v = lv_obj_get_style_prop(obj, part, LV_STYLE_Y);
  46:Middlewares/lvgl/src/extra/widgets/span/../../../../src/core/lv_obj_style_gen.h ****     return (lv_coord_t)v.num;
  47:Middlewares/lvgl/src/extra/widgets/span/../../../../src/core/lv_obj_style_gen.h **** }
  48:Middlewares/lvgl/src/extra/widgets/span/../../../../src/core/lv_obj_style_gen.h **** 
  49:Middlewares/lvgl/src/extra/widgets/span/../../../../src/core/lv_obj_style_gen.h **** static inline lv_align_t lv_obj_get_style_align(const struct _lv_obj_t * obj, uint32_t part)
  50:Middlewares/lvgl/src/extra/widgets/span/../../../../src/core/lv_obj_style_gen.h **** {
  51:Middlewares/lvgl/src/extra/widgets/span/../../../../src/core/lv_obj_style_gen.h ****     lv_style_value_t v = lv_obj_get_style_prop(obj, part, LV_STYLE_ALIGN);
  52:Middlewares/lvgl/src/extra/widgets/span/../../../../src/core/lv_obj_style_gen.h ****     return (lv_align_t)v.num;
  53:Middlewares/lvgl/src/extra/widgets/span/../../../../src/core/lv_obj_style_gen.h **** }
  54:Middlewares/lvgl/src/extra/widgets/span/../../../../src/core/lv_obj_style_gen.h **** 
  55:Middlewares/lvgl/src/extra/widgets/span/../../../../src/core/lv_obj_style_gen.h **** static inline lv_coord_t lv_obj_get_style_transform_width(const struct _lv_obj_t * obj, uint32_t pa
  56:Middlewares/lvgl/src/extra/widgets/span/../../../../src/core/lv_obj_style_gen.h **** {
  57:Middlewares/lvgl/src/extra/widgets/span/../../../../src/core/lv_obj_style_gen.h ****     lv_style_value_t v = lv_obj_get_style_prop(obj, part, LV_STYLE_TRANSFORM_WIDTH);
  58:Middlewares/lvgl/src/extra/widgets/span/../../../../src/core/lv_obj_style_gen.h ****     return (lv_coord_t)v.num;
  59:Middlewares/lvgl/src/extra/widgets/span/../../../../src/core/lv_obj_style_gen.h **** }
  60:Middlewares/lvgl/src/extra/widgets/span/../../../../src/core/lv_obj_style_gen.h **** 
  61:Middlewares/lvgl/src/extra/widgets/span/../../../../src/core/lv_obj_style_gen.h **** static inline lv_coord_t lv_obj_get_style_transform_height(const struct _lv_obj_t * obj, uint32_t p
  62:Middlewares/lvgl/src/extra/widgets/span/../../../../src/core/lv_obj_style_gen.h **** {
  63:Middlewares/lvgl/src/extra/widgets/span/../../../../src/core/lv_obj_style_gen.h ****     lv_style_value_t v = lv_obj_get_style_prop(obj, part, LV_STYLE_TRANSFORM_HEIGHT);
  64:Middlewares/lvgl/src/extra/widgets/span/../../../../src/core/lv_obj_style_gen.h ****     return (lv_coord_t)v.num;
  65:Middlewares/lvgl/src/extra/widgets/span/../../../../src/core/lv_obj_style_gen.h **** }
  66:Middlewares/lvgl/src/extra/widgets/span/../../../../src/core/lv_obj_style_gen.h **** 
ARM GAS  /tmp/cc1iaYtN.s 			page 15


  67:Middlewares/lvgl/src/extra/widgets/span/../../../../src/core/lv_obj_style_gen.h **** static inline lv_coord_t lv_obj_get_style_translate_x(const struct _lv_obj_t * obj, uint32_t part)
  68:Middlewares/lvgl/src/extra/widgets/span/../../../../src/core/lv_obj_style_gen.h **** {
  69:Middlewares/lvgl/src/extra/widgets/span/../../../../src/core/lv_obj_style_gen.h ****     lv_style_value_t v = lv_obj_get_style_prop(obj, part, LV_STYLE_TRANSLATE_X);
  70:Middlewares/lvgl/src/extra/widgets/span/../../../../src/core/lv_obj_style_gen.h ****     return (lv_coord_t)v.num;
  71:Middlewares/lvgl/src/extra/widgets/span/../../../../src/core/lv_obj_style_gen.h **** }
  72:Middlewares/lvgl/src/extra/widgets/span/../../../../src/core/lv_obj_style_gen.h **** 
  73:Middlewares/lvgl/src/extra/widgets/span/../../../../src/core/lv_obj_style_gen.h **** static inline lv_coord_t lv_obj_get_style_translate_y(const struct _lv_obj_t * obj, uint32_t part)
  74:Middlewares/lvgl/src/extra/widgets/span/../../../../src/core/lv_obj_style_gen.h **** {
  75:Middlewares/lvgl/src/extra/widgets/span/../../../../src/core/lv_obj_style_gen.h ****     lv_style_value_t v = lv_obj_get_style_prop(obj, part, LV_STYLE_TRANSLATE_Y);
  76:Middlewares/lvgl/src/extra/widgets/span/../../../../src/core/lv_obj_style_gen.h ****     return (lv_coord_t)v.num;
  77:Middlewares/lvgl/src/extra/widgets/span/../../../../src/core/lv_obj_style_gen.h **** }
  78:Middlewares/lvgl/src/extra/widgets/span/../../../../src/core/lv_obj_style_gen.h **** 
  79:Middlewares/lvgl/src/extra/widgets/span/../../../../src/core/lv_obj_style_gen.h **** static inline lv_coord_t lv_obj_get_style_transform_zoom(const struct _lv_obj_t * obj, uint32_t par
  80:Middlewares/lvgl/src/extra/widgets/span/../../../../src/core/lv_obj_style_gen.h **** {
  81:Middlewares/lvgl/src/extra/widgets/span/../../../../src/core/lv_obj_style_gen.h ****     lv_style_value_t v = lv_obj_get_style_prop(obj, part, LV_STYLE_TRANSFORM_ZOOM);
  82:Middlewares/lvgl/src/extra/widgets/span/../../../../src/core/lv_obj_style_gen.h ****     return (lv_coord_t)v.num;
  83:Middlewares/lvgl/src/extra/widgets/span/../../../../src/core/lv_obj_style_gen.h **** }
  84:Middlewares/lvgl/src/extra/widgets/span/../../../../src/core/lv_obj_style_gen.h **** 
  85:Middlewares/lvgl/src/extra/widgets/span/../../../../src/core/lv_obj_style_gen.h **** static inline lv_coord_t lv_obj_get_style_transform_angle(const struct _lv_obj_t * obj, uint32_t pa
  86:Middlewares/lvgl/src/extra/widgets/span/../../../../src/core/lv_obj_style_gen.h **** {
  87:Middlewares/lvgl/src/extra/widgets/span/../../../../src/core/lv_obj_style_gen.h ****     lv_style_value_t v = lv_obj_get_style_prop(obj, part, LV_STYLE_TRANSFORM_ANGLE);
  88:Middlewares/lvgl/src/extra/widgets/span/../../../../src/core/lv_obj_style_gen.h ****     return (lv_coord_t)v.num;
  89:Middlewares/lvgl/src/extra/widgets/span/../../../../src/core/lv_obj_style_gen.h **** }
  90:Middlewares/lvgl/src/extra/widgets/span/../../../../src/core/lv_obj_style_gen.h **** 
  91:Middlewares/lvgl/src/extra/widgets/span/../../../../src/core/lv_obj_style_gen.h **** static inline lv_coord_t lv_obj_get_style_pad_top(const struct _lv_obj_t * obj, uint32_t part)
  92:Middlewares/lvgl/src/extra/widgets/span/../../../../src/core/lv_obj_style_gen.h **** {
  93:Middlewares/lvgl/src/extra/widgets/span/../../../../src/core/lv_obj_style_gen.h ****     lv_style_value_t v = lv_obj_get_style_prop(obj, part, LV_STYLE_PAD_TOP);
  94:Middlewares/lvgl/src/extra/widgets/span/../../../../src/core/lv_obj_style_gen.h ****     return (lv_coord_t)v.num;
  95:Middlewares/lvgl/src/extra/widgets/span/../../../../src/core/lv_obj_style_gen.h **** }
  96:Middlewares/lvgl/src/extra/widgets/span/../../../../src/core/lv_obj_style_gen.h **** 
  97:Middlewares/lvgl/src/extra/widgets/span/../../../../src/core/lv_obj_style_gen.h **** static inline lv_coord_t lv_obj_get_style_pad_bottom(const struct _lv_obj_t * obj, uint32_t part)
  98:Middlewares/lvgl/src/extra/widgets/span/../../../../src/core/lv_obj_style_gen.h **** {
  99:Middlewares/lvgl/src/extra/widgets/span/../../../../src/core/lv_obj_style_gen.h ****     lv_style_value_t v = lv_obj_get_style_prop(obj, part, LV_STYLE_PAD_BOTTOM);
 100:Middlewares/lvgl/src/extra/widgets/span/../../../../src/core/lv_obj_style_gen.h ****     return (lv_coord_t)v.num;
 101:Middlewares/lvgl/src/extra/widgets/span/../../../../src/core/lv_obj_style_gen.h **** }
 102:Middlewares/lvgl/src/extra/widgets/span/../../../../src/core/lv_obj_style_gen.h **** 
 103:Middlewares/lvgl/src/extra/widgets/span/../../../../src/core/lv_obj_style_gen.h **** static inline lv_coord_t lv_obj_get_style_pad_left(const struct _lv_obj_t * obj, uint32_t part)
 132              		.loc 2 103 26 view .LVU15
 133              	.LBB93:
 104:Middlewares/lvgl/src/extra/widgets/span/../../../../src/core/lv_obj_style_gen.h **** {
 105:Middlewares/lvgl/src/extra/widgets/span/../../../../src/core/lv_obj_style_gen.h ****     lv_style_value_t v = lv_obj_get_style_prop(obj, part, LV_STYLE_PAD_LEFT);
 134              		.loc 2 105 5 view .LVU16
 135              		.loc 2 105 26 is_stmt 0 view .LVU17
 136 000c 41F21202 		movw	r2, #4114
 137 0010 0021     		movs	r1, #0
 138 0012 2846     		mov	r0, r5
 139 0014 FFF7FEFF 		bl	lv_obj_get_style_prop
 140              	.LVL4:
 141 0018 0746     		mov	r7, r0
 142              	.LVL5:
 106:Middlewares/lvgl/src/extra/widgets/span/../../../../src/core/lv_obj_style_gen.h ****     return (lv_coord_t)v.num;
 143              		.loc 2 106 5 is_stmt 1 view .LVU18
 144              		.loc 2 106 5 is_stmt 0 view .LVU19
 145              	.LBE93:
 146              	.LBE92:
 551:Middlewares/lvgl/src/extra/widgets/span/lv_span.c ****     lv_coord_t top    = lv_obj_get_style_pad_top(obj, LV_PART_MAIN);
 147              		.loc 1 551 5 is_stmt 1 view .LVU20
ARM GAS  /tmp/cc1iaYtN.s 			page 16


 148              	.LBB94:
 149              	.LBI94:
 107:Middlewares/lvgl/src/extra/widgets/span/../../../../src/core/lv_obj_style_gen.h **** }
 108:Middlewares/lvgl/src/extra/widgets/span/../../../../src/core/lv_obj_style_gen.h **** 
 109:Middlewares/lvgl/src/extra/widgets/span/../../../../src/core/lv_obj_style_gen.h **** static inline lv_coord_t lv_obj_get_style_pad_right(const struct _lv_obj_t * obj, uint32_t part)
 150              		.loc 2 109 26 view .LVU21
 151              	.LBB95:
 110:Middlewares/lvgl/src/extra/widgets/span/../../../../src/core/lv_obj_style_gen.h **** {
 111:Middlewares/lvgl/src/extra/widgets/span/../../../../src/core/lv_obj_style_gen.h ****     lv_style_value_t v = lv_obj_get_style_prop(obj, part, LV_STYLE_PAD_RIGHT);
 152              		.loc 2 111 5 view .LVU22
 153              		.loc 2 111 26 is_stmt 0 view .LVU23
 154 001a 41F21302 		movw	r2, #4115
 155 001e 0021     		movs	r1, #0
 156 0020 2846     		mov	r0, r5
 157 0022 FFF7FEFF 		bl	lv_obj_get_style_prop
 158              	.LVL6:
 159 0026 8046     		mov	r8, r0
 160              	.LVL7:
 112:Middlewares/lvgl/src/extra/widgets/span/../../../../src/core/lv_obj_style_gen.h ****     return (lv_coord_t)v.num;
 161              		.loc 2 112 5 is_stmt 1 view .LVU24
 162              		.loc 2 112 5 is_stmt 0 view .LVU25
 163              	.LBE95:
 164              	.LBE94:
 552:Middlewares/lvgl/src/extra/widgets/span/lv_span.c ****     lv_coord_t bottom = lv_obj_get_style_pad_bottom(obj, LV_PART_MAIN);
 165              		.loc 1 552 5 is_stmt 1 view .LVU26
 166              	.LBB96:
 167              	.LBI96:
  91:Middlewares/lvgl/src/extra/widgets/span/../../../../src/core/lv_obj_style_gen.h **** {
 168              		.loc 2 91 26 view .LVU27
 169              	.LBB97:
  93:Middlewares/lvgl/src/extra/widgets/span/../../../../src/core/lv_obj_style_gen.h ****     return (lv_coord_t)v.num;
 170              		.loc 2 93 5 view .LVU28
  93:Middlewares/lvgl/src/extra/widgets/span/../../../../src/core/lv_obj_style_gen.h ****     return (lv_coord_t)v.num;
 171              		.loc 2 93 26 is_stmt 0 view .LVU29
 172 0028 41F21002 		movw	r2, #4112
 173 002c 0021     		movs	r1, #0
 174 002e 2846     		mov	r0, r5
 175 0030 FFF7FEFF 		bl	lv_obj_get_style_prop
 176              	.LVL8:
 177 0034 0646     		mov	r6, r0
 178              	.LVL9:
  94:Middlewares/lvgl/src/extra/widgets/span/../../../../src/core/lv_obj_style_gen.h **** }
 179              		.loc 2 94 5 is_stmt 1 view .LVU30
  94:Middlewares/lvgl/src/extra/widgets/span/../../../../src/core/lv_obj_style_gen.h **** }
 180              		.loc 2 94 5 is_stmt 0 view .LVU31
 181              	.LBE97:
 182              	.LBE96:
 553:Middlewares/lvgl/src/extra/widgets/span/lv_span.c ****     area->x1 += left;
 183              		.loc 1 553 5 is_stmt 1 view .LVU32
 184              	.LBB98:
 185              	.LBI98:
  97:Middlewares/lvgl/src/extra/widgets/span/../../../../src/core/lv_obj_style_gen.h **** {
 186              		.loc 2 97 26 view .LVU33
 187              	.LBB99:
  99:Middlewares/lvgl/src/extra/widgets/span/../../../../src/core/lv_obj_style_gen.h ****     return (lv_coord_t)v.num;
 188              		.loc 2 99 5 view .LVU34
  99:Middlewares/lvgl/src/extra/widgets/span/../../../../src/core/lv_obj_style_gen.h ****     return (lv_coord_t)v.num;
ARM GAS  /tmp/cc1iaYtN.s 			page 17


 189              		.loc 2 99 26 is_stmt 0 view .LVU35
 190 0036 41F21102 		movw	r2, #4113
 191 003a 0021     		movs	r1, #0
 192 003c 2846     		mov	r0, r5
 193 003e FFF7FEFF 		bl	lv_obj_get_style_prop
 194              	.LVL10:
 100:Middlewares/lvgl/src/extra/widgets/span/../../../../src/core/lv_obj_style_gen.h **** }
 195              		.loc 2 100 5 is_stmt 1 view .LVU36
 100:Middlewares/lvgl/src/extra/widgets/span/../../../../src/core/lv_obj_style_gen.h **** }
 196              		.loc 2 100 5 is_stmt 0 view .LVU37
 197              	.LBE99:
 198              	.LBE98:
 554:Middlewares/lvgl/src/extra/widgets/span/lv_span.c ****     area->x2 -= right;
 199              		.loc 1 554 5 is_stmt 1 view .LVU38
 554:Middlewares/lvgl/src/extra/widgets/span/lv_span.c ****     area->x2 -= right;
 200              		.loc 1 554 14 is_stmt 0 view .LVU39
 201 0042 2388     		ldrh	r3, [r4]
 202 0044 1F44     		add	r7, r7, r3
 203              	.LVL11:
 554:Middlewares/lvgl/src/extra/widgets/span/lv_span.c ****     area->x2 -= right;
 204              		.loc 1 554 14 view .LVU40
 205 0046 2780     		strh	r7, [r4]	@ movhi
 555:Middlewares/lvgl/src/extra/widgets/span/lv_span.c ****     area->y1 += top;
 206              		.loc 1 555 5 is_stmt 1 view .LVU41
 555:Middlewares/lvgl/src/extra/widgets/span/lv_span.c ****     area->y1 += top;
 207              		.loc 1 555 14 is_stmt 0 view .LVU42
 208 0048 A288     		ldrh	r2, [r4, #4]
 209 004a A2EB0802 		sub	r2, r2, r8
 210 004e A280     		strh	r2, [r4, #4]	@ movhi
 556:Middlewares/lvgl/src/extra/widgets/span/lv_span.c ****     area->y2 -= bottom;
 211              		.loc 1 556 5 is_stmt 1 view .LVU43
 556:Middlewares/lvgl/src/extra/widgets/span/lv_span.c ****     area->y2 -= bottom;
 212              		.loc 1 556 14 is_stmt 0 view .LVU44
 213 0050 6388     		ldrh	r3, [r4, #2]
 214 0052 1E44     		add	r6, r6, r3
 215              	.LVL12:
 556:Middlewares/lvgl/src/extra/widgets/span/lv_span.c ****     area->y2 -= bottom;
 216              		.loc 1 556 14 view .LVU45
 217 0054 6680     		strh	r6, [r4, #2]	@ movhi
 557:Middlewares/lvgl/src/extra/widgets/span/lv_span.c **** }
 218              		.loc 1 557 5 is_stmt 1 view .LVU46
 557:Middlewares/lvgl/src/extra/widgets/span/lv_span.c **** }
 219              		.loc 1 557 14 is_stmt 0 view .LVU47
 220 0056 E388     		ldrh	r3, [r4, #6]
 221 0058 1B1A     		subs	r3, r3, r0
 222 005a E380     		strh	r3, [r4, #6]	@ movhi
 558:Middlewares/lvgl/src/extra/widgets/span/lv_span.c **** 
 223              		.loc 1 558 1 view .LVU48
 224 005c BDE8F081 		pop	{r4, r5, r6, r7, r8, pc}
 558:Middlewares/lvgl/src/extra/widgets/span/lv_span.c **** 
 225              		.loc 1 558 1 view .LVU49
 226              		.cfi_endproc
 227              	.LFE205:
 229              		.section	.text.lv_span_get_style_text_letter_space,"ax",%progbits
 230              		.align	1
 231              		.syntax unified
 232              		.thumb
ARM GAS  /tmp/cc1iaYtN.s 			page 18


 233              		.thumb_func
 235              	lv_span_get_style_text_letter_space:
 236              	.LVL13:
 237              	.LFB212:
 605:Middlewares/lvgl/src/extra/widgets/span/lv_span.c **** 
 606:Middlewares/lvgl/src/extra/widgets/span/lv_span.c **** static const lv_font_t * lv_span_get_style_text_font(lv_obj_t * par, lv_span_t * span)
 607:Middlewares/lvgl/src/extra/widgets/span/lv_span.c **** {
 608:Middlewares/lvgl/src/extra/widgets/span/lv_span.c ****     const lv_font_t * font;
 609:Middlewares/lvgl/src/extra/widgets/span/lv_span.c ****     lv_style_value_t value;
 610:Middlewares/lvgl/src/extra/widgets/span/lv_span.c ****     lv_res_t res = lv_style_get_prop(&span->style, LV_STYLE_TEXT_FONT, &value);
 611:Middlewares/lvgl/src/extra/widgets/span/lv_span.c ****     if(res != LV_RES_OK) {
 612:Middlewares/lvgl/src/extra/widgets/span/lv_span.c ****         font = lv_obj_get_style_text_font(par, LV_PART_MAIN);
 613:Middlewares/lvgl/src/extra/widgets/span/lv_span.c ****     }
 614:Middlewares/lvgl/src/extra/widgets/span/lv_span.c ****     else {
 615:Middlewares/lvgl/src/extra/widgets/span/lv_span.c ****         font = (const lv_font_t *)value.ptr;
 616:Middlewares/lvgl/src/extra/widgets/span/lv_span.c ****     }
 617:Middlewares/lvgl/src/extra/widgets/span/lv_span.c ****     return font;
 618:Middlewares/lvgl/src/extra/widgets/span/lv_span.c **** }
 619:Middlewares/lvgl/src/extra/widgets/span/lv_span.c **** 
 620:Middlewares/lvgl/src/extra/widgets/span/lv_span.c **** static lv_coord_t lv_span_get_style_text_letter_space(lv_obj_t * par, lv_span_t * span)
 621:Middlewares/lvgl/src/extra/widgets/span/lv_span.c **** {
 238              		.loc 1 621 1 is_stmt 1 view -0
 239              		.cfi_startproc
 240              		@ args = 0, pretend = 0, frame = 8
 241              		@ frame_needed = 0, uses_anonymous_args = 0
 242              		.loc 1 621 1 is_stmt 0 view .LVU51
 243 0000 10B5     		push	{r4, lr}
 244              	.LCFI1:
 245              		.cfi_def_cfa_offset 8
 246              		.cfi_offset 4, -8
 247              		.cfi_offset 14, -4
 248 0002 82B0     		sub	sp, sp, #8
 249              	.LCFI2:
 250              		.cfi_def_cfa_offset 16
 251 0004 0446     		mov	r4, r0
 252 0006 0846     		mov	r0, r1
 253              	.LVL14:
 622:Middlewares/lvgl/src/extra/widgets/span/lv_span.c ****     lv_coord_t letter_space;
 254              		.loc 1 622 5 is_stmt 1 view .LVU52
 623:Middlewares/lvgl/src/extra/widgets/span/lv_span.c ****     lv_style_value_t value;
 255              		.loc 1 623 5 view .LVU53
 624:Middlewares/lvgl/src/extra/widgets/span/lv_span.c ****     lv_res_t res = lv_style_get_prop(&span->style, LV_STYLE_TEXT_LETTER_SPACE, &value);
 256              		.loc 1 624 5 view .LVU54
 257              		.loc 1 624 20 is_stmt 0 view .LVU55
 258 0008 01AA     		add	r2, sp, #4
 259 000a 41F25A41 		movw	r1, #5210
 260              	.LVL15:
 261              		.loc 1 624 20 view .LVU56
 262 000e 0430     		adds	r0, r0, #4
 263              	.LVL16:
 264              		.loc 1 624 20 view .LVU57
 265 0010 FFF7FEFF 		bl	lv_style_get_prop
 266              	.LVL17:
 625:Middlewares/lvgl/src/extra/widgets/span/lv_span.c ****     if(res != LV_RES_OK) {
 267              		.loc 1 625 5 is_stmt 1 view .LVU58
 268              		.loc 1 625 7 is_stmt 0 view .LVU59
 269 0014 0128     		cmp	r0, #1
ARM GAS  /tmp/cc1iaYtN.s 			page 19


 270 0016 03D1     		bne	.L16
 626:Middlewares/lvgl/src/extra/widgets/span/lv_span.c ****         letter_space = lv_obj_get_style_text_letter_space(par, LV_PART_MAIN);
 627:Middlewares/lvgl/src/extra/widgets/span/lv_span.c ****     }
 628:Middlewares/lvgl/src/extra/widgets/span/lv_span.c ****     else {
 629:Middlewares/lvgl/src/extra/widgets/span/lv_span.c ****         letter_space = (lv_coord_t)value.num;
 271              		.loc 1 629 9 is_stmt 1 view .LVU60
 272              		.loc 1 629 22 is_stmt 0 view .LVU61
 273 0018 BDF90400 		ldrsh	r0, [sp, #4]
 274              	.LVL18:
 275              	.L14:
 630:Middlewares/lvgl/src/extra/widgets/span/lv_span.c ****     }
 631:Middlewares/lvgl/src/extra/widgets/span/lv_span.c ****     return letter_space;
 276              		.loc 1 631 5 is_stmt 1 view .LVU62
 632:Middlewares/lvgl/src/extra/widgets/span/lv_span.c **** }
 277              		.loc 1 632 1 is_stmt 0 view .LVU63
 278 001c 02B0     		add	sp, sp, #8
 279              	.LCFI3:
 280              		.cfi_remember_state
 281              		.cfi_def_cfa_offset 8
 282              		@ sp needed
 283 001e 10BD     		pop	{r4, pc}
 284              	.LVL19:
 285              	.L16:
 286              	.LCFI4:
 287              		.cfi_restore_state
 626:Middlewares/lvgl/src/extra/widgets/span/lv_span.c ****         letter_space = lv_obj_get_style_text_letter_space(par, LV_PART_MAIN);
 288              		.loc 1 626 9 is_stmt 1 view .LVU64
 289              	.LBB100:
 290              	.LBI100:
 113:Middlewares/lvgl/src/extra/widgets/span/../../../../src/core/lv_obj_style_gen.h **** }
 114:Middlewares/lvgl/src/extra/widgets/span/../../../../src/core/lv_obj_style_gen.h **** 
 115:Middlewares/lvgl/src/extra/widgets/span/../../../../src/core/lv_obj_style_gen.h **** static inline lv_coord_t lv_obj_get_style_pad_row(const struct _lv_obj_t * obj, uint32_t part)
 116:Middlewares/lvgl/src/extra/widgets/span/../../../../src/core/lv_obj_style_gen.h **** {
 117:Middlewares/lvgl/src/extra/widgets/span/../../../../src/core/lv_obj_style_gen.h ****     lv_style_value_t v = lv_obj_get_style_prop(obj, part, LV_STYLE_PAD_ROW);
 118:Middlewares/lvgl/src/extra/widgets/span/../../../../src/core/lv_obj_style_gen.h ****     return (lv_coord_t)v.num;
 119:Middlewares/lvgl/src/extra/widgets/span/../../../../src/core/lv_obj_style_gen.h **** }
 120:Middlewares/lvgl/src/extra/widgets/span/../../../../src/core/lv_obj_style_gen.h **** 
 121:Middlewares/lvgl/src/extra/widgets/span/../../../../src/core/lv_obj_style_gen.h **** static inline lv_coord_t lv_obj_get_style_pad_column(const struct _lv_obj_t * obj, uint32_t part)
 122:Middlewares/lvgl/src/extra/widgets/span/../../../../src/core/lv_obj_style_gen.h **** {
 123:Middlewares/lvgl/src/extra/widgets/span/../../../../src/core/lv_obj_style_gen.h ****     lv_style_value_t v = lv_obj_get_style_prop(obj, part, LV_STYLE_PAD_COLUMN);
 124:Middlewares/lvgl/src/extra/widgets/span/../../../../src/core/lv_obj_style_gen.h ****     return (lv_coord_t)v.num;
 125:Middlewares/lvgl/src/extra/widgets/span/../../../../src/core/lv_obj_style_gen.h **** }
 126:Middlewares/lvgl/src/extra/widgets/span/../../../../src/core/lv_obj_style_gen.h **** 
 127:Middlewares/lvgl/src/extra/widgets/span/../../../../src/core/lv_obj_style_gen.h **** static inline lv_coord_t lv_obj_get_style_radius(const struct _lv_obj_t * obj, uint32_t part)
 128:Middlewares/lvgl/src/extra/widgets/span/../../../../src/core/lv_obj_style_gen.h **** {
 129:Middlewares/lvgl/src/extra/widgets/span/../../../../src/core/lv_obj_style_gen.h ****     lv_style_value_t v = lv_obj_get_style_prop(obj, part, LV_STYLE_RADIUS);
 130:Middlewares/lvgl/src/extra/widgets/span/../../../../src/core/lv_obj_style_gen.h ****     return (lv_coord_t)v.num;
 131:Middlewares/lvgl/src/extra/widgets/span/../../../../src/core/lv_obj_style_gen.h **** }
 132:Middlewares/lvgl/src/extra/widgets/span/../../../../src/core/lv_obj_style_gen.h **** 
 133:Middlewares/lvgl/src/extra/widgets/span/../../../../src/core/lv_obj_style_gen.h **** static inline bool lv_obj_get_style_clip_corner(const struct _lv_obj_t * obj, uint32_t part)
 134:Middlewares/lvgl/src/extra/widgets/span/../../../../src/core/lv_obj_style_gen.h **** {
 135:Middlewares/lvgl/src/extra/widgets/span/../../../../src/core/lv_obj_style_gen.h ****     lv_style_value_t v = lv_obj_get_style_prop(obj, part, LV_STYLE_CLIP_CORNER);
 136:Middlewares/lvgl/src/extra/widgets/span/../../../../src/core/lv_obj_style_gen.h ****     return (bool)v.num;
 137:Middlewares/lvgl/src/extra/widgets/span/../../../../src/core/lv_obj_style_gen.h **** }
 138:Middlewares/lvgl/src/extra/widgets/span/../../../../src/core/lv_obj_style_gen.h **** 
 139:Middlewares/lvgl/src/extra/widgets/span/../../../../src/core/lv_obj_style_gen.h **** static inline lv_opa_t lv_obj_get_style_opa(const struct _lv_obj_t * obj, uint32_t part)
 140:Middlewares/lvgl/src/extra/widgets/span/../../../../src/core/lv_obj_style_gen.h **** {
ARM GAS  /tmp/cc1iaYtN.s 			page 20


 141:Middlewares/lvgl/src/extra/widgets/span/../../../../src/core/lv_obj_style_gen.h ****     lv_style_value_t v = lv_obj_get_style_prop(obj, part, LV_STYLE_OPA);
 142:Middlewares/lvgl/src/extra/widgets/span/../../../../src/core/lv_obj_style_gen.h ****     return (lv_opa_t)v.num;
 143:Middlewares/lvgl/src/extra/widgets/span/../../../../src/core/lv_obj_style_gen.h **** }
 144:Middlewares/lvgl/src/extra/widgets/span/../../../../src/core/lv_obj_style_gen.h **** 
 145:Middlewares/lvgl/src/extra/widgets/span/../../../../src/core/lv_obj_style_gen.h **** static inline const lv_color_filter_dsc_t * lv_obj_get_style_color_filter_dsc(const struct _lv_obj_
 146:Middlewares/lvgl/src/extra/widgets/span/../../../../src/core/lv_obj_style_gen.h **** {
 147:Middlewares/lvgl/src/extra/widgets/span/../../../../src/core/lv_obj_style_gen.h ****     lv_style_value_t v = lv_obj_get_style_prop(obj, part, LV_STYLE_COLOR_FILTER_DSC);
 148:Middlewares/lvgl/src/extra/widgets/span/../../../../src/core/lv_obj_style_gen.h ****     return (const lv_color_filter_dsc_t *)v.ptr;
 149:Middlewares/lvgl/src/extra/widgets/span/../../../../src/core/lv_obj_style_gen.h **** }
 150:Middlewares/lvgl/src/extra/widgets/span/../../../../src/core/lv_obj_style_gen.h **** 
 151:Middlewares/lvgl/src/extra/widgets/span/../../../../src/core/lv_obj_style_gen.h **** static inline lv_opa_t lv_obj_get_style_color_filter_opa(const struct _lv_obj_t * obj, uint32_t par
 152:Middlewares/lvgl/src/extra/widgets/span/../../../../src/core/lv_obj_style_gen.h **** {
 153:Middlewares/lvgl/src/extra/widgets/span/../../../../src/core/lv_obj_style_gen.h ****     lv_style_value_t v = lv_obj_get_style_prop(obj, part, LV_STYLE_COLOR_FILTER_OPA);
 154:Middlewares/lvgl/src/extra/widgets/span/../../../../src/core/lv_obj_style_gen.h ****     return (lv_opa_t)v.num;
 155:Middlewares/lvgl/src/extra/widgets/span/../../../../src/core/lv_obj_style_gen.h **** }
 156:Middlewares/lvgl/src/extra/widgets/span/../../../../src/core/lv_obj_style_gen.h **** 
 157:Middlewares/lvgl/src/extra/widgets/span/../../../../src/core/lv_obj_style_gen.h **** static inline uint32_t lv_obj_get_style_anim_time(const struct _lv_obj_t * obj, uint32_t part)
 158:Middlewares/lvgl/src/extra/widgets/span/../../../../src/core/lv_obj_style_gen.h **** {
 159:Middlewares/lvgl/src/extra/widgets/span/../../../../src/core/lv_obj_style_gen.h ****     lv_style_value_t v = lv_obj_get_style_prop(obj, part, LV_STYLE_ANIM_TIME);
 160:Middlewares/lvgl/src/extra/widgets/span/../../../../src/core/lv_obj_style_gen.h ****     return (uint32_t)v.num;
 161:Middlewares/lvgl/src/extra/widgets/span/../../../../src/core/lv_obj_style_gen.h **** }
 162:Middlewares/lvgl/src/extra/widgets/span/../../../../src/core/lv_obj_style_gen.h **** 
 163:Middlewares/lvgl/src/extra/widgets/span/../../../../src/core/lv_obj_style_gen.h **** static inline uint32_t lv_obj_get_style_anim_speed(const struct _lv_obj_t * obj, uint32_t part)
 164:Middlewares/lvgl/src/extra/widgets/span/../../../../src/core/lv_obj_style_gen.h **** {
 165:Middlewares/lvgl/src/extra/widgets/span/../../../../src/core/lv_obj_style_gen.h ****     lv_style_value_t v = lv_obj_get_style_prop(obj, part, LV_STYLE_ANIM_SPEED);
 166:Middlewares/lvgl/src/extra/widgets/span/../../../../src/core/lv_obj_style_gen.h ****     return (uint32_t)v.num;
 167:Middlewares/lvgl/src/extra/widgets/span/../../../../src/core/lv_obj_style_gen.h **** }
 168:Middlewares/lvgl/src/extra/widgets/span/../../../../src/core/lv_obj_style_gen.h **** 
 169:Middlewares/lvgl/src/extra/widgets/span/../../../../src/core/lv_obj_style_gen.h **** static inline const lv_style_transition_dsc_t * lv_obj_get_style_transition(const struct _lv_obj_t 
 170:Middlewares/lvgl/src/extra/widgets/span/../../../../src/core/lv_obj_style_gen.h **** {
 171:Middlewares/lvgl/src/extra/widgets/span/../../../../src/core/lv_obj_style_gen.h ****     lv_style_value_t v = lv_obj_get_style_prop(obj, part, LV_STYLE_TRANSITION);
 172:Middlewares/lvgl/src/extra/widgets/span/../../../../src/core/lv_obj_style_gen.h ****     return (const lv_style_transition_dsc_t *)v.ptr;
 173:Middlewares/lvgl/src/extra/widgets/span/../../../../src/core/lv_obj_style_gen.h **** }
 174:Middlewares/lvgl/src/extra/widgets/span/../../../../src/core/lv_obj_style_gen.h **** 
 175:Middlewares/lvgl/src/extra/widgets/span/../../../../src/core/lv_obj_style_gen.h **** static inline lv_blend_mode_t lv_obj_get_style_blend_mode(const struct _lv_obj_t * obj, uint32_t pa
 176:Middlewares/lvgl/src/extra/widgets/span/../../../../src/core/lv_obj_style_gen.h **** {
 177:Middlewares/lvgl/src/extra/widgets/span/../../../../src/core/lv_obj_style_gen.h ****     lv_style_value_t v = lv_obj_get_style_prop(obj, part, LV_STYLE_BLEND_MODE);
 178:Middlewares/lvgl/src/extra/widgets/span/../../../../src/core/lv_obj_style_gen.h ****     return (lv_blend_mode_t)v.num;
 179:Middlewares/lvgl/src/extra/widgets/span/../../../../src/core/lv_obj_style_gen.h **** }
 180:Middlewares/lvgl/src/extra/widgets/span/../../../../src/core/lv_obj_style_gen.h **** 
 181:Middlewares/lvgl/src/extra/widgets/span/../../../../src/core/lv_obj_style_gen.h **** static inline uint16_t lv_obj_get_style_layout(const struct _lv_obj_t * obj, uint32_t part)
 182:Middlewares/lvgl/src/extra/widgets/span/../../../../src/core/lv_obj_style_gen.h **** {
 183:Middlewares/lvgl/src/extra/widgets/span/../../../../src/core/lv_obj_style_gen.h ****     lv_style_value_t v = lv_obj_get_style_prop(obj, part, LV_STYLE_LAYOUT);
 184:Middlewares/lvgl/src/extra/widgets/span/../../../../src/core/lv_obj_style_gen.h ****     return (uint16_t)v.num;
 185:Middlewares/lvgl/src/extra/widgets/span/../../../../src/core/lv_obj_style_gen.h **** }
 186:Middlewares/lvgl/src/extra/widgets/span/../../../../src/core/lv_obj_style_gen.h **** 
 187:Middlewares/lvgl/src/extra/widgets/span/../../../../src/core/lv_obj_style_gen.h **** static inline lv_base_dir_t lv_obj_get_style_base_dir(const struct _lv_obj_t * obj, uint32_t part)
 188:Middlewares/lvgl/src/extra/widgets/span/../../../../src/core/lv_obj_style_gen.h **** {
 189:Middlewares/lvgl/src/extra/widgets/span/../../../../src/core/lv_obj_style_gen.h ****     lv_style_value_t v = lv_obj_get_style_prop(obj, part, LV_STYLE_BASE_DIR);
 190:Middlewares/lvgl/src/extra/widgets/span/../../../../src/core/lv_obj_style_gen.h ****     return (lv_base_dir_t)v.num;
 191:Middlewares/lvgl/src/extra/widgets/span/../../../../src/core/lv_obj_style_gen.h **** }
 192:Middlewares/lvgl/src/extra/widgets/span/../../../../src/core/lv_obj_style_gen.h **** 
 193:Middlewares/lvgl/src/extra/widgets/span/../../../../src/core/lv_obj_style_gen.h **** static inline lv_color_t lv_obj_get_style_bg_color(const struct _lv_obj_t * obj, uint32_t part)
 194:Middlewares/lvgl/src/extra/widgets/span/../../../../src/core/lv_obj_style_gen.h **** {
 195:Middlewares/lvgl/src/extra/widgets/span/../../../../src/core/lv_obj_style_gen.h ****     lv_style_value_t v = lv_obj_get_style_prop(obj, part, LV_STYLE_BG_COLOR);
 196:Middlewares/lvgl/src/extra/widgets/span/../../../../src/core/lv_obj_style_gen.h ****     return v.color;
 197:Middlewares/lvgl/src/extra/widgets/span/../../../../src/core/lv_obj_style_gen.h **** }
ARM GAS  /tmp/cc1iaYtN.s 			page 21


 198:Middlewares/lvgl/src/extra/widgets/span/../../../../src/core/lv_obj_style_gen.h **** 
 199:Middlewares/lvgl/src/extra/widgets/span/../../../../src/core/lv_obj_style_gen.h **** static inline lv_color_t lv_obj_get_style_bg_color_filtered(const struct _lv_obj_t * obj, uint32_t 
 200:Middlewares/lvgl/src/extra/widgets/span/../../../../src/core/lv_obj_style_gen.h **** {
 201:Middlewares/lvgl/src/extra/widgets/span/../../../../src/core/lv_obj_style_gen.h ****     lv_style_value_t v = lv_obj_get_style_prop(obj, part, LV_STYLE_BG_COLOR_FILTERED);
 202:Middlewares/lvgl/src/extra/widgets/span/../../../../src/core/lv_obj_style_gen.h ****     return v.color;
 203:Middlewares/lvgl/src/extra/widgets/span/../../../../src/core/lv_obj_style_gen.h **** }
 204:Middlewares/lvgl/src/extra/widgets/span/../../../../src/core/lv_obj_style_gen.h **** 
 205:Middlewares/lvgl/src/extra/widgets/span/../../../../src/core/lv_obj_style_gen.h **** static inline lv_opa_t lv_obj_get_style_bg_opa(const struct _lv_obj_t * obj, uint32_t part)
 206:Middlewares/lvgl/src/extra/widgets/span/../../../../src/core/lv_obj_style_gen.h **** {
 207:Middlewares/lvgl/src/extra/widgets/span/../../../../src/core/lv_obj_style_gen.h ****     lv_style_value_t v = lv_obj_get_style_prop(obj, part, LV_STYLE_BG_OPA);
 208:Middlewares/lvgl/src/extra/widgets/span/../../../../src/core/lv_obj_style_gen.h ****     return (lv_opa_t)v.num;
 209:Middlewares/lvgl/src/extra/widgets/span/../../../../src/core/lv_obj_style_gen.h **** }
 210:Middlewares/lvgl/src/extra/widgets/span/../../../../src/core/lv_obj_style_gen.h **** 
 211:Middlewares/lvgl/src/extra/widgets/span/../../../../src/core/lv_obj_style_gen.h **** static inline lv_color_t lv_obj_get_style_bg_grad_color(const struct _lv_obj_t * obj, uint32_t part
 212:Middlewares/lvgl/src/extra/widgets/span/../../../../src/core/lv_obj_style_gen.h **** {
 213:Middlewares/lvgl/src/extra/widgets/span/../../../../src/core/lv_obj_style_gen.h ****     lv_style_value_t v = lv_obj_get_style_prop(obj, part, LV_STYLE_BG_GRAD_COLOR);
 214:Middlewares/lvgl/src/extra/widgets/span/../../../../src/core/lv_obj_style_gen.h ****     return v.color;
 215:Middlewares/lvgl/src/extra/widgets/span/../../../../src/core/lv_obj_style_gen.h **** }
 216:Middlewares/lvgl/src/extra/widgets/span/../../../../src/core/lv_obj_style_gen.h **** 
 217:Middlewares/lvgl/src/extra/widgets/span/../../../../src/core/lv_obj_style_gen.h **** static inline lv_color_t lv_obj_get_style_bg_grad_color_filtered(const struct _lv_obj_t * obj, uint
 218:Middlewares/lvgl/src/extra/widgets/span/../../../../src/core/lv_obj_style_gen.h **** {
 219:Middlewares/lvgl/src/extra/widgets/span/../../../../src/core/lv_obj_style_gen.h ****     lv_style_value_t v = lv_obj_get_style_prop(obj, part, LV_STYLE_BG_GRAD_COLOR_FILTERED);
 220:Middlewares/lvgl/src/extra/widgets/span/../../../../src/core/lv_obj_style_gen.h ****     return v.color;
 221:Middlewares/lvgl/src/extra/widgets/span/../../../../src/core/lv_obj_style_gen.h **** }
 222:Middlewares/lvgl/src/extra/widgets/span/../../../../src/core/lv_obj_style_gen.h **** 
 223:Middlewares/lvgl/src/extra/widgets/span/../../../../src/core/lv_obj_style_gen.h **** static inline lv_grad_dir_t lv_obj_get_style_bg_grad_dir(const struct _lv_obj_t * obj, uint32_t par
 224:Middlewares/lvgl/src/extra/widgets/span/../../../../src/core/lv_obj_style_gen.h **** {
 225:Middlewares/lvgl/src/extra/widgets/span/../../../../src/core/lv_obj_style_gen.h ****     lv_style_value_t v = lv_obj_get_style_prop(obj, part, LV_STYLE_BG_GRAD_DIR);
 226:Middlewares/lvgl/src/extra/widgets/span/../../../../src/core/lv_obj_style_gen.h ****     return (lv_grad_dir_t)v.num;
 227:Middlewares/lvgl/src/extra/widgets/span/../../../../src/core/lv_obj_style_gen.h **** }
 228:Middlewares/lvgl/src/extra/widgets/span/../../../../src/core/lv_obj_style_gen.h **** 
 229:Middlewares/lvgl/src/extra/widgets/span/../../../../src/core/lv_obj_style_gen.h **** static inline lv_coord_t lv_obj_get_style_bg_main_stop(const struct _lv_obj_t * obj, uint32_t part)
 230:Middlewares/lvgl/src/extra/widgets/span/../../../../src/core/lv_obj_style_gen.h **** {
 231:Middlewares/lvgl/src/extra/widgets/span/../../../../src/core/lv_obj_style_gen.h ****     lv_style_value_t v = lv_obj_get_style_prop(obj, part, LV_STYLE_BG_MAIN_STOP);
 232:Middlewares/lvgl/src/extra/widgets/span/../../../../src/core/lv_obj_style_gen.h ****     return (lv_coord_t)v.num;
 233:Middlewares/lvgl/src/extra/widgets/span/../../../../src/core/lv_obj_style_gen.h **** }
 234:Middlewares/lvgl/src/extra/widgets/span/../../../../src/core/lv_obj_style_gen.h **** 
 235:Middlewares/lvgl/src/extra/widgets/span/../../../../src/core/lv_obj_style_gen.h **** static inline lv_coord_t lv_obj_get_style_bg_grad_stop(const struct _lv_obj_t * obj, uint32_t part)
 236:Middlewares/lvgl/src/extra/widgets/span/../../../../src/core/lv_obj_style_gen.h **** {
 237:Middlewares/lvgl/src/extra/widgets/span/../../../../src/core/lv_obj_style_gen.h ****     lv_style_value_t v = lv_obj_get_style_prop(obj, part, LV_STYLE_BG_GRAD_STOP);
 238:Middlewares/lvgl/src/extra/widgets/span/../../../../src/core/lv_obj_style_gen.h ****     return (lv_coord_t)v.num;
 239:Middlewares/lvgl/src/extra/widgets/span/../../../../src/core/lv_obj_style_gen.h **** }
 240:Middlewares/lvgl/src/extra/widgets/span/../../../../src/core/lv_obj_style_gen.h **** 
 241:Middlewares/lvgl/src/extra/widgets/span/../../../../src/core/lv_obj_style_gen.h **** static inline const void * lv_obj_get_style_bg_img_src(const struct _lv_obj_t * obj, uint32_t part)
 242:Middlewares/lvgl/src/extra/widgets/span/../../../../src/core/lv_obj_style_gen.h **** {
 243:Middlewares/lvgl/src/extra/widgets/span/../../../../src/core/lv_obj_style_gen.h ****     lv_style_value_t v = lv_obj_get_style_prop(obj, part, LV_STYLE_BG_IMG_SRC);
 244:Middlewares/lvgl/src/extra/widgets/span/../../../../src/core/lv_obj_style_gen.h ****     return (const void *)v.ptr;
 245:Middlewares/lvgl/src/extra/widgets/span/../../../../src/core/lv_obj_style_gen.h **** }
 246:Middlewares/lvgl/src/extra/widgets/span/../../../../src/core/lv_obj_style_gen.h **** 
 247:Middlewares/lvgl/src/extra/widgets/span/../../../../src/core/lv_obj_style_gen.h **** static inline lv_opa_t lv_obj_get_style_bg_img_opa(const struct _lv_obj_t * obj, uint32_t part)
 248:Middlewares/lvgl/src/extra/widgets/span/../../../../src/core/lv_obj_style_gen.h **** {
 249:Middlewares/lvgl/src/extra/widgets/span/../../../../src/core/lv_obj_style_gen.h ****     lv_style_value_t v = lv_obj_get_style_prop(obj, part, LV_STYLE_BG_IMG_OPA);
 250:Middlewares/lvgl/src/extra/widgets/span/../../../../src/core/lv_obj_style_gen.h ****     return (lv_opa_t)v.num;
 251:Middlewares/lvgl/src/extra/widgets/span/../../../../src/core/lv_obj_style_gen.h **** }
 252:Middlewares/lvgl/src/extra/widgets/span/../../../../src/core/lv_obj_style_gen.h **** 
 253:Middlewares/lvgl/src/extra/widgets/span/../../../../src/core/lv_obj_style_gen.h **** static inline lv_color_t lv_obj_get_style_bg_img_recolor(const struct _lv_obj_t * obj, uint32_t par
 254:Middlewares/lvgl/src/extra/widgets/span/../../../../src/core/lv_obj_style_gen.h **** {
ARM GAS  /tmp/cc1iaYtN.s 			page 22


 255:Middlewares/lvgl/src/extra/widgets/span/../../../../src/core/lv_obj_style_gen.h ****     lv_style_value_t v = lv_obj_get_style_prop(obj, part, LV_STYLE_BG_IMG_RECOLOR);
 256:Middlewares/lvgl/src/extra/widgets/span/../../../../src/core/lv_obj_style_gen.h ****     return v.color;
 257:Middlewares/lvgl/src/extra/widgets/span/../../../../src/core/lv_obj_style_gen.h **** }
 258:Middlewares/lvgl/src/extra/widgets/span/../../../../src/core/lv_obj_style_gen.h **** 
 259:Middlewares/lvgl/src/extra/widgets/span/../../../../src/core/lv_obj_style_gen.h **** static inline lv_color_t lv_obj_get_style_bg_img_recolor_filtered(const struct _lv_obj_t * obj, uin
 260:Middlewares/lvgl/src/extra/widgets/span/../../../../src/core/lv_obj_style_gen.h **** {
 261:Middlewares/lvgl/src/extra/widgets/span/../../../../src/core/lv_obj_style_gen.h ****     lv_style_value_t v = lv_obj_get_style_prop(obj, part, LV_STYLE_BG_IMG_RECOLOR_FILTERED);
 262:Middlewares/lvgl/src/extra/widgets/span/../../../../src/core/lv_obj_style_gen.h ****     return v.color;
 263:Middlewares/lvgl/src/extra/widgets/span/../../../../src/core/lv_obj_style_gen.h **** }
 264:Middlewares/lvgl/src/extra/widgets/span/../../../../src/core/lv_obj_style_gen.h **** 
 265:Middlewares/lvgl/src/extra/widgets/span/../../../../src/core/lv_obj_style_gen.h **** static inline lv_opa_t lv_obj_get_style_bg_img_recolor_opa(const struct _lv_obj_t * obj, uint32_t p
 266:Middlewares/lvgl/src/extra/widgets/span/../../../../src/core/lv_obj_style_gen.h **** {
 267:Middlewares/lvgl/src/extra/widgets/span/../../../../src/core/lv_obj_style_gen.h ****     lv_style_value_t v = lv_obj_get_style_prop(obj, part, LV_STYLE_BG_IMG_RECOLOR_OPA);
 268:Middlewares/lvgl/src/extra/widgets/span/../../../../src/core/lv_obj_style_gen.h ****     return (lv_opa_t)v.num;
 269:Middlewares/lvgl/src/extra/widgets/span/../../../../src/core/lv_obj_style_gen.h **** }
 270:Middlewares/lvgl/src/extra/widgets/span/../../../../src/core/lv_obj_style_gen.h **** 
 271:Middlewares/lvgl/src/extra/widgets/span/../../../../src/core/lv_obj_style_gen.h **** static inline bool lv_obj_get_style_bg_img_tiled(const struct _lv_obj_t * obj, uint32_t part)
 272:Middlewares/lvgl/src/extra/widgets/span/../../../../src/core/lv_obj_style_gen.h **** {
 273:Middlewares/lvgl/src/extra/widgets/span/../../../../src/core/lv_obj_style_gen.h ****     lv_style_value_t v = lv_obj_get_style_prop(obj, part, LV_STYLE_BG_IMG_TILED);
 274:Middlewares/lvgl/src/extra/widgets/span/../../../../src/core/lv_obj_style_gen.h ****     return (bool)v.num;
 275:Middlewares/lvgl/src/extra/widgets/span/../../../../src/core/lv_obj_style_gen.h **** }
 276:Middlewares/lvgl/src/extra/widgets/span/../../../../src/core/lv_obj_style_gen.h **** 
 277:Middlewares/lvgl/src/extra/widgets/span/../../../../src/core/lv_obj_style_gen.h **** static inline lv_color_t lv_obj_get_style_border_color(const struct _lv_obj_t * obj, uint32_t part)
 278:Middlewares/lvgl/src/extra/widgets/span/../../../../src/core/lv_obj_style_gen.h **** {
 279:Middlewares/lvgl/src/extra/widgets/span/../../../../src/core/lv_obj_style_gen.h ****     lv_style_value_t v = lv_obj_get_style_prop(obj, part, LV_STYLE_BORDER_COLOR);
 280:Middlewares/lvgl/src/extra/widgets/span/../../../../src/core/lv_obj_style_gen.h ****     return v.color;
 281:Middlewares/lvgl/src/extra/widgets/span/../../../../src/core/lv_obj_style_gen.h **** }
 282:Middlewares/lvgl/src/extra/widgets/span/../../../../src/core/lv_obj_style_gen.h **** 
 283:Middlewares/lvgl/src/extra/widgets/span/../../../../src/core/lv_obj_style_gen.h **** static inline lv_color_t lv_obj_get_style_border_color_filtered(const struct _lv_obj_t * obj, uint3
 284:Middlewares/lvgl/src/extra/widgets/span/../../../../src/core/lv_obj_style_gen.h **** {
 285:Middlewares/lvgl/src/extra/widgets/span/../../../../src/core/lv_obj_style_gen.h ****     lv_style_value_t v = lv_obj_get_style_prop(obj, part, LV_STYLE_BORDER_COLOR_FILTERED);
 286:Middlewares/lvgl/src/extra/widgets/span/../../../../src/core/lv_obj_style_gen.h ****     return v.color;
 287:Middlewares/lvgl/src/extra/widgets/span/../../../../src/core/lv_obj_style_gen.h **** }
 288:Middlewares/lvgl/src/extra/widgets/span/../../../../src/core/lv_obj_style_gen.h **** 
 289:Middlewares/lvgl/src/extra/widgets/span/../../../../src/core/lv_obj_style_gen.h **** static inline lv_opa_t lv_obj_get_style_border_opa(const struct _lv_obj_t * obj, uint32_t part)
 290:Middlewares/lvgl/src/extra/widgets/span/../../../../src/core/lv_obj_style_gen.h **** {
 291:Middlewares/lvgl/src/extra/widgets/span/../../../../src/core/lv_obj_style_gen.h ****     lv_style_value_t v = lv_obj_get_style_prop(obj, part, LV_STYLE_BORDER_OPA);
 292:Middlewares/lvgl/src/extra/widgets/span/../../../../src/core/lv_obj_style_gen.h ****     return (lv_opa_t)v.num;
 293:Middlewares/lvgl/src/extra/widgets/span/../../../../src/core/lv_obj_style_gen.h **** }
 294:Middlewares/lvgl/src/extra/widgets/span/../../../../src/core/lv_obj_style_gen.h **** 
 295:Middlewares/lvgl/src/extra/widgets/span/../../../../src/core/lv_obj_style_gen.h **** static inline lv_coord_t lv_obj_get_style_border_width(const struct _lv_obj_t * obj, uint32_t part)
 296:Middlewares/lvgl/src/extra/widgets/span/../../../../src/core/lv_obj_style_gen.h **** {
 297:Middlewares/lvgl/src/extra/widgets/span/../../../../src/core/lv_obj_style_gen.h ****     lv_style_value_t v = lv_obj_get_style_prop(obj, part, LV_STYLE_BORDER_WIDTH);
 298:Middlewares/lvgl/src/extra/widgets/span/../../../../src/core/lv_obj_style_gen.h ****     return (lv_coord_t)v.num;
 299:Middlewares/lvgl/src/extra/widgets/span/../../../../src/core/lv_obj_style_gen.h **** }
 300:Middlewares/lvgl/src/extra/widgets/span/../../../../src/core/lv_obj_style_gen.h **** 
 301:Middlewares/lvgl/src/extra/widgets/span/../../../../src/core/lv_obj_style_gen.h **** static inline lv_border_side_t lv_obj_get_style_border_side(const struct _lv_obj_t * obj, uint32_t 
 302:Middlewares/lvgl/src/extra/widgets/span/../../../../src/core/lv_obj_style_gen.h **** {
 303:Middlewares/lvgl/src/extra/widgets/span/../../../../src/core/lv_obj_style_gen.h ****     lv_style_value_t v = lv_obj_get_style_prop(obj, part, LV_STYLE_BORDER_SIDE);
 304:Middlewares/lvgl/src/extra/widgets/span/../../../../src/core/lv_obj_style_gen.h ****     return (lv_border_side_t)v.num;
 305:Middlewares/lvgl/src/extra/widgets/span/../../../../src/core/lv_obj_style_gen.h **** }
 306:Middlewares/lvgl/src/extra/widgets/span/../../../../src/core/lv_obj_style_gen.h **** 
 307:Middlewares/lvgl/src/extra/widgets/span/../../../../src/core/lv_obj_style_gen.h **** static inline bool lv_obj_get_style_border_post(const struct _lv_obj_t * obj, uint32_t part)
 308:Middlewares/lvgl/src/extra/widgets/span/../../../../src/core/lv_obj_style_gen.h **** {
 309:Middlewares/lvgl/src/extra/widgets/span/../../../../src/core/lv_obj_style_gen.h ****     lv_style_value_t v = lv_obj_get_style_prop(obj, part, LV_STYLE_BORDER_POST);
 310:Middlewares/lvgl/src/extra/widgets/span/../../../../src/core/lv_obj_style_gen.h ****     return (bool)v.num;
 311:Middlewares/lvgl/src/extra/widgets/span/../../../../src/core/lv_obj_style_gen.h **** }
ARM GAS  /tmp/cc1iaYtN.s 			page 23


 312:Middlewares/lvgl/src/extra/widgets/span/../../../../src/core/lv_obj_style_gen.h **** 
 313:Middlewares/lvgl/src/extra/widgets/span/../../../../src/core/lv_obj_style_gen.h **** static inline lv_color_t lv_obj_get_style_text_color(const struct _lv_obj_t * obj, uint32_t part)
 314:Middlewares/lvgl/src/extra/widgets/span/../../../../src/core/lv_obj_style_gen.h **** {
 315:Middlewares/lvgl/src/extra/widgets/span/../../../../src/core/lv_obj_style_gen.h ****     lv_style_value_t v = lv_obj_get_style_prop(obj, part, LV_STYLE_TEXT_COLOR);
 316:Middlewares/lvgl/src/extra/widgets/span/../../../../src/core/lv_obj_style_gen.h ****     return v.color;
 317:Middlewares/lvgl/src/extra/widgets/span/../../../../src/core/lv_obj_style_gen.h **** }
 318:Middlewares/lvgl/src/extra/widgets/span/../../../../src/core/lv_obj_style_gen.h **** 
 319:Middlewares/lvgl/src/extra/widgets/span/../../../../src/core/lv_obj_style_gen.h **** static inline lv_color_t lv_obj_get_style_text_color_filtered(const struct _lv_obj_t * obj, uint32_
 320:Middlewares/lvgl/src/extra/widgets/span/../../../../src/core/lv_obj_style_gen.h **** {
 321:Middlewares/lvgl/src/extra/widgets/span/../../../../src/core/lv_obj_style_gen.h ****     lv_style_value_t v = lv_obj_get_style_prop(obj, part, LV_STYLE_TEXT_COLOR_FILTERED);
 322:Middlewares/lvgl/src/extra/widgets/span/../../../../src/core/lv_obj_style_gen.h ****     return v.color;
 323:Middlewares/lvgl/src/extra/widgets/span/../../../../src/core/lv_obj_style_gen.h **** }
 324:Middlewares/lvgl/src/extra/widgets/span/../../../../src/core/lv_obj_style_gen.h **** 
 325:Middlewares/lvgl/src/extra/widgets/span/../../../../src/core/lv_obj_style_gen.h **** static inline lv_opa_t lv_obj_get_style_text_opa(const struct _lv_obj_t * obj, uint32_t part)
 326:Middlewares/lvgl/src/extra/widgets/span/../../../../src/core/lv_obj_style_gen.h **** {
 327:Middlewares/lvgl/src/extra/widgets/span/../../../../src/core/lv_obj_style_gen.h ****     lv_style_value_t v = lv_obj_get_style_prop(obj, part, LV_STYLE_TEXT_OPA);
 328:Middlewares/lvgl/src/extra/widgets/span/../../../../src/core/lv_obj_style_gen.h ****     return (lv_opa_t)v.num;
 329:Middlewares/lvgl/src/extra/widgets/span/../../../../src/core/lv_obj_style_gen.h **** }
 330:Middlewares/lvgl/src/extra/widgets/span/../../../../src/core/lv_obj_style_gen.h **** 
 331:Middlewares/lvgl/src/extra/widgets/span/../../../../src/core/lv_obj_style_gen.h **** static inline const lv_font_t * lv_obj_get_style_text_font(const struct _lv_obj_t * obj, uint32_t p
 332:Middlewares/lvgl/src/extra/widgets/span/../../../../src/core/lv_obj_style_gen.h **** {
 333:Middlewares/lvgl/src/extra/widgets/span/../../../../src/core/lv_obj_style_gen.h ****     lv_style_value_t v = lv_obj_get_style_prop(obj, part, LV_STYLE_TEXT_FONT);
 334:Middlewares/lvgl/src/extra/widgets/span/../../../../src/core/lv_obj_style_gen.h ****     return (const lv_font_t *)v.ptr;
 335:Middlewares/lvgl/src/extra/widgets/span/../../../../src/core/lv_obj_style_gen.h **** }
 336:Middlewares/lvgl/src/extra/widgets/span/../../../../src/core/lv_obj_style_gen.h **** 
 337:Middlewares/lvgl/src/extra/widgets/span/../../../../src/core/lv_obj_style_gen.h **** static inline lv_coord_t lv_obj_get_style_text_letter_space(const struct _lv_obj_t * obj, uint32_t 
 291              		.loc 2 337 26 view .LVU65
 292              	.LBB101:
 338:Middlewares/lvgl/src/extra/widgets/span/../../../../src/core/lv_obj_style_gen.h **** {
 339:Middlewares/lvgl/src/extra/widgets/span/../../../../src/core/lv_obj_style_gen.h ****     lv_style_value_t v = lv_obj_get_style_prop(obj, part, LV_STYLE_TEXT_LETTER_SPACE);
 293              		.loc 2 339 5 view .LVU66
 294              		.loc 2 339 26 is_stmt 0 view .LVU67
 295 0020 41F25A42 		movw	r2, #5210
 296 0024 0021     		movs	r1, #0
 297 0026 2046     		mov	r0, r4
 298              	.LVL20:
 299              		.loc 2 339 26 view .LVU68
 300 0028 FFF7FEFF 		bl	lv_obj_get_style_prop
 301              	.LVL21:
 340:Middlewares/lvgl/src/extra/widgets/span/../../../../src/core/lv_obj_style_gen.h ****     return (lv_coord_t)v.num;
 302              		.loc 2 340 5 is_stmt 1 view .LVU69
 303              		.loc 2 340 12 is_stmt 0 view .LVU70
 304 002c 00B2     		sxth	r0, r0
 305              	.LVL22:
 306              		.loc 2 340 12 view .LVU71
 307              	.LBE101:
 308              	.LBE100:
 309 002e F5E7     		b	.L14
 310              		.cfi_endproc
 311              	.LFE212:
 313              		.section	.text.lv_span_get_style_text_font,"ax",%progbits
 314              		.align	1
 315              		.syntax unified
 316              		.thumb
 317              		.thumb_func
 319              	lv_span_get_style_text_font:
 320              	.LVL23:
ARM GAS  /tmp/cc1iaYtN.s 			page 24


 321              	.LFB211:
 607:Middlewares/lvgl/src/extra/widgets/span/lv_span.c ****     const lv_font_t * font;
 322              		.loc 1 607 1 is_stmt 1 view -0
 323              		.cfi_startproc
 324              		@ args = 0, pretend = 0, frame = 8
 325              		@ frame_needed = 0, uses_anonymous_args = 0
 607:Middlewares/lvgl/src/extra/widgets/span/lv_span.c ****     const lv_font_t * font;
 326              		.loc 1 607 1 is_stmt 0 view .LVU73
 327 0000 10B5     		push	{r4, lr}
 328              	.LCFI5:
 329              		.cfi_def_cfa_offset 8
 330              		.cfi_offset 4, -8
 331              		.cfi_offset 14, -4
 332 0002 82B0     		sub	sp, sp, #8
 333              	.LCFI6:
 334              		.cfi_def_cfa_offset 16
 335 0004 0446     		mov	r4, r0
 336 0006 0846     		mov	r0, r1
 337              	.LVL24:
 608:Middlewares/lvgl/src/extra/widgets/span/lv_span.c ****     lv_style_value_t value;
 338              		.loc 1 608 5 is_stmt 1 view .LVU74
 609:Middlewares/lvgl/src/extra/widgets/span/lv_span.c ****     lv_res_t res = lv_style_get_prop(&span->style, LV_STYLE_TEXT_FONT, &value);
 339              		.loc 1 609 5 view .LVU75
 610:Middlewares/lvgl/src/extra/widgets/span/lv_span.c ****     if(res != LV_RES_OK) {
 340              		.loc 1 610 5 view .LVU76
 610:Middlewares/lvgl/src/extra/widgets/span/lv_span.c ****     if(res != LV_RES_OK) {
 341              		.loc 1 610 20 is_stmt 0 view .LVU77
 342 0008 01AA     		add	r2, sp, #4
 343 000a 41F25941 		movw	r1, #5209
 344              	.LVL25:
 610:Middlewares/lvgl/src/extra/widgets/span/lv_span.c ****     if(res != LV_RES_OK) {
 345              		.loc 1 610 20 view .LVU78
 346 000e 0430     		adds	r0, r0, #4
 347              	.LVL26:
 610:Middlewares/lvgl/src/extra/widgets/span/lv_span.c ****     if(res != LV_RES_OK) {
 348              		.loc 1 610 20 view .LVU79
 349 0010 FFF7FEFF 		bl	lv_style_get_prop
 350              	.LVL27:
 611:Middlewares/lvgl/src/extra/widgets/span/lv_span.c ****         font = lv_obj_get_style_text_font(par, LV_PART_MAIN);
 351              		.loc 1 611 5 is_stmt 1 view .LVU80
 611:Middlewares/lvgl/src/extra/widgets/span/lv_span.c ****         font = lv_obj_get_style_text_font(par, LV_PART_MAIN);
 352              		.loc 1 611 7 is_stmt 0 view .LVU81
 353 0014 0128     		cmp	r0, #1
 354 0016 02D1     		bne	.L21
 615:Middlewares/lvgl/src/extra/widgets/span/lv_span.c ****     }
 355              		.loc 1 615 9 is_stmt 1 view .LVU82
 615:Middlewares/lvgl/src/extra/widgets/span/lv_span.c ****     }
 356              		.loc 1 615 14 is_stmt 0 view .LVU83
 357 0018 0198     		ldr	r0, [sp, #4]
 358              	.LVL28:
 617:Middlewares/lvgl/src/extra/widgets/span/lv_span.c **** }
 359              		.loc 1 617 5 is_stmt 1 view .LVU84
 360              	.L17:
 618:Middlewares/lvgl/src/extra/widgets/span/lv_span.c **** 
 361              		.loc 1 618 1 is_stmt 0 view .LVU85
 362 001a 02B0     		add	sp, sp, #8
 363              	.LCFI7:
ARM GAS  /tmp/cc1iaYtN.s 			page 25


 364              		.cfi_remember_state
 365              		.cfi_def_cfa_offset 8
 366              		@ sp needed
 367 001c 10BD     		pop	{r4, pc}
 368              	.LVL29:
 369              	.L21:
 370              	.LCFI8:
 371              		.cfi_restore_state
 612:Middlewares/lvgl/src/extra/widgets/span/lv_span.c ****     }
 372              		.loc 1 612 9 is_stmt 1 view .LVU86
 373              	.LBB102:
 374              	.LBI102:
 331:Middlewares/lvgl/src/extra/widgets/span/../../../../src/core/lv_obj_style_gen.h **** {
 375              		.loc 2 331 33 view .LVU87
 376              	.LBB103:
 333:Middlewares/lvgl/src/extra/widgets/span/../../../../src/core/lv_obj_style_gen.h ****     return (const lv_font_t *)v.ptr;
 377              		.loc 2 333 5 view .LVU88
 333:Middlewares/lvgl/src/extra/widgets/span/../../../../src/core/lv_obj_style_gen.h ****     return (const lv_font_t *)v.ptr;
 378              		.loc 2 333 26 is_stmt 0 view .LVU89
 379 001e 41F25942 		movw	r2, #5209
 380 0022 0021     		movs	r1, #0
 381 0024 2046     		mov	r0, r4
 382              	.LVL30:
 333:Middlewares/lvgl/src/extra/widgets/span/../../../../src/core/lv_obj_style_gen.h ****     return (const lv_font_t *)v.ptr;
 383              		.loc 2 333 26 view .LVU90
 384 0026 FFF7FEFF 		bl	lv_obj_get_style_prop
 385              	.LVL31:
 334:Middlewares/lvgl/src/extra/widgets/span/../../../../src/core/lv_obj_style_gen.h **** }
 386              		.loc 2 334 5 is_stmt 1 view .LVU91
 334:Middlewares/lvgl/src/extra/widgets/span/../../../../src/core/lv_obj_style_gen.h **** }
 387              		.loc 2 334 5 is_stmt 0 view .LVU92
 388              	.LBE103:
 389              	.LBE102:
 390 002a F6E7     		b	.L17
 391              		.cfi_endproc
 392              	.LFE211:
 394              		.section	.text.lv_span_get_style_text_color,"ax",%progbits
 395              		.align	1
 396              		.syntax unified
 397              		.thumb
 398              		.thumb_func
 400              	lv_span_get_style_text_color:
 401              	.LVL32:
 402              	.LFB213:
 633:Middlewares/lvgl/src/extra/widgets/span/lv_span.c **** 
 634:Middlewares/lvgl/src/extra/widgets/span/lv_span.c **** static lv_color_t lv_span_get_style_text_color(lv_obj_t * par, lv_span_t * span)
 635:Middlewares/lvgl/src/extra/widgets/span/lv_span.c **** {
 403              		.loc 1 635 1 is_stmt 1 view -0
 404              		.cfi_startproc
 405              		@ args = 0, pretend = 0, frame = 8
 406              		@ frame_needed = 0, uses_anonymous_args = 0
 407              		.loc 1 635 1 is_stmt 0 view .LVU94
 408 0000 10B5     		push	{r4, lr}
 409              	.LCFI9:
 410              		.cfi_def_cfa_offset 8
 411              		.cfi_offset 4, -8
 412              		.cfi_offset 14, -4
ARM GAS  /tmp/cc1iaYtN.s 			page 26


 413 0002 82B0     		sub	sp, sp, #8
 414              	.LCFI10:
 415              		.cfi_def_cfa_offset 16
 416 0004 0446     		mov	r4, r0
 417 0006 0846     		mov	r0, r1
 418              	.LVL33:
 636:Middlewares/lvgl/src/extra/widgets/span/lv_span.c ****     lv_style_value_t value;
 419              		.loc 1 636 5 is_stmt 1 view .LVU95
 637:Middlewares/lvgl/src/extra/widgets/span/lv_span.c ****     lv_res_t res = lv_style_get_prop(&span->style, LV_STYLE_TEXT_COLOR, &value);
 420              		.loc 1 637 5 view .LVU96
 421              		.loc 1 637 20 is_stmt 0 view .LVU97
 422 0008 01AA     		add	r2, sp, #4
 423 000a 40F25741 		movw	r1, #1111
 424              	.LVL34:
 425              		.loc 1 637 20 view .LVU98
 426 000e 0430     		adds	r0, r0, #4
 427              	.LVL35:
 428              		.loc 1 637 20 view .LVU99
 429 0010 FFF7FEFF 		bl	lv_style_get_prop
 430              	.LVL36:
 638:Middlewares/lvgl/src/extra/widgets/span/lv_span.c ****     if(res != LV_RES_OK) {
 431              		.loc 1 638 5 is_stmt 1 view .LVU100
 432              		.loc 1 638 7 is_stmt 0 view .LVU101
 433 0014 0128     		cmp	r0, #1
 434 0016 03D1     		bne	.L25
 435              	.LVL37:
 436              	.L23:
 639:Middlewares/lvgl/src/extra/widgets/span/lv_span.c ****         value.color = lv_obj_get_style_text_color(par, LV_PART_MAIN);
 640:Middlewares/lvgl/src/extra/widgets/span/lv_span.c ****     }
 641:Middlewares/lvgl/src/extra/widgets/span/lv_span.c ****     return value.color;
 437              		.loc 1 641 5 is_stmt 1 view .LVU102
 642:Middlewares/lvgl/src/extra/widgets/span/lv_span.c **** }
 438              		.loc 1 642 1 is_stmt 0 view .LVU103
 439 0018 BDF80400 		ldrh	r0, [sp, #4]
 440 001c 02B0     		add	sp, sp, #8
 441              	.LCFI11:
 442              		.cfi_remember_state
 443              		.cfi_def_cfa_offset 8
 444              		@ sp needed
 445 001e 10BD     		pop	{r4, pc}
 446              	.LVL38:
 447              	.L25:
 448              	.LCFI12:
 449              		.cfi_restore_state
 639:Middlewares/lvgl/src/extra/widgets/span/lv_span.c ****         value.color = lv_obj_get_style_text_color(par, LV_PART_MAIN);
 450              		.loc 1 639 9 is_stmt 1 view .LVU104
 451              	.LBB104:
 452              	.LBI104:
 313:Middlewares/lvgl/src/extra/widgets/span/../../../../src/core/lv_obj_style_gen.h **** {
 453              		.loc 2 313 26 view .LVU105
 454              	.LBB105:
 315:Middlewares/lvgl/src/extra/widgets/span/../../../../src/core/lv_obj_style_gen.h ****     return v.color;
 455              		.loc 2 315 5 view .LVU106
 315:Middlewares/lvgl/src/extra/widgets/span/../../../../src/core/lv_obj_style_gen.h ****     return v.color;
 456              		.loc 2 315 26 is_stmt 0 view .LVU107
 457 0020 40F25742 		movw	r2, #1111
 458 0024 0021     		movs	r1, #0
ARM GAS  /tmp/cc1iaYtN.s 			page 27


 459 0026 2046     		mov	r0, r4
 460              	.LVL39:
 315:Middlewares/lvgl/src/extra/widgets/span/../../../../src/core/lv_obj_style_gen.h ****     return v.color;
 461              		.loc 2 315 26 view .LVU108
 462 0028 FFF7FEFF 		bl	lv_obj_get_style_prop
 463              	.LVL40:
 316:Middlewares/lvgl/src/extra/widgets/span/../../../../src/core/lv_obj_style_gen.h **** }
 464              		.loc 2 316 5 is_stmt 1 view .LVU109
 316:Middlewares/lvgl/src/extra/widgets/span/../../../../src/core/lv_obj_style_gen.h **** }
 465              		.loc 2 316 5 is_stmt 0 view .LVU110
 466              	.LBE105:
 467              	.LBE104:
 639:Middlewares/lvgl/src/extra/widgets/span/lv_span.c ****     }
 468              		.loc 1 639 23 view .LVU111
 469 002c ADF80400 		strh	r0, [sp, #4]	@ movhi
 470 0030 F2E7     		b	.L23
 471              		.cfi_endproc
 472              	.LFE213:
 474              		.section	.text.lv_span_get_style_text_opa,"ax",%progbits
 475              		.align	1
 476              		.syntax unified
 477              		.thumb
 478              		.thumb_func
 480              	lv_span_get_style_text_opa:
 481              	.LVL41:
 482              	.LFB214:
 643:Middlewares/lvgl/src/extra/widgets/span/lv_span.c **** 
 644:Middlewares/lvgl/src/extra/widgets/span/lv_span.c **** static lv_opa_t lv_span_get_style_text_opa(lv_obj_t * par, lv_span_t * span)
 645:Middlewares/lvgl/src/extra/widgets/span/lv_span.c **** {
 483              		.loc 1 645 1 is_stmt 1 view -0
 484              		.cfi_startproc
 485              		@ args = 0, pretend = 0, frame = 8
 486              		@ frame_needed = 0, uses_anonymous_args = 0
 487              		.loc 1 645 1 is_stmt 0 view .LVU113
 488 0000 10B5     		push	{r4, lr}
 489              	.LCFI13:
 490              		.cfi_def_cfa_offset 8
 491              		.cfi_offset 4, -8
 492              		.cfi_offset 14, -4
 493 0002 82B0     		sub	sp, sp, #8
 494              	.LCFI14:
 495              		.cfi_def_cfa_offset 16
 496 0004 0446     		mov	r4, r0
 497 0006 0846     		mov	r0, r1
 498              	.LVL42:
 646:Middlewares/lvgl/src/extra/widgets/span/lv_span.c ****     lv_opa_t opa;
 499              		.loc 1 646 5 is_stmt 1 view .LVU114
 647:Middlewares/lvgl/src/extra/widgets/span/lv_span.c ****     lv_style_value_t value;
 500              		.loc 1 647 5 view .LVU115
 648:Middlewares/lvgl/src/extra/widgets/span/lv_span.c ****     lv_res_t res = lv_style_get_prop(&span->style, LV_STYLE_TEXT_OPA, &value);
 501              		.loc 1 648 5 view .LVU116
 502              		.loc 1 648 20 is_stmt 0 view .LVU117
 503 0008 01AA     		add	r2, sp, #4
 504 000a 4FF48B61 		mov	r1, #1112
 505              	.LVL43:
 506              		.loc 1 648 20 view .LVU118
 507 000e 0430     		adds	r0, r0, #4
ARM GAS  /tmp/cc1iaYtN.s 			page 28


 508              	.LVL44:
 509              		.loc 1 648 20 view .LVU119
 510 0010 FFF7FEFF 		bl	lv_style_get_prop
 511              	.LVL45:
 649:Middlewares/lvgl/src/extra/widgets/span/lv_span.c ****     if(res != LV_RES_OK) {
 512              		.loc 1 649 5 is_stmt 1 view .LVU120
 513              		.loc 1 649 7 is_stmt 0 view .LVU121
 514 0014 0128     		cmp	r0, #1
 515 0016 03D1     		bne	.L30
 650:Middlewares/lvgl/src/extra/widgets/span/lv_span.c ****         opa = (lv_opa_t)lv_obj_get_style_text_opa(par, LV_PART_MAIN);
 651:Middlewares/lvgl/src/extra/widgets/span/lv_span.c ****     }
 652:Middlewares/lvgl/src/extra/widgets/span/lv_span.c ****     else {
 653:Middlewares/lvgl/src/extra/widgets/span/lv_span.c ****         opa = (lv_opa_t)value.num;
 516              		.loc 1 653 9 is_stmt 1 view .LVU122
 517              		.loc 1 653 13 is_stmt 0 view .LVU123
 518 0018 9DF80400 		ldrb	r0, [sp, #4]	@ zero_extendqisi2
 519              	.LVL46:
 520              	.L28:
 654:Middlewares/lvgl/src/extra/widgets/span/lv_span.c ****     }
 655:Middlewares/lvgl/src/extra/widgets/span/lv_span.c ****     return opa;
 521              		.loc 1 655 5 is_stmt 1 view .LVU124
 656:Middlewares/lvgl/src/extra/widgets/span/lv_span.c **** }
 522              		.loc 1 656 1 is_stmt 0 view .LVU125
 523 001c 02B0     		add	sp, sp, #8
 524              	.LCFI15:
 525              		.cfi_remember_state
 526              		.cfi_def_cfa_offset 8
 527              		@ sp needed
 528 001e 10BD     		pop	{r4, pc}
 529              	.LVL47:
 530              	.L30:
 531              	.LCFI16:
 532              		.cfi_restore_state
 650:Middlewares/lvgl/src/extra/widgets/span/lv_span.c ****         opa = (lv_opa_t)lv_obj_get_style_text_opa(par, LV_PART_MAIN);
 533              		.loc 1 650 9 is_stmt 1 view .LVU126
 534              	.LBB106:
 535              	.LBI106:
 325:Middlewares/lvgl/src/extra/widgets/span/../../../../src/core/lv_obj_style_gen.h **** {
 536              		.loc 2 325 24 view .LVU127
 537              	.LBB107:
 327:Middlewares/lvgl/src/extra/widgets/span/../../../../src/core/lv_obj_style_gen.h ****     return (lv_opa_t)v.num;
 538              		.loc 2 327 5 view .LVU128
 327:Middlewares/lvgl/src/extra/widgets/span/../../../../src/core/lv_obj_style_gen.h ****     return (lv_opa_t)v.num;
 539              		.loc 2 327 26 is_stmt 0 view .LVU129
 540 0020 4FF48B62 		mov	r2, #1112
 541 0024 0021     		movs	r1, #0
 542 0026 2046     		mov	r0, r4
 543              	.LVL48:
 327:Middlewares/lvgl/src/extra/widgets/span/../../../../src/core/lv_obj_style_gen.h ****     return (lv_opa_t)v.num;
 544              		.loc 2 327 26 view .LVU130
 545 0028 FFF7FEFF 		bl	lv_obj_get_style_prop
 546              	.LVL49:
 328:Middlewares/lvgl/src/extra/widgets/span/../../../../src/core/lv_obj_style_gen.h **** }
 547              		.loc 2 328 5 is_stmt 1 view .LVU131
 328:Middlewares/lvgl/src/extra/widgets/span/../../../../src/core/lv_obj_style_gen.h **** }
 548              		.loc 2 328 12 is_stmt 0 view .LVU132
 549 002c C0B2     		uxtb	r0, r0
ARM GAS  /tmp/cc1iaYtN.s 			page 29


 550              	.LVL50:
 328:Middlewares/lvgl/src/extra/widgets/span/../../../../src/core/lv_obj_style_gen.h **** }
 551              		.loc 2 328 12 view .LVU133
 552              	.LBE107:
 553              	.LBE106:
 554 002e F5E7     		b	.L28
 555              		.cfi_endproc
 556              	.LFE214:
 558              		.section	.text.lv_span_get_style_text_blend_mode,"ax",%progbits
 559              		.align	1
 560              		.syntax unified
 561              		.thumb
 562              		.thumb_func
 564              	lv_span_get_style_text_blend_mode:
 565              	.LVL51:
 566              	.LFB215:
 657:Middlewares/lvgl/src/extra/widgets/span/lv_span.c **** 
 658:Middlewares/lvgl/src/extra/widgets/span/lv_span.c **** static lv_blend_mode_t lv_span_get_style_text_blend_mode(lv_obj_t * par, lv_span_t * span)
 659:Middlewares/lvgl/src/extra/widgets/span/lv_span.c **** {
 567              		.loc 1 659 1 is_stmt 1 view -0
 568              		.cfi_startproc
 569              		@ args = 0, pretend = 0, frame = 8
 570              		@ frame_needed = 0, uses_anonymous_args = 0
 571              		.loc 1 659 1 is_stmt 0 view .LVU135
 572 0000 10B5     		push	{r4, lr}
 573              	.LCFI17:
 574              		.cfi_def_cfa_offset 8
 575              		.cfi_offset 4, -8
 576              		.cfi_offset 14, -4
 577 0002 82B0     		sub	sp, sp, #8
 578              	.LCFI18:
 579              		.cfi_def_cfa_offset 16
 580 0004 0446     		mov	r4, r0
 581 0006 0846     		mov	r0, r1
 582              	.LVL52:
 660:Middlewares/lvgl/src/extra/widgets/span/lv_span.c ****     lv_blend_mode_t mode;
 583              		.loc 1 660 5 is_stmt 1 view .LVU136
 661:Middlewares/lvgl/src/extra/widgets/span/lv_span.c ****     lv_style_value_t value;
 584              		.loc 1 661 5 view .LVU137
 662:Middlewares/lvgl/src/extra/widgets/span/lv_span.c ****     lv_res_t res = lv_style_get_prop(&span->style, LV_STYLE_BLEND_MODE, &value);
 585              		.loc 1 662 5 view .LVU138
 586              		.loc 1 662 20 is_stmt 0 view .LVU139
 587 0008 01AA     		add	r2, sp, #4
 588 000a 6821     		movs	r1, #104
 589              	.LVL53:
 590              		.loc 1 662 20 view .LVU140
 591 000c 0430     		adds	r0, r0, #4
 592              	.LVL54:
 593              		.loc 1 662 20 view .LVU141
 594 000e FFF7FEFF 		bl	lv_style_get_prop
 595              	.LVL55:
 663:Middlewares/lvgl/src/extra/widgets/span/lv_span.c ****     if(res != LV_RES_OK) {
 596              		.loc 1 663 5 is_stmt 1 view .LVU142
 597              		.loc 1 663 7 is_stmt 0 view .LVU143
 598 0012 0128     		cmp	r0, #1
 599 0014 03D1     		bne	.L35
 664:Middlewares/lvgl/src/extra/widgets/span/lv_span.c ****         mode = (lv_blend_mode_t)lv_obj_get_style_blend_mode(par, LV_PART_MAIN);
ARM GAS  /tmp/cc1iaYtN.s 			page 30


 665:Middlewares/lvgl/src/extra/widgets/span/lv_span.c ****     }
 666:Middlewares/lvgl/src/extra/widgets/span/lv_span.c ****     else {
 667:Middlewares/lvgl/src/extra/widgets/span/lv_span.c ****         mode = (lv_blend_mode_t)value.num;
 600              		.loc 1 667 9 is_stmt 1 view .LVU144
 601              		.loc 1 667 14 is_stmt 0 view .LVU145
 602 0016 9DF80400 		ldrb	r0, [sp, #4]	@ zero_extendqisi2
 603              	.LVL56:
 604              	.L33:
 668:Middlewares/lvgl/src/extra/widgets/span/lv_span.c ****     }
 669:Middlewares/lvgl/src/extra/widgets/span/lv_span.c ****     return mode;
 605              		.loc 1 669 5 is_stmt 1 view .LVU146
 670:Middlewares/lvgl/src/extra/widgets/span/lv_span.c **** }
 606              		.loc 1 670 1 is_stmt 0 view .LVU147
 607 001a 02B0     		add	sp, sp, #8
 608              	.LCFI19:
 609              		.cfi_remember_state
 610              		.cfi_def_cfa_offset 8
 611              		@ sp needed
 612 001c 10BD     		pop	{r4, pc}
 613              	.LVL57:
 614              	.L35:
 615              	.LCFI20:
 616              		.cfi_restore_state
 664:Middlewares/lvgl/src/extra/widgets/span/lv_span.c ****         mode = (lv_blend_mode_t)lv_obj_get_style_blend_mode(par, LV_PART_MAIN);
 617              		.loc 1 664 9 is_stmt 1 view .LVU148
 618              	.LBB108:
 619              	.LBI108:
 175:Middlewares/lvgl/src/extra/widgets/span/../../../../src/core/lv_obj_style_gen.h **** {
 620              		.loc 2 175 31 view .LVU149
 621              	.LBB109:
 177:Middlewares/lvgl/src/extra/widgets/span/../../../../src/core/lv_obj_style_gen.h ****     return (lv_blend_mode_t)v.num;
 622              		.loc 2 177 5 view .LVU150
 177:Middlewares/lvgl/src/extra/widgets/span/../../../../src/core/lv_obj_style_gen.h ****     return (lv_blend_mode_t)v.num;
 623              		.loc 2 177 26 is_stmt 0 view .LVU151
 624 001e 6822     		movs	r2, #104
 625 0020 0021     		movs	r1, #0
 626 0022 2046     		mov	r0, r4
 627              	.LVL58:
 177:Middlewares/lvgl/src/extra/widgets/span/../../../../src/core/lv_obj_style_gen.h ****     return (lv_blend_mode_t)v.num;
 628              		.loc 2 177 26 view .LVU152
 629 0024 FFF7FEFF 		bl	lv_obj_get_style_prop
 630              	.LVL59:
 178:Middlewares/lvgl/src/extra/widgets/span/../../../../src/core/lv_obj_style_gen.h **** }
 631              		.loc 2 178 5 is_stmt 1 view .LVU153
 178:Middlewares/lvgl/src/extra/widgets/span/../../../../src/core/lv_obj_style_gen.h **** }
 632              		.loc 2 178 12 is_stmt 0 view .LVU154
 633 0028 C0B2     		uxtb	r0, r0
 634              	.LVL60:
 178:Middlewares/lvgl/src/extra/widgets/span/../../../../src/core/lv_obj_style_gen.h **** }
 635              		.loc 2 178 12 view .LVU155
 636              	.LBE109:
 637              	.LBE108:
 638 002a F6E7     		b	.L33
 639              		.cfi_endproc
 640              	.LFE215:
 642              		.section	.text.lv_span_get_style_text_decor,"ax",%progbits
 643              		.align	1
ARM GAS  /tmp/cc1iaYtN.s 			page 31


 644              		.syntax unified
 645              		.thumb
 646              		.thumb_func
 648              	lv_span_get_style_text_decor:
 649              	.LVL61:
 650              	.LFB216:
 671:Middlewares/lvgl/src/extra/widgets/span/lv_span.c **** 
 672:Middlewares/lvgl/src/extra/widgets/span/lv_span.c **** static int32_t lv_span_get_style_text_decor(lv_obj_t * par, lv_span_t * span)
 673:Middlewares/lvgl/src/extra/widgets/span/lv_span.c **** {
 651              		.loc 1 673 1 is_stmt 1 view -0
 652              		.cfi_startproc
 653              		@ args = 0, pretend = 0, frame = 8
 654              		@ frame_needed = 0, uses_anonymous_args = 0
 655              		.loc 1 673 1 is_stmt 0 view .LVU157
 656 0000 00B5     		push	{lr}
 657              	.LCFI21:
 658              		.cfi_def_cfa_offset 4
 659              		.cfi_offset 14, -4
 660 0002 83B0     		sub	sp, sp, #12
 661              	.LCFI22:
 662              		.cfi_def_cfa_offset 16
 663 0004 0846     		mov	r0, r1
 664              	.LVL62:
 674:Middlewares/lvgl/src/extra/widgets/span/lv_span.c ****     LV_UNUSED(par);
 665              		.loc 1 674 5 is_stmt 1 view .LVU158
 675:Middlewares/lvgl/src/extra/widgets/span/lv_span.c **** 
 676:Middlewares/lvgl/src/extra/widgets/span/lv_span.c ****     int32_t decor;
 666              		.loc 1 676 5 view .LVU159
 677:Middlewares/lvgl/src/extra/widgets/span/lv_span.c ****     lv_style_value_t value;
 667              		.loc 1 677 5 view .LVU160
 678:Middlewares/lvgl/src/extra/widgets/span/lv_span.c ****     lv_res_t res = lv_style_get_prop(&span->style, LV_STYLE_TEXT_DECOR, &value);
 668              		.loc 1 678 5 view .LVU161
 669              		.loc 1 678 20 is_stmt 0 view .LVU162
 670 0006 01AA     		add	r2, sp, #4
 671 0008 40F25C41 		movw	r1, #1116
 672              	.LVL63:
 673              		.loc 1 678 20 view .LVU163
 674 000c 0430     		adds	r0, r0, #4
 675              	.LVL64:
 676              		.loc 1 678 20 view .LVU164
 677 000e FFF7FEFF 		bl	lv_style_get_prop
 678              	.LVL65:
 679:Middlewares/lvgl/src/extra/widgets/span/lv_span.c ****     if(res != LV_RES_OK) {
 679              		.loc 1 679 5 is_stmt 1 view .LVU165
 680              		.loc 1 679 7 is_stmt 0 view .LVU166
 681 0012 0128     		cmp	r0, #1
 682 0014 03D0     		beq	.L40
 680:Middlewares/lvgl/src/extra/widgets/span/lv_span.c ****         decor = LV_TEXT_DECOR_NONE;
 683              		.loc 1 680 15 view .LVU167
 684 0016 0020     		movs	r0, #0
 685              	.LVL66:
 681:Middlewares/lvgl/src/extra/widgets/span/lv_span.c ****     }
 682:Middlewares/lvgl/src/extra/widgets/span/lv_span.c ****     else {
 683:Middlewares/lvgl/src/extra/widgets/span/lv_span.c ****         decor = (int32_t)value.num;
 684:Middlewares/lvgl/src/extra/widgets/span/lv_span.c ****     }
 685:Middlewares/lvgl/src/extra/widgets/span/lv_span.c ****     return decor;
 686              		.loc 1 685 5 is_stmt 1 view .LVU168
ARM GAS  /tmp/cc1iaYtN.s 			page 32


 687              	.L36:
 686:Middlewares/lvgl/src/extra/widgets/span/lv_span.c **** }
 688              		.loc 1 686 1 is_stmt 0 view .LVU169
 689 0018 03B0     		add	sp, sp, #12
 690              	.LCFI23:
 691              		.cfi_remember_state
 692              		.cfi_def_cfa_offset 4
 693              		@ sp needed
 694 001a 5DF804FB 		ldr	pc, [sp], #4
 695              	.LVL67:
 696              	.L40:
 697              	.LCFI24:
 698              		.cfi_restore_state
 683:Middlewares/lvgl/src/extra/widgets/span/lv_span.c ****     }
 699              		.loc 1 683 9 is_stmt 1 view .LVU170
 683:Middlewares/lvgl/src/extra/widgets/span/lv_span.c ****     }
 700              		.loc 1 683 15 is_stmt 0 view .LVU171
 701 001e 0198     		ldr	r0, [sp, #4]
 702              	.LVL68:
 683:Middlewares/lvgl/src/extra/widgets/span/lv_span.c ****     }
 703              		.loc 1 683 15 view .LVU172
 704 0020 FAE7     		b	.L36
 705              		.cfi_endproc
 706              	.LFE216:
 708              		.section	.text.lv_txt_get_snippet,"ax",%progbits
 709              		.align	1
 710              		.syntax unified
 711              		.thumb
 712              		.thumb_func
 714              	lv_txt_get_snippet:
 715              	.LVL69:
 716              	.LFB206:
 566:Middlewares/lvgl/src/extra/widgets/span/lv_span.c ****     uint32_t ofs = _lv_txt_get_next_line(txt, font, letter_space, max_width, flag);
 717              		.loc 1 566 1 is_stmt 1 view -0
 718              		.cfi_startproc
 719              		@ args = 12, pretend = 0, frame = 0
 720              		@ frame_needed = 0, uses_anonymous_args = 0
 566:Middlewares/lvgl/src/extra/widgets/span/lv_span.c ****     uint32_t ofs = _lv_txt_get_next_line(txt, font, letter_space, max_width, flag);
 721              		.loc 1 566 1 is_stmt 0 view .LVU174
 722 0000 2DE9F043 		push	{r4, r5, r6, r7, r8, r9, lr}
 723              	.LCFI25:
 724              		.cfi_def_cfa_offset 28
 725              		.cfi_offset 4, -28
 726              		.cfi_offset 5, -24
 727              		.cfi_offset 6, -20
 728              		.cfi_offset 7, -16
 729              		.cfi_offset 8, -12
 730              		.cfi_offset 9, -8
 731              		.cfi_offset 14, -4
 732 0004 83B0     		sub	sp, sp, #12
 733              	.LCFI26:
 734              		.cfi_def_cfa_offset 40
 735 0006 0546     		mov	r5, r0
 736 0008 0E46     		mov	r6, r1
 737 000a 1746     		mov	r7, r2
 738 000c 9846     		mov	r8, r3
 739 000e 9DF82890 		ldrb	r9, [sp, #40]	@ zero_extendqisi2
ARM GAS  /tmp/cc1iaYtN.s 			page 33


 567:Middlewares/lvgl/src/extra/widgets/span/lv_span.c ****     lv_coord_t width = lv_txt_get_width(txt, ofs, font, letter_space, flag);
 740              		.loc 1 567 5 is_stmt 1 view .LVU175
 567:Middlewares/lvgl/src/extra/widgets/span/lv_span.c ****     lv_coord_t width = lv_txt_get_width(txt, ofs, font, letter_space, flag);
 741              		.loc 1 567 20 is_stmt 0 view .LVU176
 742 0012 CDF80090 		str	r9, [sp]
 743 0016 FFF7FEFF 		bl	_lv_txt_get_next_line
 744              	.LVL70:
 567:Middlewares/lvgl/src/extra/widgets/span/lv_span.c ****     lv_coord_t width = lv_txt_get_width(txt, ofs, font, letter_space, flag);
 745              		.loc 1 567 20 view .LVU177
 746 001a 0446     		mov	r4, r0
 747              	.LVL71:
 568:Middlewares/lvgl/src/extra/widgets/span/lv_span.c ****     *end_ofs = ofs;
 748              		.loc 1 568 5 is_stmt 1 view .LVU178
 568:Middlewares/lvgl/src/extra/widgets/span/lv_span.c ****     *end_ofs = ofs;
 749              		.loc 1 568 24 is_stmt 0 view .LVU179
 750 001c CDF80090 		str	r9, [sp]
 751 0020 3B46     		mov	r3, r7
 752 0022 3246     		mov	r2, r6
 753 0024 0146     		mov	r1, r0
 754 0026 2846     		mov	r0, r5
 755              	.LVL72:
 568:Middlewares/lvgl/src/extra/widgets/span/lv_span.c ****     *end_ofs = ofs;
 756              		.loc 1 568 24 view .LVU180
 757 0028 FFF7FEFF 		bl	lv_txt_get_width
 758              	.LVL73:
 569:Middlewares/lvgl/src/extra/widgets/span/lv_span.c ****     *use_width = width;
 759              		.loc 1 569 5 is_stmt 1 view .LVU181
 569:Middlewares/lvgl/src/extra/widgets/span/lv_span.c ****     *use_width = width;
 760              		.loc 1 569 14 is_stmt 0 view .LVU182
 761 002c 0C9B     		ldr	r3, [sp, #48]
 762 002e 1C60     		str	r4, [r3]
 570:Middlewares/lvgl/src/extra/widgets/span/lv_span.c **** 
 763              		.loc 1 570 5 is_stmt 1 view .LVU183
 570:Middlewares/lvgl/src/extra/widgets/span/lv_span.c **** 
 764              		.loc 1 570 16 is_stmt 0 view .LVU184
 765 0030 0B9B     		ldr	r3, [sp, #44]
 766 0032 1880     		strh	r0, [r3]	@ movhi
 572:Middlewares/lvgl/src/extra/widgets/span/lv_span.c ****         return false;
 767              		.loc 1 572 5 is_stmt 1 view .LVU185
 572:Middlewares/lvgl/src/extra/widgets/span/lv_span.c ****         return false;
 768              		.loc 1 572 11 is_stmt 0 view .LVU186
 769 0034 2B5D     		ldrb	r3, [r5, r4]	@ zero_extendqisi2
 572:Middlewares/lvgl/src/extra/widgets/span/lv_span.c ****         return false;
 770              		.loc 1 572 7 view .LVU187
 771 0036 1BB9     		cbnz	r3, .L43
 572:Middlewares/lvgl/src/extra/widgets/span/lv_span.c ****         return false;
 772              		.loc 1 572 25 discriminator 1 view .LVU188
 773 0038 8045     		cmp	r8, r0
 774 003a 05DC     		bgt	.L44
 576:Middlewares/lvgl/src/extra/widgets/span/lv_span.c ****     }
 775              		.loc 1 576 16 view .LVU189
 776 003c 0120     		movs	r0, #1
 777              	.LVL74:
 576:Middlewares/lvgl/src/extra/widgets/span/lv_span.c ****     }
 778              		.loc 1 576 16 view .LVU190
 779 003e 00E0     		b	.L42
 780              	.LVL75:
ARM GAS  /tmp/cc1iaYtN.s 			page 34


 781              	.L43:
 576:Middlewares/lvgl/src/extra/widgets/span/lv_span.c ****     }
 782              		.loc 1 576 16 view .LVU191
 783 0040 0120     		movs	r0, #1
 784              	.LVL76:
 785              	.L42:
 578:Middlewares/lvgl/src/extra/widgets/span/lv_span.c **** 
 786              		.loc 1 578 1 view .LVU192
 787 0042 03B0     		add	sp, sp, #12
 788              	.LCFI27:
 789              		.cfi_remember_state
 790              		.cfi_def_cfa_offset 28
 791              		@ sp needed
 792 0044 BDE8F083 		pop	{r4, r5, r6, r7, r8, r9, pc}
 793              	.LVL77:
 794              	.L44:
 795              	.LCFI28:
 796              		.cfi_restore_state
 573:Middlewares/lvgl/src/extra/widgets/span/lv_span.c ****     }
 797              		.loc 1 573 16 view .LVU193
 798 0048 0020     		movs	r0, #0
 799              	.LVL78:
 573:Middlewares/lvgl/src/extra/widgets/span/lv_span.c ****     }
 800              		.loc 1 573 16 view .LVU194
 801 004a FAE7     		b	.L42
 802              		.cfi_endproc
 803              	.LFE206:
 805              		.section	.text.lv_snippet_push,"ax",%progbits
 806              		.align	1
 807              		.syntax unified
 808              		.thumb
 809              		.thumb_func
 811              	lv_snippet_push:
 812              	.LVL79:
 813              	.LFB207:
 581:Middlewares/lvgl/src/extra/widgets/span/lv_span.c ****     if(snippet_stack.index < LV_SPAN_SNIPPET_STACK_SIZE) {
 814              		.loc 1 581 1 is_stmt 1 view -0
 815              		.cfi_startproc
 816              		@ args = 0, pretend = 0, frame = 0
 817              		@ frame_needed = 0, uses_anonymous_args = 0
 582:Middlewares/lvgl/src/extra/widgets/span/lv_span.c ****         memcpy(&snippet_stack.stack[snippet_stack.index], item, sizeof(lv_snippet_t));
 818              		.loc 1 582 5 view .LVU196
 582:Middlewares/lvgl/src/extra/widgets/span/lv_span.c ****         memcpy(&snippet_stack.stack[snippet_stack.index], item, sizeof(lv_snippet_t));
 819              		.loc 1 582 21 is_stmt 0 view .LVU197
 820 0000 104B     		ldr	r3, .L53
 821 0002 B3F80035 		ldrh	r3, [r3, #1280]
 582:Middlewares/lvgl/src/extra/widgets/span/lv_span.c ****         memcpy(&snippet_stack.stack[snippet_stack.index], item, sizeof(lv_snippet_t));
 822              		.loc 1 582 7 view .LVU198
 823 0006 3F2B     		cmp	r3, #63
 824 0008 00D9     		bls	.L52
 825 000a 7047     		bx	lr
 826              	.L52:
 581:Middlewares/lvgl/src/extra/widgets/span/lv_span.c ****     if(snippet_stack.index < LV_SPAN_SNIPPET_STACK_SIZE) {
 827              		.loc 1 581 1 view .LVU199
 828 000c 30B5     		push	{r4, r5, lr}
 829              	.LCFI29:
 830              		.cfi_def_cfa_offset 12
ARM GAS  /tmp/cc1iaYtN.s 			page 35


 831              		.cfi_offset 4, -12
 832              		.cfi_offset 5, -8
 833              		.cfi_offset 14, -4
 583:Middlewares/lvgl/src/extra/widgets/span/lv_span.c ****         snippet_stack.index++;
 834              		.loc 1 583 9 is_stmt 1 view .LVU200
 583:Middlewares/lvgl/src/extra/widgets/span/lv_span.c ****         snippet_stack.index++;
 835              		.loc 1 583 16 is_stmt 0 view .LVU201
 836 000e 0D4A     		ldr	r2, .L53
 837 0010 03EB8303 		add	r3, r3, r3, lsl #2
 838 0014 02EB8301 		add	r1, r2, r3, lsl #2
 583:Middlewares/lvgl/src/extra/widgets/span/lv_span.c ****         snippet_stack.index++;
 839              		.loc 1 583 9 view .LVU202
 840 0018 D0F800C0 		ldr	ip, [r0]	@ unaligned
 841 001c 4568     		ldr	r5, [r0, #4]	@ unaligned
 842 001e 8468     		ldr	r4, [r0, #8]	@ unaligned
 843 0020 D0F80CE0 		ldr	lr, [r0, #12]	@ unaligned
 844 0024 42F823C0 		str	ip, [r2, r3, lsl #2]	@ unaligned
 845 0028 4D60     		str	r5, [r1, #4]	@ unaligned
 846 002a 8C60     		str	r4, [r1, #8]	@ unaligned
 847 002c C1F80CE0 		str	lr, [r1, #12]	@ unaligned
 848 0030 D0F810C0 		ldr	ip, [r0, #16]	@ unaligned
 849 0034 C1F810C0 		str	ip, [r1, #16]	@ unaligned
 584:Middlewares/lvgl/src/extra/widgets/span/lv_span.c ****     }
 850              		.loc 1 584 9 is_stmt 1 view .LVU203
 584:Middlewares/lvgl/src/extra/widgets/span/lv_span.c ****     }
 851              		.loc 1 584 22 is_stmt 0 view .LVU204
 852 0038 B2F80035 		ldrh	r3, [r2, #1280]
 584:Middlewares/lvgl/src/extra/widgets/span/lv_span.c ****     }
 853              		.loc 1 584 28 view .LVU205
 854 003c 0133     		adds	r3, r3, #1
 855 003e A2F80035 		strh	r3, [r2, #1280]	@ movhi
 587:Middlewares/lvgl/src/extra/widgets/span/lv_span.c ****     }
 856              		.loc 1 587 99 is_stmt 1 view .LVU206
 589:Middlewares/lvgl/src/extra/widgets/span/lv_span.c **** 
 857              		.loc 1 589 1 is_stmt 0 view .LVU207
 858 0042 30BD     		pop	{r4, r5, pc}
 859              	.L54:
 860              		.align	2
 861              	.L53:
 862 0044 00000000 		.word	.LANCHOR0
 863              		.cfi_endproc
 864              	.LFE207:
 866              		.section	.rodata.lv_draw_span.str1.4,"aMS",%progbits,1
 867              		.align	2
 868              	.LC0:
 869 0000 00       		.ascii	"\000"
 870 0001 000000   		.align	2
 871              	.LC1:
 872 0004 202C2E3B 		.ascii	" ,.;:-_\000"
 872      3A2D5F00 
 873              		.section	.text.lv_draw_span,"ax",%progbits
 874              		.align	1
 875              		.syntax unified
 876              		.thumb
 877              		.thumb_func
 879              	lv_draw_span:
 880              	.LVL80:
ARM GAS  /tmp/cc1iaYtN.s 			page 36


 881              	.LFB218:
 687:Middlewares/lvgl/src/extra/widgets/span/lv_span.c **** 
 688:Middlewares/lvgl/src/extra/widgets/span/lv_span.c **** static inline void span_text_check(const char ** text)
 689:Middlewares/lvgl/src/extra/widgets/span/lv_span.c **** {
 690:Middlewares/lvgl/src/extra/widgets/span/lv_span.c ****     if(*text == NULL) {
 691:Middlewares/lvgl/src/extra/widgets/span/lv_span.c ****         *text = "";
 692:Middlewares/lvgl/src/extra/widgets/span/lv_span.c ****         LV_LOG_ERROR("occur an error that span text == NULL");
 693:Middlewares/lvgl/src/extra/widgets/span/lv_span.c ****     }
 694:Middlewares/lvgl/src/extra/widgets/span/lv_span.c **** }
 695:Middlewares/lvgl/src/extra/widgets/span/lv_span.c **** 
 696:Middlewares/lvgl/src/extra/widgets/span/lv_span.c **** /**
 697:Middlewares/lvgl/src/extra/widgets/span/lv_span.c ****  * draw span group
 698:Middlewares/lvgl/src/extra/widgets/span/lv_span.c ****  * @param spans obj handle
 699:Middlewares/lvgl/src/extra/widgets/span/lv_span.c ****  * @param coords coordinates of the label
 700:Middlewares/lvgl/src/extra/widgets/span/lv_span.c ****  * @param mask the label will be drawn only in this area
 701:Middlewares/lvgl/src/extra/widgets/span/lv_span.c ****  */
 702:Middlewares/lvgl/src/extra/widgets/span/lv_span.c **** static void lv_draw_span(lv_obj_t * obj, const lv_area_t * coords, const lv_area_t * mask)
 703:Middlewares/lvgl/src/extra/widgets/span/lv_span.c **** {
 882              		.loc 1 703 1 is_stmt 1 view -0
 883              		.cfi_startproc
 884              		@ args = 0, pretend = 0, frame = 144
 885              		@ frame_needed = 0, uses_anonymous_args = 0
 886              		.loc 1 703 1 is_stmt 0 view .LVU209
 887 0000 2DE9F04F 		push	{r4, r5, r6, r7, r8, r9, r10, fp, lr}
 888              	.LCFI30:
 889              		.cfi_def_cfa_offset 36
 890              		.cfi_offset 4, -36
 891              		.cfi_offset 5, -32
 892              		.cfi_offset 6, -28
 893              		.cfi_offset 7, -24
 894              		.cfi_offset 8, -20
 895              		.cfi_offset 9, -16
 896              		.cfi_offset 10, -12
 897              		.cfi_offset 11, -8
 898              		.cfi_offset 14, -4
 899 0004 A9B0     		sub	sp, sp, #164
 900              	.LCFI31:
 901              		.cfi_def_cfa_offset 200
 902 0006 8346     		mov	fp, r0
 903 0008 0C46     		mov	r4, r1
 904 000a 0691     		str	r1, [sp, #24]
 905 000c 1392     		str	r2, [sp, #76]
 704:Middlewares/lvgl/src/extra/widgets/span/lv_span.c ****     /* return if no draw area */
 705:Middlewares/lvgl/src/extra/widgets/span/lv_span.c ****     lv_area_t clipped_area;
 906              		.loc 1 705 5 is_stmt 1 view .LVU210
 706:Middlewares/lvgl/src/extra/widgets/span/lv_span.c ****     bool clip_ok = _lv_area_intersect(&clipped_area, coords, mask);
 907              		.loc 1 706 5 view .LVU211
 908              		.loc 1 706 20 is_stmt 0 view .LVU212
 909 000e 26A8     		add	r0, sp, #152
 910              	.LVL81:
 911              		.loc 1 706 20 view .LVU213
 912 0010 FFF7FEFF 		bl	_lv_area_intersect
 913              	.LVL82:
 707:Middlewares/lvgl/src/extra/widgets/span/lv_span.c ****     if(!clip_ok) return;
 914              		.loc 1 707 5 is_stmt 1 view .LVU214
 915              		.loc 1 707 7 is_stmt 0 view .LVU215
 916 0014 1790     		str	r0, [sp, #92]
ARM GAS  /tmp/cc1iaYtN.s 			page 37


 917 0016 10B9     		cbnz	r0, .L123
 918              	.LVL83:
 919              	.L55:
 708:Middlewares/lvgl/src/extra/widgets/span/lv_span.c **** 
 709:Middlewares/lvgl/src/extra/widgets/span/lv_span.c ****     lv_spangroup_t * spans = (lv_spangroup_t *)obj;
 710:Middlewares/lvgl/src/extra/widgets/span/lv_span.c **** 
 711:Middlewares/lvgl/src/extra/widgets/span/lv_span.c ****     /* return if not span */
 712:Middlewares/lvgl/src/extra/widgets/span/lv_span.c ****     if(_lv_ll_get_head(&spans->child_ll) == NULL) {
 713:Middlewares/lvgl/src/extra/widgets/span/lv_span.c ****         return;
 714:Middlewares/lvgl/src/extra/widgets/span/lv_span.c ****     }
 715:Middlewares/lvgl/src/extra/widgets/span/lv_span.c **** 
 716:Middlewares/lvgl/src/extra/widgets/span/lv_span.c ****     /* init draw variable */
 717:Middlewares/lvgl/src/extra/widgets/span/lv_span.c ****     lv_text_flag_t txt_flag = LV_TEXT_FLAG_NONE;
 718:Middlewares/lvgl/src/extra/widgets/span/lv_span.c ****     lv_coord_t line_space = lv_obj_get_style_text_line_space(obj, LV_PART_MAIN);;
 719:Middlewares/lvgl/src/extra/widgets/span/lv_span.c ****     lv_coord_t max_width = lv_area_get_width(coords);
 720:Middlewares/lvgl/src/extra/widgets/span/lv_span.c ****     lv_coord_t max_w  = max_width - spans->indent; /* first line need minus indent */
 721:Middlewares/lvgl/src/extra/widgets/span/lv_span.c **** 
 722:Middlewares/lvgl/src/extra/widgets/span/lv_span.c ****     /* coords of draw span-txt */
 723:Middlewares/lvgl/src/extra/widgets/span/lv_span.c ****     lv_point_t txt_pos;
 724:Middlewares/lvgl/src/extra/widgets/span/lv_span.c ****     txt_pos.y = coords->y1;
 725:Middlewares/lvgl/src/extra/widgets/span/lv_span.c ****     txt_pos.x = coords->x1 + spans->indent; /* first line need add indent */
 726:Middlewares/lvgl/src/extra/widgets/span/lv_span.c **** 
 727:Middlewares/lvgl/src/extra/widgets/span/lv_span.c ****     lv_span_t * cur_span = _lv_ll_get_head(&spans->child_ll);
 728:Middlewares/lvgl/src/extra/widgets/span/lv_span.c ****     const char * cur_txt = cur_span->txt;
 729:Middlewares/lvgl/src/extra/widgets/span/lv_span.c ****     span_text_check(&cur_txt);
 730:Middlewares/lvgl/src/extra/widgets/span/lv_span.c ****     uint32_t cur_txt_ofs = 0;
 731:Middlewares/lvgl/src/extra/widgets/span/lv_span.c ****     lv_snippet_t snippet;   /* use to save cur_span info and push it to stack */
 732:Middlewares/lvgl/src/extra/widgets/span/lv_span.c ****     memset(&snippet, 0, sizeof(snippet));
 733:Middlewares/lvgl/src/extra/widgets/span/lv_span.c ****     
 734:Middlewares/lvgl/src/extra/widgets/span/lv_span.c ****     /* the loop control how many lines need to draw */
 735:Middlewares/lvgl/src/extra/widgets/span/lv_span.c ****     while(cur_span) {
 736:Middlewares/lvgl/src/extra/widgets/span/lv_span.c ****         lv_coord_t max_line_h = 0;  /* the max height of span-font when a line have a lot of span *
 737:Middlewares/lvgl/src/extra/widgets/span/lv_span.c ****         lv_snippet_clear();
 738:Middlewares/lvgl/src/extra/widgets/span/lv_span.c **** 
 739:Middlewares/lvgl/src/extra/widgets/span/lv_span.c ****         /* the loop control to find a line and push the relevant span info into stack  */
 740:Middlewares/lvgl/src/extra/widgets/span/lv_span.c ****         while(1) {
 741:Middlewares/lvgl/src/extra/widgets/span/lv_span.c ****             /* switch to the next span when current is end */
 742:Middlewares/lvgl/src/extra/widgets/span/lv_span.c ****             if(cur_txt[cur_txt_ofs] == '\0') {
 743:Middlewares/lvgl/src/extra/widgets/span/lv_span.c ****                 cur_span = _lv_ll_get_next(&spans->child_ll, cur_span);
 744:Middlewares/lvgl/src/extra/widgets/span/lv_span.c ****                 if(cur_span == NULL) break;
 745:Middlewares/lvgl/src/extra/widgets/span/lv_span.c ****                 cur_txt = cur_span->txt;
 746:Middlewares/lvgl/src/extra/widgets/span/lv_span.c ****                 span_text_check(&cur_txt);
 747:Middlewares/lvgl/src/extra/widgets/span/lv_span.c ****                 cur_txt_ofs = 0;
 748:Middlewares/lvgl/src/extra/widgets/span/lv_span.c ****             }
 749:Middlewares/lvgl/src/extra/widgets/span/lv_span.c **** 
 750:Middlewares/lvgl/src/extra/widgets/span/lv_span.c ****             /* init span info to snippet. */
 751:Middlewares/lvgl/src/extra/widgets/span/lv_span.c ****             if(cur_txt_ofs == 0) {
 752:Middlewares/lvgl/src/extra/widgets/span/lv_span.c ****                 snippet.span = cur_span;
 753:Middlewares/lvgl/src/extra/widgets/span/lv_span.c ****                 snippet.font = lv_span_get_style_text_font(obj, cur_span);
 754:Middlewares/lvgl/src/extra/widgets/span/lv_span.c ****                 snippet.letter_space = lv_span_get_style_text_letter_space(obj, cur_span);
 755:Middlewares/lvgl/src/extra/widgets/span/lv_span.c ****                 snippet.line_h = lv_font_get_line_height(snippet.font) + line_space;
 756:Middlewares/lvgl/src/extra/widgets/span/lv_span.c ****             }
 757:Middlewares/lvgl/src/extra/widgets/span/lv_span.c **** 
 758:Middlewares/lvgl/src/extra/widgets/span/lv_span.c ****             if(spans->overflow == LV_SPAN_OVERFLOW_ELLIPSIS) {
 759:Middlewares/lvgl/src/extra/widgets/span/lv_span.c ****                 /* span txt overflow, don't push */
 760:Middlewares/lvgl/src/extra/widgets/span/lv_span.c ****                 if(txt_pos.y + snippet.line_h - line_space > coords->y2 + 1) {
 761:Middlewares/lvgl/src/extra/widgets/span/lv_span.c ****                     break;
ARM GAS  /tmp/cc1iaYtN.s 			page 38


 762:Middlewares/lvgl/src/extra/widgets/span/lv_span.c ****                 }
 763:Middlewares/lvgl/src/extra/widgets/span/lv_span.c ****             }
 764:Middlewares/lvgl/src/extra/widgets/span/lv_span.c **** 
 765:Middlewares/lvgl/src/extra/widgets/span/lv_span.c ****             /* get current span text line info */
 766:Middlewares/lvgl/src/extra/widgets/span/lv_span.c ****             uint32_t next_ofs = 0;
 767:Middlewares/lvgl/src/extra/widgets/span/lv_span.c ****             lv_coord_t use_width = 0;
 768:Middlewares/lvgl/src/extra/widgets/span/lv_span.c ****             bool isfill = lv_txt_get_snippet(&cur_txt[cur_txt_ofs], snippet.font, snippet.letter_sp
 769:Middlewares/lvgl/src/extra/widgets/span/lv_span.c ****                                              max_w, txt_flag, &use_width, &next_ofs);
 770:Middlewares/lvgl/src/extra/widgets/span/lv_span.c **** 
 771:Middlewares/lvgl/src/extra/widgets/span/lv_span.c ****             /* break word deal width */
 772:Middlewares/lvgl/src/extra/widgets/span/lv_span.c ****             if(isfill && next_ofs > 0 && lv_get_snippet_cnt() > 0) {
 773:Middlewares/lvgl/src/extra/widgets/span/lv_span.c ****                 uint32_t letter = (uint32_t)cur_txt[cur_txt_ofs + next_ofs - 1];
 774:Middlewares/lvgl/src/extra/widgets/span/lv_span.c ****                 if(!(letter == '\0' || letter == '\n' || letter == '\r' || _lv_txt_is_break_char(le
 775:Middlewares/lvgl/src/extra/widgets/span/lv_span.c ****                     letter = (uint32_t)cur_txt[cur_txt_ofs + next_ofs];
 776:Middlewares/lvgl/src/extra/widgets/span/lv_span.c ****                     if(!(letter == '\0' || letter == '\n'  || letter == '\r' || _lv_txt_is_break_ch
 777:Middlewares/lvgl/src/extra/widgets/span/lv_span.c ****                         break;
 778:Middlewares/lvgl/src/extra/widgets/span/lv_span.c ****                     }
 779:Middlewares/lvgl/src/extra/widgets/span/lv_span.c ****                 }
 780:Middlewares/lvgl/src/extra/widgets/span/lv_span.c ****             }
 781:Middlewares/lvgl/src/extra/widgets/span/lv_span.c **** 
 782:Middlewares/lvgl/src/extra/widgets/span/lv_span.c ****             snippet.txt = &cur_txt[cur_txt_ofs];
 783:Middlewares/lvgl/src/extra/widgets/span/lv_span.c ****             snippet.bytes = next_ofs;
 784:Middlewares/lvgl/src/extra/widgets/span/lv_span.c ****             snippet.txt_w = use_width;
 785:Middlewares/lvgl/src/extra/widgets/span/lv_span.c ****             cur_txt_ofs += next_ofs;
 786:Middlewares/lvgl/src/extra/widgets/span/lv_span.c ****             if(max_line_h < snippet.line_h) {
 787:Middlewares/lvgl/src/extra/widgets/span/lv_span.c ****                 max_line_h = snippet.line_h;
 788:Middlewares/lvgl/src/extra/widgets/span/lv_span.c ****             }
 789:Middlewares/lvgl/src/extra/widgets/span/lv_span.c **** 
 790:Middlewares/lvgl/src/extra/widgets/span/lv_span.c ****             lv_snippet_push(&snippet);
 791:Middlewares/lvgl/src/extra/widgets/span/lv_span.c ****             if(isfill) {
 792:Middlewares/lvgl/src/extra/widgets/span/lv_span.c ****                 break;
 793:Middlewares/lvgl/src/extra/widgets/span/lv_span.c ****             }
 794:Middlewares/lvgl/src/extra/widgets/span/lv_span.c ****             max_w -= use_width;
 795:Middlewares/lvgl/src/extra/widgets/span/lv_span.c ****         }
 796:Middlewares/lvgl/src/extra/widgets/span/lv_span.c **** 
 797:Middlewares/lvgl/src/extra/widgets/span/lv_span.c ****         /* start current line deal width */
 798:Middlewares/lvgl/src/extra/widgets/span/lv_span.c **** 
 799:Middlewares/lvgl/src/extra/widgets/span/lv_span.c ****         uint16_t item_cnt = lv_get_snippet_cnt();
 800:Middlewares/lvgl/src/extra/widgets/span/lv_span.c ****         if(item_cnt == 0) {     /* break if stack is empty */
 801:Middlewares/lvgl/src/extra/widgets/span/lv_span.c ****             break;
 802:Middlewares/lvgl/src/extra/widgets/span/lv_span.c ****         }
 803:Middlewares/lvgl/src/extra/widgets/span/lv_span.c **** 
 804:Middlewares/lvgl/src/extra/widgets/span/lv_span.c ****         /*Go the first visible line*/
 805:Middlewares/lvgl/src/extra/widgets/span/lv_span.c ****         if(txt_pos.y + max_line_h < mask->y1) {
 806:Middlewares/lvgl/src/extra/widgets/span/lv_span.c ****             goto Next_line_init;
 807:Middlewares/lvgl/src/extra/widgets/span/lv_span.c ****         }
 808:Middlewares/lvgl/src/extra/widgets/span/lv_span.c **** 
 809:Middlewares/lvgl/src/extra/widgets/span/lv_span.c ****         /* overflow deal width */
 810:Middlewares/lvgl/src/extra/widgets/span/lv_span.c ****         bool ellipsis_valid = false;
 811:Middlewares/lvgl/src/extra/widgets/span/lv_span.c ****         if(spans->overflow == LV_SPAN_OVERFLOW_ELLIPSIS) {
 812:Middlewares/lvgl/src/extra/widgets/span/lv_span.c ****             lv_coord_t next_line_h = snippet.line_h;
 813:Middlewares/lvgl/src/extra/widgets/span/lv_span.c ****             if(cur_txt[cur_txt_ofs] == '\0') {  /* current span deal with ok, need get next line fi
 814:Middlewares/lvgl/src/extra/widgets/span/lv_span.c ****                 next_line_h = 0;
 815:Middlewares/lvgl/src/extra/widgets/span/lv_span.c ****                 if(cur_span) {
 816:Middlewares/lvgl/src/extra/widgets/span/lv_span.c ****                     lv_span_t * next_span = _lv_ll_get_next(&spans->child_ll, cur_span);
 817:Middlewares/lvgl/src/extra/widgets/span/lv_span.c ****                     if(next_span) { /* have the next line */
 818:Middlewares/lvgl/src/extra/widgets/span/lv_span.c ****                         next_line_h = lv_font_get_line_height(lv_span_get_style_text_font(obj, next
ARM GAS  /tmp/cc1iaYtN.s 			page 39


 819:Middlewares/lvgl/src/extra/widgets/span/lv_span.c ****                     }
 820:Middlewares/lvgl/src/extra/widgets/span/lv_span.c ****                 }
 821:Middlewares/lvgl/src/extra/widgets/span/lv_span.c ****             }
 822:Middlewares/lvgl/src/extra/widgets/span/lv_span.c ****             if(txt_pos.y + max_line_h + next_line_h > coords->y2  + 1) {
 823:Middlewares/lvgl/src/extra/widgets/span/lv_span.c ****                 ellipsis_valid = true;
 824:Middlewares/lvgl/src/extra/widgets/span/lv_span.c ****             }
 825:Middlewares/lvgl/src/extra/widgets/span/lv_span.c ****         }
 826:Middlewares/lvgl/src/extra/widgets/span/lv_span.c **** 
 827:Middlewares/lvgl/src/extra/widgets/span/lv_span.c ****         /* align deal with */
 828:Middlewares/lvgl/src/extra/widgets/span/lv_span.c ****         if(spans->align != LV_TEXT_ALIGN_LEFT) {
 829:Middlewares/lvgl/src/extra/widgets/span/lv_span.c ****             lv_coord_t align_ofs = 0;
 830:Middlewares/lvgl/src/extra/widgets/span/lv_span.c ****             lv_coord_t txts_w = 0;
 831:Middlewares/lvgl/src/extra/widgets/span/lv_span.c ****             for(int i = 0; i < item_cnt; i++) {
 832:Middlewares/lvgl/src/extra/widgets/span/lv_span.c ****                 lv_snippet_t * pinfo = lv_get_snippet(i);
 833:Middlewares/lvgl/src/extra/widgets/span/lv_span.c ****                 txts_w += pinfo->txt_w;
 834:Middlewares/lvgl/src/extra/widgets/span/lv_span.c ****             }
 835:Middlewares/lvgl/src/extra/widgets/span/lv_span.c ****             if(spans->align == LV_TEXT_ALIGN_CENTER) {
 836:Middlewares/lvgl/src/extra/widgets/span/lv_span.c ****                 align_ofs = (max_width - txts_w) / 2;
 837:Middlewares/lvgl/src/extra/widgets/span/lv_span.c ****             }
 838:Middlewares/lvgl/src/extra/widgets/span/lv_span.c ****             else if(spans->align == LV_TEXT_ALIGN_RIGHT) {
 839:Middlewares/lvgl/src/extra/widgets/span/lv_span.c ****                 align_ofs = max_width - txts_w;
 840:Middlewares/lvgl/src/extra/widgets/span/lv_span.c ****             }
 841:Middlewares/lvgl/src/extra/widgets/span/lv_span.c ****             txt_pos.x += align_ofs;
 842:Middlewares/lvgl/src/extra/widgets/span/lv_span.c ****         }
 843:Middlewares/lvgl/src/extra/widgets/span/lv_span.c **** 
 844:Middlewares/lvgl/src/extra/widgets/span/lv_span.c ****         /* draw line letters */
 845:Middlewares/lvgl/src/extra/widgets/span/lv_span.c ****         for(int i = 0; i < item_cnt; i++) {
 846:Middlewares/lvgl/src/extra/widgets/span/lv_span.c ****             lv_snippet_t * pinfo = lv_get_snippet(i);
 847:Middlewares/lvgl/src/extra/widgets/span/lv_span.c **** 
 848:Middlewares/lvgl/src/extra/widgets/span/lv_span.c ****             /* bidi deal with:todo */
 849:Middlewares/lvgl/src/extra/widgets/span/lv_span.c ****             const char * bidi_txt = pinfo->txt;
 850:Middlewares/lvgl/src/extra/widgets/span/lv_span.c **** 
 851:Middlewares/lvgl/src/extra/widgets/span/lv_span.c ****             lv_point_t pos;
 852:Middlewares/lvgl/src/extra/widgets/span/lv_span.c ****             pos.x = txt_pos.x;
 853:Middlewares/lvgl/src/extra/widgets/span/lv_span.c ****             pos.y = txt_pos.y + max_line_h - pinfo->line_h;
 854:Middlewares/lvgl/src/extra/widgets/span/lv_span.c ****             lv_color_t letter_color = lv_span_get_style_text_color(obj, pinfo->span);
 855:Middlewares/lvgl/src/extra/widgets/span/lv_span.c ****             lv_opa_t letter_opa = lv_span_get_style_text_opa(obj, pinfo->span);
 856:Middlewares/lvgl/src/extra/widgets/span/lv_span.c ****             lv_blend_mode_t blend_mode = lv_span_get_style_text_blend_mode(obj, pinfo->span);
 857:Middlewares/lvgl/src/extra/widgets/span/lv_span.c ****             uint32_t txt_bytes = pinfo->bytes;
 858:Middlewares/lvgl/src/extra/widgets/span/lv_span.c **** 
 859:Middlewares/lvgl/src/extra/widgets/span/lv_span.c ****             /* overflow */
 860:Middlewares/lvgl/src/extra/widgets/span/lv_span.c ****             uint16_t dot_letter_w = 0;
 861:Middlewares/lvgl/src/extra/widgets/span/lv_span.c ****             uint16_t dot_width = 0;
 862:Middlewares/lvgl/src/extra/widgets/span/lv_span.c ****             if(ellipsis_valid) {
 863:Middlewares/lvgl/src/extra/widgets/span/lv_span.c ****                 txt_bytes = strlen(bidi_txt);
 864:Middlewares/lvgl/src/extra/widgets/span/lv_span.c ****                 dot_letter_w = lv_font_get_glyph_width(pinfo->font, '.', '.');
 865:Middlewares/lvgl/src/extra/widgets/span/lv_span.c ****                 dot_width = dot_letter_w * 3;
 866:Middlewares/lvgl/src/extra/widgets/span/lv_span.c ****             }
 867:Middlewares/lvgl/src/extra/widgets/span/lv_span.c ****             lv_coord_t ellipsis_width = coords->x1 + max_width - dot_width;
 868:Middlewares/lvgl/src/extra/widgets/span/lv_span.c **** 
 869:Middlewares/lvgl/src/extra/widgets/span/lv_span.c ****             uint32_t j = 0;
 870:Middlewares/lvgl/src/extra/widgets/span/lv_span.c ****             while(j < txt_bytes) {
 871:Middlewares/lvgl/src/extra/widgets/span/lv_span.c ****                 /* skip invalid fields */
 872:Middlewares/lvgl/src/extra/widgets/span/lv_span.c ****                 if(pos.x > clipped_area.x2) {
 873:Middlewares/lvgl/src/extra/widgets/span/lv_span.c ****                     break;
 874:Middlewares/lvgl/src/extra/widgets/span/lv_span.c ****                 }
 875:Middlewares/lvgl/src/extra/widgets/span/lv_span.c ****                 uint32_t letter      = _lv_txt_encoded_next(bidi_txt, &j);
ARM GAS  /tmp/cc1iaYtN.s 			page 40


 876:Middlewares/lvgl/src/extra/widgets/span/lv_span.c ****                 uint32_t letter_next = _lv_txt_encoded_next(&bidi_txt[j], NULL);
 877:Middlewares/lvgl/src/extra/widgets/span/lv_span.c ****                 int32_t letter_w = lv_font_get_glyph_width(pinfo->font, letter, letter_next);
 878:Middlewares/lvgl/src/extra/widgets/span/lv_span.c **** 
 879:Middlewares/lvgl/src/extra/widgets/span/lv_span.c ****                 /* skip invalid fields */
 880:Middlewares/lvgl/src/extra/widgets/span/lv_span.c ****                 if(pos.x + letter_w + pinfo->letter_space < clipped_area.x1) {
 881:Middlewares/lvgl/src/extra/widgets/span/lv_span.c ****                     if(letter_w > 0) {
 882:Middlewares/lvgl/src/extra/widgets/span/lv_span.c ****                         pos.x = pos.x + letter_w + pinfo->letter_space;
 883:Middlewares/lvgl/src/extra/widgets/span/lv_span.c ****                     }
 884:Middlewares/lvgl/src/extra/widgets/span/lv_span.c ****                     continue;
 885:Middlewares/lvgl/src/extra/widgets/span/lv_span.c ****                 }
 886:Middlewares/lvgl/src/extra/widgets/span/lv_span.c **** 
 887:Middlewares/lvgl/src/extra/widgets/span/lv_span.c ****                 if(ellipsis_valid && pos.x + letter_w + pinfo->letter_space > ellipsis_width) {
 888:Middlewares/lvgl/src/extra/widgets/span/lv_span.c ****                     for(int ell = 0; ell < 3; ell++) {
 889:Middlewares/lvgl/src/extra/widgets/span/lv_span.c ****                         lv_draw_letter(&pos, &clipped_area, pinfo->font, '.', letter_color, letter_
 890:Middlewares/lvgl/src/extra/widgets/span/lv_span.c ****                         pos.x = pos.x + dot_letter_w + pinfo->letter_space;
 891:Middlewares/lvgl/src/extra/widgets/span/lv_span.c ****                     }
 892:Middlewares/lvgl/src/extra/widgets/span/lv_span.c ****                     break;
 893:Middlewares/lvgl/src/extra/widgets/span/lv_span.c ****                 }
 894:Middlewares/lvgl/src/extra/widgets/span/lv_span.c ****                 else {
 895:Middlewares/lvgl/src/extra/widgets/span/lv_span.c ****                     lv_draw_letter(&pos, &clipped_area, pinfo->font, letter, letter_color, letter_o
 896:Middlewares/lvgl/src/extra/widgets/span/lv_span.c ****                     if(letter_w > 0) {
 897:Middlewares/lvgl/src/extra/widgets/span/lv_span.c ****                         pos.x = pos.x + letter_w + pinfo->letter_space;
 898:Middlewares/lvgl/src/extra/widgets/span/lv_span.c ****                     }
 899:Middlewares/lvgl/src/extra/widgets/span/lv_span.c ****                 }
 900:Middlewares/lvgl/src/extra/widgets/span/lv_span.c ****             }
 901:Middlewares/lvgl/src/extra/widgets/span/lv_span.c **** 
 902:Middlewares/lvgl/src/extra/widgets/span/lv_span.c ****             if(ellipsis_valid && i == item_cnt - 1 && pos.x <= ellipsis_width) {
 903:Middlewares/lvgl/src/extra/widgets/span/lv_span.c ****                 for(int ell = 0; ell < 3; ell++) {
 904:Middlewares/lvgl/src/extra/widgets/span/lv_span.c ****                     lv_draw_letter(&pos, &clipped_area, pinfo->font, '.', letter_color, letter_opa,
 905:Middlewares/lvgl/src/extra/widgets/span/lv_span.c ****                     pos.x = pos.x + dot_letter_w + pinfo->letter_space;
 906:Middlewares/lvgl/src/extra/widgets/span/lv_span.c ****                 }
 907:Middlewares/lvgl/src/extra/widgets/span/lv_span.c ****             }
 908:Middlewares/lvgl/src/extra/widgets/span/lv_span.c **** 
 909:Middlewares/lvgl/src/extra/widgets/span/lv_span.c ****             /* draw decor */
 910:Middlewares/lvgl/src/extra/widgets/span/lv_span.c ****             lv_text_decor_t decor = lv_span_get_style_text_decor(obj, pinfo->span);
 911:Middlewares/lvgl/src/extra/widgets/span/lv_span.c ****             if(decor != LV_TEXT_DECOR_NONE) {
 912:Middlewares/lvgl/src/extra/widgets/span/lv_span.c ****                 lv_draw_line_dsc_t line_dsc;
 913:Middlewares/lvgl/src/extra/widgets/span/lv_span.c ****                 lv_draw_line_dsc_init(&line_dsc);
 914:Middlewares/lvgl/src/extra/widgets/span/lv_span.c ****                 line_dsc.color = letter_color;
 915:Middlewares/lvgl/src/extra/widgets/span/lv_span.c ****                 line_dsc.width = pinfo->font->underline_thickness ? pinfo->font->underline_thicknes
 916:Middlewares/lvgl/src/extra/widgets/span/lv_span.c ****                 line_dsc.opa = letter_opa;
 917:Middlewares/lvgl/src/extra/widgets/span/lv_span.c ****                 line_dsc.blend_mode = blend_mode;
 918:Middlewares/lvgl/src/extra/widgets/span/lv_span.c **** 
 919:Middlewares/lvgl/src/extra/widgets/span/lv_span.c ****                 if(decor & LV_TEXT_DECOR_STRIKETHROUGH) {
 920:Middlewares/lvgl/src/extra/widgets/span/lv_span.c ****                     lv_point_t p1;
 921:Middlewares/lvgl/src/extra/widgets/span/lv_span.c ****                     lv_point_t p2;
 922:Middlewares/lvgl/src/extra/widgets/span/lv_span.c ****                     p1.x = txt_pos.x;
 923:Middlewares/lvgl/src/extra/widgets/span/lv_span.c ****                     p1.y = pos.y + (pinfo->line_h / 2)  + line_dsc.width / 2;
 924:Middlewares/lvgl/src/extra/widgets/span/lv_span.c ****                     p2.x = pos.x;
 925:Middlewares/lvgl/src/extra/widgets/span/lv_span.c ****                     p2.y = p1.y;
 926:Middlewares/lvgl/src/extra/widgets/span/lv_span.c ****                     lv_draw_line(&p1, &p2, mask, &line_dsc);
 927:Middlewares/lvgl/src/extra/widgets/span/lv_span.c ****                 }
 928:Middlewares/lvgl/src/extra/widgets/span/lv_span.c **** 
 929:Middlewares/lvgl/src/extra/widgets/span/lv_span.c ****                 if(decor & LV_TEXT_DECOR_UNDERLINE) {
 930:Middlewares/lvgl/src/extra/widgets/span/lv_span.c ****                     lv_point_t p1;
 931:Middlewares/lvgl/src/extra/widgets/span/lv_span.c ****                     lv_point_t p2;
 932:Middlewares/lvgl/src/extra/widgets/span/lv_span.c ****                     p1.x = txt_pos.x;
ARM GAS  /tmp/cc1iaYtN.s 			page 41


 933:Middlewares/lvgl/src/extra/widgets/span/lv_span.c ****                     p1.y = pos.y + pinfo->line_h + line_dsc.width / 2;
 934:Middlewares/lvgl/src/extra/widgets/span/lv_span.c ****                     p2.x = pos.x;
 935:Middlewares/lvgl/src/extra/widgets/span/lv_span.c ****                     p2.y = p1.y;
 936:Middlewares/lvgl/src/extra/widgets/span/lv_span.c ****                     lv_draw_line(&p1, &p2, &clipped_area, &line_dsc);
 937:Middlewares/lvgl/src/extra/widgets/span/lv_span.c ****                 }
 938:Middlewares/lvgl/src/extra/widgets/span/lv_span.c ****             }
 939:Middlewares/lvgl/src/extra/widgets/span/lv_span.c ****             txt_pos.x = pos.x;
 940:Middlewares/lvgl/src/extra/widgets/span/lv_span.c ****         }
 941:Middlewares/lvgl/src/extra/widgets/span/lv_span.c **** 
 942:Middlewares/lvgl/src/extra/widgets/span/lv_span.c **** Next_line_init:
 943:Middlewares/lvgl/src/extra/widgets/span/lv_span.c ****         /* next line init */
 944:Middlewares/lvgl/src/extra/widgets/span/lv_span.c ****         txt_pos.x = coords->x1;
 945:Middlewares/lvgl/src/extra/widgets/span/lv_span.c ****         txt_pos.y += max_line_h;
 946:Middlewares/lvgl/src/extra/widgets/span/lv_span.c ****         if(txt_pos.y > clipped_area.y2 + 1) {
 947:Middlewares/lvgl/src/extra/widgets/span/lv_span.c ****             return;
 948:Middlewares/lvgl/src/extra/widgets/span/lv_span.c ****         }
 949:Middlewares/lvgl/src/extra/widgets/span/lv_span.c ****         max_w = max_width;
 950:Middlewares/lvgl/src/extra/widgets/span/lv_span.c ****     }
 951:Middlewares/lvgl/src/extra/widgets/span/lv_span.c **** }
 920              		.loc 1 951 1 view .LVU216
 921 0018 29B0     		add	sp, sp, #164
 922              	.LCFI32:
 923              		.cfi_remember_state
 924              		.cfi_def_cfa_offset 36
 925              		@ sp needed
 926 001a BDE8F08F 		pop	{r4, r5, r6, r7, r8, r9, r10, fp, pc}
 927              	.LVL84:
 928              	.L123:
 929              	.LCFI33:
 930              		.cfi_restore_state
 709:Middlewares/lvgl/src/extra/widgets/span/lv_span.c **** 
 931              		.loc 1 709 5 is_stmt 1 view .LVU217
 712:Middlewares/lvgl/src/extra/widgets/span/lv_span.c ****         return;
 932              		.loc 1 712 5 view .LVU218
 712:Middlewares/lvgl/src/extra/widgets/span/lv_span.c ****         return;
 933              		.loc 1 712 24 is_stmt 0 view .LVU219
 934 001e 0BF12803 		add	r3, fp, #40
 935 0022 1E46     		mov	r6, r3
 936 0024 0B93     		str	r3, [sp, #44]
 712:Middlewares/lvgl/src/extra/widgets/span/lv_span.c ****         return;
 937              		.loc 1 712 8 view .LVU220
 938 0026 1846     		mov	r0, r3
 939              	.LVL85:
 712:Middlewares/lvgl/src/extra/widgets/span/lv_span.c ****         return;
 940              		.loc 1 712 8 view .LVU221
 941 0028 FFF7FEFF 		bl	_lv_ll_get_head
 942              	.LVL86:
 712:Middlewares/lvgl/src/extra/widgets/span/lv_span.c ****         return;
 943              		.loc 1 712 7 view .LVU222
 944 002c 0028     		cmp	r0, #0
 945 002e F3D0     		beq	.L55
 717:Middlewares/lvgl/src/extra/widgets/span/lv_span.c ****     lv_coord_t line_space = lv_obj_get_style_text_line_space(obj, LV_PART_MAIN);;
 946              		.loc 1 717 5 is_stmt 1 view .LVU223
 947              	.LVL87:
 718:Middlewares/lvgl/src/extra/widgets/span/lv_span.c ****     lv_coord_t max_width = lv_area_get_width(coords);
 948              		.loc 1 718 5 view .LVU224
 949              	.LBB110:
ARM GAS  /tmp/cc1iaYtN.s 			page 42


 950              	.LBI110:
 341:Middlewares/lvgl/src/extra/widgets/span/../../../../src/core/lv_obj_style_gen.h **** }
 342:Middlewares/lvgl/src/extra/widgets/span/../../../../src/core/lv_obj_style_gen.h **** 
 343:Middlewares/lvgl/src/extra/widgets/span/../../../../src/core/lv_obj_style_gen.h **** static inline lv_coord_t lv_obj_get_style_text_line_space(const struct _lv_obj_t * obj, uint32_t pa
 951              		.loc 2 343 26 view .LVU225
 952              	.LBB111:
 344:Middlewares/lvgl/src/extra/widgets/span/../../../../src/core/lv_obj_style_gen.h **** {
 345:Middlewares/lvgl/src/extra/widgets/span/../../../../src/core/lv_obj_style_gen.h ****     lv_style_value_t v = lv_obj_get_style_prop(obj, part, LV_STYLE_TEXT_LINE_SPACE);
 953              		.loc 2 345 5 view .LVU226
 954              		.loc 2 345 26 is_stmt 0 view .LVU227
 955 0030 41F25B42 		movw	r2, #5211
 956 0034 0021     		movs	r1, #0
 957 0036 5846     		mov	r0, fp
 958 0038 FFF7FEFF 		bl	lv_obj_get_style_prop
 959              	.LVL88:
 960 003c 0C90     		str	r0, [sp, #48]
 346:Middlewares/lvgl/src/extra/widgets/span/../../../../src/core/lv_obj_style_gen.h ****     return (lv_coord_t)v.num;
 961              		.loc 2 346 5 is_stmt 1 view .LVU228
 962              		.loc 2 346 12 is_stmt 0 view .LVU229
 963 003e 02B2     		sxth	r2, r0
 964 0040 0892     		str	r2, [sp, #32]
 965              	.LVL89:
 966              		.loc 2 346 12 view .LVU230
 967              	.LBE111:
 968              	.LBE110:
 718:Middlewares/lvgl/src/extra/widgets/span/lv_span.c ****     lv_coord_t max_width = lv_area_get_width(coords);
 969              		.loc 1 718 81 is_stmt 1 view .LVU231
 719:Middlewares/lvgl/src/extra/widgets/span/lv_span.c ****     lv_coord_t max_w  = max_width - spans->indent; /* first line need minus indent */
 970              		.loc 1 719 5 view .LVU232
 971              	.LBB112:
 972              	.LBI112:
 973              		.file 3 "Middlewares/lvgl/src/extra/widgets/span/../../../../src/hal/../misc/lv_area.h"
   1:Middlewares/lvgl/src/extra/widgets/span/../../../../src/hal/../misc/lv_area.h **** /**
   2:Middlewares/lvgl/src/extra/widgets/span/../../../../src/hal/../misc/lv_area.h ****  * @file lv_area.h
   3:Middlewares/lvgl/src/extra/widgets/span/../../../../src/hal/../misc/lv_area.h ****  *
   4:Middlewares/lvgl/src/extra/widgets/span/../../../../src/hal/../misc/lv_area.h ****  */
   5:Middlewares/lvgl/src/extra/widgets/span/../../../../src/hal/../misc/lv_area.h **** 
   6:Middlewares/lvgl/src/extra/widgets/span/../../../../src/hal/../misc/lv_area.h **** #ifndef LV_AREA_H
   7:Middlewares/lvgl/src/extra/widgets/span/../../../../src/hal/../misc/lv_area.h **** #define LV_AREA_H
   8:Middlewares/lvgl/src/extra/widgets/span/../../../../src/hal/../misc/lv_area.h **** 
   9:Middlewares/lvgl/src/extra/widgets/span/../../../../src/hal/../misc/lv_area.h **** #ifdef __cplusplus
  10:Middlewares/lvgl/src/extra/widgets/span/../../../../src/hal/../misc/lv_area.h **** extern "C" {
  11:Middlewares/lvgl/src/extra/widgets/span/../../../../src/hal/../misc/lv_area.h **** #endif
  12:Middlewares/lvgl/src/extra/widgets/span/../../../../src/hal/../misc/lv_area.h **** 
  13:Middlewares/lvgl/src/extra/widgets/span/../../../../src/hal/../misc/lv_area.h **** /*********************
  14:Middlewares/lvgl/src/extra/widgets/span/../../../../src/hal/../misc/lv_area.h ****  *      INCLUDES
  15:Middlewares/lvgl/src/extra/widgets/span/../../../../src/hal/../misc/lv_area.h ****  *********************/
  16:Middlewares/lvgl/src/extra/widgets/span/../../../../src/hal/../misc/lv_area.h **** #include "../lv_conf_internal.h"
  17:Middlewares/lvgl/src/extra/widgets/span/../../../../src/hal/../misc/lv_area.h **** #include <string.h>
  18:Middlewares/lvgl/src/extra/widgets/span/../../../../src/hal/../misc/lv_area.h **** #include <stdbool.h>
  19:Middlewares/lvgl/src/extra/widgets/span/../../../../src/hal/../misc/lv_area.h **** #include <stdint.h>
  20:Middlewares/lvgl/src/extra/widgets/span/../../../../src/hal/../misc/lv_area.h **** 
  21:Middlewares/lvgl/src/extra/widgets/span/../../../../src/hal/../misc/lv_area.h **** /*********************
  22:Middlewares/lvgl/src/extra/widgets/span/../../../../src/hal/../misc/lv_area.h ****  *      DEFINES
  23:Middlewares/lvgl/src/extra/widgets/span/../../../../src/hal/../misc/lv_area.h ****  *********************/
  24:Middlewares/lvgl/src/extra/widgets/span/../../../../src/hal/../misc/lv_area.h **** 
  25:Middlewares/lvgl/src/extra/widgets/span/../../../../src/hal/../misc/lv_area.h **** #define _LV_COORD_MAX_REDUCE    8192
ARM GAS  /tmp/cc1iaYtN.s 			page 43


  26:Middlewares/lvgl/src/extra/widgets/span/../../../../src/hal/../misc/lv_area.h **** 
  27:Middlewares/lvgl/src/extra/widgets/span/../../../../src/hal/../misc/lv_area.h **** #if LV_USE_LARGE_COORD
  28:Middlewares/lvgl/src/extra/widgets/span/../../../../src/hal/../misc/lv_area.h **** typedef int32_t lv_coord_t;
  29:Middlewares/lvgl/src/extra/widgets/span/../../../../src/hal/../misc/lv_area.h **** #else
  30:Middlewares/lvgl/src/extra/widgets/span/../../../../src/hal/../misc/lv_area.h **** typedef int16_t lv_coord_t;
  31:Middlewares/lvgl/src/extra/widgets/span/../../../../src/hal/../misc/lv_area.h **** #endif
  32:Middlewares/lvgl/src/extra/widgets/span/../../../../src/hal/../misc/lv_area.h **** 
  33:Middlewares/lvgl/src/extra/widgets/span/../../../../src/hal/../misc/lv_area.h **** /*To allow some special values in the end reduce the max value*/
  34:Middlewares/lvgl/src/extra/widgets/span/../../../../src/hal/../misc/lv_area.h **** #define LV_COORD_MAX ((lv_coord_t)((uint32_t)((uint32_t)1 << (8 * sizeof(lv_coord_t) - 1)) - _LV_CO
  35:Middlewares/lvgl/src/extra/widgets/span/../../../../src/hal/../misc/lv_area.h **** #define LV_COORD_MIN (-LV_COORD_MAX)
  36:Middlewares/lvgl/src/extra/widgets/span/../../../../src/hal/../misc/lv_area.h **** 
  37:Middlewares/lvgl/src/extra/widgets/span/../../../../src/hal/../misc/lv_area.h **** LV_EXPORT_CONST_INT(LV_COORD_MAX);
  38:Middlewares/lvgl/src/extra/widgets/span/../../../../src/hal/../misc/lv_area.h **** LV_EXPORT_CONST_INT(LV_COORD_MIN);
  39:Middlewares/lvgl/src/extra/widgets/span/../../../../src/hal/../misc/lv_area.h **** 
  40:Middlewares/lvgl/src/extra/widgets/span/../../../../src/hal/../misc/lv_area.h **** /**********************
  41:Middlewares/lvgl/src/extra/widgets/span/../../../../src/hal/../misc/lv_area.h ****  *      TYPEDEFS
  42:Middlewares/lvgl/src/extra/widgets/span/../../../../src/hal/../misc/lv_area.h ****  **********************/
  43:Middlewares/lvgl/src/extra/widgets/span/../../../../src/hal/../misc/lv_area.h **** 
  44:Middlewares/lvgl/src/extra/widgets/span/../../../../src/hal/../misc/lv_area.h **** /**
  45:Middlewares/lvgl/src/extra/widgets/span/../../../../src/hal/../misc/lv_area.h ****  * Represents a point on the screen.
  46:Middlewares/lvgl/src/extra/widgets/span/../../../../src/hal/../misc/lv_area.h ****  */
  47:Middlewares/lvgl/src/extra/widgets/span/../../../../src/hal/../misc/lv_area.h **** typedef struct {
  48:Middlewares/lvgl/src/extra/widgets/span/../../../../src/hal/../misc/lv_area.h ****     lv_coord_t x;
  49:Middlewares/lvgl/src/extra/widgets/span/../../../../src/hal/../misc/lv_area.h ****     lv_coord_t y;
  50:Middlewares/lvgl/src/extra/widgets/span/../../../../src/hal/../misc/lv_area.h **** } lv_point_t;
  51:Middlewares/lvgl/src/extra/widgets/span/../../../../src/hal/../misc/lv_area.h **** 
  52:Middlewares/lvgl/src/extra/widgets/span/../../../../src/hal/../misc/lv_area.h **** /** Represents an area of the screen.*/
  53:Middlewares/lvgl/src/extra/widgets/span/../../../../src/hal/../misc/lv_area.h **** typedef struct {
  54:Middlewares/lvgl/src/extra/widgets/span/../../../../src/hal/../misc/lv_area.h ****     lv_coord_t x1;
  55:Middlewares/lvgl/src/extra/widgets/span/../../../../src/hal/../misc/lv_area.h ****     lv_coord_t y1;
  56:Middlewares/lvgl/src/extra/widgets/span/../../../../src/hal/../misc/lv_area.h ****     lv_coord_t x2;
  57:Middlewares/lvgl/src/extra/widgets/span/../../../../src/hal/../misc/lv_area.h ****     lv_coord_t y2;
  58:Middlewares/lvgl/src/extra/widgets/span/../../../../src/hal/../misc/lv_area.h **** } lv_area_t;
  59:Middlewares/lvgl/src/extra/widgets/span/../../../../src/hal/../misc/lv_area.h **** 
  60:Middlewares/lvgl/src/extra/widgets/span/../../../../src/hal/../misc/lv_area.h **** /** Alignments*/
  61:Middlewares/lvgl/src/extra/widgets/span/../../../../src/hal/../misc/lv_area.h **** enum {
  62:Middlewares/lvgl/src/extra/widgets/span/../../../../src/hal/../misc/lv_area.h ****     LV_ALIGN_DEFAULT = 0,
  63:Middlewares/lvgl/src/extra/widgets/span/../../../../src/hal/../misc/lv_area.h ****     LV_ALIGN_TOP_LEFT,
  64:Middlewares/lvgl/src/extra/widgets/span/../../../../src/hal/../misc/lv_area.h ****     LV_ALIGN_TOP_MID,
  65:Middlewares/lvgl/src/extra/widgets/span/../../../../src/hal/../misc/lv_area.h ****     LV_ALIGN_TOP_RIGHT,
  66:Middlewares/lvgl/src/extra/widgets/span/../../../../src/hal/../misc/lv_area.h ****     LV_ALIGN_BOTTOM_LEFT,
  67:Middlewares/lvgl/src/extra/widgets/span/../../../../src/hal/../misc/lv_area.h ****     LV_ALIGN_BOTTOM_MID,
  68:Middlewares/lvgl/src/extra/widgets/span/../../../../src/hal/../misc/lv_area.h ****     LV_ALIGN_BOTTOM_RIGHT,
  69:Middlewares/lvgl/src/extra/widgets/span/../../../../src/hal/../misc/lv_area.h ****     LV_ALIGN_LEFT_MID,
  70:Middlewares/lvgl/src/extra/widgets/span/../../../../src/hal/../misc/lv_area.h ****     LV_ALIGN_RIGHT_MID,
  71:Middlewares/lvgl/src/extra/widgets/span/../../../../src/hal/../misc/lv_area.h ****     LV_ALIGN_CENTER,
  72:Middlewares/lvgl/src/extra/widgets/span/../../../../src/hal/../misc/lv_area.h **** 
  73:Middlewares/lvgl/src/extra/widgets/span/../../../../src/hal/../misc/lv_area.h ****     LV_ALIGN_OUT_TOP_LEFT,
  74:Middlewares/lvgl/src/extra/widgets/span/../../../../src/hal/../misc/lv_area.h ****     LV_ALIGN_OUT_TOP_MID,
  75:Middlewares/lvgl/src/extra/widgets/span/../../../../src/hal/../misc/lv_area.h ****     LV_ALIGN_OUT_TOP_RIGHT,
  76:Middlewares/lvgl/src/extra/widgets/span/../../../../src/hal/../misc/lv_area.h ****     LV_ALIGN_OUT_BOTTOM_LEFT,
  77:Middlewares/lvgl/src/extra/widgets/span/../../../../src/hal/../misc/lv_area.h ****     LV_ALIGN_OUT_BOTTOM_MID,
  78:Middlewares/lvgl/src/extra/widgets/span/../../../../src/hal/../misc/lv_area.h ****     LV_ALIGN_OUT_BOTTOM_RIGHT,
  79:Middlewares/lvgl/src/extra/widgets/span/../../../../src/hal/../misc/lv_area.h ****     LV_ALIGN_OUT_LEFT_TOP,
  80:Middlewares/lvgl/src/extra/widgets/span/../../../../src/hal/../misc/lv_area.h ****     LV_ALIGN_OUT_LEFT_MID,
  81:Middlewares/lvgl/src/extra/widgets/span/../../../../src/hal/../misc/lv_area.h ****     LV_ALIGN_OUT_LEFT_BOTTOM,
  82:Middlewares/lvgl/src/extra/widgets/span/../../../../src/hal/../misc/lv_area.h ****     LV_ALIGN_OUT_RIGHT_TOP,
ARM GAS  /tmp/cc1iaYtN.s 			page 44


  83:Middlewares/lvgl/src/extra/widgets/span/../../../../src/hal/../misc/lv_area.h ****     LV_ALIGN_OUT_RIGHT_MID,
  84:Middlewares/lvgl/src/extra/widgets/span/../../../../src/hal/../misc/lv_area.h ****     LV_ALIGN_OUT_RIGHT_BOTTOM,
  85:Middlewares/lvgl/src/extra/widgets/span/../../../../src/hal/../misc/lv_area.h **** };
  86:Middlewares/lvgl/src/extra/widgets/span/../../../../src/hal/../misc/lv_area.h **** typedef uint8_t lv_align_t;
  87:Middlewares/lvgl/src/extra/widgets/span/../../../../src/hal/../misc/lv_area.h **** 
  88:Middlewares/lvgl/src/extra/widgets/span/../../../../src/hal/../misc/lv_area.h **** enum {
  89:Middlewares/lvgl/src/extra/widgets/span/../../../../src/hal/../misc/lv_area.h ****     LV_DIR_NONE     = 0x00,
  90:Middlewares/lvgl/src/extra/widgets/span/../../../../src/hal/../misc/lv_area.h ****     LV_DIR_LEFT     = (1 << 0),
  91:Middlewares/lvgl/src/extra/widgets/span/../../../../src/hal/../misc/lv_area.h ****     LV_DIR_RIGHT    = (1 << 1),
  92:Middlewares/lvgl/src/extra/widgets/span/../../../../src/hal/../misc/lv_area.h ****     LV_DIR_TOP      = (1 << 2),
  93:Middlewares/lvgl/src/extra/widgets/span/../../../../src/hal/../misc/lv_area.h ****     LV_DIR_BOTTOM   = (1 << 3),
  94:Middlewares/lvgl/src/extra/widgets/span/../../../../src/hal/../misc/lv_area.h ****     LV_DIR_HOR      = LV_DIR_LEFT | LV_DIR_RIGHT,
  95:Middlewares/lvgl/src/extra/widgets/span/../../../../src/hal/../misc/lv_area.h ****     LV_DIR_VER      = LV_DIR_TOP | LV_DIR_BOTTOM,
  96:Middlewares/lvgl/src/extra/widgets/span/../../../../src/hal/../misc/lv_area.h ****     LV_DIR_ALL      = LV_DIR_HOR | LV_DIR_VER,
  97:Middlewares/lvgl/src/extra/widgets/span/../../../../src/hal/../misc/lv_area.h **** };
  98:Middlewares/lvgl/src/extra/widgets/span/../../../../src/hal/../misc/lv_area.h **** 
  99:Middlewares/lvgl/src/extra/widgets/span/../../../../src/hal/../misc/lv_area.h **** typedef uint8_t lv_dir_t;
 100:Middlewares/lvgl/src/extra/widgets/span/../../../../src/hal/../misc/lv_area.h **** 
 101:Middlewares/lvgl/src/extra/widgets/span/../../../../src/hal/../misc/lv_area.h **** /**********************
 102:Middlewares/lvgl/src/extra/widgets/span/../../../../src/hal/../misc/lv_area.h ****  * GLOBAL PROTOTYPES
 103:Middlewares/lvgl/src/extra/widgets/span/../../../../src/hal/../misc/lv_area.h ****  **********************/
 104:Middlewares/lvgl/src/extra/widgets/span/../../../../src/hal/../misc/lv_area.h **** 
 105:Middlewares/lvgl/src/extra/widgets/span/../../../../src/hal/../misc/lv_area.h **** /**
 106:Middlewares/lvgl/src/extra/widgets/span/../../../../src/hal/../misc/lv_area.h ****  * Initialize an area
 107:Middlewares/lvgl/src/extra/widgets/span/../../../../src/hal/../misc/lv_area.h ****  * @param area_p pointer to an area
 108:Middlewares/lvgl/src/extra/widgets/span/../../../../src/hal/../misc/lv_area.h ****  * @param x1 left coordinate of the area
 109:Middlewares/lvgl/src/extra/widgets/span/../../../../src/hal/../misc/lv_area.h ****  * @param y1 top coordinate of the area
 110:Middlewares/lvgl/src/extra/widgets/span/../../../../src/hal/../misc/lv_area.h ****  * @param x2 right coordinate of the area
 111:Middlewares/lvgl/src/extra/widgets/span/../../../../src/hal/../misc/lv_area.h ****  * @param y2 bottom coordinate of the area
 112:Middlewares/lvgl/src/extra/widgets/span/../../../../src/hal/../misc/lv_area.h ****  */
 113:Middlewares/lvgl/src/extra/widgets/span/../../../../src/hal/../misc/lv_area.h **** void lv_area_set(lv_area_t * area_p, lv_coord_t x1, lv_coord_t y1, lv_coord_t x2, lv_coord_t y2);
 114:Middlewares/lvgl/src/extra/widgets/span/../../../../src/hal/../misc/lv_area.h **** 
 115:Middlewares/lvgl/src/extra/widgets/span/../../../../src/hal/../misc/lv_area.h **** /**
 116:Middlewares/lvgl/src/extra/widgets/span/../../../../src/hal/../misc/lv_area.h ****  * Copy an area
 117:Middlewares/lvgl/src/extra/widgets/span/../../../../src/hal/../misc/lv_area.h ****  * @param dest pointer to the destination area
 118:Middlewares/lvgl/src/extra/widgets/span/../../../../src/hal/../misc/lv_area.h ****  * @param src pointer to the source area
 119:Middlewares/lvgl/src/extra/widgets/span/../../../../src/hal/../misc/lv_area.h ****  */
 120:Middlewares/lvgl/src/extra/widgets/span/../../../../src/hal/../misc/lv_area.h **** inline static void lv_area_copy(lv_area_t * dest, const lv_area_t * src)
 121:Middlewares/lvgl/src/extra/widgets/span/../../../../src/hal/../misc/lv_area.h **** {
 122:Middlewares/lvgl/src/extra/widgets/span/../../../../src/hal/../misc/lv_area.h ****     dest->x1 = src->x1;
 123:Middlewares/lvgl/src/extra/widgets/span/../../../../src/hal/../misc/lv_area.h ****     dest->y1 = src->y1;
 124:Middlewares/lvgl/src/extra/widgets/span/../../../../src/hal/../misc/lv_area.h ****     dest->x2 = src->x2;
 125:Middlewares/lvgl/src/extra/widgets/span/../../../../src/hal/../misc/lv_area.h ****     dest->y2 = src->y2;
 126:Middlewares/lvgl/src/extra/widgets/span/../../../../src/hal/../misc/lv_area.h **** }
 127:Middlewares/lvgl/src/extra/widgets/span/../../../../src/hal/../misc/lv_area.h **** 
 128:Middlewares/lvgl/src/extra/widgets/span/../../../../src/hal/../misc/lv_area.h **** /**
 129:Middlewares/lvgl/src/extra/widgets/span/../../../../src/hal/../misc/lv_area.h ****  * Get the width of an area
 130:Middlewares/lvgl/src/extra/widgets/span/../../../../src/hal/../misc/lv_area.h ****  * @param area_p pointer to an area
 131:Middlewares/lvgl/src/extra/widgets/span/../../../../src/hal/../misc/lv_area.h ****  * @return the width of the area (if x1 == x2 -> width = 1)
 132:Middlewares/lvgl/src/extra/widgets/span/../../../../src/hal/../misc/lv_area.h ****  */
 133:Middlewares/lvgl/src/extra/widgets/span/../../../../src/hal/../misc/lv_area.h **** static inline lv_coord_t lv_area_get_width(const lv_area_t * area_p)
 974              		.loc 3 133 26 view .LVU233
 975              	.LBB113:
 134:Middlewares/lvgl/src/extra/widgets/span/../../../../src/hal/../misc/lv_area.h **** {
 135:Middlewares/lvgl/src/extra/widgets/span/../../../../src/hal/../misc/lv_area.h ****     return (lv_coord_t)(area_p->x2 - area_p->x1 + 1);
 976              		.loc 3 135 5 view .LVU234
 977              		.loc 3 135 31 is_stmt 0 view .LVU235
ARM GAS  /tmp/cc1iaYtN.s 			page 45


 978 0042 2146     		mov	r1, r4
 979 0044 A388     		ldrh	r3, [r4, #4]
 980              		.loc 3 135 44 view .LVU236
 981 0046 2288     		ldrh	r2, [r4]
 982              		.loc 3 135 36 view .LVU237
 983 0048 9B1A     		subs	r3, r3, r2
 984 004a 9BB2     		uxth	r3, r3
 985              		.loc 3 135 49 view .LVU238
 986 004c 0133     		adds	r3, r3, #1
 987 004e 9CB2     		uxth	r4, r3
 988              	.LVL90:
 989              		.loc 3 135 49 view .LVU239
 990 0050 1194     		str	r4, [sp, #68]
 991              		.loc 3 135 12 view .LVU240
 992 0052 1DB2     		sxth	r5, r3
 993 0054 1495     		str	r5, [sp, #80]
 994              	.LVL91:
 995              		.loc 3 135 12 view .LVU241
 996              	.LBE113:
 997              	.LBE112:
 720:Middlewares/lvgl/src/extra/widgets/span/lv_span.c **** 
 998              		.loc 1 720 5 is_stmt 1 view .LVU242
 720:Middlewares/lvgl/src/extra/widgets/span/lv_span.c **** 
 999              		.loc 1 720 42 is_stmt 0 view .LVU243
 1000 0056 BBF82430 		ldrh	r3, [fp, #36]
 720:Middlewares/lvgl/src/extra/widgets/span/lv_span.c **** 
 1001              		.loc 1 720 35 view .LVU244
 1002 005a E41A     		subs	r4, r4, r3
 720:Middlewares/lvgl/src/extra/widgets/span/lv_span.c **** 
 1003              		.loc 1 720 16 view .LVU245
 1004 005c 24B2     		sxth	r4, r4
 1005              	.LVL92:
 723:Middlewares/lvgl/src/extra/widgets/span/lv_span.c ****     txt_pos.y = coords->y1;
 1006              		.loc 1 723 5 is_stmt 1 view .LVU246
 724:Middlewares/lvgl/src/extra/widgets/span/lv_span.c ****     txt_pos.x = coords->x1 + spans->indent; /* first line need add indent */
 1007              		.loc 1 724 5 view .LVU247
 724:Middlewares/lvgl/src/extra/widgets/span/lv_span.c ****     txt_pos.x = coords->x1 + spans->indent; /* first line need add indent */
 1008              		.loc 1 724 23 is_stmt 0 view .LVU248
 1009 005e B1F90210 		ldrsh	r1, [r1, #2]
 724:Middlewares/lvgl/src/extra/widgets/span/lv_span.c ****     txt_pos.x = coords->x1 + spans->indent; /* first line need add indent */
 1010              		.loc 1 724 15 view .LVU249
 1011 0062 ADF89610 		strh	r1, [sp, #150]	@ movhi
 725:Middlewares/lvgl/src/extra/widgets/span/lv_span.c **** 
 1012              		.loc 1 725 5 is_stmt 1 view .LVU250
 725:Middlewares/lvgl/src/extra/widgets/span/lv_span.c **** 
 1013              		.loc 1 725 28 is_stmt 0 view .LVU251
 1014 0066 1344     		add	r3, r3, r2
 725:Middlewares/lvgl/src/extra/widgets/span/lv_span.c **** 
 1015              		.loc 1 725 15 view .LVU252
 1016 0068 ADF89430 		strh	r3, [sp, #148]	@ movhi
 727:Middlewares/lvgl/src/extra/widgets/span/lv_span.c ****     const char * cur_txt = cur_span->txt;
 1017              		.loc 1 727 5 is_stmt 1 view .LVU253
 727:Middlewares/lvgl/src/extra/widgets/span/lv_span.c ****     const char * cur_txt = cur_span->txt;
 1018              		.loc 1 727 28 is_stmt 0 view .LVU254
 1019 006c 3046     		mov	r0, r6
 1020 006e FFF7FEFF 		bl	_lv_ll_get_head
 1021              	.LVL93:
ARM GAS  /tmp/cc1iaYtN.s 			page 46


 1022 0072 1290     		str	r0, [sp, #72]
 1023              	.LVL94:
 728:Middlewares/lvgl/src/extra/widgets/span/lv_span.c ****     span_text_check(&cur_txt);
 1024              		.loc 1 728 5 is_stmt 1 view .LVU255
 728:Middlewares/lvgl/src/extra/widgets/span/lv_span.c ****     span_text_check(&cur_txt);
 1025              		.loc 1 728 36 is_stmt 0 view .LVU256
 1026 0074 D0F800A0 		ldr	r10, [r0]
 1027              	.LVL95:
 729:Middlewares/lvgl/src/extra/widgets/span/lv_span.c ****     uint32_t cur_txt_ofs = 0;
 1028              		.loc 1 729 5 is_stmt 1 view .LVU257
 1029              	.LBB114:
 1030              	.LBI114:
 688:Middlewares/lvgl/src/extra/widgets/span/lv_span.c **** {
 1031              		.loc 1 688 20 view .LVU258
 1032              	.LBB115:
 690:Middlewares/lvgl/src/extra/widgets/span/lv_span.c ****         *text = "";
 1033              		.loc 1 690 5 view .LVU259
 690:Middlewares/lvgl/src/extra/widgets/span/lv_span.c ****         *text = "";
 1034              		.loc 1 690 7 is_stmt 0 view .LVU260
 1035 0078 BAF1000F 		cmp	r10, #0
 1036 007c 0BD0     		beq	.L124
 1037              	.LVL96:
 1038              	.L57:
 692:Middlewares/lvgl/src/extra/widgets/span/lv_span.c ****     }
 1039              		.loc 1 692 62 is_stmt 1 view .LVU261
 692:Middlewares/lvgl/src/extra/widgets/span/lv_span.c ****     }
 1040              		.loc 1 692 62 is_stmt 0 view .LVU262
 1041              	.LBE115:
 1042              	.LBE114:
 730:Middlewares/lvgl/src/extra/widgets/span/lv_span.c ****     lv_snippet_t snippet;   /* use to save cur_span info and push it to stack */
 1043              		.loc 1 730 5 is_stmt 1 view .LVU263
 731:Middlewares/lvgl/src/extra/widgets/span/lv_span.c ****     memset(&snippet, 0, sizeof(snippet));
 1044              		.loc 1 731 5 view .LVU264
 732:Middlewares/lvgl/src/extra/widgets/span/lv_span.c ****     
 1045              		.loc 1 732 5 view .LVU265
 1046 007e 0023     		movs	r3, #0
 1047 0080 2093     		str	r3, [sp, #128]
 1048 0082 2193     		str	r3, [sp, #132]
 1049 0084 2293     		str	r3, [sp, #136]
 1050 0086 2393     		str	r3, [sp, #140]
 1051 0088 2493     		str	r3, [sp, #144]
 735:Middlewares/lvgl/src/extra/widgets/span/lv_span.c ****         lv_coord_t max_line_h = 0;  /* the max height of span-font when a line have a lot of span *
 1052              		.loc 1 735 5 view .LVU266
 730:Middlewares/lvgl/src/extra/widgets/span/lv_span.c ****     lv_snippet_t snippet;   /* use to save cur_span info and push it to stack */
 1053              		.loc 1 730 14 is_stmt 0 view .LVU267
 1054 008a 9946     		mov	r9, r3
 1055 008c 5B46     		mov	r3, fp
 1056 008e D346     		mov	fp, r10
 1057              	.LVL97:
 730:Middlewares/lvgl/src/extra/widgets/span/lv_span.c ****     lv_snippet_t snippet;   /* use to save cur_span info and push it to stack */
 1058              		.loc 1 730 14 view .LVU268
 1059 0090 CA46     		mov	r10, r9
 1060              	.LVL98:
 730:Middlewares/lvgl/src/extra/widgets/span/lv_span.c ****     lv_snippet_t snippet;   /* use to save cur_span info and push it to stack */
 1061              		.loc 1 730 14 view .LVU269
 1062 0092 9946     		mov	r9, r3
 735:Middlewares/lvgl/src/extra/widgets/span/lv_span.c ****         lv_coord_t max_line_h = 0;  /* the max height of span-font when a line have a lot of span *
ARM GAS  /tmp/cc1iaYtN.s 			page 47


 1063              		.loc 1 735 10 view .LVU270
 1064 0094 DDE0     		b	.L58
 1065              	.LVL99:
 1066              	.L124:
 1067              	.LBB117:
 1068              	.LBB116:
 691:Middlewares/lvgl/src/extra/widgets/span/lv_span.c ****         LV_LOG_ERROR("occur an error that span text == NULL");
 1069              		.loc 1 691 15 view .LVU271
 1070 0096 DFF8B4A2 		ldr	r10, .L144
 1071              	.LVL100:
 691:Middlewares/lvgl/src/extra/widgets/span/lv_span.c ****         LV_LOG_ERROR("occur an error that span text == NULL");
 1072              		.loc 1 691 15 view .LVU272
 1073 009a F0E7     		b	.L57
 1074              	.LVL101:
 1075              	.L126:
 691:Middlewares/lvgl/src/extra/widgets/span/lv_span.c ****         LV_LOG_ERROR("occur an error that span text == NULL");
 1076              		.loc 1 691 15 view .LVU273
 1077              	.LBE116:
 1078              	.LBE117:
 1079              	.LBB118:
 1080              	.LBB119:
 743:Middlewares/lvgl/src/extra/widgets/span/lv_span.c ****                 if(cur_span == NULL) break;
 1081              		.loc 1 743 17 is_stmt 1 view .LVU274
 743:Middlewares/lvgl/src/extra/widgets/span/lv_span.c ****                 if(cur_span == NULL) break;
 1082              		.loc 1 743 28 is_stmt 0 view .LVU275
 1083 009c 4146     		mov	r1, r8
 1084 009e 0B98     		ldr	r0, [sp, #44]
 1085 00a0 FFF7FEFF 		bl	_lv_ll_get_next
 1086              	.LVL102:
 744:Middlewares/lvgl/src/extra/widgets/span/lv_span.c ****                 cur_txt = cur_span->txt;
 1087              		.loc 1 744 17 is_stmt 1 view .LVU276
 744:Middlewares/lvgl/src/extra/widgets/span/lv_span.c ****                 cur_txt = cur_span->txt;
 1088              		.loc 1 744 19 is_stmt 0 view .LVU277
 1089 00a4 8046     		mov	r8, r0
 1090 00a6 0028     		cmp	r0, #0
 1091 00a8 00F0AB80 		beq	.L60
 745:Middlewares/lvgl/src/extra/widgets/span/lv_span.c ****                 span_text_check(&cur_txt);
 1092              		.loc 1 745 17 is_stmt 1 view .LVU278
 745:Middlewares/lvgl/src/extra/widgets/span/lv_span.c ****                 span_text_check(&cur_txt);
 1093              		.loc 1 745 35 is_stmt 0 view .LVU279
 1094 00ac 0768     		ldr	r7, [r0]
 1095              	.LVL103:
 746:Middlewares/lvgl/src/extra/widgets/span/lv_span.c ****                 cur_txt_ofs = 0;
 1096              		.loc 1 746 17 is_stmt 1 view .LVU280
 1097              	.LBB120:
 1098              	.LBI120:
 688:Middlewares/lvgl/src/extra/widgets/span/lv_span.c **** {
 1099              		.loc 1 688 20 view .LVU281
 1100              	.LBB121:
 690:Middlewares/lvgl/src/extra/widgets/span/lv_span.c ****         *text = "";
 1101              		.loc 1 690 5 view .LVU282
 690:Middlewares/lvgl/src/extra/widgets/span/lv_span.c ****         *text = "";
 1102              		.loc 1 690 7 is_stmt 0 view .LVU283
 1103 00ae 0FB1     		cbz	r7, .L107
 1104              	.LBE121:
 1105              	.LBE120:
 747:Middlewares/lvgl/src/extra/widgets/span/lv_span.c ****             }
ARM GAS  /tmp/cc1iaYtN.s 			page 48


 1106              		.loc 1 747 29 view .LVU284
 1107 00b0 0025     		movs	r5, #0
 1108              	.LVL104:
 747:Middlewares/lvgl/src/extra/widgets/span/lv_span.c ****             }
 1109              		.loc 1 747 29 view .LVU285
 1110 00b2 55E0     		b	.L59
 1111              	.LVL105:
 1112              	.L107:
 1113              	.LBB123:
 1114              	.LBB122:
 691:Middlewares/lvgl/src/extra/widgets/span/lv_span.c ****         LV_LOG_ERROR("occur an error that span text == NULL");
 1115              		.loc 1 691 15 view .LVU286
 1116 00b4 A54F     		ldr	r7, .L144
 1117              	.LVL106:
 691:Middlewares/lvgl/src/extra/widgets/span/lv_span.c ****         LV_LOG_ERROR("occur an error that span text == NULL");
 1118              		.loc 1 691 15 view .LVU287
 1119              	.LBE122:
 1120              	.LBE123:
 747:Middlewares/lvgl/src/extra/widgets/span/lv_span.c ****             }
 1121              		.loc 1 747 29 view .LVU288
 1122 00b6 0025     		movs	r5, #0
 1123              	.LVL107:
 747:Middlewares/lvgl/src/extra/widgets/span/lv_span.c ****             }
 1124              		.loc 1 747 29 view .LVU289
 1125 00b8 52E0     		b	.L59
 1126              	.LVL108:
 1127              	.L127:
 752:Middlewares/lvgl/src/extra/widgets/span/lv_span.c ****                 snippet.font = lv_span_get_style_text_font(obj, cur_span);
 1128              		.loc 1 752 17 is_stmt 1 view .LVU290
 752:Middlewares/lvgl/src/extra/widgets/span/lv_span.c ****                 snippet.font = lv_span_get_style_text_font(obj, cur_span);
 1129              		.loc 1 752 30 is_stmt 0 view .LVU291
 1130 00ba CDF88080 		str	r8, [sp, #128]
 753:Middlewares/lvgl/src/extra/widgets/span/lv_span.c ****                 snippet.letter_space = lv_span_get_style_text_letter_space(obj, cur_span);
 1131              		.loc 1 753 17 is_stmt 1 view .LVU292
 753:Middlewares/lvgl/src/extra/widgets/span/lv_span.c ****                 snippet.letter_space = lv_span_get_style_text_letter_space(obj, cur_span);
 1132              		.loc 1 753 32 is_stmt 0 view .LVU293
 1133 00be 4146     		mov	r1, r8
 1134 00c0 4846     		mov	r0, r9
 1135 00c2 FFF7FEFF 		bl	lv_span_get_style_text_font
 1136              	.LVL109:
 753:Middlewares/lvgl/src/extra/widgets/span/lv_span.c ****                 snippet.letter_space = lv_span_get_style_text_letter_space(obj, cur_span);
 1137              		.loc 1 753 30 view .LVU294
 1138 00c6 2290     		str	r0, [sp, #136]
 754:Middlewares/lvgl/src/extra/widgets/span/lv_span.c ****                 snippet.line_h = lv_font_get_line_height(snippet.font) + line_space;
 1139              		.loc 1 754 17 is_stmt 1 view .LVU295
 754:Middlewares/lvgl/src/extra/widgets/span/lv_span.c ****                 snippet.line_h = lv_font_get_line_height(snippet.font) + line_space;
 1140              		.loc 1 754 40 is_stmt 0 view .LVU296
 1141 00c8 4146     		mov	r1, r8
 1142 00ca 4846     		mov	r0, r9
 1143 00cc FFF7FEFF 		bl	lv_span_get_style_text_letter_space
 1144              	.LVL110:
 754:Middlewares/lvgl/src/extra/widgets/span/lv_span.c ****                 snippet.line_h = lv_font_get_line_height(snippet.font) + line_space;
 1145              		.loc 1 754 38 view .LVU297
 1146 00d0 ADF89200 		strh	r0, [sp, #146]	@ movhi
 755:Middlewares/lvgl/src/extra/widgets/span/lv_span.c ****             }
 1147              		.loc 1 755 17 is_stmt 1 view .LVU298
 755:Middlewares/lvgl/src/extra/widgets/span/lv_span.c ****             }
ARM GAS  /tmp/cc1iaYtN.s 			page 49


 1148              		.loc 1 755 34 is_stmt 0 view .LVU299
 1149 00d4 229B     		ldr	r3, [sp, #136]
 1150              	.LVL111:
 1151              	.LBB124:
 1152              	.LBI124:
 1153              		.file 4 "Middlewares/lvgl/src/extra/widgets/span/../../../../src/core/../misc/../font/lv_font.h"
   1:Middlewares/lvgl/src/extra/widgets/span/../../../../src/core/../misc/../font/lv_font.h **** /**
   2:Middlewares/lvgl/src/extra/widgets/span/../../../../src/core/../misc/../font/lv_font.h ****  * @file lv_font.h
   3:Middlewares/lvgl/src/extra/widgets/span/../../../../src/core/../misc/../font/lv_font.h ****  *
   4:Middlewares/lvgl/src/extra/widgets/span/../../../../src/core/../misc/../font/lv_font.h ****  */
   5:Middlewares/lvgl/src/extra/widgets/span/../../../../src/core/../misc/../font/lv_font.h **** 
   6:Middlewares/lvgl/src/extra/widgets/span/../../../../src/core/../misc/../font/lv_font.h **** #ifndef LV_FONT_H
   7:Middlewares/lvgl/src/extra/widgets/span/../../../../src/core/../misc/../font/lv_font.h **** #define LV_FONT_H
   8:Middlewares/lvgl/src/extra/widgets/span/../../../../src/core/../misc/../font/lv_font.h **** 
   9:Middlewares/lvgl/src/extra/widgets/span/../../../../src/core/../misc/../font/lv_font.h **** #ifdef __cplusplus
  10:Middlewares/lvgl/src/extra/widgets/span/../../../../src/core/../misc/../font/lv_font.h **** extern "C" {
  11:Middlewares/lvgl/src/extra/widgets/span/../../../../src/core/../misc/../font/lv_font.h **** #endif
  12:Middlewares/lvgl/src/extra/widgets/span/../../../../src/core/../misc/../font/lv_font.h **** 
  13:Middlewares/lvgl/src/extra/widgets/span/../../../../src/core/../misc/../font/lv_font.h **** /*********************
  14:Middlewares/lvgl/src/extra/widgets/span/../../../../src/core/../misc/../font/lv_font.h ****  *      INCLUDES
  15:Middlewares/lvgl/src/extra/widgets/span/../../../../src/core/../misc/../font/lv_font.h ****  *********************/
  16:Middlewares/lvgl/src/extra/widgets/span/../../../../src/core/../misc/../font/lv_font.h **** #include "../lv_conf_internal.h"
  17:Middlewares/lvgl/src/extra/widgets/span/../../../../src/core/../misc/../font/lv_font.h **** #include <stdint.h>
  18:Middlewares/lvgl/src/extra/widgets/span/../../../../src/core/../misc/../font/lv_font.h **** #include <stddef.h>
  19:Middlewares/lvgl/src/extra/widgets/span/../../../../src/core/../misc/../font/lv_font.h **** #include <stdbool.h>
  20:Middlewares/lvgl/src/extra/widgets/span/../../../../src/core/../misc/../font/lv_font.h **** 
  21:Middlewares/lvgl/src/extra/widgets/span/../../../../src/core/../misc/../font/lv_font.h **** #include "lv_symbol_def.h"
  22:Middlewares/lvgl/src/extra/widgets/span/../../../../src/core/../misc/../font/lv_font.h **** #include "../misc/lv_area.h"
  23:Middlewares/lvgl/src/extra/widgets/span/../../../../src/core/../misc/../font/lv_font.h **** 
  24:Middlewares/lvgl/src/extra/widgets/span/../../../../src/core/../misc/../font/lv_font.h **** /*********************
  25:Middlewares/lvgl/src/extra/widgets/span/../../../../src/core/../misc/../font/lv_font.h ****  *      DEFINES
  26:Middlewares/lvgl/src/extra/widgets/span/../../../../src/core/../misc/../font/lv_font.h ****  *********************/
  27:Middlewares/lvgl/src/extra/widgets/span/../../../../src/core/../misc/../font/lv_font.h **** 
  28:Middlewares/lvgl/src/extra/widgets/span/../../../../src/core/../misc/../font/lv_font.h **** /**********************
  29:Middlewares/lvgl/src/extra/widgets/span/../../../../src/core/../misc/../font/lv_font.h ****  *      TYPEDEFS
  30:Middlewares/lvgl/src/extra/widgets/span/../../../../src/core/../misc/../font/lv_font.h ****  **********************/
  31:Middlewares/lvgl/src/extra/widgets/span/../../../../src/core/../misc/../font/lv_font.h **** 
  32:Middlewares/lvgl/src/extra/widgets/span/../../../../src/core/../misc/../font/lv_font.h **** /*------------------
  33:Middlewares/lvgl/src/extra/widgets/span/../../../../src/core/../misc/../font/lv_font.h ****  * General types
  34:Middlewares/lvgl/src/extra/widgets/span/../../../../src/core/../misc/../font/lv_font.h ****  *-----------------*/
  35:Middlewares/lvgl/src/extra/widgets/span/../../../../src/core/../misc/../font/lv_font.h **** 
  36:Middlewares/lvgl/src/extra/widgets/span/../../../../src/core/../misc/../font/lv_font.h **** /** Describes the properties of a glyph.*/
  37:Middlewares/lvgl/src/extra/widgets/span/../../../../src/core/../misc/../font/lv_font.h **** typedef struct {
  38:Middlewares/lvgl/src/extra/widgets/span/../../../../src/core/../misc/../font/lv_font.h ****     uint16_t adv_w; /**< The glyph needs this space. Draw the next glyph after this width.*/
  39:Middlewares/lvgl/src/extra/widgets/span/../../../../src/core/../misc/../font/lv_font.h ****     uint16_t box_w;  /**< Width of the glyph's bounding box*/
  40:Middlewares/lvgl/src/extra/widgets/span/../../../../src/core/../misc/../font/lv_font.h ****     uint16_t box_h;  /**< Height of the glyph's bounding box*/
  41:Middlewares/lvgl/src/extra/widgets/span/../../../../src/core/../misc/../font/lv_font.h ****     int16_t ofs_x;   /**< x offset of the bounding box*/
  42:Middlewares/lvgl/src/extra/widgets/span/../../../../src/core/../misc/../font/lv_font.h ****     int16_t ofs_y;  /**< y offset of the bounding box*/
  43:Middlewares/lvgl/src/extra/widgets/span/../../../../src/core/../misc/../font/lv_font.h ****     uint8_t bpp;   /**< Bit-per-pixel: 1, 2, 4, 8*/
  44:Middlewares/lvgl/src/extra/widgets/span/../../../../src/core/../misc/../font/lv_font.h **** } lv_font_glyph_dsc_t;
  45:Middlewares/lvgl/src/extra/widgets/span/../../../../src/core/../misc/../font/lv_font.h **** 
  46:Middlewares/lvgl/src/extra/widgets/span/../../../../src/core/../misc/../font/lv_font.h **** /** The bitmaps might be upscaled by 3 to achieve subpixel rendering.*/
  47:Middlewares/lvgl/src/extra/widgets/span/../../../../src/core/../misc/../font/lv_font.h **** enum {
  48:Middlewares/lvgl/src/extra/widgets/span/../../../../src/core/../misc/../font/lv_font.h ****     LV_FONT_SUBPX_NONE,
  49:Middlewares/lvgl/src/extra/widgets/span/../../../../src/core/../misc/../font/lv_font.h ****     LV_FONT_SUBPX_HOR,
  50:Middlewares/lvgl/src/extra/widgets/span/../../../../src/core/../misc/../font/lv_font.h ****     LV_FONT_SUBPX_VER,
  51:Middlewares/lvgl/src/extra/widgets/span/../../../../src/core/../misc/../font/lv_font.h ****     LV_FONT_SUBPX_BOTH,
ARM GAS  /tmp/cc1iaYtN.s 			page 50


  52:Middlewares/lvgl/src/extra/widgets/span/../../../../src/core/../misc/../font/lv_font.h **** };
  53:Middlewares/lvgl/src/extra/widgets/span/../../../../src/core/../misc/../font/lv_font.h **** 
  54:Middlewares/lvgl/src/extra/widgets/span/../../../../src/core/../misc/../font/lv_font.h **** typedef uint8_t lv_font_subpx_t;
  55:Middlewares/lvgl/src/extra/widgets/span/../../../../src/core/../misc/../font/lv_font.h **** 
  56:Middlewares/lvgl/src/extra/widgets/span/../../../../src/core/../misc/../font/lv_font.h **** struct _lv_font_t;
  57:Middlewares/lvgl/src/extra/widgets/span/../../../../src/core/../misc/../font/lv_font.h **** 
  58:Middlewares/lvgl/src/extra/widgets/span/../../../../src/core/../misc/../font/lv_font.h **** /** Describe the properties of a font*/
  59:Middlewares/lvgl/src/extra/widgets/span/../../../../src/core/../misc/../font/lv_font.h **** typedef struct _lv_font_t {
  60:Middlewares/lvgl/src/extra/widgets/span/../../../../src/core/../misc/../font/lv_font.h ****     /** Get a glyph's descriptor from a font*/
  61:Middlewares/lvgl/src/extra/widgets/span/../../../../src/core/../misc/../font/lv_font.h ****     bool (*get_glyph_dsc)(const struct _lv_font_t *, lv_font_glyph_dsc_t *, uint32_t letter, uint32
  62:Middlewares/lvgl/src/extra/widgets/span/../../../../src/core/../misc/../font/lv_font.h **** 
  63:Middlewares/lvgl/src/extra/widgets/span/../../../../src/core/../misc/../font/lv_font.h ****     /** Get a glyph's bitmap from a font*/
  64:Middlewares/lvgl/src/extra/widgets/span/../../../../src/core/../misc/../font/lv_font.h ****     const uint8_t * (*get_glyph_bitmap)(const struct _lv_font_t *, uint32_t);
  65:Middlewares/lvgl/src/extra/widgets/span/../../../../src/core/../misc/../font/lv_font.h **** 
  66:Middlewares/lvgl/src/extra/widgets/span/../../../../src/core/../misc/../font/lv_font.h ****     /*Pointer to the font in a font pack (must have the same line height)*/
  67:Middlewares/lvgl/src/extra/widgets/span/../../../../src/core/../misc/../font/lv_font.h ****     lv_coord_t line_height;         /**< The real line height where any text fits*/
  68:Middlewares/lvgl/src/extra/widgets/span/../../../../src/core/../misc/../font/lv_font.h ****     lv_coord_t base_line;           /**< Base line measured from the top of the line_height*/
  69:Middlewares/lvgl/src/extra/widgets/span/../../../../src/core/../misc/../font/lv_font.h ****     uint8_t subpx  : 2;             /**< An element of `lv_font_subpx_t`*/
  70:Middlewares/lvgl/src/extra/widgets/span/../../../../src/core/../misc/../font/lv_font.h **** 
  71:Middlewares/lvgl/src/extra/widgets/span/../../../../src/core/../misc/../font/lv_font.h ****     int8_t underline_position;      /**< Distance between the top of the underline and base line (<
  72:Middlewares/lvgl/src/extra/widgets/span/../../../../src/core/../misc/../font/lv_font.h ****     int8_t underline_thickness;     /**< Thickness of the underline*/
  73:Middlewares/lvgl/src/extra/widgets/span/../../../../src/core/../misc/../font/lv_font.h **** 
  74:Middlewares/lvgl/src/extra/widgets/span/../../../../src/core/../misc/../font/lv_font.h ****     const void * dsc;                     /**< Store implementation specific or run_time data or ca
  75:Middlewares/lvgl/src/extra/widgets/span/../../../../src/core/../misc/../font/lv_font.h **** #if LV_USE_USER_DATA
  76:Middlewares/lvgl/src/extra/widgets/span/../../../../src/core/../misc/../font/lv_font.h ****     void * user_data;               /**< Custom user data for font.*/
  77:Middlewares/lvgl/src/extra/widgets/span/../../../../src/core/../misc/../font/lv_font.h **** #endif
  78:Middlewares/lvgl/src/extra/widgets/span/../../../../src/core/../misc/../font/lv_font.h **** 
  79:Middlewares/lvgl/src/extra/widgets/span/../../../../src/core/../misc/../font/lv_font.h **** } lv_font_t;
  80:Middlewares/lvgl/src/extra/widgets/span/../../../../src/core/../misc/../font/lv_font.h **** 
  81:Middlewares/lvgl/src/extra/widgets/span/../../../../src/core/../misc/../font/lv_font.h **** /**********************
  82:Middlewares/lvgl/src/extra/widgets/span/../../../../src/core/../misc/../font/lv_font.h ****  * GLOBAL PROTOTYPES
  83:Middlewares/lvgl/src/extra/widgets/span/../../../../src/core/../misc/../font/lv_font.h ****  **********************/
  84:Middlewares/lvgl/src/extra/widgets/span/../../../../src/core/../misc/../font/lv_font.h **** 
  85:Middlewares/lvgl/src/extra/widgets/span/../../../../src/core/../misc/../font/lv_font.h **** /**
  86:Middlewares/lvgl/src/extra/widgets/span/../../../../src/core/../misc/../font/lv_font.h ****  * Return with the bitmap of a font.
  87:Middlewares/lvgl/src/extra/widgets/span/../../../../src/core/../misc/../font/lv_font.h ****  * @param font_p pointer to a font
  88:Middlewares/lvgl/src/extra/widgets/span/../../../../src/core/../misc/../font/lv_font.h ****  * @param letter an UNICODE character code
  89:Middlewares/lvgl/src/extra/widgets/span/../../../../src/core/../misc/../font/lv_font.h ****  * @return pointer to the bitmap of the letter
  90:Middlewares/lvgl/src/extra/widgets/span/../../../../src/core/../misc/../font/lv_font.h ****  */
  91:Middlewares/lvgl/src/extra/widgets/span/../../../../src/core/../misc/../font/lv_font.h **** const uint8_t * lv_font_get_glyph_bitmap(const lv_font_t * font_p, uint32_t letter);
  92:Middlewares/lvgl/src/extra/widgets/span/../../../../src/core/../misc/../font/lv_font.h **** 
  93:Middlewares/lvgl/src/extra/widgets/span/../../../../src/core/../misc/../font/lv_font.h **** /**
  94:Middlewares/lvgl/src/extra/widgets/span/../../../../src/core/../misc/../font/lv_font.h ****  * Get the descriptor of a glyph
  95:Middlewares/lvgl/src/extra/widgets/span/../../../../src/core/../misc/../font/lv_font.h ****  * @param font_p pointer to font
  96:Middlewares/lvgl/src/extra/widgets/span/../../../../src/core/../misc/../font/lv_font.h ****  * @param dsc_out store the result descriptor here
  97:Middlewares/lvgl/src/extra/widgets/span/../../../../src/core/../misc/../font/lv_font.h ****  * @param letter an UNICODE letter code
  98:Middlewares/lvgl/src/extra/widgets/span/../../../../src/core/../misc/../font/lv_font.h ****  * @return true: descriptor is successfully loaded into `dsc_out`.
  99:Middlewares/lvgl/src/extra/widgets/span/../../../../src/core/../misc/../font/lv_font.h ****  *         false: the letter was not found, no data is loaded to `dsc_out`
 100:Middlewares/lvgl/src/extra/widgets/span/../../../../src/core/../misc/../font/lv_font.h ****  */
 101:Middlewares/lvgl/src/extra/widgets/span/../../../../src/core/../misc/../font/lv_font.h **** bool lv_font_get_glyph_dsc(const lv_font_t * font_p, lv_font_glyph_dsc_t * dsc_out, uint32_t letter
 102:Middlewares/lvgl/src/extra/widgets/span/../../../../src/core/../misc/../font/lv_font.h ****                            uint32_t letter_next);
 103:Middlewares/lvgl/src/extra/widgets/span/../../../../src/core/../misc/../font/lv_font.h **** 
 104:Middlewares/lvgl/src/extra/widgets/span/../../../../src/core/../misc/../font/lv_font.h **** /**
 105:Middlewares/lvgl/src/extra/widgets/span/../../../../src/core/../misc/../font/lv_font.h ****  * Get the width of a glyph with kerning
 106:Middlewares/lvgl/src/extra/widgets/span/../../../../src/core/../misc/../font/lv_font.h ****  * @param font pointer to a font
 107:Middlewares/lvgl/src/extra/widgets/span/../../../../src/core/../misc/../font/lv_font.h ****  * @param letter an UNICODE letter
 108:Middlewares/lvgl/src/extra/widgets/span/../../../../src/core/../misc/../font/lv_font.h ****  * @param letter_next the next letter after `letter`. Used for kerning
ARM GAS  /tmp/cc1iaYtN.s 			page 51


 109:Middlewares/lvgl/src/extra/widgets/span/../../../../src/core/../misc/../font/lv_font.h ****  * @return the width of the glyph
 110:Middlewares/lvgl/src/extra/widgets/span/../../../../src/core/../misc/../font/lv_font.h ****  */
 111:Middlewares/lvgl/src/extra/widgets/span/../../../../src/core/../misc/../font/lv_font.h **** uint16_t lv_font_get_glyph_width(const lv_font_t * font, uint32_t letter, uint32_t letter_next);
 112:Middlewares/lvgl/src/extra/widgets/span/../../../../src/core/../misc/../font/lv_font.h **** 
 113:Middlewares/lvgl/src/extra/widgets/span/../../../../src/core/../misc/../font/lv_font.h **** /**
 114:Middlewares/lvgl/src/extra/widgets/span/../../../../src/core/../misc/../font/lv_font.h ****  * Get the line height of a font. All characters fit into this height
 115:Middlewares/lvgl/src/extra/widgets/span/../../../../src/core/../misc/../font/lv_font.h ****  * @param font_p pointer to a font
 116:Middlewares/lvgl/src/extra/widgets/span/../../../../src/core/../misc/../font/lv_font.h ****  * @return the height of a font
 117:Middlewares/lvgl/src/extra/widgets/span/../../../../src/core/../misc/../font/lv_font.h ****  */
 118:Middlewares/lvgl/src/extra/widgets/span/../../../../src/core/../misc/../font/lv_font.h **** static inline lv_coord_t lv_font_get_line_height(const lv_font_t * font_p)
 1154              		.loc 4 118 26 is_stmt 1 view .LVU300
 1155              	.LBB125:
 119:Middlewares/lvgl/src/extra/widgets/span/../../../../src/core/../misc/../font/lv_font.h **** {
 120:Middlewares/lvgl/src/extra/widgets/span/../../../../src/core/../misc/../font/lv_font.h ****     return font_p->line_height;
 1156              		.loc 4 120 5 view .LVU301
 1157              		.loc 4 120 18 is_stmt 0 view .LVU302
 1158 00d6 B3F90830 		ldrsh	r3, [r3, #8]
 1159              	.LVL112:
 1160              		.loc 4 120 18 view .LVU303
 1161              	.LBE125:
 1162              	.LBE124:
 755:Middlewares/lvgl/src/extra/widgets/span/lv_span.c ****             }
 1163              		.loc 1 755 72 view .LVU304
 1164 00da 0C9A     		ldr	r2, [sp, #48]
 1165 00dc 12FA83F3 		uxtah	r3, r2, r3
 755:Middlewares/lvgl/src/extra/widgets/span/lv_span.c ****             }
 1166              		.loc 1 755 32 view .LVU305
 1167 00e0 ADF89030 		strh	r3, [sp, #144]	@ movhi
 1168 00e4 3EE0     		b	.L61
 1169              	.LVL113:
 1170              	.L128:
 1171              	.LBB126:
 1172              	.LBB127:
 1173              	.LBB128:
 1174              		.file 5 "Middlewares/lvgl/src/extra/widgets/span/../../../../src/core/../misc/lv_txt.h"
   1:Middlewares/lvgl/src/extra/widgets/span/../../../../src/core/../misc/lv_txt.h **** /**
   2:Middlewares/lvgl/src/extra/widgets/span/../../../../src/core/../misc/lv_txt.h ****  * @file lv_text.h
   3:Middlewares/lvgl/src/extra/widgets/span/../../../../src/core/../misc/lv_txt.h ****  *
   4:Middlewares/lvgl/src/extra/widgets/span/../../../../src/core/../misc/lv_txt.h ****  */
   5:Middlewares/lvgl/src/extra/widgets/span/../../../../src/core/../misc/lv_txt.h **** 
   6:Middlewares/lvgl/src/extra/widgets/span/../../../../src/core/../misc/lv_txt.h **** #ifndef LV_TXT_H
   7:Middlewares/lvgl/src/extra/widgets/span/../../../../src/core/../misc/lv_txt.h **** #define LV_TXT_H
   8:Middlewares/lvgl/src/extra/widgets/span/../../../../src/core/../misc/lv_txt.h **** 
   9:Middlewares/lvgl/src/extra/widgets/span/../../../../src/core/../misc/lv_txt.h **** #ifdef __cplusplus
  10:Middlewares/lvgl/src/extra/widgets/span/../../../../src/core/../misc/lv_txt.h **** extern "C" {
  11:Middlewares/lvgl/src/extra/widgets/span/../../../../src/core/../misc/lv_txt.h **** #endif
  12:Middlewares/lvgl/src/extra/widgets/span/../../../../src/core/../misc/lv_txt.h **** 
  13:Middlewares/lvgl/src/extra/widgets/span/../../../../src/core/../misc/lv_txt.h **** /*********************
  14:Middlewares/lvgl/src/extra/widgets/span/../../../../src/core/../misc/lv_txt.h ****  *      INCLUDES
  15:Middlewares/lvgl/src/extra/widgets/span/../../../../src/core/../misc/lv_txt.h ****  *********************/
  16:Middlewares/lvgl/src/extra/widgets/span/../../../../src/core/../misc/lv_txt.h **** #include "../lv_conf_internal.h"
  17:Middlewares/lvgl/src/extra/widgets/span/../../../../src/core/../misc/lv_txt.h **** 
  18:Middlewares/lvgl/src/extra/widgets/span/../../../../src/core/../misc/lv_txt.h **** #include <stdbool.h>
  19:Middlewares/lvgl/src/extra/widgets/span/../../../../src/core/../misc/lv_txt.h **** #include <stdarg.h>
  20:Middlewares/lvgl/src/extra/widgets/span/../../../../src/core/../misc/lv_txt.h **** #include "lv_area.h"
  21:Middlewares/lvgl/src/extra/widgets/span/../../../../src/core/../misc/lv_txt.h **** #include "../font/lv_font.h"
  22:Middlewares/lvgl/src/extra/widgets/span/../../../../src/core/../misc/lv_txt.h **** #include "lv_printf.h"
ARM GAS  /tmp/cc1iaYtN.s 			page 52


  23:Middlewares/lvgl/src/extra/widgets/span/../../../../src/core/../misc/lv_txt.h **** 
  24:Middlewares/lvgl/src/extra/widgets/span/../../../../src/core/../misc/lv_txt.h **** /*********************
  25:Middlewares/lvgl/src/extra/widgets/span/../../../../src/core/../misc/lv_txt.h ****  *      DEFINES
  26:Middlewares/lvgl/src/extra/widgets/span/../../../../src/core/../misc/lv_txt.h ****  *********************/
  27:Middlewares/lvgl/src/extra/widgets/span/../../../../src/core/../misc/lv_txt.h **** #ifndef LV_TXT_COLOR_CMD
  28:Middlewares/lvgl/src/extra/widgets/span/../../../../src/core/../misc/lv_txt.h **** #define LV_TXT_COLOR_CMD "#"
  29:Middlewares/lvgl/src/extra/widgets/span/../../../../src/core/../misc/lv_txt.h **** #endif
  30:Middlewares/lvgl/src/extra/widgets/span/../../../../src/core/../misc/lv_txt.h **** 
  31:Middlewares/lvgl/src/extra/widgets/span/../../../../src/core/../misc/lv_txt.h **** #define LV_TXT_ENC_UTF8 1
  32:Middlewares/lvgl/src/extra/widgets/span/../../../../src/core/../misc/lv_txt.h **** #define LV_TXT_ENC_ASCII 2
  33:Middlewares/lvgl/src/extra/widgets/span/../../../../src/core/../misc/lv_txt.h **** 
  34:Middlewares/lvgl/src/extra/widgets/span/../../../../src/core/../misc/lv_txt.h **** /**********************
  35:Middlewares/lvgl/src/extra/widgets/span/../../../../src/core/../misc/lv_txt.h ****  *      TYPEDEFS
  36:Middlewares/lvgl/src/extra/widgets/span/../../../../src/core/../misc/lv_txt.h ****  **********************/
  37:Middlewares/lvgl/src/extra/widgets/span/../../../../src/core/../misc/lv_txt.h **** 
  38:Middlewares/lvgl/src/extra/widgets/span/../../../../src/core/../misc/lv_txt.h **** /**
  39:Middlewares/lvgl/src/extra/widgets/span/../../../../src/core/../misc/lv_txt.h ****  * Options for text rendering.
  40:Middlewares/lvgl/src/extra/widgets/span/../../../../src/core/../misc/lv_txt.h ****  */
  41:Middlewares/lvgl/src/extra/widgets/span/../../../../src/core/../misc/lv_txt.h **** enum {
  42:Middlewares/lvgl/src/extra/widgets/span/../../../../src/core/../misc/lv_txt.h ****     LV_TEXT_FLAG_NONE    = 0x00,
  43:Middlewares/lvgl/src/extra/widgets/span/../../../../src/core/../misc/lv_txt.h ****     LV_TEXT_FLAG_RECOLOR = 0x01, /**< Enable parsing of recolor command*/
  44:Middlewares/lvgl/src/extra/widgets/span/../../../../src/core/../misc/lv_txt.h ****     LV_TEXT_FLAG_EXPAND  = 0x02, /**< Ignore max-width to avoid automatic word wrapping*/
  45:Middlewares/lvgl/src/extra/widgets/span/../../../../src/core/../misc/lv_txt.h ****     LV_TEXT_FLAG_FIT     = 0x04, /**< Max-width is already equal to the longest line. (Used to skip
  46:Middlewares/lvgl/src/extra/widgets/span/../../../../src/core/../misc/lv_txt.h **** };
  47:Middlewares/lvgl/src/extra/widgets/span/../../../../src/core/../misc/lv_txt.h **** typedef uint8_t lv_text_flag_t;
  48:Middlewares/lvgl/src/extra/widgets/span/../../../../src/core/../misc/lv_txt.h **** 
  49:Middlewares/lvgl/src/extra/widgets/span/../../../../src/core/../misc/lv_txt.h **** /**
  50:Middlewares/lvgl/src/extra/widgets/span/../../../../src/core/../misc/lv_txt.h ****  * State machine for text renderer.*/
  51:Middlewares/lvgl/src/extra/widgets/span/../../../../src/core/../misc/lv_txt.h **** enum {
  52:Middlewares/lvgl/src/extra/widgets/span/../../../../src/core/../misc/lv_txt.h ****     LV_TEXT_CMD_STATE_WAIT, /**< Waiting for command*/
  53:Middlewares/lvgl/src/extra/widgets/span/../../../../src/core/../misc/lv_txt.h ****     LV_TEXT_CMD_STATE_PAR,  /**< Processing the parameter*/
  54:Middlewares/lvgl/src/extra/widgets/span/../../../../src/core/../misc/lv_txt.h ****     LV_TEXT_CMD_STATE_IN,   /**< Processing the command*/
  55:Middlewares/lvgl/src/extra/widgets/span/../../../../src/core/../misc/lv_txt.h **** };
  56:Middlewares/lvgl/src/extra/widgets/span/../../../../src/core/../misc/lv_txt.h **** typedef uint8_t lv_text_cmd_state_t;
  57:Middlewares/lvgl/src/extra/widgets/span/../../../../src/core/../misc/lv_txt.h **** 
  58:Middlewares/lvgl/src/extra/widgets/span/../../../../src/core/../misc/lv_txt.h **** /** Label align policy*/
  59:Middlewares/lvgl/src/extra/widgets/span/../../../../src/core/../misc/lv_txt.h **** enum {
  60:Middlewares/lvgl/src/extra/widgets/span/../../../../src/core/../misc/lv_txt.h ****     LV_TEXT_ALIGN_AUTO, /**< Align text auto*/
  61:Middlewares/lvgl/src/extra/widgets/span/../../../../src/core/../misc/lv_txt.h ****     LV_TEXT_ALIGN_LEFT, /**< Align text to left*/
  62:Middlewares/lvgl/src/extra/widgets/span/../../../../src/core/../misc/lv_txt.h ****     LV_TEXT_ALIGN_CENTER, /**< Align text to center*/
  63:Middlewares/lvgl/src/extra/widgets/span/../../../../src/core/../misc/lv_txt.h ****     LV_TEXT_ALIGN_RIGHT, /**< Align text to right*/
  64:Middlewares/lvgl/src/extra/widgets/span/../../../../src/core/../misc/lv_txt.h **** };
  65:Middlewares/lvgl/src/extra/widgets/span/../../../../src/core/../misc/lv_txt.h **** typedef uint8_t lv_text_align_t;
  66:Middlewares/lvgl/src/extra/widgets/span/../../../../src/core/../misc/lv_txt.h **** 
  67:Middlewares/lvgl/src/extra/widgets/span/../../../../src/core/../misc/lv_txt.h **** /**********************
  68:Middlewares/lvgl/src/extra/widgets/span/../../../../src/core/../misc/lv_txt.h ****  * GLOBAL PROTOTYPES
  69:Middlewares/lvgl/src/extra/widgets/span/../../../../src/core/../misc/lv_txt.h ****  **********************/
  70:Middlewares/lvgl/src/extra/widgets/span/../../../../src/core/../misc/lv_txt.h **** 
  71:Middlewares/lvgl/src/extra/widgets/span/../../../../src/core/../misc/lv_txt.h **** /**
  72:Middlewares/lvgl/src/extra/widgets/span/../../../../src/core/../misc/lv_txt.h ****  * Get size of a text
  73:Middlewares/lvgl/src/extra/widgets/span/../../../../src/core/../misc/lv_txt.h ****  * @param size_res pointer to a 'point_t' variable to store the result
  74:Middlewares/lvgl/src/extra/widgets/span/../../../../src/core/../misc/lv_txt.h ****  * @param text pointer to a text
  75:Middlewares/lvgl/src/extra/widgets/span/../../../../src/core/../misc/lv_txt.h ****  * @param font pointer to font of the text
  76:Middlewares/lvgl/src/extra/widgets/span/../../../../src/core/../misc/lv_txt.h ****  * @param letter_space letter space of the text
  77:Middlewares/lvgl/src/extra/widgets/span/../../../../src/core/../misc/lv_txt.h ****  * @param line_space line space of the text
  78:Middlewares/lvgl/src/extra/widgets/span/../../../../src/core/../misc/lv_txt.h ****  * @param flags settings for the text from ::lv_text_flag_t
  79:Middlewares/lvgl/src/extra/widgets/span/../../../../src/core/../misc/lv_txt.h ****  * @param max_width max with of the text (break the lines to fit this size) Set CORD_MAX to avoid
ARM GAS  /tmp/cc1iaYtN.s 			page 53


  80:Middlewares/lvgl/src/extra/widgets/span/../../../../src/core/../misc/lv_txt.h ****  * line breaks
  81:Middlewares/lvgl/src/extra/widgets/span/../../../../src/core/../misc/lv_txt.h ****  */
  82:Middlewares/lvgl/src/extra/widgets/span/../../../../src/core/../misc/lv_txt.h **** void lv_txt_get_size(lv_point_t * size_res, const char * text, const lv_font_t * font, lv_coord_t l
  83:Middlewares/lvgl/src/extra/widgets/span/../../../../src/core/../misc/lv_txt.h ****                       lv_coord_t line_space, lv_coord_t max_width, lv_text_flag_t flag);
  84:Middlewares/lvgl/src/extra/widgets/span/../../../../src/core/../misc/lv_txt.h **** 
  85:Middlewares/lvgl/src/extra/widgets/span/../../../../src/core/../misc/lv_txt.h **** /**
  86:Middlewares/lvgl/src/extra/widgets/span/../../../../src/core/../misc/lv_txt.h ****  * Get the next line of text. Check line length and break chars too.
  87:Middlewares/lvgl/src/extra/widgets/span/../../../../src/core/../misc/lv_txt.h ****  * @param txt a '\0' terminated string
  88:Middlewares/lvgl/src/extra/widgets/span/../../../../src/core/../misc/lv_txt.h ****  * @param font pointer to a font
  89:Middlewares/lvgl/src/extra/widgets/span/../../../../src/core/../misc/lv_txt.h ****  * @param letter_space letter space
  90:Middlewares/lvgl/src/extra/widgets/span/../../../../src/core/../misc/lv_txt.h ****  * @param max_width max with of the text (break the lines to fit this size) Set CORD_MAX to avoid
  91:Middlewares/lvgl/src/extra/widgets/span/../../../../src/core/../misc/lv_txt.h ****  * line breaks
  92:Middlewares/lvgl/src/extra/widgets/span/../../../../src/core/../misc/lv_txt.h ****  * @param flags settings for the text from 'txt_flag_type' enum
  93:Middlewares/lvgl/src/extra/widgets/span/../../../../src/core/../misc/lv_txt.h ****  * @return the index of the first char of the new line (in byte index not letter index. With UTF-8
  94:Middlewares/lvgl/src/extra/widgets/span/../../../../src/core/../misc/lv_txt.h ****  * they are different)
  95:Middlewares/lvgl/src/extra/widgets/span/../../../../src/core/../misc/lv_txt.h ****  */
  96:Middlewares/lvgl/src/extra/widgets/span/../../../../src/core/../misc/lv_txt.h **** uint32_t _lv_txt_get_next_line(const char * txt, const lv_font_t * font, lv_coord_t letter_space, l
  97:Middlewares/lvgl/src/extra/widgets/span/../../../../src/core/../misc/lv_txt.h ****                                lv_text_flag_t flag);
  98:Middlewares/lvgl/src/extra/widgets/span/../../../../src/core/../misc/lv_txt.h **** 
  99:Middlewares/lvgl/src/extra/widgets/span/../../../../src/core/../misc/lv_txt.h **** /**
 100:Middlewares/lvgl/src/extra/widgets/span/../../../../src/core/../misc/lv_txt.h ****  * Give the length of a text with a given font
 101:Middlewares/lvgl/src/extra/widgets/span/../../../../src/core/../misc/lv_txt.h ****  * @param txt a '\0' terminate string
 102:Middlewares/lvgl/src/extra/widgets/span/../../../../src/core/../misc/lv_txt.h ****  * @param length length of 'txt' in byte count and not characters ( is 1 character but 2 bytes in
 103:Middlewares/lvgl/src/extra/widgets/span/../../../../src/core/../misc/lv_txt.h ****  * UTF-8)
 104:Middlewares/lvgl/src/extra/widgets/span/../../../../src/core/../misc/lv_txt.h ****  * @param font pointer to a font
 105:Middlewares/lvgl/src/extra/widgets/span/../../../../src/core/../misc/lv_txt.h ****  * @param letter_space letter space
 106:Middlewares/lvgl/src/extra/widgets/span/../../../../src/core/../misc/lv_txt.h ****  * @param flags settings for the text from 'txt_flag_t' enum
 107:Middlewares/lvgl/src/extra/widgets/span/../../../../src/core/../misc/lv_txt.h ****  * @return length of a char_num long text
 108:Middlewares/lvgl/src/extra/widgets/span/../../../../src/core/../misc/lv_txt.h ****  */
 109:Middlewares/lvgl/src/extra/widgets/span/../../../../src/core/../misc/lv_txt.h **** lv_coord_t lv_txt_get_width(const char * txt, uint32_t length, const lv_font_t * font, lv_coord_t l
 110:Middlewares/lvgl/src/extra/widgets/span/../../../../src/core/../misc/lv_txt.h ****                              lv_text_flag_t flag);
 111:Middlewares/lvgl/src/extra/widgets/span/../../../../src/core/../misc/lv_txt.h **** 
 112:Middlewares/lvgl/src/extra/widgets/span/../../../../src/core/../misc/lv_txt.h **** /**
 113:Middlewares/lvgl/src/extra/widgets/span/../../../../src/core/../misc/lv_txt.h ****  * Check next character in a string and decide if the character is part of the command or not
 114:Middlewares/lvgl/src/extra/widgets/span/../../../../src/core/../misc/lv_txt.h ****  * @param state pointer to a txt_cmd_state_t variable which stores the current state of command
 115:Middlewares/lvgl/src/extra/widgets/span/../../../../src/core/../misc/lv_txt.h ****  * processing
 116:Middlewares/lvgl/src/extra/widgets/span/../../../../src/core/../misc/lv_txt.h ****  * @param c the current character
 117:Middlewares/lvgl/src/extra/widgets/span/../../../../src/core/../misc/lv_txt.h ****  * @return true: the character is part of a command and should not be written,
 118:Middlewares/lvgl/src/extra/widgets/span/../../../../src/core/../misc/lv_txt.h ****  *         false: the character should be written
 119:Middlewares/lvgl/src/extra/widgets/span/../../../../src/core/../misc/lv_txt.h ****  */
 120:Middlewares/lvgl/src/extra/widgets/span/../../../../src/core/../misc/lv_txt.h **** bool _lv_txt_is_cmd(lv_text_cmd_state_t * state, uint32_t c);
 121:Middlewares/lvgl/src/extra/widgets/span/../../../../src/core/../misc/lv_txt.h **** 
 122:Middlewares/lvgl/src/extra/widgets/span/../../../../src/core/../misc/lv_txt.h **** /**
 123:Middlewares/lvgl/src/extra/widgets/span/../../../../src/core/../misc/lv_txt.h ****  * Insert a string into an other
 124:Middlewares/lvgl/src/extra/widgets/span/../../../../src/core/../misc/lv_txt.h ****  * @param txt_buf the original text (must be big enough for the result text)
 125:Middlewares/lvgl/src/extra/widgets/span/../../../../src/core/../misc/lv_txt.h ****  * @param pos position to insert (0: before the original text, 1: after the first char etc.)
 126:Middlewares/lvgl/src/extra/widgets/span/../../../../src/core/../misc/lv_txt.h ****  * @param ins_txt text to insert
 127:Middlewares/lvgl/src/extra/widgets/span/../../../../src/core/../misc/lv_txt.h ****  */
 128:Middlewares/lvgl/src/extra/widgets/span/../../../../src/core/../misc/lv_txt.h **** void _lv_txt_ins(char * txt_buf, uint32_t pos, const char * ins_txt);
 129:Middlewares/lvgl/src/extra/widgets/span/../../../../src/core/../misc/lv_txt.h **** 
 130:Middlewares/lvgl/src/extra/widgets/span/../../../../src/core/../misc/lv_txt.h **** /**
 131:Middlewares/lvgl/src/extra/widgets/span/../../../../src/core/../misc/lv_txt.h ****  * Delete a part of a string
 132:Middlewares/lvgl/src/extra/widgets/span/../../../../src/core/../misc/lv_txt.h ****  * @param txt string to modify
 133:Middlewares/lvgl/src/extra/widgets/span/../../../../src/core/../misc/lv_txt.h ****  * @param pos position where to start the deleting (0: before the first char, 1: after the first
 134:Middlewares/lvgl/src/extra/widgets/span/../../../../src/core/../misc/lv_txt.h ****  * char etc.)
 135:Middlewares/lvgl/src/extra/widgets/span/../../../../src/core/../misc/lv_txt.h ****  * @param len number of characters to delete
 136:Middlewares/lvgl/src/extra/widgets/span/../../../../src/core/../misc/lv_txt.h ****  */
ARM GAS  /tmp/cc1iaYtN.s 			page 54


 137:Middlewares/lvgl/src/extra/widgets/span/../../../../src/core/../misc/lv_txt.h **** void _lv_txt_cut(char * txt, uint32_t pos, uint32_t len);
 138:Middlewares/lvgl/src/extra/widgets/span/../../../../src/core/../misc/lv_txt.h **** 
 139:Middlewares/lvgl/src/extra/widgets/span/../../../../src/core/../misc/lv_txt.h **** /**
 140:Middlewares/lvgl/src/extra/widgets/span/../../../../src/core/../misc/lv_txt.h ****  * return a new formatted text. Memory will be allocated to store the text.
 141:Middlewares/lvgl/src/extra/widgets/span/../../../../src/core/../misc/lv_txt.h ****  * @param fmt `printf`-like format
 142:Middlewares/lvgl/src/extra/widgets/span/../../../../src/core/../misc/lv_txt.h ****  * @return pointer to the allocated text string.
 143:Middlewares/lvgl/src/extra/widgets/span/../../../../src/core/../misc/lv_txt.h ****  */
 144:Middlewares/lvgl/src/extra/widgets/span/../../../../src/core/../misc/lv_txt.h **** char * _lv_txt_set_text_vfmt(const char * fmt, va_list ap);
 145:Middlewares/lvgl/src/extra/widgets/span/../../../../src/core/../misc/lv_txt.h **** 
 146:Middlewares/lvgl/src/extra/widgets/span/../../../../src/core/../misc/lv_txt.h **** /**
 147:Middlewares/lvgl/src/extra/widgets/span/../../../../src/core/../misc/lv_txt.h ****  * Decode two encoded character from a string.
 148:Middlewares/lvgl/src/extra/widgets/span/../../../../src/core/../misc/lv_txt.h ****  * @param txt pointer to '\0' terminated string
 149:Middlewares/lvgl/src/extra/widgets/span/../../../../src/core/../misc/lv_txt.h ****  * @param letter the first decoded Unicode character or 0 on invalid data code
 150:Middlewares/lvgl/src/extra/widgets/span/../../../../src/core/../misc/lv_txt.h ****  * @param letter_next the second decoded Unicode character or 0 on invalid data code
 151:Middlewares/lvgl/src/extra/widgets/span/../../../../src/core/../misc/lv_txt.h ****  * @param ofs start index in 'txt' where to start.
 152:Middlewares/lvgl/src/extra/widgets/span/../../../../src/core/../misc/lv_txt.h ****  *                After the call it will point to the next encoded char in 'txt'.
 153:Middlewares/lvgl/src/extra/widgets/span/../../../../src/core/../misc/lv_txt.h ****  *                NULL to use txt[0] as index
 154:Middlewares/lvgl/src/extra/widgets/span/../../../../src/core/../misc/lv_txt.h ****  */
 155:Middlewares/lvgl/src/extra/widgets/span/../../../../src/core/../misc/lv_txt.h **** void _lv_txt_encoded_letter_next_2(const char * txt, uint32_t * letter, uint32_t * letter_next, uin
 156:Middlewares/lvgl/src/extra/widgets/span/../../../../src/core/../misc/lv_txt.h **** 
 157:Middlewares/lvgl/src/extra/widgets/span/../../../../src/core/../misc/lv_txt.h **** /**
 158:Middlewares/lvgl/src/extra/widgets/span/../../../../src/core/../misc/lv_txt.h ****  * Test if char is break char or not (a text can broken here or not)
 159:Middlewares/lvgl/src/extra/widgets/span/../../../../src/core/../misc/lv_txt.h ****  * @param letter a letter
 160:Middlewares/lvgl/src/extra/widgets/span/../../../../src/core/../misc/lv_txt.h ****  * @return false: 'letter' is not break char
 161:Middlewares/lvgl/src/extra/widgets/span/../../../../src/core/../misc/lv_txt.h ****  */
 162:Middlewares/lvgl/src/extra/widgets/span/../../../../src/core/../misc/lv_txt.h **** static inline bool _lv_txt_is_break_char(uint32_t letter)
 163:Middlewares/lvgl/src/extra/widgets/span/../../../../src/core/../misc/lv_txt.h **** {
 164:Middlewares/lvgl/src/extra/widgets/span/../../../../src/core/../misc/lv_txt.h ****     uint8_t i;
 165:Middlewares/lvgl/src/extra/widgets/span/../../../../src/core/../misc/lv_txt.h ****     bool ret = false;
 1175              		.loc 5 165 10 view .LVU306
 1176 00e6 0020     		movs	r0, #0
 1177              	.L65:
 1178              	.LVL114:
 1179              		.loc 5 165 10 view .LVU307
 1180              	.LBE128:
 1181              	.LBE127:
 774:Middlewares/lvgl/src/extra/widgets/span/lv_span.c ****                     letter = (uint32_t)cur_txt[cur_txt_ofs + next_ofs];
 1182              		.loc 1 774 20 view .LVU308
 1183 00e8 F8B9     		cbnz	r0, .L63
 775:Middlewares/lvgl/src/extra/widgets/span/lv_span.c ****                     if(!(letter == '\0' || letter == '\n'  || letter == '\r' || _lv_txt_is_break_ch
 1184              		.loc 1 775 21 is_stmt 1 view .LVU309
 775:Middlewares/lvgl/src/extra/widgets/span/lv_span.c ****                     if(!(letter == '\0' || letter == '\n'  || letter == '\r' || _lv_txt_is_break_ch
 1185              		.loc 1 775 47 is_stmt 0 view .LVU310
 1186 00ea 17F80B20 		ldrb	r2, [r7, fp]	@ zero_extendqisi2
 1187              	.LVL115:
 776:Middlewares/lvgl/src/extra/widgets/span/lv_span.c ****                         break;
 1188              		.loc 1 776 21 is_stmt 1 view .LVU311
 776:Middlewares/lvgl/src/extra/widgets/span/lv_span.c ****                         break;
 1189              		.loc 1 776 23 is_stmt 0 view .LVU312
 1190 00ee 002A     		cmp	r2, #0
 1191 00f0 18BF     		it	ne
 1192 00f2 0A2A     		cmpne	r2, #10
 1193 00f4 14BF     		ite	ne
 1194 00f6 4FF0010C 		movne	ip, #1
 1195 00fa 4FF0000C 		moveq	ip, #0
 1196 00fe 14D0     		beq	.L63
 776:Middlewares/lvgl/src/extra/widgets/span/lv_span.c ****                         break;
ARM GAS  /tmp/cc1iaYtN.s 			page 55


 1197              		.loc 1 776 60 discriminator 1 view .LVU313
 1198 0100 0D2A     		cmp	r2, #13
 1199 0102 12D0     		beq	.L63
 1200              	.LVL116:
 1201              	.LBB130:
 1202              	.LBI130:
 162:Middlewares/lvgl/src/extra/widgets/span/../../../../src/core/../misc/lv_txt.h **** {
 1203              		.loc 5 162 20 is_stmt 1 view .LVU314
 1204              	.LBB131:
 164:Middlewares/lvgl/src/extra/widgets/span/../../../../src/core/../misc/lv_txt.h ****     bool ret = false;
 1205              		.loc 5 164 5 view .LVU315
 1206              		.loc 5 165 5 view .LVU316
 166:Middlewares/lvgl/src/extra/widgets/span/../../../../src/core/../misc/lv_txt.h **** 
 167:Middlewares/lvgl/src/extra/widgets/span/../../../../src/core/../misc/lv_txt.h ****     /* each chinese character can be break */
 168:Middlewares/lvgl/src/extra/widgets/span/../../../../src/core/../misc/lv_txt.h ****     if (letter >= 0x4E00 && letter <= 0x9FA5) {
 1207              		.loc 5 168 5 view .LVU317
 1208              		.loc 5 168 26 is_stmt 0 view .LVU318
 1209 0104 A2F59C41 		sub	r1, r2, #19968
 1210              		.loc 5 168 8 view .LVU319
 1211 0108 45F2A513 		movw	r3, #20901
 1212 010c 9942     		cmp	r1, r3
 1213 010e 0CD9     		bls	.L63
 169:Middlewares/lvgl/src/extra/widgets/span/../../../../src/core/../misc/lv_txt.h ****         return true;
 170:Middlewares/lvgl/src/extra/widgets/span/../../../../src/core/../misc/lv_txt.h ****     }
 171:Middlewares/lvgl/src/extra/widgets/span/../../../../src/core/../misc/lv_txt.h **** 
