ARM GAS  /tmp/ccYZcEDy.s 			page 1


   1              		.cpu cortex-m7
   2              		.eabi_attribute 28, 1
   3              		.eabi_attribute 20, 1
   4              		.eabi_attribute 21, 1
   5              		.eabi_attribute 23, 3
   6              		.eabi_attribute 24, 1
   7              		.eabi_attribute 25, 1
   8              		.eabi_attribute 26, 1
   9              		.eabi_attribute 30, 1
  10              		.eabi_attribute 34, 1
  11              		.eabi_attribute 18, 4
  12              		.file	"lv_tileview.c"
  13              		.text
  14              	.Ltext0:
  15              		.cfi_sections	.debug_frame
  16              		.section	.text.lv_tileview_constructor,"ax",%progbits
  17              		.align	1
  18              		.arch armv7e-m
  19              		.syntax unified
  20              		.thumb
  21              		.thumb_func
  22              		.fpu fpv5-d16
  24              	lv_tileview_constructor:
  25              	.LVL0:
  26              	.LFB152:
  27              		.file 1 "Middlewares/lvgl/src/extra/widgets/tileview/lv_tileview.c"
   1:Middlewares/lvgl/src/extra/widgets/tileview/lv_tileview.c **** /**
   2:Middlewares/lvgl/src/extra/widgets/tileview/lv_tileview.c ****  * @file lv_tileview.c
   3:Middlewares/lvgl/src/extra/widgets/tileview/lv_tileview.c ****  *
   4:Middlewares/lvgl/src/extra/widgets/tileview/lv_tileview.c ****  */
   5:Middlewares/lvgl/src/extra/widgets/tileview/lv_tileview.c **** 
   6:Middlewares/lvgl/src/extra/widgets/tileview/lv_tileview.c **** /*********************
   7:Middlewares/lvgl/src/extra/widgets/tileview/lv_tileview.c ****  *      INCLUDES
   8:Middlewares/lvgl/src/extra/widgets/tileview/lv_tileview.c ****  *********************/
   9:Middlewares/lvgl/src/extra/widgets/tileview/lv_tileview.c **** #include "lv_tileview.h"
  10:Middlewares/lvgl/src/extra/widgets/tileview/lv_tileview.c **** #if LV_USE_TILEVIEW
  11:Middlewares/lvgl/src/extra/widgets/tileview/lv_tileview.c **** 
  12:Middlewares/lvgl/src/extra/widgets/tileview/lv_tileview.c **** /*********************
  13:Middlewares/lvgl/src/extra/widgets/tileview/lv_tileview.c ****  *      DEFINES
  14:Middlewares/lvgl/src/extra/widgets/tileview/lv_tileview.c ****  *********************/
  15:Middlewares/lvgl/src/extra/widgets/tileview/lv_tileview.c **** 
  16:Middlewares/lvgl/src/extra/widgets/tileview/lv_tileview.c **** /**********************
  17:Middlewares/lvgl/src/extra/widgets/tileview/lv_tileview.c ****  *      TYPEDEFS
  18:Middlewares/lvgl/src/extra/widgets/tileview/lv_tileview.c ****  **********************/
  19:Middlewares/lvgl/src/extra/widgets/tileview/lv_tileview.c **** 
  20:Middlewares/lvgl/src/extra/widgets/tileview/lv_tileview.c **** /**********************
  21:Middlewares/lvgl/src/extra/widgets/tileview/lv_tileview.c ****  *  STATIC PROTOTYPES
  22:Middlewares/lvgl/src/extra/widgets/tileview/lv_tileview.c ****  **********************/
  23:Middlewares/lvgl/src/extra/widgets/tileview/lv_tileview.c **** static void lv_tileview_constructor(const lv_obj_class_t * class_p, lv_obj_t * obj);
  24:Middlewares/lvgl/src/extra/widgets/tileview/lv_tileview.c **** static void lv_tileview_tile_constructor(const lv_obj_class_t * class_p, lv_obj_t * obj);
  25:Middlewares/lvgl/src/extra/widgets/tileview/lv_tileview.c **** static void tileview_event_cb(lv_event_t * e);
  26:Middlewares/lvgl/src/extra/widgets/tileview/lv_tileview.c **** 
  27:Middlewares/lvgl/src/extra/widgets/tileview/lv_tileview.c **** /**********************
  28:Middlewares/lvgl/src/extra/widgets/tileview/lv_tileview.c ****  *  STATIC VARIABLES
  29:Middlewares/lvgl/src/extra/widgets/tileview/lv_tileview.c ****  **********************/
  30:Middlewares/lvgl/src/extra/widgets/tileview/lv_tileview.c **** 
  31:Middlewares/lvgl/src/extra/widgets/tileview/lv_tileview.c **** const lv_obj_class_t lv_tileview_class = {.constructor_cb = lv_tileview_constructor,
ARM GAS  /tmp/ccYZcEDy.s 			page 2


  32:Middlewares/lvgl/src/extra/widgets/tileview/lv_tileview.c ****                                     .base_class = &lv_obj_class,
  33:Middlewares/lvgl/src/extra/widgets/tileview/lv_tileview.c ****                                     .instance_size = sizeof(lv_tileview_t)};
  34:Middlewares/lvgl/src/extra/widgets/tileview/lv_tileview.c **** 
  35:Middlewares/lvgl/src/extra/widgets/tileview/lv_tileview.c **** const lv_obj_class_t lv_tileview_tile_class = {.constructor_cb = lv_tileview_tile_constructor,
  36:Middlewares/lvgl/src/extra/widgets/tileview/lv_tileview.c ****                                          .base_class = &lv_obj_class,
  37:Middlewares/lvgl/src/extra/widgets/tileview/lv_tileview.c ****                                          .instance_size = sizeof(lv_tileview_tile_t)};
  38:Middlewares/lvgl/src/extra/widgets/tileview/lv_tileview.c **** 
  39:Middlewares/lvgl/src/extra/widgets/tileview/lv_tileview.c **** static lv_dir_t create_dir;
  40:Middlewares/lvgl/src/extra/widgets/tileview/lv_tileview.c **** static uint32_t create_col_id;
  41:Middlewares/lvgl/src/extra/widgets/tileview/lv_tileview.c **** static uint32_t create_row_id;
  42:Middlewares/lvgl/src/extra/widgets/tileview/lv_tileview.c **** 
  43:Middlewares/lvgl/src/extra/widgets/tileview/lv_tileview.c **** /**********************
  44:Middlewares/lvgl/src/extra/widgets/tileview/lv_tileview.c ****  *      MACROS
  45:Middlewares/lvgl/src/extra/widgets/tileview/lv_tileview.c ****  **********************/
  46:Middlewares/lvgl/src/extra/widgets/tileview/lv_tileview.c **** 
  47:Middlewares/lvgl/src/extra/widgets/tileview/lv_tileview.c **** /**********************
  48:Middlewares/lvgl/src/extra/widgets/tileview/lv_tileview.c ****  *   GLOBAL FUNCTIONS
  49:Middlewares/lvgl/src/extra/widgets/tileview/lv_tileview.c ****  **********************/
  50:Middlewares/lvgl/src/extra/widgets/tileview/lv_tileview.c **** 
  51:Middlewares/lvgl/src/extra/widgets/tileview/lv_tileview.c **** lv_obj_t * lv_tileview_create(lv_obj_t * parent)
  52:Middlewares/lvgl/src/extra/widgets/tileview/lv_tileview.c **** {
  53:Middlewares/lvgl/src/extra/widgets/tileview/lv_tileview.c ****     LV_LOG_INFO("begin")
  54:Middlewares/lvgl/src/extra/widgets/tileview/lv_tileview.c ****     lv_obj_t * obj = lv_obj_class_create_obj(&lv_tileview_class, parent);
  55:Middlewares/lvgl/src/extra/widgets/tileview/lv_tileview.c ****     lv_obj_class_init_obj(obj);
  56:Middlewares/lvgl/src/extra/widgets/tileview/lv_tileview.c ****     return obj;
  57:Middlewares/lvgl/src/extra/widgets/tileview/lv_tileview.c **** }
  58:Middlewares/lvgl/src/extra/widgets/tileview/lv_tileview.c **** 
  59:Middlewares/lvgl/src/extra/widgets/tileview/lv_tileview.c **** /*======================
  60:Middlewares/lvgl/src/extra/widgets/tileview/lv_tileview.c ****  * Add/remove functions
  61:Middlewares/lvgl/src/extra/widgets/tileview/lv_tileview.c ****  *=====================*/
  62:Middlewares/lvgl/src/extra/widgets/tileview/lv_tileview.c **** 
  63:Middlewares/lvgl/src/extra/widgets/tileview/lv_tileview.c **** lv_obj_t * lv_tileview_add_tile(lv_obj_t * tv, uint8_t col_id, uint8_t row_id, lv_dir_t dir)
  64:Middlewares/lvgl/src/extra/widgets/tileview/lv_tileview.c **** {
  65:Middlewares/lvgl/src/extra/widgets/tileview/lv_tileview.c ****     LV_LOG_INFO("begin")
  66:Middlewares/lvgl/src/extra/widgets/tileview/lv_tileview.c ****     create_dir = dir;
  67:Middlewares/lvgl/src/extra/widgets/tileview/lv_tileview.c ****     create_col_id = col_id;
  68:Middlewares/lvgl/src/extra/widgets/tileview/lv_tileview.c ****     create_row_id = row_id;
  69:Middlewares/lvgl/src/extra/widgets/tileview/lv_tileview.c **** 
  70:Middlewares/lvgl/src/extra/widgets/tileview/lv_tileview.c ****     lv_obj_t * obj = lv_obj_class_create_obj(&lv_tileview_tile_class, tv);
  71:Middlewares/lvgl/src/extra/widgets/tileview/lv_tileview.c ****     lv_obj_class_init_obj(obj);
  72:Middlewares/lvgl/src/extra/widgets/tileview/lv_tileview.c ****     return obj;
  73:Middlewares/lvgl/src/extra/widgets/tileview/lv_tileview.c **** }
  74:Middlewares/lvgl/src/extra/widgets/tileview/lv_tileview.c **** 
  75:Middlewares/lvgl/src/extra/widgets/tileview/lv_tileview.c **** void lv_obj_set_tile(lv_obj_t * obj, lv_obj_t * tile_obj, lv_anim_enable_t anim_en)
  76:Middlewares/lvgl/src/extra/widgets/tileview/lv_tileview.c **** {
  77:Middlewares/lvgl/src/extra/widgets/tileview/lv_tileview.c ****     lv_coord_t tx = lv_obj_get_x(tile_obj);
  78:Middlewares/lvgl/src/extra/widgets/tileview/lv_tileview.c ****     lv_coord_t ty = lv_obj_get_y(tile_obj);
  79:Middlewares/lvgl/src/extra/widgets/tileview/lv_tileview.c **** 
  80:Middlewares/lvgl/src/extra/widgets/tileview/lv_tileview.c ****     lv_tileview_tile_t * tile = (lv_tileview_tile_t *)tile_obj;
  81:Middlewares/lvgl/src/extra/widgets/tileview/lv_tileview.c ****     lv_tileview_t * tv = (lv_tileview_t *) obj;
  82:Middlewares/lvgl/src/extra/widgets/tileview/lv_tileview.c ****     tv->tile_act = (lv_obj_t *)tile;
  83:Middlewares/lvgl/src/extra/widgets/tileview/lv_tileview.c **** 
  84:Middlewares/lvgl/src/extra/widgets/tileview/lv_tileview.c ****     lv_obj_set_scroll_dir(obj, tile->dir);
  85:Middlewares/lvgl/src/extra/widgets/tileview/lv_tileview.c ****     lv_obj_scroll_to(obj, tx, ty, anim_en);
  86:Middlewares/lvgl/src/extra/widgets/tileview/lv_tileview.c **** }
  87:Middlewares/lvgl/src/extra/widgets/tileview/lv_tileview.c **** 
  88:Middlewares/lvgl/src/extra/widgets/tileview/lv_tileview.c **** void lv_obj_set_tile_id(lv_obj_t * tv, uint32_t col_id, uint32_t row_id, lv_anim_enable_t anim_en)
ARM GAS  /tmp/ccYZcEDy.s 			page 3


  89:Middlewares/lvgl/src/extra/widgets/tileview/lv_tileview.c **** {
  90:Middlewares/lvgl/src/extra/widgets/tileview/lv_tileview.c ****     lv_coord_t w = lv_obj_get_content_width(tv);
  91:Middlewares/lvgl/src/extra/widgets/tileview/lv_tileview.c ****     lv_coord_t h = lv_obj_get_content_height(tv);
  92:Middlewares/lvgl/src/extra/widgets/tileview/lv_tileview.c **** 
  93:Middlewares/lvgl/src/extra/widgets/tileview/lv_tileview.c ****     lv_coord_t tx = col_id * w;
  94:Middlewares/lvgl/src/extra/widgets/tileview/lv_tileview.c ****     lv_coord_t ty = row_id * h;
  95:Middlewares/lvgl/src/extra/widgets/tileview/lv_tileview.c **** 
  96:Middlewares/lvgl/src/extra/widgets/tileview/lv_tileview.c ****     uint32_t i;
  97:Middlewares/lvgl/src/extra/widgets/tileview/lv_tileview.c ****     for(i = 0; i < lv_obj_get_child_cnt(tv); i++) {
  98:Middlewares/lvgl/src/extra/widgets/tileview/lv_tileview.c ****         lv_obj_t * tile_obj = lv_obj_get_child(tv, i);
  99:Middlewares/lvgl/src/extra/widgets/tileview/lv_tileview.c ****         lv_coord_t x = lv_obj_get_x(tile_obj);
 100:Middlewares/lvgl/src/extra/widgets/tileview/lv_tileview.c ****         lv_coord_t y = lv_obj_get_y(tile_obj);
 101:Middlewares/lvgl/src/extra/widgets/tileview/lv_tileview.c ****         if(x == tx && y == ty) {
 102:Middlewares/lvgl/src/extra/widgets/tileview/lv_tileview.c ****             lv_obj_set_tile(tv, tile_obj, anim_en);
 103:Middlewares/lvgl/src/extra/widgets/tileview/lv_tileview.c ****             return;
 104:Middlewares/lvgl/src/extra/widgets/tileview/lv_tileview.c ****         }
 105:Middlewares/lvgl/src/extra/widgets/tileview/lv_tileview.c ****     }
 106:Middlewares/lvgl/src/extra/widgets/tileview/lv_tileview.c **** 
 107:Middlewares/lvgl/src/extra/widgets/tileview/lv_tileview.c ****     LV_LOG_WARN("No tile found with at (%d,%d) index", col_id, row_id);
 108:Middlewares/lvgl/src/extra/widgets/tileview/lv_tileview.c **** }
 109:Middlewares/lvgl/src/extra/widgets/tileview/lv_tileview.c **** 
 110:Middlewares/lvgl/src/extra/widgets/tileview/lv_tileview.c **** lv_obj_t * lv_tileview_get_tile_act(lv_obj_t * obj)
 111:Middlewares/lvgl/src/extra/widgets/tileview/lv_tileview.c **** {
 112:Middlewares/lvgl/src/extra/widgets/tileview/lv_tileview.c ****     lv_tileview_t * tv = (lv_tileview_t *) obj;
 113:Middlewares/lvgl/src/extra/widgets/tileview/lv_tileview.c ****     return tv->tile_act;
 114:Middlewares/lvgl/src/extra/widgets/tileview/lv_tileview.c **** }
 115:Middlewares/lvgl/src/extra/widgets/tileview/lv_tileview.c **** 
 116:Middlewares/lvgl/src/extra/widgets/tileview/lv_tileview.c **** /**********************
 117:Middlewares/lvgl/src/extra/widgets/tileview/lv_tileview.c ****  *   STATIC FUNCTIONS
 118:Middlewares/lvgl/src/extra/widgets/tileview/lv_tileview.c ****  **********************/
 119:Middlewares/lvgl/src/extra/widgets/tileview/lv_tileview.c **** 
 120:Middlewares/lvgl/src/extra/widgets/tileview/lv_tileview.c **** static void lv_tileview_constructor(const lv_obj_class_t * class_p, lv_obj_t * obj)
 121:Middlewares/lvgl/src/extra/widgets/tileview/lv_tileview.c **** {
  28              		.loc 1 121 1 view -0
  29              		.cfi_startproc
  30              		@ args = 0, pretend = 0, frame = 0
  31              		@ frame_needed = 0, uses_anonymous_args = 0
  32              		.loc 1 121 1 is_stmt 0 view .LVU1
  33 0000 10B5     		push	{r4, lr}
  34              	.LCFI0:
  35              		.cfi_def_cfa_offset 8
  36              		.cfi_offset 4, -8
  37              		.cfi_offset 14, -4
  38 0002 0C46     		mov	r4, r1
 122:Middlewares/lvgl/src/extra/widgets/tileview/lv_tileview.c ****     LV_UNUSED(class_p);
  39              		.loc 1 122 5 is_stmt 1 view .LVU2
 123:Middlewares/lvgl/src/extra/widgets/tileview/lv_tileview.c ****     lv_obj_set_size(obj, LV_PCT(100), LV_PCT(100));
  40              		.loc 1 123 5 view .LVU3
  41 0004 42F26402 		movw	r2, #8292
  42 0008 1146     		mov	r1, r2
  43              	.LVL1:
  44              		.loc 1 123 5 is_stmt 0 view .LVU4
  45 000a 2046     		mov	r0, r4
  46              	.LVL2:
  47              		.loc 1 123 5 view .LVU5
  48 000c FFF7FEFF 		bl	lv_obj_set_size
  49              	.LVL3:
ARM GAS  /tmp/ccYZcEDy.s 			page 4


 124:Middlewares/lvgl/src/extra/widgets/tileview/lv_tileview.c ****     lv_obj_add_event_cb(obj, tileview_event_cb, LV_EVENT_ALL, NULL);
  50              		.loc 1 124 5 is_stmt 1 view .LVU6
  51 0010 0023     		movs	r3, #0
  52 0012 1A46     		mov	r2, r3
  53 0014 0849     		ldr	r1, .L3
  54 0016 2046     		mov	r0, r4
  55 0018 FFF7FEFF 		bl	lv_obj_add_event_cb
  56              	.LVL4:
 125:Middlewares/lvgl/src/extra/widgets/tileview/lv_tileview.c ****     lv_obj_add_flag(obj, LV_OBJ_FLAG_SCROLL_ONE);
  57              		.loc 1 125 5 view .LVU7
  58 001c 8021     		movs	r1, #128
  59 001e 2046     		mov	r0, r4
  60 0020 FFF7FEFF 		bl	lv_obj_add_flag
  61              	.LVL5:
 126:Middlewares/lvgl/src/extra/widgets/tileview/lv_tileview.c ****     lv_obj_set_scroll_snap_x(obj, LV_SCROLL_SNAP_CENTER);
  62              		.loc 1 126 5 view .LVU8
  63 0024 0321     		movs	r1, #3
  64 0026 2046     		mov	r0, r4
  65 0028 FFF7FEFF 		bl	lv_obj_set_scroll_snap_x
  66              	.LVL6:
 127:Middlewares/lvgl/src/extra/widgets/tileview/lv_tileview.c ****     lv_obj_set_scroll_snap_y(obj, LV_SCROLL_SNAP_CENTER);
  67              		.loc 1 127 5 view .LVU9
  68 002c 0321     		movs	r1, #3
  69 002e 2046     		mov	r0, r4
  70 0030 FFF7FEFF 		bl	lv_obj_set_scroll_snap_y
  71              	.LVL7:
 128:Middlewares/lvgl/src/extra/widgets/tileview/lv_tileview.c **** 
 129:Middlewares/lvgl/src/extra/widgets/tileview/lv_tileview.c **** }
  72              		.loc 1 129 1 is_stmt 0 view .LVU10
  73 0034 10BD     		pop	{r4, pc}
  74              	.LVL8:
  75              	.L4:
  76              		.loc 1 129 1 view .LVU11
  77 0036 00BF     		.align	2
  78              	.L3:
  79 0038 00000000 		.word	tileview_event_cb
  80              		.cfi_endproc
  81              	.LFE152:
  83              		.section	.text.tileview_event_cb,"ax",%progbits
  84              		.align	1
  85              		.syntax unified
  86              		.thumb
  87              		.thumb_func
  88              		.fpu fpv5-d16
  90              	tileview_event_cb:
  91              	.LVL9:
  92              	.LFB154:
 130:Middlewares/lvgl/src/extra/widgets/tileview/lv_tileview.c **** 
 131:Middlewares/lvgl/src/extra/widgets/tileview/lv_tileview.c **** static void lv_tileview_tile_constructor(const lv_obj_class_t * class_p, lv_obj_t * obj)
 132:Middlewares/lvgl/src/extra/widgets/tileview/lv_tileview.c **** {
 133:Middlewares/lvgl/src/extra/widgets/tileview/lv_tileview.c **** 
 134:Middlewares/lvgl/src/extra/widgets/tileview/lv_tileview.c ****     LV_UNUSED(class_p);
 135:Middlewares/lvgl/src/extra/widgets/tileview/lv_tileview.c ****     lv_obj_t * parent = lv_obj_get_parent(obj);
 136:Middlewares/lvgl/src/extra/widgets/tileview/lv_tileview.c ****     lv_obj_set_size(obj, LV_PCT(100), LV_PCT(100));
 137:Middlewares/lvgl/src/extra/widgets/tileview/lv_tileview.c ****     lv_obj_update_layout(obj);  /*Be sure the size is correct*/
 138:Middlewares/lvgl/src/extra/widgets/tileview/lv_tileview.c ****     lv_obj_set_pos(obj, create_col_id * lv_obj_get_content_width(parent),  create_row_id * lv_obj_g
 139:Middlewares/lvgl/src/extra/widgets/tileview/lv_tileview.c **** 
ARM GAS  /tmp/ccYZcEDy.s 			page 5


 140:Middlewares/lvgl/src/extra/widgets/tileview/lv_tileview.c ****     lv_tileview_tile_t * tile = (lv_tileview_tile_t *)obj;
 141:Middlewares/lvgl/src/extra/widgets/tileview/lv_tileview.c ****     tile->dir = create_dir;
 142:Middlewares/lvgl/src/extra/widgets/tileview/lv_tileview.c **** 
 143:Middlewares/lvgl/src/extra/widgets/tileview/lv_tileview.c ****     if(create_col_id == 0 && create_row_id == 0) {
 144:Middlewares/lvgl/src/extra/widgets/tileview/lv_tileview.c ****         lv_obj_set_scroll_dir(parent, create_dir);
 145:Middlewares/lvgl/src/extra/widgets/tileview/lv_tileview.c ****     }
 146:Middlewares/lvgl/src/extra/widgets/tileview/lv_tileview.c **** }
 147:Middlewares/lvgl/src/extra/widgets/tileview/lv_tileview.c **** 
 148:Middlewares/lvgl/src/extra/widgets/tileview/lv_tileview.c **** static void tileview_event_cb(lv_event_t * e)
 149:Middlewares/lvgl/src/extra/widgets/tileview/lv_tileview.c **** {
  93              		.loc 1 149 1 is_stmt 1 view -0
  94              		.cfi_startproc
  95              		@ args = 0, pretend = 0, frame = 8
  96              		@ frame_needed = 0, uses_anonymous_args = 0
  97              		.loc 1 149 1 is_stmt 0 view .LVU13
  98 0000 2DE9F043 		push	{r4, r5, r6, r7, r8, r9, lr}
  99              	.LCFI1:
 100              		.cfi_def_cfa_offset 28
 101              		.cfi_offset 4, -28
 102              		.cfi_offset 5, -24
 103              		.cfi_offset 6, -20
 104              		.cfi_offset 7, -16
 105              		.cfi_offset 8, -12
 106              		.cfi_offset 9, -8
 107              		.cfi_offset 14, -4
 108 0004 83B0     		sub	sp, sp, #12
 109              	.LCFI2:
 110              		.cfi_def_cfa_offset 40
 111 0006 0446     		mov	r4, r0
 150:Middlewares/lvgl/src/extra/widgets/tileview/lv_tileview.c ****     lv_event_code_t code = lv_event_get_code(e);
 112              		.loc 1 150 5 is_stmt 1 view .LVU14
 113              		.loc 1 150 28 is_stmt 0 view .LVU15
 114 0008 FFF7FEFF 		bl	lv_event_get_code
 115              	.LVL10:
 116              		.loc 1 150 28 view .LVU16
 117 000c 0546     		mov	r5, r0
 118              	.LVL11:
 151:Middlewares/lvgl/src/extra/widgets/tileview/lv_tileview.c ****     lv_obj_t * obj = lv_event_get_target(e);
 119              		.loc 1 151 5 is_stmt 1 view .LVU17
 120              		.loc 1 151 22 is_stmt 0 view .LVU18
 121 000e 2046     		mov	r0, r4
 122 0010 FFF7FEFF 		bl	lv_event_get_target
 123              	.LVL12:
 152:Middlewares/lvgl/src/extra/widgets/tileview/lv_tileview.c ****     lv_tileview_t * tv = (lv_tileview_t *) obj;
 124              		.loc 1 152 5 is_stmt 1 view .LVU19
 153:Middlewares/lvgl/src/extra/widgets/tileview/lv_tileview.c **** 
 154:Middlewares/lvgl/src/extra/widgets/tileview/lv_tileview.c ****     if(code == LV_EVENT_SCROLL_END) {
 125              		.loc 1 154 5 view .LVU20
 126              		.loc 1 154 7 is_stmt 0 view .LVU21
 127 0014 0A2D     		cmp	r5, #10
 128 0016 02D0     		beq	.L14
 129              	.LVL13:
 130              	.L5:
 155:Middlewares/lvgl/src/extra/widgets/tileview/lv_tileview.c ****         lv_coord_t w = lv_obj_get_content_width(obj);
 156:Middlewares/lvgl/src/extra/widgets/tileview/lv_tileview.c ****         lv_coord_t h = lv_obj_get_content_height(obj);
 157:Middlewares/lvgl/src/extra/widgets/tileview/lv_tileview.c **** 
 158:Middlewares/lvgl/src/extra/widgets/tileview/lv_tileview.c ****         lv_point_t scroll_end;
ARM GAS  /tmp/ccYZcEDy.s 			page 6


 159:Middlewares/lvgl/src/extra/widgets/tileview/lv_tileview.c ****         lv_obj_get_scroll_end(obj, &scroll_end);
 160:Middlewares/lvgl/src/extra/widgets/tileview/lv_tileview.c ****         lv_coord_t left = scroll_end.x;
 161:Middlewares/lvgl/src/extra/widgets/tileview/lv_tileview.c ****         lv_coord_t top = scroll_end.y;
 162:Middlewares/lvgl/src/extra/widgets/tileview/lv_tileview.c **** 
 163:Middlewares/lvgl/src/extra/widgets/tileview/lv_tileview.c ****         lv_coord_t tx = ((left + (w / 2)) / w) * w;
 164:Middlewares/lvgl/src/extra/widgets/tileview/lv_tileview.c ****         lv_coord_t ty = ((top + (h / 2)) / h) * h;
 165:Middlewares/lvgl/src/extra/widgets/tileview/lv_tileview.c **** 
 166:Middlewares/lvgl/src/extra/widgets/tileview/lv_tileview.c ****         lv_dir_t dir = LV_DIR_ALL;
 167:Middlewares/lvgl/src/extra/widgets/tileview/lv_tileview.c ****         uint32_t i;
 168:Middlewares/lvgl/src/extra/widgets/tileview/lv_tileview.c ****         for(i = 0; i < lv_obj_get_child_cnt(obj); i++) {
 169:Middlewares/lvgl/src/extra/widgets/tileview/lv_tileview.c ****             lv_obj_t * tile_obj = lv_obj_get_child(obj, i);
 170:Middlewares/lvgl/src/extra/widgets/tileview/lv_tileview.c ****             lv_coord_t x = lv_obj_get_x(tile_obj);
 171:Middlewares/lvgl/src/extra/widgets/tileview/lv_tileview.c ****             lv_coord_t y = lv_obj_get_y(tile_obj);
 172:Middlewares/lvgl/src/extra/widgets/tileview/lv_tileview.c ****             if(x == tx && y == ty) {
 173:Middlewares/lvgl/src/extra/widgets/tileview/lv_tileview.c ****                 lv_tileview_tile_t * tile = (lv_tileview_tile_t *)tile_obj;
 174:Middlewares/lvgl/src/extra/widgets/tileview/lv_tileview.c ****                 tv->tile_act = (lv_obj_t *)tile;
 175:Middlewares/lvgl/src/extra/widgets/tileview/lv_tileview.c ****                 dir = tile->dir;
 176:Middlewares/lvgl/src/extra/widgets/tileview/lv_tileview.c ****                 lv_event_send(obj, LV_EVENT_VALUE_CHANGED, NULL);
 177:Middlewares/lvgl/src/extra/widgets/tileview/lv_tileview.c ****                 break;
 178:Middlewares/lvgl/src/extra/widgets/tileview/lv_tileview.c ****             }
 179:Middlewares/lvgl/src/extra/widgets/tileview/lv_tileview.c ****         }
 180:Middlewares/lvgl/src/extra/widgets/tileview/lv_tileview.c ****         lv_obj_set_scroll_dir(obj, dir);
 181:Middlewares/lvgl/src/extra/widgets/tileview/lv_tileview.c ****     }
 182:Middlewares/lvgl/src/extra/widgets/tileview/lv_tileview.c **** }
 131              		.loc 1 182 1 view .LVU22
 132 0018 03B0     		add	sp, sp, #12
 133              	.LCFI3:
 134              		.cfi_remember_state
 135              		.cfi_def_cfa_offset 28
 136              		@ sp needed
 137 001a BDE8F083 		pop	{r4, r5, r6, r7, r8, r9, pc}
 138              	.LVL14:
 139              	.L14:
 140              	.LCFI4:
 141              		.cfi_restore_state
 142              		.loc 1 182 1 view .LVU23
 143 001e 0446     		mov	r4, r0
 144              	.LVL15:
 145              	.LBB2:
 155:Middlewares/lvgl/src/extra/widgets/tileview/lv_tileview.c ****         lv_coord_t w = lv_obj_get_content_width(obj);
 146              		.loc 1 155 9 is_stmt 1 view .LVU24
 155:Middlewares/lvgl/src/extra/widgets/tileview/lv_tileview.c ****         lv_coord_t w = lv_obj_get_content_width(obj);
 147              		.loc 1 155 24 is_stmt 0 view .LVU25
 148 0020 FFF7FEFF 		bl	lv_obj_get_content_width
 149              	.LVL16:
 155:Middlewares/lvgl/src/extra/widgets/tileview/lv_tileview.c ****         lv_coord_t w = lv_obj_get_content_width(obj);
 150              		.loc 1 155 24 view .LVU26
 151 0024 0646     		mov	r6, r0
 152              	.LVL17:
 156:Middlewares/lvgl/src/extra/widgets/tileview/lv_tileview.c **** 
 153              		.loc 1 156 9 is_stmt 1 view .LVU27
 156:Middlewares/lvgl/src/extra/widgets/tileview/lv_tileview.c **** 
 154              		.loc 1 156 24 is_stmt 0 view .LVU28
 155 0026 2046     		mov	r0, r4
 156 0028 FFF7FEFF 		bl	lv_obj_get_content_height
 157              	.LVL18:
 158 002c 0546     		mov	r5, r0
ARM GAS  /tmp/ccYZcEDy.s 			page 7


 159              	.LVL19:
 158:Middlewares/lvgl/src/extra/widgets/tileview/lv_tileview.c ****         lv_obj_get_scroll_end(obj, &scroll_end);
 160              		.loc 1 158 9 is_stmt 1 view .LVU29
 159:Middlewares/lvgl/src/extra/widgets/tileview/lv_tileview.c ****         lv_coord_t left = scroll_end.x;
 161              		.loc 1 159 9 view .LVU30
 162 002e 01A9     		add	r1, sp, #4
 163 0030 2046     		mov	r0, r4
 164 0032 FFF7FEFF 		bl	lv_obj_get_scroll_end
 165              	.LVL20:
 160:Middlewares/lvgl/src/extra/widgets/tileview/lv_tileview.c ****         lv_coord_t top = scroll_end.y;
 166              		.loc 1 160 9 view .LVU31
 160:Middlewares/lvgl/src/extra/widgets/tileview/lv_tileview.c ****         lv_coord_t top = scroll_end.y;
 167              		.loc 1 160 20 is_stmt 0 view .LVU32
 168 0036 BDF90490 		ldrsh	r9, [sp, #4]
 169              	.LVL21:
 161:Middlewares/lvgl/src/extra/widgets/tileview/lv_tileview.c **** 
 170              		.loc 1 161 9 is_stmt 1 view .LVU33
 161:Middlewares/lvgl/src/extra/widgets/tileview/lv_tileview.c **** 
 171              		.loc 1 161 20 is_stmt 0 view .LVU34
 172 003a BDF90680 		ldrsh	r8, [sp, #6]
 173              	.LVL22:
 163:Middlewares/lvgl/src/extra/widgets/tileview/lv_tileview.c ****         lv_coord_t ty = ((top + (h / 2)) / h) * h;
 174              		.loc 1 163 9 is_stmt 1 view .LVU35
 163:Middlewares/lvgl/src/extra/widgets/tileview/lv_tileview.c ****         lv_coord_t ty = ((top + (h / 2)) / h) * h;
 175              		.loc 1 163 37 is_stmt 0 view .LVU36
 176 003e 3346     		mov	r3, r6
 177 0040 002E     		cmp	r6, #0
 178 0042 2BDB     		blt	.L15
 179              	.L7:
 163:Middlewares/lvgl/src/extra/widgets/tileview/lv_tileview.c ****         lv_coord_t ty = ((top + (h / 2)) / h) * h;
 180              		.loc 1 163 37 view .LVU37
 181 0044 43F34F03 		sbfx	r3, r3, #1, #16
 163:Middlewares/lvgl/src/extra/widgets/tileview/lv_tileview.c ****         lv_coord_t ty = ((top + (h / 2)) / h) * h;
 182              		.loc 1 163 32 view .LVU38
 183 0048 9944     		add	r9, r9, r3
 184              	.LVL23:
 163:Middlewares/lvgl/src/extra/widgets/tileview/lv_tileview.c ****         lv_coord_t ty = ((top + (h / 2)) / h) * h;
 185              		.loc 1 163 43 view .LVU39
 186 004a 99FBF6F9 		sdiv	r9, r9, r6
 163:Middlewares/lvgl/src/extra/widgets/tileview/lv_tileview.c ****         lv_coord_t ty = ((top + (h / 2)) / h) * h;
 187              		.loc 1 163 20 view .LVU40
 188 004e 19FB06F9 		smulbb	r9, r9, r6
 189 0052 0FFA89F9 		sxth	r9, r9
 190              	.LVL24:
 164:Middlewares/lvgl/src/extra/widgets/tileview/lv_tileview.c **** 
 191              		.loc 1 164 9 is_stmt 1 view .LVU41
 164:Middlewares/lvgl/src/extra/widgets/tileview/lv_tileview.c **** 
 192              		.loc 1 164 36 is_stmt 0 view .LVU42
 193 0056 2B46     		mov	r3, r5
 194 0058 002D     		cmp	r5, #0
 195 005a 21DB     		blt	.L16
 196              	.L8:
 197 005c 43F34F03 		sbfx	r3, r3, #1, #16
 164:Middlewares/lvgl/src/extra/widgets/tileview/lv_tileview.c **** 
 198              		.loc 1 164 31 view .LVU43
 199 0060 9844     		add	r8, r8, r3
 200              	.LVL25:
ARM GAS  /tmp/ccYZcEDy.s 			page 8


 164:Middlewares/lvgl/src/extra/widgets/tileview/lv_tileview.c **** 
 201              		.loc 1 164 42 view .LVU44
 202 0062 98FBF5F8 		sdiv	r8, r8, r5
 164:Middlewares/lvgl/src/extra/widgets/tileview/lv_tileview.c **** 
 203              		.loc 1 164 20 view .LVU45
 204 0066 18FB05F8 		smulbb	r8, r8, r5
 205 006a 0FFA88F8 		sxth	r8, r8
 206              	.LVL26:
 166:Middlewares/lvgl/src/extra/widgets/tileview/lv_tileview.c ****         uint32_t i;
 207              		.loc 1 166 9 is_stmt 1 view .LVU46
 167:Middlewares/lvgl/src/extra/widgets/tileview/lv_tileview.c ****         for(i = 0; i < lv_obj_get_child_cnt(obj); i++) {
 208              		.loc 1 167 9 view .LVU47
 168:Middlewares/lvgl/src/extra/widgets/tileview/lv_tileview.c ****             lv_obj_t * tile_obj = lv_obj_get_child(obj, i);
 209              		.loc 1 168 9 view .LVU48
 168:Middlewares/lvgl/src/extra/widgets/tileview/lv_tileview.c ****             lv_obj_t * tile_obj = lv_obj_get_child(obj, i);
 210              		.loc 1 168 15 is_stmt 0 view .LVU49
 211 006e 0026     		movs	r6, #0
 212              	.LVL27:
 213              	.L9:
 168:Middlewares/lvgl/src/extra/widgets/tileview/lv_tileview.c ****             lv_obj_t * tile_obj = lv_obj_get_child(obj, i);
 214              		.loc 1 168 20 is_stmt 1 discriminator 1 view .LVU50
 168:Middlewares/lvgl/src/extra/widgets/tileview/lv_tileview.c ****             lv_obj_t * tile_obj = lv_obj_get_child(obj, i);
 215              		.loc 1 168 24 is_stmt 0 discriminator 1 view .LVU51
 216 0070 2046     		mov	r0, r4
 217 0072 FFF7FEFF 		bl	lv_obj_get_child_cnt
 218              	.LVL28:
 168:Middlewares/lvgl/src/extra/widgets/tileview/lv_tileview.c ****             lv_obj_t * tile_obj = lv_obj_get_child(obj, i);
 219              		.loc 1 168 9 discriminator 1 view .LVU52
 220 0076 B042     		cmp	r0, r6
 221 0078 1DD9     		bls	.L17
 222              	.LBB3:
 169:Middlewares/lvgl/src/extra/widgets/tileview/lv_tileview.c ****             lv_coord_t x = lv_obj_get_x(tile_obj);
 223              		.loc 1 169 13 is_stmt 1 view .LVU53
 169:Middlewares/lvgl/src/extra/widgets/tileview/lv_tileview.c ****             lv_coord_t x = lv_obj_get_x(tile_obj);
 224              		.loc 1 169 35 is_stmt 0 view .LVU54
 225 007a 3146     		mov	r1, r6
 226 007c 2046     		mov	r0, r4
 227 007e FFF7FEFF 		bl	lv_obj_get_child
 228              	.LVL29:
 229 0082 0546     		mov	r5, r0
 230              	.LVL30:
 170:Middlewares/lvgl/src/extra/widgets/tileview/lv_tileview.c ****             lv_coord_t y = lv_obj_get_y(tile_obj);
 231              		.loc 1 170 13 is_stmt 1 view .LVU55
 170:Middlewares/lvgl/src/extra/widgets/tileview/lv_tileview.c ****             lv_coord_t y = lv_obj_get_y(tile_obj);
 232              		.loc 1 170 28 is_stmt 0 view .LVU56
 233 0084 FFF7FEFF 		bl	lv_obj_get_x
 234              	.LVL31:
 170:Middlewares/lvgl/src/extra/widgets/tileview/lv_tileview.c ****             lv_coord_t y = lv_obj_get_y(tile_obj);
 235              		.loc 1 170 28 view .LVU57
 236 0088 0746     		mov	r7, r0
 237              	.LVL32:
 171:Middlewares/lvgl/src/extra/widgets/tileview/lv_tileview.c ****             if(x == tx && y == ty) {
 238              		.loc 1 171 13 is_stmt 1 view .LVU58
 171:Middlewares/lvgl/src/extra/widgets/tileview/lv_tileview.c ****             if(x == tx && y == ty) {
 239              		.loc 1 171 28 is_stmt 0 view .LVU59
 240 008a 2846     		mov	r0, r5
 241 008c FFF7FEFF 		bl	lv_obj_get_y
ARM GAS  /tmp/ccYZcEDy.s 			page 9


 242              	.LVL33:
 172:Middlewares/lvgl/src/extra/widgets/tileview/lv_tileview.c ****                 lv_tileview_tile_t * tile = (lv_tileview_tile_t *)tile_obj;
 243              		.loc 1 172 13 is_stmt 1 view .LVU60
 172:Middlewares/lvgl/src/extra/widgets/tileview/lv_tileview.c ****                 lv_tileview_tile_t * tile = (lv_tileview_tile_t *)tile_obj;
 244              		.loc 1 172 15 is_stmt 0 view .LVU61
 245 0090 B945     		cmp	r9, r7
 246 0092 08BF     		it	eq
 247 0094 8045     		cmpeq	r8, r0
 248 0096 05D0     		beq	.L18
 249              	.LBE3:
 168:Middlewares/lvgl/src/extra/widgets/tileview/lv_tileview.c ****             lv_obj_t * tile_obj = lv_obj_get_child(obj, i);
 250              		.loc 1 168 51 is_stmt 1 discriminator 2 view .LVU62
 168:Middlewares/lvgl/src/extra/widgets/tileview/lv_tileview.c ****             lv_obj_t * tile_obj = lv_obj_get_child(obj, i);
 251              		.loc 1 168 52 is_stmt 0 discriminator 2 view .LVU63
 252 0098 0136     		adds	r6, r6, #1
 253              	.LVL34:
 168:Middlewares/lvgl/src/extra/widgets/tileview/lv_tileview.c ****             lv_obj_t * tile_obj = lv_obj_get_child(obj, i);
 254              		.loc 1 168 52 discriminator 2 view .LVU64
 255 009a E9E7     		b	.L9
 256              	.LVL35:
 257              	.L15:
 163:Middlewares/lvgl/src/extra/widgets/tileview/lv_tileview.c ****         lv_coord_t ty = ((top + (h / 2)) / h) * h;
 258              		.loc 1 163 37 view .LVU65
 259 009c 731C     		adds	r3, r6, #1
 260 009e D1E7     		b	.L7
 261              	.LVL36:
 262              	.L16:
 164:Middlewares/lvgl/src/extra/widgets/tileview/lv_tileview.c **** 
 263              		.loc 1 164 36 view .LVU66
 264 00a0 6B1C     		adds	r3, r5, #1
 265 00a2 DBE7     		b	.L8
 266              	.LVL37:
 267              	.L18:
 268              	.LBB5:
 269              	.LBB4:
 173:Middlewares/lvgl/src/extra/widgets/tileview/lv_tileview.c ****                 tv->tile_act = (lv_obj_t *)tile;
 270              		.loc 1 173 17 is_stmt 1 view .LVU67
 174:Middlewares/lvgl/src/extra/widgets/tileview/lv_tileview.c ****                 dir = tile->dir;
 271              		.loc 1 174 17 view .LVU68
 174:Middlewares/lvgl/src/extra/widgets/tileview/lv_tileview.c ****                 dir = tile->dir;
 272              		.loc 1 174 30 is_stmt 0 view .LVU69
 273 00a4 6562     		str	r5, [r4, #36]
 175:Middlewares/lvgl/src/extra/widgets/tileview/lv_tileview.c ****                 lv_event_send(obj, LV_EVENT_VALUE_CHANGED, NULL);
 274              		.loc 1 175 17 is_stmt 1 view .LVU70
 175:Middlewares/lvgl/src/extra/widgets/tileview/lv_tileview.c ****                 lv_event_send(obj, LV_EVENT_VALUE_CHANGED, NULL);
 275              		.loc 1 175 21 is_stmt 0 view .LVU71
 276 00a6 95F82450 		ldrb	r5, [r5, #36]	@ zero_extendqisi2
 277              	.LVL38:
 176:Middlewares/lvgl/src/extra/widgets/tileview/lv_tileview.c ****                 break;
 278              		.loc 1 176 17 is_stmt 1 view .LVU72
 279 00aa 0022     		movs	r2, #0
 280 00ac 1C21     		movs	r1, #28
 281 00ae 2046     		mov	r0, r4
 282              	.LVL39:
 176:Middlewares/lvgl/src/extra/widgets/tileview/lv_tileview.c ****                 break;
 283              		.loc 1 176 17 is_stmt 0 view .LVU73
 284 00b0 FFF7FEFF 		bl	lv_event_send
ARM GAS  /tmp/ccYZcEDy.s 			page 10


 285              	.LVL40:
 177:Middlewares/lvgl/src/extra/widgets/tileview/lv_tileview.c ****             }
 286              		.loc 1 177 17 is_stmt 1 view .LVU74
 287 00b4 00E0     		b	.L11
 288              	.LVL41:
 289              	.L17:
 177:Middlewares/lvgl/src/extra/widgets/tileview/lv_tileview.c ****             }
 290              		.loc 1 177 17 is_stmt 0 view .LVU75
 291              	.LBE4:
 292              	.LBE5:
 166:Middlewares/lvgl/src/extra/widgets/tileview/lv_tileview.c ****         uint32_t i;
 293              		.loc 1 166 18 view .LVU76
 294 00b6 0F25     		movs	r5, #15
 295              	.LVL42:
 296              	.L11:
 180:Middlewares/lvgl/src/extra/widgets/tileview/lv_tileview.c ****     }
 297              		.loc 1 180 9 is_stmt 1 view .LVU77
 298 00b8 2946     		mov	r1, r5
 299 00ba 2046     		mov	r0, r4
 300 00bc FFF7FEFF 		bl	lv_obj_set_scroll_dir
 301              	.LVL43:
 302              	.LBE2:
 303              		.loc 1 182 1 is_stmt 0 view .LVU78
 304 00c0 AAE7     		b	.L5
 305              		.cfi_endproc
 306              	.LFE154:
 308              		.section	.text.lv_tileview_tile_constructor,"ax",%progbits
 309              		.align	1
 310              		.syntax unified
 311              		.thumb
 312              		.thumb_func
 313              		.fpu fpv5-d16
 315              	lv_tileview_tile_constructor:
 316              	.LVL44:
 317              	.LFB153:
 132:Middlewares/lvgl/src/extra/widgets/tileview/lv_tileview.c **** 
 318              		.loc 1 132 1 is_stmt 1 view -0
 319              		.cfi_startproc
 320              		@ args = 0, pretend = 0, frame = 0
 321              		@ frame_needed = 0, uses_anonymous_args = 0
 132:Middlewares/lvgl/src/extra/widgets/tileview/lv_tileview.c **** 
 322              		.loc 1 132 1 is_stmt 0 view .LVU80
 323 0000 F8B5     		push	{r3, r4, r5, r6, r7, lr}
 324              	.LCFI5:
 325              		.cfi_def_cfa_offset 24
 326              		.cfi_offset 3, -24
 327              		.cfi_offset 4, -20
 328              		.cfi_offset 5, -16
 329              		.cfi_offset 6, -12
 330              		.cfi_offset 7, -8
 331              		.cfi_offset 14, -4
 332 0002 0C46     		mov	r4, r1
 134:Middlewares/lvgl/src/extra/widgets/tileview/lv_tileview.c ****     lv_obj_t * parent = lv_obj_get_parent(obj);
 333              		.loc 1 134 5 is_stmt 1 view .LVU81
 135:Middlewares/lvgl/src/extra/widgets/tileview/lv_tileview.c ****     lv_obj_set_size(obj, LV_PCT(100), LV_PCT(100));
 334              		.loc 1 135 5 view .LVU82
 135:Middlewares/lvgl/src/extra/widgets/tileview/lv_tileview.c ****     lv_obj_set_size(obj, LV_PCT(100), LV_PCT(100));
ARM GAS  /tmp/ccYZcEDy.s 			page 11


 335              		.loc 1 135 25 is_stmt 0 view .LVU83
 336 0004 0846     		mov	r0, r1
 337              	.LVL45:
 135:Middlewares/lvgl/src/extra/widgets/tileview/lv_tileview.c ****     lv_obj_set_size(obj, LV_PCT(100), LV_PCT(100));
 338              		.loc 1 135 25 view .LVU84
 339 0006 FFF7FEFF 		bl	lv_obj_get_parent
 340              	.LVL46:
 135:Middlewares/lvgl/src/extra/widgets/tileview/lv_tileview.c ****     lv_obj_set_size(obj, LV_PCT(100), LV_PCT(100));
 341              		.loc 1 135 25 view .LVU85
 342 000a 0646     		mov	r6, r0
 343              	.LVL47:
 136:Middlewares/lvgl/src/extra/widgets/tileview/lv_tileview.c ****     lv_obj_update_layout(obj);  /*Be sure the size is correct*/
 344              		.loc 1 136 5 is_stmt 1 view .LVU86
 345 000c 42F26402 		movw	r2, #8292
 346 0010 1146     		mov	r1, r2
 347 0012 2046     		mov	r0, r4
 348              	.LVL48:
 136:Middlewares/lvgl/src/extra/widgets/tileview/lv_tileview.c ****     lv_obj_update_layout(obj);  /*Be sure the size is correct*/
 349              		.loc 1 136 5 is_stmt 0 view .LVU87
 350 0014 FFF7FEFF 		bl	lv_obj_set_size
 351              	.LVL49:
 137:Middlewares/lvgl/src/extra/widgets/tileview/lv_tileview.c ****     lv_obj_set_pos(obj, create_col_id * lv_obj_get_content_width(parent),  create_row_id * lv_obj_g
 352              		.loc 1 137 5 is_stmt 1 view .LVU88
 353 0018 2046     		mov	r0, r4
 354 001a FFF7FEFF 		bl	lv_obj_update_layout
 355              	.LVL50:
 138:Middlewares/lvgl/src/extra/widgets/tileview/lv_tileview.c **** 
 356              		.loc 1 138 5 view .LVU89
 138:Middlewares/lvgl/src/extra/widgets/tileview/lv_tileview.c **** 
 357              		.loc 1 138 41 is_stmt 0 view .LVU90
 358 001e 3046     		mov	r0, r6
 359 0020 FFF7FEFF 		bl	lv_obj_get_content_width
 360              	.LVL51:
 138:Middlewares/lvgl/src/extra/widgets/tileview/lv_tileview.c **** 
 361              		.loc 1 138 5 view .LVU91
 362 0024 0F4F     		ldr	r7, .L23
 363 0026 3D68     		ldr	r5, [r7]
 364 0028 15FB00F5 		smulbb	r5, r5, r0
 365 002c 2DB2     		sxth	r5, r5
 138:Middlewares/lvgl/src/extra/widgets/tileview/lv_tileview.c **** 
 366              		.loc 1 138 92 view .LVU92
 367 002e 3046     		mov	r0, r6
 368 0030 FFF7FEFF 		bl	lv_obj_get_content_height
 369              	.LVL52:
 138:Middlewares/lvgl/src/extra/widgets/tileview/lv_tileview.c **** 
 370              		.loc 1 138 5 view .LVU93
 371 0034 0C4B     		ldr	r3, .L23+4
 372 0036 1A68     		ldr	r2, [r3]
 373 0038 12FB00F2 		smulbb	r2, r2, r0
 374 003c 12B2     		sxth	r2, r2
 375 003e 2946     		mov	r1, r5
 376 0040 2046     		mov	r0, r4
 377 0042 FFF7FEFF 		bl	lv_obj_set_pos
 378              	.LVL53:
 140:Middlewares/lvgl/src/extra/widgets/tileview/lv_tileview.c ****     tile->dir = create_dir;
 379              		.loc 1 140 5 is_stmt 1 view .LVU94
 141:Middlewares/lvgl/src/extra/widgets/tileview/lv_tileview.c **** 
ARM GAS  /tmp/ccYZcEDy.s 			page 12


 380              		.loc 1 141 5 view .LVU95
 141:Middlewares/lvgl/src/extra/widgets/tileview/lv_tileview.c **** 
 381              		.loc 1 141 15 is_stmt 0 view .LVU96
 382 0046 094B     		ldr	r3, .L23+8
 383 0048 1978     		ldrb	r1, [r3]	@ zero_extendqisi2
 384 004a 84F82410 		strb	r1, [r4, #36]
 143:Middlewares/lvgl/src/extra/widgets/tileview/lv_tileview.c ****         lv_obj_set_scroll_dir(parent, create_dir);
 385              		.loc 1 143 5 is_stmt 1 view .LVU97
 143:Middlewares/lvgl/src/extra/widgets/tileview/lv_tileview.c ****         lv_obj_set_scroll_dir(parent, create_dir);
 386              		.loc 1 143 22 is_stmt 0 view .LVU98
 387 004e 3B68     		ldr	r3, [r7]
 143:Middlewares/lvgl/src/extra/widgets/tileview/lv_tileview.c ****         lv_obj_set_scroll_dir(parent, create_dir);
 388              		.loc 1 143 7 view .LVU99
 389 0050 13B9     		cbnz	r3, .L19
 143:Middlewares/lvgl/src/extra/widgets/tileview/lv_tileview.c ****         lv_obj_set_scroll_dir(parent, create_dir);
 390              		.loc 1 143 44 discriminator 1 view .LVU100
 391 0052 054B     		ldr	r3, .L23+4
 392 0054 1B68     		ldr	r3, [r3]
 143:Middlewares/lvgl/src/extra/widgets/tileview/lv_tileview.c ****         lv_obj_set_scroll_dir(parent, create_dir);
 393              		.loc 1 143 27 discriminator 1 view .LVU101
 394 0056 03B1     		cbz	r3, .L22
 395              	.L19:
 146:Middlewares/lvgl/src/extra/widgets/tileview/lv_tileview.c **** 
 396              		.loc 1 146 1 view .LVU102
 397 0058 F8BD     		pop	{r3, r4, r5, r6, r7, pc}
 398              	.LVL54:
 399              	.L22:
 144:Middlewares/lvgl/src/extra/widgets/tileview/lv_tileview.c ****     }
 400              		.loc 1 144 9 is_stmt 1 view .LVU103
 401 005a 3046     		mov	r0, r6
 402 005c FFF7FEFF 		bl	lv_obj_set_scroll_dir
 403              	.LVL55:
 146:Middlewares/lvgl/src/extra/widgets/tileview/lv_tileview.c **** 
 404              		.loc 1 146 1 is_stmt 0 view .LVU104
 405 0060 FAE7     		b	.L19
 406              	.L24:
 407 0062 00BF     		.align	2
 408              	.L23:
 409 0064 00000000 		.word	.LANCHOR0
 410 0068 00000000 		.word	.LANCHOR1
 411 006c 00000000 		.word	.LANCHOR2
 412              		.cfi_endproc
 413              	.LFE153:
 415              		.section	.text.lv_tileview_create,"ax",%progbits
 416              		.align	1
 417              		.global	lv_tileview_create
 418              		.syntax unified
 419              		.thumb
 420              		.thumb_func
 421              		.fpu fpv5-d16
 423              	lv_tileview_create:
 424              	.LVL56:
 425              	.LFB147:
  52:Middlewares/lvgl/src/extra/widgets/tileview/lv_tileview.c ****     LV_LOG_INFO("begin")
 426              		.loc 1 52 1 is_stmt 1 view -0
 427              		.cfi_startproc
 428              		@ args = 0, pretend = 0, frame = 0
ARM GAS  /tmp/ccYZcEDy.s 			page 13


 429              		@ frame_needed = 0, uses_anonymous_args = 0
  52:Middlewares/lvgl/src/extra/widgets/tileview/lv_tileview.c ****     LV_LOG_INFO("begin")
 430              		.loc 1 52 1 is_stmt 0 view .LVU106
 431 0000 10B5     		push	{r4, lr}
 432              	.LCFI6:
 433              		.cfi_def_cfa_offset 8
 434              		.cfi_offset 4, -8
 435              		.cfi_offset 14, -4
 436 0002 0146     		mov	r1, r0
  54:Middlewares/lvgl/src/extra/widgets/tileview/lv_tileview.c ****     lv_obj_class_init_obj(obj);
 437              		.loc 1 54 5 is_stmt 1 view .LVU107
  54:Middlewares/lvgl/src/extra/widgets/tileview/lv_tileview.c ****     lv_obj_class_init_obj(obj);
 438              		.loc 1 54 22 is_stmt 0 view .LVU108
 439 0004 0348     		ldr	r0, .L27
 440              	.LVL57:
  54:Middlewares/lvgl/src/extra/widgets/tileview/lv_tileview.c ****     lv_obj_class_init_obj(obj);
 441              		.loc 1 54 22 view .LVU109
 442 0006 FFF7FEFF 		bl	lv_obj_class_create_obj
 443              	.LVL58:
  54:Middlewares/lvgl/src/extra/widgets/tileview/lv_tileview.c ****     lv_obj_class_init_obj(obj);
 444              		.loc 1 54 22 view .LVU110
 445 000a 0446     		mov	r4, r0
 446              	.LVL59:
  55:Middlewares/lvgl/src/extra/widgets/tileview/lv_tileview.c ****     return obj;
 447              		.loc 1 55 5 is_stmt 1 view .LVU111
 448 000c FFF7FEFF 		bl	lv_obj_class_init_obj
 449              	.LVL60:
  56:Middlewares/lvgl/src/extra/widgets/tileview/lv_tileview.c **** }
 450              		.loc 1 56 5 view .LVU112
  57:Middlewares/lvgl/src/extra/widgets/tileview/lv_tileview.c **** 
 451              		.loc 1 57 1 is_stmt 0 view .LVU113
 452 0010 2046     		mov	r0, r4
 453 0012 10BD     		pop	{r4, pc}
 454              	.LVL61:
 455              	.L28:
  57:Middlewares/lvgl/src/extra/widgets/tileview/lv_tileview.c **** 
 456              		.loc 1 57 1 view .LVU114
 457              		.align	2
 458              	.L27:
 459 0014 00000000 		.word	.LANCHOR3
 460              		.cfi_endproc
 461              	.LFE147:
 463              		.section	.text.lv_tileview_add_tile,"ax",%progbits
 464              		.align	1
 465              		.global	lv_tileview_add_tile
 466              		.syntax unified
 467              		.thumb
 468              		.thumb_func
 469              		.fpu fpv5-d16
 471              	lv_tileview_add_tile:
 472              	.LVL62:
 473              	.LFB148:
  64:Middlewares/lvgl/src/extra/widgets/tileview/lv_tileview.c ****     LV_LOG_INFO("begin")
 474              		.loc 1 64 1 is_stmt 1 view -0
 475              		.cfi_startproc
 476              		@ args = 0, pretend = 0, frame = 0
 477              		@ frame_needed = 0, uses_anonymous_args = 0
ARM GAS  /tmp/ccYZcEDy.s 			page 14


  64:Middlewares/lvgl/src/extra/widgets/tileview/lv_tileview.c ****     LV_LOG_INFO("begin")
 478              		.loc 1 64 1 is_stmt 0 view .LVU116
 479 0000 10B5     		push	{r4, lr}
 480              	.LCFI7:
 481              		.cfi_def_cfa_offset 8
 482              		.cfi_offset 4, -8
 483              		.cfi_offset 14, -4
  66:Middlewares/lvgl/src/extra/widgets/tileview/lv_tileview.c ****     create_col_id = col_id;
 484              		.loc 1 66 5 is_stmt 1 view .LVU117
  66:Middlewares/lvgl/src/extra/widgets/tileview/lv_tileview.c ****     create_col_id = col_id;
 485              		.loc 1 66 16 is_stmt 0 view .LVU118
 486 0002 074C     		ldr	r4, .L31
 487 0004 2370     		strb	r3, [r4]
  67:Middlewares/lvgl/src/extra/widgets/tileview/lv_tileview.c ****     create_row_id = row_id;
 488              		.loc 1 67 5 is_stmt 1 view .LVU119
  67:Middlewares/lvgl/src/extra/widgets/tileview/lv_tileview.c ****     create_row_id = row_id;
 489              		.loc 1 67 19 is_stmt 0 view .LVU120
 490 0006 074B     		ldr	r3, .L31+4
 491              	.LVL63:
  67:Middlewares/lvgl/src/extra/widgets/tileview/lv_tileview.c ****     create_row_id = row_id;
 492              		.loc 1 67 19 view .LVU121
 493 0008 1960     		str	r1, [r3]
  68:Middlewares/lvgl/src/extra/widgets/tileview/lv_tileview.c **** 
 494              		.loc 1 68 5 is_stmt 1 view .LVU122
  68:Middlewares/lvgl/src/extra/widgets/tileview/lv_tileview.c **** 
 495              		.loc 1 68 19 is_stmt 0 view .LVU123
 496 000a 074B     		ldr	r3, .L31+8
 497 000c 1A60     		str	r2, [r3]
  70:Middlewares/lvgl/src/extra/widgets/tileview/lv_tileview.c ****     lv_obj_class_init_obj(obj);
 498              		.loc 1 70 5 is_stmt 1 view .LVU124
  70:Middlewares/lvgl/src/extra/widgets/tileview/lv_tileview.c ****     lv_obj_class_init_obj(obj);
 499              		.loc 1 70 22 is_stmt 0 view .LVU125
 500 000e 0146     		mov	r1, r0
 501              	.LVL64:
  70:Middlewares/lvgl/src/extra/widgets/tileview/lv_tileview.c ****     lv_obj_class_init_obj(obj);
 502              		.loc 1 70 22 view .LVU126
 503 0010 0648     		ldr	r0, .L31+12
 504              	.LVL65:
  70:Middlewares/lvgl/src/extra/widgets/tileview/lv_tileview.c ****     lv_obj_class_init_obj(obj);
 505              		.loc 1 70 22 view .LVU127
 506 0012 FFF7FEFF 		bl	lv_obj_class_create_obj
 507              	.LVL66:
  70:Middlewares/lvgl/src/extra/widgets/tileview/lv_tileview.c ****     lv_obj_class_init_obj(obj);
 508              		.loc 1 70 22 view .LVU128
 509 0016 0446     		mov	r4, r0
 510              	.LVL67:
  71:Middlewares/lvgl/src/extra/widgets/tileview/lv_tileview.c ****     return obj;
 511              		.loc 1 71 5 is_stmt 1 view .LVU129
 512 0018 FFF7FEFF 		bl	lv_obj_class_init_obj
 513              	.LVL68:
  72:Middlewares/lvgl/src/extra/widgets/tileview/lv_tileview.c **** }
 514              		.loc 1 72 5 view .LVU130
  73:Middlewares/lvgl/src/extra/widgets/tileview/lv_tileview.c **** 
 515              		.loc 1 73 1 is_stmt 0 view .LVU131
 516 001c 2046     		mov	r0, r4
 517 001e 10BD     		pop	{r4, pc}
 518              	.LVL69:
ARM GAS  /tmp/ccYZcEDy.s 			page 15


 519              	.L32:
  73:Middlewares/lvgl/src/extra/widgets/tileview/lv_tileview.c **** 
 520              		.loc 1 73 1 view .LVU132
 521              		.align	2
 522              	.L31:
 523 0020 00000000 		.word	.LANCHOR2
 524 0024 00000000 		.word	.LANCHOR0
 525 0028 00000000 		.word	.LANCHOR1
 526 002c 00000000 		.word	.LANCHOR4
 527              		.cfi_endproc
 528              	.LFE148:
 530              		.section	.text.lv_obj_set_tile,"ax",%progbits
 531              		.align	1
 532              		.global	lv_obj_set_tile
 533              		.syntax unified
 534              		.thumb
 535              		.thumb_func
 536              		.fpu fpv5-d16
 538              	lv_obj_set_tile:
 539              	.LVL70:
 540              	.LFB149:
  76:Middlewares/lvgl/src/extra/widgets/tileview/lv_tileview.c ****     lv_coord_t tx = lv_obj_get_x(tile_obj);
 541              		.loc 1 76 1 is_stmt 1 view -0
 542              		.cfi_startproc
 543              		@ args = 0, pretend = 0, frame = 0
 544              		@ frame_needed = 0, uses_anonymous_args = 0
  76:Middlewares/lvgl/src/extra/widgets/tileview/lv_tileview.c ****     lv_coord_t tx = lv_obj_get_x(tile_obj);
 545              		.loc 1 76 1 is_stmt 0 view .LVU134
 546 0000 2DE9F041 		push	{r4, r5, r6, r7, r8, lr}
 547              	.LCFI8:
 548              		.cfi_def_cfa_offset 24
 549              		.cfi_offset 4, -24
 550              		.cfi_offset 5, -20
 551              		.cfi_offset 6, -16
 552              		.cfi_offset 7, -12
 553              		.cfi_offset 8, -8
 554              		.cfi_offset 14, -4
 555 0004 0546     		mov	r5, r0
 556 0006 0C46     		mov	r4, r1
 557 0008 9046     		mov	r8, r2
  77:Middlewares/lvgl/src/extra/widgets/tileview/lv_tileview.c ****     lv_coord_t ty = lv_obj_get_y(tile_obj);
 558              		.loc 1 77 5 is_stmt 1 view .LVU135
  77:Middlewares/lvgl/src/extra/widgets/tileview/lv_tileview.c ****     lv_coord_t ty = lv_obj_get_y(tile_obj);
 559              		.loc 1 77 21 is_stmt 0 view .LVU136
 560 000a 0846     		mov	r0, r1
 561              	.LVL71:
  77:Middlewares/lvgl/src/extra/widgets/tileview/lv_tileview.c ****     lv_coord_t ty = lv_obj_get_y(tile_obj);
 562              		.loc 1 77 21 view .LVU137
 563 000c FFF7FEFF 		bl	lv_obj_get_x
 564              	.LVL72:
  77:Middlewares/lvgl/src/extra/widgets/tileview/lv_tileview.c ****     lv_coord_t ty = lv_obj_get_y(tile_obj);
 565              		.loc 1 77 21 view .LVU138
 566 0010 0646     		mov	r6, r0
 567              	.LVL73:
  78:Middlewares/lvgl/src/extra/widgets/tileview/lv_tileview.c **** 
 568              		.loc 1 78 5 is_stmt 1 view .LVU139
  78:Middlewares/lvgl/src/extra/widgets/tileview/lv_tileview.c **** 
ARM GAS  /tmp/ccYZcEDy.s 			page 16


 569              		.loc 1 78 21 is_stmt 0 view .LVU140
 570 0012 2046     		mov	r0, r4
 571 0014 FFF7FEFF 		bl	lv_obj_get_y
 572              	.LVL74:
 573 0018 0746     		mov	r7, r0
 574              	.LVL75:
  80:Middlewares/lvgl/src/extra/widgets/tileview/lv_tileview.c ****     lv_tileview_t * tv = (lv_tileview_t *) obj;
 575              		.loc 1 80 5 is_stmt 1 view .LVU141
  81:Middlewares/lvgl/src/extra/widgets/tileview/lv_tileview.c ****     tv->tile_act = (lv_obj_t *)tile;
 576              		.loc 1 81 5 view .LVU142
  82:Middlewares/lvgl/src/extra/widgets/tileview/lv_tileview.c **** 
 577              		.loc 1 82 5 view .LVU143
  82:Middlewares/lvgl/src/extra/widgets/tileview/lv_tileview.c **** 
 578              		.loc 1 82 18 is_stmt 0 view .LVU144
 579 001a 6C62     		str	r4, [r5, #36]
  84:Middlewares/lvgl/src/extra/widgets/tileview/lv_tileview.c ****     lv_obj_scroll_to(obj, tx, ty, anim_en);
 580              		.loc 1 84 5 is_stmt 1 view .LVU145
 581 001c 94F82410 		ldrb	r1, [r4, #36]	@ zero_extendqisi2
 582 0020 2846     		mov	r0, r5
 583 0022 FFF7FEFF 		bl	lv_obj_set_scroll_dir
 584              	.LVL76:
  85:Middlewares/lvgl/src/extra/widgets/tileview/lv_tileview.c **** }
 585              		.loc 1 85 5 view .LVU146
 586 0026 4346     		mov	r3, r8
 587 0028 3A46     		mov	r2, r7
 588 002a 3146     		mov	r1, r6
 589 002c 2846     		mov	r0, r5
 590 002e FFF7FEFF 		bl	lv_obj_scroll_to
 591              	.LVL77:
  86:Middlewares/lvgl/src/extra/widgets/tileview/lv_tileview.c **** 
 592              		.loc 1 86 1 is_stmt 0 view .LVU147
 593 0032 BDE8F081 		pop	{r4, r5, r6, r7, r8, pc}
  86:Middlewares/lvgl/src/extra/widgets/tileview/lv_tileview.c **** 
 594              		.loc 1 86 1 view .LVU148
 595              		.cfi_endproc
 596              	.LFE149:
 598              		.section	.text.lv_obj_set_tile_id,"ax",%progbits
 599              		.align	1
 600              		.global	lv_obj_set_tile_id
 601              		.syntax unified
 602              		.thumb
 603              		.thumb_func
 604              		.fpu fpv5-d16
 606              	lv_obj_set_tile_id:
 607              	.LVL78:
 608              	.LFB150:
  89:Middlewares/lvgl/src/extra/widgets/tileview/lv_tileview.c ****     lv_coord_t w = lv_obj_get_content_width(tv);
 609              		.loc 1 89 1 is_stmt 1 view -0
 610              		.cfi_startproc
 611              		@ args = 0, pretend = 0, frame = 0
 612              		@ frame_needed = 0, uses_anonymous_args = 0
  89:Middlewares/lvgl/src/extra/widgets/tileview/lv_tileview.c ****     lv_coord_t w = lv_obj_get_content_width(tv);
 613              		.loc 1 89 1 is_stmt 0 view .LVU150
 614 0000 2DE9F047 		push	{r4, r5, r6, r7, r8, r9, r10, lr}
 615              	.LCFI9:
 616              		.cfi_def_cfa_offset 32
 617              		.cfi_offset 4, -32
ARM GAS  /tmp/ccYZcEDy.s 			page 17


 618              		.cfi_offset 5, -28
 619              		.cfi_offset 6, -24
 620              		.cfi_offset 7, -20
 621              		.cfi_offset 8, -16
 622              		.cfi_offset 9, -12
 623              		.cfi_offset 10, -8
 624              		.cfi_offset 14, -4
 625 0004 0746     		mov	r7, r0
 626 0006 0C46     		mov	r4, r1
 627 0008 9146     		mov	r9, r2
 628 000a 9A46     		mov	r10, r3
  90:Middlewares/lvgl/src/extra/widgets/tileview/lv_tileview.c ****     lv_coord_t h = lv_obj_get_content_height(tv);
 629              		.loc 1 90 5 is_stmt 1 view .LVU151
  90:Middlewares/lvgl/src/extra/widgets/tileview/lv_tileview.c ****     lv_coord_t h = lv_obj_get_content_height(tv);
 630              		.loc 1 90 20 is_stmt 0 view .LVU152
 631 000c FFF7FEFF 		bl	lv_obj_get_content_width
 632              	.LVL79:
  90:Middlewares/lvgl/src/extra/widgets/tileview/lv_tileview.c ****     lv_coord_t h = lv_obj_get_content_height(tv);
 633              		.loc 1 90 20 view .LVU153
 634 0010 8046     		mov	r8, r0
 635              	.LVL80:
  91:Middlewares/lvgl/src/extra/widgets/tileview/lv_tileview.c **** 
 636              		.loc 1 91 5 is_stmt 1 view .LVU154
  91:Middlewares/lvgl/src/extra/widgets/tileview/lv_tileview.c **** 
 637              		.loc 1 91 20 is_stmt 0 view .LVU155
 638 0012 3846     		mov	r0, r7
 639 0014 FFF7FEFF 		bl	lv_obj_get_content_height
 640              	.LVL81:
  93:Middlewares/lvgl/src/extra/widgets/tileview/lv_tileview.c ****     lv_coord_t ty = row_id * h;
 641              		.loc 1 93 5 is_stmt 1 view .LVU156
  93:Middlewares/lvgl/src/extra/widgets/tileview/lv_tileview.c ****     lv_coord_t ty = row_id * h;
 642              		.loc 1 93 16 is_stmt 0 view .LVU157
 643 0018 18FB04F8 		smulbb	r8, r8, r4
 644              	.LVL82:
  93:Middlewares/lvgl/src/extra/widgets/tileview/lv_tileview.c ****     lv_coord_t ty = row_id * h;
 645              		.loc 1 93 16 view .LVU158
 646 001c 0FFA88F8 		sxth	r8, r8
 647              	.LVL83:
  94:Middlewares/lvgl/src/extra/widgets/tileview/lv_tileview.c **** 
 648              		.loc 1 94 5 is_stmt 1 view .LVU159
  94:Middlewares/lvgl/src/extra/widgets/tileview/lv_tileview.c **** 
 649              		.loc 1 94 16 is_stmt 0 view .LVU160
 650 0020 10FB09F9 		smulbb	r9, r0, r9
 651              	.LVL84:
  94:Middlewares/lvgl/src/extra/widgets/tileview/lv_tileview.c **** 
 652              		.loc 1 94 16 view .LVU161
 653 0024 0FFA89F9 		sxth	r9, r9
 654              	.LVL85:
  96:Middlewares/lvgl/src/extra/widgets/tileview/lv_tileview.c ****     for(i = 0; i < lv_obj_get_child_cnt(tv); i++) {
 655              		.loc 1 96 5 is_stmt 1 view .LVU162
  97:Middlewares/lvgl/src/extra/widgets/tileview/lv_tileview.c ****         lv_obj_t * tile_obj = lv_obj_get_child(tv, i);
 656              		.loc 1 97 5 view .LVU163
  97:Middlewares/lvgl/src/extra/widgets/tileview/lv_tileview.c ****         lv_obj_t * tile_obj = lv_obj_get_child(tv, i);
 657              		.loc 1 97 11 is_stmt 0 view .LVU164
 658 0028 0024     		movs	r4, #0
 659              	.LVL86:
  97:Middlewares/lvgl/src/extra/widgets/tileview/lv_tileview.c ****         lv_obj_t * tile_obj = lv_obj_get_child(tv, i);
ARM GAS  /tmp/ccYZcEDy.s 			page 18


 660              		.loc 1 97 5 view .LVU165
 661 002a 00E0     		b	.L36
 662              	.LVL87:
 663              	.L37:
  97:Middlewares/lvgl/src/extra/widgets/tileview/lv_tileview.c ****         lv_obj_t * tile_obj = lv_obj_get_child(tv, i);
 664              		.loc 1 97 46 is_stmt 1 discriminator 2 view .LVU166
  97:Middlewares/lvgl/src/extra/widgets/tileview/lv_tileview.c ****         lv_obj_t * tile_obj = lv_obj_get_child(tv, i);
 665              		.loc 1 97 47 is_stmt 0 discriminator 2 view .LVU167
 666 002c 0134     		adds	r4, r4, #1
 667              	.LVL88:
 668              	.L36:
  97:Middlewares/lvgl/src/extra/widgets/tileview/lv_tileview.c ****         lv_obj_t * tile_obj = lv_obj_get_child(tv, i);
 669              		.loc 1 97 16 is_stmt 1 discriminator 1 view .LVU168
  97:Middlewares/lvgl/src/extra/widgets/tileview/lv_tileview.c ****         lv_obj_t * tile_obj = lv_obj_get_child(tv, i);
 670              		.loc 1 97 20 is_stmt 0 discriminator 1 view .LVU169
 671 002e 3846     		mov	r0, r7
 672 0030 FFF7FEFF 		bl	lv_obj_get_child_cnt
 673              	.LVL89:
  97:Middlewares/lvgl/src/extra/widgets/tileview/lv_tileview.c ****         lv_obj_t * tile_obj = lv_obj_get_child(tv, i);
 674              		.loc 1 97 5 discriminator 1 view .LVU170
 675 0034 A042     		cmp	r0, r4
 676 0036 13D9     		bls	.L35
 677              	.LBB6:
  98:Middlewares/lvgl/src/extra/widgets/tileview/lv_tileview.c ****         lv_coord_t x = lv_obj_get_x(tile_obj);
 678              		.loc 1 98 9 is_stmt 1 view .LVU171
  98:Middlewares/lvgl/src/extra/widgets/tileview/lv_tileview.c ****         lv_coord_t x = lv_obj_get_x(tile_obj);
 679              		.loc 1 98 31 is_stmt 0 view .LVU172
 680 0038 2146     		mov	r1, r4
 681 003a 3846     		mov	r0, r7
 682 003c FFF7FEFF 		bl	lv_obj_get_child
 683              	.LVL90:
 684 0040 0546     		mov	r5, r0
 685              	.LVL91:
  99:Middlewares/lvgl/src/extra/widgets/tileview/lv_tileview.c ****         lv_coord_t y = lv_obj_get_y(tile_obj);
 686              		.loc 1 99 9 is_stmt 1 view .LVU173
  99:Middlewares/lvgl/src/extra/widgets/tileview/lv_tileview.c ****         lv_coord_t y = lv_obj_get_y(tile_obj);
 687              		.loc 1 99 24 is_stmt 0 view .LVU174
 688 0042 FFF7FEFF 		bl	lv_obj_get_x
 689              	.LVL92:
  99:Middlewares/lvgl/src/extra/widgets/tileview/lv_tileview.c ****         lv_coord_t y = lv_obj_get_y(tile_obj);
 690              		.loc 1 99 24 view .LVU175
 691 0046 0646     		mov	r6, r0
 692              	.LVL93:
 100:Middlewares/lvgl/src/extra/widgets/tileview/lv_tileview.c ****         if(x == tx && y == ty) {
 693              		.loc 1 100 9 is_stmt 1 view .LVU176
 100:Middlewares/lvgl/src/extra/widgets/tileview/lv_tileview.c ****         if(x == tx && y == ty) {
 694              		.loc 1 100 24 is_stmt 0 view .LVU177
 695 0048 2846     		mov	r0, r5
 696 004a FFF7FEFF 		bl	lv_obj_get_y
 697              	.LVL94:
 101:Middlewares/lvgl/src/extra/widgets/tileview/lv_tileview.c ****             lv_obj_set_tile(tv, tile_obj, anim_en);
 698              		.loc 1 101 9 is_stmt 1 view .LVU178
 101:Middlewares/lvgl/src/extra/widgets/tileview/lv_tileview.c ****             lv_obj_set_tile(tv, tile_obj, anim_en);
 699              		.loc 1 101 11 is_stmt 0 view .LVU179
 700 004e B045     		cmp	r8, r6
 701 0050 08BF     		it	eq
 702 0052 8145     		cmpeq	r9, r0
ARM GAS  /tmp/ccYZcEDy.s 			page 19


 703 0054 EAD1     		bne	.L37
 102:Middlewares/lvgl/src/extra/widgets/tileview/lv_tileview.c ****             return;
 704              		.loc 1 102 13 is_stmt 1 view .LVU180
 705 0056 5246     		mov	r2, r10
 706 0058 2946     		mov	r1, r5
 707 005a 3846     		mov	r0, r7
 708              	.LVL95:
 102:Middlewares/lvgl/src/extra/widgets/tileview/lv_tileview.c ****             return;
 709              		.loc 1 102 13 is_stmt 0 view .LVU181
 710 005c FFF7FEFF 		bl	lv_obj_set_tile
 711              	.LVL96:
 103:Middlewares/lvgl/src/extra/widgets/tileview/lv_tileview.c ****         }
 712              		.loc 1 103 13 is_stmt 1 view .LVU182
 713              	.L35:
 103:Middlewares/lvgl/src/extra/widgets/tileview/lv_tileview.c ****         }
 714              		.loc 1 103 13 is_stmt 0 view .LVU183
 715              	.LBE6:
 108:Middlewares/lvgl/src/extra/widgets/tileview/lv_tileview.c **** 
 716              		.loc 1 108 1 view .LVU184
 717 0060 BDE8F087 		pop	{r4, r5, r6, r7, r8, r9, r10, pc}
 108:Middlewares/lvgl/src/extra/widgets/tileview/lv_tileview.c **** 
 718              		.loc 1 108 1 view .LVU185
 719              		.cfi_endproc
 720              	.LFE150:
 722              		.section	.text.lv_tileview_get_tile_act,"ax",%progbits
 723              		.align	1
 724              		.global	lv_tileview_get_tile_act
 725              		.syntax unified
 726              		.thumb
 727              		.thumb_func
 728              		.fpu fpv5-d16
 730              	lv_tileview_get_tile_act:
 731              	.LVL97:
 732              	.LFB151:
 111:Middlewares/lvgl/src/extra/widgets/tileview/lv_tileview.c ****     lv_tileview_t * tv = (lv_tileview_t *) obj;
 733              		.loc 1 111 1 is_stmt 1 view -0
 734              		.cfi_startproc
 735              		@ args = 0, pretend = 0, frame = 0
 736              		@ frame_needed = 0, uses_anonymous_args = 0
 737              		@ link register save eliminated.
 112:Middlewares/lvgl/src/extra/widgets/tileview/lv_tileview.c ****     return tv->tile_act;
 738              		.loc 1 112 5 view .LVU187
 113:Middlewares/lvgl/src/extra/widgets/tileview/lv_tileview.c **** }
 739              		.loc 1 113 5 view .LVU188
 114:Middlewares/lvgl/src/extra/widgets/tileview/lv_tileview.c **** 
 740              		.loc 1 114 1 is_stmt 0 view .LVU189
 741 0000 406A     		ldr	r0, [r0, #36]
 742              	.LVL98:
 114:Middlewares/lvgl/src/extra/widgets/tileview/lv_tileview.c **** 
 743              		.loc 1 114 1 view .LVU190
 744 0002 7047     		bx	lr
 745              		.cfi_endproc
 746              	.LFE151:
 748              		.global	lv_tileview_tile_class
 749              		.global	lv_tileview_class
 750              		.section	.bss.create_col_id,"aw",%nobits
 751              		.align	2
ARM GAS  /tmp/ccYZcEDy.s 			page 20


 752              		.set	.LANCHOR0,. + 0
 755              	create_col_id:
 756 0000 00000000 		.space	4
 757              		.section	.bss.create_dir,"aw",%nobits
 758              		.set	.LANCHOR2,. + 0
 761              	create_dir:
 762 0000 00       		.space	1
 763              		.section	.bss.create_row_id,"aw",%nobits
 764              		.align	2
 765              		.set	.LANCHOR1,. + 0
 768              	create_row_id:
 769 0000 00000000 		.space	4
 770              		.section	.rodata.lv_tileview_class,"a"
 771              		.align	2
 772              		.set	.LANCHOR3,. + 0
 775              	lv_tileview_class:
 776 0000 00000000 		.word	lv_obj_class
 777 0004 00000000 		.word	lv_tileview_constructor
 778 0008 00000000 		.space	16
 778      00000000 
 778      00000000 
 778      00000000 
 779 0018 80       		.byte	128
 780 0019 02       		.byte	2
 781 001a 00       		.byte	0
 782 001b 00       		.space	1
 783              		.section	.rodata.lv_tileview_tile_class,"a"
 784              		.align	2
 785              		.set	.LANCHOR4,. + 0
 788              	lv_tileview_tile_class:
 789 0000 00000000 		.word	lv_obj_class
 790 0004 00000000 		.word	lv_tileview_tile_constructor
 791 0008 00000000 		.space	16
 791      00000000 
 791      00000000 
 791      00000000 
 792 0018 80       		.byte	128
 793 0019 02       		.byte	2
 794 001a 00       		.byte	0
 795 001b 00       		.space	1
 796              		.text
 797              	.Letext0:
 798              		.file 2 "/home/akinya/gcc-arm-none-eabi/arm-none-eabi/include/machine/_default_types.h"
 799              		.file 3 "/home/akinya/gcc-arm-none-eabi/arm-none-eabi/include/sys/_stdint.h"
 800              		.file 4 "Middlewares/lvgl/src/extra/widgets/tileview/../../../core/../misc/../font/../misc/lv_area
 801              		.file 5 "Middlewares/lvgl/src/extra/widgets/tileview/../../../core/../misc/lv_color.h"
 802              		.file 6 "Middlewares/lvgl/src/extra/widgets/tileview/../../../core/../misc/lv_anim.h"
 803              		.file 7 "Middlewares/lvgl/src/extra/widgets/tileview/../../../core/../misc/lv_style.h"
 804              		.file 8 "Middlewares/lvgl/src/extra/widgets/tileview/../../../core/../hal/../misc/lv_ll.h"
 805              		.file 9 "Middlewares/lvgl/src/extra/widgets/tileview/../../../core/lv_obj.h"
 806              		.file 10 "Middlewares/lvgl/src/extra/widgets/tileview/../../../core/lv_group.h"
 807              		.file 11 "Middlewares/lvgl/src/extra/widgets/tileview/../../../core/lv_obj_scroll.h"
 808              		.file 12 "Middlewares/lvgl/src/extra/widgets/tileview/../../../core/lv_obj_style.h"
 809              		.file 13 "Middlewares/lvgl/src/extra/widgets/tileview/../../../core/lv_obj_class.h"
 810              		.file 14 "Middlewares/lvgl/src/extra/widgets/tileview/../../../core/lv_event.h"
 811              		.file 15 "Middlewares/lvgl/src/extra/widgets/tileview/lv_tileview.h"
 812              		.file 16 "Middlewares/lvgl/src/extra/widgets/tileview/../../../core/lv_obj_tree.h"
ARM GAS  /tmp/ccYZcEDy.s 			page 21


 813              		.file 17 "Middlewares/lvgl/src/extra/widgets/tileview/../../../core/lv_obj_pos.h"
ARM GAS  /tmp/ccYZcEDy.s 			page 22

