ARM GAS  /tmp/ccBcXzOI.s 			page 1


   1              		.cpu cortex-m7
   2              		.arch armv7e-m
   3              		.fpu fpv5-d16
   4              		.eabi_attribute 28, 1
   5              		.eabi_attribute 20, 1
   6              		.eabi_attribute 21, 1
   7              		.eabi_attribute 23, 3
   8              		.eabi_attribute 24, 1
   9              		.eabi_attribute 25, 1
  10              		.eabi_attribute 26, 1
  11              		.eabi_attribute 30, 1
  12              		.eabi_attribute 34, 1
  13              		.eabi_attribute 18, 4
  14              		.file	"lv_tileview.c"
  15              		.text
  16              	.Ltext0:
  17              		.cfi_sections	.debug_frame
  18              		.section	.text.lv_tileview_constructor,"ax",%progbits
  19              		.align	1
  20              		.syntax unified
  21              		.thumb
  22              		.thumb_func
  24              	lv_tileview_constructor:
  25              	.LVL0:
  26              	.LFB152:
  27              		.file 1 "Middlewares/lvgl/src/extra/widgets/tileview/lv_tileview.c"
   1:Middlewares/lvgl/src/extra/widgets/tileview/lv_tileview.c **** /**
   2:Middlewares/lvgl/src/extra/widgets/tileview/lv_tileview.c ****  * @file lv_tileview.c
   3:Middlewares/lvgl/src/extra/widgets/tileview/lv_tileview.c ****  *
   4:Middlewares/lvgl/src/extra/widgets/tileview/lv_tileview.c ****  */
   5:Middlewares/lvgl/src/extra/widgets/tileview/lv_tileview.c **** 
   6:Middlewares/lvgl/src/extra/widgets/tileview/lv_tileview.c **** /*********************
   7:Middlewares/lvgl/src/extra/widgets/tileview/lv_tileview.c ****  *      INCLUDES
   8:Middlewares/lvgl/src/extra/widgets/tileview/lv_tileview.c ****  *********************/
   9:Middlewares/lvgl/src/extra/widgets/tileview/lv_tileview.c **** #include "lv_tileview.h"
  10:Middlewares/lvgl/src/extra/widgets/tileview/lv_tileview.c **** #if LV_USE_TILEVIEW
  11:Middlewares/lvgl/src/extra/widgets/tileview/lv_tileview.c **** 
  12:Middlewares/lvgl/src/extra/widgets/tileview/lv_tileview.c **** /*********************
  13:Middlewares/lvgl/src/extra/widgets/tileview/lv_tileview.c ****  *      DEFINES
  14:Middlewares/lvgl/src/extra/widgets/tileview/lv_tileview.c ****  *********************/
  15:Middlewares/lvgl/src/extra/widgets/tileview/lv_tileview.c **** 
  16:Middlewares/lvgl/src/extra/widgets/tileview/lv_tileview.c **** /**********************
  17:Middlewares/lvgl/src/extra/widgets/tileview/lv_tileview.c ****  *      TYPEDEFS
  18:Middlewares/lvgl/src/extra/widgets/tileview/lv_tileview.c ****  **********************/
  19:Middlewares/lvgl/src/extra/widgets/tileview/lv_tileview.c **** 
  20:Middlewares/lvgl/src/extra/widgets/tileview/lv_tileview.c **** /**********************
  21:Middlewares/lvgl/src/extra/widgets/tileview/lv_tileview.c ****  *  STATIC PROTOTYPES
  22:Middlewares/lvgl/src/extra/widgets/tileview/lv_tileview.c ****  **********************/
  23:Middlewares/lvgl/src/extra/widgets/tileview/lv_tileview.c **** static void lv_tileview_constructor(const lv_obj_class_t * class_p, lv_obj_t * obj);
  24:Middlewares/lvgl/src/extra/widgets/tileview/lv_tileview.c **** static void lv_tileview_tile_constructor(const lv_obj_class_t * class_p, lv_obj_t * obj);
  25:Middlewares/lvgl/src/extra/widgets/tileview/lv_tileview.c **** static void tileview_event_cb(lv_event_t * e);
  26:Middlewares/lvgl/src/extra/widgets/tileview/lv_tileview.c **** 
  27:Middlewares/lvgl/src/extra/widgets/tileview/lv_tileview.c **** /**********************
  28:Middlewares/lvgl/src/extra/widgets/tileview/lv_tileview.c ****  *  STATIC VARIABLES
  29:Middlewares/lvgl/src/extra/widgets/tileview/lv_tileview.c ****  **********************/
  30:Middlewares/lvgl/src/extra/widgets/tileview/lv_tileview.c **** 
  31:Middlewares/lvgl/src/extra/widgets/tileview/lv_tileview.c **** const lv_obj_class_t lv_tileview_class = {.constructor_cb = lv_tileview_constructor,
ARM GAS  /tmp/ccBcXzOI.s 			page 2


  32:Middlewares/lvgl/src/extra/widgets/tileview/lv_tileview.c ****                                     .base_class = &lv_obj_class,
  33:Middlewares/lvgl/src/extra/widgets/tileview/lv_tileview.c ****                                     .instance_size = sizeof(lv_tileview_t)};
  34:Middlewares/lvgl/src/extra/widgets/tileview/lv_tileview.c **** 
  35:Middlewares/lvgl/src/extra/widgets/tileview/lv_tileview.c **** const lv_obj_class_t lv_tileview_tile_class = {.constructor_cb = lv_tileview_tile_constructor,
  36:Middlewares/lvgl/src/extra/widgets/tileview/lv_tileview.c ****                                          .base_class = &lv_obj_class,
  37:Middlewares/lvgl/src/extra/widgets/tileview/lv_tileview.c ****                                          .instance_size = sizeof(lv_tileview_tile_t)};
  38:Middlewares/lvgl/src/extra/widgets/tileview/lv_tileview.c **** 
  39:Middlewares/lvgl/src/extra/widgets/tileview/lv_tileview.c **** static lv_dir_t create_dir;
  40:Middlewares/lvgl/src/extra/widgets/tileview/lv_tileview.c **** static uint32_t create_col_id;
  41:Middlewares/lvgl/src/extra/widgets/tileview/lv_tileview.c **** static uint32_t create_row_id;
  42:Middlewares/lvgl/src/extra/widgets/tileview/lv_tileview.c **** 
  43:Middlewares/lvgl/src/extra/widgets/tileview/lv_tileview.c **** /**********************
  44:Middlewares/lvgl/src/extra/widgets/tileview/lv_tileview.c ****  *      MACROS
  45:Middlewares/lvgl/src/extra/widgets/tileview/lv_tileview.c ****  **********************/
  46:Middlewares/lvgl/src/extra/widgets/tileview/lv_tileview.c **** 
  47:Middlewares/lvgl/src/extra/widgets/tileview/lv_tileview.c **** /**********************
  48:Middlewares/lvgl/src/extra/widgets/tileview/lv_tileview.c ****  *   GLOBAL FUNCTIONS
  49:Middlewares/lvgl/src/extra/widgets/tileview/lv_tileview.c ****  **********************/
  50:Middlewares/lvgl/src/extra/widgets/tileview/lv_tileview.c **** 
  51:Middlewares/lvgl/src/extra/widgets/tileview/lv_tileview.c **** lv_obj_t * lv_tileview_create(lv_obj_t * parent)
  52:Middlewares/lvgl/src/extra/widgets/tileview/lv_tileview.c **** {
  53:Middlewares/lvgl/src/extra/widgets/tileview/lv_tileview.c ****     LV_LOG_INFO("begin")
  54:Middlewares/lvgl/src/extra/widgets/tileview/lv_tileview.c ****     lv_obj_t * obj = lv_obj_class_create_obj(&lv_tileview_class, parent);
  55:Middlewares/lvgl/src/extra/widgets/tileview/lv_tileview.c ****     lv_obj_class_init_obj(obj);
  56:Middlewares/lvgl/src/extra/widgets/tileview/lv_tileview.c ****     return obj;
  57:Middlewares/lvgl/src/extra/widgets/tileview/lv_tileview.c **** }
  58:Middlewares/lvgl/src/extra/widgets/tileview/lv_tileview.c **** 
  59:Middlewares/lvgl/src/extra/widgets/tileview/lv_tileview.c **** /*======================
  60:Middlewares/lvgl/src/extra/widgets/tileview/lv_tileview.c ****  * Add/remove functions
  61:Middlewares/lvgl/src/extra/widgets/tileview/lv_tileview.c ****  *=====================*/
  62:Middlewares/lvgl/src/extra/widgets/tileview/lv_tileview.c **** 
  63:Middlewares/lvgl/src/extra/widgets/tileview/lv_tileview.c **** lv_obj_t * lv_tileview_add_tile(lv_obj_t * tv, uint8_t col_id, uint8_t row_id, lv_dir_t dir)
  64:Middlewares/lvgl/src/extra/widgets/tileview/lv_tileview.c **** {
  65:Middlewares/lvgl/src/extra/widgets/tileview/lv_tileview.c ****     LV_LOG_INFO("begin")
  66:Middlewares/lvgl/src/extra/widgets/tileview/lv_tileview.c ****     create_dir = dir;
  67:Middlewares/lvgl/src/extra/widgets/tileview/lv_tileview.c ****     create_col_id = col_id;
  68:Middlewares/lvgl/src/extra/widgets/tileview/lv_tileview.c ****     create_row_id = row_id;
  69:Middlewares/lvgl/src/extra/widgets/tileview/lv_tileview.c **** 
  70:Middlewares/lvgl/src/extra/widgets/tileview/lv_tileview.c ****     lv_obj_t * obj = lv_obj_class_create_obj(&lv_tileview_tile_class, tv);
  71:Middlewares/lvgl/src/extra/widgets/tileview/lv_tileview.c ****     lv_obj_class_init_obj(obj);
  72:Middlewares/lvgl/src/extra/widgets/tileview/lv_tileview.c ****     return obj;
  73:Middlewares/lvgl/src/extra/widgets/tileview/lv_tileview.c **** }
  74:Middlewares/lvgl/src/extra/widgets/tileview/lv_tileview.c **** 
  75:Middlewares/lvgl/src/extra/widgets/tileview/lv_tileview.c **** void lv_obj_set_tile(lv_obj_t * obj, lv_obj_t * tile_obj, lv_anim_enable_t anim_en)
  76:Middlewares/lvgl/src/extra/widgets/tileview/lv_tileview.c **** {
  77:Middlewares/lvgl/src/extra/widgets/tileview/lv_tileview.c ****     lv_coord_t tx = lv_obj_get_x(tile_obj);
  78:Middlewares/lvgl/src/extra/widgets/tileview/lv_tileview.c ****     lv_coord_t ty = lv_obj_get_y(tile_obj);
  79:Middlewares/lvgl/src/extra/widgets/tileview/lv_tileview.c **** 
  80:Middlewares/lvgl/src/extra/widgets/tileview/lv_tileview.c ****     lv_tileview_tile_t * tile = (lv_tileview_tile_t *)tile_obj;
  81:Middlewares/lvgl/src/extra/widgets/tileview/lv_tileview.c ****     lv_tileview_t * tv = (lv_tileview_t *) obj;
  82:Middlewares/lvgl/src/extra/widgets/tileview/lv_tileview.c ****     tv->tile_act = (lv_obj_t *)tile;
  83:Middlewares/lvgl/src/extra/widgets/tileview/lv_tileview.c **** 
  84:Middlewares/lvgl/src/extra/widgets/tileview/lv_tileview.c ****     lv_obj_set_scroll_dir(obj, tile->dir);
  85:Middlewares/lvgl/src/extra/widgets/tileview/lv_tileview.c ****     lv_obj_scroll_to(obj, tx, ty, anim_en);
  86:Middlewares/lvgl/src/extra/widgets/tileview/lv_tileview.c **** }
  87:Middlewares/lvgl/src/extra/widgets/tileview/lv_tileview.c **** 
  88:Middlewares/lvgl/src/extra/widgets/tileview/lv_tileview.c **** void lv_obj_set_tile_id(lv_obj_t * tv, uint32_t col_id, uint32_t row_id, lv_anim_enable_t anim_en)
ARM GAS  /tmp/ccBcXzOI.s 			page 3


  89:Middlewares/lvgl/src/extra/widgets/tileview/lv_tileview.c **** {
  90:Middlewares/lvgl/src/extra/widgets/tileview/lv_tileview.c ****     lv_coord_t w = lv_obj_get_content_width(tv);
  91:Middlewares/lvgl/src/extra/widgets/tileview/lv_tileview.c ****     lv_coord_t h = lv_obj_get_content_height(tv);
  92:Middlewares/lvgl/src/extra/widgets/tileview/lv_tileview.c **** 
  93:Middlewares/lvgl/src/extra/widgets/tileview/lv_tileview.c ****     lv_coord_t tx = col_id * w;
  94:Middlewares/lvgl/src/extra/widgets/tileview/lv_tileview.c ****     lv_coord_t ty = row_id * h;
  95:Middlewares/lvgl/src/extra/widgets/tileview/lv_tileview.c **** 
  96:Middlewares/lvgl/src/extra/widgets/tileview/lv_tileview.c ****     uint32_t i;
  97:Middlewares/lvgl/src/extra/widgets/tileview/lv_tileview.c ****     for(i = 0; i < lv_obj_get_child_cnt(tv); i++) {
  98:Middlewares/lvgl/src/extra/widgets/tileview/lv_tileview.c ****         lv_obj_t * tile_obj = lv_obj_get_child(tv, i);
  99:Middlewares/lvgl/src/extra/widgets/tileview/lv_tileview.c ****         lv_coord_t x = lv_obj_get_x(tile_obj);
 100:Middlewares/lvgl/src/extra/widgets/tileview/lv_tileview.c ****         lv_coord_t y = lv_obj_get_y(tile_obj);
 101:Middlewares/lvgl/src/extra/widgets/tileview/lv_tileview.c ****         if(x == tx && y == ty) {
 102:Middlewares/lvgl/src/extra/widgets/tileview/lv_tileview.c ****             lv_obj_set_tile(tv, tile_obj, anim_en);
 103:Middlewares/lvgl/src/extra/widgets/tileview/lv_tileview.c ****             return;
 104:Middlewares/lvgl/src/extra/widgets/tileview/lv_tileview.c ****         }
 105:Middlewares/lvgl/src/extra/widgets/tileview/lv_tileview.c ****     }
 106:Middlewares/lvgl/src/extra/widgets/tileview/lv_tileview.c **** 
 107:Middlewares/lvgl/src/extra/widgets/tileview/lv_tileview.c ****     LV_LOG_WARN("No tile found with at (%d,%d) index", col_id, row_id);
 108:Middlewares/lvgl/src/extra/widgets/tileview/lv_tileview.c **** }
 109:Middlewares/lvgl/src/extra/widgets/tileview/lv_tileview.c **** 
 110:Middlewares/lvgl/src/extra/widgets/tileview/lv_tileview.c **** lv_obj_t * lv_tileview_get_tile_act(lv_obj_t * obj)
 111:Middlewares/lvgl/src/extra/widgets/tileview/lv_tileview.c **** {
 112:Middlewares/lvgl/src/extra/widgets/tileview/lv_tileview.c ****     lv_tileview_t * tv = (lv_tileview_t *) obj;
 113:Middlewares/lvgl/src/extra/widgets/tileview/lv_tileview.c ****     return tv->tile_act;
 114:Middlewares/lvgl/src/extra/widgets/tileview/lv_tileview.c **** }
 115:Middlewares/lvgl/src/extra/widgets/tileview/lv_tileview.c **** 
 116:Middlewares/lvgl/src/extra/widgets/tileview/lv_tileview.c **** /**********************
 117:Middlewares/lvgl/src/extra/widgets/tileview/lv_tileview.c ****  *   STATIC FUNCTIONS
 118:Middlewares/lvgl/src/extra/widgets/tileview/lv_tileview.c ****  **********************/
 119:Middlewares/lvgl/src/extra/widgets/tileview/lv_tileview.c **** 
 120:Middlewares/lvgl/src/extra/widgets/tileview/lv_tileview.c **** static void lv_tileview_constructor(const lv_obj_class_t * class_p, lv_obj_t * obj)
 121:Middlewares/lvgl/src/extra/widgets/tileview/lv_tileview.c **** {
  28              		.loc 1 121 1 view -0
  29              		.cfi_startproc
  30              		@ args = 0, pretend = 0, frame = 0
  31              		@ frame_needed = 0, uses_anonymous_args = 0
  32              		.loc 1 121 1 is_stmt 0 view .LVU1
  33 0000 10B5     		push	{r4, lr}
  34              	.LCFI0:
  35              		.cfi_def_cfa_offset 8
  36              		.cfi_offset 4, -8
  37              		.cfi_offset 14, -4
  38 0002 0C46     		mov	r4, r1
 122:Middlewares/lvgl/src/extra/widgets/tileview/lv_tileview.c ****     LV_UNUSED(class_p);
  39              		.loc 1 122 5 is_stmt 1 view .LVU2
 123:Middlewares/lvgl/src/extra/widgets/tileview/lv_tileview.c ****     lv_obj_set_size(obj, LV_PCT(100), LV_PCT(100));
  40              		.loc 1 123 5 view .LVU3
  41 0004 42F26402 		movw	r2, #8292
  42 0008 1146     		mov	r1, r2
  43              	.LVL1:
  44              		.loc 1 123 5 is_stmt 0 view .LVU4
  45 000a 2046     		mov	r0, r4
  46              	.LVL2:
  47              		.loc 1 123 5 view .LVU5
  48 000c FFF7FEFF 		bl	lv_obj_set_size
  49              	.LVL3:
ARM GAS  /tmp/ccBcXzOI.s 			page 4


 124:Middlewares/lvgl/src/extra/widgets/tileview/lv_tileview.c ****     lv_obj_add_event_cb(obj, tileview_event_cb, LV_EVENT_ALL, NULL);
  50              		.loc 1 124 5 is_stmt 1 view .LVU6
  51 0010 0023     		movs	r3, #0
  52 0012 1A46     		mov	r2, r3
  53 0014 0849     		ldr	r1, .L3
  54 0016 2046     		mov	r0, r4
  55 0018 FFF7FEFF 		bl	lv_obj_add_event_cb
  56              	.LVL4:
 125:Middlewares/lvgl/src/extra/widgets/tileview/lv_tileview.c ****     lv_obj_add_flag(obj, LV_OBJ_FLAG_SCROLL_ONE);
  57              		.loc 1 125 5 view .LVU7
  58 001c 8021     		movs	r1, #128
  59 001e 2046     		mov	r0, r4
  60 0020 FFF7FEFF 		bl	lv_obj_add_flag
  61              	.LVL5:
 126:Middlewares/lvgl/src/extra/widgets/tileview/lv_tileview.c ****     lv_obj_set_scroll_snap_x(obj, LV_SCROLL_SNAP_CENTER);
  62              		.loc 1 126 5 view .LVU8
  63 0024 0321     		movs	r1, #3
  64 0026 2046     		mov	r0, r4
  65 0028 FFF7FEFF 		bl	lv_obj_set_scroll_snap_x
  66              	.LVL6:
 127:Middlewares/lvgl/src/extra/widgets/tileview/lv_tileview.c ****     lv_obj_set_scroll_snap_y(obj, LV_SCROLL_SNAP_CENTER);
  67              		.loc 1 127 5 view .LVU9
  68 002c 0321     		movs	r1, #3
  69 002e 2046     		mov	r0, r4
  70 0030 FFF7FEFF 		bl	lv_obj_set_scroll_snap_y
  71              	.LVL7:
 128:Middlewares/lvgl/src/extra/widgets/tileview/lv_tileview.c **** 
 129:Middlewares/lvgl/src/extra/widgets/tileview/lv_tileview.c **** }
  72              		.loc 1 129 1 is_stmt 0 view .LVU10
  73 0034 10BD     		pop	{r4, pc}
  74              	.LVL8:
  75              	.L4:
  76              		.loc 1 129 1 view .LVU11
  77 0036 00BF     		.align	2
  78              	.L3:
  79 0038 00000000 		.word	tileview_event_cb
  80              		.cfi_endproc
  81              	.LFE152:
  83              		.section	.text.tileview_event_cb,"ax",%progbits
  84              		.align	1
  85              		.syntax unified
  86              		.thumb
  87              		.thumb_func
  89              	tileview_event_cb:
  90              	.LVL9:
  91              	.LFB154:
 130:Middlewares/lvgl/src/extra/widgets/tileview/lv_tileview.c **** 
 131:Middlewares/lvgl/src/extra/widgets/tileview/lv_tileview.c **** static void lv_tileview_tile_constructor(const lv_obj_class_t * class_p, lv_obj_t * obj)
 132:Middlewares/lvgl/src/extra/widgets/tileview/lv_tileview.c **** {
 133:Middlewares/lvgl/src/extra/widgets/tileview/lv_tileview.c **** 
 134:Middlewares/lvgl/src/extra/widgets/tileview/lv_tileview.c ****     LV_UNUSED(class_p);
 135:Middlewares/lvgl/src/extra/widgets/tileview/lv_tileview.c ****     lv_obj_t * parent = lv_obj_get_parent(obj);
 136:Middlewares/lvgl/src/extra/widgets/tileview/lv_tileview.c ****     lv_obj_set_size(obj, LV_PCT(100), LV_PCT(100));
 137:Middlewares/lvgl/src/extra/widgets/tileview/lv_tileview.c ****     lv_obj_update_layout(obj);  /*Be sure the size is correct*/
 138:Middlewares/lvgl/src/extra/widgets/tileview/lv_tileview.c ****     lv_obj_set_pos(obj, create_col_id * lv_obj_get_content_width(parent),  create_row_id * lv_obj_g
 139:Middlewares/lvgl/src/extra/widgets/tileview/lv_tileview.c **** 
 140:Middlewares/lvgl/src/extra/widgets/tileview/lv_tileview.c ****     lv_tileview_tile_t * tile = (lv_tileview_tile_t *)obj;
ARM GAS  /tmp/ccBcXzOI.s 			page 5


 141:Middlewares/lvgl/src/extra/widgets/tileview/lv_tileview.c ****     tile->dir = create_dir;
 142:Middlewares/lvgl/src/extra/widgets/tileview/lv_tileview.c **** 
 143:Middlewares/lvgl/src/extra/widgets/tileview/lv_tileview.c ****     if(create_col_id == 0 && create_row_id == 0) {
 144:Middlewares/lvgl/src/extra/widgets/tileview/lv_tileview.c ****         lv_obj_set_scroll_dir(parent, create_dir);
 145:Middlewares/lvgl/src/extra/widgets/tileview/lv_tileview.c ****     }
 146:Middlewares/lvgl/src/extra/widgets/tileview/lv_tileview.c **** }
 147:Middlewares/lvgl/src/extra/widgets/tileview/lv_tileview.c **** 
 148:Middlewares/lvgl/src/extra/widgets/tileview/lv_tileview.c **** static void tileview_event_cb(lv_event_t * e)
 149:Middlewares/lvgl/src/extra/widgets/tileview/lv_tileview.c **** {
  92              		.loc 1 149 1 is_stmt 1 view -0
  93              		.cfi_startproc
  94              		@ args = 0, pretend = 0, frame = 8
  95              		@ frame_needed = 0, uses_anonymous_args = 0
  96              		.loc 1 149 1 is_stmt 0 view .LVU13
  97 0000 2DE9F043 		push	{r4, r5, r6, r7, r8, r9, lr}
  98              	.LCFI1:
  99              		.cfi_def_cfa_offset 28
 100              		.cfi_offset 4, -28
 101              		.cfi_offset 5, -24
 102              		.cfi_offset 6, -20
 103              		.cfi_offset 7, -16
 104              		.cfi_offset 8, -12
 105              		.cfi_offset 9, -8
 106              		.cfi_offset 14, -4
 107 0004 83B0     		sub	sp, sp, #12
 108              	.LCFI2:
 109              		.cfi_def_cfa_offset 40
 110 0006 0446     		mov	r4, r0
 150:Middlewares/lvgl/src/extra/widgets/tileview/lv_tileview.c ****     lv_event_code_t code = lv_event_get_code(e);
 111              		.loc 1 150 5 is_stmt 1 view .LVU14
 112              		.loc 1 150 28 is_stmt 0 view .LVU15
 113 0008 FFF7FEFF 		bl	lv_event_get_code
 114              	.LVL10:
 115              		.loc 1 150 28 view .LVU16
 116 000c 0546     		mov	r5, r0
 117              	.LVL11:
 151:Middlewares/lvgl/src/extra/widgets/tileview/lv_tileview.c ****     lv_obj_t * obj = lv_event_get_target(e);
 118              		.loc 1 151 5 is_stmt 1 view .LVU17
 119              		.loc 1 151 22 is_stmt 0 view .LVU18
 120 000e 2046     		mov	r0, r4
 121 0010 FFF7FEFF 		bl	lv_event_get_target
 122              	.LVL12:
 152:Middlewares/lvgl/src/extra/widgets/tileview/lv_tileview.c ****     lv_tileview_t * tv = (lv_tileview_t *) obj;
 123              		.loc 1 152 5 is_stmt 1 view .LVU19
 153:Middlewares/lvgl/src/extra/widgets/tileview/lv_tileview.c **** 
 154:Middlewares/lvgl/src/extra/widgets/tileview/lv_tileview.c ****     if(code == LV_EVENT_SCROLL_END) {
 124              		.loc 1 154 5 view .LVU20
 125              		.loc 1 154 7 is_stmt 0 view .LVU21
 126 0014 0A2D     		cmp	r5, #10
 127 0016 02D0     		beq	.L14
 128              	.LVL13:
 129              	.L5:
 155:Middlewares/lvgl/src/extra/widgets/tileview/lv_tileview.c ****         lv_coord_t w = lv_obj_get_content_width(obj);
 156:Middlewares/lvgl/src/extra/widgets/tileview/lv_tileview.c ****         lv_coord_t h = lv_obj_get_content_height(obj);
 157:Middlewares/lvgl/src/extra/widgets/tileview/lv_tileview.c **** 
 158:Middlewares/lvgl/src/extra/widgets/tileview/lv_tileview.c ****         lv_point_t scroll_end;
 159:Middlewares/lvgl/src/extra/widgets/tileview/lv_tileview.c ****         lv_obj_get_scroll_end(obj, &scroll_end);
ARM GAS  /tmp/ccBcXzOI.s 			page 6


 160:Middlewares/lvgl/src/extra/widgets/tileview/lv_tileview.c ****         lv_coord_t left = scroll_end.x;
 161:Middlewares/lvgl/src/extra/widgets/tileview/lv_tileview.c ****         lv_coord_t top = scroll_end.y;
 162:Middlewares/lvgl/src/extra/widgets/tileview/lv_tileview.c **** 
 163:Middlewares/lvgl/src/extra/widgets/tileview/lv_tileview.c ****         lv_coord_t tx = ((left + (w / 2)) / w) * w;
 164:Middlewares/lvgl/src/extra/widgets/tileview/lv_tileview.c ****         lv_coord_t ty = ((top + (h / 2)) / h) * h;
 165:Middlewares/lvgl/src/extra/widgets/tileview/lv_tileview.c **** 
 166:Middlewares/lvgl/src/extra/widgets/tileview/lv_tileview.c ****         lv_dir_t dir = LV_DIR_ALL;
 167:Middlewares/lvgl/src/extra/widgets/tileview/lv_tileview.c ****         uint32_t i;
 168:Middlewares/lvgl/src/extra/widgets/tileview/lv_tileview.c ****         for(i = 0; i < lv_obj_get_child_cnt(obj); i++) {
 169:Middlewares/lvgl/src/extra/widgets/tileview/lv_tileview.c ****             lv_obj_t * tile_obj = lv_obj_get_child(obj, i);
 170:Middlewares/lvgl/src/extra/widgets/tileview/lv_tileview.c ****             lv_coord_t x = lv_obj_get_x(tile_obj);
 171:Middlewares/lvgl/src/extra/widgets/tileview/lv_tileview.c ****             lv_coord_t y = lv_obj_get_y(tile_obj);
 172:Middlewares/lvgl/src/extra/widgets/tileview/lv_tileview.c ****             if(x == tx && y == ty) {
 173:Middlewares/lvgl/src/extra/widgets/tileview/lv_tileview.c ****                 lv_tileview_tile_t * tile = (lv_tileview_tile_t *)tile_obj;
 174:Middlewares/lvgl/src/extra/widgets/tileview/lv_tileview.c ****                 tv->tile_act = (lv_obj_t *)tile;
 175:Middlewares/lvgl/src/extra/widgets/tileview/lv_tileview.c ****                 dir = tile->dir;
 176:Middlewares/lvgl/src/extra/widgets/tileview/lv_tileview.c ****                 lv_event_send(obj, LV_EVENT_VALUE_CHANGED, NULL);
 177:Middlewares/lvgl/src/extra/widgets/tileview/lv_tileview.c ****                 break;
 178:Middlewares/lvgl/src/extra/widgets/tileview/lv_tileview.c ****             }
 179:Middlewares/lvgl/src/extra/widgets/tileview/lv_tileview.c ****         }
 180:Middlewares/lvgl/src/extra/widgets/tileview/lv_tileview.c ****         lv_obj_set_scroll_dir(obj, dir);
 181:Middlewares/lvgl/src/extra/widgets/tileview/lv_tileview.c ****     }
 182:Middlewares/lvgl/src/extra/widgets/tileview/lv_tileview.c **** }
 130              		.loc 1 182 1 view .LVU22
 131 0018 03B0     		add	sp, sp, #12
 132              	.LCFI3:
 133              		.cfi_remember_state
 134              		.cfi_def_cfa_offset 28
 135              		@ sp needed
 136 001a BDE8F083 		pop	{r4, r5, r6, r7, r8, r9, pc}
 137              	.LVL14:
 138              	.L14:
 139              	.LCFI4:
 140              		.cfi_restore_state
 141              		.loc 1 182 1 view .LVU23
 142 001e 0446     		mov	r4, r0
 143              	.LVL15:
 144              	.LBB2:
 155:Middlewares/lvgl/src/extra/widgets/tileview/lv_tileview.c ****         lv_coord_t w = lv_obj_get_content_width(obj);
 145              		.loc 1 155 9 is_stmt 1 view .LVU24
 155:Middlewares/lvgl/src/extra/widgets/tileview/lv_tileview.c ****         lv_coord_t w = lv_obj_get_content_width(obj);
 146              		.loc 1 155 24 is_stmt 0 view .LVU25
 147 0020 FFF7FEFF 		bl	lv_obj_get_content_width
 148              	.LVL16:
 155:Middlewares/lvgl/src/extra/widgets/tileview/lv_tileview.c ****         lv_coord_t w = lv_obj_get_content_width(obj);
 149              		.loc 1 155 24 view .LVU26
 150 0024 0646     		mov	r6, r0
 151              	.LVL17:
 156:Middlewares/lvgl/src/extra/widgets/tileview/lv_tileview.c **** 
 152              		.loc 1 156 9 is_stmt 1 view .LVU27
 156:Middlewares/lvgl/src/extra/widgets/tileview/lv_tileview.c **** 
 153              		.loc 1 156 24 is_stmt 0 view .LVU28
 154 0026 2046     		mov	r0, r4
 155 0028 FFF7FEFF 		bl	lv_obj_get_content_height
 156              	.LVL18:
 157 002c 0546     		mov	r5, r0
 158              	.LVL19:
ARM GAS  /tmp/ccBcXzOI.s 			page 7


 158:Middlewares/lvgl/src/extra/widgets/tileview/lv_tileview.c ****         lv_obj_get_scroll_end(obj, &scroll_end);
 159              		.loc 1 158 9 is_stmt 1 view .LVU29
 159:Middlewares/lvgl/src/extra/widgets/tileview/lv_tileview.c ****         lv_coord_t left = scroll_end.x;
 160              		.loc 1 159 9 view .LVU30
 161 002e 01A9     		add	r1, sp, #4
 162 0030 2046     		mov	r0, r4
 163 0032 FFF7FEFF 		bl	lv_obj_get_scroll_end
 164              	.LVL20:
 160:Middlewares/lvgl/src/extra/widgets/tileview/lv_tileview.c ****         lv_coord_t top = scroll_end.y;
 165              		.loc 1 160 9 view .LVU31
 160:Middlewares/lvgl/src/extra/widgets/tileview/lv_tileview.c ****         lv_coord_t top = scroll_end.y;
 166              		.loc 1 160 20 is_stmt 0 view .LVU32
 167 0036 BDF90490 		ldrsh	r9, [sp, #4]
 168              	.LVL21:
 161:Middlewares/lvgl/src/extra/widgets/tileview/lv_tileview.c **** 
 169              		.loc 1 161 9 is_stmt 1 view .LVU33
 161:Middlewares/lvgl/src/extra/widgets/tileview/lv_tileview.c **** 
 170              		.loc 1 161 20 is_stmt 0 view .LVU34
 171 003a BDF90680 		ldrsh	r8, [sp, #6]
 172              	.LVL22:
 163:Middlewares/lvgl/src/extra/widgets/tileview/lv_tileview.c ****         lv_coord_t ty = ((top + (h / 2)) / h) * h;
 173              		.loc 1 163 9 is_stmt 1 view .LVU35
 163:Middlewares/lvgl/src/extra/widgets/tileview/lv_tileview.c ****         lv_coord_t ty = ((top + (h / 2)) / h) * h;
 174              		.loc 1 163 37 is_stmt 0 view .LVU36
 175 003e 3346     		mov	r3, r6
 176 0040 002E     		cmp	r6, #0
 177 0042 2BDB     		blt	.L15
 178              	.L7:
 163:Middlewares/lvgl/src/extra/widgets/tileview/lv_tileview.c ****         lv_coord_t ty = ((top + (h / 2)) / h) * h;
 179              		.loc 1 163 37 view .LVU37
 180 0044 43F34F03 		sbfx	r3, r3, #1, #16
 163:Middlewares/lvgl/src/extra/widgets/tileview/lv_tileview.c ****         lv_coord_t ty = ((top + (h / 2)) / h) * h;
 181              		.loc 1 163 32 view .LVU38
 182 0048 9944     		add	r9, r9, r3
 183              	.LVL23:
 163:Middlewares/lvgl/src/extra/widgets/tileview/lv_tileview.c ****         lv_coord_t ty = ((top + (h / 2)) / h) * h;
 184              		.loc 1 163 43 view .LVU39
 185 004a 99FBF6F9 		sdiv	r9, r9, r6
 163:Middlewares/lvgl/src/extra/widgets/tileview/lv_tileview.c ****         lv_coord_t ty = ((top + (h / 2)) / h) * h;
 186              		.loc 1 163 20 view .LVU40
 187 004e 19FB06F9 		smulbb	r9, r9, r6
 188 0052 0FFA89F9 		sxth	r9, r9
 189              	.LVL24:
 164:Middlewares/lvgl/src/extra/widgets/tileview/lv_tileview.c **** 
 190              		.loc 1 164 9 is_stmt 1 view .LVU41
 164:Middlewares/lvgl/src/extra/widgets/tileview/lv_tileview.c **** 
 191              		.loc 1 164 36 is_stmt 0 view .LVU42
 192 0056 2B46     		mov	r3, r5
 193 0058 002D     		cmp	r5, #0
 194 005a 21DB     		blt	.L16
 195              	.L8:
 196 005c 43F34F03 		sbfx	r3, r3, #1, #16
 164:Middlewares/lvgl/src/extra/widgets/tileview/lv_tileview.c **** 
 197              		.loc 1 164 31 view .LVU43
 198 0060 9844     		add	r8, r8, r3
 199              	.LVL25:
 164:Middlewares/lvgl/src/extra/widgets/tileview/lv_tileview.c **** 
ARM GAS  /tmp/ccBcXzOI.s 			page 8


 200              		.loc 1 164 42 view .LVU44
 201 0062 98FBF5F8 		sdiv	r8, r8, r5
 164:Middlewares/lvgl/src/extra/widgets/tileview/lv_tileview.c **** 
 202              		.loc 1 164 20 view .LVU45
 203 0066 18FB05F8 		smulbb	r8, r8, r5
 204 006a 0FFA88F8 		sxth	r8, r8
 205              	.LVL26:
 166:Middlewares/lvgl/src/extra/widgets/tileview/lv_tileview.c ****         uint32_t i;
 206              		.loc 1 166 9 is_stmt 1 view .LVU46
 167:Middlewares/lvgl/src/extra/widgets/tileview/lv_tileview.c ****         for(i = 0; i < lv_obj_get_child_cnt(obj); i++) {
 207              		.loc 1 167 9 view .LVU47
 168:Middlewares/lvgl/src/extra/widgets/tileview/lv_tileview.c ****             lv_obj_t * tile_obj = lv_obj_get_child(obj, i);
 208              		.loc 1 168 9 view .LVU48
 168:Middlewares/lvgl/src/extra/widgets/tileview/lv_tileview.c ****             lv_obj_t * tile_obj = lv_obj_get_child(obj, i);
 209              		.loc 1 168 15 is_stmt 0 view .LVU49
 210 006e 0026     		movs	r6, #0
 211              	.LVL27:
 212              	.L9:
 168:Middlewares/lvgl/src/extra/widgets/tileview/lv_tileview.c ****             lv_obj_t * tile_obj = lv_obj_get_child(obj, i);
 213              		.loc 1 168 20 is_stmt 1 discriminator 1 view .LVU50
 168:Middlewares/lvgl/src/extra/widgets/tileview/lv_tileview.c ****             lv_obj_t * tile_obj = lv_obj_get_child(obj, i);
 214              		.loc 1 168 24 is_stmt 0 discriminator 1 view .LVU51
 215 0070 2046     		mov	r0, r4
 216 0072 FFF7FEFF 		bl	lv_obj_get_child_cnt
 217              	.LVL28:
 168:Middlewares/lvgl/src/extra/widgets/tileview/lv_tileview.c ****             lv_obj_t * tile_obj = lv_obj_get_child(obj, i);
 218              		.loc 1 168 9 discriminator 1 view .LVU52
 219 0076 B042     		cmp	r0, r6
 220 0078 1DD9     		bls	.L17
 221              	.LBB3:
 169:Middlewares/lvgl/src/extra/widgets/tileview/lv_tileview.c ****             lv_coord_t x = lv_obj_get_x(tile_obj);
 222              		.loc 1 169 13 is_stmt 1 view .LVU53
 169:Middlewares/lvgl/src/extra/widgets/tileview/lv_tileview.c ****             lv_coord_t x = lv_obj_get_x(tile_obj);
 223              		.loc 1 169 35 is_stmt 0 view .LVU54
 224 007a 3146     		mov	r1, r6
 225 007c 2046     		mov	r0, r4
 226 007e FFF7FEFF 		bl	lv_obj_get_child
 227              	.LVL29:
 228 0082 0546     		mov	r5, r0
 229              	.LVL30:
 170:Middlewares/lvgl/src/extra/widgets/tileview/lv_tileview.c ****             lv_coord_t y = lv_obj_get_y(tile_obj);
 230              		.loc 1 170 13 is_stmt 1 view .LVU55
 170:Middlewares/lvgl/src/extra/widgets/tileview/lv_tileview.c ****             lv_coord_t y = lv_obj_get_y(tile_obj);
 231              		.loc 1 170 28 is_stmt 0 view .LVU56
 232 0084 FFF7FEFF 		bl	lv_obj_get_x
 233              	.LVL31:
 170:Middlewares/lvgl/src/extra/widgets/tileview/lv_tileview.c ****             lv_coord_t y = lv_obj_get_y(tile_obj);
 234              		.loc 1 170 28 view .LVU57
 235 0088 0746     		mov	r7, r0
 236              	.LVL32:
 171:Middlewares/lvgl/src/extra/widgets/tileview/lv_tileview.c ****             if(x == tx && y == ty) {
 237              		.loc 1 171 13 is_stmt 1 view .LVU58
 171:Middlewares/lvgl/src/extra/widgets/tileview/lv_tileview.c ****             if(x == tx && y == ty) {
 238              		.loc 1 171 28 is_stmt 0 view .LVU59
 239 008a 2846     		mov	r0, r5
 240 008c FFF7FEFF 		bl	lv_obj_get_y
 241              	.LVL33:
ARM GAS  /tmp/ccBcXzOI.s 			page 9


 172:Middlewares/lvgl/src/extra/widgets/tileview/lv_tileview.c ****                 lv_tileview_tile_t * tile = (lv_tileview_tile_t *)tile_obj;
 242              		.loc 1 172 13 is_stmt 1 view .LVU60
 172:Middlewares/lvgl/src/extra/widgets/tileview/lv_tileview.c ****                 lv_tileview_tile_t * tile = (lv_tileview_tile_t *)tile_obj;
 243              		.loc 1 172 15 is_stmt 0 view .LVU61
 244 0090 B945     		cmp	r9, r7
 245 0092 08BF     		it	eq
 246 0094 8045     		cmpeq	r8, r0
 247 0096 05D0     		beq	.L18
 248              	.LBE3:
 168:Middlewares/lvgl/src/extra/widgets/tileview/lv_tileview.c ****             lv_obj_t * tile_obj = lv_obj_get_child(obj, i);
 249              		.loc 1 168 51 is_stmt 1 discriminator 2 view .LVU62
 168:Middlewares/lvgl/src/extra/widgets/tileview/lv_tileview.c ****             lv_obj_t * tile_obj = lv_obj_get_child(obj, i);
 250              		.loc 1 168 52 is_stmt 0 discriminator 2 view .LVU63
 251 0098 0136     		adds	r6, r6, #1
 252              	.LVL34:
 168:Middlewares/lvgl/src/extra/widgets/tileview/lv_tileview.c ****             lv_obj_t * tile_obj = lv_obj_get_child(obj, i);
 253              		.loc 1 168 52 discriminator 2 view .LVU64
 254 009a E9E7     		b	.L9
 255              	.LVL35:
 256              	.L15:
 163:Middlewares/lvgl/src/extra/widgets/tileview/lv_tileview.c ****         lv_coord_t ty = ((top + (h / 2)) / h) * h;
 257              		.loc 1 163 37 view .LVU65
 258 009c 731C     		adds	r3, r6, #1
 259 009e D1E7     		b	.L7
 260              	.LVL36:
 261              	.L16:
 164:Middlewares/lvgl/src/extra/widgets/tileview/lv_tileview.c **** 
 262              		.loc 1 164 36 view .LVU66
 263 00a0 6B1C     		adds	r3, r5, #1
 264 00a2 DBE7     		b	.L8
 265              	.LVL37:
 266              	.L18:
 267              	.LBB5:
 268              	.LBB4:
 173:Middlewares/lvgl/src/extra/widgets/tileview/lv_tileview.c ****                 tv->tile_act = (lv_obj_t *)tile;
 269              		.loc 1 173 17 is_stmt 1 view .LVU67
 174:Middlewares/lvgl/src/extra/widgets/tileview/lv_tileview.c ****                 dir = tile->dir;
 270              		.loc 1 174 17 view .LVU68
 174:Middlewares/lvgl/src/extra/widgets/tileview/lv_tileview.c ****                 dir = tile->dir;
 271              		.loc 1 174 30 is_stmt 0 view .LVU69
 272 00a4 6562     		str	r5, [r4, #36]
 175:Middlewares/lvgl/src/extra/widgets/tileview/lv_tileview.c ****                 lv_event_send(obj, LV_EVENT_VALUE_CHANGED, NULL);
 273              		.loc 1 175 17 is_stmt 1 view .LVU70
 175:Middlewares/lvgl/src/extra/widgets/tileview/lv_tileview.c ****                 lv_event_send(obj, LV_EVENT_VALUE_CHANGED, NULL);
 274              		.loc 1 175 21 is_stmt 0 view .LVU71
 275 00a6 95F82450 		ldrb	r5, [r5, #36]	@ zero_extendqisi2
 276              	.LVL38:
 176:Middlewares/lvgl/src/extra/widgets/tileview/lv_tileview.c ****                 break;
 277              		.loc 1 176 17 is_stmt 1 view .LVU72
 278 00aa 0022     		movs	r2, #0
 279 00ac 1C21     		movs	r1, #28
 280 00ae 2046     		mov	r0, r4
 281              	.LVL39:
 176:Middlewares/lvgl/src/extra/widgets/tileview/lv_tileview.c ****                 break;
 282              		.loc 1 176 17 is_stmt 0 view .LVU73
 283 00b0 FFF7FEFF 		bl	lv_event_send
 284              	.LVL40:
ARM GAS  /tmp/ccBcXzOI.s 			page 10


 177:Middlewares/lvgl/src/extra/widgets/tileview/lv_tileview.c ****             }
 285              		.loc 1 177 17 is_stmt 1 view .LVU74
 286 00b4 00E0     		b	.L11
 287              	.LVL41:
 288              	.L17:
 177:Middlewares/lvgl/src/extra/widgets/tileview/lv_tileview.c ****             }
 289              		.loc 1 177 17 is_stmt 0 view .LVU75
 290              	.LBE4:
 291              	.LBE5:
 166:Middlewares/lvgl/src/extra/widgets/tileview/lv_tileview.c ****         uint32_t i;
 292              		.loc 1 166 18 view .LVU76
 293 00b6 0F25     		movs	r5, #15
 294              	.LVL42:
 295              	.L11:
 180:Middlewares/lvgl/src/extra/widgets/tileview/lv_tileview.c ****     }
 296              		.loc 1 180 9 is_stmt 1 view .LVU77
 297 00b8 2946     		mov	r1, r5
 298 00ba 2046     		mov	r0, r4
 299 00bc FFF7FEFF 		bl	lv_obj_set_scroll_dir
 300              	.LVL43:
 301              	.LBE2:
 302              		.loc 1 182 1 is_stmt 0 view .LVU78
 303 00c0 AAE7     		b	.L5
 304              		.cfi_endproc
 305              	.LFE154:
 307              		.section	.text.lv_tileview_tile_constructor,"ax",%progbits
 308              		.align	1
 309              		.syntax unified
 310              		.thumb
 311              		.thumb_func
 313              	lv_tileview_tile_constructor:
 314              	.LVL44:
 315              	.LFB153:
 132:Middlewares/lvgl/src/extra/widgets/tileview/lv_tileview.c **** 
 316              		.loc 1 132 1 is_stmt 1 view -0
 317              		.cfi_startproc
 318              		@ args = 0, pretend = 0, frame = 0
 319              		@ frame_needed = 0, uses_anonymous_args = 0
 132:Middlewares/lvgl/src/extra/widgets/tileview/lv_tileview.c **** 
 320              		.loc 1 132 1 is_stmt 0 view .LVU80
 321 0000 F8B5     		push	{r3, r4, r5, r6, r7, lr}
 322              	.LCFI5:
 323              		.cfi_def_cfa_offset 24
 324              		.cfi_offset 3, -24
 325              		.cfi_offset 4, -20
 326              		.cfi_offset 5, -16
 327              		.cfi_offset 6, -12
 328              		.cfi_offset 7, -8
 329              		.cfi_offset 14, -4
 330 0002 0C46     		mov	r4, r1
 134:Middlewares/lvgl/src/extra/widgets/tileview/lv_tileview.c ****     lv_obj_t * parent = lv_obj_get_parent(obj);
 331              		.loc 1 134 5 is_stmt 1 view .LVU81
 135:Middlewares/lvgl/src/extra/widgets/tileview/lv_tileview.c ****     lv_obj_set_size(obj, LV_PCT(100), LV_PCT(100));
 332              		.loc 1 135 5 view .LVU82
 135:Middlewares/lvgl/src/extra/widgets/tileview/lv_tileview.c ****     lv_obj_set_size(obj, LV_PCT(100), LV_PCT(100));
 333              		.loc 1 135 25 is_stmt 0 view .LVU83
 334 0004 0846     		mov	r0, r1
ARM GAS  /tmp/ccBcXzOI.s 			page 11


 335              	.LVL45:
 135:Middlewares/lvgl/src/extra/widgets/tileview/lv_tileview.c ****     lv_obj_set_size(obj, LV_PCT(100), LV_PCT(100));
 336              		.loc 1 135 25 view .LVU84
 337 0006 FFF7FEFF 		bl	lv_obj_get_parent
 338              	.LVL46:
 135:Middlewares/lvgl/src/extra/widgets/tileview/lv_tileview.c ****     lv_obj_set_size(obj, LV_PCT(100), LV_PCT(100));
 339              		.loc 1 135 25 view .LVU85
 340 000a 0646     		mov	r6, r0
 341              	.LVL47:
 136:Middlewares/lvgl/src/extra/widgets/tileview/lv_tileview.c ****     lv_obj_update_layout(obj);  /*Be sure the size is correct*/
 342              		.loc 1 136 5 is_stmt 1 view .LVU86
 343 000c 42F26402 		movw	r2, #8292
 344 0010 1146     		mov	r1, r2
 345 0012 2046     		mov	r0, r4
 346              	.LVL48:
 136:Middlewares/lvgl/src/extra/widgets/tileview/lv_tileview.c ****     lv_obj_update_layout(obj);  /*Be sure the size is correct*/
 347              		.loc 1 136 5 is_stmt 0 view .LVU87
 348 0014 FFF7FEFF 		bl	lv_obj_set_size
 349              	.LVL49:
 137:Middlewares/lvgl/src/extra/widgets/tileview/lv_tileview.c ****     lv_obj_set_pos(obj, create_col_id * lv_obj_get_content_width(parent),  create_row_id * lv_obj_g
 350              		.loc 1 137 5 is_stmt 1 view .LVU88
 351 0018 2046     		mov	r0, r4
 352 001a FFF7FEFF 		bl	lv_obj_update_layout
 353              	.LVL50:
 138:Middlewares/lvgl/src/extra/widgets/tileview/lv_tileview.c **** 
 354              		.loc 1 138 5 view .LVU89
 138:Middlewares/lvgl/src/extra/widgets/tileview/lv_tileview.c **** 
 355              		.loc 1 138 41 is_stmt 0 view .LVU90
 356 001e 3046     		mov	r0, r6
 357 0020 FFF7FEFF 		bl	lv_obj_get_content_width
 358              	.LVL51:
 138:Middlewares/lvgl/src/extra/widgets/tileview/lv_tileview.c **** 
 359              		.loc 1 138 5 view .LVU91
 360 0024 0F4F     		ldr	r7, .L23
 361 0026 3D68     		ldr	r5, [r7]
 362 0028 15FB00F5 		smulbb	r5, r5, r0
 363 002c 2DB2     		sxth	r5, r5
 138:Middlewares/lvgl/src/extra/widgets/tileview/lv_tileview.c **** 
 364              		.loc 1 138 92 view .LVU92
 365 002e 3046     		mov	r0, r6
 366 0030 FFF7FEFF 		bl	lv_obj_get_content_height
 367              	.LVL52:
 138:Middlewares/lvgl/src/extra/widgets/tileview/lv_tileview.c **** 
 368              		.loc 1 138 5 view .LVU93
 369 0034 0C4B     		ldr	r3, .L23+4
 370 0036 1A68     		ldr	r2, [r3]
 371 0038 12FB00F2 		smulbb	r2, r2, r0
 372 003c 12B2     		sxth	r2, r2
 373 003e 2946     		mov	r1, r5
 374 0040 2046     		mov	r0, r4
 375 0042 FFF7FEFF 		bl	lv_obj_set_pos
 376              	.LVL53:
 140:Middlewares/lvgl/src/extra/widgets/tileview/lv_tileview.c ****     tile->dir = create_dir;
 377              		.loc 1 140 5 is_stmt 1 view .LVU94
 141:Middlewares/lvgl/src/extra/widgets/tileview/lv_tileview.c **** 
 378              		.loc 1 141 5 view .LVU95
 141:Middlewares/lvgl/src/extra/widgets/tileview/lv_tileview.c **** 
ARM GAS  /tmp/ccBcXzOI.s 			page 12


 379              		.loc 1 141 15 is_stmt 0 view .LVU96
 380 0046 094B     		ldr	r3, .L23+8
 381 0048 1978     		ldrb	r1, [r3]	@ zero_extendqisi2
 382 004a 84F82410 		strb	r1, [r4, #36]
 143:Middlewares/lvgl/src/extra/widgets/tileview/lv_tileview.c ****         lv_obj_set_scroll_dir(parent, create_dir);
 383              		.loc 1 143 5 is_stmt 1 view .LVU97
 143:Middlewares/lvgl/src/extra/widgets/tileview/lv_tileview.c ****         lv_obj_set_scroll_dir(parent, create_dir);
 384              		.loc 1 143 22 is_stmt 0 view .LVU98
 385 004e 3B68     		ldr	r3, [r7]
 143:Middlewares/lvgl/src/extra/widgets/tileview/lv_tileview.c ****         lv_obj_set_scroll_dir(parent, create_dir);
 386              		.loc 1 143 7 view .LVU99
 387 0050 13B9     		cbnz	r3, .L19
 143:Middlewares/lvgl/src/extra/widgets/tileview/lv_tileview.c ****         lv_obj_set_scroll_dir(parent, create_dir);
 388              		.loc 1 143 44 discriminator 1 view .LVU100
 389 0052 054B     		ldr	r3, .L23+4
 390 0054 1B68     		ldr	r3, [r3]
 143:Middlewares/lvgl/src/extra/widgets/tileview/lv_tileview.c ****         lv_obj_set_scroll_dir(parent, create_dir);
 391              		.loc 1 143 27 discriminator 1 view .LVU101
 392 0056 03B1     		cbz	r3, .L22
 393              	.L19:
 146:Middlewares/lvgl/src/extra/widgets/tileview/lv_tileview.c **** 
 394              		.loc 1 146 1 view .LVU102
 395 0058 F8BD     		pop	{r3, r4, r5, r6, r7, pc}
 396              	.LVL54:
 397              	.L22:
 144:Middlewares/lvgl/src/extra/widgets/tileview/lv_tileview.c ****     }
 398              		.loc 1 144 9 is_stmt 1 view .LVU103
 399 005a 3046     		mov	r0, r6
 400 005c FFF7FEFF 		bl	lv_obj_set_scroll_dir
 401              	.LVL55:
 146:Middlewares/lvgl/src/extra/widgets/tileview/lv_tileview.c **** 
 402              		.loc 1 146 1 is_stmt 0 view .LVU104
 403 0060 FAE7     		b	.L19
 404              	.L24:
 405 0062 00BF     		.align	2
 406              	.L23:
 407 0064 00000000 		.word	.LANCHOR0
 408 0068 00000000 		.word	.LANCHOR1
 409 006c 00000000 		.word	.LANCHOR2
 410              		.cfi_endproc
 411              	.LFE153:
 413              		.section	.text.lv_tileview_create,"ax",%progbits
 414              		.align	1
 415              		.global	lv_tileview_create
 416              		.syntax unified
 417              		.thumb
 418              		.thumb_func
 420              	lv_tileview_create:
 421              	.LVL56:
 422              	.LFB147:
  52:Middlewares/lvgl/src/extra/widgets/tileview/lv_tileview.c ****     LV_LOG_INFO("begin")
 423              		.loc 1 52 1 is_stmt 1 view -0
 424              		.cfi_startproc
 425              		@ args = 0, pretend = 0, frame = 0
 426              		@ frame_needed = 0, uses_anonymous_args = 0
  52:Middlewares/lvgl/src/extra/widgets/tileview/lv_tileview.c ****     LV_LOG_INFO("begin")
 427              		.loc 1 52 1 is_stmt 0 view .LVU106
ARM GAS  /tmp/ccBcXzOI.s 			page 13


 428 0000 10B5     		push	{r4, lr}
 429              	.LCFI6:
 430              		.cfi_def_cfa_offset 8
 431              		.cfi_offset 4, -8
 432              		.cfi_offset 14, -4
 433 0002 0146     		mov	r1, r0
  54:Middlewares/lvgl/src/extra/widgets/tileview/lv_tileview.c ****     lv_obj_class_init_obj(obj);
 434              		.loc 1 54 5 is_stmt 1 view .LVU107
  54:Middlewares/lvgl/src/extra/widgets/tileview/lv_tileview.c ****     lv_obj_class_init_obj(obj);
 435              		.loc 1 54 22 is_stmt 0 view .LVU108
 436 0004 0348     		ldr	r0, .L27
 437              	.LVL57:
  54:Middlewares/lvgl/src/extra/widgets/tileview/lv_tileview.c ****     lv_obj_class_init_obj(obj);
 438              		.loc 1 54 22 view .LVU109
 439 0006 FFF7FEFF 		bl	lv_obj_class_create_obj
 440              	.LVL58:
  54:Middlewares/lvgl/src/extra/widgets/tileview/lv_tileview.c ****     lv_obj_class_init_obj(obj);
 441              		.loc 1 54 22 view .LVU110
 442 000a 0446     		mov	r4, r0
 443              	.LVL59:
  55:Middlewares/lvgl/src/extra/widgets/tileview/lv_tileview.c ****     return obj;
 444              		.loc 1 55 5 is_stmt 1 view .LVU111
 445 000c FFF7FEFF 		bl	lv_obj_class_init_obj
 446              	.LVL60:
  56:Middlewares/lvgl/src/extra/widgets/tileview/lv_tileview.c **** }
 447              		.loc 1 56 5 view .LVU112
  57:Middlewares/lvgl/src/extra/widgets/tileview/lv_tileview.c **** 
 448              		.loc 1 57 1 is_stmt 0 view .LVU113
 449 0010 2046     		mov	r0, r4
 450 0012 10BD     		pop	{r4, pc}
 451              	.LVL61:
 452              	.L28:
  57:Middlewares/lvgl/src/extra/widgets/tileview/lv_tileview.c **** 
 453              		.loc 1 57 1 view .LVU114
 454              		.align	2
 455              	.L27:
 456 0014 00000000 		.word	.LANCHOR3
 457              		.cfi_endproc
 458              	.LFE147:
 460              		.section	.text.lv_tileview_add_tile,"ax",%progbits
 461              		.align	1
 462              		.global	lv_tileview_add_tile
 463              		.syntax unified
 464              		.thumb
 465              		.thumb_func
 467              	lv_tileview_add_tile:
 468              	.LVL62:
 469              	.LFB148:
  64:Middlewares/lvgl/src/extra/widgets/tileview/lv_tileview.c ****     LV_LOG_INFO("begin")
 470              		.loc 1 64 1 is_stmt 1 view -0
 471              		.cfi_startproc
 472              		@ args = 0, pretend = 0, frame = 0
 473              		@ frame_needed = 0, uses_anonymous_args = 0
  64:Middlewares/lvgl/src/extra/widgets/tileview/lv_tileview.c ****     LV_LOG_INFO("begin")
 474              		.loc 1 64 1 is_stmt 0 view .LVU116
 475 0000 10B5     		push	{r4, lr}
 476              	.LCFI7:
ARM GAS  /tmp/ccBcXzOI.s 			page 14


 477              		.cfi_def_cfa_offset 8
 478              		.cfi_offset 4, -8
 479              		.cfi_offset 14, -4
  66:Middlewares/lvgl/src/extra/widgets/tileview/lv_tileview.c ****     create_col_id = col_id;
 480              		.loc 1 66 5 is_stmt 1 view .LVU117
  66:Middlewares/lvgl/src/extra/widgets/tileview/lv_tileview.c ****     create_col_id = col_id;
 481              		.loc 1 66 16 is_stmt 0 view .LVU118
 482 0002 074C     		ldr	r4, .L31
 483 0004 2370     		strb	r3, [r4]
  67:Middlewares/lvgl/src/extra/widgets/tileview/lv_tileview.c ****     create_row_id = row_id;
 484              		.loc 1 67 5 is_stmt 1 view .LVU119
  67:Middlewares/lvgl/src/extra/widgets/tileview/lv_tileview.c ****     create_row_id = row_id;
 485              		.loc 1 67 19 is_stmt 0 view .LVU120
 486 0006 074B     		ldr	r3, .L31+4
 487              	.LVL63:
  67:Middlewares/lvgl/src/extra/widgets/tileview/lv_tileview.c ****     create_row_id = row_id;
 488              		.loc 1 67 19 view .LVU121
 489 0008 1960     		str	r1, [r3]
  68:Middlewares/lvgl/src/extra/widgets/tileview/lv_tileview.c **** 
 490              		.loc 1 68 5 is_stmt 1 view .LVU122
  68:Middlewares/lvgl/src/extra/widgets/tileview/lv_tileview.c **** 
 491              		.loc 1 68 19 is_stmt 0 view .LVU123
 492 000a 074B     		ldr	r3, .L31+8
 493 000c 1A60     		str	r2, [r3]
  70:Middlewares/lvgl/src/extra/widgets/tileview/lv_tileview.c ****     lv_obj_class_init_obj(obj);
 494              		.loc 1 70 5 is_stmt 1 view .LVU124
  70:Middlewares/lvgl/src/extra/widgets/tileview/lv_tileview.c ****     lv_obj_class_init_obj(obj);
 495              		.loc 1 70 22 is_stmt 0 view .LVU125
 496 000e 0146     		mov	r1, r0
 497              	.LVL64:
  70:Middlewares/lvgl/src/extra/widgets/tileview/lv_tileview.c ****     lv_obj_class_init_obj(obj);
 498              		.loc 1 70 22 view .LVU126
 499 0010 0648     		ldr	r0, .L31+12
 500              	.LVL65:
  70:Middlewares/lvgl/src/extra/widgets/tileview/lv_tileview.c ****     lv_obj_class_init_obj(obj);
 501              		.loc 1 70 22 view .LVU127
 502 0012 FFF7FEFF 		bl	lv_obj_class_create_obj
 503              	.LVL66:
  70:Middlewares/lvgl/src/extra/widgets/tileview/lv_tileview.c ****     lv_obj_class_init_obj(obj);
 504              		.loc 1 70 22 view .LVU128
 505 0016 0446     		mov	r4, r0
 506              	.LVL67:
  71:Middlewares/lvgl/src/extra/widgets/tileview/lv_tileview.c ****     return obj;
 507              		.loc 1 71 5 is_stmt 1 view .LVU129
 508 0018 FFF7FEFF 		bl	lv_obj_class_init_obj
 509              	.LVL68:
  72:Middlewares/lvgl/src/extra/widgets/tileview/lv_tileview.c **** }
 510              		.loc 1 72 5 view .LVU130
  73:Middlewares/lvgl/src/extra/widgets/tileview/lv_tileview.c **** 
 511              		.loc 1 73 1 is_stmt 0 view .LVU131
 512 001c 2046     		mov	r0, r4
 513 001e 10BD     		pop	{r4, pc}
 514              	.LVL69:
 515              	.L32:
  73:Middlewares/lvgl/src/extra/widgets/tileview/lv_tileview.c **** 
 516              		.loc 1 73 1 view .LVU132
 517              		.align	2
ARM GAS  /tmp/ccBcXzOI.s 			page 15


 518              	.L31:
 519 0020 00000000 		.word	.LANCHOR2
 520 0024 00000000 		.word	.LANCHOR0
 521 0028 00000000 		.word	.LANCHOR1
 522 002c 00000000 		.word	.LANCHOR4
 523              		.cfi_endproc
 524              	.LFE148:
 526              		.section	.text.lv_obj_set_tile,"ax",%progbits
 527              		.align	1
 528              		.global	lv_obj_set_tile
 529              		.syntax unified
 530              		.thumb
 531              		.thumb_func
 533              	lv_obj_set_tile:
 534              	.LVL70:
 535              	.LFB149:
  76:Middlewares/lvgl/src/extra/widgets/tileview/lv_tileview.c ****     lv_coord_t tx = lv_obj_get_x(tile_obj);
 536              		.loc 1 76 1 is_stmt 1 view -0
 537              		.cfi_startproc
 538              		@ args = 0, pretend = 0, frame = 0
 539              		@ frame_needed = 0, uses_anonymous_args = 0
  76:Middlewares/lvgl/src/extra/widgets/tileview/lv_tileview.c ****     lv_coord_t tx = lv_obj_get_x(tile_obj);
 540              		.loc 1 76 1 is_stmt 0 view .LVU134
 541 0000 2DE9F041 		push	{r4, r5, r6, r7, r8, lr}
 542              	.LCFI8:
 543              		.cfi_def_cfa_offset 24
 544              		.cfi_offset 4, -24
 545              		.cfi_offset 5, -20
 546              		.cfi_offset 6, -16
 547              		.cfi_offset 7, -12
 548              		.cfi_offset 8, -8
 549              		.cfi_offset 14, -4
 550 0004 0546     		mov	r5, r0
 551 0006 0C46     		mov	r4, r1
 552 0008 9046     		mov	r8, r2
  77:Middlewares/lvgl/src/extra/widgets/tileview/lv_tileview.c ****     lv_coord_t ty = lv_obj_get_y(tile_obj);
 553              		.loc 1 77 5 is_stmt 1 view .LVU135
  77:Middlewares/lvgl/src/extra/widgets/tileview/lv_tileview.c ****     lv_coord_t ty = lv_obj_get_y(tile_obj);
 554              		.loc 1 77 21 is_stmt 0 view .LVU136
 555 000a 0846     		mov	r0, r1
 556              	.LVL71:
  77:Middlewares/lvgl/src/extra/widgets/tileview/lv_tileview.c ****     lv_coord_t ty = lv_obj_get_y(tile_obj);
 557              		.loc 1 77 21 view .LVU137
 558 000c FFF7FEFF 		bl	lv_obj_get_x
 559              	.LVL72:
  77:Middlewares/lvgl/src/extra/widgets/tileview/lv_tileview.c ****     lv_coord_t ty = lv_obj_get_y(tile_obj);
 560              		.loc 1 77 21 view .LVU138
 561 0010 0646     		mov	r6, r0
 562              	.LVL73:
  78:Middlewares/lvgl/src/extra/widgets/tileview/lv_tileview.c **** 
 563              		.loc 1 78 5 is_stmt 1 view .LVU139
  78:Middlewares/lvgl/src/extra/widgets/tileview/lv_tileview.c **** 
 564              		.loc 1 78 21 is_stmt 0 view .LVU140
 565 0012 2046     		mov	r0, r4
 566 0014 FFF7FEFF 		bl	lv_obj_get_y
 567              	.LVL74:
 568 0018 0746     		mov	r7, r0
ARM GAS  /tmp/ccBcXzOI.s 			page 16


 569              	.LVL75:
  80:Middlewares/lvgl/src/extra/widgets/tileview/lv_tileview.c ****     lv_tileview_t * tv = (lv_tileview_t *) obj;
 570              		.loc 1 80 5 is_stmt 1 view .LVU141
  81:Middlewares/lvgl/src/extra/widgets/tileview/lv_tileview.c ****     tv->tile_act = (lv_obj_t *)tile;
 571              		.loc 1 81 5 view .LVU142
  82:Middlewares/lvgl/src/extra/widgets/tileview/lv_tileview.c **** 
 572              		.loc 1 82 5 view .LVU143
  82:Middlewares/lvgl/src/extra/widgets/tileview/lv_tileview.c **** 
 573              		.loc 1 82 18 is_stmt 0 view .LVU144
 574 001a 6C62     		str	r4, [r5, #36]
  84:Middlewares/lvgl/src/extra/widgets/tileview/lv_tileview.c ****     lv_obj_scroll_to(obj, tx, ty, anim_en);
 575              		.loc 1 84 5 is_stmt 1 view .LVU145
 576 001c 94F82410 		ldrb	r1, [r4, #36]	@ zero_extendqisi2
 577 0020 2846     		mov	r0, r5
 578 0022 FFF7FEFF 		bl	lv_obj_set_scroll_dir
 579              	.LVL76:
  85:Middlewares/lvgl/src/extra/widgets/tileview/lv_tileview.c **** }
 580              		.loc 1 85 5 view .LVU146
 581 0026 4346     		mov	r3, r8
 582 0028 3A46     		mov	r2, r7
 583 002a 3146     		mov	r1, r6
 584 002c 2846     		mov	r0, r5
 585 002e FFF7FEFF 		bl	lv_obj_scroll_to
 586              	.LVL77:
  86:Middlewares/lvgl/src/extra/widgets/tileview/lv_tileview.c **** 
 587              		.loc 1 86 1 is_stmt 0 view .LVU147
 588 0032 BDE8F081 		pop	{r4, r5, r6, r7, r8, pc}
  86:Middlewares/lvgl/src/extra/widgets/tileview/lv_tileview.c **** 
 589              		.loc 1 86 1 view .LVU148
 590              		.cfi_endproc
 591              	.LFE149:
 593              		.section	.text.lv_obj_set_tile_id,"ax",%progbits
 594              		.align	1
 595              		.global	lv_obj_set_tile_id
 596              		.syntax unified
 597              		.thumb
 598              		.thumb_func
 600              	lv_obj_set_tile_id:
 601              	.LVL78:
 602              	.LFB150:
  89:Middlewares/lvgl/src/extra/widgets/tileview/lv_tileview.c ****     lv_coord_t w = lv_obj_get_content_width(tv);
 603              		.loc 1 89 1 is_stmt 1 view -0
 604              		.cfi_startproc
 605              		@ args = 0, pretend = 0, frame = 0
 606              		@ frame_needed = 0, uses_anonymous_args = 0
  89:Middlewares/lvgl/src/extra/widgets/tileview/lv_tileview.c ****     lv_coord_t w = lv_obj_get_content_width(tv);
 607              		.loc 1 89 1 is_stmt 0 view .LVU150
 608 0000 2DE9F047 		push	{r4, r5, r6, r7, r8, r9, r10, lr}
 609              	.LCFI9:
 610              		.cfi_def_cfa_offset 32
 611              		.cfi_offset 4, -32
 612              		.cfi_offset 5, -28
 613              		.cfi_offset 6, -24
 614              		.cfi_offset 7, -20
 615              		.cfi_offset 8, -16
 616              		.cfi_offset 9, -12
 617              		.cfi_offset 10, -8
ARM GAS  /tmp/ccBcXzOI.s 			page 17


 618              		.cfi_offset 14, -4
 619 0004 0746     		mov	r7, r0
 620 0006 0C46     		mov	r4, r1
 621 0008 9146     		mov	r9, r2
 622 000a 9A46     		mov	r10, r3
  90:Middlewares/lvgl/src/extra/widgets/tileview/lv_tileview.c ****     lv_coord_t h = lv_obj_get_content_height(tv);
 623              		.loc 1 90 5 is_stmt 1 view .LVU151
  90:Middlewares/lvgl/src/extra/widgets/tileview/lv_tileview.c ****     lv_coord_t h = lv_obj_get_content_height(tv);
 624              		.loc 1 90 20 is_stmt 0 view .LVU152
 625 000c FFF7FEFF 		bl	lv_obj_get_content_width
 626              	.LVL79:
  90:Middlewares/lvgl/src/extra/widgets/tileview/lv_tileview.c ****     lv_coord_t h = lv_obj_get_content_height(tv);
 627              		.loc 1 90 20 view .LVU153
 628 0010 8046     		mov	r8, r0
 629              	.LVL80:
  91:Middlewares/lvgl/src/extra/widgets/tileview/lv_tileview.c **** 
 630              		.loc 1 91 5 is_stmt 1 view .LVU154
  91:Middlewares/lvgl/src/extra/widgets/tileview/lv_tileview.c **** 
 631              		.loc 1 91 20 is_stmt 0 view .LVU155
 632 0012 3846     		mov	r0, r7
 633 0014 FFF7FEFF 		bl	lv_obj_get_content_height
 634              	.LVL81:
  93:Middlewares/lvgl/src/extra/widgets/tileview/lv_tileview.c ****     lv_coord_t ty = row_id * h;
 635              		.loc 1 93 5 is_stmt 1 view .LVU156
  93:Middlewares/lvgl/src/extra/widgets/tileview/lv_tileview.c ****     lv_coord_t ty = row_id * h;
 636              		.loc 1 93 16 is_stmt 0 view .LVU157
 637 0018 18FB04F8 		smulbb	r8, r8, r4
 638              	.LVL82:
  93:Middlewares/lvgl/src/extra/widgets/tileview/lv_tileview.c ****     lv_coord_t ty = row_id * h;
 639              		.loc 1 93 16 view .LVU158
 640 001c 0FFA88F8 		sxth	r8, r8
 641              	.LVL83:
  94:Middlewares/lvgl/src/extra/widgets/tileview/lv_tileview.c **** 
 642              		.loc 1 94 5 is_stmt 1 view .LVU159
  94:Middlewares/lvgl/src/extra/widgets/tileview/lv_tileview.c **** 
 643              		.loc 1 94 16 is_stmt 0 view .LVU160
 644 0020 10FB09F9 		smulbb	r9, r0, r9
 645              	.LVL84:
  94:Middlewares/lvgl/src/extra/widgets/tileview/lv_tileview.c **** 
 646              		.loc 1 94 16 view .LVU161
 647 0024 0FFA89F9 		sxth	r9, r9
 648              	.LVL85:
  96:Middlewares/lvgl/src/extra/widgets/tileview/lv_tileview.c ****     for(i = 0; i < lv_obj_get_child_cnt(tv); i++) {
 649              		.loc 1 96 5 is_stmt 1 view .LVU162
  97:Middlewares/lvgl/src/extra/widgets/tileview/lv_tileview.c ****         lv_obj_t * tile_obj = lv_obj_get_child(tv, i);
 650              		.loc 1 97 5 view .LVU163
  97:Middlewares/lvgl/src/extra/widgets/tileview/lv_tileview.c ****         lv_obj_t * tile_obj = lv_obj_get_child(tv, i);
 651              		.loc 1 97 11 is_stmt 0 view .LVU164
 652 0028 0024     		movs	r4, #0
 653              	.LVL86:
  97:Middlewares/lvgl/src/extra/widgets/tileview/lv_tileview.c ****         lv_obj_t * tile_obj = lv_obj_get_child(tv, i);
 654              		.loc 1 97 5 view .LVU165
 655 002a 00E0     		b	.L36
 656              	.LVL87:
 657              	.L37:
  97:Middlewares/lvgl/src/extra/widgets/tileview/lv_tileview.c ****         lv_obj_t * tile_obj = lv_obj_get_child(tv, i);
 658              		.loc 1 97 46 is_stmt 1 discriminator 2 view .LVU166
ARM GAS  /tmp/ccBcXzOI.s 			page 18


  97:Middlewares/lvgl/src/extra/widgets/tileview/lv_tileview.c ****         lv_obj_t * tile_obj = lv_obj_get_child(tv, i);
 659              		.loc 1 97 47 is_stmt 0 discriminator 2 view .LVU167
 660 002c 0134     		adds	r4, r4, #1
 661              	.LVL88:
 662              	.L36:
  97:Middlewares/lvgl/src/extra/widgets/tileview/lv_tileview.c ****         lv_obj_t * tile_obj = lv_obj_get_child(tv, i);
 663              		.loc 1 97 16 is_stmt 1 discriminator 1 view .LVU168
  97:Middlewares/lvgl/src/extra/widgets/tileview/lv_tileview.c ****         lv_obj_t * tile_obj = lv_obj_get_child(tv, i);
 664              		.loc 1 97 20 is_stmt 0 discriminator 1 view .LVU169
 665 002e 3846     		mov	r0, r7
 666 0030 FFF7FEFF 		bl	lv_obj_get_child_cnt
 667              	.LVL89:
  97:Middlewares/lvgl/src/extra/widgets/tileview/lv_tileview.c ****         lv_obj_t * tile_obj = lv_obj_get_child(tv, i);
 668              		.loc 1 97 5 discriminator 1 view .LVU170
 669 0034 A042     		cmp	r0, r4
 670 0036 13D9     		bls	.L35
 671              	.LBB6:
  98:Middlewares/lvgl/src/extra/widgets/tileview/lv_tileview.c ****         lv_coord_t x = lv_obj_get_x(tile_obj);
 672              		.loc 1 98 9 is_stmt 1 view .LVU171
  98:Middlewares/lvgl/src/extra/widgets/tileview/lv_tileview.c ****         lv_coord_t x = lv_obj_get_x(tile_obj);
 673              		.loc 1 98 31 is_stmt 0 view .LVU172
 674 0038 2146     		mov	r1, r4
 675 003a 3846     		mov	r0, r7
 676 003c FFF7FEFF 		bl	lv_obj_get_child
 677              	.LVL90:
 678 0040 0546     		mov	r5, r0
 679              	.LVL91:
  99:Middlewares/lvgl/src/extra/widgets/tileview/lv_tileview.c ****         lv_coord_t y = lv_obj_get_y(tile_obj);
 680              		.loc 1 99 9 is_stmt 1 view .LVU173
  99:Middlewares/lvgl/src/extra/widgets/tileview/lv_tileview.c ****         lv_coord_t y = lv_obj_get_y(tile_obj);
 681              		.loc 1 99 24 is_stmt 0 view .LVU174
 682 0042 FFF7FEFF 		bl	lv_obj_get_x
 683              	.LVL92:
  99:Middlewares/lvgl/src/extra/widgets/tileview/lv_tileview.c ****         lv_coord_t y = lv_obj_get_y(tile_obj);
 684              		.loc 1 99 24 view .LVU175
 685 0046 0646     		mov	r6, r0
 686              	.LVL93:
 100:Middlewares/lvgl/src/extra/widgets/tileview/lv_tileview.c ****         if(x == tx && y == ty) {
 687              		.loc 1 100 9 is_stmt 1 view .LVU176
 100:Middlewares/lvgl/src/extra/widgets/tileview/lv_tileview.c ****         if(x == tx && y == ty) {
 688              		.loc 1 100 24 is_stmt 0 view .LVU177
 689 0048 2846     		mov	r0, r5
 690 004a FFF7FEFF 		bl	lv_obj_get_y
 691              	.LVL94:
 101:Middlewares/lvgl/src/extra/widgets/tileview/lv_tileview.c ****             lv_obj_set_tile(tv, tile_obj, anim_en);
 692              		.loc 1 101 9 is_stmt 1 view .LVU178
 101:Middlewares/lvgl/src/extra/widgets/tileview/lv_tileview.c ****             lv_obj_set_tile(tv, tile_obj, anim_en);
 693              		.loc 1 101 11 is_stmt 0 view .LVU179
 694 004e B045     		cmp	r8, r6
 695 0050 08BF     		it	eq
 696 0052 8145     		cmpeq	r9, r0
 697 0054 EAD1     		bne	.L37
 102:Middlewares/lvgl/src/extra/widgets/tileview/lv_tileview.c ****             return;
 698              		.loc 1 102 13 is_stmt 1 view .LVU180
 699 0056 5246     		mov	r2, r10
 700 0058 2946     		mov	r1, r5
 701 005a 3846     		mov	r0, r7
ARM GAS  /tmp/ccBcXzOI.s 			page 19


 702              	.LVL95:
 102:Middlewares/lvgl/src/extra/widgets/tileview/lv_tileview.c ****             return;
 703              		.loc 1 102 13 is_stmt 0 view .LVU181
 704 005c FFF7FEFF 		bl	lv_obj_set_tile
 705              	.LVL96:
 103:Middlewares/lvgl/src/extra/widgets/tileview/lv_tileview.c ****         }
 706              		.loc 1 103 13 is_stmt 1 view .LVU182
 707              	.L35:
 103:Middlewares/lvgl/src/extra/widgets/tileview/lv_tileview.c ****         }
 708              		.loc 1 103 13 is_stmt 0 view .LVU183
 709              	.LBE6:
 108:Middlewares/lvgl/src/extra/widgets/tileview/lv_tileview.c **** 
 710              		.loc 1 108 1 view .LVU184
 711 0060 BDE8F087 		pop	{r4, r5, r6, r7, r8, r9, r10, pc}
 108:Middlewares/lvgl/src/extra/widgets/tileview/lv_tileview.c **** 
 712              		.loc 1 108 1 view .LVU185
 713              		.cfi_endproc
 714              	.LFE150:
 716              		.section	.text.lv_tileview_get_tile_act,"ax",%progbits
 717              		.align	1
 718              		.global	lv_tileview_get_tile_act
 719              		.syntax unified
 720              		.thumb
 721              		.thumb_func
 723              	lv_tileview_get_tile_act:
 724              	.LVL97:
 725              	.LFB151:
 111:Middlewares/lvgl/src/extra/widgets/tileview/lv_tileview.c ****     lv_tileview_t * tv = (lv_tileview_t *) obj;
 726              		.loc 1 111 1 is_stmt 1 view -0
 727              		.cfi_startproc
 728              		@ args = 0, pretend = 0, frame = 0
 729              		@ frame_needed = 0, uses_anonymous_args = 0
 730              		@ link register save eliminated.
 112:Middlewares/lvgl/src/extra/widgets/tileview/lv_tileview.c ****     return tv->tile_act;
 731              		.loc 1 112 5 view .LVU187
 113:Middlewares/lvgl/src/extra/widgets/tileview/lv_tileview.c **** }
 732              		.loc 1 113 5 view .LVU188
 114:Middlewares/lvgl/src/extra/widgets/tileview/lv_tileview.c **** 
 733              		.loc 1 114 1 is_stmt 0 view .LVU189
 734 0000 406A     		ldr	r0, [r0, #36]
 735              	.LVL98:
 114:Middlewares/lvgl/src/extra/widgets/tileview/lv_tileview.c **** 
 736              		.loc 1 114 1 view .LVU190
 737 0002 7047     		bx	lr
 738              		.cfi_endproc
 739              	.LFE151:
 741              		.global	lv_tileview_tile_class
 742              		.global	lv_tileview_class
 743              		.section	.bss.create_col_id,"aw",%nobits
 744              		.align	2
 745              		.set	.LANCHOR0,. + 0
 748              	create_col_id:
 749 0000 00000000 		.space	4
 750              		.section	.bss.create_dir,"aw",%nobits
 751              		.set	.LANCHOR2,. + 0
 754              	create_dir:
 755 0000 00       		.space	1
ARM GAS  /tmp/ccBcXzOI.s 			page 20


 756              		.section	.bss.create_row_id,"aw",%nobits
 757              		.align	2
 758              		.set	.LANCHOR1,. + 0
 761              	create_row_id:
 762 0000 00000000 		.space	4
 763              		.section	.rodata.lv_tileview_class,"a"
 764              		.align	2
 765              		.set	.LANCHOR3,. + 0
 768              	lv_tileview_class:
 769 0000 00000000 		.word	lv_obj_class
 770 0004 00000000 		.word	lv_tileview_constructor
 771 0008 00000000 		.space	16
 771      00000000 
 771      00000000 
 771      00000000 
 772 0018 80       		.byte	128
 773 0019 02       		.byte	2
 774 001a 00       		.byte	0
 775 001b 00       		.space	1
 776              		.section	.rodata.lv_tileview_tile_class,"a"
 777              		.align	2
 778              		.set	.LANCHOR4,. + 0
 781              	lv_tileview_tile_class:
 782 0000 00000000 		.word	lv_obj_class
 783 0004 00000000 		.word	lv_tileview_tile_constructor
 784 0008 00000000 		.space	16
 784      00000000 
 784      00000000 
 784      00000000 
 785 0018 80       		.byte	128
 786 0019 02       		.byte	2
 787 001a 00       		.byte	0
 788 001b 00       		.space	1
 789              		.text
 790              	.Letext0:
 791              		.file 2 "/home/akinya/gcc-arm-none-eabi/arm-none-eabi/include/machine/_default_types.h"
 792              		.file 3 "/home/akinya/gcc-arm-none-eabi/arm-none-eabi/include/sys/_stdint.h"
 793              		.file 4 "Middlewares/lvgl/src/extra/widgets/tileview/../../../core/../misc/../font/../misc/lv_area
 794              		.file 5 "Middlewares/lvgl/src/extra/widgets/tileview/../../../core/../misc/lv_color.h"
 795              		.file 6 "Middlewares/lvgl/src/extra/widgets/tileview/../../../core/../misc/lv_anim.h"
 796              		.file 7 "Middlewares/lvgl/src/extra/widgets/tileview/../../../core/../misc/lv_style.h"
 797              		.file 8 "Middlewares/lvgl/src/extra/widgets/tileview/../../../core/../hal/../misc/lv_ll.h"
 798              		.file 9 "Middlewares/lvgl/src/extra/widgets/tileview/../../../core/lv_obj.h"
 799              		.file 10 "Middlewares/lvgl/src/extra/widgets/tileview/../../../core/lv_group.h"
 800              		.file 11 "Middlewares/lvgl/src/extra/widgets/tileview/../../../core/lv_obj_scroll.h"
 801              		.file 12 "Middlewares/lvgl/src/extra/widgets/tileview/../../../core/lv_obj_style.h"
 802              		.file 13 "Middlewares/lvgl/src/extra/widgets/tileview/../../../core/lv_obj_class.h"
 803              		.file 14 "Middlewares/lvgl/src/extra/widgets/tileview/../../../core/lv_event.h"
 804              		.file 15 "Middlewares/lvgl/src/extra/widgets/tileview/lv_tileview.h"
 805              		.file 16 "Middlewares/lvgl/src/extra/widgets/tileview/../../../core/lv_obj_tree.h"
 806              		.file 17 "Middlewares/lvgl/src/extra/widgets/tileview/../../../core/lv_obj_pos.h"
ARM GAS  /tmp/ccBcXzOI.s 			page 21


DEFINED SYMBOLS
                            *ABS*:0000000000000000 lv_tileview.c
     /tmp/ccBcXzOI.s:19     .text.lv_tileview_constructor:0000000000000000 $t
     /tmp/ccBcXzOI.s:24     .text.lv_tileview_constructor:0000000000000000 lv_tileview_constructor
     /tmp/ccBcXzOI.s:79     .text.lv_tileview_constructor:0000000000000038 $d
     /tmp/ccBcXzOI.s:89     .text.tileview_event_cb:0000000000000000 tileview_event_cb
     /tmp/ccBcXzOI.s:84     .text.tileview_event_cb:0000000000000000 $t
     /tmp/ccBcXzOI.s:308    .text.lv_tileview_tile_constructor:0000000000000000 $t
     /tmp/ccBcXzOI.s:313    .text.lv_tileview_tile_constructor:0000000000000000 lv_tileview_tile_constructor
     /tmp/ccBcXzOI.s:407    .text.lv_tileview_tile_constructor:0000000000000064 $d
     /tmp/ccBcXzOI.s:414    .text.lv_tileview_create:0000000000000000 $t
     /tmp/ccBcXzOI.s:420    .text.lv_tileview_create:0000000000000000 lv_tileview_create
     /tmp/ccBcXzOI.s:456    .text.lv_tileview_create:0000000000000014 $d
     /tmp/ccBcXzOI.s:461    .text.lv_tileview_add_tile:0000000000000000 $t
     /tmp/ccBcXzOI.s:467    .text.lv_tileview_add_tile:0000000000000000 lv_tileview_add_tile
     /tmp/ccBcXzOI.s:519    .text.lv_tileview_add_tile:0000000000000020 $d
     /tmp/ccBcXzOI.s:527    .text.lv_obj_set_tile:0000000000000000 $t
     /tmp/ccBcXzOI.s:533    .text.lv_obj_set_tile:0000000000000000 lv_obj_set_tile
     /tmp/ccBcXzOI.s:594    .text.lv_obj_set_tile_id:0000000000000000 $t
     /tmp/ccBcXzOI.s:600    .text.lv_obj_set_tile_id:0000000000000000 lv_obj_set_tile_id
     /tmp/ccBcXzOI.s:717    .text.lv_tileview_get_tile_act:0000000000000000 $t
     /tmp/ccBcXzOI.s:723    .text.lv_tileview_get_tile_act:0000000000000000 lv_tileview_get_tile_act
     /tmp/ccBcXzOI.s:781    .rodata.lv_tileview_tile_class:0000000000000000 lv_tileview_tile_class
     /tmp/ccBcXzOI.s:768    .rodata.lv_tileview_class:0000000000000000 lv_tileview_class
     /tmp/ccBcXzOI.s:744    .bss.create_col_id:0000000000000000 $d
     /tmp/ccBcXzOI.s:748    .bss.create_col_id:0000000000000000 create_col_id
     /tmp/ccBcXzOI.s:754    .bss.create_dir:0000000000000000 create_dir
     /tmp/ccBcXzOI.s:755    .bss.create_dir:0000000000000000 $d
     /tmp/ccBcXzOI.s:757    .bss.create_row_id:0000000000000000 $d
     /tmp/ccBcXzOI.s:761    .bss.create_row_id:0000000000000000 create_row_id
     /tmp/ccBcXzOI.s:764    .rodata.lv_tileview_class:0000000000000000 $d
     /tmp/ccBcXzOI.s:777    .rodata.lv_tileview_tile_class:0000000000000000 $d

UNDEFINED SYMBOLS
lv_obj_set_size
lv_obj_add_event_cb
lv_obj_add_flag
lv_obj_set_scroll_snap_x
lv_obj_set_scroll_snap_y
lv_event_get_code
lv_event_get_target
lv_obj_get_content_width
lv_obj_get_content_height
lv_obj_get_scroll_end
lv_obj_get_child_cnt
lv_obj_get_child
lv_obj_get_x
lv_obj_get_y
lv_event_send
lv_obj_set_scroll_dir
lv_obj_get_parent
lv_obj_update_layout
lv_obj_set_pos
lv_obj_class_create_obj
lv_obj_class_init_obj
lv_obj_scroll_to
lv_obj_class
ARM GAS  /tmp/ccBcXzOI.s 			page 22


