ARM GAS  /tmp/ccJnAI63.s 			page 1


   1              		.cpu cortex-m7
   2              		.arch armv7e-m
   3              		.fpu fpv5-d16
   4              		.eabi_attribute 28, 1
   5              		.eabi_attribute 20, 1
   6              		.eabi_attribute 21, 1
   7              		.eabi_attribute 23, 3
   8              		.eabi_attribute 24, 1
   9              		.eabi_attribute 25, 1
  10              		.eabi_attribute 26, 1
  11              		.eabi_attribute 30, 1
  12              		.eabi_attribute 34, 1
  13              		.eabi_attribute 18, 4
  14              		.file	"lv_table.c"
  15              		.text
  16              	.Ltext0:
  17              		.cfi_sections	.debug_frame
  18              		.section	.text.get_row_height,"ax",%progbits
  19              		.align	1
  20              		.syntax unified
  21              		.thumb
  22              		.thumb_func
  24              	get_row_height:
  25              	.LVL0:
  26              	.LFB166:
  27              		.file 1 "Middlewares/lvgl/src/widgets/lv_table.c"
   1:Middlewares/lvgl/src/widgets/lv_table.c **** /**
   2:Middlewares/lvgl/src/widgets/lv_table.c ****  * @file lv_table.c
   3:Middlewares/lvgl/src/widgets/lv_table.c ****  *
   4:Middlewares/lvgl/src/widgets/lv_table.c ****  */
   5:Middlewares/lvgl/src/widgets/lv_table.c **** 
   6:Middlewares/lvgl/src/widgets/lv_table.c **** /*********************
   7:Middlewares/lvgl/src/widgets/lv_table.c ****  *      INCLUDES
   8:Middlewares/lvgl/src/widgets/lv_table.c ****  *********************/
   9:Middlewares/lvgl/src/widgets/lv_table.c **** #include "lv_table.h"
  10:Middlewares/lvgl/src/widgets/lv_table.c **** #if LV_USE_TABLE != 0
  11:Middlewares/lvgl/src/widgets/lv_table.c **** 
  12:Middlewares/lvgl/src/widgets/lv_table.c **** #include "../core/lv_indev.h"
  13:Middlewares/lvgl/src/widgets/lv_table.c **** #include "../misc/lv_assert.h"
  14:Middlewares/lvgl/src/widgets/lv_table.c **** #include "../misc/lv_txt.h"
  15:Middlewares/lvgl/src/widgets/lv_table.c **** #include "../misc/lv_txt_ap.h"
  16:Middlewares/lvgl/src/widgets/lv_table.c **** #include "../misc/lv_math.h"
  17:Middlewares/lvgl/src/widgets/lv_table.c **** #include "../misc/lv_printf.h"
  18:Middlewares/lvgl/src/widgets/lv_table.c **** #include "../draw/lv_draw.h"
  19:Middlewares/lvgl/src/widgets/lv_table.c **** 
  20:Middlewares/lvgl/src/widgets/lv_table.c **** /*********************
  21:Middlewares/lvgl/src/widgets/lv_table.c ****  *      DEFINES
  22:Middlewares/lvgl/src/widgets/lv_table.c ****  *********************/
  23:Middlewares/lvgl/src/widgets/lv_table.c **** #define MY_CLASS &lv_table_class
  24:Middlewares/lvgl/src/widgets/lv_table.c **** 
  25:Middlewares/lvgl/src/widgets/lv_table.c **** /**********************
  26:Middlewares/lvgl/src/widgets/lv_table.c ****  *      TYPEDEFS
  27:Middlewares/lvgl/src/widgets/lv_table.c ****  **********************/
  28:Middlewares/lvgl/src/widgets/lv_table.c **** 
  29:Middlewares/lvgl/src/widgets/lv_table.c **** /**********************
  30:Middlewares/lvgl/src/widgets/lv_table.c ****  *  STATIC PROTOTYPES
  31:Middlewares/lvgl/src/widgets/lv_table.c ****  **********************/
ARM GAS  /tmp/ccJnAI63.s 			page 2


  32:Middlewares/lvgl/src/widgets/lv_table.c **** static void lv_table_constructor(const lv_obj_class_t * class_p, lv_obj_t * obj);
  33:Middlewares/lvgl/src/widgets/lv_table.c **** static void lv_table_destructor(const lv_obj_class_t * class_p, lv_obj_t * obj);
  34:Middlewares/lvgl/src/widgets/lv_table.c **** static void lv_table_event(const lv_obj_class_t * class_p, lv_event_t * e);
  35:Middlewares/lvgl/src/widgets/lv_table.c **** static void draw_main(lv_event_t * e);
  36:Middlewares/lvgl/src/widgets/lv_table.c **** static lv_coord_t get_row_height(lv_obj_t * obj, uint16_t row_id, const lv_font_t * font,
  37:Middlewares/lvgl/src/widgets/lv_table.c ****                                  lv_coord_t letter_space, lv_coord_t line_space,
  38:Middlewares/lvgl/src/widgets/lv_table.c ****                                  lv_coord_t cell_left, lv_coord_t cell_right, lv_coord_t cell_top, 
  39:Middlewares/lvgl/src/widgets/lv_table.c **** static void refr_size(lv_obj_t * obj, uint32_t strat_row);
  40:Middlewares/lvgl/src/widgets/lv_table.c **** static lv_res_t get_pressed_cell(lv_obj_t * obj, uint16_t * row, uint16_t * col);
  41:Middlewares/lvgl/src/widgets/lv_table.c **** 
  42:Middlewares/lvgl/src/widgets/lv_table.c **** /**********************
  43:Middlewares/lvgl/src/widgets/lv_table.c ****  *  STATIC VARIABLES
  44:Middlewares/lvgl/src/widgets/lv_table.c ****  **********************/
  45:Middlewares/lvgl/src/widgets/lv_table.c **** const lv_obj_class_t lv_table_class  = {
  46:Middlewares/lvgl/src/widgets/lv_table.c ****     .constructor_cb = lv_table_constructor,
  47:Middlewares/lvgl/src/widgets/lv_table.c ****     .destructor_cb = lv_table_destructor,
  48:Middlewares/lvgl/src/widgets/lv_table.c ****     .event_cb = lv_table_event,
  49:Middlewares/lvgl/src/widgets/lv_table.c ****     .width_def = LV_SIZE_CONTENT,
  50:Middlewares/lvgl/src/widgets/lv_table.c ****     .height_def = LV_SIZE_CONTENT,
  51:Middlewares/lvgl/src/widgets/lv_table.c ****     .base_class = &lv_obj_class,
  52:Middlewares/lvgl/src/widgets/lv_table.c ****     .editable = LV_OBJ_CLASS_EDITABLE_TRUE,
  53:Middlewares/lvgl/src/widgets/lv_table.c ****     .group_def = LV_OBJ_CLASS_GROUP_DEF_TRUE,
  54:Middlewares/lvgl/src/widgets/lv_table.c ****     .instance_size = sizeof(lv_table_t),
  55:Middlewares/lvgl/src/widgets/lv_table.c **** };
  56:Middlewares/lvgl/src/widgets/lv_table.c **** /**********************
  57:Middlewares/lvgl/src/widgets/lv_table.c ****  *      MACROS
  58:Middlewares/lvgl/src/widgets/lv_table.c ****  **********************/
  59:Middlewares/lvgl/src/widgets/lv_table.c **** 
  60:Middlewares/lvgl/src/widgets/lv_table.c **** /**********************
  61:Middlewares/lvgl/src/widgets/lv_table.c ****  *   GLOBAL FUNCTIONS
  62:Middlewares/lvgl/src/widgets/lv_table.c ****  **********************/
  63:Middlewares/lvgl/src/widgets/lv_table.c **** 
  64:Middlewares/lvgl/src/widgets/lv_table.c **** lv_obj_t * lv_table_create(lv_obj_t * parent)
  65:Middlewares/lvgl/src/widgets/lv_table.c **** {
  66:Middlewares/lvgl/src/widgets/lv_table.c ****     LV_LOG_INFO("begin")
  67:Middlewares/lvgl/src/widgets/lv_table.c ****     lv_obj_t * obj = lv_obj_class_create_obj(MY_CLASS, parent);
  68:Middlewares/lvgl/src/widgets/lv_table.c ****     lv_obj_class_init_obj(obj);
  69:Middlewares/lvgl/src/widgets/lv_table.c ****     return obj;
  70:Middlewares/lvgl/src/widgets/lv_table.c **** }
  71:Middlewares/lvgl/src/widgets/lv_table.c **** 
  72:Middlewares/lvgl/src/widgets/lv_table.c **** /*=====================
  73:Middlewares/lvgl/src/widgets/lv_table.c ****  * Setter functions
  74:Middlewares/lvgl/src/widgets/lv_table.c ****  *====================*/
  75:Middlewares/lvgl/src/widgets/lv_table.c **** 
  76:Middlewares/lvgl/src/widgets/lv_table.c **** void lv_table_set_cell_value(lv_obj_t * obj, uint16_t row, uint16_t col, const char * txt)
  77:Middlewares/lvgl/src/widgets/lv_table.c **** {
  78:Middlewares/lvgl/src/widgets/lv_table.c ****     LV_ASSERT_OBJ(obj, MY_CLASS);
  79:Middlewares/lvgl/src/widgets/lv_table.c ****     LV_ASSERT_NULL(txt);
  80:Middlewares/lvgl/src/widgets/lv_table.c **** 
  81:Middlewares/lvgl/src/widgets/lv_table.c ****     lv_table_t * table = (lv_table_t *)obj;
  82:Middlewares/lvgl/src/widgets/lv_table.c **** 
  83:Middlewares/lvgl/src/widgets/lv_table.c ****     /*Auto expand*/
  84:Middlewares/lvgl/src/widgets/lv_table.c ****     if(col >= table->col_cnt) lv_table_set_col_cnt(obj, col + 1);
  85:Middlewares/lvgl/src/widgets/lv_table.c ****     if(row >= table->row_cnt) lv_table_set_row_cnt(obj, row + 1);
  86:Middlewares/lvgl/src/widgets/lv_table.c **** 
  87:Middlewares/lvgl/src/widgets/lv_table.c ****     uint32_t cell = row * table->col_cnt + col;
  88:Middlewares/lvgl/src/widgets/lv_table.c ****     lv_table_cell_ctrl_t ctrl = 0;
ARM GAS  /tmp/ccJnAI63.s 			page 3


  89:Middlewares/lvgl/src/widgets/lv_table.c **** 
  90:Middlewares/lvgl/src/widgets/lv_table.c ****     /*Save the control byte*/
  91:Middlewares/lvgl/src/widgets/lv_table.c ****     if(table->cell_data[cell]) ctrl = table->cell_data[cell][0];
  92:Middlewares/lvgl/src/widgets/lv_table.c **** 
  93:Middlewares/lvgl/src/widgets/lv_table.c **** #if LV_USE_ARABIC_PERSIAN_CHARS
  94:Middlewares/lvgl/src/widgets/lv_table.c ****     /*Get the size of the Arabic text and process it*/
  95:Middlewares/lvgl/src/widgets/lv_table.c ****     size_t len_ap = _lv_txt_ap_calc_bytes_cnt(txt);
  96:Middlewares/lvgl/src/widgets/lv_table.c ****     table->cell_data[cell] = lv_mem_realloc(table->cell_data[cell], len_ap + 1);
  97:Middlewares/lvgl/src/widgets/lv_table.c ****     LV_ASSERT_MALLOC(table->cell_data[cell]);
  98:Middlewares/lvgl/src/widgets/lv_table.c ****     if(table->cell_data[cell] == NULL) return;
  99:Middlewares/lvgl/src/widgets/lv_table.c **** 
 100:Middlewares/lvgl/src/widgets/lv_table.c ****     _lv_txt_ap_proc(txt, &table->cell_data[cell][1]);
 101:Middlewares/lvgl/src/widgets/lv_table.c **** #else
 102:Middlewares/lvgl/src/widgets/lv_table.c ****     table->cell_data[cell] = lv_mem_realloc(table->cell_data[cell], strlen(txt) + 2); /*+1: trailin
 103:Middlewares/lvgl/src/widgets/lv_table.c ****     LV_ASSERT_MALLOC(table->cell_data[cell]);
 104:Middlewares/lvgl/src/widgets/lv_table.c **** 
 105:Middlewares/lvgl/src/widgets/lv_table.c ****     strcpy(table->cell_data[cell] + 1, txt);  /*+1 to skip the format byte*/
 106:Middlewares/lvgl/src/widgets/lv_table.c **** #endif
 107:Middlewares/lvgl/src/widgets/lv_table.c **** 
 108:Middlewares/lvgl/src/widgets/lv_table.c ****     table->cell_data[cell][0] = ctrl;
 109:Middlewares/lvgl/src/widgets/lv_table.c ****     refr_size(obj, row);
 110:Middlewares/lvgl/src/widgets/lv_table.c **** 
 111:Middlewares/lvgl/src/widgets/lv_table.c ****     lv_obj_invalidate(obj);
 112:Middlewares/lvgl/src/widgets/lv_table.c **** }
 113:Middlewares/lvgl/src/widgets/lv_table.c **** 
 114:Middlewares/lvgl/src/widgets/lv_table.c **** void lv_table_set_cell_value_fmt(lv_obj_t * obj, uint16_t row, uint16_t col, const char * fmt, ...)
 115:Middlewares/lvgl/src/widgets/lv_table.c **** {
 116:Middlewares/lvgl/src/widgets/lv_table.c ****     LV_ASSERT_OBJ(obj, MY_CLASS);
 117:Middlewares/lvgl/src/widgets/lv_table.c ****     LV_ASSERT_NULL(fmt);
 118:Middlewares/lvgl/src/widgets/lv_table.c **** 
 119:Middlewares/lvgl/src/widgets/lv_table.c ****     lv_table_t * table = (lv_table_t *)obj;
 120:Middlewares/lvgl/src/widgets/lv_table.c ****     if(col >= table->col_cnt) {
 121:Middlewares/lvgl/src/widgets/lv_table.c ****         LV_LOG_WARN("lv_table_set_cell_value: invalid column");
 122:Middlewares/lvgl/src/widgets/lv_table.c ****         return;
 123:Middlewares/lvgl/src/widgets/lv_table.c ****     }
 124:Middlewares/lvgl/src/widgets/lv_table.c **** 
 125:Middlewares/lvgl/src/widgets/lv_table.c ****     /*Auto expand*/
 126:Middlewares/lvgl/src/widgets/lv_table.c ****     if(row >= table->row_cnt) {
 127:Middlewares/lvgl/src/widgets/lv_table.c ****         lv_table_set_row_cnt(obj, row + 1);
 128:Middlewares/lvgl/src/widgets/lv_table.c ****     }
 129:Middlewares/lvgl/src/widgets/lv_table.c **** 
 130:Middlewares/lvgl/src/widgets/lv_table.c ****     uint32_t cell = row * table->col_cnt + col;
 131:Middlewares/lvgl/src/widgets/lv_table.c ****     lv_table_cell_ctrl_t ctrl = 0;
 132:Middlewares/lvgl/src/widgets/lv_table.c **** 
 133:Middlewares/lvgl/src/widgets/lv_table.c ****     /*Save the control byte*/
 134:Middlewares/lvgl/src/widgets/lv_table.c ****     if(table->cell_data[cell]) ctrl= table->cell_data[cell][0];
 135:Middlewares/lvgl/src/widgets/lv_table.c **** 
 136:Middlewares/lvgl/src/widgets/lv_table.c ****     va_list ap, ap2;
 137:Middlewares/lvgl/src/widgets/lv_table.c ****     va_start(ap, fmt);
 138:Middlewares/lvgl/src/widgets/lv_table.c ****     va_copy(ap2, ap);
 139:Middlewares/lvgl/src/widgets/lv_table.c **** 
 140:Middlewares/lvgl/src/widgets/lv_table.c ****     /*Allocate space for the new text by using trick from C99 standard section 7.19.6.12*/
 141:Middlewares/lvgl/src/widgets/lv_table.c ****     uint32_t len = lv_vsnprintf(NULL, 0, fmt, ap);
 142:Middlewares/lvgl/src/widgets/lv_table.c ****     va_end(ap);
 143:Middlewares/lvgl/src/widgets/lv_table.c **** 
 144:Middlewares/lvgl/src/widgets/lv_table.c **** #if LV_USE_ARABIC_PERSIAN_CHARS
 145:Middlewares/lvgl/src/widgets/lv_table.c ****     /*Put together the text according to the format string*/
ARM GAS  /tmp/ccJnAI63.s 			page 4


 146:Middlewares/lvgl/src/widgets/lv_table.c ****     char * raw_txt = lv_mem_buf_get(len + 1);
 147:Middlewares/lvgl/src/widgets/lv_table.c ****     LV_ASSERT_MALLOC(raw_txt);
 148:Middlewares/lvgl/src/widgets/lv_table.c ****     if(raw_txt == NULL) {
 149:Middlewares/lvgl/src/widgets/lv_table.c ****         va_end(ap2);
 150:Middlewares/lvgl/src/widgets/lv_table.c ****         return;
 151:Middlewares/lvgl/src/widgets/lv_table.c ****     }
 152:Middlewares/lvgl/src/widgets/lv_table.c **** 
 153:Middlewares/lvgl/src/widgets/lv_table.c ****     lv_vsnprintf(raw_txt, len + 1, fmt, ap2);
 154:Middlewares/lvgl/src/widgets/lv_table.c **** 
 155:Middlewares/lvgl/src/widgets/lv_table.c ****     /*Get the size of the Arabic text and process it*/
 156:Middlewares/lvgl/src/widgets/lv_table.c ****     size_t len_ap = _lv_txt_ap_calc_bytes_cnt(raw_txt);
 157:Middlewares/lvgl/src/widgets/lv_table.c ****     table->cell_data[cell] = lv_mem_realloc(table->cell_data[cell], len_ap + 1);
 158:Middlewares/lvgl/src/widgets/lv_table.c ****     LV_ASSERT_MALLOC(table->cell_data[cell]);
 159:Middlewares/lvgl/src/widgets/lv_table.c ****     if(table->cell_data[cell] == NULL) {
 160:Middlewares/lvgl/src/widgets/lv_table.c ****         va_end(ap2);
 161:Middlewares/lvgl/src/widgets/lv_table.c ****         return;
 162:Middlewares/lvgl/src/widgets/lv_table.c ****     }
 163:Middlewares/lvgl/src/widgets/lv_table.c ****     _lv_txt_ap_proc(raw_txt, &table->cell_data[cell][1]);
 164:Middlewares/lvgl/src/widgets/lv_table.c **** 
 165:Middlewares/lvgl/src/widgets/lv_table.c ****     lv_mem_buf_release(raw_txt);
 166:Middlewares/lvgl/src/widgets/lv_table.c **** #else
 167:Middlewares/lvgl/src/widgets/lv_table.c ****     table->cell_data[cell] = lv_mem_realloc(table->cell_data[cell], len + 2); /*+1: trailing '\0; +
 168:Middlewares/lvgl/src/widgets/lv_table.c ****     LV_ASSERT_MALLOC(table->cell_data[cell]);
 169:Middlewares/lvgl/src/widgets/lv_table.c ****     if(table->cell_data[cell] == NULL) {
 170:Middlewares/lvgl/src/widgets/lv_table.c ****         va_end(ap2);
 171:Middlewares/lvgl/src/widgets/lv_table.c ****         return;
 172:Middlewares/lvgl/src/widgets/lv_table.c ****     }
 173:Middlewares/lvgl/src/widgets/lv_table.c **** 
 174:Middlewares/lvgl/src/widgets/lv_table.c ****     table->cell_data[cell][len + 1] = 0; /*Ensure NULL termination*/
 175:Middlewares/lvgl/src/widgets/lv_table.c **** 
 176:Middlewares/lvgl/src/widgets/lv_table.c ****     lv_vsnprintf(&table->cell_data[cell][1], len + 1, fmt, ap2);
 177:Middlewares/lvgl/src/widgets/lv_table.c **** #endif
 178:Middlewares/lvgl/src/widgets/lv_table.c **** 
 179:Middlewares/lvgl/src/widgets/lv_table.c ****     va_end(ap2);
 180:Middlewares/lvgl/src/widgets/lv_table.c **** 
 181:Middlewares/lvgl/src/widgets/lv_table.c ****     table->cell_data[cell][0] = ctrl;
 182:Middlewares/lvgl/src/widgets/lv_table.c **** 
 183:Middlewares/lvgl/src/widgets/lv_table.c ****     /*Refresh the row height*/
 184:Middlewares/lvgl/src/widgets/lv_table.c ****     lv_coord_t cell_left = lv_obj_get_style_pad_left(obj, LV_PART_ITEMS);
 185:Middlewares/lvgl/src/widgets/lv_table.c ****     lv_coord_t cell_right = lv_obj_get_style_pad_right(obj, LV_PART_ITEMS);
 186:Middlewares/lvgl/src/widgets/lv_table.c ****     lv_coord_t cell_top = lv_obj_get_style_pad_top(obj, LV_PART_ITEMS);
 187:Middlewares/lvgl/src/widgets/lv_table.c ****     lv_coord_t cell_bottom = lv_obj_get_style_pad_bottom(obj, LV_PART_ITEMS);
 188:Middlewares/lvgl/src/widgets/lv_table.c **** 
 189:Middlewares/lvgl/src/widgets/lv_table.c ****     lv_coord_t letter_space = lv_obj_get_style_text_letter_space(obj, LV_PART_ITEMS);
 190:Middlewares/lvgl/src/widgets/lv_table.c ****     lv_coord_t line_space = lv_obj_get_style_text_line_space(obj, LV_PART_ITEMS);
 191:Middlewares/lvgl/src/widgets/lv_table.c ****     const lv_font_t * font = lv_obj_get_style_text_font(obj, LV_PART_ITEMS);
 192:Middlewares/lvgl/src/widgets/lv_table.c **** 
 193:Middlewares/lvgl/src/widgets/lv_table.c ****     lv_coord_t h = get_row_height(obj, row, font, letter_space, line_space,
 194:Middlewares/lvgl/src/widgets/lv_table.c ****                                        cell_left, cell_right, cell_top, cell_bottom);
 195:Middlewares/lvgl/src/widgets/lv_table.c **** 
 196:Middlewares/lvgl/src/widgets/lv_table.c **** 
 197:Middlewares/lvgl/src/widgets/lv_table.c ****     lv_coord_t minh = lv_obj_get_style_min_height(obj, LV_PART_ITEMS);
 198:Middlewares/lvgl/src/widgets/lv_table.c ****     lv_coord_t maxh = lv_obj_get_style_max_height(obj, LV_PART_ITEMS);
 199:Middlewares/lvgl/src/widgets/lv_table.c **** 
 200:Middlewares/lvgl/src/widgets/lv_table.c ****     table->row_h[row] = LV_CLAMP(minh, h, maxh);
 201:Middlewares/lvgl/src/widgets/lv_table.c **** 
 202:Middlewares/lvgl/src/widgets/lv_table.c ****     lv_obj_invalidate(obj);
ARM GAS  /tmp/ccJnAI63.s 			page 5


 203:Middlewares/lvgl/src/widgets/lv_table.c **** }
 204:Middlewares/lvgl/src/widgets/lv_table.c **** 
 205:Middlewares/lvgl/src/widgets/lv_table.c **** void lv_table_set_row_cnt(lv_obj_t * obj, uint16_t row_cnt)
 206:Middlewares/lvgl/src/widgets/lv_table.c **** {
 207:Middlewares/lvgl/src/widgets/lv_table.c ****     LV_ASSERT_OBJ(obj, MY_CLASS);
 208:Middlewares/lvgl/src/widgets/lv_table.c **** 
 209:Middlewares/lvgl/src/widgets/lv_table.c ****     lv_table_t * table = (lv_table_t *)obj;
 210:Middlewares/lvgl/src/widgets/lv_table.c ****     uint16_t old_row_cnt = table->row_cnt;
 211:Middlewares/lvgl/src/widgets/lv_table.c ****     table->row_cnt         = row_cnt;
 212:Middlewares/lvgl/src/widgets/lv_table.c **** 
 213:Middlewares/lvgl/src/widgets/lv_table.c ****     table->row_h = lv_mem_realloc(table->row_h, table->row_cnt * sizeof(table->row_h[0]));
 214:Middlewares/lvgl/src/widgets/lv_table.c ****     LV_ASSERT_MALLOC(table->row_h);
 215:Middlewares/lvgl/src/widgets/lv_table.c ****     if(table->row_h == NULL) return;
 216:Middlewares/lvgl/src/widgets/lv_table.c **** 
 217:Middlewares/lvgl/src/widgets/lv_table.c ****     /*Free the unused cells*/
 218:Middlewares/lvgl/src/widgets/lv_table.c ****     if(old_row_cnt > row_cnt) {
 219:Middlewares/lvgl/src/widgets/lv_table.c ****         uint16_t old_cell_cnt = old_row_cnt * table->col_cnt;
 220:Middlewares/lvgl/src/widgets/lv_table.c ****         uint32_t new_cell_cnt = table->col_cnt * table->row_cnt;
 221:Middlewares/lvgl/src/widgets/lv_table.c ****         uint32_t i;
 222:Middlewares/lvgl/src/widgets/lv_table.c ****         for(i = new_cell_cnt; i < old_cell_cnt; i++) {
 223:Middlewares/lvgl/src/widgets/lv_table.c ****             lv_mem_free(table->cell_data[i]);
 224:Middlewares/lvgl/src/widgets/lv_table.c ****         }
 225:Middlewares/lvgl/src/widgets/lv_table.c ****     }
 226:Middlewares/lvgl/src/widgets/lv_table.c **** 
 227:Middlewares/lvgl/src/widgets/lv_table.c ****     table->cell_data = lv_mem_realloc(table->cell_data, table->row_cnt * table->col_cnt * sizeof(ch
 228:Middlewares/lvgl/src/widgets/lv_table.c ****     LV_ASSERT_MALLOC(table->cell_data);
 229:Middlewares/lvgl/src/widgets/lv_table.c ****     if(table->cell_data == NULL) return;
 230:Middlewares/lvgl/src/widgets/lv_table.c **** 
 231:Middlewares/lvgl/src/widgets/lv_table.c ****     /*Initialize the new fields*/
 232:Middlewares/lvgl/src/widgets/lv_table.c ****     if(old_row_cnt < row_cnt) {
 233:Middlewares/lvgl/src/widgets/lv_table.c ****         uint32_t old_cell_cnt = old_row_cnt * table->col_cnt;
 234:Middlewares/lvgl/src/widgets/lv_table.c ****         uint32_t new_cell_cnt = table->col_cnt * table->row_cnt;
 235:Middlewares/lvgl/src/widgets/lv_table.c ****         lv_memset_00(&table->cell_data[old_cell_cnt], (new_cell_cnt - old_cell_cnt) * sizeof(table-
 236:Middlewares/lvgl/src/widgets/lv_table.c ****     }
 237:Middlewares/lvgl/src/widgets/lv_table.c **** 
 238:Middlewares/lvgl/src/widgets/lv_table.c ****     refr_size(obj, 0) ;
 239:Middlewares/lvgl/src/widgets/lv_table.c **** }
 240:Middlewares/lvgl/src/widgets/lv_table.c **** 
 241:Middlewares/lvgl/src/widgets/lv_table.c **** void lv_table_set_col_cnt(lv_obj_t * obj, uint16_t col_cnt)
 242:Middlewares/lvgl/src/widgets/lv_table.c **** {
 243:Middlewares/lvgl/src/widgets/lv_table.c ****     LV_ASSERT_OBJ(obj, MY_CLASS);
 244:Middlewares/lvgl/src/widgets/lv_table.c **** 
 245:Middlewares/lvgl/src/widgets/lv_table.c ****     lv_table_t * table = (lv_table_t *)obj;
 246:Middlewares/lvgl/src/widgets/lv_table.c ****     uint16_t old_col_cnt = table->col_cnt;
 247:Middlewares/lvgl/src/widgets/lv_table.c ****     table->col_cnt         = col_cnt;
 248:Middlewares/lvgl/src/widgets/lv_table.c ****     table->col_w = lv_mem_realloc(table->col_w, col_cnt * sizeof(table->row_h[0]));
 249:Middlewares/lvgl/src/widgets/lv_table.c ****     LV_ASSERT_MALLOC(table->col_w);
 250:Middlewares/lvgl/src/widgets/lv_table.c ****     if(table->col_w == NULL) return;
 251:Middlewares/lvgl/src/widgets/lv_table.c **** 
 252:Middlewares/lvgl/src/widgets/lv_table.c ****     /*Free the unused cells*/
 253:Middlewares/lvgl/src/widgets/lv_table.c ****     if(old_col_cnt > col_cnt) {
 254:Middlewares/lvgl/src/widgets/lv_table.c ****        uint16_t old_cell_cnt = old_col_cnt * table->row_cnt;
 255:Middlewares/lvgl/src/widgets/lv_table.c ****        uint32_t new_cell_cnt = table->col_cnt * table->row_cnt;
 256:Middlewares/lvgl/src/widgets/lv_table.c ****        uint32_t i;
 257:Middlewares/lvgl/src/widgets/lv_table.c ****        for(i = new_cell_cnt; i < old_cell_cnt; i++) {
 258:Middlewares/lvgl/src/widgets/lv_table.c ****            lv_mem_free(table->cell_data[i]);
 259:Middlewares/lvgl/src/widgets/lv_table.c ****        }
ARM GAS  /tmp/ccJnAI63.s 			page 6


 260:Middlewares/lvgl/src/widgets/lv_table.c ****    }
 261:Middlewares/lvgl/src/widgets/lv_table.c **** 
 262:Middlewares/lvgl/src/widgets/lv_table.c ****     char ** new_cell_data = lv_mem_alloc(table->row_cnt * table->col_cnt * sizeof(char *));
 263:Middlewares/lvgl/src/widgets/lv_table.c ****     LV_ASSERT_MALLOC(new_cell_data);
 264:Middlewares/lvgl/src/widgets/lv_table.c ****     if(new_cell_data == NULL) return;
 265:Middlewares/lvgl/src/widgets/lv_table.c ****     uint32_t new_cell_cnt = table->col_cnt * table->row_cnt;
 266:Middlewares/lvgl/src/widgets/lv_table.c ****     lv_memset_00(new_cell_data, new_cell_cnt * sizeof(table->cell_data[0]));
 267:Middlewares/lvgl/src/widgets/lv_table.c **** 
 268:Middlewares/lvgl/src/widgets/lv_table.c ****     /*Initialize the new fields*/
 269:Middlewares/lvgl/src/widgets/lv_table.c ****     if(old_col_cnt < col_cnt) {
 270:Middlewares/lvgl/src/widgets/lv_table.c ****         uint32_t col;
 271:Middlewares/lvgl/src/widgets/lv_table.c ****         for(col = old_col_cnt; col < col_cnt; col++) {
 272:Middlewares/lvgl/src/widgets/lv_table.c ****             table->col_w[col] = LV_DPI_DEF;
 273:Middlewares/lvgl/src/widgets/lv_table.c ****         }
 274:Middlewares/lvgl/src/widgets/lv_table.c ****     }
 275:Middlewares/lvgl/src/widgets/lv_table.c **** 
 276:Middlewares/lvgl/src/widgets/lv_table.c ****     /*The new column(s) messes up the mapping of `cell_data`*/
 277:Middlewares/lvgl/src/widgets/lv_table.c ****     uint32_t old_col_start;
 278:Middlewares/lvgl/src/widgets/lv_table.c ****     uint32_t new_col_start;
 279:Middlewares/lvgl/src/widgets/lv_table.c ****     uint32_t min_col_cnt = LV_MIN(old_col_cnt, col_cnt);
 280:Middlewares/lvgl/src/widgets/lv_table.c ****     uint32_t row;
 281:Middlewares/lvgl/src/widgets/lv_table.c ****     for(row = 0; row < table->row_cnt; row++) {
 282:Middlewares/lvgl/src/widgets/lv_table.c ****         old_col_start = row * old_col_cnt;
 283:Middlewares/lvgl/src/widgets/lv_table.c ****         new_col_start = row * col_cnt;
 284:Middlewares/lvgl/src/widgets/lv_table.c **** 
 285:Middlewares/lvgl/src/widgets/lv_table.c ****         lv_memcpy_small(&new_cell_data[new_col_start], &table->cell_data[old_col_start], sizeof(new
 286:Middlewares/lvgl/src/widgets/lv_table.c ****     }
 287:Middlewares/lvgl/src/widgets/lv_table.c **** 
 288:Middlewares/lvgl/src/widgets/lv_table.c ****     lv_mem_free(table->cell_data);
 289:Middlewares/lvgl/src/widgets/lv_table.c ****     table->cell_data = new_cell_data;
 290:Middlewares/lvgl/src/widgets/lv_table.c **** 
 291:Middlewares/lvgl/src/widgets/lv_table.c **** 
 292:Middlewares/lvgl/src/widgets/lv_table.c ****     refr_size(obj, 0) ;
 293:Middlewares/lvgl/src/widgets/lv_table.c **** }
 294:Middlewares/lvgl/src/widgets/lv_table.c **** 
 295:Middlewares/lvgl/src/widgets/lv_table.c **** void lv_table_set_col_width(lv_obj_t * obj, uint16_t col_id, lv_coord_t w)
 296:Middlewares/lvgl/src/widgets/lv_table.c **** {
 297:Middlewares/lvgl/src/widgets/lv_table.c ****     LV_ASSERT_OBJ(obj, MY_CLASS);
 298:Middlewares/lvgl/src/widgets/lv_table.c **** 
 299:Middlewares/lvgl/src/widgets/lv_table.c ****     lv_table_t * table = (lv_table_t *)obj;
 300:Middlewares/lvgl/src/widgets/lv_table.c **** 
 301:Middlewares/lvgl/src/widgets/lv_table.c ****     /*Auto expand*/
 302:Middlewares/lvgl/src/widgets/lv_table.c ****     if(col_id >= table->col_cnt) lv_table_set_col_cnt(obj, col_id + 1);
 303:Middlewares/lvgl/src/widgets/lv_table.c **** 
 304:Middlewares/lvgl/src/widgets/lv_table.c ****     table->col_w[col_id] = w;
 305:Middlewares/lvgl/src/widgets/lv_table.c ****     refr_size(obj, 0) ;
 306:Middlewares/lvgl/src/widgets/lv_table.c **** }
 307:Middlewares/lvgl/src/widgets/lv_table.c **** 
 308:Middlewares/lvgl/src/widgets/lv_table.c **** void lv_table_add_cell_ctrl(lv_obj_t * obj, uint16_t row, uint16_t col, lv_table_cell_ctrl_t ctrl)
 309:Middlewares/lvgl/src/widgets/lv_table.c **** {
 310:Middlewares/lvgl/src/widgets/lv_table.c ****     LV_ASSERT_OBJ(obj, MY_CLASS);
 311:Middlewares/lvgl/src/widgets/lv_table.c **** 
 312:Middlewares/lvgl/src/widgets/lv_table.c ****     lv_table_t * table = (lv_table_t *)obj;
 313:Middlewares/lvgl/src/widgets/lv_table.c **** 
 314:Middlewares/lvgl/src/widgets/lv_table.c ****     /*Auto expand*/
 315:Middlewares/lvgl/src/widgets/lv_table.c ****     if(col >= table->col_cnt) lv_table_set_col_cnt(obj, col + 1);
 316:Middlewares/lvgl/src/widgets/lv_table.c ****     if(row >= table->row_cnt) lv_table_set_row_cnt(obj, row + 1);
ARM GAS  /tmp/ccJnAI63.s 			page 7


 317:Middlewares/lvgl/src/widgets/lv_table.c **** 
 318:Middlewares/lvgl/src/widgets/lv_table.c ****     uint32_t cell = row * table->col_cnt + col;
 319:Middlewares/lvgl/src/widgets/lv_table.c **** 
 320:Middlewares/lvgl/src/widgets/lv_table.c ****     if(table->cell_data[cell] == NULL) {
 321:Middlewares/lvgl/src/widgets/lv_table.c ****         table->cell_data[cell]    = lv_mem_alloc(2); /*+1: trailing '\0; +1: format byte*/
 322:Middlewares/lvgl/src/widgets/lv_table.c ****         LV_ASSERT_MALLOC(table->cell_data[cell]);
 323:Middlewares/lvgl/src/widgets/lv_table.c ****         if(table->cell_data[cell] == NULL) return;
 324:Middlewares/lvgl/src/widgets/lv_table.c **** 
 325:Middlewares/lvgl/src/widgets/lv_table.c ****         table->cell_data[cell][0] = 0;
 326:Middlewares/lvgl/src/widgets/lv_table.c ****         table->cell_data[cell][1] = '\0';
 327:Middlewares/lvgl/src/widgets/lv_table.c ****     }
 328:Middlewares/lvgl/src/widgets/lv_table.c **** 
 329:Middlewares/lvgl/src/widgets/lv_table.c ****     table->cell_data[cell][0] |= ctrl;
 330:Middlewares/lvgl/src/widgets/lv_table.c **** }
 331:Middlewares/lvgl/src/widgets/lv_table.c **** 
 332:Middlewares/lvgl/src/widgets/lv_table.c **** void lv_table_clear_cell_ctrl(lv_obj_t * obj, uint16_t row, uint16_t col, lv_table_cell_ctrl_t ctrl
 333:Middlewares/lvgl/src/widgets/lv_table.c **** {
 334:Middlewares/lvgl/src/widgets/lv_table.c ****     LV_ASSERT_OBJ(obj, MY_CLASS);
 335:Middlewares/lvgl/src/widgets/lv_table.c **** 
 336:Middlewares/lvgl/src/widgets/lv_table.c ****     lv_table_t * table = (lv_table_t *)obj;
 337:Middlewares/lvgl/src/widgets/lv_table.c **** 
 338:Middlewares/lvgl/src/widgets/lv_table.c ****     /*Auto expand*/
 339:Middlewares/lvgl/src/widgets/lv_table.c ****     if(col >= table->col_cnt) lv_table_set_col_cnt(obj, col + 1);
 340:Middlewares/lvgl/src/widgets/lv_table.c ****     if(row >= table->row_cnt) lv_table_set_row_cnt(obj, row + 1);
 341:Middlewares/lvgl/src/widgets/lv_table.c **** 
 342:Middlewares/lvgl/src/widgets/lv_table.c ****     uint32_t cell = row * table->col_cnt + col;
 343:Middlewares/lvgl/src/widgets/lv_table.c **** 
 344:Middlewares/lvgl/src/widgets/lv_table.c ****     if(table->cell_data[cell] == NULL) {
 345:Middlewares/lvgl/src/widgets/lv_table.c ****         table->cell_data[cell]    = lv_mem_alloc(2); /*+1: trailing '\0; +1: format byte*/
 346:Middlewares/lvgl/src/widgets/lv_table.c ****         LV_ASSERT_MALLOC(table->cell_data[cell]);
 347:Middlewares/lvgl/src/widgets/lv_table.c ****         if(table->cell_data[cell] == NULL) return;
 348:Middlewares/lvgl/src/widgets/lv_table.c **** 
 349:Middlewares/lvgl/src/widgets/lv_table.c ****         table->cell_data[cell][0] = 0;
 350:Middlewares/lvgl/src/widgets/lv_table.c ****         table->cell_data[cell][1] = '\0';
 351:Middlewares/lvgl/src/widgets/lv_table.c ****     }
 352:Middlewares/lvgl/src/widgets/lv_table.c **** 
 353:Middlewares/lvgl/src/widgets/lv_table.c ****     table->cell_data[cell][0] &= (~ctrl);
 354:Middlewares/lvgl/src/widgets/lv_table.c **** }
 355:Middlewares/lvgl/src/widgets/lv_table.c **** 
 356:Middlewares/lvgl/src/widgets/lv_table.c **** /*=====================
 357:Middlewares/lvgl/src/widgets/lv_table.c ****  * Getter functions
 358:Middlewares/lvgl/src/widgets/lv_table.c ****  *====================*/
 359:Middlewares/lvgl/src/widgets/lv_table.c **** 
 360:Middlewares/lvgl/src/widgets/lv_table.c **** const char * lv_table_get_cell_value(lv_obj_t * obj, uint16_t row, uint16_t col)
 361:Middlewares/lvgl/src/widgets/lv_table.c **** {
 362:Middlewares/lvgl/src/widgets/lv_table.c ****     LV_ASSERT_OBJ(obj, MY_CLASS);
 363:Middlewares/lvgl/src/widgets/lv_table.c **** 
 364:Middlewares/lvgl/src/widgets/lv_table.c ****     lv_table_t * table = (lv_table_t *)obj;
 365:Middlewares/lvgl/src/widgets/lv_table.c ****     if(row >= table->row_cnt || col >= table->col_cnt) {
 366:Middlewares/lvgl/src/widgets/lv_table.c ****         LV_LOG_WARN("lv_table_set_cell_value: invalid row or column");
 367:Middlewares/lvgl/src/widgets/lv_table.c ****         return "";
 368:Middlewares/lvgl/src/widgets/lv_table.c ****     }
 369:Middlewares/lvgl/src/widgets/lv_table.c ****     uint32_t cell = row * table->col_cnt + col;
 370:Middlewares/lvgl/src/widgets/lv_table.c **** 
 371:Middlewares/lvgl/src/widgets/lv_table.c ****     if(table->cell_data[cell] == NULL) return "";
 372:Middlewares/lvgl/src/widgets/lv_table.c **** 
 373:Middlewares/lvgl/src/widgets/lv_table.c ****     return &table->cell_data[cell][1]; /*Skip the format byte*/
ARM GAS  /tmp/ccJnAI63.s 			page 8


 374:Middlewares/lvgl/src/widgets/lv_table.c **** }
 375:Middlewares/lvgl/src/widgets/lv_table.c **** 
 376:Middlewares/lvgl/src/widgets/lv_table.c **** uint16_t lv_table_get_row_cnt(lv_obj_t * obj)
 377:Middlewares/lvgl/src/widgets/lv_table.c **** {
 378:Middlewares/lvgl/src/widgets/lv_table.c ****     LV_ASSERT_OBJ(obj, MY_CLASS);
 379:Middlewares/lvgl/src/widgets/lv_table.c **** 
 380:Middlewares/lvgl/src/widgets/lv_table.c ****     lv_table_t * table = (lv_table_t *)obj;
 381:Middlewares/lvgl/src/widgets/lv_table.c ****     return table->row_cnt;
 382:Middlewares/lvgl/src/widgets/lv_table.c **** }
 383:Middlewares/lvgl/src/widgets/lv_table.c **** 
 384:Middlewares/lvgl/src/widgets/lv_table.c **** uint16_t lv_table_get_col_cnt(lv_obj_t * obj)
 385:Middlewares/lvgl/src/widgets/lv_table.c **** {
 386:Middlewares/lvgl/src/widgets/lv_table.c ****     LV_ASSERT_OBJ(obj, MY_CLASS);
 387:Middlewares/lvgl/src/widgets/lv_table.c **** 
 388:Middlewares/lvgl/src/widgets/lv_table.c ****     lv_table_t * table = (lv_table_t *)obj;
 389:Middlewares/lvgl/src/widgets/lv_table.c ****     return table->col_cnt;
 390:Middlewares/lvgl/src/widgets/lv_table.c **** }
 391:Middlewares/lvgl/src/widgets/lv_table.c **** 
 392:Middlewares/lvgl/src/widgets/lv_table.c **** lv_coord_t lv_table_get_col_width(lv_obj_t * obj, uint16_t col)
 393:Middlewares/lvgl/src/widgets/lv_table.c **** {
 394:Middlewares/lvgl/src/widgets/lv_table.c ****     LV_ASSERT_OBJ(obj, MY_CLASS);
 395:Middlewares/lvgl/src/widgets/lv_table.c **** 
 396:Middlewares/lvgl/src/widgets/lv_table.c ****     lv_table_t * table = (lv_table_t *)obj;
 397:Middlewares/lvgl/src/widgets/lv_table.c **** 
 398:Middlewares/lvgl/src/widgets/lv_table.c ****     if(col >= table->col_cnt) {
 399:Middlewares/lvgl/src/widgets/lv_table.c ****         LV_LOG_WARN("lv_table_set_col_width: too big 'col_id'. Must be < LV_TABLE_COL_MAX.");
 400:Middlewares/lvgl/src/widgets/lv_table.c ****         return 0;
 401:Middlewares/lvgl/src/widgets/lv_table.c ****     }
 402:Middlewares/lvgl/src/widgets/lv_table.c **** 
 403:Middlewares/lvgl/src/widgets/lv_table.c ****     return table->col_w[col];
 404:Middlewares/lvgl/src/widgets/lv_table.c **** }
 405:Middlewares/lvgl/src/widgets/lv_table.c **** 
 406:Middlewares/lvgl/src/widgets/lv_table.c **** bool lv_table_has_cell_ctrl(lv_obj_t * obj, uint16_t row, uint16_t col, lv_table_cell_ctrl_t ctrl)
 407:Middlewares/lvgl/src/widgets/lv_table.c **** {
 408:Middlewares/lvgl/src/widgets/lv_table.c ****     LV_ASSERT_OBJ(obj, MY_CLASS);
 409:Middlewares/lvgl/src/widgets/lv_table.c **** 
 410:Middlewares/lvgl/src/widgets/lv_table.c ****     lv_table_t * table = (lv_table_t *)obj;
 411:Middlewares/lvgl/src/widgets/lv_table.c ****     if(row >= table->row_cnt || col >= table->col_cnt) {
 412:Middlewares/lvgl/src/widgets/lv_table.c ****         LV_LOG_WARN("lv_table_get_cell_crop: invalid row or column");
 413:Middlewares/lvgl/src/widgets/lv_table.c ****         return false;
 414:Middlewares/lvgl/src/widgets/lv_table.c ****     }
 415:Middlewares/lvgl/src/widgets/lv_table.c ****     uint32_t cell = row * table->col_cnt + col;
 416:Middlewares/lvgl/src/widgets/lv_table.c **** 
 417:Middlewares/lvgl/src/widgets/lv_table.c ****     if(table->cell_data[cell] == NULL) return false;
 418:Middlewares/lvgl/src/widgets/lv_table.c ****     else return (table->cell_data[cell][0] & ctrl) == ctrl ? true : false;
 419:Middlewares/lvgl/src/widgets/lv_table.c **** }
 420:Middlewares/lvgl/src/widgets/lv_table.c **** 
 421:Middlewares/lvgl/src/widgets/lv_table.c **** void lv_table_get_selected_cell(lv_obj_t * obj, uint16_t * row, uint16_t * col)
 422:Middlewares/lvgl/src/widgets/lv_table.c **** {
 423:Middlewares/lvgl/src/widgets/lv_table.c ****     lv_table_t * table = (lv_table_t *)obj;
 424:Middlewares/lvgl/src/widgets/lv_table.c ****     *row = table->row_act;
 425:Middlewares/lvgl/src/widgets/lv_table.c ****     *col = table->col_act;
 426:Middlewares/lvgl/src/widgets/lv_table.c **** }
 427:Middlewares/lvgl/src/widgets/lv_table.c **** 
 428:Middlewares/lvgl/src/widgets/lv_table.c **** /**********************
 429:Middlewares/lvgl/src/widgets/lv_table.c ****  *   STATIC FUNCTIONS
 430:Middlewares/lvgl/src/widgets/lv_table.c ****  **********************/
ARM GAS  /tmp/ccJnAI63.s 			page 9


 431:Middlewares/lvgl/src/widgets/lv_table.c **** 
 432:Middlewares/lvgl/src/widgets/lv_table.c **** static void lv_table_constructor(const lv_obj_class_t * class_p, lv_obj_t * obj)
 433:Middlewares/lvgl/src/widgets/lv_table.c **** {
 434:Middlewares/lvgl/src/widgets/lv_table.c ****     LV_UNUSED(class_p);
 435:Middlewares/lvgl/src/widgets/lv_table.c ****     LV_TRACE_OBJ_CREATE("begin");
 436:Middlewares/lvgl/src/widgets/lv_table.c **** 
 437:Middlewares/lvgl/src/widgets/lv_table.c ****     lv_table_t * table = (lv_table_t *)obj;
 438:Middlewares/lvgl/src/widgets/lv_table.c **** 
 439:Middlewares/lvgl/src/widgets/lv_table.c ****     table->col_cnt = 1;
 440:Middlewares/lvgl/src/widgets/lv_table.c ****     table->row_cnt = 1;
 441:Middlewares/lvgl/src/widgets/lv_table.c ****     table->col_w = lv_mem_alloc(table->col_cnt * sizeof(table->col_w[0]));
 442:Middlewares/lvgl/src/widgets/lv_table.c ****     table->row_h = lv_mem_alloc(table->row_cnt * sizeof(table->row_h[0]));
 443:Middlewares/lvgl/src/widgets/lv_table.c ****     table->col_w[0] = LV_DPI_DEF;
 444:Middlewares/lvgl/src/widgets/lv_table.c ****     table->row_h[0] = LV_DPI_DEF;
 445:Middlewares/lvgl/src/widgets/lv_table.c ****     table->cell_data = lv_mem_realloc(table->cell_data, table->row_cnt * table->col_cnt * sizeof(ch
 446:Middlewares/lvgl/src/widgets/lv_table.c ****     table->cell_data[0] = NULL;
 447:Middlewares/lvgl/src/widgets/lv_table.c **** 
 448:Middlewares/lvgl/src/widgets/lv_table.c ****     LV_TRACE_OBJ_CREATE("finished");
 449:Middlewares/lvgl/src/widgets/lv_table.c **** }
 450:Middlewares/lvgl/src/widgets/lv_table.c **** 
 451:Middlewares/lvgl/src/widgets/lv_table.c **** static void lv_table_destructor(const lv_obj_class_t * class_p, lv_obj_t * obj)
 452:Middlewares/lvgl/src/widgets/lv_table.c **** {
 453:Middlewares/lvgl/src/widgets/lv_table.c ****     LV_UNUSED(class_p);
 454:Middlewares/lvgl/src/widgets/lv_table.c ****     lv_table_t * table = (lv_table_t *)obj;
 455:Middlewares/lvgl/src/widgets/lv_table.c ****     /*Free the cell texts*/
 456:Middlewares/lvgl/src/widgets/lv_table.c ****     uint16_t i;
 457:Middlewares/lvgl/src/widgets/lv_table.c ****     for(i = 0; i < table->col_cnt * table->row_cnt; i++) {
 458:Middlewares/lvgl/src/widgets/lv_table.c ****         if(table->cell_data[i]) {
 459:Middlewares/lvgl/src/widgets/lv_table.c ****             lv_mem_free(table->cell_data[i]);
 460:Middlewares/lvgl/src/widgets/lv_table.c ****             table->cell_data[i] = NULL;
 461:Middlewares/lvgl/src/widgets/lv_table.c ****         }
 462:Middlewares/lvgl/src/widgets/lv_table.c ****     }
 463:Middlewares/lvgl/src/widgets/lv_table.c **** 
 464:Middlewares/lvgl/src/widgets/lv_table.c ****     if(table->cell_data) lv_mem_free(table->cell_data);
 465:Middlewares/lvgl/src/widgets/lv_table.c ****     if(table->row_h) lv_mem_free(table->row_h);
 466:Middlewares/lvgl/src/widgets/lv_table.c **** }
 467:Middlewares/lvgl/src/widgets/lv_table.c **** 
 468:Middlewares/lvgl/src/widgets/lv_table.c **** static void lv_table_event(const lv_obj_class_t * class_p, lv_event_t * e)
 469:Middlewares/lvgl/src/widgets/lv_table.c **** {
 470:Middlewares/lvgl/src/widgets/lv_table.c ****     LV_UNUSED(class_p);
 471:Middlewares/lvgl/src/widgets/lv_table.c **** 
 472:Middlewares/lvgl/src/widgets/lv_table.c ****     lv_res_t res;
 473:Middlewares/lvgl/src/widgets/lv_table.c **** 
 474:Middlewares/lvgl/src/widgets/lv_table.c ****     /*Call the ancestor's event handler*/
 475:Middlewares/lvgl/src/widgets/lv_table.c ****     res = lv_obj_event_base(MY_CLASS, e);
 476:Middlewares/lvgl/src/widgets/lv_table.c ****     if(res != LV_RES_OK) return;
 477:Middlewares/lvgl/src/widgets/lv_table.c **** 
 478:Middlewares/lvgl/src/widgets/lv_table.c ****     lv_event_code_t code = lv_event_get_code(e);
 479:Middlewares/lvgl/src/widgets/lv_table.c ****     lv_obj_t * obj = lv_event_get_target(e);
 480:Middlewares/lvgl/src/widgets/lv_table.c ****     lv_table_t * table = (lv_table_t *)obj;
 481:Middlewares/lvgl/src/widgets/lv_table.c **** 
 482:Middlewares/lvgl/src/widgets/lv_table.c ****     if(code == LV_EVENT_STYLE_CHANGED) {
 483:Middlewares/lvgl/src/widgets/lv_table.c ****         refr_size(obj, 0);
 484:Middlewares/lvgl/src/widgets/lv_table.c ****     }
 485:Middlewares/lvgl/src/widgets/lv_table.c ****     else if(code == LV_EVENT_GET_SELF_SIZE) {
 486:Middlewares/lvgl/src/widgets/lv_table.c ****         lv_point_t * p = lv_event_get_param(e);
 487:Middlewares/lvgl/src/widgets/lv_table.c ****         uint32_t i;
ARM GAS  /tmp/ccJnAI63.s 			page 10


 488:Middlewares/lvgl/src/widgets/lv_table.c ****         lv_coord_t w = 0;
 489:Middlewares/lvgl/src/widgets/lv_table.c ****         for(i = 0; i < table->col_cnt; i++) w += table->col_w[i];
 490:Middlewares/lvgl/src/widgets/lv_table.c **** 
 491:Middlewares/lvgl/src/widgets/lv_table.c ****         lv_coord_t h = 0;
 492:Middlewares/lvgl/src/widgets/lv_table.c ****         for(i = 0; i < table->row_cnt; i++) h += table->row_h[i];
 493:Middlewares/lvgl/src/widgets/lv_table.c **** 
 494:Middlewares/lvgl/src/widgets/lv_table.c ****         p->x = w;
 495:Middlewares/lvgl/src/widgets/lv_table.c ****         p->y = h;
 496:Middlewares/lvgl/src/widgets/lv_table.c ****     }
 497:Middlewares/lvgl/src/widgets/lv_table.c ****     else if(code == LV_EVENT_PRESSED || code == LV_EVENT_PRESSING) {
 498:Middlewares/lvgl/src/widgets/lv_table.c ****         uint16_t col;
 499:Middlewares/lvgl/src/widgets/lv_table.c ****         uint16_t row;
 500:Middlewares/lvgl/src/widgets/lv_table.c ****         lv_res_t pr_res = get_pressed_cell(obj, &row, &col);
 501:Middlewares/lvgl/src/widgets/lv_table.c **** 
 502:Middlewares/lvgl/src/widgets/lv_table.c ****         if(pr_res == LV_RES_OK && (table->col_act != col || table->row_act != row)) {
 503:Middlewares/lvgl/src/widgets/lv_table.c ****             table->col_act = col;
 504:Middlewares/lvgl/src/widgets/lv_table.c ****             table->row_act = row;
 505:Middlewares/lvgl/src/widgets/lv_table.c ****         }
 506:Middlewares/lvgl/src/widgets/lv_table.c ****         lv_obj_invalidate(obj);
 507:Middlewares/lvgl/src/widgets/lv_table.c ****     }
 508:Middlewares/lvgl/src/widgets/lv_table.c ****     else if(code == LV_EVENT_RELEASED) {
 509:Middlewares/lvgl/src/widgets/lv_table.c ****         lv_obj_invalidate(obj);
 510:Middlewares/lvgl/src/widgets/lv_table.c ****         lv_indev_t * indev = lv_indev_get_act();
 511:Middlewares/lvgl/src/widgets/lv_table.c ****         lv_obj_t * scroll_obj = lv_indev_get_scroll_obj(indev);
 512:Middlewares/lvgl/src/widgets/lv_table.c ****         if(table->col_act != LV_TABLE_CELL_NONE && table->row_act != LV_TABLE_CELL_NONE && scroll_o
 513:Middlewares/lvgl/src/widgets/lv_table.c ****             res = lv_event_send(obj, LV_EVENT_VALUE_CHANGED, NULL);
 514:Middlewares/lvgl/src/widgets/lv_table.c ****             if(res != LV_RES_OK) return;
 515:Middlewares/lvgl/src/widgets/lv_table.c ****         }
 516:Middlewares/lvgl/src/widgets/lv_table.c **** 
 517:Middlewares/lvgl/src/widgets/lv_table.c ****         lv_indev_type_t indev_type = lv_indev_get_type(lv_indev_get_act());
 518:Middlewares/lvgl/src/widgets/lv_table.c ****         if(indev_type == LV_INDEV_TYPE_POINTER || indev_type == LV_INDEV_TYPE_BUTTON) {
 519:Middlewares/lvgl/src/widgets/lv_table.c ****             table->col_act = LV_TABLE_CELL_NONE;
 520:Middlewares/lvgl/src/widgets/lv_table.c ****             table->row_act = LV_TABLE_CELL_NONE;
 521:Middlewares/lvgl/src/widgets/lv_table.c ****         }
 522:Middlewares/lvgl/src/widgets/lv_table.c ****     }
 523:Middlewares/lvgl/src/widgets/lv_table.c ****     else if(code == LV_EVENT_FOCUSED) {
 524:Middlewares/lvgl/src/widgets/lv_table.c ****         lv_obj_invalidate(obj);
 525:Middlewares/lvgl/src/widgets/lv_table.c ****     } else if(code == LV_EVENT_KEY) {
 526:Middlewares/lvgl/src/widgets/lv_table.c ****         int32_t c = *((int32_t *)lv_event_get_param(e));
 527:Middlewares/lvgl/src/widgets/lv_table.c ****         int32_t col = table->col_act;
 528:Middlewares/lvgl/src/widgets/lv_table.c ****         int32_t row = table->row_act;
 529:Middlewares/lvgl/src/widgets/lv_table.c ****         if(col == LV_TABLE_CELL_NONE || row == LV_TABLE_CELL_NONE) {
 530:Middlewares/lvgl/src/widgets/lv_table.c ****             table->col_act = 0;
 531:Middlewares/lvgl/src/widgets/lv_table.c ****             table->row_act = 0;
 532:Middlewares/lvgl/src/widgets/lv_table.c ****             lv_obj_invalidate(obj);
 533:Middlewares/lvgl/src/widgets/lv_table.c ****             return;
 534:Middlewares/lvgl/src/widgets/lv_table.c ****         }
 535:Middlewares/lvgl/src/widgets/lv_table.c **** 
 536:Middlewares/lvgl/src/widgets/lv_table.c ****         if(col >= table->col_cnt) col = 0;
 537:Middlewares/lvgl/src/widgets/lv_table.c ****         if(row >= table->row_cnt) row = 0;
 538:Middlewares/lvgl/src/widgets/lv_table.c **** 
 539:Middlewares/lvgl/src/widgets/lv_table.c ****         if(c == LV_KEY_LEFT) col--;
 540:Middlewares/lvgl/src/widgets/lv_table.c ****         else if(c == LV_KEY_RIGHT) col++;
 541:Middlewares/lvgl/src/widgets/lv_table.c ****         else if(c == LV_KEY_UP) row--;
 542:Middlewares/lvgl/src/widgets/lv_table.c ****         else if(c == LV_KEY_DOWN) row++;
 543:Middlewares/lvgl/src/widgets/lv_table.c ****         else return;
 544:Middlewares/lvgl/src/widgets/lv_table.c **** 
ARM GAS  /tmp/ccJnAI63.s 			page 11


 545:Middlewares/lvgl/src/widgets/lv_table.c ****         if(col >= table->col_cnt) {
 546:Middlewares/lvgl/src/widgets/lv_table.c ****             if(row < table->row_cnt - 1) {
 547:Middlewares/lvgl/src/widgets/lv_table.c ****                 col = 0;
 548:Middlewares/lvgl/src/widgets/lv_table.c ****                 row++;
 549:Middlewares/lvgl/src/widgets/lv_table.c ****             } else {
 550:Middlewares/lvgl/src/widgets/lv_table.c ****                 col = table->col_cnt - 1;
 551:Middlewares/lvgl/src/widgets/lv_table.c ****             }
 552:Middlewares/lvgl/src/widgets/lv_table.c ****         } else if (col < 0) {
 553:Middlewares/lvgl/src/widgets/lv_table.c ****             if(row != 0) {
 554:Middlewares/lvgl/src/widgets/lv_table.c ****                 col = table->col_cnt - 1;
 555:Middlewares/lvgl/src/widgets/lv_table.c ****                 row--;
 556:Middlewares/lvgl/src/widgets/lv_table.c ****             } else {
 557:Middlewares/lvgl/src/widgets/lv_table.c ****                 col = 0;
 558:Middlewares/lvgl/src/widgets/lv_table.c ****             }
 559:Middlewares/lvgl/src/widgets/lv_table.c ****         }
 560:Middlewares/lvgl/src/widgets/lv_table.c **** 
 561:Middlewares/lvgl/src/widgets/lv_table.c ****         if(row >= table->row_cnt) {
 562:Middlewares/lvgl/src/widgets/lv_table.c ****             row = table->row_cnt - 1;
 563:Middlewares/lvgl/src/widgets/lv_table.c ****         } else if(row < 0) {
 564:Middlewares/lvgl/src/widgets/lv_table.c ****             row = 0;
 565:Middlewares/lvgl/src/widgets/lv_table.c ****         }
 566:Middlewares/lvgl/src/widgets/lv_table.c **** 
 567:Middlewares/lvgl/src/widgets/lv_table.c ****         if(table->col_act != col || table->row_act != row) {
 568:Middlewares/lvgl/src/widgets/lv_table.c ****             table->col_act = col;
 569:Middlewares/lvgl/src/widgets/lv_table.c ****             table->row_act = row;
 570:Middlewares/lvgl/src/widgets/lv_table.c ****             lv_obj_invalidate(obj);
 571:Middlewares/lvgl/src/widgets/lv_table.c **** 
 572:Middlewares/lvgl/src/widgets/lv_table.c ****             res = lv_event_send(obj, LV_EVENT_VALUE_CHANGED, NULL);
 573:Middlewares/lvgl/src/widgets/lv_table.c ****             if(res != LV_RES_OK) return;
 574:Middlewares/lvgl/src/widgets/lv_table.c ****         }
 575:Middlewares/lvgl/src/widgets/lv_table.c ****     } else if(code == LV_EVENT_DRAW_MAIN) {
 576:Middlewares/lvgl/src/widgets/lv_table.c ****         draw_main(e);
 577:Middlewares/lvgl/src/widgets/lv_table.c ****     }
 578:Middlewares/lvgl/src/widgets/lv_table.c **** }
 579:Middlewares/lvgl/src/widgets/lv_table.c **** 
 580:Middlewares/lvgl/src/widgets/lv_table.c **** 
 581:Middlewares/lvgl/src/widgets/lv_table.c **** static void draw_main(lv_event_t * e)
 582:Middlewares/lvgl/src/widgets/lv_table.c **** {
 583:Middlewares/lvgl/src/widgets/lv_table.c ****     lv_obj_t * obj = lv_event_get_target(e);
 584:Middlewares/lvgl/src/widgets/lv_table.c ****     lv_table_t * table = (lv_table_t *)obj;
 585:Middlewares/lvgl/src/widgets/lv_table.c ****     const lv_area_t * clip_area = lv_event_get_param(e);
 586:Middlewares/lvgl/src/widgets/lv_table.c **** 
 587:Middlewares/lvgl/src/widgets/lv_table.c ****     lv_point_t txt_size;
 588:Middlewares/lvgl/src/widgets/lv_table.c ****     lv_area_t cell_area;
 589:Middlewares/lvgl/src/widgets/lv_table.c ****     lv_area_t txt_area;
 590:Middlewares/lvgl/src/widgets/lv_table.c ****     lv_text_flag_t txt_flags;
 591:Middlewares/lvgl/src/widgets/lv_table.c **** 
 592:Middlewares/lvgl/src/widgets/lv_table.c ****     lv_coord_t bg_top = lv_obj_get_style_pad_top(obj, LV_PART_MAIN);
 593:Middlewares/lvgl/src/widgets/lv_table.c ****     lv_coord_t bg_bottom = lv_obj_get_style_pad_bottom(obj, LV_PART_MAIN);
 594:Middlewares/lvgl/src/widgets/lv_table.c ****     lv_coord_t bg_left = lv_obj_get_style_pad_left(obj, LV_PART_MAIN);
 595:Middlewares/lvgl/src/widgets/lv_table.c ****     lv_coord_t bg_right = lv_obj_get_style_pad_right(obj, LV_PART_MAIN);
 596:Middlewares/lvgl/src/widgets/lv_table.c **** 
 597:Middlewares/lvgl/src/widgets/lv_table.c ****     lv_coord_t cell_left = lv_obj_get_style_pad_left(obj, LV_PART_ITEMS);
 598:Middlewares/lvgl/src/widgets/lv_table.c ****     lv_coord_t cell_right = lv_obj_get_style_pad_right(obj, LV_PART_ITEMS);
 599:Middlewares/lvgl/src/widgets/lv_table.c ****     lv_coord_t cell_top = lv_obj_get_style_pad_top(obj, LV_PART_ITEMS);
 600:Middlewares/lvgl/src/widgets/lv_table.c ****     lv_coord_t cell_bottom = lv_obj_get_style_pad_bottom(obj, LV_PART_ITEMS);
 601:Middlewares/lvgl/src/widgets/lv_table.c **** 
ARM GAS  /tmp/ccJnAI63.s 			page 12


 602:Middlewares/lvgl/src/widgets/lv_table.c ****     lv_state_t state_ori = obj->state;
 603:Middlewares/lvgl/src/widgets/lv_table.c ****     obj->state = LV_STATE_DEFAULT;
 604:Middlewares/lvgl/src/widgets/lv_table.c ****     obj->skip_trans = 1;
 605:Middlewares/lvgl/src/widgets/lv_table.c ****     lv_draw_rect_dsc_t rect_dsc_def;
 606:Middlewares/lvgl/src/widgets/lv_table.c ****     lv_draw_rect_dsc_t rect_dsc_act; /*Passed to the event to modify it*/
 607:Middlewares/lvgl/src/widgets/lv_table.c ****     lv_draw_rect_dsc_init(&rect_dsc_def);
 608:Middlewares/lvgl/src/widgets/lv_table.c ****     lv_obj_init_draw_rect_dsc(obj, LV_PART_ITEMS, &rect_dsc_def);
 609:Middlewares/lvgl/src/widgets/lv_table.c **** 
 610:Middlewares/lvgl/src/widgets/lv_table.c ****     lv_draw_label_dsc_t label_dsc_def;
 611:Middlewares/lvgl/src/widgets/lv_table.c ****     lv_draw_label_dsc_t label_dsc_act;  /*Passed to the event to modify it*/
 612:Middlewares/lvgl/src/widgets/lv_table.c ****     lv_draw_label_dsc_init(&label_dsc_def);
 613:Middlewares/lvgl/src/widgets/lv_table.c ****     lv_obj_init_draw_label_dsc(obj, LV_PART_ITEMS, &label_dsc_def);
 614:Middlewares/lvgl/src/widgets/lv_table.c ****     obj->state = state_ori;
 615:Middlewares/lvgl/src/widgets/lv_table.c ****     obj->skip_trans = 0;
 616:Middlewares/lvgl/src/widgets/lv_table.c **** 
 617:Middlewares/lvgl/src/widgets/lv_table.c ****     uint16_t col;
 618:Middlewares/lvgl/src/widgets/lv_table.c ****     uint16_t row;
 619:Middlewares/lvgl/src/widgets/lv_table.c ****     uint16_t cell = 0;
 620:Middlewares/lvgl/src/widgets/lv_table.c **** 
 621:Middlewares/lvgl/src/widgets/lv_table.c ****     cell_area.y2 = obj->coords.y1 + bg_top - 1 - lv_obj_get_scroll_y(obj) ;
 622:Middlewares/lvgl/src/widgets/lv_table.c ****     lv_coord_t scroll_x = lv_obj_get_scroll_x(obj) ;
 623:Middlewares/lvgl/src/widgets/lv_table.c ****     bool rtl = lv_obj_get_style_base_dir(obj, LV_PART_MAIN) == LV_BASE_DIR_RTL ? true : false;
 624:Middlewares/lvgl/src/widgets/lv_table.c **** 
 625:Middlewares/lvgl/src/widgets/lv_table.c ****     /*Handle custom drawer*/
 626:Middlewares/lvgl/src/widgets/lv_table.c ****     lv_obj_draw_part_dsc_t dsc;
 627:Middlewares/lvgl/src/widgets/lv_table.c ****     lv_obj_draw_dsc_init(&dsc, clip_area);
 628:Middlewares/lvgl/src/widgets/lv_table.c ****     dsc.part = LV_PART_ITEMS;
 629:Middlewares/lvgl/src/widgets/lv_table.c ****     dsc.rect_dsc = &rect_dsc_act;
 630:Middlewares/lvgl/src/widgets/lv_table.c ****     dsc.label_dsc = &label_dsc_act;
 631:Middlewares/lvgl/src/widgets/lv_table.c **** 
 632:Middlewares/lvgl/src/widgets/lv_table.c ****     for(row = 0; row < table->row_cnt; row++) {
 633:Middlewares/lvgl/src/widgets/lv_table.c ****         lv_coord_t h_row = table->row_h[row];
 634:Middlewares/lvgl/src/widgets/lv_table.c **** 
 635:Middlewares/lvgl/src/widgets/lv_table.c ****         cell_area.y1 = cell_area.y2 + 1;
 636:Middlewares/lvgl/src/widgets/lv_table.c ****         cell_area.y2 = cell_area.y1 + h_row - 1;
 637:Middlewares/lvgl/src/widgets/lv_table.c **** 
 638:Middlewares/lvgl/src/widgets/lv_table.c ****         if(cell_area.y1 > clip_area->y2) return;
 639:Middlewares/lvgl/src/widgets/lv_table.c **** 
 640:Middlewares/lvgl/src/widgets/lv_table.c ****         if(rtl) cell_area.x1 = obj->coords.x2 - bg_right - 1 - scroll_x;
 641:Middlewares/lvgl/src/widgets/lv_table.c ****         else cell_area.x2 = obj->coords.x1 + bg_left - 1 - scroll_x;
 642:Middlewares/lvgl/src/widgets/lv_table.c **** 
 643:Middlewares/lvgl/src/widgets/lv_table.c ****         for(col = 0; col < table->col_cnt; col++) {
 644:Middlewares/lvgl/src/widgets/lv_table.c ****             lv_table_cell_ctrl_t ctrl = 0;
 645:Middlewares/lvgl/src/widgets/lv_table.c ****             if(table->cell_data[cell]) ctrl = table->cell_data[cell][0];
 646:Middlewares/lvgl/src/widgets/lv_table.c **** 
 647:Middlewares/lvgl/src/widgets/lv_table.c ****             if(rtl) {
 648:Middlewares/lvgl/src/widgets/lv_table.c ****                 cell_area.x2 = cell_area.x1 - 1;
 649:Middlewares/lvgl/src/widgets/lv_table.c ****                 cell_area.x1 = cell_area.x2 - table->col_w[col] + 1;
 650:Middlewares/lvgl/src/widgets/lv_table.c ****             }
 651:Middlewares/lvgl/src/widgets/lv_table.c ****             else {
 652:Middlewares/lvgl/src/widgets/lv_table.c ****                 cell_area.x1 = cell_area.x2 + 1;
 653:Middlewares/lvgl/src/widgets/lv_table.c ****                 cell_area.x2 = cell_area.x1 + table->col_w[col] - 1;
 654:Middlewares/lvgl/src/widgets/lv_table.c ****             }
 655:Middlewares/lvgl/src/widgets/lv_table.c **** 
 656:Middlewares/lvgl/src/widgets/lv_table.c ****             uint16_t col_merge = 0;
 657:Middlewares/lvgl/src/widgets/lv_table.c ****             for(col_merge = 0; col_merge + col < table->col_cnt - 1; col_merge++) {
 658:Middlewares/lvgl/src/widgets/lv_table.c ****                 if(table->cell_data[cell + col_merge]) {
ARM GAS  /tmp/ccJnAI63.s 			page 13


 659:Middlewares/lvgl/src/widgets/lv_table.c ****                     char * next_cell_data = table->cell_data[cell + col_merge];
 660:Middlewares/lvgl/src/widgets/lv_table.c ****                     if(next_cell_data) ctrl = next_cell_data[0];
 661:Middlewares/lvgl/src/widgets/lv_table.c ****                     if(ctrl & LV_TABLE_CELL_CTRL_MERGE_RIGHT)
 662:Middlewares/lvgl/src/widgets/lv_table.c ****                         if(rtl) cell_area.x1 -= table->col_w[col + col_merge + 1];
 663:Middlewares/lvgl/src/widgets/lv_table.c ****                         else cell_area.x2 += table->col_w[col + col_merge + 1];
 664:Middlewares/lvgl/src/widgets/lv_table.c ****                     else {
 665:Middlewares/lvgl/src/widgets/lv_table.c ****                         break;
 666:Middlewares/lvgl/src/widgets/lv_table.c ****                     }
 667:Middlewares/lvgl/src/widgets/lv_table.c ****                 }
 668:Middlewares/lvgl/src/widgets/lv_table.c ****                 else {
 669:Middlewares/lvgl/src/widgets/lv_table.c ****                     break;
 670:Middlewares/lvgl/src/widgets/lv_table.c ****                 }
 671:Middlewares/lvgl/src/widgets/lv_table.c ****             }
 672:Middlewares/lvgl/src/widgets/lv_table.c **** 
 673:Middlewares/lvgl/src/widgets/lv_table.c ****             if(cell_area.y2 < clip_area->y1) {
 674:Middlewares/lvgl/src/widgets/lv_table.c ****                 cell += col_merge + 1;
 675:Middlewares/lvgl/src/widgets/lv_table.c ****                 col += col_merge;
 676:Middlewares/lvgl/src/widgets/lv_table.c ****                 continue;
 677:Middlewares/lvgl/src/widgets/lv_table.c ****             }
 678:Middlewares/lvgl/src/widgets/lv_table.c **** 
 679:Middlewares/lvgl/src/widgets/lv_table.c ****             /*Expand the cell area with a half border to avoid drawing 2 borders next to each other
 680:Middlewares/lvgl/src/widgets/lv_table.c ****             lv_area_t cell_area_border;
 681:Middlewares/lvgl/src/widgets/lv_table.c ****             lv_area_copy(&cell_area_border, &cell_area);
 682:Middlewares/lvgl/src/widgets/lv_table.c ****             if((rect_dsc_def.border_side & LV_BORDER_SIDE_LEFT) && cell_area_border.x1 > obj->coord
 683:Middlewares/lvgl/src/widgets/lv_table.c ****                 cell_area_border.x1 -= rect_dsc_def.border_width / 2;
 684:Middlewares/lvgl/src/widgets/lv_table.c ****             }
 685:Middlewares/lvgl/src/widgets/lv_table.c ****             if((rect_dsc_def.border_side & LV_BORDER_SIDE_TOP) && cell_area_border.y1 > obj->coords
 686:Middlewares/lvgl/src/widgets/lv_table.c ****                 cell_area_border.y1 -= rect_dsc_def.border_width / 2;
 687:Middlewares/lvgl/src/widgets/lv_table.c ****             }
 688:Middlewares/lvgl/src/widgets/lv_table.c ****             if((rect_dsc_def.border_side & LV_BORDER_SIDE_RIGHT) && cell_area_border.x2 < obj->coor
 689:Middlewares/lvgl/src/widgets/lv_table.c ****                 cell_area_border.x2 += rect_dsc_def.border_width / 2 + (rect_dsc_def.border_width &
 690:Middlewares/lvgl/src/widgets/lv_table.c ****             }
 691:Middlewares/lvgl/src/widgets/lv_table.c ****             if((rect_dsc_def.border_side & LV_BORDER_SIDE_BOTTOM) &&
 692:Middlewares/lvgl/src/widgets/lv_table.c ****                     cell_area_border.y2 < obj->coords.y2 - bg_bottom - 1) {
 693:Middlewares/lvgl/src/widgets/lv_table.c ****                 cell_area_border.y2 += rect_dsc_def.border_width / 2 + (rect_dsc_def.border_width &
 694:Middlewares/lvgl/src/widgets/lv_table.c ****             }
 695:Middlewares/lvgl/src/widgets/lv_table.c **** 
 696:Middlewares/lvgl/src/widgets/lv_table.c ****             lv_state_t cell_state = LV_STATE_DEFAULT;
 697:Middlewares/lvgl/src/widgets/lv_table.c ****             if(row == table->row_act && col == table->col_act) {
 698:Middlewares/lvgl/src/widgets/lv_table.c ****                 if(!(obj->state & LV_STATE_SCROLLED) && (obj->state & LV_STATE_PRESSED)) cell_state
 699:Middlewares/lvgl/src/widgets/lv_table.c ****                 if(obj->state & LV_STATE_FOCUSED) cell_state |= LV_STATE_FOCUSED;
 700:Middlewares/lvgl/src/widgets/lv_table.c ****                 if(obj->state & LV_STATE_FOCUS_KEY) cell_state |= LV_STATE_FOCUS_KEY;
 701:Middlewares/lvgl/src/widgets/lv_table.c ****                 if(obj->state & LV_STATE_EDITED) cell_state |= LV_STATE_EDITED;
 702:Middlewares/lvgl/src/widgets/lv_table.c ****             }
 703:Middlewares/lvgl/src/widgets/lv_table.c **** 
 704:Middlewares/lvgl/src/widgets/lv_table.c ****             /*Set up the draw descriptors*/
 705:Middlewares/lvgl/src/widgets/lv_table.c ****             if(cell_state == LV_STATE_DEFAULT) {
 706:Middlewares/lvgl/src/widgets/lv_table.c ****                 lv_memcpy(&rect_dsc_act, &rect_dsc_def, sizeof(lv_draw_rect_dsc_t));
 707:Middlewares/lvgl/src/widgets/lv_table.c ****                 lv_memcpy(&label_dsc_act, &label_dsc_def, sizeof(lv_draw_label_dsc_t));
 708:Middlewares/lvgl/src/widgets/lv_table.c ****             }
 709:Middlewares/lvgl/src/widgets/lv_table.c ****             /*In other cases get the styles directly without caching them*/
 710:Middlewares/lvgl/src/widgets/lv_table.c ****             else {
 711:Middlewares/lvgl/src/widgets/lv_table.c ****                 obj->state = cell_state;
 712:Middlewares/lvgl/src/widgets/lv_table.c ****                 obj->skip_trans = 1;
 713:Middlewares/lvgl/src/widgets/lv_table.c ****                 lv_draw_rect_dsc_init(&rect_dsc_act);
 714:Middlewares/lvgl/src/widgets/lv_table.c ****                 lv_draw_label_dsc_init(&label_dsc_act);
 715:Middlewares/lvgl/src/widgets/lv_table.c ****                 lv_obj_init_draw_rect_dsc(obj, LV_PART_ITEMS, &rect_dsc_act);
ARM GAS  /tmp/ccJnAI63.s 			page 14


 716:Middlewares/lvgl/src/widgets/lv_table.c ****                 lv_obj_init_draw_label_dsc(obj, LV_PART_ITEMS, &label_dsc_act);
 717:Middlewares/lvgl/src/widgets/lv_table.c ****                 obj->state = state_ori;
 718:Middlewares/lvgl/src/widgets/lv_table.c ****                 obj->skip_trans = 0;
 719:Middlewares/lvgl/src/widgets/lv_table.c ****             }
 720:Middlewares/lvgl/src/widgets/lv_table.c **** 
 721:Middlewares/lvgl/src/widgets/lv_table.c ****             dsc.draw_area = &cell_area_border;
 722:Middlewares/lvgl/src/widgets/lv_table.c ****             dsc.id = row * table->col_cnt + col;
 723:Middlewares/lvgl/src/widgets/lv_table.c ****             lv_event_send(obj, LV_EVENT_DRAW_PART_BEGIN, &dsc);
 724:Middlewares/lvgl/src/widgets/lv_table.c **** 
 725:Middlewares/lvgl/src/widgets/lv_table.c ****             lv_draw_rect(&cell_area_border, clip_area, &rect_dsc_act);
 726:Middlewares/lvgl/src/widgets/lv_table.c **** 
 727:Middlewares/lvgl/src/widgets/lv_table.c ****             if(table->cell_data[cell]) {
 728:Middlewares/lvgl/src/widgets/lv_table.c ****                 txt_area.x1 = cell_area.x1 + cell_left;
 729:Middlewares/lvgl/src/widgets/lv_table.c ****                 txt_area.x2 = cell_area.x2 - cell_right;
 730:Middlewares/lvgl/src/widgets/lv_table.c ****                 txt_area.y1 = cell_area.y1 + cell_top;
 731:Middlewares/lvgl/src/widgets/lv_table.c ****                 txt_area.y2 = cell_area.y2 - cell_bottom;
 732:Middlewares/lvgl/src/widgets/lv_table.c **** 
 733:Middlewares/lvgl/src/widgets/lv_table.c ****                 /*Align the content to the middle if not cropped*/
 734:Middlewares/lvgl/src/widgets/lv_table.c ****                 bool crop = ctrl & LV_TABLE_CELL_CTRL_TEXT_CROP ? true : false;
 735:Middlewares/lvgl/src/widgets/lv_table.c ****                 if(crop) txt_flags = LV_TEXT_FLAG_EXPAND;
 736:Middlewares/lvgl/src/widgets/lv_table.c ****                 else txt_flags = LV_TEXT_FLAG_NONE;
 737:Middlewares/lvgl/src/widgets/lv_table.c **** 
 738:Middlewares/lvgl/src/widgets/lv_table.c ****                 lv_txt_get_size(&txt_size, table->cell_data[cell] + 1, label_dsc_def.font,
 739:Middlewares/lvgl/src/widgets/lv_table.c ****                         label_dsc_act.letter_space, label_dsc_act.line_space,
 740:Middlewares/lvgl/src/widgets/lv_table.c ****                         lv_area_get_width(&txt_area), txt_flags);
 741:Middlewares/lvgl/src/widgets/lv_table.c **** 
 742:Middlewares/lvgl/src/widgets/lv_table.c ****                 /*Align the content to the middle if not cropped*/
 743:Middlewares/lvgl/src/widgets/lv_table.c ****                 if(!crop) {
 744:Middlewares/lvgl/src/widgets/lv_table.c ****                     txt_area.y1 = cell_area.y1 + h_row / 2 - txt_size.y / 2;
 745:Middlewares/lvgl/src/widgets/lv_table.c ****                     txt_area.y2 = cell_area.y1 + h_row / 2 + txt_size.y / 2;
 746:Middlewares/lvgl/src/widgets/lv_table.c ****                 }
 747:Middlewares/lvgl/src/widgets/lv_table.c **** 
 748:Middlewares/lvgl/src/widgets/lv_table.c ****                 lv_area_t label_mask;
 749:Middlewares/lvgl/src/widgets/lv_table.c ****                 bool label_mask_ok;
 750:Middlewares/lvgl/src/widgets/lv_table.c ****                 label_mask_ok = _lv_area_intersect(&label_mask, clip_area, &cell_area);
 751:Middlewares/lvgl/src/widgets/lv_table.c ****                 if(label_mask_ok) {
 752:Middlewares/lvgl/src/widgets/lv_table.c ****                     lv_draw_label(&txt_area, &label_mask, &label_dsc_act, table->cell_data[cell] + 
 753:Middlewares/lvgl/src/widgets/lv_table.c ****                 }
 754:Middlewares/lvgl/src/widgets/lv_table.c ****             }
 755:Middlewares/lvgl/src/widgets/lv_table.c **** 
 756:Middlewares/lvgl/src/widgets/lv_table.c ****             lv_event_send(obj, LV_EVENT_DRAW_PART_END, &dsc);
 757:Middlewares/lvgl/src/widgets/lv_table.c **** 
 758:Middlewares/lvgl/src/widgets/lv_table.c ****             cell += col_merge + 1;
 759:Middlewares/lvgl/src/widgets/lv_table.c ****             col += col_merge;
 760:Middlewares/lvgl/src/widgets/lv_table.c ****         }
 761:Middlewares/lvgl/src/widgets/lv_table.c ****     }
 762:Middlewares/lvgl/src/widgets/lv_table.c **** }
 763:Middlewares/lvgl/src/widgets/lv_table.c **** 
 764:Middlewares/lvgl/src/widgets/lv_table.c **** static void refr_size(lv_obj_t * obj, uint32_t strat_row)
 765:Middlewares/lvgl/src/widgets/lv_table.c **** {
 766:Middlewares/lvgl/src/widgets/lv_table.c ****     lv_table_t * table = (lv_table_t *)obj;
 767:Middlewares/lvgl/src/widgets/lv_table.c **** 
 768:Middlewares/lvgl/src/widgets/lv_table.c ****     uint32_t i;
 769:Middlewares/lvgl/src/widgets/lv_table.c **** 
 770:Middlewares/lvgl/src/widgets/lv_table.c ****     lv_coord_t cell_left = lv_obj_get_style_pad_left(obj, LV_PART_ITEMS);
 771:Middlewares/lvgl/src/widgets/lv_table.c ****     lv_coord_t cell_right = lv_obj_get_style_pad_right(obj, LV_PART_ITEMS);
 772:Middlewares/lvgl/src/widgets/lv_table.c ****     lv_coord_t cell_top = lv_obj_get_style_pad_top(obj, LV_PART_ITEMS);
ARM GAS  /tmp/ccJnAI63.s 			page 15


 773:Middlewares/lvgl/src/widgets/lv_table.c ****     lv_coord_t cell_bottom = lv_obj_get_style_pad_bottom(obj, LV_PART_ITEMS);
 774:Middlewares/lvgl/src/widgets/lv_table.c **** 
 775:Middlewares/lvgl/src/widgets/lv_table.c ****     lv_coord_t letter_space = lv_obj_get_style_text_letter_space(obj, LV_PART_ITEMS);
 776:Middlewares/lvgl/src/widgets/lv_table.c ****     lv_coord_t line_space = lv_obj_get_style_text_line_space(obj, LV_PART_ITEMS);
 777:Middlewares/lvgl/src/widgets/lv_table.c ****     const lv_font_t * font = lv_obj_get_style_text_font(obj, LV_PART_ITEMS);
 778:Middlewares/lvgl/src/widgets/lv_table.c **** 
 779:Middlewares/lvgl/src/widgets/lv_table.c ****     lv_coord_t minh = lv_obj_get_style_min_height(obj, LV_PART_ITEMS);
 780:Middlewares/lvgl/src/widgets/lv_table.c ****     lv_coord_t maxh = lv_obj_get_style_max_height(obj, LV_PART_ITEMS);
 781:Middlewares/lvgl/src/widgets/lv_table.c **** 
 782:Middlewares/lvgl/src/widgets/lv_table.c ****     for(i = strat_row; i < table->row_cnt; i++) {
 783:Middlewares/lvgl/src/widgets/lv_table.c ****         table->row_h[i] = get_row_height(obj, i, font, letter_space, line_space,
 784:Middlewares/lvgl/src/widgets/lv_table.c ****                                        cell_left, cell_right, cell_top, cell_bottom);
 785:Middlewares/lvgl/src/widgets/lv_table.c ****         table->row_h[i] = LV_CLAMP(minh, table->row_h[i], maxh);
 786:Middlewares/lvgl/src/widgets/lv_table.c ****     }
 787:Middlewares/lvgl/src/widgets/lv_table.c **** 
 788:Middlewares/lvgl/src/widgets/lv_table.c ****     lv_obj_refresh_self_size(obj) ;
 789:Middlewares/lvgl/src/widgets/lv_table.c **** }
 790:Middlewares/lvgl/src/widgets/lv_table.c **** 
 791:Middlewares/lvgl/src/widgets/lv_table.c **** static lv_coord_t get_row_height(lv_obj_t * obj, uint16_t row_id, const lv_font_t * font,
 792:Middlewares/lvgl/src/widgets/lv_table.c ****                                  lv_coord_t letter_space, lv_coord_t line_space,
 793:Middlewares/lvgl/src/widgets/lv_table.c ****                                  lv_coord_t cell_left, lv_coord_t cell_right, lv_coord_t cell_top, 
 794:Middlewares/lvgl/src/widgets/lv_table.c **** {
  28              		.loc 1 794 1 view -0
  29              		.cfi_startproc
  30              		@ args = 20, pretend = 0, frame = 48
  31              		@ frame_needed = 0, uses_anonymous_args = 0
  32              		.loc 1 794 1 is_stmt 0 view .LVU1
  33 0000 2DE9F04F 		push	{r4, r5, r6, r7, r8, r9, r10, fp, lr}
  34              	.LCFI0:
  35              		.cfi_def_cfa_offset 36
  36              		.cfi_offset 4, -36
  37              		.cfi_offset 5, -32
  38              		.cfi_offset 6, -28
  39              		.cfi_offset 7, -24
  40              		.cfi_offset 8, -20
  41              		.cfi_offset 9, -16
  42              		.cfi_offset 10, -12
  43              		.cfi_offset 11, -8
  44              		.cfi_offset 14, -4
  45 0004 91B0     		sub	sp, sp, #68
  46              	.LCFI1:
  47              		.cfi_def_cfa_offset 104
  48 0006 8046     		mov	r8, r0
  49 0008 0592     		str	r2, [sp, #20]
  50 000a 0A93     		str	r3, [sp, #40]
  51 000c BDF96830 		ldrsh	r3, [sp, #104]
  52              	.LVL1:
  53              		.loc 1 794 1 view .LVU2
  54 0010 0B93     		str	r3, [sp, #44]
  55 0012 BDF96C30 		ldrsh	r3, [sp, #108]
  56 0016 0C93     		str	r3, [sp, #48]
  57 0018 BDF97030 		ldrsh	r3, [sp, #112]
  58 001c 0D93     		str	r3, [sp, #52]
  59 001e BDF97430 		ldrsh	r3, [sp, #116]
  60 0022 0693     		str	r3, [sp, #24]
  61 0024 BDF97800 		ldrsh	r0, [sp, #120]
  62              	.LVL2:
ARM GAS  /tmp/ccJnAI63.s 			page 16


  63              		.loc 1 794 1 view .LVU3
  64 0028 0790     		str	r0, [sp, #28]
 795:Middlewares/lvgl/src/widgets/lv_table.c ****     lv_table_t * table = (lv_table_t *)obj;
  65              		.loc 1 795 5 is_stmt 1 view .LVU4
  66              	.LVL3:
 796:Middlewares/lvgl/src/widgets/lv_table.c ****     lv_point_t txt_size;
  67              		.loc 1 796 5 view .LVU5
 797:Middlewares/lvgl/src/widgets/lv_table.c ****     lv_coord_t txt_w;
  68              		.loc 1 797 5 view .LVU6
 798:Middlewares/lvgl/src/widgets/lv_table.c **** 
 799:Middlewares/lvgl/src/widgets/lv_table.c ****     uint16_t row_start = row_id * table->col_cnt;
  69              		.loc 1 799 5 view .LVU7
  70              		.loc 1 799 40 is_stmt 0 view .LVU8
  71 002a B8F82490 		ldrh	r9, [r8, #36]
  72              		.loc 1 799 14 view .LVU9
  73 002e 19FB01F9 		smulbb	r9, r9, r1
  74 0032 1FFA89F9 		uxth	r9, r9
  75              	.LVL4:
 800:Middlewares/lvgl/src/widgets/lv_table.c ****     uint16_t cell;
  76              		.loc 1 800 5 is_stmt 1 view .LVU10
 801:Middlewares/lvgl/src/widgets/lv_table.c ****     uint16_t col;
  77              		.loc 1 801 5 view .LVU11
 802:Middlewares/lvgl/src/widgets/lv_table.c ****     lv_coord_t h_max = lv_font_get_line_height(font) + cell_top + cell_bottom;
  78              		.loc 1 802 5 view .LVU12
  79              	.LBB86:
  80              	.LBI86:
  81              		.file 2 "Middlewares/lvgl/src/widgets/../core/../misc/../font/lv_font.h"
   1:Middlewares/lvgl/src/widgets/../core/../misc/../font/lv_font.h **** /**
   2:Middlewares/lvgl/src/widgets/../core/../misc/../font/lv_font.h ****  * @file lv_font.h
   3:Middlewares/lvgl/src/widgets/../core/../misc/../font/lv_font.h ****  *
   4:Middlewares/lvgl/src/widgets/../core/../misc/../font/lv_font.h ****  */
   5:Middlewares/lvgl/src/widgets/../core/../misc/../font/lv_font.h **** 
   6:Middlewares/lvgl/src/widgets/../core/../misc/../font/lv_font.h **** #ifndef LV_FONT_H
   7:Middlewares/lvgl/src/widgets/../core/../misc/../font/lv_font.h **** #define LV_FONT_H
   8:Middlewares/lvgl/src/widgets/../core/../misc/../font/lv_font.h **** 
   9:Middlewares/lvgl/src/widgets/../core/../misc/../font/lv_font.h **** #ifdef __cplusplus
  10:Middlewares/lvgl/src/widgets/../core/../misc/../font/lv_font.h **** extern "C" {
  11:Middlewares/lvgl/src/widgets/../core/../misc/../font/lv_font.h **** #endif
  12:Middlewares/lvgl/src/widgets/../core/../misc/../font/lv_font.h **** 
  13:Middlewares/lvgl/src/widgets/../core/../misc/../font/lv_font.h **** /*********************
  14:Middlewares/lvgl/src/widgets/../core/../misc/../font/lv_font.h ****  *      INCLUDES
  15:Middlewares/lvgl/src/widgets/../core/../misc/../font/lv_font.h ****  *********************/
  16:Middlewares/lvgl/src/widgets/../core/../misc/../font/lv_font.h **** #include "../lv_conf_internal.h"
  17:Middlewares/lvgl/src/widgets/../core/../misc/../font/lv_font.h **** #include <stdint.h>
  18:Middlewares/lvgl/src/widgets/../core/../misc/../font/lv_font.h **** #include <stddef.h>
  19:Middlewares/lvgl/src/widgets/../core/../misc/../font/lv_font.h **** #include <stdbool.h>
  20:Middlewares/lvgl/src/widgets/../core/../misc/../font/lv_font.h **** 
  21:Middlewares/lvgl/src/widgets/../core/../misc/../font/lv_font.h **** #include "lv_symbol_def.h"
  22:Middlewares/lvgl/src/widgets/../core/../misc/../font/lv_font.h **** #include "../misc/lv_area.h"
  23:Middlewares/lvgl/src/widgets/../core/../misc/../font/lv_font.h **** 
  24:Middlewares/lvgl/src/widgets/../core/../misc/../font/lv_font.h **** /*********************
  25:Middlewares/lvgl/src/widgets/../core/../misc/../font/lv_font.h ****  *      DEFINES
  26:Middlewares/lvgl/src/widgets/../core/../misc/../font/lv_font.h ****  *********************/
  27:Middlewares/lvgl/src/widgets/../core/../misc/../font/lv_font.h **** 
  28:Middlewares/lvgl/src/widgets/../core/../misc/../font/lv_font.h **** /**********************
  29:Middlewares/lvgl/src/widgets/../core/../misc/../font/lv_font.h ****  *      TYPEDEFS
  30:Middlewares/lvgl/src/widgets/../core/../misc/../font/lv_font.h ****  **********************/
ARM GAS  /tmp/ccJnAI63.s 			page 17


  31:Middlewares/lvgl/src/widgets/../core/../misc/../font/lv_font.h **** 
  32:Middlewares/lvgl/src/widgets/../core/../misc/../font/lv_font.h **** /*------------------
  33:Middlewares/lvgl/src/widgets/../core/../misc/../font/lv_font.h ****  * General types
  34:Middlewares/lvgl/src/widgets/../core/../misc/../font/lv_font.h ****  *-----------------*/
  35:Middlewares/lvgl/src/widgets/../core/../misc/../font/lv_font.h **** 
  36:Middlewares/lvgl/src/widgets/../core/../misc/../font/lv_font.h **** /** Describes the properties of a glyph.*/
  37:Middlewares/lvgl/src/widgets/../core/../misc/../font/lv_font.h **** typedef struct {
  38:Middlewares/lvgl/src/widgets/../core/../misc/../font/lv_font.h ****     uint16_t adv_w; /**< The glyph needs this space. Draw the next glyph after this width.*/
  39:Middlewares/lvgl/src/widgets/../core/../misc/../font/lv_font.h ****     uint16_t box_w;  /**< Width of the glyph's bounding box*/
  40:Middlewares/lvgl/src/widgets/../core/../misc/../font/lv_font.h ****     uint16_t box_h;  /**< Height of the glyph's bounding box*/
  41:Middlewares/lvgl/src/widgets/../core/../misc/../font/lv_font.h ****     int16_t ofs_x;   /**< x offset of the bounding box*/
  42:Middlewares/lvgl/src/widgets/../core/../misc/../font/lv_font.h ****     int16_t ofs_y;  /**< y offset of the bounding box*/
  43:Middlewares/lvgl/src/widgets/../core/../misc/../font/lv_font.h ****     uint8_t bpp;   /**< Bit-per-pixel: 1, 2, 4, 8*/
  44:Middlewares/lvgl/src/widgets/../core/../misc/../font/lv_font.h **** } lv_font_glyph_dsc_t;
  45:Middlewares/lvgl/src/widgets/../core/../misc/../font/lv_font.h **** 
  46:Middlewares/lvgl/src/widgets/../core/../misc/../font/lv_font.h **** /** The bitmaps might be upscaled by 3 to achieve subpixel rendering.*/
  47:Middlewares/lvgl/src/widgets/../core/../misc/../font/lv_font.h **** enum {
  48:Middlewares/lvgl/src/widgets/../core/../misc/../font/lv_font.h ****     LV_FONT_SUBPX_NONE,
  49:Middlewares/lvgl/src/widgets/../core/../misc/../font/lv_font.h ****     LV_FONT_SUBPX_HOR,
  50:Middlewares/lvgl/src/widgets/../core/../misc/../font/lv_font.h ****     LV_FONT_SUBPX_VER,
  51:Middlewares/lvgl/src/widgets/../core/../misc/../font/lv_font.h ****     LV_FONT_SUBPX_BOTH,
  52:Middlewares/lvgl/src/widgets/../core/../misc/../font/lv_font.h **** };
  53:Middlewares/lvgl/src/widgets/../core/../misc/../font/lv_font.h **** 
  54:Middlewares/lvgl/src/widgets/../core/../misc/../font/lv_font.h **** typedef uint8_t lv_font_subpx_t;
  55:Middlewares/lvgl/src/widgets/../core/../misc/../font/lv_font.h **** 
  56:Middlewares/lvgl/src/widgets/../core/../misc/../font/lv_font.h **** struct _lv_font_t;
  57:Middlewares/lvgl/src/widgets/../core/../misc/../font/lv_font.h **** 
  58:Middlewares/lvgl/src/widgets/../core/../misc/../font/lv_font.h **** /** Describe the properties of a font*/
  59:Middlewares/lvgl/src/widgets/../core/../misc/../font/lv_font.h **** typedef struct _lv_font_t {
  60:Middlewares/lvgl/src/widgets/../core/../misc/../font/lv_font.h ****     /** Get a glyph's descriptor from a font*/
  61:Middlewares/lvgl/src/widgets/../core/../misc/../font/lv_font.h ****     bool (*get_glyph_dsc)(const struct _lv_font_t *, lv_font_glyph_dsc_t *, uint32_t letter, uint32
  62:Middlewares/lvgl/src/widgets/../core/../misc/../font/lv_font.h **** 
  63:Middlewares/lvgl/src/widgets/../core/../misc/../font/lv_font.h ****     /** Get a glyph's bitmap from a font*/
  64:Middlewares/lvgl/src/widgets/../core/../misc/../font/lv_font.h ****     const uint8_t * (*get_glyph_bitmap)(const struct _lv_font_t *, uint32_t);
  65:Middlewares/lvgl/src/widgets/../core/../misc/../font/lv_font.h **** 
  66:Middlewares/lvgl/src/widgets/../core/../misc/../font/lv_font.h ****     /*Pointer to the font in a font pack (must have the same line height)*/
  67:Middlewares/lvgl/src/widgets/../core/../misc/../font/lv_font.h ****     lv_coord_t line_height;         /**< The real line height where any text fits*/
  68:Middlewares/lvgl/src/widgets/../core/../misc/../font/lv_font.h ****     lv_coord_t base_line;           /**< Base line measured from the top of the line_height*/
  69:Middlewares/lvgl/src/widgets/../core/../misc/../font/lv_font.h ****     uint8_t subpx  : 2;             /**< An element of `lv_font_subpx_t`*/
  70:Middlewares/lvgl/src/widgets/../core/../misc/../font/lv_font.h **** 
  71:Middlewares/lvgl/src/widgets/../core/../misc/../font/lv_font.h ****     int8_t underline_position;      /**< Distance between the top of the underline and base line (<
  72:Middlewares/lvgl/src/widgets/../core/../misc/../font/lv_font.h ****     int8_t underline_thickness;     /**< Thickness of the underline*/
  73:Middlewares/lvgl/src/widgets/../core/../misc/../font/lv_font.h **** 
  74:Middlewares/lvgl/src/widgets/../core/../misc/../font/lv_font.h ****     const void * dsc;                     /**< Store implementation specific or run_time data or ca
  75:Middlewares/lvgl/src/widgets/../core/../misc/../font/lv_font.h **** #if LV_USE_USER_DATA
  76:Middlewares/lvgl/src/widgets/../core/../misc/../font/lv_font.h ****     void * user_data;               /**< Custom user data for font.*/
  77:Middlewares/lvgl/src/widgets/../core/../misc/../font/lv_font.h **** #endif
  78:Middlewares/lvgl/src/widgets/../core/../misc/../font/lv_font.h **** 
  79:Middlewares/lvgl/src/widgets/../core/../misc/../font/lv_font.h **** } lv_font_t;
  80:Middlewares/lvgl/src/widgets/../core/../misc/../font/lv_font.h **** 
  81:Middlewares/lvgl/src/widgets/../core/../misc/../font/lv_font.h **** /**********************
  82:Middlewares/lvgl/src/widgets/../core/../misc/../font/lv_font.h ****  * GLOBAL PROTOTYPES
  83:Middlewares/lvgl/src/widgets/../core/../misc/../font/lv_font.h ****  **********************/
  84:Middlewares/lvgl/src/widgets/../core/../misc/../font/lv_font.h **** 
  85:Middlewares/lvgl/src/widgets/../core/../misc/../font/lv_font.h **** /**
  86:Middlewares/lvgl/src/widgets/../core/../misc/../font/lv_font.h ****  * Return with the bitmap of a font.
  87:Middlewares/lvgl/src/widgets/../core/../misc/../font/lv_font.h ****  * @param font_p pointer to a font
ARM GAS  /tmp/ccJnAI63.s 			page 18


  88:Middlewares/lvgl/src/widgets/../core/../misc/../font/lv_font.h ****  * @param letter an UNICODE character code
  89:Middlewares/lvgl/src/widgets/../core/../misc/../font/lv_font.h ****  * @return pointer to the bitmap of the letter
  90:Middlewares/lvgl/src/widgets/../core/../misc/../font/lv_font.h ****  */
  91:Middlewares/lvgl/src/widgets/../core/../misc/../font/lv_font.h **** const uint8_t * lv_font_get_glyph_bitmap(const lv_font_t * font_p, uint32_t letter);
  92:Middlewares/lvgl/src/widgets/../core/../misc/../font/lv_font.h **** 
  93:Middlewares/lvgl/src/widgets/../core/../misc/../font/lv_font.h **** /**
  94:Middlewares/lvgl/src/widgets/../core/../misc/../font/lv_font.h ****  * Get the descriptor of a glyph
  95:Middlewares/lvgl/src/widgets/../core/../misc/../font/lv_font.h ****  * @param font_p pointer to font
  96:Middlewares/lvgl/src/widgets/../core/../misc/../font/lv_font.h ****  * @param dsc_out store the result descriptor here
  97:Middlewares/lvgl/src/widgets/../core/../misc/../font/lv_font.h ****  * @param letter an UNICODE letter code
  98:Middlewares/lvgl/src/widgets/../core/../misc/../font/lv_font.h ****  * @return true: descriptor is successfully loaded into `dsc_out`.
  99:Middlewares/lvgl/src/widgets/../core/../misc/../font/lv_font.h ****  *         false: the letter was not found, no data is loaded to `dsc_out`
 100:Middlewares/lvgl/src/widgets/../core/../misc/../font/lv_font.h ****  */
 101:Middlewares/lvgl/src/widgets/../core/../misc/../font/lv_font.h **** bool lv_font_get_glyph_dsc(const lv_font_t * font_p, lv_font_glyph_dsc_t * dsc_out, uint32_t letter
 102:Middlewares/lvgl/src/widgets/../core/../misc/../font/lv_font.h ****                            uint32_t letter_next);
 103:Middlewares/lvgl/src/widgets/../core/../misc/../font/lv_font.h **** 
 104:Middlewares/lvgl/src/widgets/../core/../misc/../font/lv_font.h **** /**
 105:Middlewares/lvgl/src/widgets/../core/../misc/../font/lv_font.h ****  * Get the width of a glyph with kerning
 106:Middlewares/lvgl/src/widgets/../core/../misc/../font/lv_font.h ****  * @param font pointer to a font
 107:Middlewares/lvgl/src/widgets/../core/../misc/../font/lv_font.h ****  * @param letter an UNICODE letter
 108:Middlewares/lvgl/src/widgets/../core/../misc/../font/lv_font.h ****  * @param letter_next the next letter after `letter`. Used for kerning
 109:Middlewares/lvgl/src/widgets/../core/../misc/../font/lv_font.h ****  * @return the width of the glyph
 110:Middlewares/lvgl/src/widgets/../core/../misc/../font/lv_font.h ****  */
 111:Middlewares/lvgl/src/widgets/../core/../misc/../font/lv_font.h **** uint16_t lv_font_get_glyph_width(const lv_font_t * font, uint32_t letter, uint32_t letter_next);
 112:Middlewares/lvgl/src/widgets/../core/../misc/../font/lv_font.h **** 
 113:Middlewares/lvgl/src/widgets/../core/../misc/../font/lv_font.h **** /**
 114:Middlewares/lvgl/src/widgets/../core/../misc/../font/lv_font.h ****  * Get the line height of a font. All characters fit into this height
 115:Middlewares/lvgl/src/widgets/../core/../misc/../font/lv_font.h ****  * @param font_p pointer to a font
 116:Middlewares/lvgl/src/widgets/../core/../misc/../font/lv_font.h ****  * @return the height of a font
 117:Middlewares/lvgl/src/widgets/../core/../misc/../font/lv_font.h ****  */
 118:Middlewares/lvgl/src/widgets/../core/../misc/../font/lv_font.h **** static inline lv_coord_t lv_font_get_line_height(const lv_font_t * font_p)
  82              		.loc 2 118 26 view .LVU13
  83              	.LBB87:
 119:Middlewares/lvgl/src/widgets/../core/../misc/../font/lv_font.h **** {
 120:Middlewares/lvgl/src/widgets/../core/../misc/../font/lv_font.h ****     return font_p->line_height;
  84              		.loc 2 120 5 view .LVU14
  85              		.loc 2 120 18 is_stmt 0 view .LVU15
  86 0036 B2F90870 		ldrsh	r7, [r2, #8]
  87              	.LVL5:
  88              		.loc 2 120 18 view .LVU16
  89              	.LBE87:
  90              	.LBE86:
  91              		.loc 1 802 54 view .LVU17
  92 003a 9BB2     		uxth	r3, r3
  93 003c 0893     		str	r3, [sp, #32]
  94 003e 13FA87F7 		uxtah	r7, r3, r7
  95              		.loc 1 802 65 view .LVU18
  96 0042 83B2     		uxth	r3, r0
  97 0044 0993     		str	r3, [sp, #36]
  98 0046 13FA87F7 		uxtah	r7, r3, r7
  99              		.loc 1 802 16 view .LVU19
 100 004a 3FB2     		sxth	r7, r7
 101              	.LVL6:
 803:Middlewares/lvgl/src/widgets/lv_table.c **** 
 804:Middlewares/lvgl/src/widgets/lv_table.c ****     for(cell = row_start, col = 0; cell < row_start + table->col_cnt; cell++, col++) {
 102              		.loc 1 804 5 is_stmt 1 view .LVU20
 103              		.loc 1 804 14 is_stmt 0 view .LVU21
ARM GAS  /tmp/ccJnAI63.s 			page 19


 104 004c 4E46     		mov	r6, r9
 105              		.loc 1 804 31 view .LVU22
 106 004e 0025     		movs	r5, #0
 107              		.loc 1 804 5 view .LVU23
 108 0050 18E0     		b	.L2
 109              	.LVL7:
 110              	.L5:
 111              	.LBB88:
 805:Middlewares/lvgl/src/widgets/lv_table.c ****         if(table->cell_data[cell] != NULL) {
 806:Middlewares/lvgl/src/widgets/lv_table.c ****             txt_w              = table->col_w[col];
 807:Middlewares/lvgl/src/widgets/lv_table.c ****             uint16_t col_merge = 0;
 808:Middlewares/lvgl/src/widgets/lv_table.c ****             for(col_merge = 0; col_merge + col < table->col_cnt - 1; col_merge++) {
 809:Middlewares/lvgl/src/widgets/lv_table.c **** 
 810:Middlewares/lvgl/src/widgets/lv_table.c ****                 if(table->cell_data[cell + col_merge] != NULL) {
 811:Middlewares/lvgl/src/widgets/lv_table.c ****                     lv_table_cell_ctrl_t ctrl = 0;
 812:Middlewares/lvgl/src/widgets/lv_table.c ****                     char * next_cell_data = table->cell_data[cell + col_merge];
 813:Middlewares/lvgl/src/widgets/lv_table.c ****                     if(next_cell_data) ctrl = next_cell_data[0];
 814:Middlewares/lvgl/src/widgets/lv_table.c ****                     if(ctrl & LV_TABLE_CELL_CTRL_MERGE_RIGHT)
 815:Middlewares/lvgl/src/widgets/lv_table.c ****                         txt_w += table->col_w[col + col_merge + 1];
 816:Middlewares/lvgl/src/widgets/lv_table.c ****                     else
 817:Middlewares/lvgl/src/widgets/lv_table.c ****                         break;
 818:Middlewares/lvgl/src/widgets/lv_table.c ****                 }
 819:Middlewares/lvgl/src/widgets/lv_table.c ****                 else {
 820:Middlewares/lvgl/src/widgets/lv_table.c ****                     break;
 821:Middlewares/lvgl/src/widgets/lv_table.c ****                 }
 822:Middlewares/lvgl/src/widgets/lv_table.c ****             }
 823:Middlewares/lvgl/src/widgets/lv_table.c **** 
 824:Middlewares/lvgl/src/widgets/lv_table.c ****             lv_table_cell_ctrl_t ctrl = 0;
 112              		.loc 1 824 13 is_stmt 1 discriminator 1 view .LVU24
 825:Middlewares/lvgl/src/widgets/lv_table.c ****             if(table->cell_data[cell]) ctrl = table->cell_data[cell][0];
 113              		.loc 1 825 13 discriminator 1 view .LVU25
 114              		.loc 1 825 40 discriminator 1 view .LVU26
 115              		.loc 1 825 45 is_stmt 0 discriminator 1 view .LVU27
 116 0052 9EF80020 		ldrb	r2, [lr]	@ zero_extendqisi2
 117              	.LVL8:
 826:Middlewares/lvgl/src/widgets/lv_table.c **** 
 827:Middlewares/lvgl/src/widgets/lv_table.c ****             /*With text crop assume 1 line*/
 828:Middlewares/lvgl/src/widgets/lv_table.c ****             if(ctrl & LV_TABLE_CELL_CTRL_TEXT_CROP) {
 118              		.loc 1 828 13 is_stmt 1 discriminator 1 view .LVU28
 119              		.loc 1 828 15 is_stmt 0 discriminator 1 view .LVU29
 120 0056 12F0020F 		tst	r2, #2
 121 005a 3DD0     		beq	.L7
 829:Middlewares/lvgl/src/widgets/lv_table.c ****                 h_max = LV_MAX(lv_font_get_line_height(font) + cell_top + cell_bottom,
 122              		.loc 1 829 17 is_stmt 1 view .LVU30
 123              	.LVL9:
 124              	.LBB89:
 125              	.LBI89:
 118:Middlewares/lvgl/src/widgets/../core/../misc/../font/lv_font.h **** {
 126              		.loc 2 118 26 view .LVU31
 127              	.LBB90:
 128              		.loc 2 120 5 view .LVU32
 129              		.loc 2 120 18 is_stmt 0 view .LVU33
 130 005c 059B     		ldr	r3, [sp, #20]
 131              	.LVL10:
 132              		.loc 2 120 18 view .LVU34
 133 005e B3F90830 		ldrsh	r3, [r3, #8]
 134              	.LVL11:
ARM GAS  /tmp/ccJnAI63.s 			page 20


 135              		.loc 2 120 18 view .LVU35
 136              	.LBE90:
 137              	.LBE89:
 138              		.loc 1 829 25 view .LVU36
 139 0062 069A     		ldr	r2, [sp, #24]
 140              	.LVL12:
 141              		.loc 1 829 25 view .LVU37
 142 0064 1A44     		add	r2, r2, r3
 143 0066 0799     		ldr	r1, [sp, #28]
 144 0068 0A44     		add	r2, r2, r1
 145              		.loc 1 829 23 view .LVU38
 146 006a BA42     		cmp	r2, r7
 147 006c 06DD     		ble	.L3
 148              	.LVL13:
 149              		.loc 1 829 23 view .LVU39
 150              	.LBE88:
 151              		.loc 2 120 5 is_stmt 1 view .LVU40
 152              	.LBB92:
 153              		.loc 1 829 25 is_stmt 0 view .LVU41
 154 006e 089A     		ldr	r2, [sp, #32]
 155 0070 12FA83F7 		uxtah	r7, r2, r3
 156              	.LVL14:
 157              		.loc 1 829 25 view .LVU42
 158 0074 099B     		ldr	r3, [sp, #36]
 159 0076 13FA87F7 		uxtah	r7, r3, r7
 160              		.loc 1 829 23 view .LVU43
 161 007a 3FB2     		sxth	r7, r7
 162              	.LVL15:
 163              	.L3:
 164              		.loc 1 829 23 view .LVU44
 165              	.LBE92:
 804:Middlewares/lvgl/src/widgets/lv_table.c ****         if(table->cell_data[cell] != NULL) {
 166              		.loc 1 804 71 is_stmt 1 discriminator 2 view .LVU45
 804:Middlewares/lvgl/src/widgets/lv_table.c ****         if(table->cell_data[cell] != NULL) {
 167              		.loc 1 804 75 is_stmt 0 discriminator 2 view .LVU46
 168 007c 0136     		adds	r6, r6, #1
 169              	.LVL16:
 804:Middlewares/lvgl/src/widgets/lv_table.c ****         if(table->cell_data[cell] != NULL) {
 170              		.loc 1 804 75 discriminator 2 view .LVU47
 171 007e B6B2     		uxth	r6, r6
 172              	.LVL17:
 804:Middlewares/lvgl/src/widgets/lv_table.c ****         if(table->cell_data[cell] != NULL) {
 173              		.loc 1 804 82 discriminator 2 view .LVU48
 174 0080 0135     		adds	r5, r5, #1
 175              	.LVL18:
 804:Middlewares/lvgl/src/widgets/lv_table.c ****         if(table->cell_data[cell] != NULL) {
 176              		.loc 1 804 82 discriminator 2 view .LVU49
 177 0082 ADB2     		uxth	r5, r5
 178              	.LVL19:
 179              	.L2:
 804:Middlewares/lvgl/src/widgets/lv_table.c ****         if(table->cell_data[cell] != NULL) {
 180              		.loc 1 804 36 is_stmt 1 discriminator 1 view .LVU50
 804:Middlewares/lvgl/src/widgets/lv_table.c ****         if(table->cell_data[cell] != NULL) {
 181              		.loc 1 804 41 is_stmt 0 discriminator 1 view .LVU51
 182 0084 B246     		mov	r10, r6
 804:Middlewares/lvgl/src/widgets/lv_table.c ****         if(table->cell_data[cell] != NULL) {
 183              		.loc 1 804 60 discriminator 1 view .LVU52
ARM GAS  /tmp/ccJnAI63.s 			page 21


 184 0086 B8F824C0 		ldrh	ip, [r8, #36]
 804:Middlewares/lvgl/src/widgets/lv_table.c ****         if(table->cell_data[cell] != NULL) {
 185              		.loc 1 804 53 discriminator 1 view .LVU53
 186 008a 09EB0C03 		add	r3, r9, ip
 804:Middlewares/lvgl/src/widgets/lv_table.c ****         if(table->cell_data[cell] != NULL) {
 187              		.loc 1 804 5 discriminator 1 view .LVU54
 188 008e 9E42     		cmp	r6, r3
 189 0090 43DA     		bge	.L10
 805:Middlewares/lvgl/src/widgets/lv_table.c ****             txt_w              = table->col_w[col];
 190              		.loc 1 805 9 is_stmt 1 view .LVU55
 805:Middlewares/lvgl/src/widgets/lv_table.c ****             txt_w              = table->col_w[col];
 191              		.loc 1 805 17 is_stmt 0 view .LVU56
 192 0092 D8F82810 		ldr	r1, [r8, #40]
 805:Middlewares/lvgl/src/widgets/lv_table.c ****             txt_w              = table->col_w[col];
 193              		.loc 1 805 28 view .LVU57
 194 0096 51F826E0 		ldr	lr, [r1, r6, lsl #2]
 805:Middlewares/lvgl/src/widgets/lv_table.c ****             txt_w              = table->col_w[col];
 195              		.loc 1 805 11 view .LVU58
 196 009a BEF1000F 		cmp	lr, #0
 197 009e EDD0     		beq	.L3
 198              	.LBB93:
 806:Middlewares/lvgl/src/widgets/lv_table.c ****             uint16_t col_merge = 0;
 199              		.loc 1 806 13 is_stmt 1 view .LVU59
 806:Middlewares/lvgl/src/widgets/lv_table.c ****             uint16_t col_merge = 0;
 200              		.loc 1 806 39 is_stmt 0 view .LVU60
 201 00a0 D8F830B0 		ldr	fp, [r8, #48]
 806:Middlewares/lvgl/src/widgets/lv_table.c ****             uint16_t col_merge = 0;
 202              		.loc 1 806 32 view .LVU61
 203 00a4 3BF91530 		ldrsh	r3, [fp, r5, lsl #1]
 204              	.LVL20:
 807:Middlewares/lvgl/src/widgets/lv_table.c ****             for(col_merge = 0; col_merge + col < table->col_cnt - 1; col_merge++) {
 205              		.loc 1 807 13 is_stmt 1 view .LVU62
 808:Middlewares/lvgl/src/widgets/lv_table.c **** 
 206              		.loc 1 808 13 view .LVU63
 808:Middlewares/lvgl/src/widgets/lv_table.c **** 
 207              		.loc 1 808 27 is_stmt 0 view .LVU64
 208 00a8 0024     		movs	r4, #0
 209              	.LVL21:
 210              	.L4:
 808:Middlewares/lvgl/src/widgets/lv_table.c **** 
 211              		.loc 1 808 32 is_stmt 1 discriminator 1 view .LVU65
 808:Middlewares/lvgl/src/widgets/lv_table.c **** 
 212              		.loc 1 808 42 is_stmt 0 discriminator 1 view .LVU66
 213 00aa 2A19     		adds	r2, r5, r4
 808:Middlewares/lvgl/src/widgets/lv_table.c **** 
 214              		.loc 1 808 65 discriminator 1 view .LVU67
 215 00ac 0CF1FF30 		add	r0, ip, #-1
 808:Middlewares/lvgl/src/widgets/lv_table.c **** 
 216              		.loc 1 808 13 discriminator 1 view .LVU68
 217 00b0 8242     		cmp	r2, r0
 218 00b2 CEDA     		bge	.L5
 810:Middlewares/lvgl/src/widgets/lv_table.c ****                     lv_table_cell_ctrl_t ctrl = 0;
 219              		.loc 1 810 17 is_stmt 1 view .LVU69
 810:Middlewares/lvgl/src/widgets/lv_table.c ****                     lv_table_cell_ctrl_t ctrl = 0;
 220              		.loc 1 810 42 is_stmt 0 view .LVU70
 221 00b4 04EB0A00 		add	r0, r4, r10
 810:Middlewares/lvgl/src/widgets/lv_table.c ****                     lv_table_cell_ctrl_t ctrl = 0;
ARM GAS  /tmp/ccJnAI63.s 			page 22


 222              		.loc 1 810 36 view .LVU71
 223 00b8 51F82000 		ldr	r0, [r1, r0, lsl #2]
 810:Middlewares/lvgl/src/widgets/lv_table.c ****                     lv_table_cell_ctrl_t ctrl = 0;
 224              		.loc 1 810 19 view .LVU72
 225 00bc 0028     		cmp	r0, #0
 226 00be C8D0     		beq	.L5
 227              	.LBB91:
 811:Middlewares/lvgl/src/widgets/lv_table.c ****                     char * next_cell_data = table->cell_data[cell + col_merge];
 228              		.loc 1 811 21 is_stmt 1 discriminator 1 view .LVU73
 229              	.LVL22:
 812:Middlewares/lvgl/src/widgets/lv_table.c ****                     if(next_cell_data) ctrl = next_cell_data[0];
 230              		.loc 1 812 21 discriminator 1 view .LVU74
 813:Middlewares/lvgl/src/widgets/lv_table.c ****                     if(ctrl & LV_TABLE_CELL_CTRL_MERGE_RIGHT)
 231              		.loc 1 813 21 discriminator 1 view .LVU75
 813:Middlewares/lvgl/src/widgets/lv_table.c ****                     if(ctrl & LV_TABLE_CELL_CTRL_MERGE_RIGHT)
 232              		.loc 1 813 40 discriminator 1 view .LVU76
 813:Middlewares/lvgl/src/widgets/lv_table.c ****                     if(ctrl & LV_TABLE_CELL_CTRL_MERGE_RIGHT)
 233              		.loc 1 813 45 is_stmt 0 discriminator 1 view .LVU77
 234 00c0 0078     		ldrb	r0, [r0]	@ zero_extendqisi2
 235              	.LVL23:
 814:Middlewares/lvgl/src/widgets/lv_table.c ****                         txt_w += table->col_w[col + col_merge + 1];
 236              		.loc 1 814 21 is_stmt 1 discriminator 1 view .LVU78
 814:Middlewares/lvgl/src/widgets/lv_table.c ****                         txt_w += table->col_w[col + col_merge + 1];
 237              		.loc 1 814 23 is_stmt 0 discriminator 1 view .LVU79
 238 00c2 10F0010F 		tst	r0, #1
 239 00c6 C4D0     		beq	.L5
 815:Middlewares/lvgl/src/widgets/lv_table.c ****                     else
 240              		.loc 1 815 25 is_stmt 1 discriminator 2 view .LVU80
 815:Middlewares/lvgl/src/widgets/lv_table.c ****                     else
 241              		.loc 1 815 46 is_stmt 0 discriminator 2 view .LVU81
 242 00c8 0132     		adds	r2, r2, #1
 243 00ca 3BF81220 		ldrh	r2, [fp, r2, lsl #1]
 815:Middlewares/lvgl/src/widgets/lv_table.c ****                     else
 244              		.loc 1 815 31 discriminator 2 view .LVU82
 245 00ce 1344     		add	r3, r3, r2
 246              	.LVL24:
 815:Middlewares/lvgl/src/widgets/lv_table.c ****                     else
 247              		.loc 1 815 31 discriminator 2 view .LVU83
 248 00d0 1BB2     		sxth	r3, r3
 249              	.LVL25:
 815:Middlewares/lvgl/src/widgets/lv_table.c ****                     else
 250              		.loc 1 815 31 discriminator 2 view .LVU84
 251              	.LBE91:
 808:Middlewares/lvgl/src/widgets/lv_table.c **** 
 252              		.loc 1 808 70 is_stmt 1 discriminator 2 view .LVU85
 808:Middlewares/lvgl/src/widgets/lv_table.c **** 
 253              		.loc 1 808 79 is_stmt 0 discriminator 2 view .LVU86
 254 00d2 0134     		adds	r4, r4, #1
 255              	.LVL26:
 808:Middlewares/lvgl/src/widgets/lv_table.c **** 
 256              		.loc 1 808 79 discriminator 2 view .LVU87
 257 00d4 A4B2     		uxth	r4, r4
 258              	.LVL27:
 808:Middlewares/lvgl/src/widgets/lv_table.c **** 
 259              		.loc 1 808 79 discriminator 2 view .LVU88
 260 00d6 E8E7     		b	.L4
 261              	.LVL28:
ARM GAS  /tmp/ccJnAI63.s 			page 23


 262              	.L7:
 830:Middlewares/lvgl/src/widgets/lv_table.c ****                                     h_max);
 831:Middlewares/lvgl/src/widgets/lv_table.c ****             }
 832:Middlewares/lvgl/src/widgets/lv_table.c ****             /*Without text crop calculate the height of the text in the cell*/
 833:Middlewares/lvgl/src/widgets/lv_table.c ****             else {
 834:Middlewares/lvgl/src/widgets/lv_table.c ****                 txt_w -= cell_left + cell_right;
 263              		.loc 1 834 17 is_stmt 1 view .LVU89
 264              		.loc 1 834 36 is_stmt 0 view .LVU90
 265 00d8 0C9A     		ldr	r2, [sp, #48]
 266              	.LVL29:
 267              		.loc 1 834 36 view .LVU91
 268 00da 0D99     		ldr	r1, [sp, #52]
 269 00dc 0A44     		add	r2, r2, r1
 270 00de 92B2     		uxth	r2, r2
 271              		.loc 1 834 23 view .LVU92
 272 00e0 9B1A     		subs	r3, r3, r2
 273              	.LVL30:
 274              		.loc 1 834 23 view .LVU93
 275 00e2 1BB2     		sxth	r3, r3
 276              	.LVL31:
 835:Middlewares/lvgl/src/widgets/lv_table.c **** 
 836:Middlewares/lvgl/src/widgets/lv_table.c ****                 lv_txt_get_size(&txt_size, table->cell_data[cell] + 1, font,
 277              		.loc 1 836 17 is_stmt 1 view .LVU94
 278 00e4 0022     		movs	r2, #0
 279 00e6 0292     		str	r2, [sp, #8]
 280              	.LVL32:
 281              		.loc 1 836 17 is_stmt 0 view .LVU95
 282 00e8 0193     		str	r3, [sp, #4]
 283 00ea 0B9B     		ldr	r3, [sp, #44]
 284              	.LVL33:
 285              		.loc 1 836 17 view .LVU96
 286 00ec 0093     		str	r3, [sp]
 287 00ee 0A9B     		ldr	r3, [sp, #40]
 288 00f0 059A     		ldr	r2, [sp, #20]
 289 00f2 0EF10101 		add	r1, lr, #1
 290 00f6 0FA8     		add	r0, sp, #60
 291 00f8 FFF7FEFF 		bl	lv_txt_get_size
 292              	.LVL34:
 837:Middlewares/lvgl/src/widgets/lv_table.c ****                                  letter_space, line_space, txt_w, LV_TEXT_FLAG_NONE);
 838:Middlewares/lvgl/src/widgets/lv_table.c **** 
 839:Middlewares/lvgl/src/widgets/lv_table.c ****                 h_max = LV_MAX(txt_size.y + cell_top + cell_bottom, h_max);
 293              		.loc 1 839 17 is_stmt 1 view .LVU97
 294              		.loc 1 839 25 is_stmt 0 view .LVU98
 295 00fc BDF93E30 		ldrsh	r3, [sp, #62]
 296 0100 069A     		ldr	r2, [sp, #24]
 297 0102 1344     		add	r3, r3, r2
 298 0104 079A     		ldr	r2, [sp, #28]
 299 0106 1344     		add	r3, r3, r2
 300 0108 9F42     		cmp	r7, r3
 301 010a B8BF     		it	lt
 302 010c 1F46     		movlt	r7, r3
 303              	.LVL35:
 304              		.loc 1 839 23 view .LVU99
 305 010e 3FB2     		sxth	r7, r7
 306              	.LVL36:
 840:Middlewares/lvgl/src/widgets/lv_table.c ****                 cell += col_merge;
 307              		.loc 1 840 17 is_stmt 1 view .LVU100
ARM GAS  /tmp/ccJnAI63.s 			page 24


 308              		.loc 1 840 22 is_stmt 0 view .LVU101
 309 0110 2644     		add	r6, r6, r4
 310              	.LVL37:
 311              		.loc 1 840 22 view .LVU102
 312 0112 B6B2     		uxth	r6, r6
 313              	.LVL38:
 841:Middlewares/lvgl/src/widgets/lv_table.c ****                 col += col_merge;
 314              		.loc 1 841 17 is_stmt 1 view .LVU103
 315              		.loc 1 841 21 is_stmt 0 view .LVU104
 316 0114 2544     		add	r5, r5, r4
 317              	.LVL39:
 318              		.loc 1 841 21 view .LVU105
 319 0116 ADB2     		uxth	r5, r5
 320              	.LVL40:
 321              		.loc 1 841 21 view .LVU106
 322 0118 B0E7     		b	.L3
 323              	.LVL41:
 324              	.L10:
 325              		.loc 1 841 21 view .LVU107
 326              	.LBE93:
 842:Middlewares/lvgl/src/widgets/lv_table.c ****             }
 843:Middlewares/lvgl/src/widgets/lv_table.c ****         }
 844:Middlewares/lvgl/src/widgets/lv_table.c ****     }
 845:Middlewares/lvgl/src/widgets/lv_table.c **** 
 846:Middlewares/lvgl/src/widgets/lv_table.c ****     return h_max;
 327              		.loc 1 846 5 is_stmt 1 view .LVU108
 847:Middlewares/lvgl/src/widgets/lv_table.c **** }
 328              		.loc 1 847 1 is_stmt 0 view .LVU109
 329 011a 3846     		mov	r0, r7
 330 011c 11B0     		add	sp, sp, #68
 331              	.LCFI2:
 332              		.cfi_def_cfa_offset 36
 333              		@ sp needed
 334 011e BDE8F08F 		pop	{r4, r5, r6, r7, r8, r9, r10, fp, pc}
 335              		.loc 1 847 1 view .LVU110
 336              		.cfi_endproc
 337              	.LFE166:
 339              		.section	.text.refr_size,"ax",%progbits
 340              		.align	1
 341              		.syntax unified
 342              		.thumb
 343              		.thumb_func
 345              	refr_size:
 346              	.LVL42:
 347              	.LFB165:
 765:Middlewares/lvgl/src/widgets/lv_table.c ****     lv_table_t * table = (lv_table_t *)obj;
 348              		.loc 1 765 1 is_stmt 1 view -0
 349              		.cfi_startproc
 350              		@ args = 0, pretend = 0, frame = 16
 351              		@ frame_needed = 0, uses_anonymous_args = 0
 765:Middlewares/lvgl/src/widgets/lv_table.c ****     lv_table_t * table = (lv_table_t *)obj;
 352              		.loc 1 765 1 is_stmt 0 view .LVU112
 353 0000 2DE9F04F 		push	{r4, r5, r6, r7, r8, r9, r10, fp, lr}
 354              	.LCFI3:
 355              		.cfi_def_cfa_offset 36
 356              		.cfi_offset 4, -36
 357              		.cfi_offset 5, -32
ARM GAS  /tmp/ccJnAI63.s 			page 25


 358              		.cfi_offset 6, -28
 359              		.cfi_offset 7, -24
 360              		.cfi_offset 8, -20
 361              		.cfi_offset 9, -16
 362              		.cfi_offset 10, -12
 363              		.cfi_offset 11, -8
 364              		.cfi_offset 14, -4
 365 0004 8BB0     		sub	sp, sp, #44
 366              	.LCFI4:
 367              		.cfi_def_cfa_offset 80
 368 0006 0546     		mov	r5, r0
 369 0008 0C46     		mov	r4, r1
 766:Middlewares/lvgl/src/widgets/lv_table.c **** 
 370              		.loc 1 766 5 is_stmt 1 view .LVU113
 371              	.LVL43:
 768:Middlewares/lvgl/src/widgets/lv_table.c **** 
 372              		.loc 1 768 5 view .LVU114
 770:Middlewares/lvgl/src/widgets/lv_table.c ****     lv_coord_t cell_right = lv_obj_get_style_pad_right(obj, LV_PART_ITEMS);
 373              		.loc 1 770 5 view .LVU115
 374              	.LBB94:
 375              	.LBI94:
 376              		.file 3 "Middlewares/lvgl/src/widgets/../core/lv_obj_style_gen.h"
   1:Middlewares/lvgl/src/widgets/../core/lv_obj_style_gen.h **** static inline lv_coord_t lv_obj_get_style_width(const struct _lv_obj_t * obj, uint32_t part)
   2:Middlewares/lvgl/src/widgets/../core/lv_obj_style_gen.h **** {
   3:Middlewares/lvgl/src/widgets/../core/lv_obj_style_gen.h ****     lv_style_value_t v = lv_obj_get_style_prop(obj, part, LV_STYLE_WIDTH);
   4:Middlewares/lvgl/src/widgets/../core/lv_obj_style_gen.h ****     return (lv_coord_t)v.num;
   5:Middlewares/lvgl/src/widgets/../core/lv_obj_style_gen.h **** }
   6:Middlewares/lvgl/src/widgets/../core/lv_obj_style_gen.h **** 
   7:Middlewares/lvgl/src/widgets/../core/lv_obj_style_gen.h **** static inline lv_coord_t lv_obj_get_style_min_width(const struct _lv_obj_t * obj, uint32_t part)
   8:Middlewares/lvgl/src/widgets/../core/lv_obj_style_gen.h **** {
   9:Middlewares/lvgl/src/widgets/../core/lv_obj_style_gen.h ****     lv_style_value_t v = lv_obj_get_style_prop(obj, part, LV_STYLE_MIN_WIDTH);
  10:Middlewares/lvgl/src/widgets/../core/lv_obj_style_gen.h ****     return (lv_coord_t)v.num;
  11:Middlewares/lvgl/src/widgets/../core/lv_obj_style_gen.h **** }
  12:Middlewares/lvgl/src/widgets/../core/lv_obj_style_gen.h **** 
  13:Middlewares/lvgl/src/widgets/../core/lv_obj_style_gen.h **** static inline lv_coord_t lv_obj_get_style_max_width(const struct _lv_obj_t * obj, uint32_t part)
  14:Middlewares/lvgl/src/widgets/../core/lv_obj_style_gen.h **** {
  15:Middlewares/lvgl/src/widgets/../core/lv_obj_style_gen.h ****     lv_style_value_t v = lv_obj_get_style_prop(obj, part, LV_STYLE_MAX_WIDTH);
  16:Middlewares/lvgl/src/widgets/../core/lv_obj_style_gen.h ****     return (lv_coord_t)v.num;
  17:Middlewares/lvgl/src/widgets/../core/lv_obj_style_gen.h **** }
  18:Middlewares/lvgl/src/widgets/../core/lv_obj_style_gen.h **** 
  19:Middlewares/lvgl/src/widgets/../core/lv_obj_style_gen.h **** static inline lv_coord_t lv_obj_get_style_height(const struct _lv_obj_t * obj, uint32_t part)
  20:Middlewares/lvgl/src/widgets/../core/lv_obj_style_gen.h **** {
  21:Middlewares/lvgl/src/widgets/../core/lv_obj_style_gen.h ****     lv_style_value_t v = lv_obj_get_style_prop(obj, part, LV_STYLE_HEIGHT);
  22:Middlewares/lvgl/src/widgets/../core/lv_obj_style_gen.h ****     return (lv_coord_t)v.num;
  23:Middlewares/lvgl/src/widgets/../core/lv_obj_style_gen.h **** }
  24:Middlewares/lvgl/src/widgets/../core/lv_obj_style_gen.h **** 
  25:Middlewares/lvgl/src/widgets/../core/lv_obj_style_gen.h **** static inline lv_coord_t lv_obj_get_style_min_height(const struct _lv_obj_t * obj, uint32_t part)
  26:Middlewares/lvgl/src/widgets/../core/lv_obj_style_gen.h **** {
  27:Middlewares/lvgl/src/widgets/../core/lv_obj_style_gen.h ****     lv_style_value_t v = lv_obj_get_style_prop(obj, part, LV_STYLE_MIN_HEIGHT);
  28:Middlewares/lvgl/src/widgets/../core/lv_obj_style_gen.h ****     return (lv_coord_t)v.num;
  29:Middlewares/lvgl/src/widgets/../core/lv_obj_style_gen.h **** }
  30:Middlewares/lvgl/src/widgets/../core/lv_obj_style_gen.h **** 
  31:Middlewares/lvgl/src/widgets/../core/lv_obj_style_gen.h **** static inline lv_coord_t lv_obj_get_style_max_height(const struct _lv_obj_t * obj, uint32_t part)
  32:Middlewares/lvgl/src/widgets/../core/lv_obj_style_gen.h **** {
  33:Middlewares/lvgl/src/widgets/../core/lv_obj_style_gen.h ****     lv_style_value_t v = lv_obj_get_style_prop(obj, part, LV_STYLE_MAX_HEIGHT);
  34:Middlewares/lvgl/src/widgets/../core/lv_obj_style_gen.h ****     return (lv_coord_t)v.num;
  35:Middlewares/lvgl/src/widgets/../core/lv_obj_style_gen.h **** }
ARM GAS  /tmp/ccJnAI63.s 			page 26


  36:Middlewares/lvgl/src/widgets/../core/lv_obj_style_gen.h **** 
  37:Middlewares/lvgl/src/widgets/../core/lv_obj_style_gen.h **** static inline lv_coord_t lv_obj_get_style_x(const struct _lv_obj_t * obj, uint32_t part)
  38:Middlewares/lvgl/src/widgets/../core/lv_obj_style_gen.h **** {
  39:Middlewares/lvgl/src/widgets/../core/lv_obj_style_gen.h ****     lv_style_value_t v = lv_obj_get_style_prop(obj, part, LV_STYLE_X);
  40:Middlewares/lvgl/src/widgets/../core/lv_obj_style_gen.h ****     return (lv_coord_t)v.num;
  41:Middlewares/lvgl/src/widgets/../core/lv_obj_style_gen.h **** }
  42:Middlewares/lvgl/src/widgets/../core/lv_obj_style_gen.h **** 
  43:Middlewares/lvgl/src/widgets/../core/lv_obj_style_gen.h **** static inline lv_coord_t lv_obj_get_style_y(const struct _lv_obj_t * obj, uint32_t part)
  44:Middlewares/lvgl/src/widgets/../core/lv_obj_style_gen.h **** {
  45:Middlewares/lvgl/src/widgets/../core/lv_obj_style_gen.h ****     lv_style_value_t v = lv_obj_get_style_prop(obj, part, LV_STYLE_Y);
  46:Middlewares/lvgl/src/widgets/../core/lv_obj_style_gen.h ****     return (lv_coord_t)v.num;
  47:Middlewares/lvgl/src/widgets/../core/lv_obj_style_gen.h **** }
  48:Middlewares/lvgl/src/widgets/../core/lv_obj_style_gen.h **** 
  49:Middlewares/lvgl/src/widgets/../core/lv_obj_style_gen.h **** static inline lv_align_t lv_obj_get_style_align(const struct _lv_obj_t * obj, uint32_t part)
  50:Middlewares/lvgl/src/widgets/../core/lv_obj_style_gen.h **** {
  51:Middlewares/lvgl/src/widgets/../core/lv_obj_style_gen.h ****     lv_style_value_t v = lv_obj_get_style_prop(obj, part, LV_STYLE_ALIGN);
  52:Middlewares/lvgl/src/widgets/../core/lv_obj_style_gen.h ****     return (lv_align_t)v.num;
  53:Middlewares/lvgl/src/widgets/../core/lv_obj_style_gen.h **** }
  54:Middlewares/lvgl/src/widgets/../core/lv_obj_style_gen.h **** 
  55:Middlewares/lvgl/src/widgets/../core/lv_obj_style_gen.h **** static inline lv_coord_t lv_obj_get_style_transform_width(const struct _lv_obj_t * obj, uint32_t pa
  56:Middlewares/lvgl/src/widgets/../core/lv_obj_style_gen.h **** {
  57:Middlewares/lvgl/src/widgets/../core/lv_obj_style_gen.h ****     lv_style_value_t v = lv_obj_get_style_prop(obj, part, LV_STYLE_TRANSFORM_WIDTH);
  58:Middlewares/lvgl/src/widgets/../core/lv_obj_style_gen.h ****     return (lv_coord_t)v.num;
  59:Middlewares/lvgl/src/widgets/../core/lv_obj_style_gen.h **** }
  60:Middlewares/lvgl/src/widgets/../core/lv_obj_style_gen.h **** 
  61:Middlewares/lvgl/src/widgets/../core/lv_obj_style_gen.h **** static inline lv_coord_t lv_obj_get_style_transform_height(const struct _lv_obj_t * obj, uint32_t p
  62:Middlewares/lvgl/src/widgets/../core/lv_obj_style_gen.h **** {
  63:Middlewares/lvgl/src/widgets/../core/lv_obj_style_gen.h ****     lv_style_value_t v = lv_obj_get_style_prop(obj, part, LV_STYLE_TRANSFORM_HEIGHT);
  64:Middlewares/lvgl/src/widgets/../core/lv_obj_style_gen.h ****     return (lv_coord_t)v.num;
  65:Middlewares/lvgl/src/widgets/../core/lv_obj_style_gen.h **** }
  66:Middlewares/lvgl/src/widgets/../core/lv_obj_style_gen.h **** 
  67:Middlewares/lvgl/src/widgets/../core/lv_obj_style_gen.h **** static inline lv_coord_t lv_obj_get_style_translate_x(const struct _lv_obj_t * obj, uint32_t part)
  68:Middlewares/lvgl/src/widgets/../core/lv_obj_style_gen.h **** {
  69:Middlewares/lvgl/src/widgets/../core/lv_obj_style_gen.h ****     lv_style_value_t v = lv_obj_get_style_prop(obj, part, LV_STYLE_TRANSLATE_X);
  70:Middlewares/lvgl/src/widgets/../core/lv_obj_style_gen.h ****     return (lv_coord_t)v.num;
  71:Middlewares/lvgl/src/widgets/../core/lv_obj_style_gen.h **** }
  72:Middlewares/lvgl/src/widgets/../core/lv_obj_style_gen.h **** 
  73:Middlewares/lvgl/src/widgets/../core/lv_obj_style_gen.h **** static inline lv_coord_t lv_obj_get_style_translate_y(const struct _lv_obj_t * obj, uint32_t part)
  74:Middlewares/lvgl/src/widgets/../core/lv_obj_style_gen.h **** {
  75:Middlewares/lvgl/src/widgets/../core/lv_obj_style_gen.h ****     lv_style_value_t v = lv_obj_get_style_prop(obj, part, LV_STYLE_TRANSLATE_Y);
  76:Middlewares/lvgl/src/widgets/../core/lv_obj_style_gen.h ****     return (lv_coord_t)v.num;
  77:Middlewares/lvgl/src/widgets/../core/lv_obj_style_gen.h **** }
  78:Middlewares/lvgl/src/widgets/../core/lv_obj_style_gen.h **** 
  79:Middlewares/lvgl/src/widgets/../core/lv_obj_style_gen.h **** static inline lv_coord_t lv_obj_get_style_transform_zoom(const struct _lv_obj_t * obj, uint32_t par
  80:Middlewares/lvgl/src/widgets/../core/lv_obj_style_gen.h **** {
  81:Middlewares/lvgl/src/widgets/../core/lv_obj_style_gen.h ****     lv_style_value_t v = lv_obj_get_style_prop(obj, part, LV_STYLE_TRANSFORM_ZOOM);
  82:Middlewares/lvgl/src/widgets/../core/lv_obj_style_gen.h ****     return (lv_coord_t)v.num;
  83:Middlewares/lvgl/src/widgets/../core/lv_obj_style_gen.h **** }
  84:Middlewares/lvgl/src/widgets/../core/lv_obj_style_gen.h **** 
  85:Middlewares/lvgl/src/widgets/../core/lv_obj_style_gen.h **** static inline lv_coord_t lv_obj_get_style_transform_angle(const struct _lv_obj_t * obj, uint32_t pa
  86:Middlewares/lvgl/src/widgets/../core/lv_obj_style_gen.h **** {
  87:Middlewares/lvgl/src/widgets/../core/lv_obj_style_gen.h ****     lv_style_value_t v = lv_obj_get_style_prop(obj, part, LV_STYLE_TRANSFORM_ANGLE);
  88:Middlewares/lvgl/src/widgets/../core/lv_obj_style_gen.h ****     return (lv_coord_t)v.num;
  89:Middlewares/lvgl/src/widgets/../core/lv_obj_style_gen.h **** }
  90:Middlewares/lvgl/src/widgets/../core/lv_obj_style_gen.h **** 
  91:Middlewares/lvgl/src/widgets/../core/lv_obj_style_gen.h **** static inline lv_coord_t lv_obj_get_style_pad_top(const struct _lv_obj_t * obj, uint32_t part)
  92:Middlewares/lvgl/src/widgets/../core/lv_obj_style_gen.h **** {
ARM GAS  /tmp/ccJnAI63.s 			page 27


  93:Middlewares/lvgl/src/widgets/../core/lv_obj_style_gen.h ****     lv_style_value_t v = lv_obj_get_style_prop(obj, part, LV_STYLE_PAD_TOP);
  94:Middlewares/lvgl/src/widgets/../core/lv_obj_style_gen.h ****     return (lv_coord_t)v.num;
  95:Middlewares/lvgl/src/widgets/../core/lv_obj_style_gen.h **** }
  96:Middlewares/lvgl/src/widgets/../core/lv_obj_style_gen.h **** 
  97:Middlewares/lvgl/src/widgets/../core/lv_obj_style_gen.h **** static inline lv_coord_t lv_obj_get_style_pad_bottom(const struct _lv_obj_t * obj, uint32_t part)
  98:Middlewares/lvgl/src/widgets/../core/lv_obj_style_gen.h **** {
  99:Middlewares/lvgl/src/widgets/../core/lv_obj_style_gen.h ****     lv_style_value_t v = lv_obj_get_style_prop(obj, part, LV_STYLE_PAD_BOTTOM);
 100:Middlewares/lvgl/src/widgets/../core/lv_obj_style_gen.h ****     return (lv_coord_t)v.num;
 101:Middlewares/lvgl/src/widgets/../core/lv_obj_style_gen.h **** }
 102:Middlewares/lvgl/src/widgets/../core/lv_obj_style_gen.h **** 
 103:Middlewares/lvgl/src/widgets/../core/lv_obj_style_gen.h **** static inline lv_coord_t lv_obj_get_style_pad_left(const struct _lv_obj_t * obj, uint32_t part)
 377              		.loc 3 103 26 view .LVU116
 378              	.LBB95:
 104:Middlewares/lvgl/src/widgets/../core/lv_obj_style_gen.h **** {
 105:Middlewares/lvgl/src/widgets/../core/lv_obj_style_gen.h ****     lv_style_value_t v = lv_obj_get_style_prop(obj, part, LV_STYLE_PAD_LEFT);
 379              		.loc 3 105 5 view .LVU117
 380              		.loc 3 105 26 is_stmt 0 view .LVU118
 381 000a 41F21202 		movw	r2, #4114
 382 000e 4FF4A021 		mov	r1, #327680
 383              	.LVL44:
 384              		.loc 3 105 26 view .LVU119
 385 0012 FFF7FEFF 		bl	lv_obj_get_style_prop
 386              	.LVL45:
 106:Middlewares/lvgl/src/widgets/../core/lv_obj_style_gen.h ****     return (lv_coord_t)v.num;
 387              		.loc 3 106 5 is_stmt 1 view .LVU120
 388              		.loc 3 106 12 is_stmt 0 view .LVU121
 389 0016 0FFA80FB 		sxth	fp, r0
 390              	.LVL46:
 391              		.loc 3 106 12 view .LVU122
 392              	.LBE95:
 393              	.LBE94:
 771:Middlewares/lvgl/src/widgets/lv_table.c ****     lv_coord_t cell_top = lv_obj_get_style_pad_top(obj, LV_PART_ITEMS);
 394              		.loc 1 771 5 is_stmt 1 view .LVU123
 395              	.LBB96:
 396              	.LBI96:
 107:Middlewares/lvgl/src/widgets/../core/lv_obj_style_gen.h **** }
 108:Middlewares/lvgl/src/widgets/../core/lv_obj_style_gen.h **** 
 109:Middlewares/lvgl/src/widgets/../core/lv_obj_style_gen.h **** static inline lv_coord_t lv_obj_get_style_pad_right(const struct _lv_obj_t * obj, uint32_t part)
 397              		.loc 3 109 26 view .LVU124
 398              	.LBB97:
 110:Middlewares/lvgl/src/widgets/../core/lv_obj_style_gen.h **** {
 111:Middlewares/lvgl/src/widgets/../core/lv_obj_style_gen.h ****     lv_style_value_t v = lv_obj_get_style_prop(obj, part, LV_STYLE_PAD_RIGHT);
 399              		.loc 3 111 5 view .LVU125
 400              		.loc 3 111 26 is_stmt 0 view .LVU126
 401 001a 41F21302 		movw	r2, #4115
 402 001e 4FF4A021 		mov	r1, #327680
 403 0022 2846     		mov	r0, r5
 404 0024 FFF7FEFF 		bl	lv_obj_get_style_prop
 405              	.LVL47:
 112:Middlewares/lvgl/src/widgets/../core/lv_obj_style_gen.h ****     return (lv_coord_t)v.num;
 406              		.loc 3 112 5 is_stmt 1 view .LVU127
 407              		.loc 3 112 12 is_stmt 0 view .LVU128
 408 0028 0FFA80FA 		sxth	r10, r0
 409              	.LVL48:
 410              		.loc 3 112 12 view .LVU129
 411              	.LBE97:
 412              	.LBE96:
ARM GAS  /tmp/ccJnAI63.s 			page 28


 772:Middlewares/lvgl/src/widgets/lv_table.c ****     lv_coord_t cell_bottom = lv_obj_get_style_pad_bottom(obj, LV_PART_ITEMS);
 413              		.loc 1 772 5 is_stmt 1 view .LVU130
 414              	.LBB98:
 415              	.LBI98:
  91:Middlewares/lvgl/src/widgets/../core/lv_obj_style_gen.h **** {
 416              		.loc 3 91 26 view .LVU131
 417              	.LBB99:
  93:Middlewares/lvgl/src/widgets/../core/lv_obj_style_gen.h ****     return (lv_coord_t)v.num;
 418              		.loc 3 93 5 view .LVU132
  93:Middlewares/lvgl/src/widgets/../core/lv_obj_style_gen.h ****     return (lv_coord_t)v.num;
 419              		.loc 3 93 26 is_stmt 0 view .LVU133
 420 002c 41F21002 		movw	r2, #4112
 421 0030 4FF4A021 		mov	r1, #327680
 422 0034 2846     		mov	r0, r5
 423 0036 FFF7FEFF 		bl	lv_obj_get_style_prop
 424              	.LVL49:
  94:Middlewares/lvgl/src/widgets/../core/lv_obj_style_gen.h **** }
 425              		.loc 3 94 5 is_stmt 1 view .LVU134
  94:Middlewares/lvgl/src/widgets/../core/lv_obj_style_gen.h **** }
 426              		.loc 3 94 12 is_stmt 0 view .LVU135
 427 003a 0FFA80F9 		sxth	r9, r0
 428              	.LVL50:
  94:Middlewares/lvgl/src/widgets/../core/lv_obj_style_gen.h **** }
 429              		.loc 3 94 12 view .LVU136
 430              	.LBE99:
 431              	.LBE98:
 773:Middlewares/lvgl/src/widgets/lv_table.c **** 
 432              		.loc 1 773 5 is_stmt 1 view .LVU137
 433              	.LBB100:
 434              	.LBI100:
  97:Middlewares/lvgl/src/widgets/../core/lv_obj_style_gen.h **** {
 435              		.loc 3 97 26 view .LVU138
 436              	.LBB101:
  99:Middlewares/lvgl/src/widgets/../core/lv_obj_style_gen.h ****     return (lv_coord_t)v.num;
 437              		.loc 3 99 5 view .LVU139
  99:Middlewares/lvgl/src/widgets/../core/lv_obj_style_gen.h ****     return (lv_coord_t)v.num;
 438              		.loc 3 99 26 is_stmt 0 view .LVU140
 439 003e 41F21102 		movw	r2, #4113
 440 0042 4FF4A021 		mov	r1, #327680
 441 0046 2846     		mov	r0, r5
 442 0048 FFF7FEFF 		bl	lv_obj_get_style_prop
 443              	.LVL51:
 100:Middlewares/lvgl/src/widgets/../core/lv_obj_style_gen.h **** }
 444              		.loc 3 100 5 is_stmt 1 view .LVU141
 100:Middlewares/lvgl/src/widgets/../core/lv_obj_style_gen.h **** }
 445              		.loc 3 100 12 is_stmt 0 view .LVU142
 446 004c 03B2     		sxth	r3, r0
 447 004e 0993     		str	r3, [sp, #36]
 448              	.LVL52:
 100:Middlewares/lvgl/src/widgets/../core/lv_obj_style_gen.h **** }
 449              		.loc 3 100 12 view .LVU143
 450              	.LBE101:
 451              	.LBE100:
 775:Middlewares/lvgl/src/widgets/lv_table.c ****     lv_coord_t line_space = lv_obj_get_style_text_line_space(obj, LV_PART_ITEMS);
 452              		.loc 1 775 5 is_stmt 1 view .LVU144
 453              	.LBB102:
 454              	.LBI102:
ARM GAS  /tmp/ccJnAI63.s 			page 29


 113:Middlewares/lvgl/src/widgets/../core/lv_obj_style_gen.h **** }
 114:Middlewares/lvgl/src/widgets/../core/lv_obj_style_gen.h **** 
 115:Middlewares/lvgl/src/widgets/../core/lv_obj_style_gen.h **** static inline lv_coord_t lv_obj_get_style_pad_row(const struct _lv_obj_t * obj, uint32_t part)
 116:Middlewares/lvgl/src/widgets/../core/lv_obj_style_gen.h **** {
 117:Middlewares/lvgl/src/widgets/../core/lv_obj_style_gen.h ****     lv_style_value_t v = lv_obj_get_style_prop(obj, part, LV_STYLE_PAD_ROW);
 118:Middlewares/lvgl/src/widgets/../core/lv_obj_style_gen.h ****     return (lv_coord_t)v.num;
 119:Middlewares/lvgl/src/widgets/../core/lv_obj_style_gen.h **** }
 120:Middlewares/lvgl/src/widgets/../core/lv_obj_style_gen.h **** 
 121:Middlewares/lvgl/src/widgets/../core/lv_obj_style_gen.h **** static inline lv_coord_t lv_obj_get_style_pad_column(const struct _lv_obj_t * obj, uint32_t part)
 122:Middlewares/lvgl/src/widgets/../core/lv_obj_style_gen.h **** {
 123:Middlewares/lvgl/src/widgets/../core/lv_obj_style_gen.h ****     lv_style_value_t v = lv_obj_get_style_prop(obj, part, LV_STYLE_PAD_COLUMN);
 124:Middlewares/lvgl/src/widgets/../core/lv_obj_style_gen.h ****     return (lv_coord_t)v.num;
 125:Middlewares/lvgl/src/widgets/../core/lv_obj_style_gen.h **** }
 126:Middlewares/lvgl/src/widgets/../core/lv_obj_style_gen.h **** 
 127:Middlewares/lvgl/src/widgets/../core/lv_obj_style_gen.h **** static inline lv_coord_t lv_obj_get_style_radius(const struct _lv_obj_t * obj, uint32_t part)
 128:Middlewares/lvgl/src/widgets/../core/lv_obj_style_gen.h **** {
 129:Middlewares/lvgl/src/widgets/../core/lv_obj_style_gen.h ****     lv_style_value_t v = lv_obj_get_style_prop(obj, part, LV_STYLE_RADIUS);
 130:Middlewares/lvgl/src/widgets/../core/lv_obj_style_gen.h ****     return (lv_coord_t)v.num;
 131:Middlewares/lvgl/src/widgets/../core/lv_obj_style_gen.h **** }
 132:Middlewares/lvgl/src/widgets/../core/lv_obj_style_gen.h **** 
 133:Middlewares/lvgl/src/widgets/../core/lv_obj_style_gen.h **** static inline bool lv_obj_get_style_clip_corner(const struct _lv_obj_t * obj, uint32_t part)
 134:Middlewares/lvgl/src/widgets/../core/lv_obj_style_gen.h **** {
 135:Middlewares/lvgl/src/widgets/../core/lv_obj_style_gen.h ****     lv_style_value_t v = lv_obj_get_style_prop(obj, part, LV_STYLE_CLIP_CORNER);
 136:Middlewares/lvgl/src/widgets/../core/lv_obj_style_gen.h ****     return (bool)v.num;
 137:Middlewares/lvgl/src/widgets/../core/lv_obj_style_gen.h **** }
 138:Middlewares/lvgl/src/widgets/../core/lv_obj_style_gen.h **** 
 139:Middlewares/lvgl/src/widgets/../core/lv_obj_style_gen.h **** static inline lv_opa_t lv_obj_get_style_opa(const struct _lv_obj_t * obj, uint32_t part)
 140:Middlewares/lvgl/src/widgets/../core/lv_obj_style_gen.h **** {
 141:Middlewares/lvgl/src/widgets/../core/lv_obj_style_gen.h ****     lv_style_value_t v = lv_obj_get_style_prop(obj, part, LV_STYLE_OPA);
 142:Middlewares/lvgl/src/widgets/../core/lv_obj_style_gen.h ****     return (lv_opa_t)v.num;
 143:Middlewares/lvgl/src/widgets/../core/lv_obj_style_gen.h **** }
 144:Middlewares/lvgl/src/widgets/../core/lv_obj_style_gen.h **** 
 145:Middlewares/lvgl/src/widgets/../core/lv_obj_style_gen.h **** static inline const lv_color_filter_dsc_t * lv_obj_get_style_color_filter_dsc(const struct _lv_obj_
 146:Middlewares/lvgl/src/widgets/../core/lv_obj_style_gen.h **** {
 147:Middlewares/lvgl/src/widgets/../core/lv_obj_style_gen.h ****     lv_style_value_t v = lv_obj_get_style_prop(obj, part, LV_STYLE_COLOR_FILTER_DSC);
 148:Middlewares/lvgl/src/widgets/../core/lv_obj_style_gen.h ****     return (const lv_color_filter_dsc_t *)v.ptr;
 149:Middlewares/lvgl/src/widgets/../core/lv_obj_style_gen.h **** }
 150:Middlewares/lvgl/src/widgets/../core/lv_obj_style_gen.h **** 
 151:Middlewares/lvgl/src/widgets/../core/lv_obj_style_gen.h **** static inline lv_opa_t lv_obj_get_style_color_filter_opa(const struct _lv_obj_t * obj, uint32_t par
 152:Middlewares/lvgl/src/widgets/../core/lv_obj_style_gen.h **** {
 153:Middlewares/lvgl/src/widgets/../core/lv_obj_style_gen.h ****     lv_style_value_t v = lv_obj_get_style_prop(obj, part, LV_STYLE_COLOR_FILTER_OPA);
 154:Middlewares/lvgl/src/widgets/../core/lv_obj_style_gen.h ****     return (lv_opa_t)v.num;
 155:Middlewares/lvgl/src/widgets/../core/lv_obj_style_gen.h **** }
 156:Middlewares/lvgl/src/widgets/../core/lv_obj_style_gen.h **** 
 157:Middlewares/lvgl/src/widgets/../core/lv_obj_style_gen.h **** static inline uint32_t lv_obj_get_style_anim_time(const struct _lv_obj_t * obj, uint32_t part)
 158:Middlewares/lvgl/src/widgets/../core/lv_obj_style_gen.h **** {
 159:Middlewares/lvgl/src/widgets/../core/lv_obj_style_gen.h ****     lv_style_value_t v = lv_obj_get_style_prop(obj, part, LV_STYLE_ANIM_TIME);
 160:Middlewares/lvgl/src/widgets/../core/lv_obj_style_gen.h ****     return (uint32_t)v.num;
 161:Middlewares/lvgl/src/widgets/../core/lv_obj_style_gen.h **** }
 162:Middlewares/lvgl/src/widgets/../core/lv_obj_style_gen.h **** 
 163:Middlewares/lvgl/src/widgets/../core/lv_obj_style_gen.h **** static inline uint32_t lv_obj_get_style_anim_speed(const struct _lv_obj_t * obj, uint32_t part)
 164:Middlewares/lvgl/src/widgets/../core/lv_obj_style_gen.h **** {
 165:Middlewares/lvgl/src/widgets/../core/lv_obj_style_gen.h ****     lv_style_value_t v = lv_obj_get_style_prop(obj, part, LV_STYLE_ANIM_SPEED);
 166:Middlewares/lvgl/src/widgets/../core/lv_obj_style_gen.h ****     return (uint32_t)v.num;
 167:Middlewares/lvgl/src/widgets/../core/lv_obj_style_gen.h **** }
 168:Middlewares/lvgl/src/widgets/../core/lv_obj_style_gen.h **** 
 169:Middlewares/lvgl/src/widgets/../core/lv_obj_style_gen.h **** static inline const lv_style_transition_dsc_t * lv_obj_get_style_transition(const struct _lv_obj_t 
ARM GAS  /tmp/ccJnAI63.s 			page 30


 170:Middlewares/lvgl/src/widgets/../core/lv_obj_style_gen.h **** {
 171:Middlewares/lvgl/src/widgets/../core/lv_obj_style_gen.h ****     lv_style_value_t v = lv_obj_get_style_prop(obj, part, LV_STYLE_TRANSITION);
 172:Middlewares/lvgl/src/widgets/../core/lv_obj_style_gen.h ****     return (const lv_style_transition_dsc_t *)v.ptr;
 173:Middlewares/lvgl/src/widgets/../core/lv_obj_style_gen.h **** }
 174:Middlewares/lvgl/src/widgets/../core/lv_obj_style_gen.h **** 
 175:Middlewares/lvgl/src/widgets/../core/lv_obj_style_gen.h **** static inline lv_blend_mode_t lv_obj_get_style_blend_mode(const struct _lv_obj_t * obj, uint32_t pa
 176:Middlewares/lvgl/src/widgets/../core/lv_obj_style_gen.h **** {
 177:Middlewares/lvgl/src/widgets/../core/lv_obj_style_gen.h ****     lv_style_value_t v = lv_obj_get_style_prop(obj, part, LV_STYLE_BLEND_MODE);
 178:Middlewares/lvgl/src/widgets/../core/lv_obj_style_gen.h ****     return (lv_blend_mode_t)v.num;
 179:Middlewares/lvgl/src/widgets/../core/lv_obj_style_gen.h **** }
 180:Middlewares/lvgl/src/widgets/../core/lv_obj_style_gen.h **** 
 181:Middlewares/lvgl/src/widgets/../core/lv_obj_style_gen.h **** static inline uint16_t lv_obj_get_style_layout(const struct _lv_obj_t * obj, uint32_t part)
 182:Middlewares/lvgl/src/widgets/../core/lv_obj_style_gen.h **** {
 183:Middlewares/lvgl/src/widgets/../core/lv_obj_style_gen.h ****     lv_style_value_t v = lv_obj_get_style_prop(obj, part, LV_STYLE_LAYOUT);
 184:Middlewares/lvgl/src/widgets/../core/lv_obj_style_gen.h ****     return (uint16_t)v.num;
 185:Middlewares/lvgl/src/widgets/../core/lv_obj_style_gen.h **** }
 186:Middlewares/lvgl/src/widgets/../core/lv_obj_style_gen.h **** 
 187:Middlewares/lvgl/src/widgets/../core/lv_obj_style_gen.h **** static inline lv_base_dir_t lv_obj_get_style_base_dir(const struct _lv_obj_t * obj, uint32_t part)
 188:Middlewares/lvgl/src/widgets/../core/lv_obj_style_gen.h **** {
 189:Middlewares/lvgl/src/widgets/../core/lv_obj_style_gen.h ****     lv_style_value_t v = lv_obj_get_style_prop(obj, part, LV_STYLE_BASE_DIR);
 190:Middlewares/lvgl/src/widgets/../core/lv_obj_style_gen.h ****     return (lv_base_dir_t)v.num;
 191:Middlewares/lvgl/src/widgets/../core/lv_obj_style_gen.h **** }
 192:Middlewares/lvgl/src/widgets/../core/lv_obj_style_gen.h **** 
 193:Middlewares/lvgl/src/widgets/../core/lv_obj_style_gen.h **** static inline lv_color_t lv_obj_get_style_bg_color(const struct _lv_obj_t * obj, uint32_t part)
 194:Middlewares/lvgl/src/widgets/../core/lv_obj_style_gen.h **** {
 195:Middlewares/lvgl/src/widgets/../core/lv_obj_style_gen.h ****     lv_style_value_t v = lv_obj_get_style_prop(obj, part, LV_STYLE_BG_COLOR);
 196:Middlewares/lvgl/src/widgets/../core/lv_obj_style_gen.h ****     return v.color;
 197:Middlewares/lvgl/src/widgets/../core/lv_obj_style_gen.h **** }
 198:Middlewares/lvgl/src/widgets/../core/lv_obj_style_gen.h **** 
 199:Middlewares/lvgl/src/widgets/../core/lv_obj_style_gen.h **** static inline lv_color_t lv_obj_get_style_bg_color_filtered(const struct _lv_obj_t * obj, uint32_t 
 200:Middlewares/lvgl/src/widgets/../core/lv_obj_style_gen.h **** {
 201:Middlewares/lvgl/src/widgets/../core/lv_obj_style_gen.h ****     lv_style_value_t v = lv_obj_get_style_prop(obj, part, LV_STYLE_BG_COLOR_FILTERED);
 202:Middlewares/lvgl/src/widgets/../core/lv_obj_style_gen.h ****     return v.color;
 203:Middlewares/lvgl/src/widgets/../core/lv_obj_style_gen.h **** }
 204:Middlewares/lvgl/src/widgets/../core/lv_obj_style_gen.h **** 
 205:Middlewares/lvgl/src/widgets/../core/lv_obj_style_gen.h **** static inline lv_opa_t lv_obj_get_style_bg_opa(const struct _lv_obj_t * obj, uint32_t part)
 206:Middlewares/lvgl/src/widgets/../core/lv_obj_style_gen.h **** {
 207:Middlewares/lvgl/src/widgets/../core/lv_obj_style_gen.h ****     lv_style_value_t v = lv_obj_get_style_prop(obj, part, LV_STYLE_BG_OPA);
 208:Middlewares/lvgl/src/widgets/../core/lv_obj_style_gen.h ****     return (lv_opa_t)v.num;
 209:Middlewares/lvgl/src/widgets/../core/lv_obj_style_gen.h **** }
 210:Middlewares/lvgl/src/widgets/../core/lv_obj_style_gen.h **** 
 211:Middlewares/lvgl/src/widgets/../core/lv_obj_style_gen.h **** static inline lv_color_t lv_obj_get_style_bg_grad_color(const struct _lv_obj_t * obj, uint32_t part
 212:Middlewares/lvgl/src/widgets/../core/lv_obj_style_gen.h **** {
 213:Middlewares/lvgl/src/widgets/../core/lv_obj_style_gen.h ****     lv_style_value_t v = lv_obj_get_style_prop(obj, part, LV_STYLE_BG_GRAD_COLOR);
 214:Middlewares/lvgl/src/widgets/../core/lv_obj_style_gen.h ****     return v.color;
 215:Middlewares/lvgl/src/widgets/../core/lv_obj_style_gen.h **** }
 216:Middlewares/lvgl/src/widgets/../core/lv_obj_style_gen.h **** 
 217:Middlewares/lvgl/src/widgets/../core/lv_obj_style_gen.h **** static inline lv_color_t lv_obj_get_style_bg_grad_color_filtered(const struct _lv_obj_t * obj, uint
 218:Middlewares/lvgl/src/widgets/../core/lv_obj_style_gen.h **** {
 219:Middlewares/lvgl/src/widgets/../core/lv_obj_style_gen.h ****     lv_style_value_t v = lv_obj_get_style_prop(obj, part, LV_STYLE_BG_GRAD_COLOR_FILTERED);
 220:Middlewares/lvgl/src/widgets/../core/lv_obj_style_gen.h ****     return v.color;
 221:Middlewares/lvgl/src/widgets/../core/lv_obj_style_gen.h **** }
 222:Middlewares/lvgl/src/widgets/../core/lv_obj_style_gen.h **** 
 223:Middlewares/lvgl/src/widgets/../core/lv_obj_style_gen.h **** static inline lv_grad_dir_t lv_obj_get_style_bg_grad_dir(const struct _lv_obj_t * obj, uint32_t par
 224:Middlewares/lvgl/src/widgets/../core/lv_obj_style_gen.h **** {
 225:Middlewares/lvgl/src/widgets/../core/lv_obj_style_gen.h ****     lv_style_value_t v = lv_obj_get_style_prop(obj, part, LV_STYLE_BG_GRAD_DIR);
 226:Middlewares/lvgl/src/widgets/../core/lv_obj_style_gen.h ****     return (lv_grad_dir_t)v.num;
ARM GAS  /tmp/ccJnAI63.s 			page 31


 227:Middlewares/lvgl/src/widgets/../core/lv_obj_style_gen.h **** }
 228:Middlewares/lvgl/src/widgets/../core/lv_obj_style_gen.h **** 
 229:Middlewares/lvgl/src/widgets/../core/lv_obj_style_gen.h **** static inline lv_coord_t lv_obj_get_style_bg_main_stop(const struct _lv_obj_t * obj, uint32_t part)
 230:Middlewares/lvgl/src/widgets/../core/lv_obj_style_gen.h **** {
 231:Middlewares/lvgl/src/widgets/../core/lv_obj_style_gen.h ****     lv_style_value_t v = lv_obj_get_style_prop(obj, part, LV_STYLE_BG_MAIN_STOP);
 232:Middlewares/lvgl/src/widgets/../core/lv_obj_style_gen.h ****     return (lv_coord_t)v.num;
 233:Middlewares/lvgl/src/widgets/../core/lv_obj_style_gen.h **** }
 234:Middlewares/lvgl/src/widgets/../core/lv_obj_style_gen.h **** 
 235:Middlewares/lvgl/src/widgets/../core/lv_obj_style_gen.h **** static inline lv_coord_t lv_obj_get_style_bg_grad_stop(const struct _lv_obj_t * obj, uint32_t part)
 236:Middlewares/lvgl/src/widgets/../core/lv_obj_style_gen.h **** {
 237:Middlewares/lvgl/src/widgets/../core/lv_obj_style_gen.h ****     lv_style_value_t v = lv_obj_get_style_prop(obj, part, LV_STYLE_BG_GRAD_STOP);
 238:Middlewares/lvgl/src/widgets/../core/lv_obj_style_gen.h ****     return (lv_coord_t)v.num;
 239:Middlewares/lvgl/src/widgets/../core/lv_obj_style_gen.h **** }
 240:Middlewares/lvgl/src/widgets/../core/lv_obj_style_gen.h **** 
 241:Middlewares/lvgl/src/widgets/../core/lv_obj_style_gen.h **** static inline const void * lv_obj_get_style_bg_img_src(const struct _lv_obj_t * obj, uint32_t part)
 242:Middlewares/lvgl/src/widgets/../core/lv_obj_style_gen.h **** {
 243:Middlewares/lvgl/src/widgets/../core/lv_obj_style_gen.h ****     lv_style_value_t v = lv_obj_get_style_prop(obj, part, LV_STYLE_BG_IMG_SRC);
 244:Middlewares/lvgl/src/widgets/../core/lv_obj_style_gen.h ****     return (const void *)v.ptr;
 245:Middlewares/lvgl/src/widgets/../core/lv_obj_style_gen.h **** }
 246:Middlewares/lvgl/src/widgets/../core/lv_obj_style_gen.h **** 
 247:Middlewares/lvgl/src/widgets/../core/lv_obj_style_gen.h **** static inline lv_opa_t lv_obj_get_style_bg_img_opa(const struct _lv_obj_t * obj, uint32_t part)
 248:Middlewares/lvgl/src/widgets/../core/lv_obj_style_gen.h **** {
 249:Middlewares/lvgl/src/widgets/../core/lv_obj_style_gen.h ****     lv_style_value_t v = lv_obj_get_style_prop(obj, part, LV_STYLE_BG_IMG_OPA);
 250:Middlewares/lvgl/src/widgets/../core/lv_obj_style_gen.h ****     return (lv_opa_t)v.num;
 251:Middlewares/lvgl/src/widgets/../core/lv_obj_style_gen.h **** }
 252:Middlewares/lvgl/src/widgets/../core/lv_obj_style_gen.h **** 
 253:Middlewares/lvgl/src/widgets/../core/lv_obj_style_gen.h **** static inline lv_color_t lv_obj_get_style_bg_img_recolor(const struct _lv_obj_t * obj, uint32_t par
 254:Middlewares/lvgl/src/widgets/../core/lv_obj_style_gen.h **** {
 255:Middlewares/lvgl/src/widgets/../core/lv_obj_style_gen.h ****     lv_style_value_t v = lv_obj_get_style_prop(obj, part, LV_STYLE_BG_IMG_RECOLOR);
 256:Middlewares/lvgl/src/widgets/../core/lv_obj_style_gen.h ****     return v.color;
 257:Middlewares/lvgl/src/widgets/../core/lv_obj_style_gen.h **** }
 258:Middlewares/lvgl/src/widgets/../core/lv_obj_style_gen.h **** 
 259:Middlewares/lvgl/src/widgets/../core/lv_obj_style_gen.h **** static inline lv_color_t lv_obj_get_style_bg_img_recolor_filtered(const struct _lv_obj_t * obj, uin
 260:Middlewares/lvgl/src/widgets/../core/lv_obj_style_gen.h **** {
 261:Middlewares/lvgl/src/widgets/../core/lv_obj_style_gen.h ****     lv_style_value_t v = lv_obj_get_style_prop(obj, part, LV_STYLE_BG_IMG_RECOLOR_FILTERED);
 262:Middlewares/lvgl/src/widgets/../core/lv_obj_style_gen.h ****     return v.color;
 263:Middlewares/lvgl/src/widgets/../core/lv_obj_style_gen.h **** }
 264:Middlewares/lvgl/src/widgets/../core/lv_obj_style_gen.h **** 
 265:Middlewares/lvgl/src/widgets/../core/lv_obj_style_gen.h **** static inline lv_opa_t lv_obj_get_style_bg_img_recolor_opa(const struct _lv_obj_t * obj, uint32_t p
 266:Middlewares/lvgl/src/widgets/../core/lv_obj_style_gen.h **** {
 267:Middlewares/lvgl/src/widgets/../core/lv_obj_style_gen.h ****     lv_style_value_t v = lv_obj_get_style_prop(obj, part, LV_STYLE_BG_IMG_RECOLOR_OPA);
 268:Middlewares/lvgl/src/widgets/../core/lv_obj_style_gen.h ****     return (lv_opa_t)v.num;
 269:Middlewares/lvgl/src/widgets/../core/lv_obj_style_gen.h **** }
 270:Middlewares/lvgl/src/widgets/../core/lv_obj_style_gen.h **** 
 271:Middlewares/lvgl/src/widgets/../core/lv_obj_style_gen.h **** static inline bool lv_obj_get_style_bg_img_tiled(const struct _lv_obj_t * obj, uint32_t part)
 272:Middlewares/lvgl/src/widgets/../core/lv_obj_style_gen.h **** {
 273:Middlewares/lvgl/src/widgets/../core/lv_obj_style_gen.h ****     lv_style_value_t v = lv_obj_get_style_prop(obj, part, LV_STYLE_BG_IMG_TILED);
 274:Middlewares/lvgl/src/widgets/../core/lv_obj_style_gen.h ****     return (bool)v.num;
 275:Middlewares/lvgl/src/widgets/../core/lv_obj_style_gen.h **** }
 276:Middlewares/lvgl/src/widgets/../core/lv_obj_style_gen.h **** 
 277:Middlewares/lvgl/src/widgets/../core/lv_obj_style_gen.h **** static inline lv_color_t lv_obj_get_style_border_color(const struct _lv_obj_t * obj, uint32_t part)
 278:Middlewares/lvgl/src/widgets/../core/lv_obj_style_gen.h **** {
 279:Middlewares/lvgl/src/widgets/../core/lv_obj_style_gen.h ****     lv_style_value_t v = lv_obj_get_style_prop(obj, part, LV_STYLE_BORDER_COLOR);
 280:Middlewares/lvgl/src/widgets/../core/lv_obj_style_gen.h ****     return v.color;
 281:Middlewares/lvgl/src/widgets/../core/lv_obj_style_gen.h **** }
 282:Middlewares/lvgl/src/widgets/../core/lv_obj_style_gen.h **** 
 283:Middlewares/lvgl/src/widgets/../core/lv_obj_style_gen.h **** static inline lv_color_t lv_obj_get_style_border_color_filtered(const struct _lv_obj_t * obj, uint3
ARM GAS  /tmp/ccJnAI63.s 			page 32


 284:Middlewares/lvgl/src/widgets/../core/lv_obj_style_gen.h **** {
 285:Middlewares/lvgl/src/widgets/../core/lv_obj_style_gen.h ****     lv_style_value_t v = lv_obj_get_style_prop(obj, part, LV_STYLE_BORDER_COLOR_FILTERED);
 286:Middlewares/lvgl/src/widgets/../core/lv_obj_style_gen.h ****     return v.color;
 287:Middlewares/lvgl/src/widgets/../core/lv_obj_style_gen.h **** }
 288:Middlewares/lvgl/src/widgets/../core/lv_obj_style_gen.h **** 
 289:Middlewares/lvgl/src/widgets/../core/lv_obj_style_gen.h **** static inline lv_opa_t lv_obj_get_style_border_opa(const struct _lv_obj_t * obj, uint32_t part)
 290:Middlewares/lvgl/src/widgets/../core/lv_obj_style_gen.h **** {
 291:Middlewares/lvgl/src/widgets/../core/lv_obj_style_gen.h ****     lv_style_value_t v = lv_obj_get_style_prop(obj, part, LV_STYLE_BORDER_OPA);
 292:Middlewares/lvgl/src/widgets/../core/lv_obj_style_gen.h ****     return (lv_opa_t)v.num;
 293:Middlewares/lvgl/src/widgets/../core/lv_obj_style_gen.h **** }
 294:Middlewares/lvgl/src/widgets/../core/lv_obj_style_gen.h **** 
 295:Middlewares/lvgl/src/widgets/../core/lv_obj_style_gen.h **** static inline lv_coord_t lv_obj_get_style_border_width(const struct _lv_obj_t * obj, uint32_t part)
 296:Middlewares/lvgl/src/widgets/../core/lv_obj_style_gen.h **** {
 297:Middlewares/lvgl/src/widgets/../core/lv_obj_style_gen.h ****     lv_style_value_t v = lv_obj_get_style_prop(obj, part, LV_STYLE_BORDER_WIDTH);
 298:Middlewares/lvgl/src/widgets/../core/lv_obj_style_gen.h ****     return (lv_coord_t)v.num;
 299:Middlewares/lvgl/src/widgets/../core/lv_obj_style_gen.h **** }
 300:Middlewares/lvgl/src/widgets/../core/lv_obj_style_gen.h **** 
 301:Middlewares/lvgl/src/widgets/../core/lv_obj_style_gen.h **** static inline lv_border_side_t lv_obj_get_style_border_side(const struct _lv_obj_t * obj, uint32_t 
 302:Middlewares/lvgl/src/widgets/../core/lv_obj_style_gen.h **** {
 303:Middlewares/lvgl/src/widgets/../core/lv_obj_style_gen.h ****     lv_style_value_t v = lv_obj_get_style_prop(obj, part, LV_STYLE_BORDER_SIDE);
 304:Middlewares/lvgl/src/widgets/../core/lv_obj_style_gen.h ****     return (lv_border_side_t)v.num;
 305:Middlewares/lvgl/src/widgets/../core/lv_obj_style_gen.h **** }
 306:Middlewares/lvgl/src/widgets/../core/lv_obj_style_gen.h **** 
 307:Middlewares/lvgl/src/widgets/../core/lv_obj_style_gen.h **** static inline bool lv_obj_get_style_border_post(const struct _lv_obj_t * obj, uint32_t part)
 308:Middlewares/lvgl/src/widgets/../core/lv_obj_style_gen.h **** {
 309:Middlewares/lvgl/src/widgets/../core/lv_obj_style_gen.h ****     lv_style_value_t v = lv_obj_get_style_prop(obj, part, LV_STYLE_BORDER_POST);
 310:Middlewares/lvgl/src/widgets/../core/lv_obj_style_gen.h ****     return (bool)v.num;
 311:Middlewares/lvgl/src/widgets/../core/lv_obj_style_gen.h **** }
 312:Middlewares/lvgl/src/widgets/../core/lv_obj_style_gen.h **** 
 313:Middlewares/lvgl/src/widgets/../core/lv_obj_style_gen.h **** static inline lv_color_t lv_obj_get_style_text_color(const struct _lv_obj_t * obj, uint32_t part)
 314:Middlewares/lvgl/src/widgets/../core/lv_obj_style_gen.h **** {
 315:Middlewares/lvgl/src/widgets/../core/lv_obj_style_gen.h ****     lv_style_value_t v = lv_obj_get_style_prop(obj, part, LV_STYLE_TEXT_COLOR);
 316:Middlewares/lvgl/src/widgets/../core/lv_obj_style_gen.h ****     return v.color;
 317:Middlewares/lvgl/src/widgets/../core/lv_obj_style_gen.h **** }
 318:Middlewares/lvgl/src/widgets/../core/lv_obj_style_gen.h **** 
 319:Middlewares/lvgl/src/widgets/../core/lv_obj_style_gen.h **** static inline lv_color_t lv_obj_get_style_text_color_filtered(const struct _lv_obj_t * obj, uint32_
 320:Middlewares/lvgl/src/widgets/../core/lv_obj_style_gen.h **** {
 321:Middlewares/lvgl/src/widgets/../core/lv_obj_style_gen.h ****     lv_style_value_t v = lv_obj_get_style_prop(obj, part, LV_STYLE_TEXT_COLOR_FILTERED);
 322:Middlewares/lvgl/src/widgets/../core/lv_obj_style_gen.h ****     return v.color;
 323:Middlewares/lvgl/src/widgets/../core/lv_obj_style_gen.h **** }
 324:Middlewares/lvgl/src/widgets/../core/lv_obj_style_gen.h **** 
 325:Middlewares/lvgl/src/widgets/../core/lv_obj_style_gen.h **** static inline lv_opa_t lv_obj_get_style_text_opa(const struct _lv_obj_t * obj, uint32_t part)
 326:Middlewares/lvgl/src/widgets/../core/lv_obj_style_gen.h **** {
 327:Middlewares/lvgl/src/widgets/../core/lv_obj_style_gen.h ****     lv_style_value_t v = lv_obj_get_style_prop(obj, part, LV_STYLE_TEXT_OPA);
 328:Middlewares/lvgl/src/widgets/../core/lv_obj_style_gen.h ****     return (lv_opa_t)v.num;
 329:Middlewares/lvgl/src/widgets/../core/lv_obj_style_gen.h **** }
 330:Middlewares/lvgl/src/widgets/../core/lv_obj_style_gen.h **** 
 331:Middlewares/lvgl/src/widgets/../core/lv_obj_style_gen.h **** static inline const lv_font_t * lv_obj_get_style_text_font(const struct _lv_obj_t * obj, uint32_t p
 332:Middlewares/lvgl/src/widgets/../core/lv_obj_style_gen.h **** {
 333:Middlewares/lvgl/src/widgets/../core/lv_obj_style_gen.h ****     lv_style_value_t v = lv_obj_get_style_prop(obj, part, LV_STYLE_TEXT_FONT);
 334:Middlewares/lvgl/src/widgets/../core/lv_obj_style_gen.h ****     return (const lv_font_t *)v.ptr;
 335:Middlewares/lvgl/src/widgets/../core/lv_obj_style_gen.h **** }
 336:Middlewares/lvgl/src/widgets/../core/lv_obj_style_gen.h **** 
 337:Middlewares/lvgl/src/widgets/../core/lv_obj_style_gen.h **** static inline lv_coord_t lv_obj_get_style_text_letter_space(const struct _lv_obj_t * obj, uint32_t 
 455              		.loc 3 337 26 view .LVU145
 456              	.LBB103:
 338:Middlewares/lvgl/src/widgets/../core/lv_obj_style_gen.h **** {
ARM GAS  /tmp/ccJnAI63.s 			page 33


 339:Middlewares/lvgl/src/widgets/../core/lv_obj_style_gen.h ****     lv_style_value_t v = lv_obj_get_style_prop(obj, part, LV_STYLE_TEXT_LETTER_SPACE);
 457              		.loc 3 339 5 view .LVU146
 458              		.loc 3 339 26 is_stmt 0 view .LVU147
 459 0050 41F25A42 		movw	r2, #5210
 460 0054 4FF4A021 		mov	r1, #327680
 461 0058 2846     		mov	r0, r5
 462 005a FFF7FEFF 		bl	lv_obj_get_style_prop
 463              	.LVL53:
 340:Middlewares/lvgl/src/widgets/../core/lv_obj_style_gen.h ****     return (lv_coord_t)v.num;
 464              		.loc 3 340 5 is_stmt 1 view .LVU148
 465              		.loc 3 340 12 is_stmt 0 view .LVU149
 466 005e 03B2     		sxth	r3, r0
 467 0060 0893     		str	r3, [sp, #32]
 468              	.LVL54:
 469              		.loc 3 340 12 view .LVU150
 470              	.LBE103:
 471              	.LBE102:
 776:Middlewares/lvgl/src/widgets/lv_table.c ****     const lv_font_t * font = lv_obj_get_style_text_font(obj, LV_PART_ITEMS);
 472              		.loc 1 776 5 is_stmt 1 view .LVU151
 473              	.LBB104:
 474              	.LBI104:
 341:Middlewares/lvgl/src/widgets/../core/lv_obj_style_gen.h **** }
 342:Middlewares/lvgl/src/widgets/../core/lv_obj_style_gen.h **** 
 343:Middlewares/lvgl/src/widgets/../core/lv_obj_style_gen.h **** static inline lv_coord_t lv_obj_get_style_text_line_space(const struct _lv_obj_t * obj, uint32_t pa
 475              		.loc 3 343 26 view .LVU152
 476              	.LBB105:
 344:Middlewares/lvgl/src/widgets/../core/lv_obj_style_gen.h **** {
 345:Middlewares/lvgl/src/widgets/../core/lv_obj_style_gen.h ****     lv_style_value_t v = lv_obj_get_style_prop(obj, part, LV_STYLE_TEXT_LINE_SPACE);
 477              		.loc 3 345 5 view .LVU153
 478              		.loc 3 345 26 is_stmt 0 view .LVU154
 479 0062 41F25B42 		movw	r2, #5211
 480 0066 4FF4A021 		mov	r1, #327680
 481 006a 2846     		mov	r0, r5
 482 006c FFF7FEFF 		bl	lv_obj_get_style_prop
 483              	.LVL55:
 346:Middlewares/lvgl/src/widgets/../core/lv_obj_style_gen.h ****     return (lv_coord_t)v.num;
 484              		.loc 3 346 5 is_stmt 1 view .LVU155
 485              		.loc 3 346 12 is_stmt 0 view .LVU156
 486 0070 03B2     		sxth	r3, r0
 487 0072 0793     		str	r3, [sp, #28]
 488              	.LVL56:
 489              		.loc 3 346 12 view .LVU157
 490              	.LBE105:
 491              	.LBE104:
 777:Middlewares/lvgl/src/widgets/lv_table.c **** 
 492              		.loc 1 777 5 is_stmt 1 view .LVU158
 493              	.LBB106:
 494              	.LBI106:
 331:Middlewares/lvgl/src/widgets/../core/lv_obj_style_gen.h **** {
 495              		.loc 3 331 33 view .LVU159
 496              	.LBB107:
 333:Middlewares/lvgl/src/widgets/../core/lv_obj_style_gen.h ****     return (const lv_font_t *)v.ptr;
 497              		.loc 3 333 5 view .LVU160
 333:Middlewares/lvgl/src/widgets/../core/lv_obj_style_gen.h ****     return (const lv_font_t *)v.ptr;
 498              		.loc 3 333 26 is_stmt 0 view .LVU161
 499 0074 41F25942 		movw	r2, #5209
 500 0078 4FF4A021 		mov	r1, #327680
ARM GAS  /tmp/ccJnAI63.s 			page 34


 501 007c 2846     		mov	r0, r5
 502 007e FFF7FEFF 		bl	lv_obj_get_style_prop
 503              	.LVL57:
 504 0082 0690     		str	r0, [sp, #24]
 334:Middlewares/lvgl/src/widgets/../core/lv_obj_style_gen.h **** }
 505              		.loc 3 334 5 is_stmt 1 view .LVU162
 506              	.LVL58:
 334:Middlewares/lvgl/src/widgets/../core/lv_obj_style_gen.h **** }
 507              		.loc 3 334 5 is_stmt 0 view .LVU163
 508              	.LBE107:
 509              	.LBE106:
 779:Middlewares/lvgl/src/widgets/lv_table.c ****     lv_coord_t maxh = lv_obj_get_style_max_height(obj, LV_PART_ITEMS);
 510              		.loc 1 779 5 is_stmt 1 view .LVU164
 511              	.LBB108:
 512              	.LBI108:
  25:Middlewares/lvgl/src/widgets/../core/lv_obj_style_gen.h **** {
 513              		.loc 3 25 26 view .LVU165
 514              	.LBB109:
  27:Middlewares/lvgl/src/widgets/../core/lv_obj_style_gen.h ****     return (lv_coord_t)v.num;
 515              		.loc 3 27 5 view .LVU166
  27:Middlewares/lvgl/src/widgets/../core/lv_obj_style_gen.h ****     return (lv_coord_t)v.num;
 516              		.loc 3 27 26 is_stmt 0 view .LVU167
 517 0084 41F20502 		movw	r2, #4101
 518 0088 4FF4A021 		mov	r1, #327680
 519 008c 2846     		mov	r0, r5
 520              	.LVL59:
  27:Middlewares/lvgl/src/widgets/../core/lv_obj_style_gen.h ****     return (lv_coord_t)v.num;
 521              		.loc 3 27 26 view .LVU168
 522 008e FFF7FEFF 		bl	lv_obj_get_style_prop
 523              	.LVL60:
  28:Middlewares/lvgl/src/widgets/../core/lv_obj_style_gen.h **** }
 524              		.loc 3 28 5 is_stmt 1 view .LVU169
  28:Middlewares/lvgl/src/widgets/../core/lv_obj_style_gen.h **** }
 525              		.loc 3 28 12 is_stmt 0 view .LVU170
 526 0092 0FFA80F8 		sxth	r8, r0
 527              	.LVL61:
  28:Middlewares/lvgl/src/widgets/../core/lv_obj_style_gen.h **** }
 528              		.loc 3 28 12 view .LVU171
 529              	.LBE109:
 530              	.LBE108:
 780:Middlewares/lvgl/src/widgets/lv_table.c **** 
 531              		.loc 1 780 5 is_stmt 1 view .LVU172
 532              	.LBB110:
 533              	.LBI110:
  31:Middlewares/lvgl/src/widgets/../core/lv_obj_style_gen.h **** {
 534              		.loc 3 31 26 view .LVU173
 535              	.LBB111:
  33:Middlewares/lvgl/src/widgets/../core/lv_obj_style_gen.h ****     return (lv_coord_t)v.num;
 536              		.loc 3 33 5 view .LVU174
  33:Middlewares/lvgl/src/widgets/../core/lv_obj_style_gen.h ****     return (lv_coord_t)v.num;
 537              		.loc 3 33 26 is_stmt 0 view .LVU175
 538 0096 41F20602 		movw	r2, #4102
 539 009a 4FF4A021 		mov	r1, #327680
 540 009e 2846     		mov	r0, r5
 541 00a0 FFF7FEFF 		bl	lv_obj_get_style_prop
 542              	.LVL62:
  34:Middlewares/lvgl/src/widgets/../core/lv_obj_style_gen.h **** }
ARM GAS  /tmp/ccJnAI63.s 			page 35


 543              		.loc 3 34 5 is_stmt 1 view .LVU176
  34:Middlewares/lvgl/src/widgets/../core/lv_obj_style_gen.h **** }
 544              		.loc 3 34 12 is_stmt 0 view .LVU177
 545 00a4 07B2     		sxth	r7, r0
 546              	.LVL63:
  34:Middlewares/lvgl/src/widgets/../core/lv_obj_style_gen.h **** }
 547              		.loc 3 34 12 view .LVU178
 548              	.LBE111:
 549              	.LBE110:
 782:Middlewares/lvgl/src/widgets/lv_table.c ****         table->row_h[i] = get_row_height(obj, i, font, letter_space, line_space,
 550              		.loc 1 782 5 is_stmt 1 view .LVU179
 782:Middlewares/lvgl/src/widgets/lv_table.c ****         table->row_h[i] = get_row_height(obj, i, font, letter_space, line_space,
 551              		.loc 1 782 5 is_stmt 0 view .LVU180
 552 00a6 1EE0     		b	.L12
 553              	.LVL64:
 554              	.L13:
 783:Middlewares/lvgl/src/widgets/lv_table.c ****                                        cell_left, cell_right, cell_top, cell_bottom);
 555              		.loc 1 783 9 is_stmt 1 discriminator 3 view .LVU181
 783:Middlewares/lvgl/src/widgets/lv_table.c ****                                        cell_left, cell_right, cell_top, cell_bottom);
 556              		.loc 1 783 14 is_stmt 0 discriminator 3 view .LVU182
 557 00a8 EE6A     		ldr	r6, [r5, #44]
 783:Middlewares/lvgl/src/widgets/lv_table.c ****                                        cell_left, cell_right, cell_top, cell_bottom);
 558              		.loc 1 783 27 discriminator 3 view .LVU183
 559 00aa 099B     		ldr	r3, [sp, #36]
 560 00ac 0493     		str	r3, [sp, #16]
 561 00ae CDF80C90 		str	r9, [sp, #12]
 562 00b2 CDF808A0 		str	r10, [sp, #8]
 563 00b6 CDF804B0 		str	fp, [sp, #4]
 564 00ba 079B     		ldr	r3, [sp, #28]
 565 00bc 0093     		str	r3, [sp]
 566 00be 089B     		ldr	r3, [sp, #32]
 567 00c0 069A     		ldr	r2, [sp, #24]
 568 00c2 A1B2     		uxth	r1, r4
 569 00c4 2846     		mov	r0, r5
 570 00c6 FFF7FEFF 		bl	get_row_height
 571              	.LVL65:
 783:Middlewares/lvgl/src/widgets/lv_table.c ****                                        cell_left, cell_right, cell_top, cell_bottom);
 572              		.loc 1 783 25 discriminator 3 view .LVU184
 573 00ca 26F81400 		strh	r0, [r6, r4, lsl #1]	@ movhi
 785:Middlewares/lvgl/src/widgets/lv_table.c ****     }
 574              		.loc 1 785 9 is_stmt 1 discriminator 3 view .LVU185
 785:Middlewares/lvgl/src/widgets/lv_table.c ****     }
 575              		.loc 1 785 27 is_stmt 0 discriminator 3 view .LVU186
 576 00ce EA6A     		ldr	r2, [r5, #44]
 577 00d0 32F91430 		ldrsh	r3, [r2, r4, lsl #1]
 578 00d4 BB42     		cmp	r3, r7
 579 00d6 A8BF     		it	ge
 580 00d8 3B46     		movge	r3, r7
 581 00da 4345     		cmp	r3, r8
 582 00dc B8BF     		it	lt
 583 00de 4346     		movlt	r3, r8
 785:Middlewares/lvgl/src/widgets/lv_table.c ****     }
 584              		.loc 1 785 25 discriminator 3 view .LVU187
 585 00e0 22F81430 		strh	r3, [r2, r4, lsl #1]	@ movhi
 782:Middlewares/lvgl/src/widgets/lv_table.c ****         table->row_h[i] = get_row_height(obj, i, font, letter_space, line_space,
 586              		.loc 1 782 44 is_stmt 1 discriminator 3 view .LVU188
 782:Middlewares/lvgl/src/widgets/lv_table.c ****         table->row_h[i] = get_row_height(obj, i, font, letter_space, line_space,
ARM GAS  /tmp/ccJnAI63.s 			page 36


 587              		.loc 1 782 45 is_stmt 0 discriminator 3 view .LVU189
 588 00e4 0134     		adds	r4, r4, #1
 589              	.LVL66:
 590              	.L12:
 782:Middlewares/lvgl/src/widgets/lv_table.c ****         table->row_h[i] = get_row_height(obj, i, font, letter_space, line_space,
 591              		.loc 1 782 24 is_stmt 1 discriminator 1 view .LVU190
 782:Middlewares/lvgl/src/widgets/lv_table.c ****         table->row_h[i] = get_row_height(obj, i, font, letter_space, line_space,
 592              		.loc 1 782 33 is_stmt 0 discriminator 1 view .LVU191
 593 00e6 EB8C     		ldrh	r3, [r5, #38]
 782:Middlewares/lvgl/src/widgets/lv_table.c ****         table->row_h[i] = get_row_height(obj, i, font, letter_space, line_space,
 594              		.loc 1 782 5 discriminator 1 view .LVU192
 595 00e8 A342     		cmp	r3, r4
 596 00ea DDD8     		bhi	.L13
 788:Middlewares/lvgl/src/widgets/lv_table.c **** }
 597              		.loc 1 788 5 is_stmt 1 view .LVU193
 598 00ec 2846     		mov	r0, r5
 599 00ee FFF7FEFF 		bl	lv_obj_refresh_self_size
 600              	.LVL67:
 789:Middlewares/lvgl/src/widgets/lv_table.c **** 
 601              		.loc 1 789 1 is_stmt 0 view .LVU194
 602 00f2 0BB0     		add	sp, sp, #44
 603              	.LCFI5:
 604              		.cfi_def_cfa_offset 36
 605              		@ sp needed
 606 00f4 BDE8F08F 		pop	{r4, r5, r6, r7, r8, r9, r10, fp, pc}
 789:Middlewares/lvgl/src/widgets/lv_table.c **** 
 607              		.loc 1 789 1 view .LVU195
 608              		.cfi_endproc
 609              	.LFE165:
 611              		.section	.text.get_pressed_cell,"ax",%progbits
 612              		.align	1
 613              		.syntax unified
 614              		.thumb
 615              		.thumb_func
 617              	get_pressed_cell:
 618              	.LVL68:
 619              	.LFB167:
 848:Middlewares/lvgl/src/widgets/lv_table.c **** 
 849:Middlewares/lvgl/src/widgets/lv_table.c **** static lv_res_t get_pressed_cell(lv_obj_t * obj, uint16_t * row, uint16_t * col)
 850:Middlewares/lvgl/src/widgets/lv_table.c **** {
 620              		.loc 1 850 1 is_stmt 1 view -0
 621              		.cfi_startproc
 622              		@ args = 0, pretend = 0, frame = 8
 623              		@ frame_needed = 0, uses_anonymous_args = 0
 624              		.loc 1 850 1 is_stmt 0 view .LVU197
 625 0000 2DE9F041 		push	{r4, r5, r6, r7, r8, lr}
 626              	.LCFI6:
 627              		.cfi_def_cfa_offset 24
 628              		.cfi_offset 4, -24
 629              		.cfi_offset 5, -20
 630              		.cfi_offset 6, -16
 631              		.cfi_offset 7, -12
 632              		.cfi_offset 8, -8
 633              		.cfi_offset 14, -4
 634 0004 82B0     		sub	sp, sp, #8
 635              	.LCFI7:
 636              		.cfi_def_cfa_offset 32
ARM GAS  /tmp/ccJnAI63.s 			page 37


 637 0006 0446     		mov	r4, r0
 638 0008 0D46     		mov	r5, r1
 639 000a 1646     		mov	r6, r2
 851:Middlewares/lvgl/src/widgets/lv_table.c ****    lv_table_t * table = (lv_table_t *)obj;
 640              		.loc 1 851 4 is_stmt 1 view .LVU198
 641              	.LVL69:
 852:Middlewares/lvgl/src/widgets/lv_table.c **** 
 853:Middlewares/lvgl/src/widgets/lv_table.c ****     lv_indev_type_t type = lv_indev_get_type(lv_indev_get_act());
 642              		.loc 1 853 5 view .LVU199
 643              		.loc 1 853 46 is_stmt 0 view .LVU200
 644 000c FFF7FEFF 		bl	lv_indev_get_act
 645              	.LVL70:
 646              		.loc 1 853 28 view .LVU201
 647 0010 FFF7FEFF 		bl	lv_indev_get_type
 648              	.LVL71:
 854:Middlewares/lvgl/src/widgets/lv_table.c ****     if(type != LV_INDEV_TYPE_POINTER && type != LV_INDEV_TYPE_BUTTON) {
 649              		.loc 1 854 5 is_stmt 1 view .LVU202
 650              		.loc 1 854 7 is_stmt 0 view .LVU203
 651 0014 0128     		cmp	r0, #1
 652 0016 18BF     		it	ne
 653 0018 0328     		cmpne	r0, #3
 654 001a 0BD0     		beq	.L16
 855:Middlewares/lvgl/src/widgets/lv_table.c ****         if(col) *col = LV_TABLE_CELL_NONE;
 655              		.loc 1 855 9 is_stmt 1 view .LVU204
 656              		.loc 1 855 11 is_stmt 0 view .LVU205
 657 001c 16B1     		cbz	r6, .L17
 658              		.loc 1 855 17 is_stmt 1 discriminator 1 view .LVU206
 659              		.loc 1 855 22 is_stmt 0 discriminator 1 view .LVU207
 660 001e 4FF6FF73 		movw	r3, #65535
 661 0022 3380     		strh	r3, [r6]	@ movhi
 662              	.L17:
 856:Middlewares/lvgl/src/widgets/lv_table.c ****         if(row) *row = LV_TABLE_CELL_NONE;
 663              		.loc 1 856 9 is_stmt 1 view .LVU208
 664              		.loc 1 856 11 is_stmt 0 view .LVU209
 665 0024 15B1     		cbz	r5, .L18
 666              		.loc 1 856 17 is_stmt 1 discriminator 1 view .LVU210
 667              		.loc 1 856 22 is_stmt 0 discriminator 1 view .LVU211
 668 0026 4FF6FF73 		movw	r3, #65535
 669 002a 2B80     		strh	r3, [r5]	@ movhi
 670              	.L18:
 857:Middlewares/lvgl/src/widgets/lv_table.c ****         return LV_RES_INV;
 671              		.loc 1 857 9 is_stmt 1 view .LVU212
 672              		.loc 1 857 16 is_stmt 0 view .LVU213
 673 002c 0020     		movs	r0, #0
 674              	.LVL72:
 675              	.L19:
 858:Middlewares/lvgl/src/widgets/lv_table.c ****     }
 859:Middlewares/lvgl/src/widgets/lv_table.c **** 
 860:Middlewares/lvgl/src/widgets/lv_table.c ****     lv_point_t p;
 861:Middlewares/lvgl/src/widgets/lv_table.c ****     lv_indev_get_point(lv_indev_get_act(), &p);
 862:Middlewares/lvgl/src/widgets/lv_table.c **** 
 863:Middlewares/lvgl/src/widgets/lv_table.c ****     lv_coord_t tmp;
 864:Middlewares/lvgl/src/widgets/lv_table.c ****     if(col) {
 865:Middlewares/lvgl/src/widgets/lv_table.c ****         lv_coord_t x = p.x + lv_obj_get_scroll_x(obj);
 866:Middlewares/lvgl/src/widgets/lv_table.c **** 
 867:Middlewares/lvgl/src/widgets/lv_table.c ****         if(lv_obj_get_style_base_dir(obj, LV_PART_MAIN) == LV_BASE_DIR_RTL) {
 868:Middlewares/lvgl/src/widgets/lv_table.c ****             x = obj->coords.x2 - lv_obj_get_style_pad_right(obj, LV_PART_MAIN) - x;
ARM GAS  /tmp/ccJnAI63.s 			page 38


 869:Middlewares/lvgl/src/widgets/lv_table.c ****         }
 870:Middlewares/lvgl/src/widgets/lv_table.c ****         else {
 871:Middlewares/lvgl/src/widgets/lv_table.c ****             x -= obj->coords.x1;
 872:Middlewares/lvgl/src/widgets/lv_table.c ****             x -= lv_obj_get_style_pad_left(obj, LV_PART_MAIN);
 873:Middlewares/lvgl/src/widgets/lv_table.c ****         }
 874:Middlewares/lvgl/src/widgets/lv_table.c **** 
 875:Middlewares/lvgl/src/widgets/lv_table.c ****         *col = 0;
 876:Middlewares/lvgl/src/widgets/lv_table.c ****         tmp = 0;
 877:Middlewares/lvgl/src/widgets/lv_table.c ****         for(*col = 0; *col < table->col_cnt; (*col)++) {
 878:Middlewares/lvgl/src/widgets/lv_table.c ****             tmp += table->col_w[*col];
 879:Middlewares/lvgl/src/widgets/lv_table.c ****             if(x < tmp) break;
 880:Middlewares/lvgl/src/widgets/lv_table.c ****         }
 881:Middlewares/lvgl/src/widgets/lv_table.c ****     }
 882:Middlewares/lvgl/src/widgets/lv_table.c **** 
 883:Middlewares/lvgl/src/widgets/lv_table.c ****     if(row) {
 884:Middlewares/lvgl/src/widgets/lv_table.c ****         lv_coord_t y = p.y + lv_obj_get_scroll_y(obj);;
 885:Middlewares/lvgl/src/widgets/lv_table.c ****         y -= obj->coords.y1;
 886:Middlewares/lvgl/src/widgets/lv_table.c ****         y -= lv_obj_get_style_pad_top(obj, LV_PART_MAIN);
 887:Middlewares/lvgl/src/widgets/lv_table.c **** 
 888:Middlewares/lvgl/src/widgets/lv_table.c ****         *row = 0;
 889:Middlewares/lvgl/src/widgets/lv_table.c ****         tmp = 0;
 890:Middlewares/lvgl/src/widgets/lv_table.c **** 
 891:Middlewares/lvgl/src/widgets/lv_table.c ****         for(*row = 0; *row < table->row_cnt; (*row)++) {
 892:Middlewares/lvgl/src/widgets/lv_table.c ****             tmp += table->row_h[*row];
 893:Middlewares/lvgl/src/widgets/lv_table.c ****             if(y < tmp) break;
 894:Middlewares/lvgl/src/widgets/lv_table.c ****         }
 895:Middlewares/lvgl/src/widgets/lv_table.c ****     }
 896:Middlewares/lvgl/src/widgets/lv_table.c **** 
 897:Middlewares/lvgl/src/widgets/lv_table.c ****     return LV_RES_OK;
 898:Middlewares/lvgl/src/widgets/lv_table.c **** }
 676              		.loc 1 898 1 view .LVU214
 677 002e 02B0     		add	sp, sp, #8
 678              	.LCFI8:
 679              		.cfi_remember_state
 680              		.cfi_def_cfa_offset 24
 681              		@ sp needed
 682 0030 BDE8F081 		pop	{r4, r5, r6, r7, r8, pc}
 683              	.LVL73:
 684              	.L16:
 685              	.LCFI9:
 686              		.cfi_restore_state
 860:Middlewares/lvgl/src/widgets/lv_table.c ****     lv_indev_get_point(lv_indev_get_act(), &p);
 687              		.loc 1 860 5 is_stmt 1 view .LVU215
 861:Middlewares/lvgl/src/widgets/lv_table.c **** 
 688              		.loc 1 861 5 view .LVU216
 861:Middlewares/lvgl/src/widgets/lv_table.c **** 
 689              		.loc 1 861 24 is_stmt 0 view .LVU217
 690 0034 FFF7FEFF 		bl	lv_indev_get_act
 691              	.LVL74:
 861:Middlewares/lvgl/src/widgets/lv_table.c **** 
 692              		.loc 1 861 5 view .LVU218
 693 0038 01A9     		add	r1, sp, #4
 694 003a FFF7FEFF 		bl	lv_indev_get_point
 695              	.LVL75:
 863:Middlewares/lvgl/src/widgets/lv_table.c ****     if(col) {
 696              		.loc 1 863 5 is_stmt 1 view .LVU219
 864:Middlewares/lvgl/src/widgets/lv_table.c ****         lv_coord_t x = p.x + lv_obj_get_scroll_x(obj);
ARM GAS  /tmp/ccJnAI63.s 			page 39


 697              		.loc 1 864 5 view .LVU220
 864:Middlewares/lvgl/src/widgets/lv_table.c ****         lv_coord_t x = p.x + lv_obj_get_scroll_x(obj);
 698              		.loc 1 864 7 is_stmt 0 view .LVU221
 699 003e 002E     		cmp	r6, #0
 700 0040 3BD0     		beq	.L20
 701              	.LBB112:
 865:Middlewares/lvgl/src/widgets/lv_table.c **** 
 702              		.loc 1 865 9 is_stmt 1 view .LVU222
 865:Middlewares/lvgl/src/widgets/lv_table.c **** 
 703              		.loc 1 865 25 is_stmt 0 view .LVU223
 704 0042 BDF80470 		ldrh	r7, [sp, #4]
 865:Middlewares/lvgl/src/widgets/lv_table.c **** 
 705              		.loc 1 865 30 view .LVU224
 706 0046 2046     		mov	r0, r4
 707 0048 FFF7FEFF 		bl	lv_obj_get_scroll_x
 708              	.LVL76:
 865:Middlewares/lvgl/src/widgets/lv_table.c **** 
 709              		.loc 1 865 28 view .LVU225
 710 004c 17FA80F0 		uxtah	r0, r7, r0
 711 0050 87B2     		uxth	r7, r0
 712              	.LVL77:
 867:Middlewares/lvgl/src/widgets/lv_table.c ****             x = obj->coords.x2 - lv_obj_get_style_pad_right(obj, LV_PART_MAIN) - x;
 713              		.loc 1 867 9 is_stmt 1 view .LVU226
 714              	.LBB113:
 715              	.LBI113:
 187:Middlewares/lvgl/src/widgets/../core/lv_obj_style_gen.h **** {
 716              		.loc 3 187 29 view .LVU227
 717              	.LBB114:
 189:Middlewares/lvgl/src/widgets/../core/lv_obj_style_gen.h ****     return (lv_base_dir_t)v.num;
 718              		.loc 3 189 5 view .LVU228
 189:Middlewares/lvgl/src/widgets/../core/lv_obj_style_gen.h ****     return (lv_base_dir_t)v.num;
 719              		.loc 3 189 26 is_stmt 0 view .LVU229
 720 0052 41F26A42 		movw	r2, #5226
 721 0056 0021     		movs	r1, #0
 722 0058 2046     		mov	r0, r4
 723 005a FFF7FEFF 		bl	lv_obj_get_style_prop
 724              	.LVL78:
 190:Middlewares/lvgl/src/widgets/../core/lv_obj_style_gen.h **** }
 725              		.loc 3 190 5 is_stmt 1 view .LVU230
 190:Middlewares/lvgl/src/widgets/../core/lv_obj_style_gen.h **** }
 726              		.loc 3 190 12 is_stmt 0 view .LVU231
 727 005e C0B2     		uxtb	r0, r0
 728              	.LVL79:
 190:Middlewares/lvgl/src/widgets/../core/lv_obj_style_gen.h **** }
 729              		.loc 3 190 12 view .LVU232
 730              	.LBE114:
 731              	.LBE113:
 867:Middlewares/lvgl/src/widgets/lv_table.c ****             x = obj->coords.x2 - lv_obj_get_style_pad_right(obj, LV_PART_MAIN) - x;
 732              		.loc 1 867 11 view .LVU233
 733 0060 0128     		cmp	r0, #1
 734 0062 1BD0     		beq	.L30
 871:Middlewares/lvgl/src/widgets/lv_table.c ****             x -= lv_obj_get_style_pad_left(obj, LV_PART_MAIN);
 735              		.loc 1 871 13 is_stmt 1 view .LVU234
 871:Middlewares/lvgl/src/widgets/lv_table.c ****             x -= lv_obj_get_style_pad_left(obj, LV_PART_MAIN);
 736              		.loc 1 871 29 is_stmt 0 view .LVU235
 737 0064 A08A     		ldrh	r0, [r4, #20]
 871:Middlewares/lvgl/src/widgets/lv_table.c ****             x -= lv_obj_get_style_pad_left(obj, LV_PART_MAIN);
ARM GAS  /tmp/ccJnAI63.s 			page 40


 738              		.loc 1 871 15 view .LVU236
 739 0066 3F1A     		subs	r7, r7, r0
 740              	.LVL80:
 871:Middlewares/lvgl/src/widgets/lv_table.c ****             x -= lv_obj_get_style_pad_left(obj, LV_PART_MAIN);
 741              		.loc 1 871 15 view .LVU237
 742 0068 BFB2     		uxth	r7, r7
 743              	.LVL81:
 872:Middlewares/lvgl/src/widgets/lv_table.c ****         }
 744              		.loc 1 872 13 is_stmt 1 view .LVU238
 745              	.LBB115:
 746              	.LBI115:
 103:Middlewares/lvgl/src/widgets/../core/lv_obj_style_gen.h **** {
 747              		.loc 3 103 26 view .LVU239
 748              	.LBB116:
 105:Middlewares/lvgl/src/widgets/../core/lv_obj_style_gen.h ****     return (lv_coord_t)v.num;
 749              		.loc 3 105 5 view .LVU240
 105:Middlewares/lvgl/src/widgets/../core/lv_obj_style_gen.h ****     return (lv_coord_t)v.num;
 750              		.loc 3 105 26 is_stmt 0 view .LVU241
 751 006a 41F21202 		movw	r2, #4114
 752 006e 0021     		movs	r1, #0
 753 0070 2046     		mov	r0, r4
 754 0072 FFF7FEFF 		bl	lv_obj_get_style_prop
 755              	.LVL82:
 106:Middlewares/lvgl/src/widgets/../core/lv_obj_style_gen.h **** }
 756              		.loc 3 106 5 is_stmt 1 view .LVU242
 106:Middlewares/lvgl/src/widgets/../core/lv_obj_style_gen.h **** }
 757              		.loc 3 106 5 is_stmt 0 view .LVU243
 758              	.LBE116:
 759              	.LBE115:
 872:Middlewares/lvgl/src/widgets/lv_table.c ****         }
 760              		.loc 1 872 18 view .LVU244
 761 0076 80B2     		uxth	r0, r0
 872:Middlewares/lvgl/src/widgets/lv_table.c ****         }
 762              		.loc 1 872 15 view .LVU245
 763 0078 381A     		subs	r0, r7, r0
 764 007a 00B2     		sxth	r0, r0
 765              	.LVL83:
 766              	.L22:
 875:Middlewares/lvgl/src/widgets/lv_table.c ****         tmp = 0;
 767              		.loc 1 875 9 is_stmt 1 view .LVU246
 875:Middlewares/lvgl/src/widgets/lv_table.c ****         tmp = 0;
 768              		.loc 1 875 14 is_stmt 0 view .LVU247
 769 007c 0021     		movs	r1, #0
 770 007e 3180     		strh	r1, [r6]	@ movhi
 876:Middlewares/lvgl/src/widgets/lv_table.c ****         for(*col = 0; *col < table->col_cnt; (*col)++) {
 771              		.loc 1 876 9 is_stmt 1 view .LVU248
 772              	.LVL84:
 877:Middlewares/lvgl/src/widgets/lv_table.c ****             tmp += table->col_w[*col];
 773              		.loc 1 877 9 view .LVU249
 774              	.L23:
 877:Middlewares/lvgl/src/widgets/lv_table.c ****             tmp += table->col_w[*col];
 775              		.loc 1 877 23 discriminator 1 view .LVU250
 776 0080 3388     		ldrh	r3, [r6]
 877:Middlewares/lvgl/src/widgets/lv_table.c ****             tmp += table->col_w[*col];
 777              		.loc 1 877 35 is_stmt 0 discriminator 1 view .LVU251
 778 0082 A28C     		ldrh	r2, [r4, #36]
 877:Middlewares/lvgl/src/widgets/lv_table.c ****             tmp += table->col_w[*col];
ARM GAS  /tmp/ccJnAI63.s 			page 41


 779              		.loc 1 877 9 discriminator 1 view .LVU252
 780 0084 9342     		cmp	r3, r2
 781 0086 18D2     		bcs	.L20
 878:Middlewares/lvgl/src/widgets/lv_table.c ****             if(x < tmp) break;
 782              		.loc 1 878 13 is_stmt 1 view .LVU253
 878:Middlewares/lvgl/src/widgets/lv_table.c ****             if(x < tmp) break;
 783              		.loc 1 878 25 is_stmt 0 view .LVU254
 784 0088 226B     		ldr	r2, [r4, #48]
 878:Middlewares/lvgl/src/widgets/lv_table.c ****             if(x < tmp) break;
 785              		.loc 1 878 32 view .LVU255
 786 008a 32F81320 		ldrh	r2, [r2, r3, lsl #1]
 878:Middlewares/lvgl/src/widgets/lv_table.c ****             if(x < tmp) break;
 787              		.loc 1 878 17 view .LVU256
 788 008e 1144     		add	r1, r1, r2
 789              	.LVL85:
 878:Middlewares/lvgl/src/widgets/lv_table.c ****             if(x < tmp) break;
 790              		.loc 1 878 17 view .LVU257
 791 0090 09B2     		sxth	r1, r1
 792              	.LVL86:
 879:Middlewares/lvgl/src/widgets/lv_table.c ****         }
 793              		.loc 1 879 13 is_stmt 1 view .LVU258
 879:Middlewares/lvgl/src/widgets/lv_table.c ****         }
 794              		.loc 1 879 15 is_stmt 0 view .LVU259
 795 0092 8842     		cmp	r0, r1
 796 0094 11DB     		blt	.L20
 877:Middlewares/lvgl/src/widgets/lv_table.c ****             tmp += table->col_w[*col];
 797              		.loc 1 877 46 is_stmt 1 discriminator 2 view .LVU260
 877:Middlewares/lvgl/src/widgets/lv_table.c ****             tmp += table->col_w[*col];
 798              		.loc 1 877 52 is_stmt 0 discriminator 2 view .LVU261
 799 0096 0133     		adds	r3, r3, #1
 800 0098 3380     		strh	r3, [r6]	@ movhi
 801 009a F1E7     		b	.L23
 802              	.LVL87:
 803              	.L30:
 868:Middlewares/lvgl/src/widgets/lv_table.c ****         }
 804              		.loc 1 868 13 is_stmt 1 view .LVU262
 868:Middlewares/lvgl/src/widgets/lv_table.c ****         }
 805              		.loc 1 868 28 is_stmt 0 view .LVU263
 806 009c B4F81880 		ldrh	r8, [r4, #24]
 807              	.LVL88:
 808              	.LBB117:
 809              	.LBI117:
 109:Middlewares/lvgl/src/widgets/../core/lv_obj_style_gen.h **** {
 810              		.loc 3 109 26 is_stmt 1 view .LVU264
 811              	.LBB118:
 111:Middlewares/lvgl/src/widgets/../core/lv_obj_style_gen.h ****     return (lv_coord_t)v.num;
 812              		.loc 3 111 5 view .LVU265
 111:Middlewares/lvgl/src/widgets/../core/lv_obj_style_gen.h ****     return (lv_coord_t)v.num;
 813              		.loc 3 111 26 is_stmt 0 view .LVU266
 814 00a0 41F21302 		movw	r2, #4115
 815 00a4 0021     		movs	r1, #0
 816 00a6 2046     		mov	r0, r4
 817 00a8 FFF7FEFF 		bl	lv_obj_get_style_prop
 818              	.LVL89:
 112:Middlewares/lvgl/src/widgets/../core/lv_obj_style_gen.h **** }
 819              		.loc 3 112 5 is_stmt 1 view .LVU267
 112:Middlewares/lvgl/src/widgets/../core/lv_obj_style_gen.h **** }
ARM GAS  /tmp/ccJnAI63.s 			page 42


 820              		.loc 3 112 5 is_stmt 0 view .LVU268
 821              	.LBE118:
 822              	.LBE117:
 868:Middlewares/lvgl/src/widgets/lv_table.c ****         }
 823              		.loc 1 868 34 view .LVU269
 824 00ac 80B2     		uxth	r0, r0
 868:Middlewares/lvgl/src/widgets/lv_table.c ****         }
 825              		.loc 1 868 32 view .LVU270
 826 00ae A8EB0000 		sub	r0, r8, r0
 827 00b2 80B2     		uxth	r0, r0
 868:Middlewares/lvgl/src/widgets/lv_table.c ****         }
 828              		.loc 1 868 80 view .LVU271
 829 00b4 C71B     		subs	r7, r0, r7
 830              	.LVL90:
 868:Middlewares/lvgl/src/widgets/lv_table.c ****         }
 831              		.loc 1 868 15 view .LVU272
 832 00b6 38B2     		sxth	r0, r7
 833              	.LVL91:
 868:Middlewares/lvgl/src/widgets/lv_table.c ****         }
 834              		.loc 1 868 15 view .LVU273
 835 00b8 E0E7     		b	.L22
 836              	.LVL92:
 837              	.L20:
 868:Middlewares/lvgl/src/widgets/lv_table.c ****         }
 838              		.loc 1 868 15 view .LVU274
 839              	.LBE112:
 883:Middlewares/lvgl/src/widgets/lv_table.c ****         lv_coord_t y = p.y + lv_obj_get_scroll_y(obj);;
 840              		.loc 1 883 5 is_stmt 1 view .LVU275
 883:Middlewares/lvgl/src/widgets/lv_table.c ****         lv_coord_t y = p.y + lv_obj_get_scroll_y(obj);;
 841              		.loc 1 883 7 is_stmt 0 view .LVU276
 842 00ba 2DB3     		cbz	r5, .L27
 843              	.LBB119:
 884:Middlewares/lvgl/src/widgets/lv_table.c ****         y -= obj->coords.y1;
 844              		.loc 1 884 9 is_stmt 1 view .LVU277
 884:Middlewares/lvgl/src/widgets/lv_table.c ****         y -= obj->coords.y1;
 845              		.loc 1 884 25 is_stmt 0 view .LVU278
 846 00bc BDF80660 		ldrh	r6, [sp, #6]
 847              	.LVL93:
 884:Middlewares/lvgl/src/widgets/lv_table.c ****         y -= obj->coords.y1;
 848              		.loc 1 884 30 view .LVU279
 849 00c0 2046     		mov	r0, r4
 850 00c2 FFF7FEFF 		bl	lv_obj_get_scroll_y
 851              	.LVL94:
 884:Middlewares/lvgl/src/widgets/lv_table.c ****         y -= obj->coords.y1;
 852              		.loc 1 884 28 view .LVU280
 853 00c6 16FA80F6 		uxtah	r6, r6, r0
 854 00ca B6B2     		uxth	r6, r6
 855              	.LVL95:
 884:Middlewares/lvgl/src/widgets/lv_table.c ****         y -= obj->coords.y1;
 856              		.loc 1 884 55 is_stmt 1 view .LVU281
 885:Middlewares/lvgl/src/widgets/lv_table.c ****         y -= lv_obj_get_style_pad_top(obj, LV_PART_MAIN);
 857              		.loc 1 885 9 view .LVU282
 885:Middlewares/lvgl/src/widgets/lv_table.c ****         y -= lv_obj_get_style_pad_top(obj, LV_PART_MAIN);
 858              		.loc 1 885 25 is_stmt 0 view .LVU283
 859 00cc E18A     		ldrh	r1, [r4, #22]
 885:Middlewares/lvgl/src/widgets/lv_table.c ****         y -= lv_obj_get_style_pad_top(obj, LV_PART_MAIN);
 860              		.loc 1 885 11 view .LVU284
ARM GAS  /tmp/ccJnAI63.s 			page 43


 861 00ce 761A     		subs	r6, r6, r1
 862              	.LVL96:
 885:Middlewares/lvgl/src/widgets/lv_table.c ****         y -= lv_obj_get_style_pad_top(obj, LV_PART_MAIN);
 863              		.loc 1 885 11 view .LVU285
 864 00d0 B6B2     		uxth	r6, r6
 865              	.LVL97:
 886:Middlewares/lvgl/src/widgets/lv_table.c **** 
 866              		.loc 1 886 9 is_stmt 1 view .LVU286
 867              	.LBB120:
 868              	.LBI120:
  91:Middlewares/lvgl/src/widgets/../core/lv_obj_style_gen.h **** {
 869              		.loc 3 91 26 view .LVU287
 870              	.LBB121:
  93:Middlewares/lvgl/src/widgets/../core/lv_obj_style_gen.h ****     return (lv_coord_t)v.num;
 871              		.loc 3 93 5 view .LVU288
  93:Middlewares/lvgl/src/widgets/../core/lv_obj_style_gen.h ****     return (lv_coord_t)v.num;
 872              		.loc 3 93 26 is_stmt 0 view .LVU289
 873 00d2 41F21002 		movw	r2, #4112
 874 00d6 0021     		movs	r1, #0
 875 00d8 2046     		mov	r0, r4
 876 00da FFF7FEFF 		bl	lv_obj_get_style_prop
 877              	.LVL98:
  94:Middlewares/lvgl/src/widgets/../core/lv_obj_style_gen.h **** }
 878              		.loc 3 94 5 is_stmt 1 view .LVU290
  94:Middlewares/lvgl/src/widgets/../core/lv_obj_style_gen.h **** }
 879              		.loc 3 94 5 is_stmt 0 view .LVU291
 880              	.LBE121:
 881              	.LBE120:
 886:Middlewares/lvgl/src/widgets/lv_table.c **** 
 882              		.loc 1 886 14 view .LVU292
 883 00de 81B2     		uxth	r1, r0
 886:Middlewares/lvgl/src/widgets/lv_table.c **** 
 884              		.loc 1 886 11 view .LVU293
 885 00e0 711A     		subs	r1, r6, r1
 886 00e2 09B2     		sxth	r1, r1
 887              	.LVL99:
 888:Middlewares/lvgl/src/widgets/lv_table.c ****         tmp = 0;
 888              		.loc 1 888 9 is_stmt 1 view .LVU294
 888:Middlewares/lvgl/src/widgets/lv_table.c ****         tmp = 0;
 889              		.loc 1 888 14 is_stmt 0 view .LVU295
 890 00e4 0022     		movs	r2, #0
 891 00e6 2A80     		strh	r2, [r5]	@ movhi
 889:Middlewares/lvgl/src/widgets/lv_table.c **** 
 892              		.loc 1 889 9 is_stmt 1 view .LVU296
 893              	.LVL100:
 891:Middlewares/lvgl/src/widgets/lv_table.c ****             tmp += table->row_h[*row];
 894              		.loc 1 891 9 view .LVU297
 895              	.L25:
 891:Middlewares/lvgl/src/widgets/lv_table.c ****             tmp += table->row_h[*row];
 896              		.loc 1 891 23 discriminator 1 view .LVU298
 897 00e8 2B88     		ldrh	r3, [r5]
 891:Middlewares/lvgl/src/widgets/lv_table.c ****             tmp += table->row_h[*row];
 898              		.loc 1 891 35 is_stmt 0 discriminator 1 view .LVU299
 899 00ea E08C     		ldrh	r0, [r4, #38]
 891:Middlewares/lvgl/src/widgets/lv_table.c ****             tmp += table->row_h[*row];
 900              		.loc 1 891 9 discriminator 1 view .LVU300
 901 00ec 8342     		cmp	r3, r0
ARM GAS  /tmp/ccJnAI63.s 			page 44


 902 00ee 09D2     		bcs	.L31
 892:Middlewares/lvgl/src/widgets/lv_table.c ****             if(y < tmp) break;
 903              		.loc 1 892 13 is_stmt 1 view .LVU301
 892:Middlewares/lvgl/src/widgets/lv_table.c ****             if(y < tmp) break;
 904              		.loc 1 892 25 is_stmt 0 view .LVU302
 905 00f0 E06A     		ldr	r0, [r4, #44]
 892:Middlewares/lvgl/src/widgets/lv_table.c ****             if(y < tmp) break;
 906              		.loc 1 892 32 view .LVU303
 907 00f2 30F81300 		ldrh	r0, [r0, r3, lsl #1]
 892:Middlewares/lvgl/src/widgets/lv_table.c ****             if(y < tmp) break;
 908              		.loc 1 892 17 view .LVU304
 909 00f6 0244     		add	r2, r2, r0
 910              	.LVL101:
 892:Middlewares/lvgl/src/widgets/lv_table.c ****             if(y < tmp) break;
 911              		.loc 1 892 17 view .LVU305
 912 00f8 12B2     		sxth	r2, r2
 913              	.LVL102:
 893:Middlewares/lvgl/src/widgets/lv_table.c ****         }
 914              		.loc 1 893 13 is_stmt 1 view .LVU306
 893:Middlewares/lvgl/src/widgets/lv_table.c ****         }
 915              		.loc 1 893 15 is_stmt 0 view .LVU307
 916 00fa 9142     		cmp	r1, r2
 917 00fc 06DB     		blt	.L28
 891:Middlewares/lvgl/src/widgets/lv_table.c ****             tmp += table->row_h[*row];
 918              		.loc 1 891 46 is_stmt 1 discriminator 2 view .LVU308
 891:Middlewares/lvgl/src/widgets/lv_table.c ****             tmp += table->row_h[*row];
 919              		.loc 1 891 52 is_stmt 0 discriminator 2 view .LVU309
 920 00fe 0133     		adds	r3, r3, #1
 921 0100 2B80     		strh	r3, [r5]	@ movhi
 922 0102 F1E7     		b	.L25
 923              	.L31:
 891:Middlewares/lvgl/src/widgets/lv_table.c ****             tmp += table->row_h[*row];
 924              		.loc 1 891 52 discriminator 2 view .LVU310
 925              	.LBE119:
 897:Middlewares/lvgl/src/widgets/lv_table.c **** }
 926              		.loc 1 897 12 view .LVU311
 927 0104 0120     		movs	r0, #1
 928              	.LBB122:
 929 0106 92E7     		b	.L19
 930              	.LVL103:
 931              	.L27:
 897:Middlewares/lvgl/src/widgets/lv_table.c **** }
 932              		.loc 1 897 12 view .LVU312
 933              	.LBE122:
 934 0108 0120     		movs	r0, #1
 935 010a 90E7     		b	.L19
 936              	.LVL104:
 937              	.L28:
 897:Middlewares/lvgl/src/widgets/lv_table.c **** }
 938              		.loc 1 897 12 view .LVU313
 939 010c 0120     		movs	r0, #1
 940 010e 8EE7     		b	.L19
 941              		.cfi_endproc
 942              	.LFE167:
 944              		.section	.text.draw_main,"ax",%progbits
 945              		.align	1
 946              		.syntax unified
ARM GAS  /tmp/ccJnAI63.s 			page 45


 947              		.thumb
 948              		.thumb_func
 950              	draw_main:
 951              	.LVL105:
 952              	.LFB164:
 582:Middlewares/lvgl/src/widgets/lv_table.c ****     lv_obj_t * obj = lv_event_get_target(e);
 953              		.loc 1 582 1 is_stmt 1 view -0
 954              		.cfi_startproc
 955              		@ args = 0, pretend = 0, frame = 352
 956              		@ frame_needed = 0, uses_anonymous_args = 0
 582:Middlewares/lvgl/src/widgets/lv_table.c ****     lv_obj_t * obj = lv_event_get_target(e);
 957              		.loc 1 582 1 is_stmt 0 view .LVU315
 958 0000 2DE9F04F 		push	{r4, r5, r6, r7, r8, r9, r10, fp, lr}
 959              	.LCFI10:
 960              		.cfi_def_cfa_offset 36
 961              		.cfi_offset 4, -36
 962              		.cfi_offset 5, -32
 963              		.cfi_offset 6, -28
 964              		.cfi_offset 7, -24
 965              		.cfi_offset 8, -20
 966              		.cfi_offset 9, -16
 967              		.cfi_offset 10, -12
 968              		.cfi_offset 11, -8
 969              		.cfi_offset 14, -4
 970 0004 DDB0     		sub	sp, sp, #372
 971              	.LCFI11:
 972              		.cfi_def_cfa_offset 408
 973 0006 0446     		mov	r4, r0
 583:Middlewares/lvgl/src/widgets/lv_table.c ****     lv_table_t * table = (lv_table_t *)obj;
 974              		.loc 1 583 5 is_stmt 1 view .LVU316
 583:Middlewares/lvgl/src/widgets/lv_table.c ****     lv_table_t * table = (lv_table_t *)obj;
 975              		.loc 1 583 22 is_stmt 0 view .LVU317
 976 0008 FFF7FEFF 		bl	lv_event_get_target
 977              	.LVL106:
 583:Middlewares/lvgl/src/widgets/lv_table.c ****     lv_table_t * table = (lv_table_t *)obj;
 978              		.loc 1 583 22 view .LVU318
 979 000c 0746     		mov	r7, r0
 980              	.LVL107:
 584:Middlewares/lvgl/src/widgets/lv_table.c ****     const lv_area_t * clip_area = lv_event_get_param(e);
 981              		.loc 1 584 5 is_stmt 1 view .LVU319
 585:Middlewares/lvgl/src/widgets/lv_table.c **** 
 982              		.loc 1 585 5 view .LVU320
 585:Middlewares/lvgl/src/widgets/lv_table.c **** 
 983              		.loc 1 585 35 is_stmt 0 view .LVU321
 984 000e 2046     		mov	r0, r4
 985              	.LVL108:
 585:Middlewares/lvgl/src/widgets/lv_table.c **** 
 986              		.loc 1 585 35 view .LVU322
 987 0010 FFF7FEFF 		bl	lv_event_get_param
 988              	.LVL109:
 989 0014 8046     		mov	r8, r0
 990 0016 0690     		str	r0, [sp, #24]
 991              	.LVL110:
 587:Middlewares/lvgl/src/widgets/lv_table.c ****     lv_area_t cell_area;
 992              		.loc 1 587 5 is_stmt 1 view .LVU323
 588:Middlewares/lvgl/src/widgets/lv_table.c ****     lv_area_t txt_area;
 993              		.loc 1 588 5 view .LVU324
ARM GAS  /tmp/ccJnAI63.s 			page 46


 589:Middlewares/lvgl/src/widgets/lv_table.c ****     lv_text_flag_t txt_flags;
 994              		.loc 1 589 5 view .LVU325
 590:Middlewares/lvgl/src/widgets/lv_table.c **** 
 995              		.loc 1 590 5 view .LVU326
 592:Middlewares/lvgl/src/widgets/lv_table.c ****     lv_coord_t bg_bottom = lv_obj_get_style_pad_bottom(obj, LV_PART_MAIN);
 996              		.loc 1 592 5 view .LVU327
 997              	.LBB123:
 998              	.LBI123:
  91:Middlewares/lvgl/src/widgets/../core/lv_obj_style_gen.h **** {
 999              		.loc 3 91 26 view .LVU328
 1000              	.LBB124:
  93:Middlewares/lvgl/src/widgets/../core/lv_obj_style_gen.h ****     return (lv_coord_t)v.num;
 1001              		.loc 3 93 5 view .LVU329
  93:Middlewares/lvgl/src/widgets/../core/lv_obj_style_gen.h ****     return (lv_coord_t)v.num;
 1002              		.loc 3 93 26 is_stmt 0 view .LVU330
 1003 0018 41F21002 		movw	r2, #4112
 1004 001c 0021     		movs	r1, #0
 1005 001e 3846     		mov	r0, r7
 1006              	.LVL111:
  93:Middlewares/lvgl/src/widgets/../core/lv_obj_style_gen.h ****     return (lv_coord_t)v.num;
 1007              		.loc 3 93 26 view .LVU331
 1008 0020 FFF7FEFF 		bl	lv_obj_get_style_prop
 1009              	.LVL112:
 1010 0024 0446     		mov	r4, r0
 1011              	.LVL113:
  94:Middlewares/lvgl/src/widgets/../core/lv_obj_style_gen.h **** }
 1012              		.loc 3 94 5 is_stmt 1 view .LVU332
  94:Middlewares/lvgl/src/widgets/../core/lv_obj_style_gen.h **** }
 1013              		.loc 3 94 12 is_stmt 0 view .LVU333
 1014 0026 03B2     		sxth	r3, r0
 1015 0028 1193     		str	r3, [sp, #68]
 1016              	.LVL114:
  94:Middlewares/lvgl/src/widgets/../core/lv_obj_style_gen.h **** }
 1017              		.loc 3 94 12 view .LVU334
 1018              	.LBE124:
 1019              	.LBE123:
 593:Middlewares/lvgl/src/widgets/lv_table.c ****     lv_coord_t bg_left = lv_obj_get_style_pad_left(obj, LV_PART_MAIN);
 1020              		.loc 1 593 5 is_stmt 1 view .LVU335
 1021              	.LBB125:
 1022              	.LBI125:
  97:Middlewares/lvgl/src/widgets/../core/lv_obj_style_gen.h **** {
 1023              		.loc 3 97 26 view .LVU336
 1024              	.LBB126:
  99:Middlewares/lvgl/src/widgets/../core/lv_obj_style_gen.h ****     return (lv_coord_t)v.num;
 1025              		.loc 3 99 5 view .LVU337
  99:Middlewares/lvgl/src/widgets/../core/lv_obj_style_gen.h ****     return (lv_coord_t)v.num;
 1026              		.loc 3 99 26 is_stmt 0 view .LVU338
 1027 002a 41F21102 		movw	r2, #4113
 1028 002e 0021     		movs	r1, #0
 1029 0030 3846     		mov	r0, r7
  99:Middlewares/lvgl/src/widgets/../core/lv_obj_style_gen.h ****     return (lv_coord_t)v.num;
 1030              		.loc 3 99 26 view .LVU339
 1031 0032 FFF7FEFF 		bl	lv_obj_get_style_prop
 1032              	.LVL115:
 100:Middlewares/lvgl/src/widgets/../core/lv_obj_style_gen.h **** }
 1033              		.loc 3 100 5 is_stmt 1 view .LVU340
 100:Middlewares/lvgl/src/widgets/../core/lv_obj_style_gen.h **** }
ARM GAS  /tmp/ccJnAI63.s 			page 47


 1034              		.loc 3 100 12 is_stmt 0 view .LVU341
 1035 0036 03B2     		sxth	r3, r0
 1036 0038 1093     		str	r3, [sp, #64]
 1037              	.LVL116:
 100:Middlewares/lvgl/src/widgets/../core/lv_obj_style_gen.h **** }
 1038              		.loc 3 100 12 view .LVU342
 1039              	.LBE126:
 1040              	.LBE125:
 594:Middlewares/lvgl/src/widgets/lv_table.c ****     lv_coord_t bg_right = lv_obj_get_style_pad_right(obj, LV_PART_MAIN);
 1041              		.loc 1 594 5 is_stmt 1 view .LVU343
 1042              	.LBB127:
 1043              	.LBI127:
 103:Middlewares/lvgl/src/widgets/../core/lv_obj_style_gen.h **** {
 1044              		.loc 3 103 26 view .LVU344
 1045              	.LBB128:
 105:Middlewares/lvgl/src/widgets/../core/lv_obj_style_gen.h ****     return (lv_coord_t)v.num;
 1046              		.loc 3 105 5 view .LVU345
 105:Middlewares/lvgl/src/widgets/../core/lv_obj_style_gen.h ****     return (lv_coord_t)v.num;
 1047              		.loc 3 105 26 is_stmt 0 view .LVU346
 1048 003a 41F21202 		movw	r2, #4114
 1049 003e 0021     		movs	r1, #0
 1050 0040 3846     		mov	r0, r7
 1051 0042 FFF7FEFF 		bl	lv_obj_get_style_prop
 1052              	.LVL117:
 1053 0046 1390     		str	r0, [sp, #76]
 106:Middlewares/lvgl/src/widgets/../core/lv_obj_style_gen.h **** }
 1054              		.loc 3 106 5 is_stmt 1 view .LVU347
 106:Middlewares/lvgl/src/widgets/../core/lv_obj_style_gen.h **** }
 1055              		.loc 3 106 12 is_stmt 0 view .LVU348
 1056 0048 03B2     		sxth	r3, r0
 1057 004a 0F93     		str	r3, [sp, #60]
 1058              	.LVL118:
 106:Middlewares/lvgl/src/widgets/../core/lv_obj_style_gen.h **** }
 1059              		.loc 3 106 12 view .LVU349
 1060              	.LBE128:
 1061              	.LBE127:
 595:Middlewares/lvgl/src/widgets/lv_table.c **** 
 1062              		.loc 1 595 5 is_stmt 1 view .LVU350
 1063              	.LBB129:
 1064              	.LBI129:
 109:Middlewares/lvgl/src/widgets/../core/lv_obj_style_gen.h **** {
 1065              		.loc 3 109 26 view .LVU351
 1066              	.LBB130:
 111:Middlewares/lvgl/src/widgets/../core/lv_obj_style_gen.h ****     return (lv_coord_t)v.num;
 1067              		.loc 3 111 5 view .LVU352
 111:Middlewares/lvgl/src/widgets/../core/lv_obj_style_gen.h ****     return (lv_coord_t)v.num;
 1068              		.loc 3 111 26 is_stmt 0 view .LVU353
 1069 004c 41F21302 		movw	r2, #4115
 1070 0050 0021     		movs	r1, #0
 1071 0052 3846     		mov	r0, r7
 1072 0054 FFF7FEFF 		bl	lv_obj_get_style_prop
 1073              	.LVL119:
 1074 0058 1590     		str	r0, [sp, #84]
 112:Middlewares/lvgl/src/widgets/../core/lv_obj_style_gen.h **** }
 1075              		.loc 3 112 5 is_stmt 1 view .LVU354
 112:Middlewares/lvgl/src/widgets/../core/lv_obj_style_gen.h **** }
 1076              		.loc 3 112 12 is_stmt 0 view .LVU355
ARM GAS  /tmp/ccJnAI63.s 			page 48


 1077 005a 03B2     		sxth	r3, r0
 1078 005c 0E93     		str	r3, [sp, #56]
 1079              	.LVL120:
 112:Middlewares/lvgl/src/widgets/../core/lv_obj_style_gen.h **** }
 1080              		.loc 3 112 12 view .LVU356
 1081              	.LBE130:
 1082              	.LBE129:
 597:Middlewares/lvgl/src/widgets/lv_table.c ****     lv_coord_t cell_right = lv_obj_get_style_pad_right(obj, LV_PART_ITEMS);
 1083              		.loc 1 597 5 is_stmt 1 view .LVU357
 1084              	.LBB131:
 1085              	.LBI131:
 103:Middlewares/lvgl/src/widgets/../core/lv_obj_style_gen.h **** {
 1086              		.loc 3 103 26 view .LVU358
 1087              	.LBB132:
 105:Middlewares/lvgl/src/widgets/../core/lv_obj_style_gen.h ****     return (lv_coord_t)v.num;
 1088              		.loc 3 105 5 view .LVU359
 105:Middlewares/lvgl/src/widgets/../core/lv_obj_style_gen.h ****     return (lv_coord_t)v.num;
 1089              		.loc 3 105 26 is_stmt 0 view .LVU360
 1090 005e 41F21202 		movw	r2, #4114
 1091 0062 4FF4A021 		mov	r1, #327680
 1092 0066 3846     		mov	r0, r7
 1093 0068 FFF7FEFF 		bl	lv_obj_get_style_prop
 1094              	.LVL121:
 1095 006c 0C90     		str	r0, [sp, #48]
 106:Middlewares/lvgl/src/widgets/../core/lv_obj_style_gen.h **** }
 1096              		.loc 3 106 5 is_stmt 1 view .LVU361
 1097              	.LVL122:
 106:Middlewares/lvgl/src/widgets/../core/lv_obj_style_gen.h **** }
 1098              		.loc 3 106 5 is_stmt 0 view .LVU362
 1099              	.LBE132:
 1100              	.LBE131:
 598:Middlewares/lvgl/src/widgets/lv_table.c ****     lv_coord_t cell_top = lv_obj_get_style_pad_top(obj, LV_PART_ITEMS);
 1101              		.loc 1 598 5 is_stmt 1 view .LVU363
 1102              	.LBB133:
 1103              	.LBI133:
 109:Middlewares/lvgl/src/widgets/../core/lv_obj_style_gen.h **** {
 1104              		.loc 3 109 26 view .LVU364
 1105              	.LBB134:
 111:Middlewares/lvgl/src/widgets/../core/lv_obj_style_gen.h ****     return (lv_coord_t)v.num;
 1106              		.loc 3 111 5 view .LVU365
 111:Middlewares/lvgl/src/widgets/../core/lv_obj_style_gen.h ****     return (lv_coord_t)v.num;
 1107              		.loc 3 111 26 is_stmt 0 view .LVU366
 1108 006e 41F21302 		movw	r2, #4115
 1109 0072 4FF4A021 		mov	r1, #327680
 1110 0076 3846     		mov	r0, r7
 1111 0078 FFF7FEFF 		bl	lv_obj_get_style_prop
 1112              	.LVL123:
 1113 007c 0B90     		str	r0, [sp, #44]
 112:Middlewares/lvgl/src/widgets/../core/lv_obj_style_gen.h **** }
 1114              		.loc 3 112 5 is_stmt 1 view .LVU367
 1115              	.LVL124:
 112:Middlewares/lvgl/src/widgets/../core/lv_obj_style_gen.h **** }
 1116              		.loc 3 112 5 is_stmt 0 view .LVU368
 1117              	.LBE134:
 1118              	.LBE133:
 599:Middlewares/lvgl/src/widgets/lv_table.c ****     lv_coord_t cell_bottom = lv_obj_get_style_pad_bottom(obj, LV_PART_ITEMS);
 1119              		.loc 1 599 5 is_stmt 1 view .LVU369
ARM GAS  /tmp/ccJnAI63.s 			page 49


 1120              	.LBB135:
 1121              	.LBI135:
  91:Middlewares/lvgl/src/widgets/../core/lv_obj_style_gen.h **** {
 1122              		.loc 3 91 26 view .LVU370
 1123              	.LBB136:
  93:Middlewares/lvgl/src/widgets/../core/lv_obj_style_gen.h ****     return (lv_coord_t)v.num;
 1124              		.loc 3 93 5 view .LVU371
  93:Middlewares/lvgl/src/widgets/../core/lv_obj_style_gen.h ****     return (lv_coord_t)v.num;
 1125              		.loc 3 93 26 is_stmt 0 view .LVU372
 1126 007e 41F21002 		movw	r2, #4112
 1127 0082 4FF4A021 		mov	r1, #327680
 1128 0086 3846     		mov	r0, r7
 1129 0088 FFF7FEFF 		bl	lv_obj_get_style_prop
 1130              	.LVL125:
 1131 008c 0A90     		str	r0, [sp, #40]
  94:Middlewares/lvgl/src/widgets/../core/lv_obj_style_gen.h **** }
 1132              		.loc 3 94 5 is_stmt 1 view .LVU373
 1133              	.LVL126:
  94:Middlewares/lvgl/src/widgets/../core/lv_obj_style_gen.h **** }
 1134              		.loc 3 94 5 is_stmt 0 view .LVU374
 1135              	.LBE136:
 1136              	.LBE135:
 600:Middlewares/lvgl/src/widgets/lv_table.c **** 
 1137              		.loc 1 600 5 is_stmt 1 view .LVU375
 1138              	.LBB137:
 1139              	.LBI137:
  97:Middlewares/lvgl/src/widgets/../core/lv_obj_style_gen.h **** {
 1140              		.loc 3 97 26 view .LVU376
 1141              	.LBB138:
  99:Middlewares/lvgl/src/widgets/../core/lv_obj_style_gen.h ****     return (lv_coord_t)v.num;
 1142              		.loc 3 99 5 view .LVU377
  99:Middlewares/lvgl/src/widgets/../core/lv_obj_style_gen.h ****     return (lv_coord_t)v.num;
 1143              		.loc 3 99 26 is_stmt 0 view .LVU378
 1144 008e 41F21102 		movw	r2, #4113
 1145 0092 4FF4A021 		mov	r1, #327680
 1146 0096 3846     		mov	r0, r7
 1147 0098 FFF7FEFF 		bl	lv_obj_get_style_prop
 1148              	.LVL127:
 1149 009c 0990     		str	r0, [sp, #36]
 100:Middlewares/lvgl/src/widgets/../core/lv_obj_style_gen.h **** }
 1150              		.loc 3 100 5 is_stmt 1 view .LVU379
 1151              	.LVL128:
 100:Middlewares/lvgl/src/widgets/../core/lv_obj_style_gen.h **** }
 1152              		.loc 3 100 5 is_stmt 0 view .LVU380
 1153              	.LBE138:
 1154              	.LBE137:
 602:Middlewares/lvgl/src/widgets/lv_table.c ****     obj->state = LV_STATE_DEFAULT;
 1155              		.loc 1 602 5 is_stmt 1 view .LVU381
 602:Middlewares/lvgl/src/widgets/lv_table.c ****     obj->state = LV_STATE_DEFAULT;
 1156              		.loc 1 602 16 is_stmt 0 view .LVU382
 1157 009e 3E8C     		ldrh	r6, [r7, #32]
 1158 00a0 1496     		str	r6, [sp, #80]
 1159              	.LVL129:
 603:Middlewares/lvgl/src/widgets/lv_table.c ****     obj->skip_trans = 1;
 1160              		.loc 1 603 5 is_stmt 1 view .LVU383
 603:Middlewares/lvgl/src/widgets/lv_table.c ****     obj->skip_trans = 1;
 1161              		.loc 1 603 16 is_stmt 0 view .LVU384
ARM GAS  /tmp/ccJnAI63.s 			page 50


 1162 00a2 0025     		movs	r5, #0
 1163 00a4 3D84     		strh	r5, [r7, #32]	@ movhi
 604:Middlewares/lvgl/src/widgets/lv_table.c ****     lv_draw_rect_dsc_t rect_dsc_def;
 1164              		.loc 1 604 5 is_stmt 1 view .LVU385
 604:Middlewares/lvgl/src/widgets/lv_table.c ****     lv_draw_rect_dsc_t rect_dsc_def;
 1165              		.loc 1 604 21 is_stmt 0 view .LVU386
 1166 00a6 97F82230 		ldrb	r3, [r7, #34]	@ zero_extendqisi2
 1167 00aa 43F00403 		orr	r3, r3, #4
 1168 00ae 87F82230 		strb	r3, [r7, #34]
 605:Middlewares/lvgl/src/widgets/lv_table.c ****     lv_draw_rect_dsc_t rect_dsc_act; /*Passed to the event to modify it*/
 1169              		.loc 1 605 5 is_stmt 1 view .LVU387
 606:Middlewares/lvgl/src/widgets/lv_table.c ****     lv_draw_rect_dsc_init(&rect_dsc_def);
 1170              		.loc 1 606 5 view .LVU388
 607:Middlewares/lvgl/src/widgets/lv_table.c ****     lv_obj_init_draw_rect_dsc(obj, LV_PART_ITEMS, &rect_dsc_def);
 1171              		.loc 1 607 5 view .LVU389
 1172 00b2 4AA8     		add	r0, sp, #296
 1173 00b4 FFF7FEFF 		bl	lv_draw_rect_dsc_init
 1174              	.LVL130:
 608:Middlewares/lvgl/src/widgets/lv_table.c **** 
 1175              		.loc 1 608 5 view .LVU390
 1176 00b8 4AAA     		add	r2, sp, #296
 1177 00ba 4FF4A021 		mov	r1, #327680
 1178 00be 3846     		mov	r0, r7
 1179 00c0 FFF7FEFF 		bl	lv_obj_init_draw_rect_dsc
 1180              	.LVL131:
 610:Middlewares/lvgl/src/widgets/lv_table.c ****     lv_draw_label_dsc_t label_dsc_act;  /*Passed to the event to modify it*/
 1181              		.loc 1 610 5 view .LVU391
 611:Middlewares/lvgl/src/widgets/lv_table.c ****     lv_draw_label_dsc_init(&label_dsc_def);
 1182              		.loc 1 611 5 view .LVU392
 612:Middlewares/lvgl/src/widgets/lv_table.c ****     lv_obj_init_draw_label_dsc(obj, LV_PART_ITEMS, &label_dsc_def);
 1183              		.loc 1 612 5 view .LVU393
 1184 00c4 35A8     		add	r0, sp, #212
 1185 00c6 FFF7FEFF 		bl	lv_draw_label_dsc_init
 1186              	.LVL132:
 613:Middlewares/lvgl/src/widgets/lv_table.c ****     obj->state = state_ori;
 1187              		.loc 1 613 5 view .LVU394
 1188 00ca 35AA     		add	r2, sp, #212
 1189 00cc 4FF4A021 		mov	r1, #327680
 1190 00d0 3846     		mov	r0, r7
 1191 00d2 FFF7FEFF 		bl	lv_obj_init_draw_label_dsc
 1192              	.LVL133:
 614:Middlewares/lvgl/src/widgets/lv_table.c ****     obj->skip_trans = 0;
 1193              		.loc 1 614 5 view .LVU395
 614:Middlewares/lvgl/src/widgets/lv_table.c ****     obj->skip_trans = 0;
 1194              		.loc 1 614 16 is_stmt 0 view .LVU396
 1195 00d6 3E84     		strh	r6, [r7, #32]	@ movhi
 615:Middlewares/lvgl/src/widgets/lv_table.c **** 
 1196              		.loc 1 615 5 is_stmt 1 view .LVU397
 615:Middlewares/lvgl/src/widgets/lv_table.c **** 
 1197              		.loc 1 615 21 is_stmt 0 view .LVU398
 1198 00d8 97F82230 		ldrb	r3, [r7, #34]	@ zero_extendqisi2
 1199 00dc 65F38203 		bfi	r3, r5, #2, #1
 1200 00e0 87F82230 		strb	r3, [r7, #34]
 617:Middlewares/lvgl/src/widgets/lv_table.c ****     uint16_t row;
 1201              		.loc 1 617 5 is_stmt 1 view .LVU399
 618:Middlewares/lvgl/src/widgets/lv_table.c ****     uint16_t cell = 0;
 1202              		.loc 1 618 5 view .LVU400
ARM GAS  /tmp/ccJnAI63.s 			page 51


 619:Middlewares/lvgl/src/widgets/lv_table.c **** 
 1203              		.loc 1 619 5 view .LVU401
 1204              	.LVL134:
 621:Middlewares/lvgl/src/widgets/lv_table.c ****     lv_coord_t scroll_x = lv_obj_get_scroll_x(obj) ;
 1205              		.loc 1 621 5 view .LVU402
 621:Middlewares/lvgl/src/widgets/lv_table.c ****     lv_coord_t scroll_x = lv_obj_get_scroll_x(obj) ;
 1206              		.loc 1 621 31 is_stmt 0 view .LVU403
 1207 00e4 FB8A     		ldrh	r3, [r7, #22]
 1208              	.LVL135:
 621:Middlewares/lvgl/src/widgets/lv_table.c ****     lv_coord_t scroll_x = lv_obj_get_scroll_x(obj) ;
 1209              		.loc 1 621 35 view .LVU404
 1210 00e6 1C44     		add	r4, r4, r3
 1211              	.LVL136:
 621:Middlewares/lvgl/src/widgets/lv_table.c ****     lv_coord_t scroll_x = lv_obj_get_scroll_x(obj) ;
 1212              		.loc 1 621 35 view .LVU405
 1213 00e8 A4B2     		uxth	r4, r4
 621:Middlewares/lvgl/src/widgets/lv_table.c ****     lv_coord_t scroll_x = lv_obj_get_scroll_x(obj) ;
 1214              		.loc 1 621 50 view .LVU406
 1215 00ea 3846     		mov	r0, r7
 1216 00ec FFF7FEFF 		bl	lv_obj_get_scroll_y
 1217              	.LVL137:
 621:Middlewares/lvgl/src/widgets/lv_table.c ****     lv_coord_t scroll_x = lv_obj_get_scroll_x(obj) ;
 1218              		.loc 1 621 48 view .LVU407
 1219 00f0 231A     		subs	r3, r4, r0
 1220 00f2 013B     		subs	r3, r3, #1
 621:Middlewares/lvgl/src/widgets/lv_table.c ****     lv_coord_t scroll_x = lv_obj_get_scroll_x(obj) ;
 1221              		.loc 1 621 18 view .LVU408
 1222 00f4 ADF86A31 		strh	r3, [sp, #362]	@ movhi
 622:Middlewares/lvgl/src/widgets/lv_table.c ****     bool rtl = lv_obj_get_style_base_dir(obj, LV_PART_MAIN) == LV_BASE_DIR_RTL ? true : false;
 1223              		.loc 1 622 5 is_stmt 1 view .LVU409
 622:Middlewares/lvgl/src/widgets/lv_table.c ****     bool rtl = lv_obj_get_style_base_dir(obj, LV_PART_MAIN) == LV_BASE_DIR_RTL ? true : false;
 1224              		.loc 1 622 27 is_stmt 0 view .LVU410
 1225 00f8 3846     		mov	r0, r7
 1226 00fa FFF7FEFF 		bl	lv_obj_get_scroll_x
 1227              	.LVL138:
 1228 00fe 1290     		str	r0, [sp, #72]
 1229              	.LVL139:
 623:Middlewares/lvgl/src/widgets/lv_table.c **** 
 1230              		.loc 1 623 5 is_stmt 1 view .LVU411
 1231              	.LBB139:
 1232              	.LBI139:
 187:Middlewares/lvgl/src/widgets/../core/lv_obj_style_gen.h **** {
 1233              		.loc 3 187 29 view .LVU412
 1234              	.LBB140:
 189:Middlewares/lvgl/src/widgets/../core/lv_obj_style_gen.h ****     return (lv_base_dir_t)v.num;
 1235              		.loc 3 189 5 view .LVU413
 189:Middlewares/lvgl/src/widgets/../core/lv_obj_style_gen.h ****     return (lv_base_dir_t)v.num;
 1236              		.loc 3 189 26 is_stmt 0 view .LVU414
 1237 0100 41F26A42 		movw	r2, #5226
 1238 0104 2946     		mov	r1, r5
 1239 0106 3846     		mov	r0, r7
 1240 0108 FFF7FEFF 		bl	lv_obj_get_style_prop
 1241              	.LVL140:
 190:Middlewares/lvgl/src/widgets/../core/lv_obj_style_gen.h **** }
 1242              		.loc 3 190 5 is_stmt 1 view .LVU415
 190:Middlewares/lvgl/src/widgets/../core/lv_obj_style_gen.h **** }
 1243              		.loc 3 190 12 is_stmt 0 view .LVU416
ARM GAS  /tmp/ccJnAI63.s 			page 52


 1244 010c 5FFA80FB 		uxtb	fp, r0
 1245              	.LVL141:
 190:Middlewares/lvgl/src/widgets/../core/lv_obj_style_gen.h **** }
 1246              		.loc 3 190 12 view .LVU417
 1247              	.LBE140:
 1248              	.LBE139:
 626:Middlewares/lvgl/src/widgets/lv_table.c ****     lv_obj_draw_dsc_init(&dsc, clip_area);
 1249              		.loc 1 626 5 is_stmt 1 view .LVU418
 627:Middlewares/lvgl/src/widgets/lv_table.c ****     dsc.part = LV_PART_ITEMS;
 1250              		.loc 1 627 5 view .LVU419
 1251 0110 4146     		mov	r1, r8
 1252 0112 1BA8     		add	r0, sp, #108
 1253 0114 FFF7FEFF 		bl	lv_obj_draw_dsc_init
 1254              	.LVL142:
 628:Middlewares/lvgl/src/widgets/lv_table.c ****     dsc.rect_dsc = &rect_dsc_act;
 1255              		.loc 1 628 5 view .LVU420
 628:Middlewares/lvgl/src/widgets/lv_table.c ****     dsc.rect_dsc = &rect_dsc_act;
 1256              		.loc 1 628 14 is_stmt 0 view .LVU421
 1257 0118 4FF4A023 		mov	r3, #327680
 1258 011c 2893     		str	r3, [sp, #160]
 629:Middlewares/lvgl/src/widgets/lv_table.c ****     dsc.label_dsc = &label_dsc_act;
 1259              		.loc 1 629 5 is_stmt 1 view .LVU422
 629:Middlewares/lvgl/src/widgets/lv_table.c ****     dsc.label_dsc = &label_dsc_act;
 1260              		.loc 1 629 18 is_stmt 0 view .LVU423
 1261 011e 3DAB     		add	r3, sp, #244
 1262 0120 1D93     		str	r3, [sp, #116]
 630:Middlewares/lvgl/src/widgets/lv_table.c **** 
 1263              		.loc 1 630 5 is_stmt 1 view .LVU424
 630:Middlewares/lvgl/src/widgets/lv_table.c **** 
 1264              		.loc 1 630 19 is_stmt 0 view .LVU425
 1265 0122 2DAB     		add	r3, sp, #180
 1266 0124 1E93     		str	r3, [sp, #120]
 632:Middlewares/lvgl/src/widgets/lv_table.c ****         lv_coord_t h_row = table->row_h[row];
 1267              		.loc 1 632 5 is_stmt 1 view .LVU426
 1268              	.LVL143:
 619:Middlewares/lvgl/src/widgets/lv_table.c **** 
 1269              		.loc 1 619 14 is_stmt 0 view .LVU427
 1270 0126 AA46     		mov	r10, r5
 632:Middlewares/lvgl/src/widgets/lv_table.c ****         lv_coord_t h_row = table->row_h[row];
 1271              		.loc 1 632 13 view .LVU428
 1272 0128 0795     		str	r5, [sp, #28]
 632:Middlewares/lvgl/src/widgets/lv_table.c ****         lv_coord_t h_row = table->row_h[row];
 1273              		.loc 1 632 5 view .LVU429
 1274 012a CBE1     		b	.L33
 1275              	.LVL144:
 1276              	.L87:
 1277              	.LBB141:
 640:Middlewares/lvgl/src/widgets/lv_table.c ****         else cell_area.x2 = obj->coords.x1 + bg_left - 1 - scroll_x;
 1278              		.loc 1 640 17 is_stmt 1 discriminator 1 view .LVU430
 640:Middlewares/lvgl/src/widgets/lv_table.c ****         else cell_area.x2 = obj->coords.x1 + bg_left - 1 - scroll_x;
 1279              		.loc 1 640 43 is_stmt 0 discriminator 1 view .LVU431
 1280 012c 3B8B     		ldrh	r3, [r7, #24]
 640:Middlewares/lvgl/src/widgets/lv_table.c ****         else cell_area.x2 = obj->coords.x1 + bg_left - 1 - scroll_x;
 1281              		.loc 1 640 47 discriminator 1 view .LVU432
 1282 012e 159A     		ldr	r2, [sp, #84]
 1283 0130 9B1A     		subs	r3, r3, r2
 1284 0132 9BB2     		uxth	r3, r3
ARM GAS  /tmp/ccJnAI63.s 			page 53


 640:Middlewares/lvgl/src/widgets/lv_table.c ****         else cell_area.x2 = obj->coords.x1 + bg_left - 1 - scroll_x;
 1285              		.loc 1 640 62 discriminator 1 view .LVU433
 1286 0134 129A     		ldr	r2, [sp, #72]
 1287 0136 9B1A     		subs	r3, r3, r2
 1288 0138 013B     		subs	r3, r3, #1
 640:Middlewares/lvgl/src/widgets/lv_table.c ****         else cell_area.x2 = obj->coords.x1 + bg_left - 1 - scroll_x;
 1289              		.loc 1 640 30 discriminator 1 view .LVU434
 1290 013a ADF86431 		strh	r3, [sp, #356]	@ movhi
 1291 013e E8E1     		b	.L37
 1292              	.LVL145:
 1293              	.L72:
 1294              	.LBB142:
 644:Middlewares/lvgl/src/widgets/lv_table.c ****             if(table->cell_data[cell]) ctrl = table->cell_data[cell][0];
 1295              		.loc 1 644 34 view .LVU435
 1296 0140 0026     		movs	r6, #0
 1297 0142 46E1     		b	.L38
 1298              	.LVL146:
 1299              	.L86:
 648:Middlewares/lvgl/src/widgets/lv_table.c ****                 cell_area.x1 = cell_area.x2 - table->col_w[col] + 1;
 1300              		.loc 1 648 17 is_stmt 1 view .LVU436
 648:Middlewares/lvgl/src/widgets/lv_table.c ****                 cell_area.x1 = cell_area.x2 - table->col_w[col] + 1;
 1301              		.loc 1 648 41 is_stmt 0 view .LVU437
 1302 0144 BDF86421 		ldrh	r2, [sp, #356]
 648:Middlewares/lvgl/src/widgets/lv_table.c ****                 cell_area.x1 = cell_area.x2 - table->col_w[col] + 1;
 1303              		.loc 1 648 45 view .LVU438
 1304 0148 013A     		subs	r2, r2, #1
 1305 014a 93B2     		uxth	r3, r2
 648:Middlewares/lvgl/src/widgets/lv_table.c ****                 cell_area.x1 = cell_area.x2 - table->col_w[col] + 1;
 1306              		.loc 1 648 30 view .LVU439
 1307 014c ADF86821 		strh	r2, [sp, #360]	@ movhi
 649:Middlewares/lvgl/src/widgets/lv_table.c ****             }
 1308              		.loc 1 649 17 is_stmt 1 view .LVU440
 649:Middlewares/lvgl/src/widgets/lv_table.c ****             }
 1309              		.loc 1 649 52 is_stmt 0 view .LVU441
 1310 0150 3A6B     		ldr	r2, [r7, #48]
 649:Middlewares/lvgl/src/widgets/lv_table.c ****             }
 1311              		.loc 1 649 59 view .LVU442
 1312 0152 32F81520 		ldrh	r2, [r2, r5, lsl #1]
 649:Middlewares/lvgl/src/widgets/lv_table.c ****             }
 1313              		.loc 1 649 45 view .LVU443
 1314 0156 9B1A     		subs	r3, r3, r2
 1315 0158 9BB2     		uxth	r3, r3
 649:Middlewares/lvgl/src/widgets/lv_table.c ****             }
 1316              		.loc 1 649 65 view .LVU444
 1317 015a 0133     		adds	r3, r3, #1
 649:Middlewares/lvgl/src/widgets/lv_table.c ****             }
 1318              		.loc 1 649 30 view .LVU445
 1319 015c ADF86431 		strh	r3, [sp, #356]	@ movhi
 1320 0160 49E1     		b	.L40
 1321              	.LVL147:
 1322              	.L75:
 1323              	.LBB143:
 662:Middlewares/lvgl/src/widgets/lv_table.c ****                         else cell_area.x2 += table->col_w[col + col_merge + 1];
 1324              		.loc 1 662 33 is_stmt 1 discriminator 1 view .LVU446
 662:Middlewares/lvgl/src/widgets/lv_table.c ****                         else cell_area.x2 += table->col_w[col + col_merge + 1];
 1325              		.loc 1 662 54 is_stmt 0 discriminator 1 view .LVU447
 1326 0162 3A6B     		ldr	r2, [r7, #48]
ARM GAS  /tmp/ccJnAI63.s 			page 54


 1327              	.LVL148:
 662:Middlewares/lvgl/src/widgets/lv_table.c ****                         else cell_area.x2 += table->col_w[col + col_merge + 1];
 1328              		.loc 1 662 61 discriminator 1 view .LVU448
 1329 0164 0133     		adds	r3, r3, #1
 1330 0166 32F81320 		ldrh	r2, [r2, r3, lsl #1]
 662:Middlewares/lvgl/src/widgets/lv_table.c ****                         else cell_area.x2 += table->col_w[col + col_merge + 1];
 1331              		.loc 1 662 46 discriminator 1 view .LVU449
 1332 016a BDF86431 		ldrh	r3, [sp, #356]
 1333 016e 9B1A     		subs	r3, r3, r2
 1334 0170 ADF86431 		strh	r3, [sp, #356]	@ movhi
 1335              	.LVL149:
 1336              	.L43:
 662:Middlewares/lvgl/src/widgets/lv_table.c ****                         else cell_area.x2 += table->col_w[col + col_merge + 1];
 1337              		.loc 1 662 46 discriminator 1 view .LVU450
 1338              	.LBE143:
 657:Middlewares/lvgl/src/widgets/lv_table.c ****                 if(table->cell_data[cell + col_merge]) {
 1339              		.loc 1 657 70 is_stmt 1 discriminator 2 view .LVU451
 657:Middlewares/lvgl/src/widgets/lv_table.c ****                 if(table->cell_data[cell + col_merge]) {
 1340              		.loc 1 657 79 is_stmt 0 discriminator 2 view .LVU452
 1341 0174 0134     		adds	r4, r4, #1
 1342              	.LVL150:
 657:Middlewares/lvgl/src/widgets/lv_table.c ****                 if(table->cell_data[cell + col_merge]) {
 1343              		.loc 1 657 79 discriminator 2 view .LVU453
 1344 0176 A4B2     		uxth	r4, r4
 1345              	.LVL151:
 1346              	.L44:
 657:Middlewares/lvgl/src/widgets/lv_table.c ****                 if(table->cell_data[cell + col_merge]) {
 1347              		.loc 1 657 32 is_stmt 1 discriminator 1 view .LVU454
 657:Middlewares/lvgl/src/widgets/lv_table.c ****                 if(table->cell_data[cell + col_merge]) {
 1348              		.loc 1 657 42 is_stmt 0 discriminator 1 view .LVU455
 1349 0178 0595     		str	r5, [sp, #20]
 1350 017a 6319     		adds	r3, r4, r5
 657:Middlewares/lvgl/src/widgets/lv_table.c ****                 if(table->cell_data[cell + col_merge]) {
 1351              		.loc 1 657 65 discriminator 1 view .LVU456
 1352 017c 4A1E     		subs	r2, r1, #1
 657:Middlewares/lvgl/src/widgets/lv_table.c ****                 if(table->cell_data[cell + col_merge]) {
 1353              		.loc 1 657 13 discriminator 1 view .LVU457
 1354 017e 9342     		cmp	r3, r2
 1355 0180 15DA     		bge	.L41
 658:Middlewares/lvgl/src/widgets/lv_table.c ****                     char * next_cell_data = table->cell_data[cell + col_merge];
 1356              		.loc 1 658 17 is_stmt 1 view .LVU458
 658:Middlewares/lvgl/src/widgets/lv_table.c ****                     char * next_cell_data = table->cell_data[cell + col_merge];
 1357              		.loc 1 658 42 is_stmt 0 view .LVU459
 1358 0182 0AEB0402 		add	r2, r10, r4
 658:Middlewares/lvgl/src/widgets/lv_table.c ****                     char * next_cell_data = table->cell_data[cell + col_merge];
 1359              		.loc 1 658 36 view .LVU460
 1360 0186 50F82220 		ldr	r2, [r0, r2, lsl #2]
 658:Middlewares/lvgl/src/widgets/lv_table.c ****                     char * next_cell_data = table->cell_data[cell + col_merge];
 1361              		.loc 1 658 19 view .LVU461
 1362 018a 82B1     		cbz	r2, .L41
 1363              	.LBB144:
 659:Middlewares/lvgl/src/widgets/lv_table.c ****                     if(next_cell_data) ctrl = next_cell_data[0];
 1364              		.loc 1 659 21 is_stmt 1 discriminator 1 view .LVU462
 1365              	.LVL152:
 660:Middlewares/lvgl/src/widgets/lv_table.c ****                     if(ctrl & LV_TABLE_CELL_CTRL_MERGE_RIGHT)
 1366              		.loc 1 660 21 discriminator 1 view .LVU463
 660:Middlewares/lvgl/src/widgets/lv_table.c ****                     if(ctrl & LV_TABLE_CELL_CTRL_MERGE_RIGHT)
ARM GAS  /tmp/ccJnAI63.s 			page 55


 1367              		.loc 1 660 40 discriminator 1 view .LVU464
 660:Middlewares/lvgl/src/widgets/lv_table.c ****                     if(ctrl & LV_TABLE_CELL_CTRL_MERGE_RIGHT)
 1368              		.loc 1 660 45 is_stmt 0 discriminator 1 view .LVU465
 1369 018c 1678     		ldrb	r6, [r2]	@ zero_extendqisi2
 1370              	.LVL153:
 661:Middlewares/lvgl/src/widgets/lv_table.c ****                         if(rtl) cell_area.x1 -= table->col_w[col + col_merge + 1];
 1371              		.loc 1 661 21 is_stmt 1 discriminator 1 view .LVU466
 661:Middlewares/lvgl/src/widgets/lv_table.c ****                         if(rtl) cell_area.x1 -= table->col_w[col + col_merge + 1];
 1372              		.loc 1 661 23 is_stmt 0 discriminator 1 view .LVU467
 1373 018e 16F0010F 		tst	r6, #1
 1374 0192 0CD0     		beq	.L41
 662:Middlewares/lvgl/src/widgets/lv_table.c ****                         else cell_area.x2 += table->col_w[col + col_merge + 1];
 1375              		.loc 1 662 25 is_stmt 1 view .LVU468
 662:Middlewares/lvgl/src/widgets/lv_table.c ****                         else cell_area.x2 += table->col_w[col + col_merge + 1];
 1376              		.loc 1 662 27 is_stmt 0 view .LVU469
 1377 0194 BBF1010F 		cmp	fp, #1
 1378 0198 E3D0     		beq	.L75
 663:Middlewares/lvgl/src/widgets/lv_table.c ****                     else {
 1379              		.loc 1 663 30 is_stmt 1 view .LVU470
 663:Middlewares/lvgl/src/widgets/lv_table.c ****                     else {
 1380              		.loc 1 663 51 is_stmt 0 view .LVU471
 1381 019a 3A6B     		ldr	r2, [r7, #48]
 1382              	.LVL154:
 663:Middlewares/lvgl/src/widgets/lv_table.c ****                     else {
 1383              		.loc 1 663 58 view .LVU472
 1384 019c 0133     		adds	r3, r3, #1
 1385 019e 32F81330 		ldrh	r3, [r2, r3, lsl #1]
 663:Middlewares/lvgl/src/widgets/lv_table.c ****                     else {
 1386              		.loc 1 663 43 view .LVU473
 1387 01a2 BDF86821 		ldrh	r2, [sp, #360]
 1388 01a6 1344     		add	r3, r3, r2
 1389 01a8 ADF86831 		strh	r3, [sp, #360]	@ movhi
 1390              	.LVL155:
 663:Middlewares/lvgl/src/widgets/lv_table.c ****                     else {
 1391              		.loc 1 663 43 view .LVU474
 1392 01ac E2E7     		b	.L43
 1393              	.L41:
 663:Middlewares/lvgl/src/widgets/lv_table.c ****                     else {
 1394              		.loc 1 663 43 view .LVU475
 1395              	.LBE144:
 673:Middlewares/lvgl/src/widgets/lv_table.c ****                 cell += col_merge + 1;
 1396              		.loc 1 673 13 is_stmt 1 view .LVU476
 673:Middlewares/lvgl/src/widgets/lv_table.c ****                 cell += col_merge + 1;
 1397              		.loc 1 673 25 is_stmt 0 view .LVU477
 1398 01ae BDF96A31 		ldrsh	r3, [sp, #362]
 673:Middlewares/lvgl/src/widgets/lv_table.c ****                 cell += col_merge + 1;
 1399              		.loc 1 673 40 view .LVU478
 1400 01b2 069A     		ldr	r2, [sp, #24]
 1401 01b4 B2F90220 		ldrsh	r2, [r2, #2]
 673:Middlewares/lvgl/src/widgets/lv_table.c ****                 cell += col_merge + 1;
 1402              		.loc 1 673 15 view .LVU479
 1403 01b8 9342     		cmp	r3, r2
 1404 01ba C0F21E81 		blt	.L76
 680:Middlewares/lvgl/src/widgets/lv_table.c ****             lv_area_copy(&cell_area_border, &cell_area);
 1405              		.loc 1 680 13 is_stmt 1 view .LVU480
 681:Middlewares/lvgl/src/widgets/lv_table.c ****             if((rect_dsc_def.border_side & LV_BORDER_SIDE_LEFT) && cell_area_border.x1 > obj->coord
 1406              		.loc 1 681 13 view .LVU481
ARM GAS  /tmp/ccJnAI63.s 			page 56


 1407              	.LVL156:
 1408              	.LBB145:
 1409              	.LBI145:
 1410              		.file 4 "Middlewares/lvgl/src/widgets/../core/../misc/../font/../misc/lv_area.h"
   1:Middlewares/lvgl/src/widgets/../core/../misc/../font/../misc/lv_area.h **** /**
   2:Middlewares/lvgl/src/widgets/../core/../misc/../font/../misc/lv_area.h ****  * @file lv_area.h
   3:Middlewares/lvgl/src/widgets/../core/../misc/../font/../misc/lv_area.h ****  *
   4:Middlewares/lvgl/src/widgets/../core/../misc/../font/../misc/lv_area.h ****  */
   5:Middlewares/lvgl/src/widgets/../core/../misc/../font/../misc/lv_area.h **** 
   6:Middlewares/lvgl/src/widgets/../core/../misc/../font/../misc/lv_area.h **** #ifndef LV_AREA_H
   7:Middlewares/lvgl/src/widgets/../core/../misc/../font/../misc/lv_area.h **** #define LV_AREA_H
   8:Middlewares/lvgl/src/widgets/../core/../misc/../font/../misc/lv_area.h **** 
   9:Middlewares/lvgl/src/widgets/../core/../misc/../font/../misc/lv_area.h **** #ifdef __cplusplus
  10:Middlewares/lvgl/src/widgets/../core/../misc/../font/../misc/lv_area.h **** extern "C" {
  11:Middlewares/lvgl/src/widgets/../core/../misc/../font/../misc/lv_area.h **** #endif
  12:Middlewares/lvgl/src/widgets/../core/../misc/../font/../misc/lv_area.h **** 
  13:Middlewares/lvgl/src/widgets/../core/../misc/../font/../misc/lv_area.h **** /*********************
  14:Middlewares/lvgl/src/widgets/../core/../misc/../font/../misc/lv_area.h ****  *      INCLUDES
  15:Middlewares/lvgl/src/widgets/../core/../misc/../font/../misc/lv_area.h ****  *********************/
  16:Middlewares/lvgl/src/widgets/../core/../misc/../font/../misc/lv_area.h **** #include "../lv_conf_internal.h"
  17:Middlewares/lvgl/src/widgets/../core/../misc/../font/../misc/lv_area.h **** #include <string.h>
  18:Middlewares/lvgl/src/widgets/../core/../misc/../font/../misc/lv_area.h **** #include <stdbool.h>
  19:Middlewares/lvgl/src/widgets/../core/../misc/../font/../misc/lv_area.h **** #include <stdint.h>
  20:Middlewares/lvgl/src/widgets/../core/../misc/../font/../misc/lv_area.h **** 
  21:Middlewares/lvgl/src/widgets/../core/../misc/../font/../misc/lv_area.h **** /*********************
  22:Middlewares/lvgl/src/widgets/../core/../misc/../font/../misc/lv_area.h ****  *      DEFINES
  23:Middlewares/lvgl/src/widgets/../core/../misc/../font/../misc/lv_area.h ****  *********************/
  24:Middlewares/lvgl/src/widgets/../core/../misc/../font/../misc/lv_area.h **** 
  25:Middlewares/lvgl/src/widgets/../core/../misc/../font/../misc/lv_area.h **** #define _LV_COORD_MAX_REDUCE    8192
  26:Middlewares/lvgl/src/widgets/../core/../misc/../font/../misc/lv_area.h **** 
  27:Middlewares/lvgl/src/widgets/../core/../misc/../font/../misc/lv_area.h **** #if LV_USE_LARGE_COORD
  28:Middlewares/lvgl/src/widgets/../core/../misc/../font/../misc/lv_area.h **** typedef int32_t lv_coord_t;
  29:Middlewares/lvgl/src/widgets/../core/../misc/../font/../misc/lv_area.h **** #else
  30:Middlewares/lvgl/src/widgets/../core/../misc/../font/../misc/lv_area.h **** typedef int16_t lv_coord_t;
  31:Middlewares/lvgl/src/widgets/../core/../misc/../font/../misc/lv_area.h **** #endif
  32:Middlewares/lvgl/src/widgets/../core/../misc/../font/../misc/lv_area.h **** 
  33:Middlewares/lvgl/src/widgets/../core/../misc/../font/../misc/lv_area.h **** /*To allow some special values in the end reduce the max value*/
  34:Middlewares/lvgl/src/widgets/../core/../misc/../font/../misc/lv_area.h **** #define LV_COORD_MAX ((lv_coord_t)((uint32_t)((uint32_t)1 << (8 * sizeof(lv_coord_t) - 1)) - _LV_CO
  35:Middlewares/lvgl/src/widgets/../core/../misc/../font/../misc/lv_area.h **** #define LV_COORD_MIN (-LV_COORD_MAX)
  36:Middlewares/lvgl/src/widgets/../core/../misc/../font/../misc/lv_area.h **** 
  37:Middlewares/lvgl/src/widgets/../core/../misc/../font/../misc/lv_area.h **** LV_EXPORT_CONST_INT(LV_COORD_MAX);
  38:Middlewares/lvgl/src/widgets/../core/../misc/../font/../misc/lv_area.h **** LV_EXPORT_CONST_INT(LV_COORD_MIN);
  39:Middlewares/lvgl/src/widgets/../core/../misc/../font/../misc/lv_area.h **** 
  40:Middlewares/lvgl/src/widgets/../core/../misc/../font/../misc/lv_area.h **** /**********************
  41:Middlewares/lvgl/src/widgets/../core/../misc/../font/../misc/lv_area.h ****  *      TYPEDEFS
  42:Middlewares/lvgl/src/widgets/../core/../misc/../font/../misc/lv_area.h ****  **********************/
  43:Middlewares/lvgl/src/widgets/../core/../misc/../font/../misc/lv_area.h **** 
  44:Middlewares/lvgl/src/widgets/../core/../misc/../font/../misc/lv_area.h **** /**
  45:Middlewares/lvgl/src/widgets/../core/../misc/../font/../misc/lv_area.h ****  * Represents a point on the screen.
  46:Middlewares/lvgl/src/widgets/../core/../misc/../font/../misc/lv_area.h ****  */
  47:Middlewares/lvgl/src/widgets/../core/../misc/../font/../misc/lv_area.h **** typedef struct {
  48:Middlewares/lvgl/src/widgets/../core/../misc/../font/../misc/lv_area.h ****     lv_coord_t x;
  49:Middlewares/lvgl/src/widgets/../core/../misc/../font/../misc/lv_area.h ****     lv_coord_t y;
  50:Middlewares/lvgl/src/widgets/../core/../misc/../font/../misc/lv_area.h **** } lv_point_t;
  51:Middlewares/lvgl/src/widgets/../core/../misc/../font/../misc/lv_area.h **** 
  52:Middlewares/lvgl/src/widgets/../core/../misc/../font/../misc/lv_area.h **** /** Represents an area of the screen.*/
  53:Middlewares/lvgl/src/widgets/../core/../misc/../font/../misc/lv_area.h **** typedef struct {
ARM GAS  /tmp/ccJnAI63.s 			page 57


  54:Middlewares/lvgl/src/widgets/../core/../misc/../font/../misc/lv_area.h ****     lv_coord_t x1;
  55:Middlewares/lvgl/src/widgets/../core/../misc/../font/../misc/lv_area.h ****     lv_coord_t y1;
  56:Middlewares/lvgl/src/widgets/../core/../misc/../font/../misc/lv_area.h ****     lv_coord_t x2;
  57:Middlewares/lvgl/src/widgets/../core/../misc/../font/../misc/lv_area.h ****     lv_coord_t y2;
  58:Middlewares/lvgl/src/widgets/../core/../misc/../font/../misc/lv_area.h **** } lv_area_t;
  59:Middlewares/lvgl/src/widgets/../core/../misc/../font/../misc/lv_area.h **** 
  60:Middlewares/lvgl/src/widgets/../core/../misc/../font/../misc/lv_area.h **** /** Alignments*/
  61:Middlewares/lvgl/src/widgets/../core/../misc/../font/../misc/lv_area.h **** enum {
  62:Middlewares/lvgl/src/widgets/../core/../misc/../font/../misc/lv_area.h ****     LV_ALIGN_DEFAULT = 0,
  63:Middlewares/lvgl/src/widgets/../core/../misc/../font/../misc/lv_area.h ****     LV_ALIGN_TOP_LEFT,
  64:Middlewares/lvgl/src/widgets/../core/../misc/../font/../misc/lv_area.h ****     LV_ALIGN_TOP_MID,
  65:Middlewares/lvgl/src/widgets/../core/../misc/../font/../misc/lv_area.h ****     LV_ALIGN_TOP_RIGHT,
  66:Middlewares/lvgl/src/widgets/../core/../misc/../font/../misc/lv_area.h ****     LV_ALIGN_BOTTOM_LEFT,
  67:Middlewares/lvgl/src/widgets/../core/../misc/../font/../misc/lv_area.h ****     LV_ALIGN_BOTTOM_MID,
  68:Middlewares/lvgl/src/widgets/../core/../misc/../font/../misc/lv_area.h ****     LV_ALIGN_BOTTOM_RIGHT,
  69:Middlewares/lvgl/src/widgets/../core/../misc/../font/../misc/lv_area.h ****     LV_ALIGN_LEFT_MID,
  70:Middlewares/lvgl/src/widgets/../core/../misc/../font/../misc/lv_area.h ****     LV_ALIGN_RIGHT_MID,
  71:Middlewares/lvgl/src/widgets/../core/../misc/../font/../misc/lv_area.h ****     LV_ALIGN_CENTER,
  72:Middlewares/lvgl/src/widgets/../core/../misc/../font/../misc/lv_area.h **** 
  73:Middlewares/lvgl/src/widgets/../core/../misc/../font/../misc/lv_area.h ****     LV_ALIGN_OUT_TOP_LEFT,
  74:Middlewares/lvgl/src/widgets/../core/../misc/../font/../misc/lv_area.h ****     LV_ALIGN_OUT_TOP_MID,
  75:Middlewares/lvgl/src/widgets/../core/../misc/../font/../misc/lv_area.h ****     LV_ALIGN_OUT_TOP_RIGHT,
  76:Middlewares/lvgl/src/widgets/../core/../misc/../font/../misc/lv_area.h ****     LV_ALIGN_OUT_BOTTOM_LEFT,
  77:Middlewares/lvgl/src/widgets/../core/../misc/../font/../misc/lv_area.h ****     LV_ALIGN_OUT_BOTTOM_MID,
  78:Middlewares/lvgl/src/widgets/../core/../misc/../font/../misc/lv_area.h ****     LV_ALIGN_OUT_BOTTOM_RIGHT,
  79:Middlewares/lvgl/src/widgets/../core/../misc/../font/../misc/lv_area.h ****     LV_ALIGN_OUT_LEFT_TOP,
  80:Middlewares/lvgl/src/widgets/../core/../misc/../font/../misc/lv_area.h ****     LV_ALIGN_OUT_LEFT_MID,
  81:Middlewares/lvgl/src/widgets/../core/../misc/../font/../misc/lv_area.h ****     LV_ALIGN_OUT_LEFT_BOTTOM,
  82:Middlewares/lvgl/src/widgets/../core/../misc/../font/../misc/lv_area.h ****     LV_ALIGN_OUT_RIGHT_TOP,
  83:Middlewares/lvgl/src/widgets/../core/../misc/../font/../misc/lv_area.h ****     LV_ALIGN_OUT_RIGHT_MID,
  84:Middlewares/lvgl/src/widgets/../core/../misc/../font/../misc/lv_area.h ****     LV_ALIGN_OUT_RIGHT_BOTTOM,
  85:Middlewares/lvgl/src/widgets/../core/../misc/../font/../misc/lv_area.h **** };
  86:Middlewares/lvgl/src/widgets/../core/../misc/../font/../misc/lv_area.h **** typedef uint8_t lv_align_t;
  87:Middlewares/lvgl/src/widgets/../core/../misc/../font/../misc/lv_area.h **** 
  88:Middlewares/lvgl/src/widgets/../core/../misc/../font/../misc/lv_area.h **** enum {
  89:Middlewares/lvgl/src/widgets/../core/../misc/../font/../misc/lv_area.h ****     LV_DIR_NONE     = 0x00,
  90:Middlewares/lvgl/src/widgets/../core/../misc/../font/../misc/lv_area.h ****     LV_DIR_LEFT     = (1 << 0),
  91:Middlewares/lvgl/src/widgets/../core/../misc/../font/../misc/lv_area.h ****     LV_DIR_RIGHT    = (1 << 1),
  92:Middlewares/lvgl/src/widgets/../core/../misc/../font/../misc/lv_area.h ****     LV_DIR_TOP      = (1 << 2),
  93:Middlewares/lvgl/src/widgets/../core/../misc/../font/../misc/lv_area.h ****     LV_DIR_BOTTOM   = (1 << 3),
  94:Middlewares/lvgl/src/widgets/../core/../misc/../font/../misc/lv_area.h ****     LV_DIR_HOR      = LV_DIR_LEFT | LV_DIR_RIGHT,
  95:Middlewares/lvgl/src/widgets/../core/../misc/../font/../misc/lv_area.h ****     LV_DIR_VER      = LV_DIR_TOP | LV_DIR_BOTTOM,
  96:Middlewares/lvgl/src/widgets/../core/../misc/../font/../misc/lv_area.h ****     LV_DIR_ALL      = LV_DIR_HOR | LV_DIR_VER,
  97:Middlewares/lvgl/src/widgets/../core/../misc/../font/../misc/lv_area.h **** };
  98:Middlewares/lvgl/src/widgets/../core/../misc/../font/../misc/lv_area.h **** 
  99:Middlewares/lvgl/src/widgets/../core/../misc/../font/../misc/lv_area.h **** typedef uint8_t lv_dir_t;
 100:Middlewares/lvgl/src/widgets/../core/../misc/../font/../misc/lv_area.h **** 
 101:Middlewares/lvgl/src/widgets/../core/../misc/../font/../misc/lv_area.h **** /**********************
 102:Middlewares/lvgl/src/widgets/../core/../misc/../font/../misc/lv_area.h ****  * GLOBAL PROTOTYPES
 103:Middlewares/lvgl/src/widgets/../core/../misc/../font/../misc/lv_area.h ****  **********************/
 104:Middlewares/lvgl/src/widgets/../core/../misc/../font/../misc/lv_area.h **** 
 105:Middlewares/lvgl/src/widgets/../core/../misc/../font/../misc/lv_area.h **** /**
 106:Middlewares/lvgl/src/widgets/../core/../misc/../font/../misc/lv_area.h ****  * Initialize an area
 107:Middlewares/lvgl/src/widgets/../core/../misc/../font/../misc/lv_area.h ****  * @param area_p pointer to an area
 108:Middlewares/lvgl/src/widgets/../core/../misc/../font/../misc/lv_area.h ****  * @param x1 left coordinate of the area
 109:Middlewares/lvgl/src/widgets/../core/../misc/../font/../misc/lv_area.h ****  * @param y1 top coordinate of the area
 110:Middlewares/lvgl/src/widgets/../core/../misc/../font/../misc/lv_area.h ****  * @param x2 right coordinate of the area
ARM GAS  /tmp/ccJnAI63.s 			page 58


 111:Middlewares/lvgl/src/widgets/../core/../misc/../font/../misc/lv_area.h ****  * @param y2 bottom coordinate of the area
 112:Middlewares/lvgl/src/widgets/../core/../misc/../font/../misc/lv_area.h ****  */
 113:Middlewares/lvgl/src/widgets/../core/../misc/../font/../misc/lv_area.h **** void lv_area_set(lv_area_t * area_p, lv_coord_t x1, lv_coord_t y1, lv_coord_t x2, lv_coord_t y2);
 114:Middlewares/lvgl/src/widgets/../core/../misc/../font/../misc/lv_area.h **** 
 115:Middlewares/lvgl/src/widgets/../core/../misc/../font/../misc/lv_area.h **** /**
 116:Middlewares/lvgl/src/widgets/../core/../misc/../font/../misc/lv_area.h ****  * Copy an area
 117:Middlewares/lvgl/src/widgets/../core/../misc/../font/../misc/lv_area.h ****  * @param dest pointer to the destination area
 118:Middlewares/lvgl/src/widgets/../core/../misc/../font/../misc/lv_area.h ****  * @param src pointer to the source area
 119:Middlewares/lvgl/src/widgets/../core/../misc/../font/../misc/lv_area.h ****  */
 120:Middlewares/lvgl/src/widgets/../core/../misc/../font/../misc/lv_area.h **** inline static void lv_area_copy(lv_area_t * dest, const lv_area_t * src)
 1411              		.loc 4 120 20 view .LVU482
 1412              	.LBB146:
 121:Middlewares/lvgl/src/widgets/../core/../misc/../font/../misc/lv_area.h **** {
 122:Middlewares/lvgl/src/widgets/../core/../misc/../font/../misc/lv_area.h ****     dest->x1 = src->x1;
 1413              		.loc 4 122 5 view .LVU483
 1414              		.loc 4 122 19 is_stmt 0 view .LVU484
 1415 01be BDF96401 		ldrsh	r0, [sp, #356]
 1416              		.loc 4 122 14 view .LVU485
 1417 01c2 ADF85C00 		strh	r0, [sp, #92]	@ movhi
 123:Middlewares/lvgl/src/widgets/../core/../misc/../font/../misc/lv_area.h ****     dest->y1 = src->y1;
 1418              		.loc 4 123 5 is_stmt 1 view .LVU486
 1419              		.loc 4 123 19 is_stmt 0 view .LVU487
 1420 01c6 BDF96621 		ldrsh	r2, [sp, #358]
 1421 01ca 0892     		str	r2, [sp, #32]
 1422              		.loc 4 123 14 view .LVU488
 1423 01cc ADF85E20 		strh	r2, [sp, #94]	@ movhi
 124:Middlewares/lvgl/src/widgets/../core/../misc/../font/../misc/lv_area.h ****     dest->x2 = src->x2;
 1424              		.loc 4 124 5 is_stmt 1 view .LVU489
 1425              		.loc 4 124 19 is_stmt 0 view .LVU490
 1426 01d0 BDF968C1 		ldrsh	ip, [sp, #360]
 1427              		.loc 4 124 14 view .LVU491
 1428 01d4 ADF860C0 		strh	ip, [sp, #96]	@ movhi
 125:Middlewares/lvgl/src/widgets/../core/../misc/../font/../misc/lv_area.h ****     dest->y2 = src->y2;
 1429              		.loc 4 125 5 is_stmt 1 view .LVU492
 1430              		.loc 4 125 14 is_stmt 0 view .LVU493
 1431 01d8 ADF86230 		strh	r3, [sp, #98]	@ movhi
 1432              	.LVL157:
 1433              		.loc 4 125 14 view .LVU494
 1434              	.LBE146:
 1435              	.LBE145:
 682:Middlewares/lvgl/src/widgets/lv_table.c ****                 cell_area_border.x1 -= rect_dsc_def.border_width / 2;
 1436              		.loc 1 682 13 is_stmt 1 view .LVU495
 682:Middlewares/lvgl/src/widgets/lv_table.c ****                 cell_area_border.x1 -= rect_dsc_def.border_width / 2;
 1437              		.loc 1 682 29 is_stmt 0 view .LVU496
 1438 01dc 9DF847E1 		ldrb	lr, [sp, #327]	@ zero_extendqisi2
 1439 01e0 CEF34402 		ubfx	r2, lr, #1, #5
 682:Middlewares/lvgl/src/widgets/lv_table.c ****                 cell_area_border.x1 -= rect_dsc_def.border_width / 2;
 1440              		.loc 1 682 15 view .LVU497
 1441 01e4 1EF0080F 		tst	lr, #8
 1442 01e8 10D0     		beq	.L48
 682:Middlewares/lvgl/src/widgets/lv_table.c ****                 cell_area_border.x1 -= rect_dsc_def.border_width / 2;
 1443              		.loc 1 682 101 discriminator 1 view .LVU498
 1444 01ea B7F914E0 		ldrsh	lr, [r7, #20]
 682:Middlewares/lvgl/src/widgets/lv_table.c ****                 cell_area_border.x1 -= rect_dsc_def.border_width / 2;
 1445              		.loc 1 682 105 discriminator 1 view .LVU499
 1446 01ee 0F99     		ldr	r1, [sp, #60]
 1447 01f0 8E44     		add	lr, lr, r1
ARM GAS  /tmp/ccJnAI63.s 			page 59


 682:Middlewares/lvgl/src/widgets/lv_table.c ****                 cell_area_border.x1 -= rect_dsc_def.border_width / 2;
 1448              		.loc 1 682 65 discriminator 1 view .LVU500
 1449 01f2 7045     		cmp	r0, lr
 1450 01f4 0ADD     		ble	.L48
 683:Middlewares/lvgl/src/widgets/lv_table.c ****             }
 1451              		.loc 1 683 17 is_stmt 1 view .LVU501
 683:Middlewares/lvgl/src/widgets/lv_table.c ****             }
 1452              		.loc 1 683 52 is_stmt 0 view .LVU502
 1453 01f6 BDF944E1 		ldrsh	lr, [sp, #324]
 683:Middlewares/lvgl/src/widgets/lv_table.c ****             }
 1454              		.loc 1 683 37 view .LVU503
 1455 01fa F146     		mov	r9, lr
 1456 01fc BEF1000F 		cmp	lr, #0
 1457 0200 C0F20581 		blt	.L77
 1458              	.L49:
 1459 0204 A0EB6900 		sub	r0, r0, r9, asr #1
 1460 0208 ADF85C00 		strh	r0, [sp, #92]	@ movhi
 1461              	.L48:
 685:Middlewares/lvgl/src/widgets/lv_table.c ****                 cell_area_border.y1 -= rect_dsc_def.border_width / 2;
 1462              		.loc 1 685 13 is_stmt 1 view .LVU504
 685:Middlewares/lvgl/src/widgets/lv_table.c ****                 cell_area_border.y1 -= rect_dsc_def.border_width / 2;
 1463              		.loc 1 685 15 is_stmt 0 view .LVU505
 1464 020c 12F0020F 		tst	r2, #2
 1465 0210 11D0     		beq	.L50
 685:Middlewares/lvgl/src/widgets/lv_table.c ****                 cell_area_border.y1 -= rect_dsc_def.border_width / 2;
 1466              		.loc 1 685 100 discriminator 1 view .LVU506
 1467 0212 B7F91600 		ldrsh	r0, [r7, #22]
 685:Middlewares/lvgl/src/widgets/lv_table.c ****                 cell_area_border.y1 -= rect_dsc_def.border_width / 2;
 1468              		.loc 1 685 104 discriminator 1 view .LVU507
 1469 0216 1199     		ldr	r1, [sp, #68]
 1470 0218 0844     		add	r0, r0, r1
 685:Middlewares/lvgl/src/widgets/lv_table.c ****                 cell_area_border.y1 -= rect_dsc_def.border_width / 2;
 1471              		.loc 1 685 64 discriminator 1 view .LVU508
 1472 021a 0899     		ldr	r1, [sp, #32]
 1473 021c 8142     		cmp	r1, r0
 1474 021e 0ADD     		ble	.L50
 686:Middlewares/lvgl/src/widgets/lv_table.c ****             }
 1475              		.loc 1 686 17 is_stmt 1 view .LVU509
 686:Middlewares/lvgl/src/widgets/lv_table.c ****             }
 1476              		.loc 1 686 52 is_stmt 0 view .LVU510
 1477 0220 BDF94401 		ldrsh	r0, [sp, #324]
 686:Middlewares/lvgl/src/widgets/lv_table.c ****             }
 1478              		.loc 1 686 37 view .LVU511
 1479 0224 8646     		mov	lr, r0
 1480 0226 0028     		cmp	r0, #0
 1481 0228 C0F2F480 		blt	.L78
 1482              	.L51:
 1483 022c 0899     		ldr	r1, [sp, #32]
 1484 022e A1EB6E01 		sub	r1, r1, lr, asr #1
 1485 0232 ADF85E10 		strh	r1, [sp, #94]	@ movhi
 1486              	.L50:
 688:Middlewares/lvgl/src/widgets/lv_table.c ****                 cell_area_border.x2 += rect_dsc_def.border_width / 2 + (rect_dsc_def.border_width &
 1487              		.loc 1 688 13 is_stmt 1 view .LVU512
 688:Middlewares/lvgl/src/widgets/lv_table.c ****                 cell_area_border.x2 += rect_dsc_def.border_width / 2 + (rect_dsc_def.border_width &
 1488              		.loc 1 688 15 is_stmt 0 view .LVU513
 1489 0236 12F0080F 		tst	r2, #8
 1490 023a 14D0     		beq	.L52
ARM GAS  /tmp/ccJnAI63.s 			page 60


 688:Middlewares/lvgl/src/widgets/lv_table.c ****                 cell_area_border.x2 += rect_dsc_def.border_width / 2 + (rect_dsc_def.border_width &
 1491              		.loc 1 688 102 discriminator 1 view .LVU514
 1492 023c B7F91810 		ldrsh	r1, [r7, #24]
 688:Middlewares/lvgl/src/widgets/lv_table.c ****                 cell_area_border.x2 += rect_dsc_def.border_width / 2 + (rect_dsc_def.border_width &
 1493              		.loc 1 688 106 discriminator 1 view .LVU515
 1494 0240 0E98     		ldr	r0, [sp, #56]
 1495 0242 091A     		subs	r1, r1, r0
 688:Middlewares/lvgl/src/widgets/lv_table.c ****                 cell_area_border.x2 += rect_dsc_def.border_width / 2 + (rect_dsc_def.border_width &
 1496              		.loc 1 688 117 discriminator 1 view .LVU516
 1497 0244 0139     		subs	r1, r1, #1
 688:Middlewares/lvgl/src/widgets/lv_table.c ****                 cell_area_border.x2 += rect_dsc_def.border_width / 2 + (rect_dsc_def.border_width &
 1498              		.loc 1 688 66 discriminator 1 view .LVU517
 1499 0246 8C45     		cmp	ip, r1
 1500 0248 0DDA     		bge	.L52
 689:Middlewares/lvgl/src/widgets/lv_table.c ****             }
 1501              		.loc 1 689 17 is_stmt 1 view .LVU518
 689:Middlewares/lvgl/src/widgets/lv_table.c ****             }
 1502              		.loc 1 689 52 is_stmt 0 view .LVU519
 1503 024a BDF94401 		ldrsh	r0, [sp, #324]
 689:Middlewares/lvgl/src/widgets/lv_table.c ****             }
 1504              		.loc 1 689 99 view .LVU520
 1505 024e 00F00101 		and	r1, r0, #1
 689:Middlewares/lvgl/src/widgets/lv_table.c ****             }
 1506              		.loc 1 689 70 view .LVU521
 1507 0252 8646     		mov	lr, r0
 1508 0254 0028     		cmp	r0, #0
 1509 0256 C0F2E080 		blt	.L79
 1510              	.L53:
 1511 025a 01EB6E01 		add	r1, r1, lr, asr #1
 689:Middlewares/lvgl/src/widgets/lv_table.c ****             }
 1512              		.loc 1 689 37 view .LVU522
 1513 025e 1CFA81FC 		uxtah	ip, ip, r1
 1514 0262 ADF860C0 		strh	ip, [sp, #96]	@ movhi
 1515              	.L52:
 691:Middlewares/lvgl/src/widgets/lv_table.c ****                     cell_area_border.y2 < obj->coords.y2 - bg_bottom - 1) {
 1516              		.loc 1 691 13 is_stmt 1 view .LVU523
 691:Middlewares/lvgl/src/widgets/lv_table.c ****                     cell_area_border.y2 < obj->coords.y2 - bg_bottom - 1) {
 1517              		.loc 1 691 15 is_stmt 0 view .LVU524
 1518 0266 12F0010F 		tst	r2, #1
 1519 026a 14D0     		beq	.L54
 692:Middlewares/lvgl/src/widgets/lv_table.c ****                 cell_area_border.y2 += rect_dsc_def.border_width / 2 + (rect_dsc_def.border_width &
 1520              		.loc 1 692 54 discriminator 1 view .LVU525
 1521 026c B7F91A20 		ldrsh	r2, [r7, #26]
 692:Middlewares/lvgl/src/widgets/lv_table.c ****                 cell_area_border.y2 += rect_dsc_def.border_width / 2 + (rect_dsc_def.border_width &
 1522              		.loc 1 692 58 discriminator 1 view .LVU526
 1523 0270 1099     		ldr	r1, [sp, #64]
 1524 0272 521A     		subs	r2, r2, r1
 692:Middlewares/lvgl/src/widgets/lv_table.c ****                 cell_area_border.y2 += rect_dsc_def.border_width / 2 + (rect_dsc_def.border_width &
 1525              		.loc 1 692 70 discriminator 1 view .LVU527
 1526 0274 013A     		subs	r2, r2, #1
 691:Middlewares/lvgl/src/widgets/lv_table.c ****                     cell_area_border.y2 < obj->coords.y2 - bg_bottom - 1) {
 1527              		.loc 1 691 67 discriminator 1 view .LVU528
 1528 0276 9342     		cmp	r3, r2
 1529 0278 0DDA     		bge	.L54
 693:Middlewares/lvgl/src/widgets/lv_table.c ****             }
 1530              		.loc 1 693 17 is_stmt 1 view .LVU529
 693:Middlewares/lvgl/src/widgets/lv_table.c ****             }
ARM GAS  /tmp/ccJnAI63.s 			page 61


 1531              		.loc 1 693 52 is_stmt 0 view .LVU530
 1532 027a BDF94411 		ldrsh	r1, [sp, #324]
 693:Middlewares/lvgl/src/widgets/lv_table.c ****             }
 1533              		.loc 1 693 99 view .LVU531
 1534 027e 01F00102 		and	r2, r1, #1
 693:Middlewares/lvgl/src/widgets/lv_table.c ****             }
 1535              		.loc 1 693 70 view .LVU532
 1536 0282 0846     		mov	r0, r1
 1537 0284 0029     		cmp	r1, #0
 1538 0286 C0F2CB80 		blt	.L80
 1539              	.L55:
 1540 028a 02EB6002 		add	r2, r2, r0, asr #1
 693:Middlewares/lvgl/src/widgets/lv_table.c ****             }
 1541              		.loc 1 693 37 view .LVU533
 1542 028e 13FA82F3 		uxtah	r3, r3, r2
 1543 0292 ADF86230 		strh	r3, [sp, #98]	@ movhi
 1544              	.L54:
 696:Middlewares/lvgl/src/widgets/lv_table.c ****             if(row == table->row_act && col == table->col_act) {
 1545              		.loc 1 696 13 is_stmt 1 view .LVU534
 1546              	.LVL158:
 697:Middlewares/lvgl/src/widgets/lv_table.c ****                 if(!(obj->state & LV_STATE_SCROLLED) && (obj->state & LV_STATE_PRESSED)) cell_state
 1547              		.loc 1 697 13 view .LVU535
 697:Middlewares/lvgl/src/widgets/lv_table.c ****                 if(!(obj->state & LV_STATE_SCROLLED) && (obj->state & LV_STATE_PRESSED)) cell_state
 1548              		.loc 1 697 28 is_stmt 0 view .LVU536
 1549 0296 FB8E     		ldrh	r3, [r7, #54]
 697:Middlewares/lvgl/src/widgets/lv_table.c ****                 if(!(obj->state & LV_STATE_SCROLLED) && (obj->state & LV_STATE_PRESSED)) cell_state
 1550              		.loc 1 697 15 view .LVU537
 1551 0298 079A     		ldr	r2, [sp, #28]
 1552 029a 9342     		cmp	r3, r2
 1553 029c 03D1     		bne	.L56
 697:Middlewares/lvgl/src/widgets/lv_table.c ****                 if(!(obj->state & LV_STATE_SCROLLED) && (obj->state & LV_STATE_PRESSED)) cell_state
 1554              		.loc 1 697 53 discriminator 1 view .LVU538
 1555 029e BB8E     		ldrh	r3, [r7, #52]
 697:Middlewares/lvgl/src/widgets/lv_table.c ****                 if(!(obj->state & LV_STATE_SCROLLED) && (obj->state & LV_STATE_PRESSED)) cell_state
 1556              		.loc 1 697 38 discriminator 1 view .LVU539
 1557 02a0 AB42     		cmp	r3, r5
 1558 02a2 00F0BF80 		beq	.L81
 1559              	.LVL159:
 1560              	.L56:
 706:Middlewares/lvgl/src/widgets/lv_table.c ****                 lv_memcpy(&label_dsc_act, &label_dsc_def, sizeof(lv_draw_label_dsc_t));
 1561              		.loc 1 706 17 is_stmt 1 view .LVU540
 1562 02a6 3422     		movs	r2, #52
 1563 02a8 4AA9     		add	r1, sp, #296
 1564 02aa 3DA8     		add	r0, sp, #244
 1565 02ac FFF7FEFF 		bl	lv_memcpy
 1566              	.LVL160:
 707:Middlewares/lvgl/src/widgets/lv_table.c ****             }
 1567              		.loc 1 707 17 view .LVU541
 1568 02b0 2022     		movs	r2, #32
 1569 02b2 35A9     		add	r1, sp, #212
 1570 02b4 2DA8     		add	r0, sp, #180
 1571 02b6 FFF7FEFF 		bl	lv_memcpy
 1572              	.LVL161:
 1573              	.L62:
 721:Middlewares/lvgl/src/widgets/lv_table.c ****             dsc.id = row * table->col_cnt + col;
 1574              		.loc 1 721 13 view .LVU542
 721:Middlewares/lvgl/src/widgets/lv_table.c ****             dsc.id = row * table->col_cnt + col;
ARM GAS  /tmp/ccJnAI63.s 			page 62


 1575              		.loc 1 721 27 is_stmt 0 view .LVU543
 1576 02ba 0DF15C09 		add	r9, sp, #92
 1577 02be CDF87090 		str	r9, [sp, #112]
 722:Middlewares/lvgl/src/widgets/lv_table.c ****             lv_event_send(obj, LV_EVENT_DRAW_PART_BEGIN, &dsc);
 1578              		.loc 1 722 13 is_stmt 1 view .LVU544
 722:Middlewares/lvgl/src/widgets/lv_table.c ****             lv_event_send(obj, LV_EVENT_DRAW_PART_BEGIN, &dsc);
 1579              		.loc 1 722 33 is_stmt 0 view .LVU545
 1580 02c2 BB8C     		ldrh	r3, [r7, #36]
 722:Middlewares/lvgl/src/widgets/lv_table.c ****             lv_event_send(obj, LV_EVENT_DRAW_PART_BEGIN, &dsc);
 1581              		.loc 1 722 43 view .LVU546
 1582 02c4 059A     		ldr	r2, [sp, #20]
 1583 02c6 0799     		ldr	r1, [sp, #28]
 1584 02c8 03FB0123 		mla	r3, r3, r1, r2
 722:Middlewares/lvgl/src/widgets/lv_table.c ****             lv_event_send(obj, LV_EVENT_DRAW_PART_BEGIN, &dsc);
 1585              		.loc 1 722 20 view .LVU547
 1586 02cc 2993     		str	r3, [sp, #164]
 723:Middlewares/lvgl/src/widgets/lv_table.c **** 
 1587              		.loc 1 723 13 is_stmt 1 view .LVU548
 1588 02ce 1BAA     		add	r2, sp, #108
 1589 02d0 1A21     		movs	r1, #26
 1590 02d2 3846     		mov	r0, r7
 1591 02d4 FFF7FEFF 		bl	lv_event_send
 1592              	.LVL162:
 725:Middlewares/lvgl/src/widgets/lv_table.c **** 
 1593              		.loc 1 725 13 view .LVU549
 1594 02d8 3DAA     		add	r2, sp, #244
 1595 02da 0699     		ldr	r1, [sp, #24]
 1596 02dc 4846     		mov	r0, r9
 1597 02de FFF7FEFF 		bl	lv_draw_rect
 1598              	.LVL163:
 727:Middlewares/lvgl/src/widgets/lv_table.c ****                 txt_area.x1 = cell_area.x1 + cell_left;
 1599              		.loc 1 727 13 view .LVU550
 727:Middlewares/lvgl/src/widgets/lv_table.c ****                 txt_area.x1 = cell_area.x1 + cell_left;
 1600              		.loc 1 727 21 is_stmt 0 view .LVU551
 1601 02e2 B96A     		ldr	r1, [r7, #40]
 727:Middlewares/lvgl/src/widgets/lv_table.c ****                 txt_area.x1 = cell_area.x1 + cell_left;
 1602              		.loc 1 727 32 view .LVU552
 1603 02e4 51F80830 		ldr	r3, [r1, r8]
 727:Middlewares/lvgl/src/widgets/lv_table.c ****                 txt_area.x1 = cell_area.x1 + cell_left;
 1604              		.loc 1 727 15 view .LVU553
 1605 02e8 002B     		cmp	r3, #0
 1606 02ea 56D0     		beq	.L63
 1607              	.LBB147:
 728:Middlewares/lvgl/src/widgets/lv_table.c ****                 txt_area.x2 = cell_area.x2 - cell_right;
 1608              		.loc 1 728 17 is_stmt 1 view .LVU554
 728:Middlewares/lvgl/src/widgets/lv_table.c ****                 txt_area.x2 = cell_area.x2 - cell_right;
 1609              		.loc 1 728 40 is_stmt 0 view .LVU555
 1610 02ec BDF86431 		ldrh	r3, [sp, #356]
 728:Middlewares/lvgl/src/widgets/lv_table.c ****                 txt_area.x2 = cell_area.x2 - cell_right;
 1611              		.loc 1 728 44 view .LVU556
 1612 02f0 0C9A     		ldr	r2, [sp, #48]
 1613 02f2 1344     		add	r3, r3, r2
 1614 02f4 98B2     		uxth	r0, r3
 728:Middlewares/lvgl/src/widgets/lv_table.c ****                 txt_area.x2 = cell_area.x2 - cell_right;
 1615              		.loc 1 728 29 view .LVU557
 1616 02f6 ADF85C31 		strh	r3, [sp, #348]	@ movhi
 729:Middlewares/lvgl/src/widgets/lv_table.c ****                 txt_area.y1 = cell_area.y1 + cell_top;
ARM GAS  /tmp/ccJnAI63.s 			page 63


 1617              		.loc 1 729 17 is_stmt 1 view .LVU558
 729:Middlewares/lvgl/src/widgets/lv_table.c ****                 txt_area.y1 = cell_area.y1 + cell_top;
 1618              		.loc 1 729 40 is_stmt 0 view .LVU559
 1619 02fa BDF86821 		ldrh	r2, [sp, #360]
 729:Middlewares/lvgl/src/widgets/lv_table.c ****                 txt_area.y1 = cell_area.y1 + cell_top;
 1620              		.loc 1 729 44 view .LVU560
 1621 02fe 0B9B     		ldr	r3, [sp, #44]
 1622 0300 D21A     		subs	r2, r2, r3
 1623 0302 1FFA82FC 		uxth	ip, r2
 729:Middlewares/lvgl/src/widgets/lv_table.c ****                 txt_area.y1 = cell_area.y1 + cell_top;
 1624              		.loc 1 729 29 view .LVU561
 1625 0306 ADF86021 		strh	r2, [sp, #352]	@ movhi
 730:Middlewares/lvgl/src/widgets/lv_table.c ****                 txt_area.y2 = cell_area.y2 - cell_bottom;
 1626              		.loc 1 730 17 is_stmt 1 view .LVU562
 730:Middlewares/lvgl/src/widgets/lv_table.c ****                 txt_area.y2 = cell_area.y2 - cell_bottom;
 1627              		.loc 1 730 40 is_stmt 0 view .LVU563
 1628 030a BDF86621 		ldrh	r2, [sp, #358]
 730:Middlewares/lvgl/src/widgets/lv_table.c ****                 txt_area.y2 = cell_area.y2 - cell_bottom;
 1629              		.loc 1 730 44 view .LVU564
 1630 030e 0A9B     		ldr	r3, [sp, #40]
 1631 0310 1A44     		add	r2, r2, r3
 730:Middlewares/lvgl/src/widgets/lv_table.c ****                 txt_area.y2 = cell_area.y2 - cell_bottom;
 1632              		.loc 1 730 29 view .LVU565
 1633 0312 ADF85E21 		strh	r2, [sp, #350]	@ movhi
 731:Middlewares/lvgl/src/widgets/lv_table.c **** 
 1634              		.loc 1 731 17 is_stmt 1 view .LVU566
 731:Middlewares/lvgl/src/widgets/lv_table.c **** 
 1635              		.loc 1 731 40 is_stmt 0 view .LVU567
 1636 0316 BDF86A21 		ldrh	r2, [sp, #362]
 731:Middlewares/lvgl/src/widgets/lv_table.c **** 
 1637              		.loc 1 731 44 view .LVU568
 1638 031a 099B     		ldr	r3, [sp, #36]
 1639 031c D21A     		subs	r2, r2, r3
 731:Middlewares/lvgl/src/widgets/lv_table.c **** 
 1640              		.loc 1 731 29 view .LVU569
 1641 031e ADF86221 		strh	r2, [sp, #354]	@ movhi
 734:Middlewares/lvgl/src/widgets/lv_table.c ****                 if(crop) txt_flags = LV_TEXT_FLAG_EXPAND;
 1642              		.loc 1 734 17 is_stmt 1 view .LVU570
 734:Middlewares/lvgl/src/widgets/lv_table.c ****                 if(crop) txt_flags = LV_TEXT_FLAG_EXPAND;
 1643              		.loc 1 734 72 is_stmt 0 view .LVU571
 1644 0322 C6F34009 		ubfx	r9, r6, #1, #1
 1645              	.LVL164:
 735:Middlewares/lvgl/src/widgets/lv_table.c ****                 else txt_flags = LV_TEXT_FLAG_NONE;
 1646              		.loc 1 735 17 is_stmt 1 view .LVU572
 735:Middlewares/lvgl/src/widgets/lv_table.c ****                 else txt_flags = LV_TEXT_FLAG_NONE;
 1647              		.loc 1 735 19 is_stmt 0 view .LVU573
 1648 0326 16F0020F 		tst	r6, #2
 1649 032a 00F0B580 		beq	.L73
 735:Middlewares/lvgl/src/widgets/lv_table.c ****                 else txt_flags = LV_TEXT_FLAG_NONE;
 1650              		.loc 1 735 36 view .LVU574
 1651 032e 0222     		movs	r2, #2
 1652              	.L64:
 1653              	.LVL165:
 738:Middlewares/lvgl/src/widgets/lv_table.c ****                         label_dsc_act.letter_space, label_dsc_act.line_space,
 1654              		.loc 1 738 17 is_stmt 1 view .LVU575
 738:Middlewares/lvgl/src/widgets/lv_table.c ****                         label_dsc_act.letter_space, label_dsc_act.line_space,
 1655              		.loc 1 738 60 is_stmt 0 view .LVU576
ARM GAS  /tmp/ccJnAI63.s 			page 64


 1656 0330 51F80810 		ldr	r1, [r1, r8]
 1657              	.LVL166:
 1658              	.LBB148:
 1659              	.LBI148:
 126:Middlewares/lvgl/src/widgets/../core/../misc/../font/../misc/lv_area.h **** }
 127:Middlewares/lvgl/src/widgets/../core/../misc/../font/../misc/lv_area.h **** 
 128:Middlewares/lvgl/src/widgets/../core/../misc/../font/../misc/lv_area.h **** /**
 129:Middlewares/lvgl/src/widgets/../core/../misc/../font/../misc/lv_area.h ****  * Get the width of an area
 130:Middlewares/lvgl/src/widgets/../core/../misc/../font/../misc/lv_area.h ****  * @param area_p pointer to an area
 131:Middlewares/lvgl/src/widgets/../core/../misc/../font/../misc/lv_area.h ****  * @return the width of the area (if x1 == x2 -> width = 1)
 132:Middlewares/lvgl/src/widgets/../core/../misc/../font/../misc/lv_area.h ****  */
 133:Middlewares/lvgl/src/widgets/../core/../misc/../font/../misc/lv_area.h **** static inline lv_coord_t lv_area_get_width(const lv_area_t * area_p)
 1660              		.loc 4 133 26 is_stmt 1 view .LVU577
 1661              	.LBB149:
 134:Middlewares/lvgl/src/widgets/../core/../misc/../font/../misc/lv_area.h **** {
 135:Middlewares/lvgl/src/widgets/../core/../misc/../font/../misc/lv_area.h ****     return (lv_coord_t)(area_p->x2 - area_p->x1 + 1);
 1662              		.loc 4 135 5 view .LVU578
 1663              		.loc 4 135 36 is_stmt 0 view .LVU579
 1664 0334 ACEB0003 		sub	r3, ip, r0
 1665 0338 9BB2     		uxth	r3, r3
 1666              		.loc 4 135 49 view .LVU580
 1667 033a 0133     		adds	r3, r3, #1
 1668              		.loc 4 135 12 view .LVU581
 1669 033c 1BB2     		sxth	r3, r3
 1670              	.LVL167:
 1671              		.loc 4 135 12 view .LVU582
 1672              	.LBE149:
 1673              	.LBE148:
 738:Middlewares/lvgl/src/widgets/lv_table.c ****                         label_dsc_act.letter_space, label_dsc_act.line_space,
 1674              		.loc 1 738 17 view .LVU583
 1675 033e 0292     		str	r2, [sp, #8]
 1676 0340 0193     		str	r3, [sp, #4]
 1677 0342 BDF9C630 		ldrsh	r3, [sp, #198]
 1678 0346 0093     		str	r3, [sp]
 1679 0348 BDF9C830 		ldrsh	r3, [sp, #200]
 1680 034c 359A     		ldr	r2, [sp, #212]
 1681              	.LVL168:
 738:Middlewares/lvgl/src/widgets/lv_table.c ****                         label_dsc_act.letter_space, label_dsc_act.line_space,
