ARM GAS  /tmp/ccvS2HVy.s 			page 1


   1              		.cpu cortex-m7
   2              		.arch armv7e-m
   3              		.fpu fpv5-d16
   4              		.eabi_attribute 28, 1
   5              		.eabi_attribute 20, 1
   6              		.eabi_attribute 21, 1
   7              		.eabi_attribute 23, 3
   8              		.eabi_attribute 24, 1
   9              		.eabi_attribute 25, 1
  10              		.eabi_attribute 26, 1
  11              		.eabi_attribute 30, 1
  12              		.eabi_attribute 34, 1
  13              		.eabi_attribute 18, 4
  14              		.file	"lv_theme_default.c"
  15              		.text
  16              	.Ltext0:
  17              		.cfi_sections	.debug_frame
  18              		.section	.text.theme_apply,"ax",%progbits
  19              		.align	1
  20              		.syntax unified
  21              		.thumb
  22              		.thumb_func
  24              	theme_apply:
  25              	.LVL0:
  26              	.LFB189:
  27              		.file 1 "Middlewares/lvgl/src/extra/themes/default/lv_theme_default.c"
   1:Middlewares/lvgl/src/extra/themes/default/lv_theme_default.c **** /**
   2:Middlewares/lvgl/src/extra/themes/default/lv_theme_default.c ****  * @file lv_theme_defau.c
   3:Middlewares/lvgl/src/extra/themes/default/lv_theme_default.c ****  *
   4:Middlewares/lvgl/src/extra/themes/default/lv_theme_default.c ****  */
   5:Middlewares/lvgl/src/extra/themes/default/lv_theme_default.c **** 
   6:Middlewares/lvgl/src/extra/themes/default/lv_theme_default.c **** /*********************
   7:Middlewares/lvgl/src/extra/themes/default/lv_theme_default.c ****  *      INCLUDES
   8:Middlewares/lvgl/src/extra/themes/default/lv_theme_default.c ****  *********************/
   9:Middlewares/lvgl/src/extra/themes/default/lv_theme_default.c **** #include "../../../lvgl.h" /*To see all the widgets*/
  10:Middlewares/lvgl/src/extra/themes/default/lv_theme_default.c **** 
  11:Middlewares/lvgl/src/extra/themes/default/lv_theme_default.c **** #if LV_USE_THEME_DEFAULT
  12:Middlewares/lvgl/src/extra/themes/default/lv_theme_default.c **** 
  13:Middlewares/lvgl/src/extra/themes/default/lv_theme_default.c **** #include "lv_theme_default.h"
  14:Middlewares/lvgl/src/extra/themes/default/lv_theme_default.c **** #include "../../../misc/lv_gc.h"
  15:Middlewares/lvgl/src/extra/themes/default/lv_theme_default.c **** 
  16:Middlewares/lvgl/src/extra/themes/default/lv_theme_default.c **** /*********************
  17:Middlewares/lvgl/src/extra/themes/default/lv_theme_default.c ****  *      DEFINES
  18:Middlewares/lvgl/src/extra/themes/default/lv_theme_default.c ****  *********************/
  19:Middlewares/lvgl/src/extra/themes/default/lv_theme_default.c **** #define MODE_DARK 1
  20:Middlewares/lvgl/src/extra/themes/default/lv_theme_default.c **** #define RADIUS_DEFAULT (disp_size == DISP_LARGE ? lv_disp_dpx(theme.disp, 12) : lv_disp_dpx(theme.d
  21:Middlewares/lvgl/src/extra/themes/default/lv_theme_default.c **** 
  22:Middlewares/lvgl/src/extra/themes/default/lv_theme_default.c **** /*SCREEN*/
  23:Middlewares/lvgl/src/extra/themes/default/lv_theme_default.c **** #define LIGHT_COLOR_SCR        lv_palette_lighten(LV_PALETTE_GREY, 4)
  24:Middlewares/lvgl/src/extra/themes/default/lv_theme_default.c **** #define LIGHT_COLOR_CARD       lv_color_white()
  25:Middlewares/lvgl/src/extra/themes/default/lv_theme_default.c **** #define LIGHT_COLOR_TEXT       lv_palette_darken(LV_PALETTE_GREY, 4)
  26:Middlewares/lvgl/src/extra/themes/default/lv_theme_default.c **** #define LIGHT_COLOR_GREY       lv_palette_lighten(LV_PALETTE_GREY, 2)
  27:Middlewares/lvgl/src/extra/themes/default/lv_theme_default.c **** #define DARK_COLOR_SCR         lv_color_hex(0x15171A)
  28:Middlewares/lvgl/src/extra/themes/default/lv_theme_default.c **** #define DARK_COLOR_CARD        lv_color_hex(0x282b30)
  29:Middlewares/lvgl/src/extra/themes/default/lv_theme_default.c **** #define DARK_COLOR_TEXT        lv_palette_lighten(LV_PALETTE_GREY, 5)
  30:Middlewares/lvgl/src/extra/themes/default/lv_theme_default.c **** #define DARK_COLOR_GREY        lv_color_hex(0x2f3237)
  31:Middlewares/lvgl/src/extra/themes/default/lv_theme_default.c **** 
ARM GAS  /tmp/ccvS2HVy.s 			page 2


  32:Middlewares/lvgl/src/extra/themes/default/lv_theme_default.c **** #define TRANSITION_TIME         LV_THEME_DEFAULT_TRANSITON_TIME
  33:Middlewares/lvgl/src/extra/themes/default/lv_theme_default.c **** #define BORDER_WIDTH            lv_disp_dpx(theme.disp, 2)
  34:Middlewares/lvgl/src/extra/themes/default/lv_theme_default.c **** #define OUTLINE_WIDTH           lv_disp_dpx(theme.disp, 3)
  35:Middlewares/lvgl/src/extra/themes/default/lv_theme_default.c **** 
  36:Middlewares/lvgl/src/extra/themes/default/lv_theme_default.c **** #define PAD_DEF     (disp_size == DISP_LARGE ? lv_disp_dpx(theme.disp, 24) : disp_size == DISP_MEDI
  37:Middlewares/lvgl/src/extra/themes/default/lv_theme_default.c **** #define PAD_SMALL   (disp_size == DISP_LARGE ? lv_disp_dpx(theme.disp, 14) : disp_size == DISP_MEDI
  38:Middlewares/lvgl/src/extra/themes/default/lv_theme_default.c **** #define PAD_TINY   (disp_size == DISP_LARGE ? lv_disp_dpx(theme.disp, 8) : disp_size == DISP_MEDIUM
  39:Middlewares/lvgl/src/extra/themes/default/lv_theme_default.c **** 
  40:Middlewares/lvgl/src/extra/themes/default/lv_theme_default.c **** /**********************
  41:Middlewares/lvgl/src/extra/themes/default/lv_theme_default.c ****  *      TYPEDEFS
  42:Middlewares/lvgl/src/extra/themes/default/lv_theme_default.c ****  **********************/
  43:Middlewares/lvgl/src/extra/themes/default/lv_theme_default.c **** typedef struct {
  44:Middlewares/lvgl/src/extra/themes/default/lv_theme_default.c ****     lv_style_t scr;
  45:Middlewares/lvgl/src/extra/themes/default/lv_theme_default.c ****     lv_style_t scrollbar;
  46:Middlewares/lvgl/src/extra/themes/default/lv_theme_default.c ****     lv_style_t scrollbar_scrolled;
  47:Middlewares/lvgl/src/extra/themes/default/lv_theme_default.c ****     lv_style_t card;
  48:Middlewares/lvgl/src/extra/themes/default/lv_theme_default.c ****     lv_style_t btn;
  49:Middlewares/lvgl/src/extra/themes/default/lv_theme_default.c **** 
  50:Middlewares/lvgl/src/extra/themes/default/lv_theme_default.c ****     /*Utility*/
  51:Middlewares/lvgl/src/extra/themes/default/lv_theme_default.c ****     lv_style_t bg_color_primary;
  52:Middlewares/lvgl/src/extra/themes/default/lv_theme_default.c ****     lv_style_t bg_color_primary_muted;
  53:Middlewares/lvgl/src/extra/themes/default/lv_theme_default.c ****     lv_style_t bg_color_secondary;
  54:Middlewares/lvgl/src/extra/themes/default/lv_theme_default.c ****     lv_style_t bg_color_secondary_muted;
  55:Middlewares/lvgl/src/extra/themes/default/lv_theme_default.c ****     lv_style_t bg_color_grey;
  56:Middlewares/lvgl/src/extra/themes/default/lv_theme_default.c ****     lv_style_t bg_color_white;
  57:Middlewares/lvgl/src/extra/themes/default/lv_theme_default.c ****     lv_style_t pressed;
  58:Middlewares/lvgl/src/extra/themes/default/lv_theme_default.c ****     lv_style_t disabled;
  59:Middlewares/lvgl/src/extra/themes/default/lv_theme_default.c ****     lv_style_t pad_zero;
  60:Middlewares/lvgl/src/extra/themes/default/lv_theme_default.c ****     lv_style_t pad_tiny;
  61:Middlewares/lvgl/src/extra/themes/default/lv_theme_default.c ****     lv_style_t pad_small;
  62:Middlewares/lvgl/src/extra/themes/default/lv_theme_default.c ****     lv_style_t pad_normal;
  63:Middlewares/lvgl/src/extra/themes/default/lv_theme_default.c ****     lv_style_t pad_gap;
  64:Middlewares/lvgl/src/extra/themes/default/lv_theme_default.c ****     lv_style_t line_space_large;
  65:Middlewares/lvgl/src/extra/themes/default/lv_theme_default.c ****     lv_style_t text_align_center;
  66:Middlewares/lvgl/src/extra/themes/default/lv_theme_default.c ****     lv_style_t outline_primary;
  67:Middlewares/lvgl/src/extra/themes/default/lv_theme_default.c ****     lv_style_t outline_secondary;
  68:Middlewares/lvgl/src/extra/themes/default/lv_theme_default.c ****     lv_style_t circle;
  69:Middlewares/lvgl/src/extra/themes/default/lv_theme_default.c ****     lv_style_t no_radius;
  70:Middlewares/lvgl/src/extra/themes/default/lv_theme_default.c ****     lv_style_t clip_corner;
  71:Middlewares/lvgl/src/extra/themes/default/lv_theme_default.c **** #if LV_THEME_DEFAULT_GROW
  72:Middlewares/lvgl/src/extra/themes/default/lv_theme_default.c ****     lv_style_t grow;
  73:Middlewares/lvgl/src/extra/themes/default/lv_theme_default.c **** #endif
  74:Middlewares/lvgl/src/extra/themes/default/lv_theme_default.c ****     lv_style_t transition_delayed;
  75:Middlewares/lvgl/src/extra/themes/default/lv_theme_default.c ****     lv_style_t transition_normal;
  76:Middlewares/lvgl/src/extra/themes/default/lv_theme_default.c ****     lv_style_t anim;
  77:Middlewares/lvgl/src/extra/themes/default/lv_theme_default.c **** 
  78:Middlewares/lvgl/src/extra/themes/default/lv_theme_default.c ****     /*Parts*/
  79:Middlewares/lvgl/src/extra/themes/default/lv_theme_default.c ****     lv_style_t knob;
  80:Middlewares/lvgl/src/extra/themes/default/lv_theme_default.c ****     lv_style_t indic;
  81:Middlewares/lvgl/src/extra/themes/default/lv_theme_default.c **** 
  82:Middlewares/lvgl/src/extra/themes/default/lv_theme_default.c **** #if LV_USE_ARC
  83:Middlewares/lvgl/src/extra/themes/default/lv_theme_default.c ****     lv_style_t arc_indic;
  84:Middlewares/lvgl/src/extra/themes/default/lv_theme_default.c ****     lv_style_t arc_indic_primary;
  85:Middlewares/lvgl/src/extra/themes/default/lv_theme_default.c **** #endif
  86:Middlewares/lvgl/src/extra/themes/default/lv_theme_default.c **** 
  87:Middlewares/lvgl/src/extra/themes/default/lv_theme_default.c **** #if LV_USE_CHART
  88:Middlewares/lvgl/src/extra/themes/default/lv_theme_default.c ****     lv_style_t chart_series, chart_indic, chart_ticks, chart_bg;
ARM GAS  /tmp/ccvS2HVy.s 			page 3


  89:Middlewares/lvgl/src/extra/themes/default/lv_theme_default.c **** #endif
  90:Middlewares/lvgl/src/extra/themes/default/lv_theme_default.c **** 
  91:Middlewares/lvgl/src/extra/themes/default/lv_theme_default.c **** #if LV_USE_DROPDOWN
  92:Middlewares/lvgl/src/extra/themes/default/lv_theme_default.c ****     lv_style_t dropdown_list;
  93:Middlewares/lvgl/src/extra/themes/default/lv_theme_default.c **** #endif
  94:Middlewares/lvgl/src/extra/themes/default/lv_theme_default.c **** 
  95:Middlewares/lvgl/src/extra/themes/default/lv_theme_default.c **** #if LV_USE_CHECKBOX
  96:Middlewares/lvgl/src/extra/themes/default/lv_theme_default.c ****     lv_style_t cb_marker, cb_marker_checked;
  97:Middlewares/lvgl/src/extra/themes/default/lv_theme_default.c **** #endif
  98:Middlewares/lvgl/src/extra/themes/default/lv_theme_default.c **** 
  99:Middlewares/lvgl/src/extra/themes/default/lv_theme_default.c **** #if LV_USE_SWITCH
 100:Middlewares/lvgl/src/extra/themes/default/lv_theme_default.c ****     lv_style_t switch_knob;
 101:Middlewares/lvgl/src/extra/themes/default/lv_theme_default.c **** #endif
 102:Middlewares/lvgl/src/extra/themes/default/lv_theme_default.c **** 
 103:Middlewares/lvgl/src/extra/themes/default/lv_theme_default.c **** #if LV_USE_LINE
 104:Middlewares/lvgl/src/extra/themes/default/lv_theme_default.c ****     lv_style_t line;
 105:Middlewares/lvgl/src/extra/themes/default/lv_theme_default.c **** #endif
 106:Middlewares/lvgl/src/extra/themes/default/lv_theme_default.c **** 
 107:Middlewares/lvgl/src/extra/themes/default/lv_theme_default.c **** #if LV_USE_TABLE
 108:Middlewares/lvgl/src/extra/themes/default/lv_theme_default.c ****     lv_style_t table_cell;
 109:Middlewares/lvgl/src/extra/themes/default/lv_theme_default.c **** #endif
 110:Middlewares/lvgl/src/extra/themes/default/lv_theme_default.c **** 
 111:Middlewares/lvgl/src/extra/themes/default/lv_theme_default.c **** #if LV_USE_METER
 112:Middlewares/lvgl/src/extra/themes/default/lv_theme_default.c ****     lv_style_t meter_marker, meter_indic;
 113:Middlewares/lvgl/src/extra/themes/default/lv_theme_default.c **** #endif
 114:Middlewares/lvgl/src/extra/themes/default/lv_theme_default.c **** 
 115:Middlewares/lvgl/src/extra/themes/default/lv_theme_default.c **** #if LV_USE_TEXTAREA
 116:Middlewares/lvgl/src/extra/themes/default/lv_theme_default.c ****     lv_style_t ta_cursor, ta_placeholder;
 117:Middlewares/lvgl/src/extra/themes/default/lv_theme_default.c **** #endif
 118:Middlewares/lvgl/src/extra/themes/default/lv_theme_default.c **** 
 119:Middlewares/lvgl/src/extra/themes/default/lv_theme_default.c **** #if LV_USE_CALENDAR
 120:Middlewares/lvgl/src/extra/themes/default/lv_theme_default.c ****     lv_style_t calendar_bg, calendar_day;
 121:Middlewares/lvgl/src/extra/themes/default/lv_theme_default.c **** #endif
 122:Middlewares/lvgl/src/extra/themes/default/lv_theme_default.c **** 
 123:Middlewares/lvgl/src/extra/themes/default/lv_theme_default.c **** #if LV_USE_COLORWHEEL
 124:Middlewares/lvgl/src/extra/themes/default/lv_theme_default.c ****     lv_style_t colorwheel_main;
 125:Middlewares/lvgl/src/extra/themes/default/lv_theme_default.c **** #endif
 126:Middlewares/lvgl/src/extra/themes/default/lv_theme_default.c **** 
 127:Middlewares/lvgl/src/extra/themes/default/lv_theme_default.c **** #if LV_USE_MSGBOX
 128:Middlewares/lvgl/src/extra/themes/default/lv_theme_default.c ****     lv_style_t msgbox_bg, msgbox_btn_bg;
 129:Middlewares/lvgl/src/extra/themes/default/lv_theme_default.c **** #endif
 130:Middlewares/lvgl/src/extra/themes/default/lv_theme_default.c **** 
 131:Middlewares/lvgl/src/extra/themes/default/lv_theme_default.c **** #if LV_USE_KEYBOARD
 132:Middlewares/lvgl/src/extra/themes/default/lv_theme_default.c ****     lv_style_t keyboard_btn_bg;
 133:Middlewares/lvgl/src/extra/themes/default/lv_theme_default.c **** #endif
 134:Middlewares/lvgl/src/extra/themes/default/lv_theme_default.c **** 
 135:Middlewares/lvgl/src/extra/themes/default/lv_theme_default.c **** #if LV_USE_LIST
 136:Middlewares/lvgl/src/extra/themes/default/lv_theme_default.c ****     lv_style_t list_bg, list_btn, list_item_grow, list_label;
 137:Middlewares/lvgl/src/extra/themes/default/lv_theme_default.c **** #endif
 138:Middlewares/lvgl/src/extra/themes/default/lv_theme_default.c **** 
 139:Middlewares/lvgl/src/extra/themes/default/lv_theme_default.c **** #if LV_USE_TABVIEW
 140:Middlewares/lvgl/src/extra/themes/default/lv_theme_default.c ****     lv_style_t tab_bg_focus, tab_btn;
 141:Middlewares/lvgl/src/extra/themes/default/lv_theme_default.c **** #endif
 142:Middlewares/lvgl/src/extra/themes/default/lv_theme_default.c **** #if LV_USE_LED
 143:Middlewares/lvgl/src/extra/themes/default/lv_theme_default.c ****     lv_style_t led;
 144:Middlewares/lvgl/src/extra/themes/default/lv_theme_default.c **** #endif
 145:Middlewares/lvgl/src/extra/themes/default/lv_theme_default.c **** } my_theme_styles_t;
ARM GAS  /tmp/ccvS2HVy.s 			page 4


 146:Middlewares/lvgl/src/extra/themes/default/lv_theme_default.c **** 
 147:Middlewares/lvgl/src/extra/themes/default/lv_theme_default.c **** typedef struct {
 148:Middlewares/lvgl/src/extra/themes/default/lv_theme_default.c ****     lv_theme_t base;
 149:Middlewares/lvgl/src/extra/themes/default/lv_theme_default.c ****     uint8_t light :1;
 150:Middlewares/lvgl/src/extra/themes/default/lv_theme_default.c **** }my_theme_t;
 151:Middlewares/lvgl/src/extra/themes/default/lv_theme_default.c **** 
 152:Middlewares/lvgl/src/extra/themes/default/lv_theme_default.c **** typedef enum {
 153:Middlewares/lvgl/src/extra/themes/default/lv_theme_default.c ****     DISP_SMALL = 3,
 154:Middlewares/lvgl/src/extra/themes/default/lv_theme_default.c ****     DISP_MEDIUM = 2,
 155:Middlewares/lvgl/src/extra/themes/default/lv_theme_default.c ****     DISP_LARGE = 1,
 156:Middlewares/lvgl/src/extra/themes/default/lv_theme_default.c **** }disp_size_t;
 157:Middlewares/lvgl/src/extra/themes/default/lv_theme_default.c **** 
 158:Middlewares/lvgl/src/extra/themes/default/lv_theme_default.c **** /**********************
 159:Middlewares/lvgl/src/extra/themes/default/lv_theme_default.c ****  *  STATIC PROTOTYPES
 160:Middlewares/lvgl/src/extra/themes/default/lv_theme_default.c ****  **********************/
 161:Middlewares/lvgl/src/extra/themes/default/lv_theme_default.c **** static void theme_apply(lv_theme_t * th, lv_obj_t * obj);
 162:Middlewares/lvgl/src/extra/themes/default/lv_theme_default.c **** static void style_init_reset(lv_style_t * style);
 163:Middlewares/lvgl/src/extra/themes/default/lv_theme_default.c **** 
 164:Middlewares/lvgl/src/extra/themes/default/lv_theme_default.c **** /**********************
 165:Middlewares/lvgl/src/extra/themes/default/lv_theme_default.c ****  *  STATIC VARIABLES
 166:Middlewares/lvgl/src/extra/themes/default/lv_theme_default.c ****  **********************/
 167:Middlewares/lvgl/src/extra/themes/default/lv_theme_default.c **** static my_theme_styles_t * styles;
 168:Middlewares/lvgl/src/extra/themes/default/lv_theme_default.c **** static lv_theme_t theme;
 169:Middlewares/lvgl/src/extra/themes/default/lv_theme_default.c **** static disp_size_t disp_size;
 170:Middlewares/lvgl/src/extra/themes/default/lv_theme_default.c **** static bool inited;
 171:Middlewares/lvgl/src/extra/themes/default/lv_theme_default.c **** static lv_color_t color_scr;
 172:Middlewares/lvgl/src/extra/themes/default/lv_theme_default.c **** static lv_color_t color_text;
 173:Middlewares/lvgl/src/extra/themes/default/lv_theme_default.c **** static lv_color_t color_card;
 174:Middlewares/lvgl/src/extra/themes/default/lv_theme_default.c **** static lv_color_t color_grey;
 175:Middlewares/lvgl/src/extra/themes/default/lv_theme_default.c **** 
 176:Middlewares/lvgl/src/extra/themes/default/lv_theme_default.c **** 
 177:Middlewares/lvgl/src/extra/themes/default/lv_theme_default.c **** /**********************
 178:Middlewares/lvgl/src/extra/themes/default/lv_theme_default.c ****  *      MACROS
 179:Middlewares/lvgl/src/extra/themes/default/lv_theme_default.c ****  **********************/
 180:Middlewares/lvgl/src/extra/themes/default/lv_theme_default.c **** 
 181:Middlewares/lvgl/src/extra/themes/default/lv_theme_default.c **** /**********************
 182:Middlewares/lvgl/src/extra/themes/default/lv_theme_default.c ****  *   STATIC FUNCTIONS
 183:Middlewares/lvgl/src/extra/themes/default/lv_theme_default.c ****  **********************/
 184:Middlewares/lvgl/src/extra/themes/default/lv_theme_default.c **** 
 185:Middlewares/lvgl/src/extra/themes/default/lv_theme_default.c **** 
 186:Middlewares/lvgl/src/extra/themes/default/lv_theme_default.c **** static lv_color_t dark_color_filter_cb(const lv_color_filter_dsc_t * f, lv_color_t c, lv_opa_t opa)
 187:Middlewares/lvgl/src/extra/themes/default/lv_theme_default.c **** {
 188:Middlewares/lvgl/src/extra/themes/default/lv_theme_default.c ****     LV_UNUSED(f);
 189:Middlewares/lvgl/src/extra/themes/default/lv_theme_default.c ****     return lv_color_darken(c, opa);
 190:Middlewares/lvgl/src/extra/themes/default/lv_theme_default.c **** }
 191:Middlewares/lvgl/src/extra/themes/default/lv_theme_default.c **** 
 192:Middlewares/lvgl/src/extra/themes/default/lv_theme_default.c **** static lv_color_t grey_filter_cb(const lv_color_filter_dsc_t * f, lv_color_t color, lv_opa_t opa)
 193:Middlewares/lvgl/src/extra/themes/default/lv_theme_default.c **** {
 194:Middlewares/lvgl/src/extra/themes/default/lv_theme_default.c ****     LV_UNUSED(f);
 195:Middlewares/lvgl/src/extra/themes/default/lv_theme_default.c ****     if(theme.flags & MODE_DARK) return lv_color_mix(lv_palette_darken(LV_PALETTE_GREY, 2), color, o
 196:Middlewares/lvgl/src/extra/themes/default/lv_theme_default.c ****     else return lv_color_mix(lv_palette_lighten(LV_PALETTE_GREY, 2), color, opa);
 197:Middlewares/lvgl/src/extra/themes/default/lv_theme_default.c **** }
 198:Middlewares/lvgl/src/extra/themes/default/lv_theme_default.c **** 
 199:Middlewares/lvgl/src/extra/themes/default/lv_theme_default.c **** static void style_init(void)
 200:Middlewares/lvgl/src/extra/themes/default/lv_theme_default.c **** {
 201:Middlewares/lvgl/src/extra/themes/default/lv_theme_default.c ****     static const lv_style_prop_t trans_props[] = {
 202:Middlewares/lvgl/src/extra/themes/default/lv_theme_default.c ****             LV_STYLE_BG_OPA, LV_STYLE_BG_COLOR,
ARM GAS  /tmp/ccvS2HVy.s 			page 5


 203:Middlewares/lvgl/src/extra/themes/default/lv_theme_default.c ****             LV_STYLE_TRANSFORM_WIDTH, LV_STYLE_TRANSFORM_HEIGHT,
 204:Middlewares/lvgl/src/extra/themes/default/lv_theme_default.c ****             LV_STYLE_TRANSLATE_Y, LV_STYLE_TRANSLATE_X,
 205:Middlewares/lvgl/src/extra/themes/default/lv_theme_default.c ****             LV_STYLE_TRANSFORM_ZOOM, LV_STYLE_TRANSFORM_ANGLE,
 206:Middlewares/lvgl/src/extra/themes/default/lv_theme_default.c ****             LV_STYLE_COLOR_FILTER_OPA, LV_STYLE_COLOR_FILTER_DSC,
 207:Middlewares/lvgl/src/extra/themes/default/lv_theme_default.c ****             0
 208:Middlewares/lvgl/src/extra/themes/default/lv_theme_default.c ****     };
 209:Middlewares/lvgl/src/extra/themes/default/lv_theme_default.c **** 
 210:Middlewares/lvgl/src/extra/themes/default/lv_theme_default.c ****     color_scr = theme.flags & MODE_DARK ? DARK_COLOR_SCR : LIGHT_COLOR_SCR;
 211:Middlewares/lvgl/src/extra/themes/default/lv_theme_default.c ****     color_text = theme.flags & MODE_DARK ? DARK_COLOR_TEXT : LIGHT_COLOR_TEXT;
 212:Middlewares/lvgl/src/extra/themes/default/lv_theme_default.c ****     color_card = theme.flags & MODE_DARK ? DARK_COLOR_CARD : LIGHT_COLOR_CARD;
 213:Middlewares/lvgl/src/extra/themes/default/lv_theme_default.c ****     color_grey = theme.flags & MODE_DARK ? DARK_COLOR_GREY : LIGHT_COLOR_GREY;
 214:Middlewares/lvgl/src/extra/themes/default/lv_theme_default.c **** 
 215:Middlewares/lvgl/src/extra/themes/default/lv_theme_default.c ****     static lv_style_transition_dsc_t trans_delayed;
 216:Middlewares/lvgl/src/extra/themes/default/lv_theme_default.c ****     lv_style_transition_dsc_init(&trans_delayed, trans_props, lv_anim_path_linear, TRANSITION_TIME,
 217:Middlewares/lvgl/src/extra/themes/default/lv_theme_default.c **** 
 218:Middlewares/lvgl/src/extra/themes/default/lv_theme_default.c ****     static lv_style_transition_dsc_t trans_normal;
 219:Middlewares/lvgl/src/extra/themes/default/lv_theme_default.c ****     lv_style_transition_dsc_init(&trans_normal, trans_props, lv_anim_path_linear, TRANSITION_TIME, 
 220:Middlewares/lvgl/src/extra/themes/default/lv_theme_default.c **** 
 221:Middlewares/lvgl/src/extra/themes/default/lv_theme_default.c ****     style_init_reset(&styles->transition_delayed);
 222:Middlewares/lvgl/src/extra/themes/default/lv_theme_default.c ****     lv_style_set_transition(&styles->transition_delayed, &trans_delayed); /*Go back to default stat
 223:Middlewares/lvgl/src/extra/themes/default/lv_theme_default.c **** 
 224:Middlewares/lvgl/src/extra/themes/default/lv_theme_default.c ****     style_init_reset(&styles->transition_normal);
 225:Middlewares/lvgl/src/extra/themes/default/lv_theme_default.c ****     lv_style_set_transition(&styles->transition_normal, &trans_normal); /*Go back to default state 
 226:Middlewares/lvgl/src/extra/themes/default/lv_theme_default.c **** 
 227:Middlewares/lvgl/src/extra/themes/default/lv_theme_default.c ****     style_init_reset(&styles->scrollbar);
 228:Middlewares/lvgl/src/extra/themes/default/lv_theme_default.c ****     lv_style_set_bg_color(&styles->scrollbar, (theme.flags & MODE_DARK) ? lv_palette_darken(LV_PALE
 229:Middlewares/lvgl/src/extra/themes/default/lv_theme_default.c ****     lv_style_set_radius(&styles->scrollbar, LV_RADIUS_CIRCLE);
 230:Middlewares/lvgl/src/extra/themes/default/lv_theme_default.c ****     lv_style_set_pad_right(&styles->scrollbar, lv_disp_dpx(theme.disp, 7));
 231:Middlewares/lvgl/src/extra/themes/default/lv_theme_default.c ****     lv_style_set_pad_top(&styles->scrollbar,  lv_disp_dpx(theme.disp, 7));
 232:Middlewares/lvgl/src/extra/themes/default/lv_theme_default.c ****     lv_style_set_size(&styles->scrollbar,  lv_disp_dpx(theme.disp, 5));
 233:Middlewares/lvgl/src/extra/themes/default/lv_theme_default.c ****     lv_style_set_bg_opa(&styles->scrollbar,  LV_OPA_40);
 234:Middlewares/lvgl/src/extra/themes/default/lv_theme_default.c ****     lv_style_set_transition(&styles->scrollbar, &trans_normal);
 235:Middlewares/lvgl/src/extra/themes/default/lv_theme_default.c **** 
 236:Middlewares/lvgl/src/extra/themes/default/lv_theme_default.c ****     style_init_reset(&styles->scrollbar_scrolled);
 237:Middlewares/lvgl/src/extra/themes/default/lv_theme_default.c ****     lv_style_set_bg_opa(&styles->scrollbar_scrolled,  LV_OPA_COVER);
 238:Middlewares/lvgl/src/extra/themes/default/lv_theme_default.c **** 
 239:Middlewares/lvgl/src/extra/themes/default/lv_theme_default.c ****     style_init_reset(&styles->scr);
 240:Middlewares/lvgl/src/extra/themes/default/lv_theme_default.c ****     lv_style_set_bg_opa(&styles->scr, LV_OPA_COVER);
 241:Middlewares/lvgl/src/extra/themes/default/lv_theme_default.c ****     lv_style_set_bg_color(&styles->scr, color_scr);
 242:Middlewares/lvgl/src/extra/themes/default/lv_theme_default.c ****     lv_style_set_text_color(&styles->scr, color_text);
 243:Middlewares/lvgl/src/extra/themes/default/lv_theme_default.c ****     lv_style_set_pad_row(&styles->scr, PAD_SMALL);
 244:Middlewares/lvgl/src/extra/themes/default/lv_theme_default.c ****     lv_style_set_pad_column(&styles->scr, PAD_SMALL);
 245:Middlewares/lvgl/src/extra/themes/default/lv_theme_default.c **** 
 246:Middlewares/lvgl/src/extra/themes/default/lv_theme_default.c ****     style_init_reset(&styles->card);
 247:Middlewares/lvgl/src/extra/themes/default/lv_theme_default.c ****     lv_style_set_radius(&styles->card, RADIUS_DEFAULT);
 248:Middlewares/lvgl/src/extra/themes/default/lv_theme_default.c ****     lv_style_set_bg_opa(&styles->card, LV_OPA_COVER);
 249:Middlewares/lvgl/src/extra/themes/default/lv_theme_default.c ****     lv_style_set_bg_color(&styles->card, color_card);
 250:Middlewares/lvgl/src/extra/themes/default/lv_theme_default.c ****     lv_style_set_border_color(&styles->card, color_grey);
 251:Middlewares/lvgl/src/extra/themes/default/lv_theme_default.c ****     lv_style_set_border_width(&styles->card, BORDER_WIDTH);
 252:Middlewares/lvgl/src/extra/themes/default/lv_theme_default.c ****     lv_style_set_border_post(&styles->card, true);
 253:Middlewares/lvgl/src/extra/themes/default/lv_theme_default.c ****     lv_style_set_text_color(&styles->card, color_text);
 254:Middlewares/lvgl/src/extra/themes/default/lv_theme_default.c ****     lv_style_set_pad_all(&styles->card, PAD_DEF);
 255:Middlewares/lvgl/src/extra/themes/default/lv_theme_default.c ****     lv_style_set_pad_row(&styles->card, PAD_SMALL);
 256:Middlewares/lvgl/src/extra/themes/default/lv_theme_default.c ****     lv_style_set_pad_column(&styles->card, PAD_SMALL);
 257:Middlewares/lvgl/src/extra/themes/default/lv_theme_default.c ****     lv_style_set_line_color(&styles->card, lv_palette_main(LV_PALETTE_GREY));
 258:Middlewares/lvgl/src/extra/themes/default/lv_theme_default.c ****     lv_style_set_line_width(&styles->card, lv_disp_dpx(theme.disp, 1));
 259:Middlewares/lvgl/src/extra/themes/default/lv_theme_default.c **** 
ARM GAS  /tmp/ccvS2HVy.s 			page 6


 260:Middlewares/lvgl/src/extra/themes/default/lv_theme_default.c ****     style_init_reset(&styles->outline_primary);
 261:Middlewares/lvgl/src/extra/themes/default/lv_theme_default.c ****     lv_style_set_outline_color(&styles->outline_primary, theme.color_primary);
 262:Middlewares/lvgl/src/extra/themes/default/lv_theme_default.c ****     lv_style_set_outline_width(&styles->outline_primary, OUTLINE_WIDTH);
 263:Middlewares/lvgl/src/extra/themes/default/lv_theme_default.c ****     lv_style_set_outline_pad(&styles->outline_primary, OUTLINE_WIDTH);
 264:Middlewares/lvgl/src/extra/themes/default/lv_theme_default.c ****     lv_style_set_outline_opa(&styles->outline_primary, LV_OPA_50);
 265:Middlewares/lvgl/src/extra/themes/default/lv_theme_default.c **** 
 266:Middlewares/lvgl/src/extra/themes/default/lv_theme_default.c ****     style_init_reset(&styles->outline_secondary);
 267:Middlewares/lvgl/src/extra/themes/default/lv_theme_default.c ****     lv_style_set_outline_color(&styles->outline_secondary, theme.color_secondary);
 268:Middlewares/lvgl/src/extra/themes/default/lv_theme_default.c ****     lv_style_set_outline_width(&styles->outline_secondary, OUTLINE_WIDTH);
 269:Middlewares/lvgl/src/extra/themes/default/lv_theme_default.c ****     lv_style_set_outline_opa(&styles->outline_secondary, LV_OPA_50);
 270:Middlewares/lvgl/src/extra/themes/default/lv_theme_default.c **** 
 271:Middlewares/lvgl/src/extra/themes/default/lv_theme_default.c ****     style_init_reset(&styles->btn);
 272:Middlewares/lvgl/src/extra/themes/default/lv_theme_default.c ****     lv_style_set_radius(&styles->btn, (disp_size == DISP_LARGE ? lv_disp_dpx(theme.disp, 16) : disp
 273:Middlewares/lvgl/src/extra/themes/default/lv_theme_default.c ****     lv_style_set_bg_opa(&styles->btn, LV_OPA_COVER);
 274:Middlewares/lvgl/src/extra/themes/default/lv_theme_default.c ****     lv_style_set_bg_color(&styles->btn, color_grey);
 275:Middlewares/lvgl/src/extra/themes/default/lv_theme_default.c ****     if(!(theme.flags & MODE_DARK)) {
 276:Middlewares/lvgl/src/extra/themes/default/lv_theme_default.c ****         lv_style_set_shadow_color(&styles->btn, lv_palette_lighten(LV_PALETTE_GREY, 3));
 277:Middlewares/lvgl/src/extra/themes/default/lv_theme_default.c ****         lv_style_set_shadow_width(&styles->btn, 1);
 278:Middlewares/lvgl/src/extra/themes/default/lv_theme_default.c ****         lv_style_set_shadow_ofs_y(&styles->btn, lv_disp_dpx(theme.disp, 4));
 279:Middlewares/lvgl/src/extra/themes/default/lv_theme_default.c ****     }
 280:Middlewares/lvgl/src/extra/themes/default/lv_theme_default.c ****     lv_style_set_text_color(&styles->btn, color_text);
 281:Middlewares/lvgl/src/extra/themes/default/lv_theme_default.c ****     lv_style_set_pad_hor(&styles->btn, PAD_DEF);
 282:Middlewares/lvgl/src/extra/themes/default/lv_theme_default.c ****     lv_style_set_pad_ver(&styles->btn, PAD_SMALL);
 283:Middlewares/lvgl/src/extra/themes/default/lv_theme_default.c ****     lv_style_set_pad_column(&styles->btn, lv_disp_dpx(theme.disp, 5));
 284:Middlewares/lvgl/src/extra/themes/default/lv_theme_default.c ****     lv_style_set_pad_row(&styles->btn, lv_disp_dpx(theme.disp, 5));
 285:Middlewares/lvgl/src/extra/themes/default/lv_theme_default.c **** 
 286:Middlewares/lvgl/src/extra/themes/default/lv_theme_default.c ****     static lv_color_filter_dsc_t dark_filter;
 287:Middlewares/lvgl/src/extra/themes/default/lv_theme_default.c ****     lv_color_filter_dsc_init(&dark_filter, dark_color_filter_cb);
 288:Middlewares/lvgl/src/extra/themes/default/lv_theme_default.c **** 
 289:Middlewares/lvgl/src/extra/themes/default/lv_theme_default.c ****     static lv_color_filter_dsc_t grey_filter;
 290:Middlewares/lvgl/src/extra/themes/default/lv_theme_default.c ****     lv_color_filter_dsc_init(&grey_filter, grey_filter_cb);
 291:Middlewares/lvgl/src/extra/themes/default/lv_theme_default.c **** 
 292:Middlewares/lvgl/src/extra/themes/default/lv_theme_default.c ****     style_init_reset(&styles->pressed);
 293:Middlewares/lvgl/src/extra/themes/default/lv_theme_default.c ****     lv_style_set_color_filter_dsc(&styles->pressed, &dark_filter);
 294:Middlewares/lvgl/src/extra/themes/default/lv_theme_default.c ****     lv_style_set_color_filter_opa(&styles->pressed, 35);
 295:Middlewares/lvgl/src/extra/themes/default/lv_theme_default.c **** 
 296:Middlewares/lvgl/src/extra/themes/default/lv_theme_default.c ****     style_init_reset(&styles->disabled);
 297:Middlewares/lvgl/src/extra/themes/default/lv_theme_default.c ****     lv_style_set_color_filter_dsc(&styles->disabled, &grey_filter);
 298:Middlewares/lvgl/src/extra/themes/default/lv_theme_default.c ****     lv_style_set_color_filter_opa(&styles->disabled, LV_OPA_50);
 299:Middlewares/lvgl/src/extra/themes/default/lv_theme_default.c **** 
 300:Middlewares/lvgl/src/extra/themes/default/lv_theme_default.c ****     style_init_reset(&styles->clip_corner);
 301:Middlewares/lvgl/src/extra/themes/default/lv_theme_default.c ****     lv_style_set_clip_corner(&styles->clip_corner, true);
 302:Middlewares/lvgl/src/extra/themes/default/lv_theme_default.c **** 
 303:Middlewares/lvgl/src/extra/themes/default/lv_theme_default.c ****     style_init_reset(&styles->pad_normal);
 304:Middlewares/lvgl/src/extra/themes/default/lv_theme_default.c ****     lv_style_set_pad_all(&styles->pad_normal, PAD_DEF);
 305:Middlewares/lvgl/src/extra/themes/default/lv_theme_default.c ****     lv_style_set_pad_row(&styles->pad_normal, PAD_DEF);
 306:Middlewares/lvgl/src/extra/themes/default/lv_theme_default.c ****     lv_style_set_pad_column(&styles->pad_normal, PAD_DEF);
 307:Middlewares/lvgl/src/extra/themes/default/lv_theme_default.c **** 
 308:Middlewares/lvgl/src/extra/themes/default/lv_theme_default.c ****     style_init_reset(&styles->pad_small);
 309:Middlewares/lvgl/src/extra/themes/default/lv_theme_default.c ****     lv_style_set_pad_all(&styles->pad_small, PAD_SMALL);
 310:Middlewares/lvgl/src/extra/themes/default/lv_theme_default.c ****     lv_style_set_pad_gap(&styles->pad_small, PAD_SMALL);
 311:Middlewares/lvgl/src/extra/themes/default/lv_theme_default.c **** 
 312:Middlewares/lvgl/src/extra/themes/default/lv_theme_default.c ****     style_init_reset(&styles->pad_gap);
 313:Middlewares/lvgl/src/extra/themes/default/lv_theme_default.c ****     lv_style_set_pad_row(&styles->pad_gap, lv_disp_dpx(theme.disp, 10));
 314:Middlewares/lvgl/src/extra/themes/default/lv_theme_default.c ****     lv_style_set_pad_column(&styles->pad_gap, lv_disp_dpx(theme.disp, 10));
 315:Middlewares/lvgl/src/extra/themes/default/lv_theme_default.c **** 
 316:Middlewares/lvgl/src/extra/themes/default/lv_theme_default.c ****     style_init_reset(&styles->line_space_large);
ARM GAS  /tmp/ccvS2HVy.s 			page 7


 317:Middlewares/lvgl/src/extra/themes/default/lv_theme_default.c ****     lv_style_set_text_line_space(&styles->line_space_large, lv_disp_dpx(theme.disp, 20));
 318:Middlewares/lvgl/src/extra/themes/default/lv_theme_default.c **** 
 319:Middlewares/lvgl/src/extra/themes/default/lv_theme_default.c ****     style_init_reset(&styles->text_align_center);
 320:Middlewares/lvgl/src/extra/themes/default/lv_theme_default.c ****     lv_style_set_text_align(&styles->text_align_center, LV_TEXT_ALIGN_CENTER);
 321:Middlewares/lvgl/src/extra/themes/default/lv_theme_default.c **** 
 322:Middlewares/lvgl/src/extra/themes/default/lv_theme_default.c ****     style_init_reset(&styles->pad_zero);
 323:Middlewares/lvgl/src/extra/themes/default/lv_theme_default.c ****     lv_style_set_pad_all(&styles->pad_zero, 0);
 324:Middlewares/lvgl/src/extra/themes/default/lv_theme_default.c ****     lv_style_set_pad_row(&styles->pad_zero, 0);
 325:Middlewares/lvgl/src/extra/themes/default/lv_theme_default.c ****     lv_style_set_pad_column(&styles->pad_zero, 0);
 326:Middlewares/lvgl/src/extra/themes/default/lv_theme_default.c **** 
 327:Middlewares/lvgl/src/extra/themes/default/lv_theme_default.c ****     style_init_reset(&styles->pad_tiny);
 328:Middlewares/lvgl/src/extra/themes/default/lv_theme_default.c ****     lv_style_set_pad_all(&styles->pad_tiny, PAD_TINY);
 329:Middlewares/lvgl/src/extra/themes/default/lv_theme_default.c ****     lv_style_set_pad_row(&styles->pad_tiny, PAD_TINY);
 330:Middlewares/lvgl/src/extra/themes/default/lv_theme_default.c ****     lv_style_set_pad_column(&styles->pad_tiny, PAD_TINY);
 331:Middlewares/lvgl/src/extra/themes/default/lv_theme_default.c **** 
 332:Middlewares/lvgl/src/extra/themes/default/lv_theme_default.c ****     style_init_reset(&styles->bg_color_primary);
 333:Middlewares/lvgl/src/extra/themes/default/lv_theme_default.c ****     lv_style_set_bg_color(&styles->bg_color_primary, theme.color_primary);
 334:Middlewares/lvgl/src/extra/themes/default/lv_theme_default.c ****     lv_style_set_text_color(&styles->bg_color_primary, lv_color_white());
 335:Middlewares/lvgl/src/extra/themes/default/lv_theme_default.c ****     lv_style_set_bg_opa(&styles->bg_color_primary, LV_OPA_COVER);
 336:Middlewares/lvgl/src/extra/themes/default/lv_theme_default.c **** 
 337:Middlewares/lvgl/src/extra/themes/default/lv_theme_default.c ****     style_init_reset(&styles->bg_color_primary_muted);
 338:Middlewares/lvgl/src/extra/themes/default/lv_theme_default.c ****     lv_style_set_bg_color(&styles->bg_color_primary_muted, theme.color_primary);
 339:Middlewares/lvgl/src/extra/themes/default/lv_theme_default.c ****     lv_style_set_text_color(&styles->bg_color_primary_muted, theme.color_primary);
 340:Middlewares/lvgl/src/extra/themes/default/lv_theme_default.c ****     lv_style_set_bg_opa(&styles->bg_color_primary_muted, LV_OPA_20);
 341:Middlewares/lvgl/src/extra/themes/default/lv_theme_default.c **** 
 342:Middlewares/lvgl/src/extra/themes/default/lv_theme_default.c ****     style_init_reset(&styles->bg_color_secondary);
 343:Middlewares/lvgl/src/extra/themes/default/lv_theme_default.c ****     lv_style_set_bg_color(&styles->bg_color_secondary, theme.color_secondary);
 344:Middlewares/lvgl/src/extra/themes/default/lv_theme_default.c ****     lv_style_set_text_color(&styles->bg_color_secondary, lv_color_white());
 345:Middlewares/lvgl/src/extra/themes/default/lv_theme_default.c ****     lv_style_set_bg_opa(&styles->bg_color_secondary, LV_OPA_COVER);
 346:Middlewares/lvgl/src/extra/themes/default/lv_theme_default.c **** 
 347:Middlewares/lvgl/src/extra/themes/default/lv_theme_default.c ****     style_init_reset(&styles->bg_color_secondary_muted);
 348:Middlewares/lvgl/src/extra/themes/default/lv_theme_default.c ****     lv_style_set_bg_color(&styles->bg_color_secondary_muted, theme.color_secondary);
 349:Middlewares/lvgl/src/extra/themes/default/lv_theme_default.c ****     lv_style_set_text_color(&styles->bg_color_secondary_muted, theme.color_secondary);
 350:Middlewares/lvgl/src/extra/themes/default/lv_theme_default.c ****     lv_style_set_bg_opa(&styles->bg_color_secondary_muted, LV_OPA_20);
 351:Middlewares/lvgl/src/extra/themes/default/lv_theme_default.c **** 
 352:Middlewares/lvgl/src/extra/themes/default/lv_theme_default.c ****     style_init_reset(&styles->bg_color_grey);
 353:Middlewares/lvgl/src/extra/themes/default/lv_theme_default.c ****     lv_style_set_bg_color(&styles->bg_color_grey, color_grey);
 354:Middlewares/lvgl/src/extra/themes/default/lv_theme_default.c ****     lv_style_set_bg_opa(&styles->bg_color_grey, LV_OPA_COVER);
 355:Middlewares/lvgl/src/extra/themes/default/lv_theme_default.c ****     lv_style_set_text_color(&styles->bg_color_grey, color_text);
 356:Middlewares/lvgl/src/extra/themes/default/lv_theme_default.c **** 
 357:Middlewares/lvgl/src/extra/themes/default/lv_theme_default.c ****     style_init_reset(&styles->bg_color_white);
 358:Middlewares/lvgl/src/extra/themes/default/lv_theme_default.c ****     lv_style_set_bg_color(&styles->bg_color_white, color_card);
 359:Middlewares/lvgl/src/extra/themes/default/lv_theme_default.c ****     lv_style_set_bg_opa(&styles->bg_color_white, LV_OPA_COVER);
 360:Middlewares/lvgl/src/extra/themes/default/lv_theme_default.c ****     lv_style_set_text_color(&styles->bg_color_white, color_text);
 361:Middlewares/lvgl/src/extra/themes/default/lv_theme_default.c **** 
 362:Middlewares/lvgl/src/extra/themes/default/lv_theme_default.c ****     style_init_reset(&styles->circle);
 363:Middlewares/lvgl/src/extra/themes/default/lv_theme_default.c ****     lv_style_set_radius(&styles->circle, LV_RADIUS_CIRCLE);
 364:Middlewares/lvgl/src/extra/themes/default/lv_theme_default.c **** 
 365:Middlewares/lvgl/src/extra/themes/default/lv_theme_default.c ****     style_init_reset(&styles->no_radius);
 366:Middlewares/lvgl/src/extra/themes/default/lv_theme_default.c ****     lv_style_set_radius(&styles->no_radius, 0);
 367:Middlewares/lvgl/src/extra/themes/default/lv_theme_default.c **** 
 368:Middlewares/lvgl/src/extra/themes/default/lv_theme_default.c **** #if LV_THEME_DEFAULT_GROW
 369:Middlewares/lvgl/src/extra/themes/default/lv_theme_default.c ****     style_init_reset(&styles->grow);
 370:Middlewares/lvgl/src/extra/themes/default/lv_theme_default.c ****     lv_style_set_transform_width(&styles->grow, lv_disp_dpx(theme.disp, 3));
 371:Middlewares/lvgl/src/extra/themes/default/lv_theme_default.c ****     lv_style_set_transform_height(&styles->grow, lv_disp_dpx(theme.disp, 3));
 372:Middlewares/lvgl/src/extra/themes/default/lv_theme_default.c **** #endif
 373:Middlewares/lvgl/src/extra/themes/default/lv_theme_default.c **** 
ARM GAS  /tmp/ccvS2HVy.s 			page 8


 374:Middlewares/lvgl/src/extra/themes/default/lv_theme_default.c ****     style_init_reset(&styles->knob);
 375:Middlewares/lvgl/src/extra/themes/default/lv_theme_default.c ****     lv_style_set_bg_color(&styles->knob, theme.color_primary);
 376:Middlewares/lvgl/src/extra/themes/default/lv_theme_default.c ****     lv_style_set_bg_opa(&styles->knob, LV_OPA_COVER);
 377:Middlewares/lvgl/src/extra/themes/default/lv_theme_default.c ****     lv_style_set_pad_all(&styles->knob, lv_disp_dpx(theme.disp, 6));
 378:Middlewares/lvgl/src/extra/themes/default/lv_theme_default.c ****     lv_style_set_radius(&styles->knob, LV_RADIUS_CIRCLE);
 379:Middlewares/lvgl/src/extra/themes/default/lv_theme_default.c **** 
 380:Middlewares/lvgl/src/extra/themes/default/lv_theme_default.c ****     style_init_reset(&styles->anim);
 381:Middlewares/lvgl/src/extra/themes/default/lv_theme_default.c ****     lv_style_set_anim_time(&styles->anim, 200);
 382:Middlewares/lvgl/src/extra/themes/default/lv_theme_default.c **** 
 383:Middlewares/lvgl/src/extra/themes/default/lv_theme_default.c **** #if LV_USE_ARC
 384:Middlewares/lvgl/src/extra/themes/default/lv_theme_default.c ****     style_init_reset(&styles->arc_indic);
 385:Middlewares/lvgl/src/extra/themes/default/lv_theme_default.c ****     lv_style_set_arc_color(&styles->arc_indic, color_grey);
 386:Middlewares/lvgl/src/extra/themes/default/lv_theme_default.c ****     lv_style_set_arc_width(&styles->arc_indic, lv_disp_dpx(theme.disp, 15));
 387:Middlewares/lvgl/src/extra/themes/default/lv_theme_default.c ****     lv_style_set_arc_rounded(&styles->arc_indic, true);
 388:Middlewares/lvgl/src/extra/themes/default/lv_theme_default.c **** 
 389:Middlewares/lvgl/src/extra/themes/default/lv_theme_default.c ****     style_init_reset(&styles->arc_indic_primary);
 390:Middlewares/lvgl/src/extra/themes/default/lv_theme_default.c ****     lv_style_set_arc_color(&styles->arc_indic_primary, theme.color_primary);
 391:Middlewares/lvgl/src/extra/themes/default/lv_theme_default.c **** #endif
 392:Middlewares/lvgl/src/extra/themes/default/lv_theme_default.c **** 
 393:Middlewares/lvgl/src/extra/themes/default/lv_theme_default.c **** #if LV_USE_DROPDOWN
 394:Middlewares/lvgl/src/extra/themes/default/lv_theme_default.c ****     style_init_reset(&styles->dropdown_list);
 395:Middlewares/lvgl/src/extra/themes/default/lv_theme_default.c ****     lv_style_set_max_height(&styles->dropdown_list, LV_DPI_DEF * 2);
 396:Middlewares/lvgl/src/extra/themes/default/lv_theme_default.c **** #endif
 397:Middlewares/lvgl/src/extra/themes/default/lv_theme_default.c **** #if LV_USE_CHECKBOX
 398:Middlewares/lvgl/src/extra/themes/default/lv_theme_default.c ****     style_init_reset(&styles->cb_marker);
 399:Middlewares/lvgl/src/extra/themes/default/lv_theme_default.c ****     lv_style_set_pad_all(&styles->cb_marker, lv_disp_dpx(theme.disp, 3));
 400:Middlewares/lvgl/src/extra/themes/default/lv_theme_default.c ****     lv_style_set_border_width(&styles->cb_marker, BORDER_WIDTH);
 401:Middlewares/lvgl/src/extra/themes/default/lv_theme_default.c ****     lv_style_set_border_color(&styles->cb_marker, theme.color_primary);
 402:Middlewares/lvgl/src/extra/themes/default/lv_theme_default.c ****     lv_style_set_bg_color(&styles->cb_marker, color_card);
 403:Middlewares/lvgl/src/extra/themes/default/lv_theme_default.c ****     lv_style_set_bg_opa(&styles->cb_marker, LV_OPA_COVER);
 404:Middlewares/lvgl/src/extra/themes/default/lv_theme_default.c ****     lv_style_set_radius(&styles->cb_marker, RADIUS_DEFAULT / 2);
 405:Middlewares/lvgl/src/extra/themes/default/lv_theme_default.c **** 
 406:Middlewares/lvgl/src/extra/themes/default/lv_theme_default.c ****     style_init_reset(&styles->cb_marker_checked);
 407:Middlewares/lvgl/src/extra/themes/default/lv_theme_default.c ****     lv_style_set_bg_img_src(&styles->cb_marker_checked, LV_SYMBOL_OK);
 408:Middlewares/lvgl/src/extra/themes/default/lv_theme_default.c ****     lv_style_set_text_color(&styles->cb_marker_checked, lv_color_white());
 409:Middlewares/lvgl/src/extra/themes/default/lv_theme_default.c ****     lv_style_set_text_font(&styles->cb_marker_checked, theme.font_small);
 410:Middlewares/lvgl/src/extra/themes/default/lv_theme_default.c **** #endif
 411:Middlewares/lvgl/src/extra/themes/default/lv_theme_default.c **** 
 412:Middlewares/lvgl/src/extra/themes/default/lv_theme_default.c **** #if LV_USE_SWITCH
 413:Middlewares/lvgl/src/extra/themes/default/lv_theme_default.c ****     style_init_reset(&styles->switch_knob);
 414:Middlewares/lvgl/src/extra/themes/default/lv_theme_default.c ****     lv_style_set_pad_all(&styles->switch_knob, - lv_disp_dpx(theme.disp, 4));
 415:Middlewares/lvgl/src/extra/themes/default/lv_theme_default.c ****     lv_style_set_bg_color(&styles->switch_knob, lv_color_white());
 416:Middlewares/lvgl/src/extra/themes/default/lv_theme_default.c **** #endif
 417:Middlewares/lvgl/src/extra/themes/default/lv_theme_default.c **** 
 418:Middlewares/lvgl/src/extra/themes/default/lv_theme_default.c **** #if LV_USE_LINE
 419:Middlewares/lvgl/src/extra/themes/default/lv_theme_default.c ****     style_init_reset(&styles->line);
 420:Middlewares/lvgl/src/extra/themes/default/lv_theme_default.c ****     lv_style_set_line_width(&styles->line, 1);
 421:Middlewares/lvgl/src/extra/themes/default/lv_theme_default.c ****     lv_style_set_line_color(&styles->line, color_text);
 422:Middlewares/lvgl/src/extra/themes/default/lv_theme_default.c **** #endif
 423:Middlewares/lvgl/src/extra/themes/default/lv_theme_default.c **** 
 424:Middlewares/lvgl/src/extra/themes/default/lv_theme_default.c **** #if LV_USE_CHART
 425:Middlewares/lvgl/src/extra/themes/default/lv_theme_default.c ****     style_init_reset(&styles->chart_bg);
 426:Middlewares/lvgl/src/extra/themes/default/lv_theme_default.c ****     lv_style_set_border_post(&styles->chart_bg, false);
 427:Middlewares/lvgl/src/extra/themes/default/lv_theme_default.c ****     lv_style_set_pad_column(&styles->chart_bg, lv_disp_dpx(theme.disp, 10));
 428:Middlewares/lvgl/src/extra/themes/default/lv_theme_default.c ****     lv_style_set_line_color(&styles->chart_bg, color_grey);
 429:Middlewares/lvgl/src/extra/themes/default/lv_theme_default.c **** 
 430:Middlewares/lvgl/src/extra/themes/default/lv_theme_default.c ****     style_init_reset(&styles->chart_series);
ARM GAS  /tmp/ccvS2HVy.s 			page 9


 431:Middlewares/lvgl/src/extra/themes/default/lv_theme_default.c ****     lv_style_set_line_width(&styles->chart_series, lv_disp_dpx(theme.disp, 3));
 432:Middlewares/lvgl/src/extra/themes/default/lv_theme_default.c ****     lv_style_set_radius(&styles->chart_series, lv_disp_dpx(theme.disp, 3));
 433:Middlewares/lvgl/src/extra/themes/default/lv_theme_default.c ****     lv_style_set_size(&styles->chart_series, lv_disp_dpx(theme.disp, 8));
 434:Middlewares/lvgl/src/extra/themes/default/lv_theme_default.c ****     lv_style_set_pad_column(&styles->chart_series, lv_disp_dpx(theme.disp, 2));
 435:Middlewares/lvgl/src/extra/themes/default/lv_theme_default.c **** 
 436:Middlewares/lvgl/src/extra/themes/default/lv_theme_default.c ****     style_init_reset(&styles->chart_indic);
 437:Middlewares/lvgl/src/extra/themes/default/lv_theme_default.c ****     lv_style_set_radius(&styles->chart_indic,LV_RADIUS_CIRCLE);
 438:Middlewares/lvgl/src/extra/themes/default/lv_theme_default.c ****     lv_style_set_size(&styles->chart_indic, lv_disp_dpx(theme.disp, 8));
 439:Middlewares/lvgl/src/extra/themes/default/lv_theme_default.c ****     lv_style_set_bg_color(&styles->chart_indic, theme.color_primary);
 440:Middlewares/lvgl/src/extra/themes/default/lv_theme_default.c ****     lv_style_set_bg_opa(&styles->chart_indic, LV_OPA_COVER);
 441:Middlewares/lvgl/src/extra/themes/default/lv_theme_default.c **** 
 442:Middlewares/lvgl/src/extra/themes/default/lv_theme_default.c ****     style_init_reset(&styles->chart_ticks);
 443:Middlewares/lvgl/src/extra/themes/default/lv_theme_default.c ****     lv_style_set_line_width(&styles->chart_ticks, lv_disp_dpx(theme.disp, 1));
 444:Middlewares/lvgl/src/extra/themes/default/lv_theme_default.c ****     lv_style_set_line_color(&styles->chart_ticks, color_text);
 445:Middlewares/lvgl/src/extra/themes/default/lv_theme_default.c ****     lv_style_set_pad_all(&styles->chart_ticks, lv_disp_dpx(theme.disp, 2));
 446:Middlewares/lvgl/src/extra/themes/default/lv_theme_default.c ****     lv_style_set_text_color(&styles->chart_ticks, lv_palette_main(LV_PALETTE_GREY));
 447:Middlewares/lvgl/src/extra/themes/default/lv_theme_default.c **** #endif
 448:Middlewares/lvgl/src/extra/themes/default/lv_theme_default.c **** 
 449:Middlewares/lvgl/src/extra/themes/default/lv_theme_default.c **** #if LV_USE_METER
 450:Middlewares/lvgl/src/extra/themes/default/lv_theme_default.c ****     style_init_reset(&styles->meter_marker);
 451:Middlewares/lvgl/src/extra/themes/default/lv_theme_default.c ****     lv_style_set_line_width(&styles->meter_marker, lv_disp_dpx(theme.disp, 5));
 452:Middlewares/lvgl/src/extra/themes/default/lv_theme_default.c ****     lv_style_set_line_color(&styles->meter_marker, color_text);
 453:Middlewares/lvgl/src/extra/themes/default/lv_theme_default.c ****     lv_style_set_size(&styles->meter_marker, lv_disp_dpx(theme.disp, 20));
 454:Middlewares/lvgl/src/extra/themes/default/lv_theme_default.c ****     lv_style_set_pad_left(&styles->meter_marker, lv_disp_dpx(theme.disp, 15));
 455:Middlewares/lvgl/src/extra/themes/default/lv_theme_default.c **** 
 456:Middlewares/lvgl/src/extra/themes/default/lv_theme_default.c ****     style_init_reset(&styles->meter_indic);
 457:Middlewares/lvgl/src/extra/themes/default/lv_theme_default.c ****     lv_style_set_radius(&styles->meter_indic, LV_RADIUS_CIRCLE);
 458:Middlewares/lvgl/src/extra/themes/default/lv_theme_default.c ****     lv_style_set_bg_color(&styles->meter_indic, color_text);
 459:Middlewares/lvgl/src/extra/themes/default/lv_theme_default.c ****     lv_style_set_bg_opa(&styles->meter_indic, LV_OPA_COVER);
 460:Middlewares/lvgl/src/extra/themes/default/lv_theme_default.c ****     lv_style_set_size(&styles->meter_indic, lv_disp_dpx(theme.disp, 15));
 461:Middlewares/lvgl/src/extra/themes/default/lv_theme_default.c **** #endif
 462:Middlewares/lvgl/src/extra/themes/default/lv_theme_default.c **** 
 463:Middlewares/lvgl/src/extra/themes/default/lv_theme_default.c **** #if LV_USE_TABLE
 464:Middlewares/lvgl/src/extra/themes/default/lv_theme_default.c ****     style_init_reset(&styles->table_cell);
 465:Middlewares/lvgl/src/extra/themes/default/lv_theme_default.c ****     lv_style_set_border_width(&styles->table_cell, lv_disp_dpx(theme.disp, 1));
 466:Middlewares/lvgl/src/extra/themes/default/lv_theme_default.c ****     lv_style_set_border_color(&styles->table_cell, color_grey);
 467:Middlewares/lvgl/src/extra/themes/default/lv_theme_default.c ****     lv_style_set_border_side(&styles->table_cell, LV_BORDER_SIDE_TOP | LV_BORDER_SIDE_BOTTOM );
 468:Middlewares/lvgl/src/extra/themes/default/lv_theme_default.c **** #endif
 469:Middlewares/lvgl/src/extra/themes/default/lv_theme_default.c **** 
 470:Middlewares/lvgl/src/extra/themes/default/lv_theme_default.c **** #if LV_USE_TEXTAREA
 471:Middlewares/lvgl/src/extra/themes/default/lv_theme_default.c ****     style_init_reset(&styles->ta_cursor);
 472:Middlewares/lvgl/src/extra/themes/default/lv_theme_default.c ****     lv_style_set_border_color(&styles->ta_cursor, color_text);
 473:Middlewares/lvgl/src/extra/themes/default/lv_theme_default.c ****     lv_style_set_border_width(&styles->ta_cursor, lv_disp_dpx(theme.disp, 2));
 474:Middlewares/lvgl/src/extra/themes/default/lv_theme_default.c ****     lv_style_set_pad_left(&styles->ta_cursor, lv_disp_dpx(theme.disp, 1));
 475:Middlewares/lvgl/src/extra/themes/default/lv_theme_default.c ****     lv_style_set_border_side(&styles->ta_cursor, LV_BORDER_SIDE_LEFT);
 476:Middlewares/lvgl/src/extra/themes/default/lv_theme_default.c ****     lv_style_set_anim_time(&styles->ta_cursor, 400);
 477:Middlewares/lvgl/src/extra/themes/default/lv_theme_default.c **** 
 478:Middlewares/lvgl/src/extra/themes/default/lv_theme_default.c ****     style_init_reset(&styles->ta_placeholder);
 479:Middlewares/lvgl/src/extra/themes/default/lv_theme_default.c ****     lv_style_set_text_color(&styles->ta_placeholder, (theme.flags & MODE_DARK) ? lv_palette_darken(
 480:Middlewares/lvgl/src/extra/themes/default/lv_theme_default.c **** #endif
 481:Middlewares/lvgl/src/extra/themes/default/lv_theme_default.c **** 
 482:Middlewares/lvgl/src/extra/themes/default/lv_theme_default.c **** #if LV_USE_CALENDAR
 483:Middlewares/lvgl/src/extra/themes/default/lv_theme_default.c ****     style_init_reset(&styles->calendar_bg);
 484:Middlewares/lvgl/src/extra/themes/default/lv_theme_default.c ****     lv_style_set_pad_all(&styles->calendar_bg, PAD_SMALL);
 485:Middlewares/lvgl/src/extra/themes/default/lv_theme_default.c ****     lv_style_set_pad_gap(&styles->calendar_bg, PAD_SMALL / 2);
 486:Middlewares/lvgl/src/extra/themes/default/lv_theme_default.c ****     lv_style_set_radius(&styles->calendar_bg, 0);
 487:Middlewares/lvgl/src/extra/themes/default/lv_theme_default.c **** 
ARM GAS  /tmp/ccvS2HVy.s 			page 10


 488:Middlewares/lvgl/src/extra/themes/default/lv_theme_default.c ****     style_init_reset(&styles->calendar_day);
 489:Middlewares/lvgl/src/extra/themes/default/lv_theme_default.c ****     lv_style_set_border_width(&styles->calendar_day, lv_disp_dpx(theme.disp, 1));
 490:Middlewares/lvgl/src/extra/themes/default/lv_theme_default.c ****     lv_style_set_border_color(&styles->calendar_day, color_grey);
 491:Middlewares/lvgl/src/extra/themes/default/lv_theme_default.c ****     lv_style_set_bg_color(&styles->calendar_day, color_card);
 492:Middlewares/lvgl/src/extra/themes/default/lv_theme_default.c ****     lv_style_set_bg_opa(&styles->calendar_day, LV_OPA_20);
 493:Middlewares/lvgl/src/extra/themes/default/lv_theme_default.c **** #endif
 494:Middlewares/lvgl/src/extra/themes/default/lv_theme_default.c **** 
 495:Middlewares/lvgl/src/extra/themes/default/lv_theme_default.c **** #if LV_USE_COLORWHEEL
 496:Middlewares/lvgl/src/extra/themes/default/lv_theme_default.c ****     style_init_reset(&styles->colorwheel_main);
 497:Middlewares/lvgl/src/extra/themes/default/lv_theme_default.c ****     lv_style_set_arc_width(&styles->colorwheel_main, lv_disp_dpx(theme.disp, 10));
 498:Middlewares/lvgl/src/extra/themes/default/lv_theme_default.c **** #endif
 499:Middlewares/lvgl/src/extra/themes/default/lv_theme_default.c **** 
 500:Middlewares/lvgl/src/extra/themes/default/lv_theme_default.c **** #if LV_USE_MSGBOX
 501:Middlewares/lvgl/src/extra/themes/default/lv_theme_default.c ****     /*To add space for for the button shadow*/
 502:Middlewares/lvgl/src/extra/themes/default/lv_theme_default.c ****     style_init_reset(&styles->msgbox_btn_bg);
 503:Middlewares/lvgl/src/extra/themes/default/lv_theme_default.c ****     lv_style_set_pad_all(&styles->msgbox_btn_bg, lv_disp_dpx(theme.disp, 4));
 504:Middlewares/lvgl/src/extra/themes/default/lv_theme_default.c **** 
 505:Middlewares/lvgl/src/extra/themes/default/lv_theme_default.c ****     style_init_reset(&styles->msgbox_bg);
 506:Middlewares/lvgl/src/extra/themes/default/lv_theme_default.c ****     lv_style_set_max_width(&styles->msgbox_bg, lv_pct(100));
 507:Middlewares/lvgl/src/extra/themes/default/lv_theme_default.c **** #endif
 508:Middlewares/lvgl/src/extra/themes/default/lv_theme_default.c **** #if LV_USE_KEYBOARD
 509:Middlewares/lvgl/src/extra/themes/default/lv_theme_default.c ****     style_init_reset(&styles->keyboard_btn_bg);
 510:Middlewares/lvgl/src/extra/themes/default/lv_theme_default.c ****     lv_style_set_shadow_width(&styles->keyboard_btn_bg, 0);
 511:Middlewares/lvgl/src/extra/themes/default/lv_theme_default.c ****     lv_style_set_radius(&styles->keyboard_btn_bg, disp_size == DISP_SMALL ? RADIUS_DEFAULT / 2 : RA
 512:Middlewares/lvgl/src/extra/themes/default/lv_theme_default.c **** #endif
 513:Middlewares/lvgl/src/extra/themes/default/lv_theme_default.c **** 
 514:Middlewares/lvgl/src/extra/themes/default/lv_theme_default.c **** #if LV_USE_TABVIEW
 515:Middlewares/lvgl/src/extra/themes/default/lv_theme_default.c ****     style_init_reset(&styles->tab_btn);
 516:Middlewares/lvgl/src/extra/themes/default/lv_theme_default.c ****     lv_style_set_border_color(&styles->tab_btn, theme.color_primary);
 517:Middlewares/lvgl/src/extra/themes/default/lv_theme_default.c ****     lv_style_set_border_width(&styles->tab_btn, BORDER_WIDTH * 2);
 518:Middlewares/lvgl/src/extra/themes/default/lv_theme_default.c ****     lv_style_set_border_side(&styles->tab_btn, LV_BORDER_SIDE_BOTTOM);
 519:Middlewares/lvgl/src/extra/themes/default/lv_theme_default.c **** 
 520:Middlewares/lvgl/src/extra/themes/default/lv_theme_default.c ****     style_init_reset(&styles->tab_bg_focus);
 521:Middlewares/lvgl/src/extra/themes/default/lv_theme_default.c ****     lv_style_set_outline_pad(&styles->tab_bg_focus, -BORDER_WIDTH);
 522:Middlewares/lvgl/src/extra/themes/default/lv_theme_default.c **** #endif
 523:Middlewares/lvgl/src/extra/themes/default/lv_theme_default.c **** 
 524:Middlewares/lvgl/src/extra/themes/default/lv_theme_default.c **** #if LV_USE_LIST
 525:Middlewares/lvgl/src/extra/themes/default/lv_theme_default.c ****     style_init_reset(&styles->list_bg);
 526:Middlewares/lvgl/src/extra/themes/default/lv_theme_default.c ****     lv_style_set_pad_hor(&styles->list_bg, PAD_DEF);
 527:Middlewares/lvgl/src/extra/themes/default/lv_theme_default.c ****     lv_style_set_pad_ver(&styles->list_bg, 0);
 528:Middlewares/lvgl/src/extra/themes/default/lv_theme_default.c ****     lv_style_set_pad_gap(&styles->list_bg, 0);
 529:Middlewares/lvgl/src/extra/themes/default/lv_theme_default.c ****     lv_style_set_clip_corner(&styles->list_bg, true);
 530:Middlewares/lvgl/src/extra/themes/default/lv_theme_default.c **** 
 531:Middlewares/lvgl/src/extra/themes/default/lv_theme_default.c ****     style_init_reset(&styles->list_btn);
 532:Middlewares/lvgl/src/extra/themes/default/lv_theme_default.c ****     lv_style_set_border_width(&styles->list_btn, lv_disp_dpx(theme.disp, 1));
 533:Middlewares/lvgl/src/extra/themes/default/lv_theme_default.c ****     lv_style_set_border_color(&styles->list_btn, color_grey);
 534:Middlewares/lvgl/src/extra/themes/default/lv_theme_default.c ****     lv_style_set_border_side(&styles->list_btn, LV_BORDER_SIDE_BOTTOM);
 535:Middlewares/lvgl/src/extra/themes/default/lv_theme_default.c ****     lv_style_set_pad_all(&styles->list_btn, PAD_SMALL);
 536:Middlewares/lvgl/src/extra/themes/default/lv_theme_default.c ****     lv_style_set_pad_column(&styles->list_btn, PAD_SMALL);
 537:Middlewares/lvgl/src/extra/themes/default/lv_theme_default.c **** 
 538:Middlewares/lvgl/src/extra/themes/default/lv_theme_default.c ****     style_init_reset(&styles->list_item_grow);
 539:Middlewares/lvgl/src/extra/themes/default/lv_theme_default.c ****     lv_style_set_transform_width(&styles->list_item_grow, PAD_DEF);
 540:Middlewares/lvgl/src/extra/themes/default/lv_theme_default.c **** #endif
 541:Middlewares/lvgl/src/extra/themes/default/lv_theme_default.c **** 
 542:Middlewares/lvgl/src/extra/themes/default/lv_theme_default.c **** 
 543:Middlewares/lvgl/src/extra/themes/default/lv_theme_default.c **** #if LV_USE_LED
 544:Middlewares/lvgl/src/extra/themes/default/lv_theme_default.c ****     style_init_reset(&styles->led);
ARM GAS  /tmp/ccvS2HVy.s 			page 11


 545:Middlewares/lvgl/src/extra/themes/default/lv_theme_default.c ****     lv_style_set_bg_opa(&styles->led, LV_OPA_COVER);
 546:Middlewares/lvgl/src/extra/themes/default/lv_theme_default.c ****     lv_style_set_bg_color(&styles->led, lv_color_white());
 547:Middlewares/lvgl/src/extra/themes/default/lv_theme_default.c ****     lv_style_set_bg_grad_color(&styles->led, lv_palette_main(LV_PALETTE_GREY));
 548:Middlewares/lvgl/src/extra/themes/default/lv_theme_default.c ****     lv_style_set_radius(&styles->led, LV_RADIUS_CIRCLE);
 549:Middlewares/lvgl/src/extra/themes/default/lv_theme_default.c ****     lv_style_set_shadow_width(&styles->led, lv_disp_dpx(theme.disp, 15));
 550:Middlewares/lvgl/src/extra/themes/default/lv_theme_default.c ****     lv_style_set_shadow_color(&styles->led, lv_color_white());
 551:Middlewares/lvgl/src/extra/themes/default/lv_theme_default.c ****     lv_style_set_shadow_spread(&styles->led, lv_disp_dpx(theme.disp, 5));
 552:Middlewares/lvgl/src/extra/themes/default/lv_theme_default.c **** #endif
 553:Middlewares/lvgl/src/extra/themes/default/lv_theme_default.c **** }
 554:Middlewares/lvgl/src/extra/themes/default/lv_theme_default.c **** 
 555:Middlewares/lvgl/src/extra/themes/default/lv_theme_default.c **** /**********************
 556:Middlewares/lvgl/src/extra/themes/default/lv_theme_default.c ****  *   GLOBAL FUNCTIONS
 557:Middlewares/lvgl/src/extra/themes/default/lv_theme_default.c ****  **********************/
 558:Middlewares/lvgl/src/extra/themes/default/lv_theme_default.c **** 
 559:Middlewares/lvgl/src/extra/themes/default/lv_theme_default.c **** lv_theme_t * lv_theme_default_init(lv_disp_t * disp, lv_color_t color_primary, lv_color_t color_sec
 560:Middlewares/lvgl/src/extra/themes/default/lv_theme_default.c **** {
 561:Middlewares/lvgl/src/extra/themes/default/lv_theme_default.c **** 
 562:Middlewares/lvgl/src/extra/themes/default/lv_theme_default.c ****     /*This trick is required only to avoid the garbage collection of
 563:Middlewares/lvgl/src/extra/themes/default/lv_theme_default.c ****      *styles' data if LVGL is used in a binding (e.g. Micropython)
 564:Middlewares/lvgl/src/extra/themes/default/lv_theme_default.c ****      *In a general case styles could be in simple `static lv_style_t my_style...` variables*/
 565:Middlewares/lvgl/src/extra/themes/default/lv_theme_default.c ****     if(!inited) {
 566:Middlewares/lvgl/src/extra/themes/default/lv_theme_default.c ****         LV_GC_ROOT(_lv_theme_default_styles) = lv_mem_alloc(sizeof(my_theme_styles_t));
 567:Middlewares/lvgl/src/extra/themes/default/lv_theme_default.c ****         styles = (my_theme_styles_t *)LV_GC_ROOT(_lv_theme_default_styles);
 568:Middlewares/lvgl/src/extra/themes/default/lv_theme_default.c ****     }
 569:Middlewares/lvgl/src/extra/themes/default/lv_theme_default.c **** 
 570:Middlewares/lvgl/src/extra/themes/default/lv_theme_default.c ****     if(LV_HOR_RES <= 320) disp_size = DISP_SMALL;
 571:Middlewares/lvgl/src/extra/themes/default/lv_theme_default.c ****     else if(LV_HOR_RES < 720) disp_size = DISP_MEDIUM;
 572:Middlewares/lvgl/src/extra/themes/default/lv_theme_default.c ****     else disp_size = DISP_LARGE;
 573:Middlewares/lvgl/src/extra/themes/default/lv_theme_default.c **** 
 574:Middlewares/lvgl/src/extra/themes/default/lv_theme_default.c ****     theme.disp = disp;
 575:Middlewares/lvgl/src/extra/themes/default/lv_theme_default.c ****     theme.color_primary = color_primary;
 576:Middlewares/lvgl/src/extra/themes/default/lv_theme_default.c ****     theme.color_secondary = color_secondary;
 577:Middlewares/lvgl/src/extra/themes/default/lv_theme_default.c ****     theme.font_small = font;
 578:Middlewares/lvgl/src/extra/themes/default/lv_theme_default.c ****     theme.font_normal = font;
 579:Middlewares/lvgl/src/extra/themes/default/lv_theme_default.c ****     theme.font_large = font;
 580:Middlewares/lvgl/src/extra/themes/default/lv_theme_default.c ****     theme.apply_cb = theme_apply;
 581:Middlewares/lvgl/src/extra/themes/default/lv_theme_default.c ****     theme.flags = dark ? MODE_DARK : 0;
 582:Middlewares/lvgl/src/extra/themes/default/lv_theme_default.c **** 
 583:Middlewares/lvgl/src/extra/themes/default/lv_theme_default.c ****     style_init();
 584:Middlewares/lvgl/src/extra/themes/default/lv_theme_default.c **** 
 585:Middlewares/lvgl/src/extra/themes/default/lv_theme_default.c ****     inited = true;
 586:Middlewares/lvgl/src/extra/themes/default/lv_theme_default.c **** 
 587:Middlewares/lvgl/src/extra/themes/default/lv_theme_default.c ****     if(disp == NULL || lv_disp_get_theme(disp) == &theme) lv_obj_report_style_change(NULL);
 588:Middlewares/lvgl/src/extra/themes/default/lv_theme_default.c **** 
 589:Middlewares/lvgl/src/extra/themes/default/lv_theme_default.c ****     return (lv_theme_t *)&theme;
 590:Middlewares/lvgl/src/extra/themes/default/lv_theme_default.c **** }
 591:Middlewares/lvgl/src/extra/themes/default/lv_theme_default.c **** 
 592:Middlewares/lvgl/src/extra/themes/default/lv_theme_default.c **** bool lv_theme_default_is_inited(void)
 593:Middlewares/lvgl/src/extra/themes/default/lv_theme_default.c **** {
 594:Middlewares/lvgl/src/extra/themes/default/lv_theme_default.c ****     return inited;
 595:Middlewares/lvgl/src/extra/themes/default/lv_theme_default.c **** }
 596:Middlewares/lvgl/src/extra/themes/default/lv_theme_default.c **** 
 597:Middlewares/lvgl/src/extra/themes/default/lv_theme_default.c **** 
 598:Middlewares/lvgl/src/extra/themes/default/lv_theme_default.c **** static void theme_apply(lv_theme_t * th, lv_obj_t * obj)
 599:Middlewares/lvgl/src/extra/themes/default/lv_theme_default.c **** {
  28              		.loc 1 599 1 view -0
  29              		.cfi_startproc
ARM GAS  /tmp/ccvS2HVy.s 			page 12


  30              		@ args = 0, pretend = 0, frame = 0
  31              		@ frame_needed = 0, uses_anonymous_args = 0
  32              		.loc 1 599 1 is_stmt 0 view .LVU1
  33 0000 70B5     		push	{r4, r5, r6, lr}
  34              	.LCFI0:
  35              		.cfi_def_cfa_offset 16
  36              		.cfi_offset 4, -16
  37              		.cfi_offset 5, -12
  38              		.cfi_offset 6, -8
  39              		.cfi_offset 14, -4
  40 0002 0C46     		mov	r4, r1
 600:Middlewares/lvgl/src/extra/themes/default/lv_theme_default.c ****     LV_UNUSED(th);
  41              		.loc 1 600 5 is_stmt 1 view .LVU2
 601:Middlewares/lvgl/src/extra/themes/default/lv_theme_default.c **** 
 602:Middlewares/lvgl/src/extra/themes/default/lv_theme_default.c ****     if(lv_obj_get_parent(obj) == NULL) {
  42              		.loc 1 602 5 view .LVU3
  43              		.loc 1 602 8 is_stmt 0 view .LVU4
  44 0004 0846     		mov	r0, r1
  45              	.LVL1:
  46              		.loc 1 602 8 view .LVU5
  47 0006 FFF7FEFF 		bl	lv_obj_get_parent
  48              	.LVL2:
  49              		.loc 1 602 7 view .LVU6
  50 000a 78B1     		cbz	r0, .L39
 603:Middlewares/lvgl/src/extra/themes/default/lv_theme_default.c ****         lv_obj_add_style(obj, &styles->scr, 0);
 604:Middlewares/lvgl/src/extra/themes/default/lv_theme_default.c ****         lv_obj_add_style(obj, &styles->scrollbar, LV_PART_SCROLLBAR);
 605:Middlewares/lvgl/src/extra/themes/default/lv_theme_default.c ****         lv_obj_add_style(obj, &styles->scrollbar_scrolled, LV_PART_SCROLLBAR | LV_STATE_SCROLLED);
 606:Middlewares/lvgl/src/extra/themes/default/lv_theme_default.c ****         return;
 607:Middlewares/lvgl/src/extra/themes/default/lv_theme_default.c ****     }
 608:Middlewares/lvgl/src/extra/themes/default/lv_theme_default.c **** 
 609:Middlewares/lvgl/src/extra/themes/default/lv_theme_default.c ****     if(lv_obj_check_type(obj, &lv_obj_class)) {
  51              		.loc 1 609 5 is_stmt 1 view .LVU7
  52              		.loc 1 609 8 is_stmt 0 view .LVU8
  53 000c AD49     		ldr	r1, .L50
  54 000e 2046     		mov	r0, r4
  55 0010 FFF7FEFF 		bl	lv_obj_check_type
  56              	.LVL3:
  57              		.loc 1 609 7 view .LVU9
  58 0014 0028     		cmp	r0, #0
  59 0016 00F08E80 		beq	.L4
  60              	.LBB52:
 610:Middlewares/lvgl/src/extra/themes/default/lv_theme_default.c **** #if LV_USE_TABVIEW
 611:Middlewares/lvgl/src/extra/themes/default/lv_theme_default.c ****         lv_obj_t * parent = lv_obj_get_parent(obj);
  61              		.loc 1 611 9 is_stmt 1 view .LVU10
  62              		.loc 1 611 29 is_stmt 0 view .LVU11
  63 001a 2046     		mov	r0, r4
  64 001c FFF7FEFF 		bl	lv_obj_get_parent
  65              	.LVL4:
  66 0020 0546     		mov	r5, r0
  67              	.LVL5:
 612:Middlewares/lvgl/src/extra/themes/default/lv_theme_default.c ****         /*Tabview content area*/
 613:Middlewares/lvgl/src/extra/themes/default/lv_theme_default.c ****         if(lv_obj_check_type(parent, &lv_tabview_class)) {
  68              		.loc 1 613 9 is_stmt 1 view .LVU12
  69              		.loc 1 613 12 is_stmt 0 view .LVU13
  70 0022 A949     		ldr	r1, .L50+4
  71 0024 FFF7FEFF 		bl	lv_obj_check_type
  72              	.LVL6:
ARM GAS  /tmp/ccvS2HVy.s 			page 13


  73              		.loc 1 613 11 view .LVU14
  74 0028 A0B1     		cbz	r0, .L40
  75              	.LVL7:
  76              	.L1:
  77              		.loc 1 613 11 view .LVU15
  78              	.LBE52:
 614:Middlewares/lvgl/src/extra/themes/default/lv_theme_default.c ****             return;
 615:Middlewares/lvgl/src/extra/themes/default/lv_theme_default.c ****         }
 616:Middlewares/lvgl/src/extra/themes/default/lv_theme_default.c ****         /*Tabview pages*/
 617:Middlewares/lvgl/src/extra/themes/default/lv_theme_default.c ****         else if(lv_obj_check_type(lv_obj_get_parent(parent), &lv_tabview_class)) {
 618:Middlewares/lvgl/src/extra/themes/default/lv_theme_default.c ****             lv_obj_add_style(obj, &styles->pad_normal, 0);
 619:Middlewares/lvgl/src/extra/themes/default/lv_theme_default.c ****             lv_obj_add_style(obj, &styles->scrollbar, LV_PART_SCROLLBAR);
 620:Middlewares/lvgl/src/extra/themes/default/lv_theme_default.c ****             lv_obj_add_style(obj, &styles->scrollbar_scrolled, LV_PART_SCROLLBAR | LV_STATE_SCROLLE
 621:Middlewares/lvgl/src/extra/themes/default/lv_theme_default.c ****             return;
 622:Middlewares/lvgl/src/extra/themes/default/lv_theme_default.c ****         }
 623:Middlewares/lvgl/src/extra/themes/default/lv_theme_default.c **** #endif
 624:Middlewares/lvgl/src/extra/themes/default/lv_theme_default.c **** 
 625:Middlewares/lvgl/src/extra/themes/default/lv_theme_default.c **** #if LV_USE_WIN
 626:Middlewares/lvgl/src/extra/themes/default/lv_theme_default.c ****         /*Header*/
 627:Middlewares/lvgl/src/extra/themes/default/lv_theme_default.c ****         if(lv_obj_get_child_id(obj) == 0 && lv_obj_check_type(lv_obj_get_parent(obj), &lv_win_class
 628:Middlewares/lvgl/src/extra/themes/default/lv_theme_default.c ****             lv_obj_add_style(obj, &styles->bg_color_grey, 0);
 629:Middlewares/lvgl/src/extra/themes/default/lv_theme_default.c ****             lv_obj_add_style(obj, &styles->pad_tiny, 0);
 630:Middlewares/lvgl/src/extra/themes/default/lv_theme_default.c ****             return;
 631:Middlewares/lvgl/src/extra/themes/default/lv_theme_default.c ****         }
 632:Middlewares/lvgl/src/extra/themes/default/lv_theme_default.c ****         /*Content*/
 633:Middlewares/lvgl/src/extra/themes/default/lv_theme_default.c ****         else if(lv_obj_get_child_id(obj) == 1 && lv_obj_check_type(lv_obj_get_parent(obj), &lv_win_
 634:Middlewares/lvgl/src/extra/themes/default/lv_theme_default.c ****             lv_obj_add_style(obj, &styles->scr, 0);
 635:Middlewares/lvgl/src/extra/themes/default/lv_theme_default.c ****             lv_obj_add_style(obj, &styles->pad_normal, 0);
 636:Middlewares/lvgl/src/extra/themes/default/lv_theme_default.c ****             lv_obj_add_style(obj, &styles->scrollbar, LV_PART_SCROLLBAR);
 637:Middlewares/lvgl/src/extra/themes/default/lv_theme_default.c ****             lv_obj_add_style(obj, &styles->scrollbar_scrolled, LV_PART_SCROLLBAR | LV_STATE_SCROLLE
 638:Middlewares/lvgl/src/extra/themes/default/lv_theme_default.c ****             return;
 639:Middlewares/lvgl/src/extra/themes/default/lv_theme_default.c ****         }
 640:Middlewares/lvgl/src/extra/themes/default/lv_theme_default.c **** #endif
 641:Middlewares/lvgl/src/extra/themes/default/lv_theme_default.c ****         lv_obj_add_style(obj, &styles->card, 0);
 642:Middlewares/lvgl/src/extra/themes/default/lv_theme_default.c ****         lv_obj_add_style(obj, &styles->scrollbar, LV_PART_SCROLLBAR);
 643:Middlewares/lvgl/src/extra/themes/default/lv_theme_default.c ****         lv_obj_add_style(obj, &styles->scrollbar_scrolled, LV_PART_SCROLLBAR | LV_STATE_SCROLLED);
 644:Middlewares/lvgl/src/extra/themes/default/lv_theme_default.c ****     }
 645:Middlewares/lvgl/src/extra/themes/default/lv_theme_default.c ****     #if LV_USE_BTN
 646:Middlewares/lvgl/src/extra/themes/default/lv_theme_default.c ****     else if(lv_obj_check_type(obj, &lv_btn_class)) {
 647:Middlewares/lvgl/src/extra/themes/default/lv_theme_default.c ****         lv_obj_add_style(obj, &styles->btn, 0);
 648:Middlewares/lvgl/src/extra/themes/default/lv_theme_default.c ****         lv_obj_add_style(obj, &styles->bg_color_primary, 0);
 649:Middlewares/lvgl/src/extra/themes/default/lv_theme_default.c ****         lv_obj_add_style(obj, &styles->transition_delayed, 0);
 650:Middlewares/lvgl/src/extra/themes/default/lv_theme_default.c ****         lv_obj_add_style(obj, &styles->pressed, LV_STATE_PRESSED);
 651:Middlewares/lvgl/src/extra/themes/default/lv_theme_default.c ****         lv_obj_add_style(obj, &styles->transition_normal, LV_STATE_PRESSED);
 652:Middlewares/lvgl/src/extra/themes/default/lv_theme_default.c ****         lv_obj_add_style(obj, &styles->outline_primary, LV_STATE_FOCUS_KEY);
 653:Middlewares/lvgl/src/extra/themes/default/lv_theme_default.c **** #if LV_THEME_DEFAULT_GROW
 654:Middlewares/lvgl/src/extra/themes/default/lv_theme_default.c ****         lv_obj_add_style(obj, &styles->grow, LV_STATE_PRESSED);
 655:Middlewares/lvgl/src/extra/themes/default/lv_theme_default.c **** #endif
 656:Middlewares/lvgl/src/extra/themes/default/lv_theme_default.c ****         lv_obj_add_style(obj, &styles->bg_color_secondary, LV_STATE_CHECKED);
 657:Middlewares/lvgl/src/extra/themes/default/lv_theme_default.c ****         lv_obj_add_style(obj, &styles->disabled, LV_STATE_DISABLED);
 658:Middlewares/lvgl/src/extra/themes/default/lv_theme_default.c ****     }
 659:Middlewares/lvgl/src/extra/themes/default/lv_theme_default.c **** #endif
 660:Middlewares/lvgl/src/extra/themes/default/lv_theme_default.c **** 
 661:Middlewares/lvgl/src/extra/themes/default/lv_theme_default.c **** #if LV_USE_LINE
 662:Middlewares/lvgl/src/extra/themes/default/lv_theme_default.c ****     else if(lv_obj_check_type(obj, &lv_line_class)) {
 663:Middlewares/lvgl/src/extra/themes/default/lv_theme_default.c ****         lv_obj_add_style(obj, &styles->line, 0);
 664:Middlewares/lvgl/src/extra/themes/default/lv_theme_default.c ****     }
ARM GAS  /tmp/ccvS2HVy.s 			page 14


 665:Middlewares/lvgl/src/extra/themes/default/lv_theme_default.c **** #endif
 666:Middlewares/lvgl/src/extra/themes/default/lv_theme_default.c **** 
 667:Middlewares/lvgl/src/extra/themes/default/lv_theme_default.c **** #if LV_USE_BTNMATRIX
 668:Middlewares/lvgl/src/extra/themes/default/lv_theme_default.c ****     else if(lv_obj_check_type(obj, &lv_btnmatrix_class)) {
 669:Middlewares/lvgl/src/extra/themes/default/lv_theme_default.c **** #if LV_USE_MSGBOX
 670:Middlewares/lvgl/src/extra/themes/default/lv_theme_default.c ****         if(lv_obj_check_type(lv_obj_get_parent(obj), &lv_msgbox_class)) {
 671:Middlewares/lvgl/src/extra/themes/default/lv_theme_default.c ****             lv_obj_add_style(obj, &styles->msgbox_btn_bg, 0);
 672:Middlewares/lvgl/src/extra/themes/default/lv_theme_default.c ****             lv_obj_add_style(obj, &styles->pad_gap, 0);
 673:Middlewares/lvgl/src/extra/themes/default/lv_theme_default.c ****             lv_obj_add_style(obj, &styles->btn, LV_PART_ITEMS);
 674:Middlewares/lvgl/src/extra/themes/default/lv_theme_default.c ****             lv_obj_add_style(obj, &styles->pressed, LV_PART_ITEMS | LV_STATE_PRESSED);
 675:Middlewares/lvgl/src/extra/themes/default/lv_theme_default.c ****             lv_obj_add_style(obj, &styles->disabled, LV_PART_ITEMS | LV_STATE_DISABLED);
 676:Middlewares/lvgl/src/extra/themes/default/lv_theme_default.c ****             lv_obj_add_style(obj, &styles->bg_color_primary, LV_PART_ITEMS | LV_STATE_CHECKED);
 677:Middlewares/lvgl/src/extra/themes/default/lv_theme_default.c ****             lv_obj_add_style(obj, &styles->bg_color_primary_muted, LV_PART_ITEMS | LV_STATE_FOCUS_K
 678:Middlewares/lvgl/src/extra/themes/default/lv_theme_default.c ****             lv_obj_add_style(obj, &styles->bg_color_secondary_muted, LV_PART_ITEMS | LV_STATE_EDITE
 679:Middlewares/lvgl/src/extra/themes/default/lv_theme_default.c ****             return;
 680:Middlewares/lvgl/src/extra/themes/default/lv_theme_default.c ****         }
 681:Middlewares/lvgl/src/extra/themes/default/lv_theme_default.c **** #endif
 682:Middlewares/lvgl/src/extra/themes/default/lv_theme_default.c **** #if LV_USE_TABVIEW
 683:Middlewares/lvgl/src/extra/themes/default/lv_theme_default.c ****         if(lv_obj_check_type(lv_obj_get_parent(obj), &lv_tabview_class)) {
 684:Middlewares/lvgl/src/extra/themes/default/lv_theme_default.c ****             lv_obj_add_style(obj, &styles->bg_color_white, 0);
 685:Middlewares/lvgl/src/extra/themes/default/lv_theme_default.c ****             lv_obj_add_style(obj, &styles->outline_primary, LV_STATE_FOCUS_KEY);
 686:Middlewares/lvgl/src/extra/themes/default/lv_theme_default.c ****             lv_obj_add_style(obj, &styles->tab_bg_focus, LV_STATE_FOCUS_KEY);
 687:Middlewares/lvgl/src/extra/themes/default/lv_theme_default.c ****             lv_obj_add_style(obj, &styles->pressed, LV_PART_ITEMS | LV_STATE_PRESSED);
 688:Middlewares/lvgl/src/extra/themes/default/lv_theme_default.c ****             lv_obj_add_style(obj, &styles->bg_color_primary_muted, LV_PART_ITEMS | LV_STATE_CHECKED
 689:Middlewares/lvgl/src/extra/themes/default/lv_theme_default.c ****             lv_obj_add_style(obj, &styles->tab_btn, LV_PART_ITEMS | LV_STATE_CHECKED);
 690:Middlewares/lvgl/src/extra/themes/default/lv_theme_default.c ****             lv_obj_add_style(obj, &styles->outline_primary, LV_PART_ITEMS | LV_STATE_FOCUS_KEY);
 691:Middlewares/lvgl/src/extra/themes/default/lv_theme_default.c ****             lv_obj_add_style(obj, &styles->outline_secondary, LV_PART_ITEMS | LV_STATE_EDITED);
 692:Middlewares/lvgl/src/extra/themes/default/lv_theme_default.c ****             lv_obj_add_style(obj, &styles->tab_bg_focus, LV_PART_ITEMS | LV_STATE_FOCUS_KEY);
 693:Middlewares/lvgl/src/extra/themes/default/lv_theme_default.c ****             return;
 694:Middlewares/lvgl/src/extra/themes/default/lv_theme_default.c ****         }
 695:Middlewares/lvgl/src/extra/themes/default/lv_theme_default.c **** #endif
 696:Middlewares/lvgl/src/extra/themes/default/lv_theme_default.c ****         lv_obj_add_style(obj, &styles->card, 0);
 697:Middlewares/lvgl/src/extra/themes/default/lv_theme_default.c ****         lv_obj_add_style(obj, &styles->outline_primary, LV_STATE_FOCUS_KEY);
 698:Middlewares/lvgl/src/extra/themes/default/lv_theme_default.c ****         lv_obj_add_style(obj, &styles->outline_secondary, LV_STATE_EDITED);
 699:Middlewares/lvgl/src/extra/themes/default/lv_theme_default.c ****         lv_obj_add_style(obj, &styles->btn, LV_PART_ITEMS);
 700:Middlewares/lvgl/src/extra/themes/default/lv_theme_default.c ****         lv_obj_add_style(obj, &styles->disabled, LV_PART_ITEMS | LV_STATE_DISABLED);
 701:Middlewares/lvgl/src/extra/themes/default/lv_theme_default.c ****         lv_obj_add_style(obj, &styles->pressed, LV_PART_ITEMS | LV_STATE_PRESSED);
 702:Middlewares/lvgl/src/extra/themes/default/lv_theme_default.c ****         lv_obj_add_style(obj, &styles->bg_color_primary, LV_PART_ITEMS | LV_STATE_CHECKED);
 703:Middlewares/lvgl/src/extra/themes/default/lv_theme_default.c ****         lv_obj_add_style(obj, &styles->outline_primary, LV_PART_ITEMS | LV_STATE_FOCUS_KEY);
 704:Middlewares/lvgl/src/extra/themes/default/lv_theme_default.c ****         lv_obj_add_style(obj, &styles->outline_secondary, LV_PART_ITEMS | LV_STATE_EDITED);
 705:Middlewares/lvgl/src/extra/themes/default/lv_theme_default.c ****     }
 706:Middlewares/lvgl/src/extra/themes/default/lv_theme_default.c **** #endif
 707:Middlewares/lvgl/src/extra/themes/default/lv_theme_default.c **** 
 708:Middlewares/lvgl/src/extra/themes/default/lv_theme_default.c **** #if LV_USE_BAR
 709:Middlewares/lvgl/src/extra/themes/default/lv_theme_default.c ****     else if(lv_obj_check_type(obj, &lv_bar_class)) {
 710:Middlewares/lvgl/src/extra/themes/default/lv_theme_default.c ****         lv_obj_add_style(obj, &styles->bg_color_primary_muted, 0);
 711:Middlewares/lvgl/src/extra/themes/default/lv_theme_default.c ****         lv_obj_add_style(obj, &styles->circle, 0);
 712:Middlewares/lvgl/src/extra/themes/default/lv_theme_default.c ****         lv_obj_add_style(obj, &styles->outline_primary, LV_STATE_FOCUS_KEY);
 713:Middlewares/lvgl/src/extra/themes/default/lv_theme_default.c ****         lv_obj_add_style(obj, &styles->outline_secondary, LV_STATE_EDITED);
 714:Middlewares/lvgl/src/extra/themes/default/lv_theme_default.c ****         lv_obj_add_style(obj, &styles->bg_color_primary, LV_PART_INDICATOR);
 715:Middlewares/lvgl/src/extra/themes/default/lv_theme_default.c ****         lv_obj_add_style(obj, &styles->circle, LV_PART_INDICATOR);
 716:Middlewares/lvgl/src/extra/themes/default/lv_theme_default.c ****     }
 717:Middlewares/lvgl/src/extra/themes/default/lv_theme_default.c **** #endif
 718:Middlewares/lvgl/src/extra/themes/default/lv_theme_default.c **** 
 719:Middlewares/lvgl/src/extra/themes/default/lv_theme_default.c **** #if LV_USE_SLIDER
 720:Middlewares/lvgl/src/extra/themes/default/lv_theme_default.c ****     else if(lv_obj_check_type(obj, &lv_slider_class)) {
 721:Middlewares/lvgl/src/extra/themes/default/lv_theme_default.c ****         lv_obj_add_style(obj, &styles->bg_color_primary_muted, 0);
ARM GAS  /tmp/ccvS2HVy.s 			page 15


 722:Middlewares/lvgl/src/extra/themes/default/lv_theme_default.c ****         lv_obj_add_style(obj, &styles->circle, 0);
 723:Middlewares/lvgl/src/extra/themes/default/lv_theme_default.c ****         lv_obj_add_style(obj, &styles->outline_primary, LV_STATE_FOCUS_KEY);
 724:Middlewares/lvgl/src/extra/themes/default/lv_theme_default.c ****         lv_obj_add_style(obj, &styles->outline_secondary, LV_STATE_EDITED);
 725:Middlewares/lvgl/src/extra/themes/default/lv_theme_default.c ****         lv_obj_add_style(obj, &styles->bg_color_primary, LV_PART_INDICATOR);
 726:Middlewares/lvgl/src/extra/themes/default/lv_theme_default.c ****         lv_obj_add_style(obj, &styles->circle, LV_PART_INDICATOR);
 727:Middlewares/lvgl/src/extra/themes/default/lv_theme_default.c ****         lv_obj_add_style(obj, &styles->knob, LV_PART_KNOB);
 728:Middlewares/lvgl/src/extra/themes/default/lv_theme_default.c **** #if LV_THEME_DEFAULT_GROW
 729:Middlewares/lvgl/src/extra/themes/default/lv_theme_default.c ****         lv_obj_add_style(obj, &styles->grow, LV_PART_KNOB | LV_STATE_PRESSED);
 730:Middlewares/lvgl/src/extra/themes/default/lv_theme_default.c **** #endif
 731:Middlewares/lvgl/src/extra/themes/default/lv_theme_default.c ****         lv_obj_add_style(obj, &styles->transition_delayed, LV_PART_KNOB);
 732:Middlewares/lvgl/src/extra/themes/default/lv_theme_default.c ****         lv_obj_add_style(obj, &styles->transition_normal, LV_PART_KNOB | LV_STATE_PRESSED);
 733:Middlewares/lvgl/src/extra/themes/default/lv_theme_default.c ****     }
 734:Middlewares/lvgl/src/extra/themes/default/lv_theme_default.c **** #endif
 735:Middlewares/lvgl/src/extra/themes/default/lv_theme_default.c **** 
 736:Middlewares/lvgl/src/extra/themes/default/lv_theme_default.c **** #if LV_USE_TABLE
 737:Middlewares/lvgl/src/extra/themes/default/lv_theme_default.c ****     else if(lv_obj_check_type(obj, &lv_table_class)) {
 738:Middlewares/lvgl/src/extra/themes/default/lv_theme_default.c ****         lv_obj_add_style(obj, &styles->card, 0);
 739:Middlewares/lvgl/src/extra/themes/default/lv_theme_default.c ****         lv_obj_add_style(obj, &styles->pad_zero, 0);
 740:Middlewares/lvgl/src/extra/themes/default/lv_theme_default.c ****         lv_obj_add_style(obj, &styles->no_radius, 0);
 741:Middlewares/lvgl/src/extra/themes/default/lv_theme_default.c ****         lv_obj_add_style(obj, &styles->outline_primary, LV_STATE_FOCUS_KEY);
 742:Middlewares/lvgl/src/extra/themes/default/lv_theme_default.c ****         lv_obj_add_style(obj, &styles->outline_secondary, LV_STATE_EDITED);
 743:Middlewares/lvgl/src/extra/themes/default/lv_theme_default.c ****         lv_obj_add_style(obj, &styles->scrollbar, LV_PART_SCROLLBAR);
 744:Middlewares/lvgl/src/extra/themes/default/lv_theme_default.c ****         lv_obj_add_style(obj, &styles->scrollbar_scrolled, LV_PART_SCROLLBAR | LV_STATE_SCROLLED);
 745:Middlewares/lvgl/src/extra/themes/default/lv_theme_default.c ****         lv_obj_add_style(obj, &styles->bg_color_white, LV_PART_ITEMS);
 746:Middlewares/lvgl/src/extra/themes/default/lv_theme_default.c ****         lv_obj_add_style(obj, &styles->table_cell, LV_PART_ITEMS);
 747:Middlewares/lvgl/src/extra/themes/default/lv_theme_default.c ****         lv_obj_add_style(obj, &styles->pad_normal, LV_PART_ITEMS);
 748:Middlewares/lvgl/src/extra/themes/default/lv_theme_default.c ****         lv_obj_add_style(obj, &styles->pressed, LV_PART_ITEMS | LV_STATE_PRESSED);
 749:Middlewares/lvgl/src/extra/themes/default/lv_theme_default.c ****         lv_obj_add_style(obj, &styles->bg_color_primary, LV_PART_ITEMS | LV_STATE_FOCUS_KEY);
 750:Middlewares/lvgl/src/extra/themes/default/lv_theme_default.c ****         lv_obj_add_style(obj, &styles->bg_color_secondary, LV_PART_ITEMS | LV_STATE_EDITED);
 751:Middlewares/lvgl/src/extra/themes/default/lv_theme_default.c ****     }
 752:Middlewares/lvgl/src/extra/themes/default/lv_theme_default.c **** #endif
 753:Middlewares/lvgl/src/extra/themes/default/lv_theme_default.c **** 
 754:Middlewares/lvgl/src/extra/themes/default/lv_theme_default.c **** #if LV_USE_CHECKBOX
 755:Middlewares/lvgl/src/extra/themes/default/lv_theme_default.c ****     else if(lv_obj_check_type(obj, &lv_checkbox_class)) {
 756:Middlewares/lvgl/src/extra/themes/default/lv_theme_default.c ****         lv_obj_add_style(obj, &styles->pad_gap, 0);
 757:Middlewares/lvgl/src/extra/themes/default/lv_theme_default.c ****         lv_obj_add_style(obj, &styles->outline_primary, LV_STATE_FOCUS_KEY);
 758:Middlewares/lvgl/src/extra/themes/default/lv_theme_default.c ****         lv_obj_add_style(obj, &styles->disabled, LV_PART_INDICATOR | LV_STATE_DISABLED);
 759:Middlewares/lvgl/src/extra/themes/default/lv_theme_default.c ****         lv_obj_add_style(obj, &styles->cb_marker, LV_PART_INDICATOR);
 760:Middlewares/lvgl/src/extra/themes/default/lv_theme_default.c ****         lv_obj_add_style(obj, &styles->bg_color_primary, LV_PART_INDICATOR | LV_STATE_CHECKED);
 761:Middlewares/lvgl/src/extra/themes/default/lv_theme_default.c ****         lv_obj_add_style(obj, &styles->cb_marker_checked, LV_PART_INDICATOR | LV_STATE_CHECKED);
 762:Middlewares/lvgl/src/extra/themes/default/lv_theme_default.c ****         lv_obj_add_style(obj, &styles->pressed, LV_PART_INDICATOR | LV_STATE_PRESSED);
 763:Middlewares/lvgl/src/extra/themes/default/lv_theme_default.c **** #if LV_THEME_DEFAULT_GROW
 764:Middlewares/lvgl/src/extra/themes/default/lv_theme_default.c ****         lv_obj_add_style(obj, &styles->grow, LV_PART_INDICATOR | LV_STATE_PRESSED);
 765:Middlewares/lvgl/src/extra/themes/default/lv_theme_default.c **** #endif
 766:Middlewares/lvgl/src/extra/themes/default/lv_theme_default.c ****         lv_obj_add_style(obj, &styles->transition_normal, LV_PART_INDICATOR | LV_STATE_PRESSED);
 767:Middlewares/lvgl/src/extra/themes/default/lv_theme_default.c ****         lv_obj_add_style(obj, &styles->transition_delayed, LV_PART_INDICATOR);
 768:Middlewares/lvgl/src/extra/themes/default/lv_theme_default.c ****     }
 769:Middlewares/lvgl/src/extra/themes/default/lv_theme_default.c **** #endif
 770:Middlewares/lvgl/src/extra/themes/default/lv_theme_default.c **** 
 771:Middlewares/lvgl/src/extra/themes/default/lv_theme_default.c **** #if LV_USE_SWITCH
 772:Middlewares/lvgl/src/extra/themes/default/lv_theme_default.c ****     else if(lv_obj_check_type(obj, &lv_switch_class)) {
 773:Middlewares/lvgl/src/extra/themes/default/lv_theme_default.c ****         lv_obj_add_style(obj, &styles->bg_color_grey, 0);
 774:Middlewares/lvgl/src/extra/themes/default/lv_theme_default.c ****         lv_obj_add_style(obj, &styles->circle, 0);
 775:Middlewares/lvgl/src/extra/themes/default/lv_theme_default.c ****         lv_obj_add_style(obj, &styles->disabled, LV_STATE_DISABLED);
 776:Middlewares/lvgl/src/extra/themes/default/lv_theme_default.c ****         lv_obj_add_style(obj, &styles->outline_primary, LV_STATE_FOCUS_KEY);
 777:Middlewares/lvgl/src/extra/themes/default/lv_theme_default.c ****         lv_obj_add_style(obj, &styles->bg_color_primary, LV_PART_INDICATOR | LV_STATE_CHECKED);
 778:Middlewares/lvgl/src/extra/themes/default/lv_theme_default.c ****         lv_obj_add_style(obj, &styles->circle, LV_PART_INDICATOR);
ARM GAS  /tmp/ccvS2HVy.s 			page 16


 779:Middlewares/lvgl/src/extra/themes/default/lv_theme_default.c ****         lv_obj_add_style(obj, &styles->disabled, LV_PART_INDICATOR | LV_STATE_DISABLED);
 780:Middlewares/lvgl/src/extra/themes/default/lv_theme_default.c ****         lv_obj_add_style(obj, &styles->knob, LV_PART_KNOB);
 781:Middlewares/lvgl/src/extra/themes/default/lv_theme_default.c ****         lv_obj_add_style(obj, &styles->bg_color_white, LV_PART_KNOB);
 782:Middlewares/lvgl/src/extra/themes/default/lv_theme_default.c ****         lv_obj_add_style(obj, &styles->switch_knob, LV_PART_KNOB);
 783:Middlewares/lvgl/src/extra/themes/default/lv_theme_default.c ****         lv_obj_add_style(obj, &styles->disabled, LV_PART_KNOB | LV_STATE_DISABLED);
 784:Middlewares/lvgl/src/extra/themes/default/lv_theme_default.c ****     }
 785:Middlewares/lvgl/src/extra/themes/default/lv_theme_default.c **** #endif
 786:Middlewares/lvgl/src/extra/themes/default/lv_theme_default.c **** 
 787:Middlewares/lvgl/src/extra/themes/default/lv_theme_default.c **** #if LV_USE_CHART
 788:Middlewares/lvgl/src/extra/themes/default/lv_theme_default.c ****     else if(lv_obj_check_type(obj, &lv_chart_class)) {
 789:Middlewares/lvgl/src/extra/themes/default/lv_theme_default.c ****         lv_obj_add_style(obj, &styles->card, 0);
 790:Middlewares/lvgl/src/extra/themes/default/lv_theme_default.c ****         lv_obj_add_style(obj, &styles->pad_small, 0);
 791:Middlewares/lvgl/src/extra/themes/default/lv_theme_default.c ****         lv_obj_add_style(obj, &styles->chart_bg, 0);
 792:Middlewares/lvgl/src/extra/themes/default/lv_theme_default.c ****         lv_obj_add_style(obj, &styles->scrollbar, LV_PART_SCROLLBAR);
 793:Middlewares/lvgl/src/extra/themes/default/lv_theme_default.c ****         lv_obj_add_style(obj, &styles->scrollbar_scrolled, LV_PART_SCROLLBAR | LV_STATE_SCROLLED);
 794:Middlewares/lvgl/src/extra/themes/default/lv_theme_default.c ****         lv_obj_add_style(obj, &styles->chart_series, LV_PART_ITEMS);
 795:Middlewares/lvgl/src/extra/themes/default/lv_theme_default.c ****         lv_obj_add_style(obj, &styles->chart_indic, LV_PART_INDICATOR);
 796:Middlewares/lvgl/src/extra/themes/default/lv_theme_default.c ****         lv_obj_add_style(obj, &styles->chart_ticks, LV_PART_TICKS);
 797:Middlewares/lvgl/src/extra/themes/default/lv_theme_default.c ****         lv_obj_add_style(obj, &styles->chart_series, LV_PART_CURSOR);
 798:Middlewares/lvgl/src/extra/themes/default/lv_theme_default.c ****     }
 799:Middlewares/lvgl/src/extra/themes/default/lv_theme_default.c **** #endif
 800:Middlewares/lvgl/src/extra/themes/default/lv_theme_default.c **** 
 801:Middlewares/lvgl/src/extra/themes/default/lv_theme_default.c **** #if LV_USE_ROLLER
 802:Middlewares/lvgl/src/extra/themes/default/lv_theme_default.c ****     else if(lv_obj_check_type(obj, &lv_roller_class)) {
 803:Middlewares/lvgl/src/extra/themes/default/lv_theme_default.c ****         lv_obj_add_style(obj, &styles->card, 0);
 804:Middlewares/lvgl/src/extra/themes/default/lv_theme_default.c ****         lv_obj_add_style(obj, &styles->anim, 0);
 805:Middlewares/lvgl/src/extra/themes/default/lv_theme_default.c ****         lv_obj_add_style(obj, &styles->line_space_large, 0);
 806:Middlewares/lvgl/src/extra/themes/default/lv_theme_default.c ****         lv_obj_add_style(obj, &styles->text_align_center, 0);
 807:Middlewares/lvgl/src/extra/themes/default/lv_theme_default.c ****         lv_obj_add_style(obj, &styles->outline_primary, LV_STATE_FOCUS_KEY);
 808:Middlewares/lvgl/src/extra/themes/default/lv_theme_default.c ****         lv_obj_add_style(obj, &styles->outline_secondary, LV_STATE_EDITED);
 809:Middlewares/lvgl/src/extra/themes/default/lv_theme_default.c ****         lv_obj_add_style(obj, &styles->bg_color_primary, LV_PART_SELECTED);
 810:Middlewares/lvgl/src/extra/themes/default/lv_theme_default.c ****     }
 811:Middlewares/lvgl/src/extra/themes/default/lv_theme_default.c **** #endif
 812:Middlewares/lvgl/src/extra/themes/default/lv_theme_default.c **** 
 813:Middlewares/lvgl/src/extra/themes/default/lv_theme_default.c **** #if LV_USE_DROPDOWN
 814:Middlewares/lvgl/src/extra/themes/default/lv_theme_default.c ****     else if(lv_obj_check_type(obj, &lv_dropdown_class)) {
 815:Middlewares/lvgl/src/extra/themes/default/lv_theme_default.c ****         lv_obj_add_style(obj, &styles->card, 0);
 816:Middlewares/lvgl/src/extra/themes/default/lv_theme_default.c ****         lv_obj_add_style(obj, &styles->pad_small, 0);
 817:Middlewares/lvgl/src/extra/themes/default/lv_theme_default.c ****         lv_obj_add_style(obj, &styles->transition_delayed, 0);
 818:Middlewares/lvgl/src/extra/themes/default/lv_theme_default.c ****         lv_obj_add_style(obj, &styles->transition_normal, LV_STATE_PRESSED);
 819:Middlewares/lvgl/src/extra/themes/default/lv_theme_default.c ****         lv_obj_add_style(obj, &styles->pressed, LV_STATE_PRESSED);
 820:Middlewares/lvgl/src/extra/themes/default/lv_theme_default.c ****         lv_obj_add_style(obj, &styles->outline_primary, LV_STATE_FOCUS_KEY);
 821:Middlewares/lvgl/src/extra/themes/default/lv_theme_default.c ****         lv_obj_add_style(obj, &styles->outline_secondary, LV_STATE_EDITED);
 822:Middlewares/lvgl/src/extra/themes/default/lv_theme_default.c ****         lv_obj_add_style(obj, &styles->transition_normal, LV_PART_INDICATOR);
 823:Middlewares/lvgl/src/extra/themes/default/lv_theme_default.c ****     }
 824:Middlewares/lvgl/src/extra/themes/default/lv_theme_default.c ****     else if(lv_obj_check_type(obj, &lv_dropdownlist_class)) {
 825:Middlewares/lvgl/src/extra/themes/default/lv_theme_default.c ****         lv_obj_add_style(obj, &styles->card, 0);
 826:Middlewares/lvgl/src/extra/themes/default/lv_theme_default.c ****         lv_obj_add_style(obj, &styles->clip_corner, 0);
 827:Middlewares/lvgl/src/extra/themes/default/lv_theme_default.c ****         lv_obj_add_style(obj, &styles->line_space_large, 0);
 828:Middlewares/lvgl/src/extra/themes/default/lv_theme_default.c ****         lv_obj_add_style(obj, &styles->dropdown_list, 0);
 829:Middlewares/lvgl/src/extra/themes/default/lv_theme_default.c ****         lv_obj_add_style(obj, &styles->scrollbar, LV_PART_SCROLLBAR);
 830:Middlewares/lvgl/src/extra/themes/default/lv_theme_default.c ****         lv_obj_add_style(obj, &styles->scrollbar_scrolled, LV_PART_SCROLLBAR | LV_STATE_SCROLLED);
 831:Middlewares/lvgl/src/extra/themes/default/lv_theme_default.c ****         lv_obj_add_style(obj, &styles->bg_color_white, LV_PART_SELECTED);
 832:Middlewares/lvgl/src/extra/themes/default/lv_theme_default.c ****         lv_obj_add_style(obj, &styles->bg_color_primary, LV_PART_SELECTED | LV_STATE_CHECKED);
 833:Middlewares/lvgl/src/extra/themes/default/lv_theme_default.c ****         lv_obj_add_style(obj, &styles->pressed, LV_PART_SELECTED | LV_STATE_PRESSED);
 834:Middlewares/lvgl/src/extra/themes/default/lv_theme_default.c ****     }
 835:Middlewares/lvgl/src/extra/themes/default/lv_theme_default.c **** #endif
ARM GAS  /tmp/ccvS2HVy.s 			page 17


 836:Middlewares/lvgl/src/extra/themes/default/lv_theme_default.c **** 
 837:Middlewares/lvgl/src/extra/themes/default/lv_theme_default.c **** #if LV_USE_ARC
 838:Middlewares/lvgl/src/extra/themes/default/lv_theme_default.c ****     else if(lv_obj_check_type(obj, &lv_arc_class)) {
 839:Middlewares/lvgl/src/extra/themes/default/lv_theme_default.c ****         lv_obj_add_style(obj, &styles->arc_indic, 0);
 840:Middlewares/lvgl/src/extra/themes/default/lv_theme_default.c ****         lv_obj_add_style(obj, &styles->arc_indic, LV_PART_INDICATOR);
 841:Middlewares/lvgl/src/extra/themes/default/lv_theme_default.c ****         lv_obj_add_style(obj, &styles->arc_indic_primary, LV_PART_INDICATOR);
 842:Middlewares/lvgl/src/extra/themes/default/lv_theme_default.c ****         lv_obj_add_style(obj, &styles->knob, LV_PART_KNOB);
 843:Middlewares/lvgl/src/extra/themes/default/lv_theme_default.c ****     }
 844:Middlewares/lvgl/src/extra/themes/default/lv_theme_default.c **** #endif
 845:Middlewares/lvgl/src/extra/themes/default/lv_theme_default.c **** 
 846:Middlewares/lvgl/src/extra/themes/default/lv_theme_default.c **** #if LV_USE_METER
 847:Middlewares/lvgl/src/extra/themes/default/lv_theme_default.c ****     else if(lv_obj_check_type(obj, &lv_meter_class)) {
 848:Middlewares/lvgl/src/extra/themes/default/lv_theme_default.c ****         lv_obj_add_style(obj, &styles->card, 0);
 849:Middlewares/lvgl/src/extra/themes/default/lv_theme_default.c ****         lv_obj_add_style(obj, &styles->circle, 0);
 850:Middlewares/lvgl/src/extra/themes/default/lv_theme_default.c ****         lv_obj_add_style(obj, &styles->meter_indic, LV_PART_INDICATOR);
 851:Middlewares/lvgl/src/extra/themes/default/lv_theme_default.c ****     }
 852:Middlewares/lvgl/src/extra/themes/default/lv_theme_default.c **** #endif
 853:Middlewares/lvgl/src/extra/themes/default/lv_theme_default.c **** 
 854:Middlewares/lvgl/src/extra/themes/default/lv_theme_default.c **** #if LV_USE_TEXTAREA
 855:Middlewares/lvgl/src/extra/themes/default/lv_theme_default.c ****     else if(lv_obj_check_type(obj, &lv_textarea_class)) {
 856:Middlewares/lvgl/src/extra/themes/default/lv_theme_default.c ****         lv_obj_add_style(obj, &styles->card, 0);
 857:Middlewares/lvgl/src/extra/themes/default/lv_theme_default.c ****         lv_obj_add_style(obj, &styles->pad_small, 0);
 858:Middlewares/lvgl/src/extra/themes/default/lv_theme_default.c ****         lv_obj_add_style(obj, &styles->outline_primary, LV_STATE_FOCUS_KEY);
 859:Middlewares/lvgl/src/extra/themes/default/lv_theme_default.c ****         lv_obj_add_style(obj, &styles->outline_secondary, LV_STATE_EDITED);
 860:Middlewares/lvgl/src/extra/themes/default/lv_theme_default.c ****         lv_obj_add_style(obj, &styles->scrollbar, LV_PART_SCROLLBAR);
 861:Middlewares/lvgl/src/extra/themes/default/lv_theme_default.c ****         lv_obj_add_style(obj, &styles->scrollbar_scrolled, LV_PART_SCROLLBAR | LV_STATE_SCROLLED);
 862:Middlewares/lvgl/src/extra/themes/default/lv_theme_default.c ****         lv_obj_add_style(obj, &styles->ta_cursor, LV_PART_CURSOR | LV_STATE_FOCUSED);
 863:Middlewares/lvgl/src/extra/themes/default/lv_theme_default.c ****         lv_obj_add_style(obj, &styles->ta_placeholder, LV_PART_TEXTAREA_PLACEHOLDER);
 864:Middlewares/lvgl/src/extra/themes/default/lv_theme_default.c ****     }
 865:Middlewares/lvgl/src/extra/themes/default/lv_theme_default.c **** #endif
 866:Middlewares/lvgl/src/extra/themes/default/lv_theme_default.c **** 
 867:Middlewares/lvgl/src/extra/themes/default/lv_theme_default.c **** #if LV_USE_CALENDAR
 868:Middlewares/lvgl/src/extra/themes/default/lv_theme_default.c ****     else if(lv_obj_check_type(obj, &lv_calendar_class)) {
 869:Middlewares/lvgl/src/extra/themes/default/lv_theme_default.c ****         lv_obj_add_style(obj, &styles->card, 0);
 870:Middlewares/lvgl/src/extra/themes/default/lv_theme_default.c ****         lv_obj_add_style(obj, &styles->calendar_bg, 0);
 871:Middlewares/lvgl/src/extra/themes/default/lv_theme_default.c ****         lv_obj_add_style(obj, &styles->outline_primary, LV_STATE_FOCUS_KEY);
 872:Middlewares/lvgl/src/extra/themes/default/lv_theme_default.c ****         lv_obj_add_style(obj, &styles->outline_secondary, LV_STATE_EDITED);
 873:Middlewares/lvgl/src/extra/themes/default/lv_theme_default.c ****         lv_obj_add_style(obj, &styles->calendar_day, LV_PART_ITEMS);
 874:Middlewares/lvgl/src/extra/themes/default/lv_theme_default.c ****         lv_obj_add_style(obj, &styles->pressed, LV_PART_ITEMS | LV_STATE_PRESSED);
 875:Middlewares/lvgl/src/extra/themes/default/lv_theme_default.c ****         lv_obj_add_style(obj, &styles->disabled, LV_PART_ITEMS | LV_STATE_DISABLED);
 876:Middlewares/lvgl/src/extra/themes/default/lv_theme_default.c ****         lv_obj_add_style(obj, &styles->outline_primary, LV_PART_ITEMS | LV_STATE_FOCUS_KEY);
 877:Middlewares/lvgl/src/extra/themes/default/lv_theme_default.c ****         lv_obj_add_style(obj, &styles->outline_secondary, LV_PART_ITEMS | LV_STATE_EDITED);
 878:Middlewares/lvgl/src/extra/themes/default/lv_theme_default.c ****     }
 879:Middlewares/lvgl/src/extra/themes/default/lv_theme_default.c **** #endif
 880:Middlewares/lvgl/src/extra/themes/default/lv_theme_default.c **** 
 881:Middlewares/lvgl/src/extra/themes/default/lv_theme_default.c **** #if LV_USE_KEYBOARD
 882:Middlewares/lvgl/src/extra/themes/default/lv_theme_default.c ****     else if(lv_obj_check_type(obj, &lv_keyboard_class)) {
 883:Middlewares/lvgl/src/extra/themes/default/lv_theme_default.c ****         lv_obj_add_style(obj, &styles->scr, 0);
 884:Middlewares/lvgl/src/extra/themes/default/lv_theme_default.c ****         lv_obj_add_style(obj, disp_size == DISP_LARGE ? &styles->pad_small : &styles->pad_tiny, 0);
 885:Middlewares/lvgl/src/extra/themes/default/lv_theme_default.c ****         lv_obj_add_style(obj, &styles->outline_primary, LV_STATE_FOCUS_KEY);
 886:Middlewares/lvgl/src/extra/themes/default/lv_theme_default.c ****         lv_obj_add_style(obj, &styles->outline_secondary, LV_STATE_EDITED);
 887:Middlewares/lvgl/src/extra/themes/default/lv_theme_default.c ****         lv_obj_add_style(obj, &styles->btn, LV_PART_ITEMS);
 888:Middlewares/lvgl/src/extra/themes/default/lv_theme_default.c ****         lv_obj_add_style(obj, &styles->disabled, LV_PART_ITEMS | LV_STATE_DISABLED);
 889:Middlewares/lvgl/src/extra/themes/default/lv_theme_default.c ****         lv_obj_add_style(obj, &styles->bg_color_white, LV_PART_ITEMS);
 890:Middlewares/lvgl/src/extra/themes/default/lv_theme_default.c ****         lv_obj_add_style(obj, &styles->keyboard_btn_bg, LV_PART_ITEMS);
 891:Middlewares/lvgl/src/extra/themes/default/lv_theme_default.c ****         lv_obj_add_style(obj, &styles->pressed, LV_PART_ITEMS | LV_STATE_PRESSED);
 892:Middlewares/lvgl/src/extra/themes/default/lv_theme_default.c ****         lv_obj_add_style(obj, &styles->bg_color_grey, LV_PART_ITEMS | LV_STATE_CHECKED);
ARM GAS  /tmp/ccvS2HVy.s 			page 18


 893:Middlewares/lvgl/src/extra/themes/default/lv_theme_default.c ****         lv_obj_add_style(obj, &styles->outline_primary, LV_PART_ITEMS | LV_STATE_FOCUS_KEY);
 894:Middlewares/lvgl/src/extra/themes/default/lv_theme_default.c ****         lv_obj_add_style(obj, &styles->outline_secondary, LV_PART_ITEMS | LV_STATE_EDITED);
 895:Middlewares/lvgl/src/extra/themes/default/lv_theme_default.c ****     }
 896:Middlewares/lvgl/src/extra/themes/default/lv_theme_default.c **** #endif
 897:Middlewares/lvgl/src/extra/themes/default/lv_theme_default.c **** #if LV_USE_LIST
 898:Middlewares/lvgl/src/extra/themes/default/lv_theme_default.c ****     else if(lv_obj_check_type(obj, &lv_list_class)) {
 899:Middlewares/lvgl/src/extra/themes/default/lv_theme_default.c ****         lv_obj_add_style(obj, &styles->card, 0);
 900:Middlewares/lvgl/src/extra/themes/default/lv_theme_default.c ****         lv_obj_add_style(obj, &styles->list_bg, 0);
 901:Middlewares/lvgl/src/extra/themes/default/lv_theme_default.c ****         lv_obj_add_style(obj, &styles->scrollbar, LV_PART_SCROLLBAR);
 902:Middlewares/lvgl/src/extra/themes/default/lv_theme_default.c ****         lv_obj_add_style(obj, &styles->scrollbar_scrolled, LV_PART_SCROLLBAR | LV_STATE_SCROLLED);
 903:Middlewares/lvgl/src/extra/themes/default/lv_theme_default.c ****         return;
 904:Middlewares/lvgl/src/extra/themes/default/lv_theme_default.c ****     }
 905:Middlewares/lvgl/src/extra/themes/default/lv_theme_default.c ****     else if(lv_obj_check_type(obj, &lv_list_text_class)) {
 906:Middlewares/lvgl/src/extra/themes/default/lv_theme_default.c ****         lv_obj_add_style(obj, &styles->bg_color_grey, 0);
 907:Middlewares/lvgl/src/extra/themes/default/lv_theme_default.c ****         lv_obj_add_style(obj, &styles->list_item_grow, 0);
 908:Middlewares/lvgl/src/extra/themes/default/lv_theme_default.c ****     }
 909:Middlewares/lvgl/src/extra/themes/default/lv_theme_default.c ****     else if(lv_obj_check_type(obj, &lv_list_btn_class)) {
 910:Middlewares/lvgl/src/extra/themes/default/lv_theme_default.c ****         lv_obj_add_style(obj, &styles->bg_color_white, 0);
 911:Middlewares/lvgl/src/extra/themes/default/lv_theme_default.c ****         lv_obj_add_style(obj, &styles->list_btn, 0);
 912:Middlewares/lvgl/src/extra/themes/default/lv_theme_default.c ****         lv_obj_add_style(obj, &styles->bg_color_primary, LV_STATE_FOCUS_KEY);
 913:Middlewares/lvgl/src/extra/themes/default/lv_theme_default.c ****         lv_obj_add_style(obj, &styles->list_item_grow, LV_STATE_FOCUS_KEY);
 914:Middlewares/lvgl/src/extra/themes/default/lv_theme_default.c ****         lv_obj_add_style(obj, &styles->list_item_grow, LV_STATE_PRESSED);
 915:Middlewares/lvgl/src/extra/themes/default/lv_theme_default.c ****         lv_obj_add_style(obj, &styles->pressed, LV_STATE_PRESSED);
 916:Middlewares/lvgl/src/extra/themes/default/lv_theme_default.c **** 
 917:Middlewares/lvgl/src/extra/themes/default/lv_theme_default.c ****     }
 918:Middlewares/lvgl/src/extra/themes/default/lv_theme_default.c **** #endif
 919:Middlewares/lvgl/src/extra/themes/default/lv_theme_default.c **** #if LV_USE_MSGBOX
 920:Middlewares/lvgl/src/extra/themes/default/lv_theme_default.c ****     else if(lv_obj_check_type(obj, &lv_msgbox_class)) {
 921:Middlewares/lvgl/src/extra/themes/default/lv_theme_default.c ****         lv_obj_add_style(obj, &styles->card, 0);
 922:Middlewares/lvgl/src/extra/themes/default/lv_theme_default.c ****         lv_obj_add_style(obj, &styles->msgbox_bg, 0);
 923:Middlewares/lvgl/src/extra/themes/default/lv_theme_default.c ****         return;
 924:Middlewares/lvgl/src/extra/themes/default/lv_theme_default.c ****     }
 925:Middlewares/lvgl/src/extra/themes/default/lv_theme_default.c **** #endif
 926:Middlewares/lvgl/src/extra/themes/default/lv_theme_default.c **** #if LV_USE_SPINBOX
 927:Middlewares/lvgl/src/extra/themes/default/lv_theme_default.c ****     else if(lv_obj_check_type(obj, &lv_spinbox_class)) {
 928:Middlewares/lvgl/src/extra/themes/default/lv_theme_default.c ****         lv_obj_add_style(obj, &styles->card, 0);
 929:Middlewares/lvgl/src/extra/themes/default/lv_theme_default.c ****         lv_obj_add_style(obj, &styles->pad_small, 0);
 930:Middlewares/lvgl/src/extra/themes/default/lv_theme_default.c ****         lv_obj_add_style(obj, &styles->outline_primary, LV_STATE_FOCUS_KEY);
 931:Middlewares/lvgl/src/extra/themes/default/lv_theme_default.c ****         lv_obj_add_style(obj, &styles->outline_secondary, LV_STATE_EDITED);
 932:Middlewares/lvgl/src/extra/themes/default/lv_theme_default.c ****         lv_obj_add_style(obj, &styles->bg_color_primary, LV_PART_CURSOR);
 933:Middlewares/lvgl/src/extra/themes/default/lv_theme_default.c ****     }
 934:Middlewares/lvgl/src/extra/themes/default/lv_theme_default.c **** #endif
 935:Middlewares/lvgl/src/extra/themes/default/lv_theme_default.c **** #if LV_USE_TILEVIEW
 936:Middlewares/lvgl/src/extra/themes/default/lv_theme_default.c ****     else if(lv_obj_check_type(obj, &lv_tileview_class)) {
 937:Middlewares/lvgl/src/extra/themes/default/lv_theme_default.c ****         lv_obj_add_style(obj, &styles->scr, 0);
 938:Middlewares/lvgl/src/extra/themes/default/lv_theme_default.c ****         lv_obj_add_style(obj, &styles->scrollbar, LV_PART_SCROLLBAR);
 939:Middlewares/lvgl/src/extra/themes/default/lv_theme_default.c ****         lv_obj_add_style(obj, &styles->scrollbar_scrolled, LV_PART_SCROLLBAR | LV_STATE_SCROLLED);
 940:Middlewares/lvgl/src/extra/themes/default/lv_theme_default.c ****     }
 941:Middlewares/lvgl/src/extra/themes/default/lv_theme_default.c ****     else if(lv_obj_check_type(obj, &lv_tileview_tile_class)) {
 942:Middlewares/lvgl/src/extra/themes/default/lv_theme_default.c ****         lv_obj_add_style(obj, &styles->scrollbar, LV_PART_SCROLLBAR);
 943:Middlewares/lvgl/src/extra/themes/default/lv_theme_default.c ****         lv_obj_add_style(obj, &styles->scrollbar_scrolled, LV_PART_SCROLLBAR | LV_STATE_SCROLLED);
 944:Middlewares/lvgl/src/extra/themes/default/lv_theme_default.c ****     }
 945:Middlewares/lvgl/src/extra/themes/default/lv_theme_default.c **** #endif
 946:Middlewares/lvgl/src/extra/themes/default/lv_theme_default.c **** 
 947:Middlewares/lvgl/src/extra/themes/default/lv_theme_default.c **** #if LV_USE_TABVIEW
 948:Middlewares/lvgl/src/extra/themes/default/lv_theme_default.c ****     if(lv_obj_check_type(obj, &lv_tabview_class)) {
 949:Middlewares/lvgl/src/extra/themes/default/lv_theme_default.c ****         lv_obj_add_style(obj, &styles->scr, 0);
ARM GAS  /tmp/ccvS2HVy.s 			page 19


 950:Middlewares/lvgl/src/extra/themes/default/lv_theme_default.c ****         lv_obj_add_style(obj, &styles->pad_zero, 0);
 951:Middlewares/lvgl/src/extra/themes/default/lv_theme_default.c ****         return;
 952:Middlewares/lvgl/src/extra/themes/default/lv_theme_default.c ****     }
 953:Middlewares/lvgl/src/extra/themes/default/lv_theme_default.c **** #endif
 954:Middlewares/lvgl/src/extra/themes/default/lv_theme_default.c **** 
 955:Middlewares/lvgl/src/extra/themes/default/lv_theme_default.c **** #if LV_USE_COLORWHEEL
 956:Middlewares/lvgl/src/extra/themes/default/lv_theme_default.c ****     else if(lv_obj_check_type(obj, &lv_colorwheel_class)) {
 957:Middlewares/lvgl/src/extra/themes/default/lv_theme_default.c ****         lv_obj_add_style(obj, &styles->colorwheel_main, 0);
 958:Middlewares/lvgl/src/extra/themes/default/lv_theme_default.c ****         lv_obj_add_style(obj, &styles->pad_normal, 0);
 959:Middlewares/lvgl/src/extra/themes/default/lv_theme_default.c ****         lv_obj_add_style(obj, &styles->bg_color_white, LV_PART_KNOB);
 960:Middlewares/lvgl/src/extra/themes/default/lv_theme_default.c ****         lv_obj_add_style(obj, &styles->pad_normal, LV_PART_KNOB);
 961:Middlewares/lvgl/src/extra/themes/default/lv_theme_default.c ****     }
 962:Middlewares/lvgl/src/extra/themes/default/lv_theme_default.c **** #endif
 963:Middlewares/lvgl/src/extra/themes/default/lv_theme_default.c **** 
 964:Middlewares/lvgl/src/extra/themes/default/lv_theme_default.c **** #if LV_USE_LED
 965:Middlewares/lvgl/src/extra/themes/default/lv_theme_default.c ****     else if(lv_obj_check_type(obj, &lv_led_class)) {
 966:Middlewares/lvgl/src/extra/themes/default/lv_theme_default.c ****             lv_obj_add_style(obj, &styles->led, 0);
 967:Middlewares/lvgl/src/extra/themes/default/lv_theme_default.c ****         }
 968:Middlewares/lvgl/src/extra/themes/default/lv_theme_default.c **** #endif
 969:Middlewares/lvgl/src/extra/themes/default/lv_theme_default.c **** }
  79              		.loc 1 969 1 view .LVU16
  80 002a 70BD     		pop	{r4, r5, r6, pc}
  81              	.LVL8:
  82              	.L39:
 603:Middlewares/lvgl/src/extra/themes/default/lv_theme_default.c ****         lv_obj_add_style(obj, &styles->scrollbar, LV_PART_SCROLLBAR);
  83              		.loc 1 603 9 is_stmt 1 view .LVU17
 603:Middlewares/lvgl/src/extra/themes/default/lv_theme_default.c ****         lv_obj_add_style(obj, &styles->scrollbar, LV_PART_SCROLLBAR);
  84              		.loc 1 603 38 is_stmt 0 view .LVU18
  85 002c A74D     		ldr	r5, .L50+8
 603:Middlewares/lvgl/src/extra/themes/default/lv_theme_default.c ****         lv_obj_add_style(obj, &styles->scrollbar, LV_PART_SCROLLBAR);
  86              		.loc 1 603 9 view .LVU19
  87 002e 0022     		movs	r2, #0
  88 0030 2968     		ldr	r1, [r5]
  89 0032 2046     		mov	r0, r4
  90 0034 FFF7FEFF 		bl	lv_obj_add_style
  91              	.LVL9:
 604:Middlewares/lvgl/src/extra/themes/default/lv_theme_default.c ****         lv_obj_add_style(obj, &styles->scrollbar_scrolled, LV_PART_SCROLLBAR | LV_STATE_SCROLLED);
  92              		.loc 1 604 9 is_stmt 1 view .LVU20
 604:Middlewares/lvgl/src/extra/themes/default/lv_theme_default.c ****         lv_obj_add_style(obj, &styles->scrollbar_scrolled, LV_PART_SCROLLBAR | LV_STATE_SCROLLED);
  93              		.loc 1 604 38 is_stmt 0 view .LVU21
  94 0038 2968     		ldr	r1, [r5]
 604:Middlewares/lvgl/src/extra/themes/default/lv_theme_default.c ****         lv_obj_add_style(obj, &styles->scrollbar_scrolled, LV_PART_SCROLLBAR | LV_STATE_SCROLLED);
  95              		.loc 1 604 9 view .LVU22
  96 003a 4FF48032 		mov	r2, #65536
  97 003e 0831     		adds	r1, r1, #8
  98 0040 2046     		mov	r0, r4
  99 0042 FFF7FEFF 		bl	lv_obj_add_style
 100              	.LVL10:
 605:Middlewares/lvgl/src/extra/themes/default/lv_theme_default.c ****         return;
 101              		.loc 1 605 9 is_stmt 1 view .LVU23
 605:Middlewares/lvgl/src/extra/themes/default/lv_theme_default.c ****         return;
 102              		.loc 1 605 38 is_stmt 0 view .LVU24
 103 0046 2968     		ldr	r1, [r5]
 605:Middlewares/lvgl/src/extra/themes/default/lv_theme_default.c ****         return;
 104              		.loc 1 605 9 view .LVU25
 105 0048 A14A     		ldr	r2, .L50+12
 106 004a 1031     		adds	r1, r1, #16
ARM GAS  /tmp/ccvS2HVy.s 			page 20


 107 004c 2046     		mov	r0, r4
 108 004e FFF7FEFF 		bl	lv_obj_add_style
 109              	.LVL11:
 606:Middlewares/lvgl/src/extra/themes/default/lv_theme_default.c ****     }
 110              		.loc 1 606 9 is_stmt 1 view .LVU26
 111 0052 EAE7     		b	.L1
 112              	.LVL12:
 113              	.L40:
 114              	.LBB53:
 617:Middlewares/lvgl/src/extra/themes/default/lv_theme_default.c ****             lv_obj_add_style(obj, &styles->pad_normal, 0);
 115              		.loc 1 617 14 view .LVU27
 617:Middlewares/lvgl/src/extra/themes/default/lv_theme_default.c ****             lv_obj_add_style(obj, &styles->pad_normal, 0);
 116              		.loc 1 617 35 is_stmt 0 view .LVU28
 117 0054 2846     		mov	r0, r5
 118 0056 FFF7FEFF 		bl	lv_obj_get_parent
 119              	.LVL13:
 617:Middlewares/lvgl/src/extra/themes/default/lv_theme_default.c ****             lv_obj_add_style(obj, &styles->pad_normal, 0);
 120              		.loc 1 617 17 view .LVU29
 121 005a 9B49     		ldr	r1, .L50+4
 122 005c FFF7FEFF 		bl	lv_obj_check_type
 123              	.LVL14:
 617:Middlewares/lvgl/src/extra/themes/default/lv_theme_default.c ****             lv_obj_add_style(obj, &styles->pad_normal, 0);
 124              		.loc 1 617 16 view .LVU30
 125 0060 20BB     		cbnz	r0, .L41
 627:Middlewares/lvgl/src/extra/themes/default/lv_theme_default.c ****             lv_obj_add_style(obj, &styles->bg_color_grey, 0);
 126              		.loc 1 627 9 is_stmt 1 view .LVU31
 627:Middlewares/lvgl/src/extra/themes/default/lv_theme_default.c ****             lv_obj_add_style(obj, &styles->bg_color_grey, 0);
 127              		.loc 1 627 12 is_stmt 0 view .LVU32
 128 0062 2046     		mov	r0, r4
 129 0064 FFF7FEFF 		bl	lv_obj_get_child_id
 130              	.LVL15:
 627:Middlewares/lvgl/src/extra/themes/default/lv_theme_default.c ****             lv_obj_add_style(obj, &styles->bg_color_grey, 0);
 131              		.loc 1 627 11 view .LVU33
 132 0068 30B9     		cbnz	r0, .L6
 627:Middlewares/lvgl/src/extra/themes/default/lv_theme_default.c ****             lv_obj_add_style(obj, &styles->bg_color_grey, 0);
 133              		.loc 1 627 63 discriminator 1 view .LVU34
 134 006a 2046     		mov	r0, r4
 135 006c FFF7FEFF 		bl	lv_obj_get_parent
 136              	.LVL16:
 627:Middlewares/lvgl/src/extra/themes/default/lv_theme_default.c ****             lv_obj_add_style(obj, &styles->bg_color_grey, 0);
 137              		.loc 1 627 45 discriminator 1 view .LVU35
 138 0070 9849     		ldr	r1, .L50+16
 139 0072 FFF7FEFF 		bl	lv_obj_check_type
 140              	.LVL17:
 627:Middlewares/lvgl/src/extra/themes/default/lv_theme_default.c ****             lv_obj_add_style(obj, &styles->bg_color_grey, 0);
 141              		.loc 1 627 42 discriminator 1 view .LVU36
 142 0076 70BB     		cbnz	r0, .L42
 143              	.L6:
 633:Middlewares/lvgl/src/extra/themes/default/lv_theme_default.c ****             lv_obj_add_style(obj, &styles->scr, 0);
 144              		.loc 1 633 14 is_stmt 1 view .LVU37
 633:Middlewares/lvgl/src/extra/themes/default/lv_theme_default.c ****             lv_obj_add_style(obj, &styles->scr, 0);
 145              		.loc 1 633 17 is_stmt 0 view .LVU38
 146 0078 2046     		mov	r0, r4
 147 007a FFF7FEFF 		bl	lv_obj_get_child_id
 148              	.LVL18:
 633:Middlewares/lvgl/src/extra/themes/default/lv_theme_default.c ****             lv_obj_add_style(obj, &styles->scr, 0);
 149              		.loc 1 633 16 view .LVU39
ARM GAS  /tmp/ccvS2HVy.s 			page 21


 150 007e 0128     		cmp	r0, #1
 151 0080 37D0     		beq	.L43
 152              	.L7:
 641:Middlewares/lvgl/src/extra/themes/default/lv_theme_default.c ****         lv_obj_add_style(obj, &styles->scrollbar, LV_PART_SCROLLBAR);
 153              		.loc 1 641 9 is_stmt 1 view .LVU40
 641:Middlewares/lvgl/src/extra/themes/default/lv_theme_default.c ****         lv_obj_add_style(obj, &styles->scrollbar, LV_PART_SCROLLBAR);
 154              		.loc 1 641 38 is_stmt 0 view .LVU41
 155 0082 924D     		ldr	r5, .L50+8
 156              	.LVL19:
 641:Middlewares/lvgl/src/extra/themes/default/lv_theme_default.c ****         lv_obj_add_style(obj, &styles->scrollbar, LV_PART_SCROLLBAR);
 157              		.loc 1 641 38 view .LVU42
 158 0084 2968     		ldr	r1, [r5]
 641:Middlewares/lvgl/src/extra/themes/default/lv_theme_default.c ****         lv_obj_add_style(obj, &styles->scrollbar, LV_PART_SCROLLBAR);
 159              		.loc 1 641 9 view .LVU43
 160 0086 0022     		movs	r2, #0
 161 0088 1831     		adds	r1, r1, #24
 162 008a 2046     		mov	r0, r4
 163 008c FFF7FEFF 		bl	lv_obj_add_style
 164              	.LVL20:
 642:Middlewares/lvgl/src/extra/themes/default/lv_theme_default.c ****         lv_obj_add_style(obj, &styles->scrollbar_scrolled, LV_PART_SCROLLBAR | LV_STATE_SCROLLED);
 165              		.loc 1 642 9 is_stmt 1 view .LVU44
 642:Middlewares/lvgl/src/extra/themes/default/lv_theme_default.c ****         lv_obj_add_style(obj, &styles->scrollbar_scrolled, LV_PART_SCROLLBAR | LV_STATE_SCROLLED);
 166              		.loc 1 642 38 is_stmt 0 view .LVU45
 167 0090 2968     		ldr	r1, [r5]
 642:Middlewares/lvgl/src/extra/themes/default/lv_theme_default.c ****         lv_obj_add_style(obj, &styles->scrollbar_scrolled, LV_PART_SCROLLBAR | LV_STATE_SCROLLED);
 168              		.loc 1 642 9 view .LVU46
 169 0092 4FF48032 		mov	r2, #65536
 170 0096 0831     		adds	r1, r1, #8
 171 0098 2046     		mov	r0, r4
 172 009a FFF7FEFF 		bl	lv_obj_add_style
 173              	.LVL21:
 643:Middlewares/lvgl/src/extra/themes/default/lv_theme_default.c ****     }
 174              		.loc 1 643 9 is_stmt 1 view .LVU47
 643:Middlewares/lvgl/src/extra/themes/default/lv_theme_default.c ****     }
 175              		.loc 1 643 38 is_stmt 0 view .LVU48
 176 009e 2968     		ldr	r1, [r5]
 643:Middlewares/lvgl/src/extra/themes/default/lv_theme_default.c ****     }
 177              		.loc 1 643 9 view .LVU49
 178 00a0 8B4A     		ldr	r2, .L50+12
 179 00a2 1031     		adds	r1, r1, #16
 180 00a4 2046     		mov	r0, r4
 181 00a6 FFF7FEFF 		bl	lv_obj_add_style
 182              	.LVL22:
 183              	.LBE53:
 184 00aa 81E0     		b	.L8
 185              	.LVL23:
 186              	.L41:
 187              	.LBB54:
 618:Middlewares/lvgl/src/extra/themes/default/lv_theme_default.c ****             lv_obj_add_style(obj, &styles->scrollbar, LV_PART_SCROLLBAR);
 188              		.loc 1 618 13 is_stmt 1 view .LVU50
 618:Middlewares/lvgl/src/extra/themes/default/lv_theme_default.c ****             lv_obj_add_style(obj, &styles->scrollbar, LV_PART_SCROLLBAR);
 189              		.loc 1 618 42 is_stmt 0 view .LVU51
 190 00ac 874D     		ldr	r5, .L50+8
 191              	.LVL24:
 618:Middlewares/lvgl/src/extra/themes/default/lv_theme_default.c ****             lv_obj_add_style(obj, &styles->scrollbar, LV_PART_SCROLLBAR);
 192              		.loc 1 618 42 view .LVU52
 193 00ae 2968     		ldr	r1, [r5]
ARM GAS  /tmp/ccvS2HVy.s 			page 22


 618:Middlewares/lvgl/src/extra/themes/default/lv_theme_default.c ****             lv_obj_add_style(obj, &styles->scrollbar, LV_PART_SCROLLBAR);
 194              		.loc 1 618 13 view .LVU53
 195 00b0 0022     		movs	r2, #0
 196 00b2 8031     		adds	r1, r1, #128
 197 00b4 2046     		mov	r0, r4
 198 00b6 FFF7FEFF 		bl	lv_obj_add_style
 199              	.LVL25:
 619:Middlewares/lvgl/src/extra/themes/default/lv_theme_default.c ****             lv_obj_add_style(obj, &styles->scrollbar_scrolled, LV_PART_SCROLLBAR | LV_STATE_SCROLLE
 200              		.loc 1 619 13 is_stmt 1 view .LVU54
 619:Middlewares/lvgl/src/extra/themes/default/lv_theme_default.c ****             lv_obj_add_style(obj, &styles->scrollbar_scrolled, LV_PART_SCROLLBAR | LV_STATE_SCROLLE
 201              		.loc 1 619 42 is_stmt 0 view .LVU55
 202 00ba 2968     		ldr	r1, [r5]
 619:Middlewares/lvgl/src/extra/themes/default/lv_theme_default.c ****             lv_obj_add_style(obj, &styles->scrollbar_scrolled, LV_PART_SCROLLBAR | LV_STATE_SCROLLE
 203              		.loc 1 619 13 view .LVU56
 204 00bc 4FF48032 		mov	r2, #65536
 205 00c0 0831     		adds	r1, r1, #8
 206 00c2 2046     		mov	r0, r4
 207 00c4 FFF7FEFF 		bl	lv_obj_add_style
 208              	.LVL26:
 620:Middlewares/lvgl/src/extra/themes/default/lv_theme_default.c ****             return;
 209              		.loc 1 620 13 is_stmt 1 view .LVU57
 620:Middlewares/lvgl/src/extra/themes/default/lv_theme_default.c ****             return;
 210              		.loc 1 620 42 is_stmt 0 view .LVU58
 211 00c8 2968     		ldr	r1, [r5]
 620:Middlewares/lvgl/src/extra/themes/default/lv_theme_default.c ****             return;
 212              		.loc 1 620 13 view .LVU59
 213 00ca 814A     		ldr	r2, .L50+12
 214 00cc 1031     		adds	r1, r1, #16
 215 00ce 2046     		mov	r0, r4
 216 00d0 FFF7FEFF 		bl	lv_obj_add_style
 217              	.LVL27:
 621:Middlewares/lvgl/src/extra/themes/default/lv_theme_default.c ****         }
 218              		.loc 1 621 13 is_stmt 1 view .LVU60
 219 00d4 A9E7     		b	.L1
 220              	.LVL28:
 221              	.L42:
 628:Middlewares/lvgl/src/extra/themes/default/lv_theme_default.c ****             lv_obj_add_style(obj, &styles->pad_tiny, 0);
 222              		.loc 1 628 13 view .LVU61
 628:Middlewares/lvgl/src/extra/themes/default/lv_theme_default.c ****             lv_obj_add_style(obj, &styles->pad_tiny, 0);
 223              		.loc 1 628 42 is_stmt 0 view .LVU62
 224 00d6 7D4D     		ldr	r5, .L50+8
 225              	.LVL29:
 628:Middlewares/lvgl/src/extra/themes/default/lv_theme_default.c ****             lv_obj_add_style(obj, &styles->pad_tiny, 0);
 226              		.loc 1 628 42 view .LVU63
 227 00d8 2968     		ldr	r1, [r5]
 628:Middlewares/lvgl/src/extra/themes/default/lv_theme_default.c ****             lv_obj_add_style(obj, &styles->pad_tiny, 0);
 228              		.loc 1 628 13 view .LVU64
 229 00da 0022     		movs	r2, #0
 230 00dc 4831     		adds	r1, r1, #72
 231 00de 2046     		mov	r0, r4
 232 00e0 FFF7FEFF 		bl	lv_obj_add_style
 233              	.LVL30:
 629:Middlewares/lvgl/src/extra/themes/default/lv_theme_default.c ****             return;
 234              		.loc 1 629 13 is_stmt 1 view .LVU65
 629:Middlewares/lvgl/src/extra/themes/default/lv_theme_default.c ****             return;
 235              		.loc 1 629 42 is_stmt 0 view .LVU66
 236 00e4 2968     		ldr	r1, [r5]
ARM GAS  /tmp/ccvS2HVy.s 			page 23


 629:Middlewares/lvgl/src/extra/themes/default/lv_theme_default.c ****             return;
 237              		.loc 1 629 13 view .LVU67
 238 00e6 0022     		movs	r2, #0
 239 00e8 7031     		adds	r1, r1, #112
 240 00ea 2046     		mov	r0, r4
 241 00ec FFF7FEFF 		bl	lv_obj_add_style
 242              	.LVL31:
 630:Middlewares/lvgl/src/extra/themes/default/lv_theme_default.c ****         }
 243              		.loc 1 630 13 is_stmt 1 view .LVU68
 244 00f0 9BE7     		b	.L1
 245              	.LVL32:
 246              	.L43:
 633:Middlewares/lvgl/src/extra/themes/default/lv_theme_default.c ****             lv_obj_add_style(obj, &styles->scr, 0);
 247              		.loc 1 633 68 is_stmt 0 discriminator 1 view .LVU69
 248 00f2 2046     		mov	r0, r4
 249 00f4 FFF7FEFF 		bl	lv_obj_get_parent
 250              	.LVL33:
 633:Middlewares/lvgl/src/extra/themes/default/lv_theme_default.c ****             lv_obj_add_style(obj, &styles->scr, 0);
 251              		.loc 1 633 50 discriminator 1 view .LVU70
 252 00f8 7649     		ldr	r1, .L50+16
 253 00fa FFF7FEFF 		bl	lv_obj_check_type
 254              	.LVL34:
 633:Middlewares/lvgl/src/extra/themes/default/lv_theme_default.c ****             lv_obj_add_style(obj, &styles->scr, 0);
 255              		.loc 1 633 47 discriminator 1 view .LVU71
 256 00fe 0028     		cmp	r0, #0
 257 0100 BFD0     		beq	.L7
 634:Middlewares/lvgl/src/extra/themes/default/lv_theme_default.c ****             lv_obj_add_style(obj, &styles->pad_normal, 0);
 258              		.loc 1 634 13 is_stmt 1 view .LVU72
 634:Middlewares/lvgl/src/extra/themes/default/lv_theme_default.c ****             lv_obj_add_style(obj, &styles->pad_normal, 0);
 259              		.loc 1 634 42 is_stmt 0 view .LVU73
 260 0102 724D     		ldr	r5, .L50+8
 261              	.LVL35:
 634:Middlewares/lvgl/src/extra/themes/default/lv_theme_default.c ****             lv_obj_add_style(obj, &styles->pad_normal, 0);
 262              		.loc 1 634 13 view .LVU74
 263 0104 0022     		movs	r2, #0
 264 0106 2968     		ldr	r1, [r5]
 265 0108 2046     		mov	r0, r4
 266 010a FFF7FEFF 		bl	lv_obj_add_style
 267              	.LVL36:
 635:Middlewares/lvgl/src/extra/themes/default/lv_theme_default.c ****             lv_obj_add_style(obj, &styles->scrollbar, LV_PART_SCROLLBAR);
 268              		.loc 1 635 13 is_stmt 1 view .LVU75
 635:Middlewares/lvgl/src/extra/themes/default/lv_theme_default.c ****             lv_obj_add_style(obj, &styles->scrollbar, LV_PART_SCROLLBAR);
 269              		.loc 1 635 42 is_stmt 0 view .LVU76
 270 010e 2968     		ldr	r1, [r5]
 635:Middlewares/lvgl/src/extra/themes/default/lv_theme_default.c ****             lv_obj_add_style(obj, &styles->scrollbar, LV_PART_SCROLLBAR);
 271              		.loc 1 635 13 view .LVU77
 272 0110 0022     		movs	r2, #0
 273 0112 8031     		adds	r1, r1, #128
 274 0114 2046     		mov	r0, r4
 275 0116 FFF7FEFF 		bl	lv_obj_add_style
 276              	.LVL37:
 636:Middlewares/lvgl/src/extra/themes/default/lv_theme_default.c ****             lv_obj_add_style(obj, &styles->scrollbar_scrolled, LV_PART_SCROLLBAR | LV_STATE_SCROLLE
 277              		.loc 1 636 13 is_stmt 1 view .LVU78
 636:Middlewares/lvgl/src/extra/themes/default/lv_theme_default.c ****             lv_obj_add_style(obj, &styles->scrollbar_scrolled, LV_PART_SCROLLBAR | LV_STATE_SCROLLE
 278              		.loc 1 636 42 is_stmt 0 view .LVU79
 279 011a 2968     		ldr	r1, [r5]
 636:Middlewares/lvgl/src/extra/themes/default/lv_theme_default.c ****             lv_obj_add_style(obj, &styles->scrollbar_scrolled, LV_PART_SCROLLBAR | LV_STATE_SCROLLE
ARM GAS  /tmp/ccvS2HVy.s 			page 24


 280              		.loc 1 636 13 view .LVU80
 281 011c 4FF48032 		mov	r2, #65536
 282 0120 0831     		adds	r1, r1, #8
 283 0122 2046     		mov	r0, r4
 284 0124 FFF7FEFF 		bl	lv_obj_add_style
 285              	.LVL38:
 637:Middlewares/lvgl/src/extra/themes/default/lv_theme_default.c ****             return;
 286              		.loc 1 637 13 is_stmt 1 view .LVU81
 637:Middlewares/lvgl/src/extra/themes/default/lv_theme_default.c ****             return;
 287              		.loc 1 637 42 is_stmt 0 view .LVU82
 288 0128 2968     		ldr	r1, [r5]
 637:Middlewares/lvgl/src/extra/themes/default/lv_theme_default.c ****             return;
 289              		.loc 1 637 13 view .LVU83
 290 012a 694A     		ldr	r2, .L50+12
 291 012c 1031     		adds	r1, r1, #16
 292 012e 2046     		mov	r0, r4
 293 0130 FFF7FEFF 		bl	lv_obj_add_style
 294              	.LVL39:
 638:Middlewares/lvgl/src/extra/themes/default/lv_theme_default.c ****         }
 295              		.loc 1 638 13 is_stmt 1 view .LVU84
 296 0134 79E7     		b	.L1
 297              	.L4:
 638:Middlewares/lvgl/src/extra/themes/default/lv_theme_default.c ****         }
 298              		.loc 1 638 13 is_stmt 0 view .LVU85
 299              	.LBE54:
 646:Middlewares/lvgl/src/extra/themes/default/lv_theme_default.c ****         lv_obj_add_style(obj, &styles->btn, 0);
 300              		.loc 1 646 10 is_stmt 1 view .LVU86
 646:Middlewares/lvgl/src/extra/themes/default/lv_theme_default.c ****         lv_obj_add_style(obj, &styles->btn, 0);
 301              		.loc 1 646 13 is_stmt 0 view .LVU87
 302 0136 6849     		ldr	r1, .L50+20
 303 0138 2046     		mov	r0, r4
 304 013a FFF7FEFF 		bl	lv_obj_check_type
 305              	.LVL40:
 646:Middlewares/lvgl/src/extra/themes/default/lv_theme_default.c ****         lv_obj_add_style(obj, &styles->btn, 0);
 306              		.loc 1 646 12 view .LVU88
 307 013e 0028     		cmp	r0, #0
 308 0140 61D0     		beq	.L9
 647:Middlewares/lvgl/src/extra/themes/default/lv_theme_default.c ****         lv_obj_add_style(obj, &styles->bg_color_primary, 0);
 309              		.loc 1 647 9 is_stmt 1 view .LVU89
 647:Middlewares/lvgl/src/extra/themes/default/lv_theme_default.c ****         lv_obj_add_style(obj, &styles->bg_color_primary, 0);
 310              		.loc 1 647 38 is_stmt 0 view .LVU90
 311 0142 624D     		ldr	r5, .L50+8
 312 0144 2968     		ldr	r1, [r5]
 647:Middlewares/lvgl/src/extra/themes/default/lv_theme_default.c ****         lv_obj_add_style(obj, &styles->bg_color_primary, 0);
 313              		.loc 1 647 9 view .LVU91
 314 0146 0022     		movs	r2, #0
 315 0148 2031     		adds	r1, r1, #32
 316 014a 2046     		mov	r0, r4
 317 014c FFF7FEFF 		bl	lv_obj_add_style
 318              	.LVL41:
 648:Middlewares/lvgl/src/extra/themes/default/lv_theme_default.c ****         lv_obj_add_style(obj, &styles->transition_delayed, 0);
 319              		.loc 1 648 9 is_stmt 1 view .LVU92
 648:Middlewares/lvgl/src/extra/themes/default/lv_theme_default.c ****         lv_obj_add_style(obj, &styles->transition_delayed, 0);
 320              		.loc 1 648 38 is_stmt 0 view .LVU93
 321 0150 2968     		ldr	r1, [r5]
 648:Middlewares/lvgl/src/extra/themes/default/lv_theme_default.c ****         lv_obj_add_style(obj, &styles->transition_delayed, 0);
 322              		.loc 1 648 9 view .LVU94
ARM GAS  /tmp/ccvS2HVy.s 			page 25


 323 0152 0022     		movs	r2, #0
 324 0154 2831     		adds	r1, r1, #40
 325 0156 2046     		mov	r0, r4
 326 0158 FFF7FEFF 		bl	lv_obj_add_style
 327              	.LVL42:
 649:Middlewares/lvgl/src/extra/themes/default/lv_theme_default.c ****         lv_obj_add_style(obj, &styles->pressed, LV_STATE_PRESSED);
 328              		.loc 1 649 9 is_stmt 1 view .LVU95
 649:Middlewares/lvgl/src/extra/themes/default/lv_theme_default.c ****         lv_obj_add_style(obj, &styles->pressed, LV_STATE_PRESSED);
 329              		.loc 1 649 38 is_stmt 0 view .LVU96
 330 015c 2968     		ldr	r1, [r5]
 649:Middlewares/lvgl/src/extra/themes/default/lv_theme_default.c ****         lv_obj_add_style(obj, &styles->pressed, LV_STATE_PRESSED);
 331              		.loc 1 649 9 view .LVU97
 332 015e 0022     		movs	r2, #0
 333 0160 D031     		adds	r1, r1, #208
 334 0162 2046     		mov	r0, r4
 335 0164 FFF7FEFF 		bl	lv_obj_add_style
 336              	.LVL43:
 650:Middlewares/lvgl/src/extra/themes/default/lv_theme_default.c ****         lv_obj_add_style(obj, &styles->transition_normal, LV_STATE_PRESSED);
 337              		.loc 1 650 9 is_stmt 1 view .LVU98
 650:Middlewares/lvgl/src/extra/themes/default/lv_theme_default.c ****         lv_obj_add_style(obj, &styles->transition_normal, LV_STATE_PRESSED);
 338              		.loc 1 650 38 is_stmt 0 view .LVU99
 339 0168 2968     		ldr	r1, [r5]
 650:Middlewares/lvgl/src/extra/themes/default/lv_theme_default.c ****         lv_obj_add_style(obj, &styles->transition_normal, LV_STATE_PRESSED);
 340              		.loc 1 650 9 view .LVU100
 341 016a 2022     		movs	r2, #32
 342 016c 5831     		adds	r1, r1, #88
 343 016e 2046     		mov	r0, r4
 344 0170 FFF7FEFF 		bl	lv_obj_add_style
 345              	.LVL44:
 651:Middlewares/lvgl/src/extra/themes/default/lv_theme_default.c ****         lv_obj_add_style(obj, &styles->outline_primary, LV_STATE_FOCUS_KEY);
 346              		.loc 1 651 9 is_stmt 1 view .LVU101
 651:Middlewares/lvgl/src/extra/themes/default/lv_theme_default.c ****         lv_obj_add_style(obj, &styles->outline_primary, LV_STATE_FOCUS_KEY);
 347              		.loc 1 651 38 is_stmt 0 view .LVU102
 348 0174 2968     		ldr	r1, [r5]
 651:Middlewares/lvgl/src/extra/themes/default/lv_theme_default.c ****         lv_obj_add_style(obj, &styles->outline_primary, LV_STATE_FOCUS_KEY);
 349              		.loc 1 651 9 view .LVU103
 350 0176 2022     		movs	r2, #32
 351 0178 D831     		adds	r1, r1, #216
 352 017a 2046     		mov	r0, r4
 353 017c FFF7FEFF 		bl	lv_obj_add_style
 354              	.LVL45:
 652:Middlewares/lvgl/src/extra/themes/default/lv_theme_default.c **** #if LV_THEME_DEFAULT_GROW
 355              		.loc 1 652 9 is_stmt 1 view .LVU104
 652:Middlewares/lvgl/src/extra/themes/default/lv_theme_default.c **** #if LV_THEME_DEFAULT_GROW
 356              		.loc 1 652 38 is_stmt 0 view .LVU105
 357 0180 2968     		ldr	r1, [r5]
 652:Middlewares/lvgl/src/extra/themes/default/lv_theme_default.c **** #if LV_THEME_DEFAULT_GROW
 358              		.loc 1 652 9 view .LVU106
 359 0182 0422     		movs	r2, #4
 360 0184 A031     		adds	r1, r1, #160
 361 0186 2046     		mov	r0, r4
 362 0188 FFF7FEFF 		bl	lv_obj_add_style
 363              	.LVL46:
 654:Middlewares/lvgl/src/extra/themes/default/lv_theme_default.c **** #endif
 364              		.loc 1 654 9 is_stmt 1 view .LVU107
 654:Middlewares/lvgl/src/extra/themes/default/lv_theme_default.c **** #endif
 365              		.loc 1 654 38 is_stmt 0 view .LVU108
ARM GAS  /tmp/ccvS2HVy.s 			page 26


 366 018c 2968     		ldr	r1, [r5]
 654:Middlewares/lvgl/src/extra/themes/default/lv_theme_default.c **** #endif
 367              		.loc 1 654 9 view .LVU109
 368 018e 2022     		movs	r2, #32
 369 0190 C831     		adds	r1, r1, #200
 370 0192 2046     		mov	r0, r4
 371 0194 FFF7FEFF 		bl	lv_obj_add_style
 372              	.LVL47:
 656:Middlewares/lvgl/src/extra/themes/default/lv_theme_default.c ****         lv_obj_add_style(obj, &styles->disabled, LV_STATE_DISABLED);
 373              		.loc 1 656 9 is_stmt 1 view .LVU110
 656:Middlewares/lvgl/src/extra/themes/default/lv_theme_default.c ****         lv_obj_add_style(obj, &styles->disabled, LV_STATE_DISABLED);
 374              		.loc 1 656 38 is_stmt 0 view .LVU111
 375 0198 2968     		ldr	r1, [r5]
 656:Middlewares/lvgl/src/extra/themes/default/lv_theme_default.c ****         lv_obj_add_style(obj, &styles->disabled, LV_STATE_DISABLED);
 376              		.loc 1 656 9 view .LVU112
 377 019a 0122     		movs	r2, #1
 378 019c 3831     		adds	r1, r1, #56
 379 019e 2046     		mov	r0, r4
 380 01a0 FFF7FEFF 		bl	lv_obj_add_style
 381              	.LVL48:
 657:Middlewares/lvgl/src/extra/themes/default/lv_theme_default.c ****     }
 382              		.loc 1 657 9 is_stmt 1 view .LVU113
 657:Middlewares/lvgl/src/extra/themes/default/lv_theme_default.c ****     }
 383              		.loc 1 657 38 is_stmt 0 view .LVU114
 384 01a4 2968     		ldr	r1, [r5]
 657:Middlewares/lvgl/src/extra/themes/default/lv_theme_default.c ****     }
 385              		.loc 1 657 9 view .LVU115
 386 01a6 8022     		movs	r2, #128
 387 01a8 6031     		adds	r1, r1, #96
 388 01aa 2046     		mov	r0, r4
 389 01ac FFF7FEFF 		bl	lv_obj_add_style
 390              	.LVL49:
 391              	.L8:
 948:Middlewares/lvgl/src/extra/themes/default/lv_theme_default.c ****         lv_obj_add_style(obj, &styles->scr, 0);
 392              		.loc 1 948 5 is_stmt 1 view .LVU116
 948:Middlewares/lvgl/src/extra/themes/default/lv_theme_default.c ****         lv_obj_add_style(obj, &styles->scr, 0);
 393              		.loc 1 948 8 is_stmt 0 view .LVU117
 394 01b0 4549     		ldr	r1, .L50+4
 395 01b2 2046     		mov	r0, r4
 396 01b4 FFF7FEFF 		bl	lv_obj_check_type
 397              	.LVL50:
 948:Middlewares/lvgl/src/extra/themes/default/lv_theme_default.c ****         lv_obj_add_style(obj, &styles->scr, 0);
 398              		.loc 1 948 7 view .LVU118
 399 01b8 0028     		cmp	r0, #0
 400 01ba 40F0B885 		bne	.L44
 956:Middlewares/lvgl/src/extra/themes/default/lv_theme_default.c ****         lv_obj_add_style(obj, &styles->colorwheel_main, 0);
 401              		.loc 1 956 10 is_stmt 1 view .LVU119
 956:Middlewares/lvgl/src/extra/themes/default/lv_theme_default.c ****         lv_obj_add_style(obj, &styles->colorwheel_main, 0);
 402              		.loc 1 956 13 is_stmt 0 view .LVU120
 403 01be 4749     		ldr	r1, .L50+24
 404 01c0 2046     		mov	r0, r4
 405 01c2 FFF7FEFF 		bl	lv_obj_check_type
 406              	.LVL51:
 956:Middlewares/lvgl/src/extra/themes/default/lv_theme_default.c ****         lv_obj_add_style(obj, &styles->colorwheel_main, 0);
 407              		.loc 1 956 12 view .LVU121
 408 01c6 0028     		cmp	r0, #0
 409 01c8 00F0BF85 		beq	.L37
ARM GAS  /tmp/ccvS2HVy.s 			page 27


 957:Middlewares/lvgl/src/extra/themes/default/lv_theme_default.c ****         lv_obj_add_style(obj, &styles->pad_normal, 0);
 410              		.loc 1 957 9 is_stmt 1 view .LVU122
 957:Middlewares/lvgl/src/extra/themes/default/lv_theme_default.c ****         lv_obj_add_style(obj, &styles->pad_normal, 0);
 411              		.loc 1 957 38 is_stmt 0 view .LVU123
 412 01cc 3F4D     		ldr	r5, .L50+8
 413 01ce 2968     		ldr	r1, [r5]
 957:Middlewares/lvgl/src/extra/themes/default/lv_theme_default.c ****         lv_obj_add_style(obj, &styles->pad_normal, 0);
 414              		.loc 1 957 9 view .LVU124
 415 01d0 0022     		movs	r2, #0
 416 01d2 01F5C471 		add	r1, r1, #392
 417 01d6 2046     		mov	r0, r4
 418 01d8 FFF7FEFF 		bl	lv_obj_add_style
 419              	.LVL52:
 958:Middlewares/lvgl/src/extra/themes/default/lv_theme_default.c ****         lv_obj_add_style(obj, &styles->bg_color_white, LV_PART_KNOB);
 420              		.loc 1 958 9 is_stmt 1 view .LVU125
 958:Middlewares/lvgl/src/extra/themes/default/lv_theme_default.c ****         lv_obj_add_style(obj, &styles->bg_color_white, LV_PART_KNOB);
 421              		.loc 1 958 38 is_stmt 0 view .LVU126
 422 01dc 2968     		ldr	r1, [r5]
 958:Middlewares/lvgl/src/extra/themes/default/lv_theme_default.c ****         lv_obj_add_style(obj, &styles->bg_color_white, LV_PART_KNOB);
 423              		.loc 1 958 9 view .LVU127
 424 01de 0022     		movs	r2, #0
 425 01e0 8031     		adds	r1, r1, #128
 426 01e2 2046     		mov	r0, r4
 427 01e4 FFF7FEFF 		bl	lv_obj_add_style
 428              	.LVL53:
 959:Middlewares/lvgl/src/extra/themes/default/lv_theme_default.c ****         lv_obj_add_style(obj, &styles->pad_normal, LV_PART_KNOB);
 429              		.loc 1 959 9 is_stmt 1 view .LVU128
 959:Middlewares/lvgl/src/extra/themes/default/lv_theme_default.c ****         lv_obj_add_style(obj, &styles->pad_normal, LV_PART_KNOB);
 430              		.loc 1 959 38 is_stmt 0 view .LVU129
 431 01e8 2968     		ldr	r1, [r5]
 959:Middlewares/lvgl/src/extra/themes/default/lv_theme_default.c ****         lv_obj_add_style(obj, &styles->pad_normal, LV_PART_KNOB);
 432              		.loc 1 959 9 view .LVU130
 433 01ea 4FF44032 		mov	r2, #196608
 434 01ee 5031     		adds	r1, r1, #80
 435 01f0 2046     		mov	r0, r4
 436 01f2 FFF7FEFF 		bl	lv_obj_add_style
 437              	.LVL54:
 960:Middlewares/lvgl/src/extra/themes/default/lv_theme_default.c ****     }
 438              		.loc 1 960 9 is_stmt 1 view .LVU131
 960:Middlewares/lvgl/src/extra/themes/default/lv_theme_default.c ****     }
 439              		.loc 1 960 38 is_stmt 0 view .LVU132
 440 01f6 2968     		ldr	r1, [r5]
 960:Middlewares/lvgl/src/extra/themes/default/lv_theme_default.c ****     }
 441              		.loc 1 960 9 view .LVU133
 442 01f8 4FF44032 		mov	r2, #196608
 443 01fc 8031     		adds	r1, r1, #128
 444 01fe 2046     		mov	r0, r4
 445 0200 FFF7FEFF 		bl	lv_obj_add_style
 446              	.LVL55:
 447 0204 11E7     		b	.L1
 448              	.L9:
 662:Middlewares/lvgl/src/extra/themes/default/lv_theme_default.c ****         lv_obj_add_style(obj, &styles->line, 0);
 449              		.loc 1 662 10 is_stmt 1 view .LVU134
 662:Middlewares/lvgl/src/extra/themes/default/lv_theme_default.c ****         lv_obj_add_style(obj, &styles->line, 0);
 450              		.loc 1 662 13 is_stmt 0 view .LVU135
 451 0206 3649     		ldr	r1, .L50+28
 452 0208 2046     		mov	r0, r4
ARM GAS  /tmp/ccvS2HVy.s 			page 28


 453 020a FFF7FEFF 		bl	lv_obj_check_type
 454              	.LVL56:
 662:Middlewares/lvgl/src/extra/themes/default/lv_theme_default.c ****         lv_obj_add_style(obj, &styles->line, 0);
 455              		.loc 1 662 12 view .LVU136
 456 020e 40B1     		cbz	r0, .L10
 663:Middlewares/lvgl/src/extra/themes/default/lv_theme_default.c ****     }
 457              		.loc 1 663 9 is_stmt 1 view .LVU137
 663:Middlewares/lvgl/src/extra/themes/default/lv_theme_default.c ****     }
 458              		.loc 1 663 38 is_stmt 0 view .LVU138
 459 0210 2E4B     		ldr	r3, .L50+8
 460 0212 1968     		ldr	r1, [r3]
 663:Middlewares/lvgl/src/extra/themes/default/lv_theme_default.c ****     }
 461              		.loc 1 663 9 view .LVU139
 462 0214 0022     		movs	r2, #0
 463 0216 01F5A471 		add	r1, r1, #328
 464 021a 2046     		mov	r0, r4
 465 021c FFF7FEFF 		bl	lv_obj_add_style
 466              	.LVL57:
 467 0220 C6E7     		b	.L8
 468              	.L10:
 668:Middlewares/lvgl/src/extra/themes/default/lv_theme_default.c **** #if LV_USE_MSGBOX
 469              		.loc 1 668 10 is_stmt 1 view .LVU140
 668:Middlewares/lvgl/src/extra/themes/default/lv_theme_default.c **** #if LV_USE_MSGBOX
 470              		.loc 1 668 13 is_stmt 0 view .LVU141
 471 0222 3049     		ldr	r1, .L50+32
 472 0224 2046     		mov	r0, r4
 473 0226 FFF7FEFF 		bl	lv_obj_check_type
 474              	.LVL58:
 668:Middlewares/lvgl/src/extra/themes/default/lv_theme_default.c **** #if LV_USE_MSGBOX
 475              		.loc 1 668 12 view .LVU142
 476 022a 0028     		cmp	r0, #0
 477 022c 00F0D980 		beq	.L11
 670:Middlewares/lvgl/src/extra/themes/default/lv_theme_default.c ****             lv_obj_add_style(obj, &styles->msgbox_btn_bg, 0);
 478              		.loc 1 670 9 is_stmt 1 view .LVU143
 670:Middlewares/lvgl/src/extra/themes/default/lv_theme_default.c ****             lv_obj_add_style(obj, &styles->msgbox_btn_bg, 0);
 479              		.loc 1 670 30 is_stmt 0 view .LVU144
 480 0230 2046     		mov	r0, r4
 481 0232 FFF7FEFF 		bl	lv_obj_get_parent
 482              	.LVL59:
 670:Middlewares/lvgl/src/extra/themes/default/lv_theme_default.c ****             lv_obj_add_style(obj, &styles->msgbox_btn_bg, 0);
 483              		.loc 1 670 12 view .LVU145
 484 0236 2C49     		ldr	r1, .L50+36
 485 0238 FFF7FEFF 		bl	lv_obj_check_type
 486              	.LVL60:
 670:Middlewares/lvgl/src/extra/themes/default/lv_theme_default.c ****             lv_obj_add_style(obj, &styles->msgbox_btn_bg, 0);
 487              		.loc 1 670 11 view .LVU146
 488 023c 0028     		cmp	r0, #0
 489 023e 5FD1     		bne	.L45
 683:Middlewares/lvgl/src/extra/themes/default/lv_theme_default.c ****             lv_obj_add_style(obj, &styles->bg_color_white, 0);
 490              		.loc 1 683 9 is_stmt 1 view .LVU147
 683:Middlewares/lvgl/src/extra/themes/default/lv_theme_default.c ****             lv_obj_add_style(obj, &styles->bg_color_white, 0);
 491              		.loc 1 683 30 is_stmt 0 view .LVU148
 492 0240 2046     		mov	r0, r4
 493 0242 FFF7FEFF 		bl	lv_obj_get_parent
 494              	.LVL61:
 683:Middlewares/lvgl/src/extra/themes/default/lv_theme_default.c ****             lv_obj_add_style(obj, &styles->bg_color_white, 0);
 495              		.loc 1 683 12 view .LVU149
ARM GAS  /tmp/ccvS2HVy.s 			page 29


 496 0246 2049     		ldr	r1, .L50+4
 497 0248 FFF7FEFF 		bl	lv_obj_check_type
 498              	.LVL62:
 683:Middlewares/lvgl/src/extra/themes/default/lv_theme_default.c ****             lv_obj_add_style(obj, &styles->bg_color_white, 0);
 499              		.loc 1 683 11 view .LVU150
 500 024c 0028     		cmp	r0, #0
 501 024e 40F08B80 		bne	.L46
 696:Middlewares/lvgl/src/extra/themes/default/lv_theme_default.c ****         lv_obj_add_style(obj, &styles->outline_primary, LV_STATE_FOCUS_KEY);
 502              		.loc 1 696 9 is_stmt 1 view .LVU151
 696:Middlewares/lvgl/src/extra/themes/default/lv_theme_default.c ****         lv_obj_add_style(obj, &styles->outline_primary, LV_STATE_FOCUS_KEY);
 503              		.loc 1 696 38 is_stmt 0 view .LVU152
 504 0252 1E4D     		ldr	r5, .L50+8
 505 0254 2968     		ldr	r1, [r5]
 696:Middlewares/lvgl/src/extra/themes/default/lv_theme_default.c ****         lv_obj_add_style(obj, &styles->outline_primary, LV_STATE_FOCUS_KEY);
 506              		.loc 1 696 9 view .LVU153
 507 0256 0022     		movs	r2, #0
 508 0258 1831     		adds	r1, r1, #24
 509 025a 2046     		mov	r0, r4
 510 025c FFF7FEFF 		bl	lv_obj_add_style
 511              	.LVL63:
 697:Middlewares/lvgl/src/extra/themes/default/lv_theme_default.c ****         lv_obj_add_style(obj, &styles->outline_secondary, LV_STATE_EDITED);
 512              		.loc 1 697 9 is_stmt 1 view .LVU154
 697:Middlewares/lvgl/src/extra/themes/default/lv_theme_default.c ****         lv_obj_add_style(obj, &styles->outline_secondary, LV_STATE_EDITED);
 513              		.loc 1 697 38 is_stmt 0 view .LVU155
 514 0260 2968     		ldr	r1, [r5]
 697:Middlewares/lvgl/src/extra/themes/default/lv_theme_default.c ****         lv_obj_add_style(obj, &styles->outline_secondary, LV_STATE_EDITED);
 515              		.loc 1 697 9 view .LVU156
 516 0262 0422     		movs	r2, #4
 517 0264 A031     		adds	r1, r1, #160
 518 0266 2046     		mov	r0, r4
 519 0268 FFF7FEFF 		bl	lv_obj_add_style
 520              	.LVL64:
 698:Middlewares/lvgl/src/extra/themes/default/lv_theme_default.c ****         lv_obj_add_style(obj, &styles->btn, LV_PART_ITEMS);
 521              		.loc 1 698 9 is_stmt 1 view .LVU157
 698:Middlewares/lvgl/src/extra/themes/default/lv_theme_default.c ****         lv_obj_add_style(obj, &styles->btn, LV_PART_ITEMS);
 522              		.loc 1 698 38 is_stmt 0 view .LVU158
 523 026c 2968     		ldr	r1, [r5]
 698:Middlewares/lvgl/src/extra/themes/default/lv_theme_default.c ****         lv_obj_add_style(obj, &styles->btn, LV_PART_ITEMS);
 524              		.loc 1 698 9 view .LVU159
 525 026e 0822     		movs	r2, #8
 526 0270 A831     		adds	r1, r1, #168
 527 0272 2046     		mov	r0, r4
 528 0274 FFF7FEFF 		bl	lv_obj_add_style
 529              	.LVL65:
 699:Middlewares/lvgl/src/extra/themes/default/lv_theme_default.c ****         lv_obj_add_style(obj, &styles->disabled, LV_PART_ITEMS | LV_STATE_DISABLED);
 530              		.loc 1 699 9 is_stmt 1 view .LVU160
 699:Middlewares/lvgl/src/extra/themes/default/lv_theme_default.c ****         lv_obj_add_style(obj, &styles->disabled, LV_PART_ITEMS | LV_STATE_DISABLED);
 531              		.loc 1 699 38 is_stmt 0 view .LVU161
 532 0278 2968     		ldr	r1, [r5]
 699:Middlewares/lvgl/src/extra/themes/default/lv_theme_default.c ****         lv_obj_add_style(obj, &styles->disabled, LV_PART_ITEMS | LV_STATE_DISABLED);
 533              		.loc 1 699 9 view .LVU162
 534 027a 4FF4A022 		mov	r2, #327680
 535 027e 2031     		adds	r1, r1, #32
 536 0280 2046     		mov	r0, r4
 537 0282 FFF7FEFF 		bl	lv_obj_add_style
 538              	.LVL66:
 700:Middlewares/lvgl/src/extra/themes/default/lv_theme_default.c ****         lv_obj_add_style(obj, &styles->pressed, LV_PART_ITEMS | LV_STATE_PRESSED);
ARM GAS  /tmp/ccvS2HVy.s 			page 30


 539              		.loc 1 700 9 is_stmt 1 view .LVU163
 700:Middlewares/lvgl/src/extra/themes/default/lv_theme_default.c ****         lv_obj_add_style(obj, &styles->pressed, LV_PART_ITEMS | LV_STATE_PRESSED);
 540              		.loc 1 700 38 is_stmt 0 view .LVU164
 541 0286 2968     		ldr	r1, [r5]
 700:Middlewares/lvgl/src/extra/themes/default/lv_theme_default.c ****         lv_obj_add_style(obj, &styles->pressed, LV_PART_ITEMS | LV_STATE_PRESSED);
 542              		.loc 1 700 9 view .LVU165
 543 0288 184A     		ldr	r2, .L50+40
 544 028a 6031     		adds	r1, r1, #96
 545 028c 2046     		mov	r0, r4
 546 028e FFF7FEFF 		bl	lv_obj_add_style
 547              	.LVL67:
 701:Middlewares/lvgl/src/extra/themes/default/lv_theme_default.c ****         lv_obj_add_style(obj, &styles->bg_color_primary, LV_PART_ITEMS | LV_STATE_CHECKED);
 548              		.loc 1 701 9 is_stmt 1 view .LVU166
 701:Middlewares/lvgl/src/extra/themes/default/lv_theme_default.c ****         lv_obj_add_style(obj, &styles->bg_color_primary, LV_PART_ITEMS | LV_STATE_CHECKED);
 549              		.loc 1 701 38 is_stmt 0 view .LVU167
 550 0292 2968     		ldr	r1, [r5]
 701:Middlewares/lvgl/src/extra/themes/default/lv_theme_default.c ****         lv_obj_add_style(obj, &styles->bg_color_primary, LV_PART_ITEMS | LV_STATE_CHECKED);
 551              		.loc 1 701 9 view .LVU168
 552 0294 164A     		ldr	r2, .L50+44
 553 0296 5831     		adds	r1, r1, #88
 554 0298 2046     		mov	r0, r4
 555 029a FFF7FEFF 		bl	lv_obj_add_style
 556              	.LVL68:
 702:Middlewares/lvgl/src/extra/themes/default/lv_theme_default.c ****         lv_obj_add_style(obj, &styles->outline_primary, LV_PART_ITEMS | LV_STATE_FOCUS_KEY);
 557              		.loc 1 702 9 is_stmt 1 view .LVU169
 702:Middlewares/lvgl/src/extra/themes/default/lv_theme_default.c ****         lv_obj_add_style(obj, &styles->outline_primary, LV_PART_ITEMS | LV_STATE_FOCUS_KEY);
 558              		.loc 1 702 38 is_stmt 0 view .LVU170
 559 029e 2968     		ldr	r1, [r5]
 702:Middlewares/lvgl/src/extra/themes/default/lv_theme_default.c ****         lv_obj_add_style(obj, &styles->outline_primary, LV_PART_ITEMS | LV_STATE_FOCUS_KEY);
 560              		.loc 1 702 9 view .LVU171
 561 02a0 144A     		ldr	r2, .L50+48
 562 02a2 2831     		adds	r1, r1, #40
 563 02a4 2046     		mov	r0, r4
 564 02a6 FFF7FEFF 		bl	lv_obj_add_style
 565              	.LVL69:
 703:Middlewares/lvgl/src/extra/themes/default/lv_theme_default.c ****         lv_obj_add_style(obj, &styles->outline_secondary, LV_PART_ITEMS | LV_STATE_EDITED);
 566              		.loc 1 703 9 is_stmt 1 view .LVU172
 703:Middlewares/lvgl/src/extra/themes/default/lv_theme_default.c ****         lv_obj_add_style(obj, &styles->outline_secondary, LV_PART_ITEMS | LV_STATE_EDITED);
 567              		.loc 1 703 38 is_stmt 0 view .LVU173
 568 02aa 2968     		ldr	r1, [r5]
 703:Middlewares/lvgl/src/extra/themes/default/lv_theme_default.c ****         lv_obj_add_style(obj, &styles->outline_secondary, LV_PART_ITEMS | LV_STATE_EDITED);
 569              		.loc 1 703 9 view .LVU174
 570 02ac 124A     		ldr	r2, .L50+52
 571 02ae A031     		adds	r1, r1, #160
 572 02b0 2046     		mov	r0, r4
 573 02b2 FFF7FEFF 		bl	lv_obj_add_style
 574              	.LVL70:
 704:Middlewares/lvgl/src/extra/themes/default/lv_theme_default.c ****     }
 575              		.loc 1 704 9 is_stmt 1 view .LVU175
 704:Middlewares/lvgl/src/extra/themes/default/lv_theme_default.c ****     }
 576              		.loc 1 704 38 is_stmt 0 view .LVU176
 577 02b6 2968     		ldr	r1, [r5]
 704:Middlewares/lvgl/src/extra/themes/default/lv_theme_default.c ****     }
 578              		.loc 1 704 9 view .LVU177
 579 02b8 104A     		ldr	r2, .L50+56
 580 02ba A831     		adds	r1, r1, #168
 581 02bc 2046     		mov	r0, r4
ARM GAS  /tmp/ccvS2HVy.s 			page 31


 582 02be FFF7FEFF 		bl	lv_obj_add_style
 583              	.LVL71:
 584 02c2 75E7     		b	.L8
 585              	.L51:
 586              		.align	2
 587              	.L50:
 588 02c4 00000000 		.word	lv_obj_class
 589 02c8 00000000 		.word	lv_tabview_class
 590 02cc 00000000 		.word	.LANCHOR0
 591 02d0 40000100 		.word	65600
 592 02d4 00000000 		.word	lv_win_class
 593 02d8 00000000 		.word	lv_btn_class
 594 02dc 00000000 		.word	lv_colorwheel_class
 595 02e0 00000000 		.word	lv_line_class
 596 02e4 00000000 		.word	lv_btnmatrix_class
 597 02e8 00000000 		.word	lv_msgbox_class
 598 02ec 80000500 		.word	327808
 599 02f0 20000500 		.word	327712
 600 02f4 01000500 		.word	327681
 601 02f8 04000500 		.word	327684
 602 02fc 08000500 		.word	327688
 603              	.L45:
 671:Middlewares/lvgl/src/extra/themes/default/lv_theme_default.c ****             lv_obj_add_style(obj, &styles->pad_gap, 0);
 604              		.loc 1 671 13 is_stmt 1 view .LVU178
 671:Middlewares/lvgl/src/extra/themes/default/lv_theme_default.c ****             lv_obj_add_style(obj, &styles->pad_gap, 0);
 605              		.loc 1 671 42 is_stmt 0 view .LVU179
 606 0300 C54D     		ldr	r5, .L52
 607 0302 2968     		ldr	r1, [r5]
 671:Middlewares/lvgl/src/extra/themes/default/lv_theme_default.c ****             lv_obj_add_style(obj, &styles->pad_gap, 0);
 608              		.loc 1 671 13 view .LVU180
 609 0304 0022     		movs	r2, #0
 610 0306 01F5CC71 		add	r1, r1, #408
 611 030a 2046     		mov	r0, r4
 612 030c FFF7FEFF 		bl	lv_obj_add_style
 613              	.LVL72:
 672:Middlewares/lvgl/src/extra/themes/default/lv_theme_default.c ****             lv_obj_add_style(obj, &styles->btn, LV_PART_ITEMS);
 614              		.loc 1 672 13 is_stmt 1 view .LVU181
 672:Middlewares/lvgl/src/extra/themes/default/lv_theme_default.c ****             lv_obj_add_style(obj, &styles->btn, LV_PART_ITEMS);
 615              		.loc 1 672 42 is_stmt 0 view .LVU182
 616 0310 2968     		ldr	r1, [r5]
 672:Middlewares/lvgl/src/extra/themes/default/lv_theme_default.c ****             lv_obj_add_style(obj, &styles->btn, LV_PART_ITEMS);
 617              		.loc 1 672 13 view .LVU183
 618 0312 0022     		movs	r2, #0
 619 0314 8831     		adds	r1, r1, #136
 620 0316 2046     		mov	r0, r4
 621 0318 FFF7FEFF 		bl	lv_obj_add_style
 622              	.LVL73:
 673:Middlewares/lvgl/src/extra/themes/default/lv_theme_default.c ****             lv_obj_add_style(obj, &styles->pressed, LV_PART_ITEMS | LV_STATE_PRESSED);
 623              		.loc 1 673 13 is_stmt 1 view .LVU184
 673:Middlewares/lvgl/src/extra/themes/default/lv_theme_default.c ****             lv_obj_add_style(obj, &styles->pressed, LV_PART_ITEMS | LV_STATE_PRESSED);
 624              		.loc 1 673 42 is_stmt 0 view .LVU185
 625 031c 2968     		ldr	r1, [r5]
 673:Middlewares/lvgl/src/extra/themes/default/lv_theme_default.c ****             lv_obj_add_style(obj, &styles->pressed, LV_PART_ITEMS | LV_STATE_PRESSED);
 626              		.loc 1 673 13 view .LVU186
 627 031e 4FF4A022 		mov	r2, #327680
 628 0322 2031     		adds	r1, r1, #32
 629 0324 2046     		mov	r0, r4
ARM GAS  /tmp/ccvS2HVy.s 			page 32


 630 0326 FFF7FEFF 		bl	lv_obj_add_style
 631              	.LVL74:
 674:Middlewares/lvgl/src/extra/themes/default/lv_theme_default.c ****             lv_obj_add_style(obj, &styles->disabled, LV_PART_ITEMS | LV_STATE_DISABLED);
 632              		.loc 1 674 13 is_stmt 1 view .LVU187
 674:Middlewares/lvgl/src/extra/themes/default/lv_theme_default.c ****             lv_obj_add_style(obj, &styles->disabled, LV_PART_ITEMS | LV_STATE_DISABLED);
 633              		.loc 1 674 42 is_stmt 0 view .LVU188
 634 032a 2968     		ldr	r1, [r5]
 674:Middlewares/lvgl/src/extra/themes/default/lv_theme_default.c ****             lv_obj_add_style(obj, &styles->disabled, LV_PART_ITEMS | LV_STATE_DISABLED);
 635              		.loc 1 674 13 view .LVU189
 636 032c BB4A     		ldr	r2, .L52+4
 637 032e 5831     		adds	r1, r1, #88
 638 0330 2046     		mov	r0, r4
 639 0332 FFF7FEFF 		bl	lv_obj_add_style
 640              	.LVL75:
 675:Middlewares/lvgl/src/extra/themes/default/lv_theme_default.c ****             lv_obj_add_style(obj, &styles->bg_color_primary, LV_PART_ITEMS | LV_STATE_CHECKED);
 641              		.loc 1 675 13 is_stmt 1 view .LVU190
 675:Middlewares/lvgl/src/extra/themes/default/lv_theme_default.c ****             lv_obj_add_style(obj, &styles->bg_color_primary, LV_PART_ITEMS | LV_STATE_CHECKED);
 642              		.loc 1 675 42 is_stmt 0 view .LVU191
 643 0336 2968     		ldr	r1, [r5]
 675:Middlewares/lvgl/src/extra/themes/default/lv_theme_default.c ****             lv_obj_add_style(obj, &styles->bg_color_primary, LV_PART_ITEMS | LV_STATE_CHECKED);
 644              		.loc 1 675 13 view .LVU192
 645 0338 B94A     		ldr	r2, .L52+8
 646 033a 6031     		adds	r1, r1, #96
 647 033c 2046     		mov	r0, r4
 648 033e FFF7FEFF 		bl	lv_obj_add_style
 649              	.LVL76:
 676:Middlewares/lvgl/src/extra/themes/default/lv_theme_default.c ****             lv_obj_add_style(obj, &styles->bg_color_primary_muted, LV_PART_ITEMS | LV_STATE_FOCUS_K
 650              		.loc 1 676 13 is_stmt 1 view .LVU193
 676:Middlewares/lvgl/src/extra/themes/default/lv_theme_default.c ****             lv_obj_add_style(obj, &styles->bg_color_primary_muted, LV_PART_ITEMS | LV_STATE_FOCUS_K
 651              		.loc 1 676 42 is_stmt 0 view .LVU194
 652 0342 2968     		ldr	r1, [r5]
 676:Middlewares/lvgl/src/extra/themes/default/lv_theme_default.c ****             lv_obj_add_style(obj, &styles->bg_color_primary_muted, LV_PART_ITEMS | LV_STATE_FOCUS_K
 653              		.loc 1 676 13 view .LVU195
 654 0344 B74A     		ldr	r2, .L52+12
 655 0346 2831     		adds	r1, r1, #40
 656 0348 2046     		mov	r0, r4
 657 034a FFF7FEFF 		bl	lv_obj_add_style
 658              	.LVL77:
 677:Middlewares/lvgl/src/extra/themes/default/lv_theme_default.c ****             lv_obj_add_style(obj, &styles->bg_color_secondary_muted, LV_PART_ITEMS | LV_STATE_EDITE
 659              		.loc 1 677 13 is_stmt 1 view .LVU196
 677:Middlewares/lvgl/src/extra/themes/default/lv_theme_default.c ****             lv_obj_add_style(obj, &styles->bg_color_secondary_muted, LV_PART_ITEMS | LV_STATE_EDITE
 660              		.loc 1 677 42 is_stmt 0 view .LVU197
 661 034e 2968     		ldr	r1, [r5]
 677:Middlewares/lvgl/src/extra/themes/default/lv_theme_default.c ****             lv_obj_add_style(obj, &styles->bg_color_secondary_muted, LV_PART_ITEMS | LV_STATE_EDITE
 662              		.loc 1 677 13 view .LVU198
 663 0350 B54A     		ldr	r2, .L52+16
 664 0352 3031     		adds	r1, r1, #48
 665 0354 2046     		mov	r0, r4
 666 0356 FFF7FEFF 		bl	lv_obj_add_style
 667              	.LVL78:
 678:Middlewares/lvgl/src/extra/themes/default/lv_theme_default.c ****             return;
 668              		.loc 1 678 13 is_stmt 1 view .LVU199
 678:Middlewares/lvgl/src/extra/themes/default/lv_theme_default.c ****             return;
 669              		.loc 1 678 42 is_stmt 0 view .LVU200
 670 035a 2968     		ldr	r1, [r5]
 678:Middlewares/lvgl/src/extra/themes/default/lv_theme_default.c ****             return;
 671              		.loc 1 678 13 view .LVU201
ARM GAS  /tmp/ccvS2HVy.s 			page 33


 672 035c B34A     		ldr	r2, .L52+20
 673 035e 4031     		adds	r1, r1, #64
 674 0360 2046     		mov	r0, r4
 675 0362 FFF7FEFF 		bl	lv_obj_add_style
 676              	.LVL79:
 679:Middlewares/lvgl/src/extra/themes/default/lv_theme_default.c ****         }
 677              		.loc 1 679 13 is_stmt 1 view .LVU202
 678 0366 60E6     		b	.L1
 679              	.L46:
 684:Middlewares/lvgl/src/extra/themes/default/lv_theme_default.c ****             lv_obj_add_style(obj, &styles->outline_primary, LV_STATE_FOCUS_KEY);
 680              		.loc 1 684 13 view .LVU203
 684:Middlewares/lvgl/src/extra/themes/default/lv_theme_default.c ****             lv_obj_add_style(obj, &styles->outline_primary, LV_STATE_FOCUS_KEY);
 681              		.loc 1 684 42 is_stmt 0 view .LVU204
 682 0368 AB4D     		ldr	r5, .L52
 683 036a 2968     		ldr	r1, [r5]
 684:Middlewares/lvgl/src/extra/themes/default/lv_theme_default.c ****             lv_obj_add_style(obj, &styles->outline_primary, LV_STATE_FOCUS_KEY);
 684              		.loc 1 684 13 view .LVU205
 685 036c 0022     		movs	r2, #0
 686 036e 5031     		adds	r1, r1, #80
 687 0370 2046     		mov	r0, r4
 688 0372 FFF7FEFF 		bl	lv_obj_add_style
 689              	.LVL80:
 685:Middlewares/lvgl/src/extra/themes/default/lv_theme_default.c ****             lv_obj_add_style(obj, &styles->tab_bg_focus, LV_STATE_FOCUS_KEY);
 690              		.loc 1 685 13 is_stmt 1 view .LVU206
 685:Middlewares/lvgl/src/extra/themes/default/lv_theme_default.c ****             lv_obj_add_style(obj, &styles->tab_bg_focus, LV_STATE_FOCUS_KEY);
 691              		.loc 1 685 42 is_stmt 0 view .LVU207
 692 0376 2968     		ldr	r1, [r5]
 685:Middlewares/lvgl/src/extra/themes/default/lv_theme_default.c ****             lv_obj_add_style(obj, &styles->tab_bg_focus, LV_STATE_FOCUS_KEY);
 693              		.loc 1 685 13 view .LVU208
 694 0378 0422     		movs	r2, #4
 695 037a A031     		adds	r1, r1, #160
 696 037c 2046     		mov	r0, r4
 697 037e FFF7FEFF 		bl	lv_obj_add_style
 698              	.LVL81:
 686:Middlewares/lvgl/src/extra/themes/default/lv_theme_default.c ****             lv_obj_add_style(obj, &styles->pressed, LV_PART_ITEMS | LV_STATE_PRESSED);
 699              		.loc 1 686 13 is_stmt 1 view .LVU209
 686:Middlewares/lvgl/src/extra/themes/default/lv_theme_default.c ****             lv_obj_add_style(obj, &styles->pressed, LV_PART_ITEMS | LV_STATE_PRESSED);
 700              		.loc 1 686 42 is_stmt 0 view .LVU210
 701 0382 2968     		ldr	r1, [r5]
 686:Middlewares/lvgl/src/extra/themes/default/lv_theme_default.c ****             lv_obj_add_style(obj, &styles->pressed, LV_PART_ITEMS | LV_STATE_PRESSED);
 702              		.loc 1 686 13 view .LVU211
 703 0384 0422     		movs	r2, #4
 704 0386 01F5E471 		add	r1, r1, #456
 705 038a 2046     		mov	r0, r4
 706 038c FFF7FEFF 		bl	lv_obj_add_style
 707              	.LVL82:
 687:Middlewares/lvgl/src/extra/themes/default/lv_theme_default.c ****             lv_obj_add_style(obj, &styles->bg_color_primary_muted, LV_PART_ITEMS | LV_STATE_CHECKED
 708              		.loc 1 687 13 is_stmt 1 view .LVU212
 687:Middlewares/lvgl/src/extra/themes/default/lv_theme_default.c ****             lv_obj_add_style(obj, &styles->bg_color_primary_muted, LV_PART_ITEMS | LV_STATE_CHECKED
 709              		.loc 1 687 42 is_stmt 0 view .LVU213
 710 0390 2968     		ldr	r1, [r5]
 687:Middlewares/lvgl/src/extra/themes/default/lv_theme_default.c ****             lv_obj_add_style(obj, &styles->bg_color_primary_muted, LV_PART_ITEMS | LV_STATE_CHECKED
 711              		.loc 1 687 13 view .LVU214
 712 0392 A24A     		ldr	r2, .L52+4
 713 0394 5831     		adds	r1, r1, #88
 714 0396 2046     		mov	r0, r4
 715 0398 FFF7FEFF 		bl	lv_obj_add_style
ARM GAS  /tmp/ccvS2HVy.s 			page 34


 716              	.LVL83:
 688:Middlewares/lvgl/src/extra/themes/default/lv_theme_default.c ****             lv_obj_add_style(obj, &styles->tab_btn, LV_PART_ITEMS | LV_STATE_CHECKED);
 717              		.loc 1 688 13 is_stmt 1 view .LVU215
 688:Middlewares/lvgl/src/extra/themes/default/lv_theme_default.c ****             lv_obj_add_style(obj, &styles->tab_btn, LV_PART_ITEMS | LV_STATE_CHECKED);
 718              		.loc 1 688 42 is_stmt 0 view .LVU216
 719 039c 2968     		ldr	r1, [r5]
 688:Middlewares/lvgl/src/extra/themes/default/lv_theme_default.c ****             lv_obj_add_style(obj, &styles->tab_btn, LV_PART_ITEMS | LV_STATE_CHECKED);
 720              		.loc 1 688 13 view .LVU217
 721 039e A14E     		ldr	r6, .L52+12
 722 03a0 3246     		mov	r2, r6
 723 03a2 3031     		adds	r1, r1, #48
 724 03a4 2046     		mov	r0, r4
 725 03a6 FFF7FEFF 		bl	lv_obj_add_style
 726              	.LVL84:
 689:Middlewares/lvgl/src/extra/themes/default/lv_theme_default.c ****             lv_obj_add_style(obj, &styles->outline_primary, LV_PART_ITEMS | LV_STATE_FOCUS_KEY);
 727              		.loc 1 689 13 is_stmt 1 view .LVU218
 689:Middlewares/lvgl/src/extra/themes/default/lv_theme_default.c ****             lv_obj_add_style(obj, &styles->outline_primary, LV_PART_ITEMS | LV_STATE_FOCUS_KEY);
 728              		.loc 1 689 42 is_stmt 0 view .LVU219
 729 03aa 2968     		ldr	r1, [r5]
 689:Middlewares/lvgl/src/extra/themes/default/lv_theme_default.c ****             lv_obj_add_style(obj, &styles->outline_primary, LV_PART_ITEMS | LV_STATE_FOCUS_KEY);
 730              		.loc 1 689 13 view .LVU220
 731 03ac 3246     		mov	r2, r6
 732 03ae 01F5E871 		add	r1, r1, #464
 733 03b2 2046     		mov	r0, r4
 734 03b4 FFF7FEFF 		bl	lv_obj_add_style
 735              	.LVL85:
 690:Middlewares/lvgl/src/extra/themes/default/lv_theme_default.c ****             lv_obj_add_style(obj, &styles->outline_secondary, LV_PART_ITEMS | LV_STATE_EDITED);
 736              		.loc 1 690 13 is_stmt 1 view .LVU221
 690:Middlewares/lvgl/src/extra/themes/default/lv_theme_default.c ****             lv_obj_add_style(obj, &styles->outline_secondary, LV_PART_ITEMS | LV_STATE_EDITED);
 737              		.loc 1 690 42 is_stmt 0 view .LVU222
 738 03b8 2968     		ldr	r1, [r5]
 690:Middlewares/lvgl/src/extra/themes/default/lv_theme_default.c ****             lv_obj_add_style(obj, &styles->outline_secondary, LV_PART_ITEMS | LV_STATE_EDITED);
 739              		.loc 1 690 13 view .LVU223
 740 03ba 0336     		adds	r6, r6, #3
 741 03bc 3246     		mov	r2, r6
 742 03be A031     		adds	r1, r1, #160
 743 03c0 2046     		mov	r0, r4
 744 03c2 FFF7FEFF 		bl	lv_obj_add_style
 745              	.LVL86:
 691:Middlewares/lvgl/src/extra/themes/default/lv_theme_default.c ****             lv_obj_add_style(obj, &styles->tab_bg_focus, LV_PART_ITEMS | LV_STATE_FOCUS_KEY);
 746              		.loc 1 691 13 is_stmt 1 view .LVU224
 691:Middlewares/lvgl/src/extra/themes/default/lv_theme_default.c ****             lv_obj_add_style(obj, &styles->tab_bg_focus, LV_PART_ITEMS | LV_STATE_FOCUS_KEY);
 747              		.loc 1 691 42 is_stmt 0 view .LVU225
 748 03c6 2968     		ldr	r1, [r5]
 691:Middlewares/lvgl/src/extra/themes/default/lv_theme_default.c ****             lv_obj_add_style(obj, &styles->tab_bg_focus, LV_PART_ITEMS | LV_STATE_FOCUS_KEY);
 749              		.loc 1 691 13 view .LVU226
 750 03c8 984A     		ldr	r2, .L52+20
 751 03ca A831     		adds	r1, r1, #168
 752 03cc 2046     		mov	r0, r4
 753 03ce FFF7FEFF 		bl	lv_obj_add_style
 754              	.LVL87:
 692:Middlewares/lvgl/src/extra/themes/default/lv_theme_default.c ****             return;
 755              		.loc 1 692 13 is_stmt 1 view .LVU227
 692:Middlewares/lvgl/src/extra/themes/default/lv_theme_default.c ****             return;
 756              		.loc 1 692 42 is_stmt 0 view .LVU228
 757 03d2 2968     		ldr	r1, [r5]
 692:Middlewares/lvgl/src/extra/themes/default/lv_theme_default.c ****             return;
ARM GAS  /tmp/ccvS2HVy.s 			page 35


 758              		.loc 1 692 13 view .LVU229
 759 03d4 3246     		mov	r2, r6
 760 03d6 01F5E471 		add	r1, r1, #456
 761 03da 2046     		mov	r0, r4
 762 03dc FFF7FEFF 		bl	lv_obj_add_style
 763              	.LVL88:
 693:Middlewares/lvgl/src/extra/themes/default/lv_theme_default.c ****         }
 764              		.loc 1 693 13 is_stmt 1 view .LVU230
 765 03e0 23E6     		b	.L1
 766              	.L11:
 709:Middlewares/lvgl/src/extra/themes/default/lv_theme_default.c ****         lv_obj_add_style(obj, &styles->bg_color_primary_muted, 0);
 767              		.loc 1 709 10 view .LVU231
 709:Middlewares/lvgl/src/extra/themes/default/lv_theme_default.c ****         lv_obj_add_style(obj, &styles->bg_color_primary_muted, 0);
 768              		.loc 1 709 13 is_stmt 0 view .LVU232
 769 03e2 9349     		ldr	r1, .L52+24
 770 03e4 2046     		mov	r0, r4
 771 03e6 FFF7FEFF 		bl	lv_obj_check_type
 772              	.LVL89:
 709:Middlewares/lvgl/src/extra/themes/default/lv_theme_default.c ****         lv_obj_add_style(obj, &styles->bg_color_primary_muted, 0);
 773              		.loc 1 709 12 view .LVU233
 774 03ea 38B3     		cbz	r0, .L14
 710:Middlewares/lvgl/src/extra/themes/default/lv_theme_default.c ****         lv_obj_add_style(obj, &styles->circle, 0);
 775              		.loc 1 710 9 is_stmt 1 view .LVU234
 710:Middlewares/lvgl/src/extra/themes/default/lv_theme_default.c ****         lv_obj_add_style(obj, &styles->circle, 0);
 776              		.loc 1 710 38 is_stmt 0 view .LVU235
 777 03ec 8A4D     		ldr	r5, .L52
 778 03ee 2968     		ldr	r1, [r5]
 710:Middlewares/lvgl/src/extra/themes/default/lv_theme_default.c ****         lv_obj_add_style(obj, &styles->circle, 0);
 779              		.loc 1 710 9 view .LVU236
 780 03f0 0022     		movs	r2, #0
 781 03f2 3031     		adds	r1, r1, #48
 782 03f4 2046     		mov	r0, r4
 783 03f6 FFF7FEFF 		bl	lv_obj_add_style
 784              	.LVL90:
 711:Middlewares/lvgl/src/extra/themes/default/lv_theme_default.c ****         lv_obj_add_style(obj, &styles->outline_primary, LV_STATE_FOCUS_KEY);
 785              		.loc 1 711 9 is_stmt 1 view .LVU237
 711:Middlewares/lvgl/src/extra/themes/default/lv_theme_default.c ****         lv_obj_add_style(obj, &styles->outline_primary, LV_STATE_FOCUS_KEY);
 786              		.loc 1 711 38 is_stmt 0 view .LVU238
 787 03fa 2968     		ldr	r1, [r5]
 711:Middlewares/lvgl/src/extra/themes/default/lv_theme_default.c ****         lv_obj_add_style(obj, &styles->outline_primary, LV_STATE_FOCUS_KEY);
 788              		.loc 1 711 9 view .LVU239
 789 03fc 0022     		movs	r2, #0
 790 03fe B031     		adds	r1, r1, #176
 791 0400 2046     		mov	r0, r4
 792 0402 FFF7FEFF 		bl	lv_obj_add_style
 793              	.LVL91:
 712:Middlewares/lvgl/src/extra/themes/default/lv_theme_default.c ****         lv_obj_add_style(obj, &styles->outline_secondary, LV_STATE_EDITED);
 794              		.loc 1 712 9 is_stmt 1 view .LVU240
 712:Middlewares/lvgl/src/extra/themes/default/lv_theme_default.c ****         lv_obj_add_style(obj, &styles->outline_secondary, LV_STATE_EDITED);
 795              		.loc 1 712 38 is_stmt 0 view .LVU241
 796 0406 2968     		ldr	r1, [r5]
 712:Middlewares/lvgl/src/extra/themes/default/lv_theme_default.c ****         lv_obj_add_style(obj, &styles->outline_secondary, LV_STATE_EDITED);
 797              		.loc 1 712 9 view .LVU242
 798 0408 0422     		movs	r2, #4
 799 040a A031     		adds	r1, r1, #160
 800 040c 2046     		mov	r0, r4
 801 040e FFF7FEFF 		bl	lv_obj_add_style
ARM GAS  /tmp/ccvS2HVy.s 			page 36


 802              	.LVL92:
 713:Middlewares/lvgl/src/extra/themes/default/lv_theme_default.c ****         lv_obj_add_style(obj, &styles->bg_color_primary, LV_PART_INDICATOR);
 803              		.loc 1 713 9 is_stmt 1 view .LVU243
 713:Middlewares/lvgl/src/extra/themes/default/lv_theme_default.c ****         lv_obj_add_style(obj, &styles->bg_color_primary, LV_PART_INDICATOR);
 804              		.loc 1 713 38 is_stmt 0 view .LVU244
 805 0412 2968     		ldr	r1, [r5]
 713:Middlewares/lvgl/src/extra/themes/default/lv_theme_default.c ****         lv_obj_add_style(obj, &styles->bg_color_primary, LV_PART_INDICATOR);
 806              		.loc 1 713 9 view .LVU245
 807 0414 0822     		movs	r2, #8
 808 0416 A831     		adds	r1, r1, #168
 809 0418 2046     		mov	r0, r4
 810 041a FFF7FEFF 		bl	lv_obj_add_style
 811              	.LVL93:
 714:Middlewares/lvgl/src/extra/themes/default/lv_theme_default.c ****         lv_obj_add_style(obj, &styles->circle, LV_PART_INDICATOR);
 812              		.loc 1 714 9 is_stmt 1 view .LVU246
 714:Middlewares/lvgl/src/extra/themes/default/lv_theme_default.c ****         lv_obj_add_style(obj, &styles->circle, LV_PART_INDICATOR);
 813              		.loc 1 714 38 is_stmt 0 view .LVU247
 814 041e 2968     		ldr	r1, [r5]
 714:Middlewares/lvgl/src/extra/themes/default/lv_theme_default.c ****         lv_obj_add_style(obj, &styles->circle, LV_PART_INDICATOR);
 815              		.loc 1 714 9 view .LVU248
 816 0420 4FF40032 		mov	r2, #131072
 817 0424 2831     		adds	r1, r1, #40
 818 0426 2046     		mov	r0, r4
 819 0428 FFF7FEFF 		bl	lv_obj_add_style
 820              	.LVL94:
 715:Middlewares/lvgl/src/extra/themes/default/lv_theme_default.c ****     }
 821              		.loc 1 715 9 is_stmt 1 view .LVU249
 715:Middlewares/lvgl/src/extra/themes/default/lv_theme_default.c ****     }
 822              		.loc 1 715 38 is_stmt 0 view .LVU250
 823 042c 2968     		ldr	r1, [r5]
 715:Middlewares/lvgl/src/extra/themes/default/lv_theme_default.c ****     }
 824              		.loc 1 715 9 view .LVU251
 825 042e 4FF40032 		mov	r2, #131072
 826 0432 B031     		adds	r1, r1, #176
 827 0434 2046     		mov	r0, r4
 828 0436 FFF7FEFF 		bl	lv_obj_add_style
 829              	.LVL95:
 830 043a B9E6     		b	.L8
 831              	.L14:
 720:Middlewares/lvgl/src/extra/themes/default/lv_theme_default.c ****         lv_obj_add_style(obj, &styles->bg_color_primary_muted, 0);
 832              		.loc 1 720 10 is_stmt 1 view .LVU252
 720:Middlewares/lvgl/src/extra/themes/default/lv_theme_default.c ****         lv_obj_add_style(obj, &styles->bg_color_primary_muted, 0);
 833              		.loc 1 720 13 is_stmt 0 view .LVU253
 834 043c 7D49     		ldr	r1, .L52+28
 835 043e 2046     		mov	r0, r4
 836 0440 FFF7FEFF 		bl	lv_obj_check_type
 837              	.LVL96:
 720:Middlewares/lvgl/src/extra/themes/default/lv_theme_default.c ****         lv_obj_add_style(obj, &styles->bg_color_primary_muted, 0);
 838              		.loc 1 720 12 view .LVU254
 839 0444 0028     		cmp	r0, #0
 840 0446 42D0     		beq	.L15
 721:Middlewares/lvgl/src/extra/themes/default/lv_theme_default.c ****         lv_obj_add_style(obj, &styles->circle, 0);
 841              		.loc 1 721 9 is_stmt 1 view .LVU255
 721:Middlewares/lvgl/src/extra/themes/default/lv_theme_default.c ****         lv_obj_add_style(obj, &styles->circle, 0);
 842              		.loc 1 721 38 is_stmt 0 view .LVU256
 843 0448 734D     		ldr	r5, .L52
 844 044a 2968     		ldr	r1, [r5]
ARM GAS  /tmp/ccvS2HVy.s 			page 37


 721:Middlewares/lvgl/src/extra/themes/default/lv_theme_default.c ****         lv_obj_add_style(obj, &styles->circle, 0);
 845              		.loc 1 721 9 view .LVU257
 846 044c 0022     		movs	r2, #0
 847 044e 3031     		adds	r1, r1, #48
 848 0450 2046     		mov	r0, r4
 849 0452 FFF7FEFF 		bl	lv_obj_add_style
 850              	.LVL97:
 722:Middlewares/lvgl/src/extra/themes/default/lv_theme_default.c ****         lv_obj_add_style(obj, &styles->outline_primary, LV_STATE_FOCUS_KEY);
 851              		.loc 1 722 9 is_stmt 1 view .LVU258
 722:Middlewares/lvgl/src/extra/themes/default/lv_theme_default.c ****         lv_obj_add_style(obj, &styles->outline_primary, LV_STATE_FOCUS_KEY);
 852              		.loc 1 722 38 is_stmt 0 view .LVU259
 853 0456 2968     		ldr	r1, [r5]
 722:Middlewares/lvgl/src/extra/themes/default/lv_theme_default.c ****         lv_obj_add_style(obj, &styles->outline_primary, LV_STATE_FOCUS_KEY);
 854              		.loc 1 722 9 view .LVU260
 855 0458 0022     		movs	r2, #0
 856 045a B031     		adds	r1, r1, #176
 857 045c 2046     		mov	r0, r4
 858 045e FFF7FEFF 		bl	lv_obj_add_style
 859              	.LVL98:
 723:Middlewares/lvgl/src/extra/themes/default/lv_theme_default.c ****         lv_obj_add_style(obj, &styles->outline_secondary, LV_STATE_EDITED);
 860              		.loc 1 723 9 is_stmt 1 view .LVU261
 723:Middlewares/lvgl/src/extra/themes/default/lv_theme_default.c ****         lv_obj_add_style(obj, &styles->outline_secondary, LV_STATE_EDITED);
 861              		.loc 1 723 38 is_stmt 0 view .LVU262
 862 0462 2968     		ldr	r1, [r5]
 723:Middlewares/lvgl/src/extra/themes/default/lv_theme_default.c ****         lv_obj_add_style(obj, &styles->outline_secondary, LV_STATE_EDITED);
 863              		.loc 1 723 9 view .LVU263
 864 0464 0422     		movs	r2, #4
 865 0466 A031     		adds	r1, r1, #160
 866 0468 2046     		mov	r0, r4
 867 046a FFF7FEFF 		bl	lv_obj_add_style
 868              	.LVL99:
 724:Middlewares/lvgl/src/extra/themes/default/lv_theme_default.c ****         lv_obj_add_style(obj, &styles->bg_color_primary, LV_PART_INDICATOR);
 869              		.loc 1 724 9 is_stmt 1 view .LVU264
 724:Middlewares/lvgl/src/extra/themes/default/lv_theme_default.c ****         lv_obj_add_style(obj, &styles->bg_color_primary, LV_PART_INDICATOR);
 870              		.loc 1 724 38 is_stmt 0 view .LVU265
 871 046e 2968     		ldr	r1, [r5]
 724:Middlewares/lvgl/src/extra/themes/default/lv_theme_default.c ****         lv_obj_add_style(obj, &styles->bg_color_primary, LV_PART_INDICATOR);
 872              		.loc 1 724 9 view .LVU266
 873 0470 0822     		movs	r2, #8
 874 0472 A831     		adds	r1, r1, #168
 875 0474 2046     		mov	r0, r4
 876 0476 FFF7FEFF 		bl	lv_obj_add_style
 877              	.LVL100:
 725:Middlewares/lvgl/src/extra/themes/default/lv_theme_default.c ****         lv_obj_add_style(obj, &styles->circle, LV_PART_INDICATOR);
 878              		.loc 1 725 9 is_stmt 1 view .LVU267
 725:Middlewares/lvgl/src/extra/themes/default/lv_theme_default.c ****         lv_obj_add_style(obj, &styles->circle, LV_PART_INDICATOR);
 879              		.loc 1 725 38 is_stmt 0 view .LVU268
 880 047a 2968     		ldr	r1, [r5]
 725:Middlewares/lvgl/src/extra/themes/default/lv_theme_default.c ****         lv_obj_add_style(obj, &styles->circle, LV_PART_INDICATOR);
 881              		.loc 1 725 9 view .LVU269
 882 047c 4FF40032 		mov	r2, #131072
 883 0480 2831     		adds	r1, r1, #40
 884 0482 2046     		mov	r0, r4
 885 0484 FFF7FEFF 		bl	lv_obj_add_style
 886              	.LVL101:
 726:Middlewares/lvgl/src/extra/themes/default/lv_theme_default.c ****         lv_obj_add_style(obj, &styles->knob, LV_PART_KNOB);
 887              		.loc 1 726 9 is_stmt 1 view .LVU270
ARM GAS  /tmp/ccvS2HVy.s 			page 38


 726:Middlewares/lvgl/src/extra/themes/default/lv_theme_default.c ****         lv_obj_add_style(obj, &styles->knob, LV_PART_KNOB);
 888              		.loc 1 726 38 is_stmt 0 view .LVU271
 889 0488 2968     		ldr	r1, [r5]
 726:Middlewares/lvgl/src/extra/themes/default/lv_theme_default.c ****         lv_obj_add_style(obj, &styles->knob, LV_PART_KNOB);
 890              		.loc 1 726 9 view .LVU272
 891 048a 4FF40032 		mov	r2, #131072
 892 048e B031     		adds	r1, r1, #176
 893 0490 2046     		mov	r0, r4
 894 0492 FFF7FEFF 		bl	lv_obj_add_style
 895              	.LVL102:
 727:Middlewares/lvgl/src/extra/themes/default/lv_theme_default.c **** #if LV_THEME_DEFAULT_GROW
 896              		.loc 1 727 9 is_stmt 1 view .LVU273
 727:Middlewares/lvgl/src/extra/themes/default/lv_theme_default.c **** #if LV_THEME_DEFAULT_GROW
 897              		.loc 1 727 38 is_stmt 0 view .LVU274
 898 0496 2968     		ldr	r1, [r5]
 727:Middlewares/lvgl/src/extra/themes/default/lv_theme_default.c **** #if LV_THEME_DEFAULT_GROW
 899              		.loc 1 727 9 view .LVU275
 900 0498 4FF44032 		mov	r2, #196608
 901 049c E831     		adds	r1, r1, #232
 902 049e 2046     		mov	r0, r4
 903 04a0 FFF7FEFF 		bl	lv_obj_add_style
 904              	.LVL103:
 729:Middlewares/lvgl/src/extra/themes/default/lv_theme_default.c **** #endif
 905              		.loc 1 729 9 is_stmt 1 view .LVU276
 729:Middlewares/lvgl/src/extra/themes/default/lv_theme_default.c **** #endif
 906              		.loc 1 729 38 is_stmt 0 view .LVU277
 907 04a4 2968     		ldr	r1, [r5]
 729:Middlewares/lvgl/src/extra/themes/default/lv_theme_default.c **** #endif
 908              		.loc 1 729 9 view .LVU278
 909 04a6 644E     		ldr	r6, .L52+32
 910 04a8 3246     		mov	r2, r6
 911 04aa C831     		adds	r1, r1, #200
 912 04ac 2046     		mov	r0, r4
 913 04ae FFF7FEFF 		bl	lv_obj_add_style
 914              	.LVL104:
 731:Middlewares/lvgl/src/extra/themes/default/lv_theme_default.c ****         lv_obj_add_style(obj, &styles->transition_normal, LV_PART_KNOB | LV_STATE_PRESSED);
 915              		.loc 1 731 9 is_stmt 1 view .LVU279
 731:Middlewares/lvgl/src/extra/themes/default/lv_theme_default.c ****         lv_obj_add_style(obj, &styles->transition_normal, LV_PART_KNOB | LV_STATE_PRESSED);
 916              		.loc 1 731 38 is_stmt 0 view .LVU280
 917 04b2 2968     		ldr	r1, [r5]
 731:Middlewares/lvgl/src/extra/themes/default/lv_theme_default.c ****         lv_obj_add_style(obj, &styles->transition_normal, LV_PART_KNOB | LV_STATE_PRESSED);
 918              		.loc 1 731 9 view .LVU281
 919 04b4 4FF44032 		mov	r2, #196608
 920 04b8 D031     		adds	r1, r1, #208
 921 04ba 2046     		mov	r0, r4
 922 04bc FFF7FEFF 		bl	lv_obj_add_style
 923              	.LVL105:
 732:Middlewares/lvgl/src/extra/themes/default/lv_theme_default.c ****     }
 924              		.loc 1 732 9 is_stmt 1 view .LVU282
 732:Middlewares/lvgl/src/extra/themes/default/lv_theme_default.c ****     }
 925              		.loc 1 732 38 is_stmt 0 view .LVU283
 926 04c0 2968     		ldr	r1, [r5]
 732:Middlewares/lvgl/src/extra/themes/default/lv_theme_default.c ****     }
 927              		.loc 1 732 9 view .LVU284
 928 04c2 3246     		mov	r2, r6
 929 04c4 D831     		adds	r1, r1, #216
 930 04c6 2046     		mov	r0, r4
ARM GAS  /tmp/ccvS2HVy.s 			page 39


 931 04c8 FFF7FEFF 		bl	lv_obj_add_style
 932              	.LVL106:
 933 04cc 70E6     		b	.L8
 934              	.L15:
 737:Middlewares/lvgl/src/extra/themes/default/lv_theme_default.c ****         lv_obj_add_style(obj, &styles->card, 0);
 935              		.loc 1 737 10 is_stmt 1 view .LVU285
 737:Middlewares/lvgl/src/extra/themes/default/lv_theme_default.c ****         lv_obj_add_style(obj, &styles->card, 0);
 936              		.loc 1 737 13 is_stmt 0 view .LVU286
 937 04ce 5B49     		ldr	r1, .L52+36
 938 04d0 2046     		mov	r0, r4
 939 04d2 FFF7FEFF 		bl	lv_obj_check_type
 940              	.LVL107:
 737:Middlewares/lvgl/src/extra/themes/default/lv_theme_default.c ****         lv_obj_add_style(obj, &styles->card, 0);
 941              		.loc 1 737 12 view .LVU287
 942 04d6 0028     		cmp	r0, #0
 943 04d8 54D0     		beq	.L16
 738:Middlewares/lvgl/src/extra/themes/default/lv_theme_default.c ****         lv_obj_add_style(obj, &styles->pad_zero, 0);
 944              		.loc 1 738 9 is_stmt 1 view .LVU288
 738:Middlewares/lvgl/src/extra/themes/default/lv_theme_default.c ****         lv_obj_add_style(obj, &styles->pad_zero, 0);
 945              		.loc 1 738 38 is_stmt 0 view .LVU289
 946 04da 4F4D     		ldr	r5, .L52
 947 04dc 2968     		ldr	r1, [r5]
 738:Middlewares/lvgl/src/extra/themes/default/lv_theme_default.c ****         lv_obj_add_style(obj, &styles->pad_zero, 0);
 948              		.loc 1 738 9 view .LVU290
 949 04de 0022     		movs	r2, #0
 950 04e0 1831     		adds	r1, r1, #24
 951 04e2 2046     		mov	r0, r4
 952 04e4 FFF7FEFF 		bl	lv_obj_add_style
 953              	.LVL108:
 739:Middlewares/lvgl/src/extra/themes/default/lv_theme_default.c ****         lv_obj_add_style(obj, &styles->no_radius, 0);
 954              		.loc 1 739 9 is_stmt 1 view .LVU291
 739:Middlewares/lvgl/src/extra/themes/default/lv_theme_default.c ****         lv_obj_add_style(obj, &styles->no_radius, 0);
 955              		.loc 1 739 38 is_stmt 0 view .LVU292
 956 04e8 2968     		ldr	r1, [r5]
 739:Middlewares/lvgl/src/extra/themes/default/lv_theme_default.c ****         lv_obj_add_style(obj, &styles->no_radius, 0);
 957              		.loc 1 739 9 view .LVU293
 958 04ea 0022     		movs	r2, #0
 959 04ec 6831     		adds	r1, r1, #104
 960 04ee 2046     		mov	r0, r4
 961 04f0 FFF7FEFF 		bl	lv_obj_add_style
 962              	.LVL109:
 740:Middlewares/lvgl/src/extra/themes/default/lv_theme_default.c ****         lv_obj_add_style(obj, &styles->outline_primary, LV_STATE_FOCUS_KEY);
 963              		.loc 1 740 9 is_stmt 1 view .LVU294
 740:Middlewares/lvgl/src/extra/themes/default/lv_theme_default.c ****         lv_obj_add_style(obj, &styles->outline_primary, LV_STATE_FOCUS_KEY);
 964              		.loc 1 740 38 is_stmt 0 view .LVU295
 965 04f4 2968     		ldr	r1, [r5]
 740:Middlewares/lvgl/src/extra/themes/default/lv_theme_default.c ****         lv_obj_add_style(obj, &styles->outline_primary, LV_STATE_FOCUS_KEY);
 966              		.loc 1 740 9 view .LVU296
 967 04f6 0022     		movs	r2, #0
 968 04f8 B831     		adds	r1, r1, #184
 969 04fa 2046     		mov	r0, r4
 970 04fc FFF7FEFF 		bl	lv_obj_add_style
 971              	.LVL110:
 741:Middlewares/lvgl/src/extra/themes/default/lv_theme_default.c ****         lv_obj_add_style(obj, &styles->outline_secondary, LV_STATE_EDITED);
 972              		.loc 1 741 9 is_stmt 1 view .LVU297
 741:Middlewares/lvgl/src/extra/themes/default/lv_theme_default.c ****         lv_obj_add_style(obj, &styles->outline_secondary, LV_STATE_EDITED);
 973              		.loc 1 741 38 is_stmt 0 view .LVU298
ARM GAS  /tmp/ccvS2HVy.s 			page 40


 974 0500 2968     		ldr	r1, [r5]
 741:Middlewares/lvgl/src/extra/themes/default/lv_theme_default.c ****         lv_obj_add_style(obj, &styles->outline_secondary, LV_STATE_EDITED);
 975              		.loc 1 741 9 view .LVU299
 976 0502 0422     		movs	r2, #4
 977 0504 A031     		adds	r1, r1, #160
 978 0506 2046     		mov	r0, r4
 979 0508 FFF7FEFF 		bl	lv_obj_add_style
 980              	.LVL111:
 742:Middlewares/lvgl/src/extra/themes/default/lv_theme_default.c ****         lv_obj_add_style(obj, &styles->scrollbar, LV_PART_SCROLLBAR);
 981              		.loc 1 742 9 is_stmt 1 view .LVU300
 742:Middlewares/lvgl/src/extra/themes/default/lv_theme_default.c ****         lv_obj_add_style(obj, &styles->scrollbar, LV_PART_SCROLLBAR);
 982              		.loc 1 742 38 is_stmt 0 view .LVU301
 983 050c 2968     		ldr	r1, [r5]
 742:Middlewares/lvgl/src/extra/themes/default/lv_theme_default.c ****         lv_obj_add_style(obj, &styles->scrollbar, LV_PART_SCROLLBAR);
 984              		.loc 1 742 9 view .LVU302
 985 050e 0822     		movs	r2, #8
 986 0510 A831     		adds	r1, r1, #168
 987 0512 2046     		mov	r0, r4
 988 0514 FFF7FEFF 		bl	lv_obj_add_style
 989              	.LVL112:
 743:Middlewares/lvgl/src/extra/themes/default/lv_theme_default.c ****         lv_obj_add_style(obj, &styles->scrollbar_scrolled, LV_PART_SCROLLBAR | LV_STATE_SCROLLED);
 990              		.loc 1 743 9 is_stmt 1 view .LVU303
 743:Middlewares/lvgl/src/extra/themes/default/lv_theme_default.c ****         lv_obj_add_style(obj, &styles->scrollbar_scrolled, LV_PART_SCROLLBAR | LV_STATE_SCROLLED);
 991              		.loc 1 743 38 is_stmt 0 view .LVU304
 992 0518 2968     		ldr	r1, [r5]
 743:Middlewares/lvgl/src/extra/themes/default/lv_theme_default.c ****         lv_obj_add_style(obj, &styles->scrollbar_scrolled, LV_PART_SCROLLBAR | LV_STATE_SCROLLED);
 993              		.loc 1 743 9 view .LVU305
 994 051a 4FF48032 		mov	r2, #65536
 995 051e 0831     		adds	r1, r1, #8
 996 0520 2046     		mov	r0, r4
 997 0522 FFF7FEFF 		bl	lv_obj_add_style
 998              	.LVL113:
 744:Middlewares/lvgl/src/extra/themes/default/lv_theme_default.c ****         lv_obj_add_style(obj, &styles->bg_color_white, LV_PART_ITEMS);
 999              		.loc 1 744 9 is_stmt 1 view .LVU306
 744:Middlewares/lvgl/src/extra/themes/default/lv_theme_default.c ****         lv_obj_add_style(obj, &styles->bg_color_white, LV_PART_ITEMS);
 1000              		.loc 1 744 38 is_stmt 0 view .LVU307
 1001 0526 2968     		ldr	r1, [r5]
 744:Middlewares/lvgl/src/extra/themes/default/lv_theme_default.c ****         lv_obj_add_style(obj, &styles->bg_color_white, LV_PART_ITEMS);
 1002              		.loc 1 744 9 view .LVU308
 1003 0528 454A     		ldr	r2, .L52+40
 1004 052a 1031     		adds	r1, r1, #16
 1005 052c 2046     		mov	r0, r4
 1006 052e FFF7FEFF 		bl	lv_obj_add_style
 1007              	.LVL114:
 745:Middlewares/lvgl/src/extra/themes/default/lv_theme_default.c ****         lv_obj_add_style(obj, &styles->table_cell, LV_PART_ITEMS);
 1008              		.loc 1 745 9 is_stmt 1 view .LVU309
 745:Middlewares/lvgl/src/extra/themes/default/lv_theme_default.c ****         lv_obj_add_style(obj, &styles->table_cell, LV_PART_ITEMS);
 1009              		.loc 1 745 38 is_stmt 0 view .LVU310
 1010 0532 2968     		ldr	r1, [r5]
 745:Middlewares/lvgl/src/extra/themes/default/lv_theme_default.c ****         lv_obj_add_style(obj, &styles->table_cell, LV_PART_ITEMS);
 1011              		.loc 1 745 9 view .LVU311
 1012 0534 4FF4A022 		mov	r2, #327680
 1013 0538 5031     		adds	r1, r1, #80
 1014 053a 2046     		mov	r0, r4
 1015 053c FFF7FEFF 		bl	lv_obj_add_style
 1016              	.LVL115:
 746:Middlewares/lvgl/src/extra/themes/default/lv_theme_default.c ****         lv_obj_add_style(obj, &styles->pad_normal, LV_PART_ITEMS);
ARM GAS  /tmp/ccvS2HVy.s 			page 41


 1017              		.loc 1 746 9 is_stmt 1 view .LVU312
 746:Middlewares/lvgl/src/extra/themes/default/lv_theme_default.c ****         lv_obj_add_style(obj, &styles->pad_normal, LV_PART_ITEMS);
 1018              		.loc 1 746 38 is_stmt 0 view .LVU313
 1019 0540 2968     		ldr	r1, [r5]
 746:Middlewares/lvgl/src/extra/themes/default/lv_theme_default.c ****         lv_obj_add_style(obj, &styles->pad_normal, LV_PART_ITEMS);
 1020              		.loc 1 746 9 view .LVU314
 1021 0542 4FF4A022 		mov	r2, #327680
 1022 0546 01F5A871 		add	r1, r1, #336
 1023 054a 2046     		mov	r0, r4
 1024 054c FFF7FEFF 		bl	lv_obj_add_style
 1025              	.LVL116:
 747:Middlewares/lvgl/src/extra/themes/default/lv_theme_default.c ****         lv_obj_add_style(obj, &styles->pressed, LV_PART_ITEMS | LV_STATE_PRESSED);
 1026              		.loc 1 747 9 is_stmt 1 view .LVU315
 747:Middlewares/lvgl/src/extra/themes/default/lv_theme_default.c ****         lv_obj_add_style(obj, &styles->pressed, LV_PART_ITEMS | LV_STATE_PRESSED);
 1027              		.loc 1 747 38 is_stmt 0 view .LVU316
 1028 0550 2968     		ldr	r1, [r5]
 747:Middlewares/lvgl/src/extra/themes/default/lv_theme_default.c ****         lv_obj_add_style(obj, &styles->pressed, LV_PART_ITEMS | LV_STATE_PRESSED);
 1029              		.loc 1 747 9 view .LVU317
 1030 0552 4FF4A022 		mov	r2, #327680
 1031 0556 8031     		adds	r1, r1, #128
 1032 0558 2046     		mov	r0, r4
 1033 055a FFF7FEFF 		bl	lv_obj_add_style
 1034              	.LVL117:
 748:Middlewares/lvgl/src/extra/themes/default/lv_theme_default.c ****         lv_obj_add_style(obj, &styles->bg_color_primary, LV_PART_ITEMS | LV_STATE_FOCUS_KEY);
 1035              		.loc 1 748 9 is_stmt 1 view .LVU318
 748:Middlewares/lvgl/src/extra/themes/default/lv_theme_default.c ****         lv_obj_add_style(obj, &styles->bg_color_primary, LV_PART_ITEMS | LV_STATE_FOCUS_KEY);
 1036              		.loc 1 748 38 is_stmt 0 view .LVU319
 1037 055e 2968     		ldr	r1, [r5]
 748:Middlewares/lvgl/src/extra/themes/default/lv_theme_default.c ****         lv_obj_add_style(obj, &styles->bg_color_primary, LV_PART_ITEMS | LV_STATE_FOCUS_KEY);
 1038              		.loc 1 748 9 view .LVU320
 1039 0560 2E4A     		ldr	r2, .L52+4
 1040 0562 5831     		adds	r1, r1, #88
 1041 0564 2046     		mov	r0, r4
 1042 0566 FFF7FEFF 		bl	lv_obj_add_style
 1043              	.LVL118:
 749:Middlewares/lvgl/src/extra/themes/default/lv_theme_default.c ****         lv_obj_add_style(obj, &styles->bg_color_secondary, LV_PART_ITEMS | LV_STATE_EDITED);
 1044              		.loc 1 749 9 is_stmt 1 view .LVU321
 749:Middlewares/lvgl/src/extra/themes/default/lv_theme_default.c ****         lv_obj_add_style(obj, &styles->bg_color_secondary, LV_PART_ITEMS | LV_STATE_EDITED);
 1045              		.loc 1 749 38 is_stmt 0 view .LVU322
 1046 056a 2968     		ldr	r1, [r5]
 749:Middlewares/lvgl/src/extra/themes/default/lv_theme_default.c ****         lv_obj_add_style(obj, &styles->bg_color_secondary, LV_PART_ITEMS | LV_STATE_EDITED);
 1047              		.loc 1 749 9 view .LVU323
 1048 056c 2E4A     		ldr	r2, .L52+16
 1049 056e 2831     		adds	r1, r1, #40
 1050 0570 2046     		mov	r0, r4
 1051 0572 FFF7FEFF 		bl	lv_obj_add_style
 1052              	.LVL119:
 750:Middlewares/lvgl/src/extra/themes/default/lv_theme_default.c ****     }
 1053              		.loc 1 750 9 is_stmt 1 view .LVU324
 750:Middlewares/lvgl/src/extra/themes/default/lv_theme_default.c ****     }
 1054              		.loc 1 750 38 is_stmt 0 view .LVU325
 1055 0576 2968     		ldr	r1, [r5]
 750:Middlewares/lvgl/src/extra/themes/default/lv_theme_default.c ****     }
 1056              		.loc 1 750 9 view .LVU326
 1057 0578 2C4A     		ldr	r2, .L52+20
 1058 057a 3831     		adds	r1, r1, #56
 1059 057c 2046     		mov	r0, r4
ARM GAS  /tmp/ccvS2HVy.s 			page 42


 1060 057e FFF7FEFF 		bl	lv_obj_add_style
 1061              	.LVL120:
 1062 0582 15E6     		b	.L8
 1063              	.L16:
 755:Middlewares/lvgl/src/extra/themes/default/lv_theme_default.c ****         lv_obj_add_style(obj, &styles->pad_gap, 0);
 1064              		.loc 1 755 10 is_stmt 1 view .LVU327
 755:Middlewares/lvgl/src/extra/themes/default/lv_theme_default.c ****         lv_obj_add_style(obj, &styles->pad_gap, 0);
 1065              		.loc 1 755 13 is_stmt 0 view .LVU328
 1066 0584 2F49     		ldr	r1, .L52+44
 1067 0586 2046     		mov	r0, r4
 1068 0588 FFF7FEFF 		bl	lv_obj_check_type
 1069              	.LVL121:
 755:Middlewares/lvgl/src/extra/themes/default/lv_theme_default.c ****         lv_obj_add_style(obj, &styles->pad_gap, 0);
 1070              		.loc 1 755 12 view .LVU329
 1071 058c 0028     		cmp	r0, #0
 1072 058e 5FD0     		beq	.L17
 756:Middlewares/lvgl/src/extra/themes/default/lv_theme_default.c ****         lv_obj_add_style(obj, &styles->outline_primary, LV_STATE_FOCUS_KEY);
 1073              		.loc 1 756 9 is_stmt 1 view .LVU330
 756:Middlewares/lvgl/src/extra/themes/default/lv_theme_default.c ****         lv_obj_add_style(obj, &styles->outline_primary, LV_STATE_FOCUS_KEY);
 1074              		.loc 1 756 38 is_stmt 0 view .LVU331
 1075 0590 214D     		ldr	r5, .L52
 1076 0592 2968     		ldr	r1, [r5]
 756:Middlewares/lvgl/src/extra/themes/default/lv_theme_default.c ****         lv_obj_add_style(obj, &styles->outline_primary, LV_STATE_FOCUS_KEY);
 1077              		.loc 1 756 9 view .LVU332
 1078 0594 0022     		movs	r2, #0
 1079 0596 8831     		adds	r1, r1, #136
 1080 0598 2046     		mov	r0, r4
 1081 059a FFF7FEFF 		bl	lv_obj_add_style
 1082              	.LVL122:
 757:Middlewares/lvgl/src/extra/themes/default/lv_theme_default.c ****         lv_obj_add_style(obj, &styles->disabled, LV_PART_INDICATOR | LV_STATE_DISABLED);
 1083              		.loc 1 757 9 is_stmt 1 view .LVU333
 757:Middlewares/lvgl/src/extra/themes/default/lv_theme_default.c ****         lv_obj_add_style(obj, &styles->disabled, LV_PART_INDICATOR | LV_STATE_DISABLED);
 1084              		.loc 1 757 38 is_stmt 0 view .LVU334
 1085 059e 2968     		ldr	r1, [r5]
 757:Middlewares/lvgl/src/extra/themes/default/lv_theme_default.c ****         lv_obj_add_style(obj, &styles->disabled, LV_PART_INDICATOR | LV_STATE_DISABLED);
 1086              		.loc 1 757 9 view .LVU335
 1087 05a0 0422     		movs	r2, #4
 1088 05a2 A031     		adds	r1, r1, #160
 1089 05a4 2046     		mov	r0, r4
 1090 05a6 FFF7FEFF 		bl	lv_obj_add_style
 1091              	.LVL123:
 758:Middlewares/lvgl/src/extra/themes/default/lv_theme_default.c ****         lv_obj_add_style(obj, &styles->cb_marker, LV_PART_INDICATOR);
 1092              		.loc 1 758 9 is_stmt 1 view .LVU336
 758:Middlewares/lvgl/src/extra/themes/default/lv_theme_default.c ****         lv_obj_add_style(obj, &styles->cb_marker, LV_PART_INDICATOR);
 1093              		.loc 1 758 38 is_stmt 0 view .LVU337
 1094 05aa 2968     		ldr	r1, [r5]
 758:Middlewares/lvgl/src/extra/themes/default/lv_theme_default.c ****         lv_obj_add_style(obj, &styles->cb_marker, LV_PART_INDICATOR);
 1095              		.loc 1 758 9 view .LVU338
 1096 05ac 264A     		ldr	r2, .L52+48
 1097 05ae 6031     		adds	r1, r1, #96
 1098 05b0 2046     		mov	r0, r4
 1099 05b2 FFF7FEFF 		bl	lv_obj_add_style
 1100              	.LVL124:
 759:Middlewares/lvgl/src/extra/themes/default/lv_theme_default.c ****         lv_obj_add_style(obj, &styles->bg_color_primary, LV_PART_INDICATOR | LV_STATE_CHECKED);
 1101              		.loc 1 759 9 is_stmt 1 view .LVU339
 759:Middlewares/lvgl/src/extra/themes/default/lv_theme_default.c ****         lv_obj_add_style(obj, &styles->bg_color_primary, LV_PART_INDICATOR | LV_STATE_CHECKED);
 1102              		.loc 1 759 38 is_stmt 0 view .LVU340
ARM GAS  /tmp/ccvS2HVy.s 			page 43


 1103 05b6 2968     		ldr	r1, [r5]
 759:Middlewares/lvgl/src/extra/themes/default/lv_theme_default.c ****         lv_obj_add_style(obj, &styles->bg_color_primary, LV_PART_INDICATOR | LV_STATE_CHECKED);
 1104              		.loc 1 759 9 view .LVU341
 1105 05b8 4FF40032 		mov	r2, #131072
 1106 05bc 01F59871 		add	r1, r1, #304
 1107 05c0 2046     		mov	r0, r4
 1108 05c2 FFF7FEFF 		bl	lv_obj_add_style
 1109              	.LVL125:
 760:Middlewares/lvgl/src/extra/themes/default/lv_theme_default.c ****         lv_obj_add_style(obj, &styles->cb_marker_checked, LV_PART_INDICATOR | LV_STATE_CHECKED);
 1110              		.loc 1 760 9 is_stmt 1 view .LVU342
 760:Middlewares/lvgl/src/extra/themes/default/lv_theme_default.c ****         lv_obj_add_style(obj, &styles->cb_marker_checked, LV_PART_INDICATOR | LV_STATE_CHECKED);
 1111              		.loc 1 760 38 is_stmt 0 view .LVU343
 1112 05c6 2968     		ldr	r1, [r5]
 760:Middlewares/lvgl/src/extra/themes/default/lv_theme_default.c ****         lv_obj_add_style(obj, &styles->cb_marker_checked, LV_PART_INDICATOR | LV_STATE_CHECKED);
 1113              		.loc 1 760 9 view .LVU344
 1114 05c8 204E     		ldr	r6, .L52+52
 1115 05ca 3246     		mov	r2, r6
 1116 05cc 2831     		adds	r1, r1, #40
 1117 05ce 2046     		mov	r0, r4
 1118 05d0 FFF7FEFF 		bl	lv_obj_add_style
 1119              	.LVL126:
 761:Middlewares/lvgl/src/extra/themes/default/lv_theme_default.c ****         lv_obj_add_style(obj, &styles->pressed, LV_PART_INDICATOR | LV_STATE_PRESSED);
 1120              		.loc 1 761 9 is_stmt 1 view .LVU345
 761:Middlewares/lvgl/src/extra/themes/default/lv_theme_default.c ****         lv_obj_add_style(obj, &styles->pressed, LV_PART_INDICATOR | LV_STATE_PRESSED);
 1121              		.loc 1 761 38 is_stmt 0 view .LVU346
 1122 05d4 2968     		ldr	r1, [r5]
 761:Middlewares/lvgl/src/extra/themes/default/lv_theme_default.c ****         lv_obj_add_style(obj, &styles->pressed, LV_PART_INDICATOR | LV_STATE_PRESSED);
 1123              		.loc 1 761 9 view .LVU347
 1124 05d6 3246     		mov	r2, r6
 1125 05d8 01F59C71 		add	r1, r1, #312
 1126 05dc 2046     		mov	r0, r4
 1127 05de FFF7FEFF 		bl	lv_obj_add_style
 1128              	.LVL127:
 762:Middlewares/lvgl/src/extra/themes/default/lv_theme_default.c **** #if LV_THEME_DEFAULT_GROW
 1129              		.loc 1 762 9 is_stmt 1 view .LVU348
 762:Middlewares/lvgl/src/extra/themes/default/lv_theme_default.c **** #if LV_THEME_DEFAULT_GROW
 1130              		.loc 1 762 38 is_stmt 0 view .LVU349
 1131 05e2 2968     		ldr	r1, [r5]
 762:Middlewares/lvgl/src/extra/themes/default/lv_theme_default.c **** #if LV_THEME_DEFAULT_GROW
 1132              		.loc 1 762 9 view .LVU350
 1133 05e4 1F36     		adds	r6, r6, #31
 1134 05e6 3246     		mov	r2, r6
 1135 05e8 5831     		adds	r1, r1, #88
 1136 05ea 2046     		mov	r0, r4
 1137 05ec FFF7FEFF 		bl	lv_obj_add_style
 1138              	.LVL128:
 764:Middlewares/lvgl/src/extra/themes/default/lv_theme_default.c **** #endif
 1139              		.loc 1 764 9 is_stmt 1 view .LVU351
 764:Middlewares/lvgl/src/extra/themes/default/lv_theme_default.c **** #endif
 1140              		.loc 1 764 38 is_stmt 0 view .LVU352
 1141 05f0 2968     		ldr	r1, [r5]
 764:Middlewares/lvgl/src/extra/themes/default/lv_theme_default.c **** #endif
 1142              		.loc 1 764 9 view .LVU353
 1143 05f2 3246     		mov	r2, r6
 1144 05f4 C831     		adds	r1, r1, #200
 1145 05f6 2046     		mov	r0, r4
 1146 05f8 FFF7FEFF 		bl	lv_obj_add_style
ARM GAS  /tmp/ccvS2HVy.s 			page 44


 1147              	.LVL129:
 766:Middlewares/lvgl/src/extra/themes/default/lv_theme_default.c ****         lv_obj_add_style(obj, &styles->transition_delayed, LV_PART_INDICATOR);
 1148              		.loc 1 766 9 is_stmt 1 view .LVU354
 766:Middlewares/lvgl/src/extra/themes/default/lv_theme_default.c ****         lv_obj_add_style(obj, &styles->transition_delayed, LV_PART_INDICATOR);
 1149              		.loc 1 766 38 is_stmt 0 view .LVU355
 1150 05fc 2968     		ldr	r1, [r5]
 766:Middlewares/lvgl/src/extra/themes/default/lv_theme_default.c ****         lv_obj_add_style(obj, &styles->transition_delayed, LV_PART_INDICATOR);
 1151              		.loc 1 766 9 view .LVU356
 1152 05fe 3246     		mov	r2, r6
 1153 0600 D831     		adds	r1, r1, #216
 1154 0602 2046     		mov	r0, r4
 1155 0604 FFF7FEFF 		bl	lv_obj_add_style
 1156              	.LVL130:
 767:Middlewares/lvgl/src/extra/themes/default/lv_theme_default.c ****     }
 1157              		.loc 1 767 9 is_stmt 1 view .LVU357
 767:Middlewares/lvgl/src/extra/themes/default/lv_theme_default.c ****     }
 1158              		.loc 1 767 38 is_stmt 0 view .LVU358
 1159 0608 2968     		ldr	r1, [r5]
 767:Middlewares/lvgl/src/extra/themes/default/lv_theme_default.c ****     }
 1160              		.loc 1 767 9 view .LVU359
 1161 060a 4FF40032 		mov	r2, #131072
 1162 060e D031     		adds	r1, r1, #208
 1163 0610 2046     		mov	r0, r4
 1164 0612 FFF7FEFF 		bl	lv_obj_add_style
 1165              	.LVL131:
 1166 0616 CBE5     		b	.L8
 1167              	.L53:
 1168              		.align	2
 1169              	.L52:
 1170 0618 00000000 		.word	.LANCHOR0
 1171 061c 20000500 		.word	327712
 1172 0620 80000500 		.word	327808
 1173 0624 01000500 		.word	327681
 1174 0628 04000500 		.word	327684
 1175 062c 08000500 		.word	327688
 1176 0630 00000000 		.word	lv_bar_class
 1177 0634 00000000 		.word	lv_slider_class
 1178 0638 20000300 		.word	196640
 1179 063c 00000000 		.word	lv_table_class
 1180 0640 40000100 		.word	65600
 1181 0644 00000000 		.word	lv_checkbox_class
 1182 0648 80000200 		.word	131200
 1183 064c 01000200 		.word	131073
 1184              	.L17:
 772:Middlewares/lvgl/src/extra/themes/default/lv_theme_default.c ****         lv_obj_add_style(obj, &styles->bg_color_grey, 0);
 1185              		.loc 1 772 10 is_stmt 1 view .LVU360
 772:Middlewares/lvgl/src/extra/themes/default/lv_theme_default.c ****         lv_obj_add_style(obj, &styles->bg_color_grey, 0);
 1186              		.loc 1 772 13 is_stmt 0 view .LVU361
 1187 0650 BF49     		ldr	r1, .L54
 1188 0652 2046     		mov	r0, r4
 1189 0654 FFF7FEFF 		bl	lv_obj_check_type
 1190              	.LVL132:
 772:Middlewares/lvgl/src/extra/themes/default/lv_theme_default.c ****         lv_obj_add_style(obj, &styles->bg_color_grey, 0);
 1191              		.loc 1 772 12 view .LVU362
 1192 0658 0028     		cmp	r0, #0
 1193 065a 48D0     		beq	.L18
 773:Middlewares/lvgl/src/extra/themes/default/lv_theme_default.c ****         lv_obj_add_style(obj, &styles->circle, 0);
ARM GAS  /tmp/ccvS2HVy.s 			page 45


 1194              		.loc 1 773 9 is_stmt 1 view .LVU363
 773:Middlewares/lvgl/src/extra/themes/default/lv_theme_default.c ****         lv_obj_add_style(obj, &styles->circle, 0);
 1195              		.loc 1 773 38 is_stmt 0 view .LVU364
 1196 065c BD4D     		ldr	r5, .L54+4
 1197 065e 2968     		ldr	r1, [r5]
 773:Middlewares/lvgl/src/extra/themes/default/lv_theme_default.c ****         lv_obj_add_style(obj, &styles->circle, 0);
 1198              		.loc 1 773 9 view .LVU365
 1199 0660 0022     		movs	r2, #0
 1200 0662 4831     		adds	r1, r1, #72
 1201 0664 2046     		mov	r0, r4
 1202 0666 FFF7FEFF 		bl	lv_obj_add_style
 1203              	.LVL133:
 774:Middlewares/lvgl/src/extra/themes/default/lv_theme_default.c ****         lv_obj_add_style(obj, &styles->disabled, LV_STATE_DISABLED);
 1204              		.loc 1 774 9 is_stmt 1 view .LVU366
 774:Middlewares/lvgl/src/extra/themes/default/lv_theme_default.c ****         lv_obj_add_style(obj, &styles->disabled, LV_STATE_DISABLED);
 1205              		.loc 1 774 38 is_stmt 0 view .LVU367
 1206 066a 2968     		ldr	r1, [r5]
 774:Middlewares/lvgl/src/extra/themes/default/lv_theme_default.c ****         lv_obj_add_style(obj, &styles->disabled, LV_STATE_DISABLED);
 1207              		.loc 1 774 9 view .LVU368
 1208 066c 0022     		movs	r2, #0
 1209 066e B031     		adds	r1, r1, #176
 1210 0670 2046     		mov	r0, r4
 1211 0672 FFF7FEFF 		bl	lv_obj_add_style
 1212              	.LVL134:
 775:Middlewares/lvgl/src/extra/themes/default/lv_theme_default.c ****         lv_obj_add_style(obj, &styles->outline_primary, LV_STATE_FOCUS_KEY);
 1213              		.loc 1 775 9 is_stmt 1 view .LVU369
 775:Middlewares/lvgl/src/extra/themes/default/lv_theme_default.c ****         lv_obj_add_style(obj, &styles->outline_primary, LV_STATE_FOCUS_KEY);
 1214              		.loc 1 775 38 is_stmt 0 view .LVU370
 1215 0676 2968     		ldr	r1, [r5]
 775:Middlewares/lvgl/src/extra/themes/default/lv_theme_default.c ****         lv_obj_add_style(obj, &styles->outline_primary, LV_STATE_FOCUS_KEY);
 1216              		.loc 1 775 9 view .LVU371
 1217 0678 8022     		movs	r2, #128
 1218 067a 6031     		adds	r1, r1, #96
 1219 067c 2046     		mov	r0, r4
 1220 067e FFF7FEFF 		bl	lv_obj_add_style
 1221              	.LVL135:
 776:Middlewares/lvgl/src/extra/themes/default/lv_theme_default.c ****         lv_obj_add_style(obj, &styles->bg_color_primary, LV_PART_INDICATOR | LV_STATE_CHECKED);
 1222              		.loc 1 776 9 is_stmt 1 view .LVU372
 776:Middlewares/lvgl/src/extra/themes/default/lv_theme_default.c ****         lv_obj_add_style(obj, &styles->bg_color_primary, LV_PART_INDICATOR | LV_STATE_CHECKED);
 1223              		.loc 1 776 38 is_stmt 0 view .LVU373
 1224 0682 2968     		ldr	r1, [r5]
 776:Middlewares/lvgl/src/extra/themes/default/lv_theme_default.c ****         lv_obj_add_style(obj, &styles->bg_color_primary, LV_PART_INDICATOR | LV_STATE_CHECKED);
 1225              		.loc 1 776 9 view .LVU374
 1226 0684 0422     		movs	r2, #4
 1227 0686 A031     		adds	r1, r1, #160
 1228 0688 2046     		mov	r0, r4
 1229 068a FFF7FEFF 		bl	lv_obj_add_style
 1230              	.LVL136:
 777:Middlewares/lvgl/src/extra/themes/default/lv_theme_default.c ****         lv_obj_add_style(obj, &styles->circle, LV_PART_INDICATOR);
 1231              		.loc 1 777 9 is_stmt 1 view .LVU375
 777:Middlewares/lvgl/src/extra/themes/default/lv_theme_default.c ****         lv_obj_add_style(obj, &styles->circle, LV_PART_INDICATOR);
 1232              		.loc 1 777 38 is_stmt 0 view .LVU376
 1233 068e 2968     		ldr	r1, [r5]
 777:Middlewares/lvgl/src/extra/themes/default/lv_theme_default.c ****         lv_obj_add_style(obj, &styles->circle, LV_PART_INDICATOR);
 1234              		.loc 1 777 9 view .LVU377
 1235 0690 B14A     		ldr	r2, .L54+8
 1236 0692 2831     		adds	r1, r1, #40
ARM GAS  /tmp/ccvS2HVy.s 			page 46


 1237 0694 2046     		mov	r0, r4
 1238 0696 FFF7FEFF 		bl	lv_obj_add_style
 1239              	.LVL137:
 778:Middlewares/lvgl/src/extra/themes/default/lv_theme_default.c ****         lv_obj_add_style(obj, &styles->disabled, LV_PART_INDICATOR | LV_STATE_DISABLED);
 1240              		.loc 1 778 9 is_stmt 1 view .LVU378
 778:Middlewares/lvgl/src/extra/themes/default/lv_theme_default.c ****         lv_obj_add_style(obj, &styles->disabled, LV_PART_INDICATOR | LV_STATE_DISABLED);
 1241              		.loc 1 778 38 is_stmt 0 view .LVU379
 1242 069a 2968     		ldr	r1, [r5]
 778:Middlewares/lvgl/src/extra/themes/default/lv_theme_default.c ****         lv_obj_add_style(obj, &styles->disabled, LV_PART_INDICATOR | LV_STATE_DISABLED);
 1243              		.loc 1 778 9 view .LVU380
 1244 069c 4FF40032 		mov	r2, #131072
 1245 06a0 B031     		adds	r1, r1, #176
 1246 06a2 2046     		mov	r0, r4
 1247 06a4 FFF7FEFF 		bl	lv_obj_add_style
 1248              	.LVL138:
 779:Middlewares/lvgl/src/extra/themes/default/lv_theme_default.c ****         lv_obj_add_style(obj, &styles->knob, LV_PART_KNOB);
 1249              		.loc 1 779 9 is_stmt 1 view .LVU381
 779:Middlewares/lvgl/src/extra/themes/default/lv_theme_default.c ****         lv_obj_add_style(obj, &styles->knob, LV_PART_KNOB);
 1250              		.loc 1 779 38 is_stmt 0 view .LVU382
 1251 06a8 2968     		ldr	r1, [r5]
 779:Middlewares/lvgl/src/extra/themes/default/lv_theme_default.c ****         lv_obj_add_style(obj, &styles->knob, LV_PART_KNOB);
 1252              		.loc 1 779 9 view .LVU383
 1253 06aa AC4A     		ldr	r2, .L54+12
 1254 06ac 6031     		adds	r1, r1, #96
 1255 06ae 2046     		mov	r0, r4
 1256 06b0 FFF7FEFF 		bl	lv_obj_add_style
 1257              	.LVL139:
 780:Middlewares/lvgl/src/extra/themes/default/lv_theme_default.c ****         lv_obj_add_style(obj, &styles->bg_color_white, LV_PART_KNOB);
 1258              		.loc 1 780 9 is_stmt 1 view .LVU384
 780:Middlewares/lvgl/src/extra/themes/default/lv_theme_default.c ****         lv_obj_add_style(obj, &styles->bg_color_white, LV_PART_KNOB);
 1259              		.loc 1 780 38 is_stmt 0 view .LVU385
 1260 06b4 2968     		ldr	r1, [r5]
 780:Middlewares/lvgl/src/extra/themes/default/lv_theme_default.c ****         lv_obj_add_style(obj, &styles->bg_color_white, LV_PART_KNOB);
 1261              		.loc 1 780 9 view .LVU386
 1262 06b6 4FF44032 		mov	r2, #196608
 1263 06ba E831     		adds	r1, r1, #232
 1264 06bc 2046     		mov	r0, r4
 1265 06be FFF7FEFF 		bl	lv_obj_add_style
 1266              	.LVL140:
 781:Middlewares/lvgl/src/extra/themes/default/lv_theme_default.c ****         lv_obj_add_style(obj, &styles->switch_knob, LV_PART_KNOB);
 1267              		.loc 1 781 9 is_stmt 1 view .LVU387
 781:Middlewares/lvgl/src/extra/themes/default/lv_theme_default.c ****         lv_obj_add_style(obj, &styles->switch_knob, LV_PART_KNOB);
 1268              		.loc 1 781 38 is_stmt 0 view .LVU388
 1269 06c2 2968     		ldr	r1, [r5]
 781:Middlewares/lvgl/src/extra/themes/default/lv_theme_default.c ****         lv_obj_add_style(obj, &styles->switch_knob, LV_PART_KNOB);
 1270              		.loc 1 781 9 view .LVU389
 1271 06c4 4FF44032 		mov	r2, #196608
 1272 06c8 5031     		adds	r1, r1, #80
 1273 06ca 2046     		mov	r0, r4
 1274 06cc FFF7FEFF 		bl	lv_obj_add_style
 1275              	.LVL141:
 782:Middlewares/lvgl/src/extra/themes/default/lv_theme_default.c ****         lv_obj_add_style(obj, &styles->disabled, LV_PART_KNOB | LV_STATE_DISABLED);
 1276              		.loc 1 782 9 is_stmt 1 view .LVU390
 782:Middlewares/lvgl/src/extra/themes/default/lv_theme_default.c ****         lv_obj_add_style(obj, &styles->disabled, LV_PART_KNOB | LV_STATE_DISABLED);
 1277              		.loc 1 782 38 is_stmt 0 view .LVU391
 1278 06d0 2968     		ldr	r1, [r5]
 782:Middlewares/lvgl/src/extra/themes/default/lv_theme_default.c ****         lv_obj_add_style(obj, &styles->disabled, LV_PART_KNOB | LV_STATE_DISABLED);
ARM GAS  /tmp/ccvS2HVy.s 			page 47


 1279              		.loc 1 782 9 view .LVU392
 1280 06d2 4FF44032 		mov	r2, #196608
 1281 06d6 01F5A071 		add	r1, r1, #320
 1282 06da 2046     		mov	r0, r4
 1283 06dc FFF7FEFF 		bl	lv_obj_add_style
 1284              	.LVL142:
 783:Middlewares/lvgl/src/extra/themes/default/lv_theme_default.c ****     }
 1285              		.loc 1 783 9 is_stmt 1 view .LVU393
 783:Middlewares/lvgl/src/extra/themes/default/lv_theme_default.c ****     }
 1286              		.loc 1 783 38 is_stmt 0 view .LVU394
 1287 06e0 2968     		ldr	r1, [r5]
 783:Middlewares/lvgl/src/extra/themes/default/lv_theme_default.c ****     }
 1288              		.loc 1 783 9 view .LVU395
 1289 06e2 9F4A     		ldr	r2, .L54+16
 1290 06e4 6031     		adds	r1, r1, #96
 1291 06e6 2046     		mov	r0, r4
 1292 06e8 FFF7FEFF 		bl	lv_obj_add_style
 1293              	.LVL143:
 1294 06ec 60E5     		b	.L8
 1295              	.L18:
 788:Middlewares/lvgl/src/extra/themes/default/lv_theme_default.c ****         lv_obj_add_style(obj, &styles->card, 0);
 1296              		.loc 1 788 10 is_stmt 1 view .LVU396
 788:Middlewares/lvgl/src/extra/themes/default/lv_theme_default.c ****         lv_obj_add_style(obj, &styles->card, 0);
 1297              		.loc 1 788 13 is_stmt 0 view .LVU397
 1298 06ee 9D49     		ldr	r1, .L54+20
 1299 06f0 2046     		mov	r0, r4
 1300 06f2 FFF7FEFF 		bl	lv_obj_check_type
 1301              	.LVL144:
 788:Middlewares/lvgl/src/extra/themes/default/lv_theme_default.c ****         lv_obj_add_style(obj, &styles->card, 0);
 1302              		.loc 1 788 12 view .LVU398
 1303 06f6 0028     		cmp	r0, #0
 1304 06f8 41D0     		beq	.L19
 789:Middlewares/lvgl/src/extra/themes/default/lv_theme_default.c ****         lv_obj_add_style(obj, &styles->pad_small, 0);
 1305              		.loc 1 789 9 is_stmt 1 view .LVU399
 789:Middlewares/lvgl/src/extra/themes/default/lv_theme_default.c ****         lv_obj_add_style(obj, &styles->pad_small, 0);
 1306              		.loc 1 789 38 is_stmt 0 view .LVU400
 1307 06fa 964D     		ldr	r5, .L54+4
 1308 06fc 2968     		ldr	r1, [r5]
 789:Middlewares/lvgl/src/extra/themes/default/lv_theme_default.c ****         lv_obj_add_style(obj, &styles->pad_small, 0);
 1309              		.loc 1 789 9 view .LVU401
 1310 06fe 0022     		movs	r2, #0
 1311 0700 1831     		adds	r1, r1, #24
 1312 0702 2046     		mov	r0, r4
 1313 0704 FFF7FEFF 		bl	lv_obj_add_style
 1314              	.LVL145:
 790:Middlewares/lvgl/src/extra/themes/default/lv_theme_default.c ****         lv_obj_add_style(obj, &styles->chart_bg, 0);
 1315              		.loc 1 790 9 is_stmt 1 view .LVU402
 790:Middlewares/lvgl/src/extra/themes/default/lv_theme_default.c ****         lv_obj_add_style(obj, &styles->chart_bg, 0);
 1316              		.loc 1 790 38 is_stmt 0 view .LVU403
 1317 0708 2968     		ldr	r1, [r5]
 790:Middlewares/lvgl/src/extra/themes/default/lv_theme_default.c ****         lv_obj_add_style(obj, &styles->chart_bg, 0);
 1318              		.loc 1 790 9 view .LVU404
 1319 070a 0022     		movs	r2, #0
 1320 070c 7831     		adds	r1, r1, #120
 1321 070e 2046     		mov	r0, r4
 1322 0710 FFF7FEFF 		bl	lv_obj_add_style
 1323              	.LVL146:
ARM GAS  /tmp/ccvS2HVy.s 			page 48


 791:Middlewares/lvgl/src/extra/themes/default/lv_theme_default.c ****         lv_obj_add_style(obj, &styles->scrollbar, LV_PART_SCROLLBAR);
 1324              		.loc 1 791 9 is_stmt 1 view .LVU405
 791:Middlewares/lvgl/src/extra/themes/default/lv_theme_default.c ****         lv_obj_add_style(obj, &styles->scrollbar, LV_PART_SCROLLBAR);
 1325              		.loc 1 791 38 is_stmt 0 view .LVU406
 1326 0714 2968     		ldr	r1, [r5]
 791:Middlewares/lvgl/src/extra/themes/default/lv_theme_default.c ****         lv_obj_add_style(obj, &styles->scrollbar, LV_PART_SCROLLBAR);
 1327              		.loc 1 791 9 view .LVU407
 1328 0716 0022     		movs	r2, #0
 1329 0718 01F59071 		add	r1, r1, #288
 1330 071c 2046     		mov	r0, r4
 1331 071e FFF7FEFF 		bl	lv_obj_add_style
 1332              	.LVL147:
 792:Middlewares/lvgl/src/extra/themes/default/lv_theme_default.c ****         lv_obj_add_style(obj, &styles->scrollbar_scrolled, LV_PART_SCROLLBAR | LV_STATE_SCROLLED);
 1333              		.loc 1 792 9 is_stmt 1 view .LVU408
 792:Middlewares/lvgl/src/extra/themes/default/lv_theme_default.c ****         lv_obj_add_style(obj, &styles->scrollbar_scrolled, LV_PART_SCROLLBAR | LV_STATE_SCROLLED);
 1334              		.loc 1 792 38 is_stmt 0 view .LVU409
 1335 0722 2968     		ldr	r1, [r5]
 792:Middlewares/lvgl/src/extra/themes/default/lv_theme_default.c ****         lv_obj_add_style(obj, &styles->scrollbar_scrolled, LV_PART_SCROLLBAR | LV_STATE_SCROLLED);
 1336              		.loc 1 792 9 view .LVU410
 1337 0724 4FF48032 		mov	r2, #65536
 1338 0728 0831     		adds	r1, r1, #8
 1339 072a 2046     		mov	r0, r4
 1340 072c FFF7FEFF 		bl	lv_obj_add_style
 1341              	.LVL148:
 793:Middlewares/lvgl/src/extra/themes/default/lv_theme_default.c ****         lv_obj_add_style(obj, &styles->chart_series, LV_PART_ITEMS);
 1342              		.loc 1 793 9 is_stmt 1 view .LVU411
 793:Middlewares/lvgl/src/extra/themes/default/lv_theme_default.c ****         lv_obj_add_style(obj, &styles->chart_series, LV_PART_ITEMS);
 1343              		.loc 1 793 38 is_stmt 0 view .LVU412
 1344 0730 2968     		ldr	r1, [r5]
 793:Middlewares/lvgl/src/extra/themes/default/lv_theme_default.c ****         lv_obj_add_style(obj, &styles->chart_series, LV_PART_ITEMS);
 1345              		.loc 1 793 9 view .LVU413
 1346 0732 8D4A     		ldr	r2, .L54+24
 1347 0734 1031     		adds	r1, r1, #16
 1348 0736 2046     		mov	r0, r4
 1349 0738 FFF7FEFF 		bl	lv_obj_add_style
 1350              	.LVL149:
 794:Middlewares/lvgl/src/extra/themes/default/lv_theme_default.c ****         lv_obj_add_style(obj, &styles->chart_indic, LV_PART_INDICATOR);
 1351              		.loc 1 794 9 is_stmt 1 view .LVU414
 794:Middlewares/lvgl/src/extra/themes/default/lv_theme_default.c ****         lv_obj_add_style(obj, &styles->chart_indic, LV_PART_INDICATOR);
 1352              		.loc 1 794 38 is_stmt 0 view .LVU415
 1353 073c 2968     		ldr	r1, [r5]
 794:Middlewares/lvgl/src/extra/themes/default/lv_theme_default.c ****         lv_obj_add_style(obj, &styles->chart_indic, LV_PART_INDICATOR);
 1354              		.loc 1 794 9 view .LVU416
 1355 073e 4FF4A022 		mov	r2, #327680
 1356 0742 01F58471 		add	r1, r1, #264
 1357 0746 2046     		mov	r0, r4
 1358 0748 FFF7FEFF 		bl	lv_obj_add_style
 1359              	.LVL150:
 795:Middlewares/lvgl/src/extra/themes/default/lv_theme_default.c ****         lv_obj_add_style(obj, &styles->chart_ticks, LV_PART_TICKS);
 1360              		.loc 1 795 9 is_stmt 1 view .LVU417
 795:Middlewares/lvgl/src/extra/themes/default/lv_theme_default.c ****         lv_obj_add_style(obj, &styles->chart_ticks, LV_PART_TICKS);
 1361              		.loc 1 795 38 is_stmt 0 view .LVU418
 1362 074c 2968     		ldr	r1, [r5]
 795:Middlewares/lvgl/src/extra/themes/default/lv_theme_default.c ****         lv_obj_add_style(obj, &styles->chart_ticks, LV_PART_TICKS);
 1363              		.loc 1 795 9 view .LVU419
 1364 074e 4FF40032 		mov	r2, #131072
 1365 0752 01F58871 		add	r1, r1, #272
ARM GAS  /tmp/ccvS2HVy.s 			page 49


 1366 0756 2046     		mov	r0, r4
 1367 0758 FFF7FEFF 		bl	lv_obj_add_style
 1368              	.LVL151:
 796:Middlewares/lvgl/src/extra/themes/default/lv_theme_default.c ****         lv_obj_add_style(obj, &styles->chart_series, LV_PART_CURSOR);
 1369              		.loc 1 796 9 is_stmt 1 view .LVU420
 796:Middlewares/lvgl/src/extra/themes/default/lv_theme_default.c ****         lv_obj_add_style(obj, &styles->chart_series, LV_PART_CURSOR);
 1370              		.loc 1 796 38 is_stmt 0 view .LVU421
 1371 075c 2968     		ldr	r1, [r5]
 796:Middlewares/lvgl/src/extra/themes/default/lv_theme_default.c ****         lv_obj_add_style(obj, &styles->chart_series, LV_PART_CURSOR);
 1372              		.loc 1 796 9 view .LVU422
 1373 075e 4FF4C022 		mov	r2, #393216
 1374 0762 01F58C71 		add	r1, r1, #280
 1375 0766 2046     		mov	r0, r4
 1376 0768 FFF7FEFF 		bl	lv_obj_add_style
 1377              	.LVL152:
 797:Middlewares/lvgl/src/extra/themes/default/lv_theme_default.c ****     }
 1378              		.loc 1 797 9 is_stmt 1 view .LVU423
 797:Middlewares/lvgl/src/extra/themes/default/lv_theme_default.c ****     }
 1379              		.loc 1 797 38 is_stmt 0 view .LVU424
 1380 076c 2968     		ldr	r1, [r5]
 797:Middlewares/lvgl/src/extra/themes/default/lv_theme_default.c ****     }
 1381              		.loc 1 797 9 view .LVU425
 1382 076e 4FF4E022 		mov	r2, #458752
 1383 0772 01F58471 		add	r1, r1, #264
 1384 0776 2046     		mov	r0, r4
 1385 0778 FFF7FEFF 		bl	lv_obj_add_style
 1386              	.LVL153:
 1387 077c 18E5     		b	.L8
 1388              	.L19:
 802:Middlewares/lvgl/src/extra/themes/default/lv_theme_default.c ****         lv_obj_add_style(obj, &styles->card, 0);
 1389              		.loc 1 802 10 is_stmt 1 view .LVU426
 802:Middlewares/lvgl/src/extra/themes/default/lv_theme_default.c ****         lv_obj_add_style(obj, &styles->card, 0);
 1390              		.loc 1 802 13 is_stmt 0 view .LVU427
 1391 077e 7B49     		ldr	r1, .L54+28
 1392 0780 2046     		mov	r0, r4
 1393 0782 FFF7FEFF 		bl	lv_obj_check_type
 1394              	.LVL154:
 802:Middlewares/lvgl/src/extra/themes/default/lv_theme_default.c ****         lv_obj_add_style(obj, &styles->card, 0);
 1395              		.loc 1 802 12 view .LVU428
 1396 0786 60B3     		cbz	r0, .L20
 803:Middlewares/lvgl/src/extra/themes/default/lv_theme_default.c ****         lv_obj_add_style(obj, &styles->anim, 0);
 1397              		.loc 1 803 9 is_stmt 1 view .LVU429
 803:Middlewares/lvgl/src/extra/themes/default/lv_theme_default.c ****         lv_obj_add_style(obj, &styles->anim, 0);
 1398              		.loc 1 803 38 is_stmt 0 view .LVU430
 1399 0788 724D     		ldr	r5, .L54+4
 1400 078a 2968     		ldr	r1, [r5]
 803:Middlewares/lvgl/src/extra/themes/default/lv_theme_default.c ****         lv_obj_add_style(obj, &styles->anim, 0);
 1401              		.loc 1 803 9 view .LVU431
 1402 078c 0022     		movs	r2, #0
 1403 078e 1831     		adds	r1, r1, #24
 1404 0790 2046     		mov	r0, r4
 1405 0792 FFF7FEFF 		bl	lv_obj_add_style
 1406              	.LVL155:
 804:Middlewares/lvgl/src/extra/themes/default/lv_theme_default.c ****         lv_obj_add_style(obj, &styles->line_space_large, 0);
 1407              		.loc 1 804 9 is_stmt 1 view .LVU432
 804:Middlewares/lvgl/src/extra/themes/default/lv_theme_default.c ****         lv_obj_add_style(obj, &styles->line_space_large, 0);
 1408              		.loc 1 804 38 is_stmt 0 view .LVU433
ARM GAS  /tmp/ccvS2HVy.s 			page 50


 1409 0796 2968     		ldr	r1, [r5]
 804:Middlewares/lvgl/src/extra/themes/default/lv_theme_default.c ****         lv_obj_add_style(obj, &styles->line_space_large, 0);
 1410              		.loc 1 804 9 view .LVU434
 1411 0798 0022     		movs	r2, #0
 1412 079a E031     		adds	r1, r1, #224
 1413 079c 2046     		mov	r0, r4
 1414 079e FFF7FEFF 		bl	lv_obj_add_style
 1415              	.LVL156:
 805:Middlewares/lvgl/src/extra/themes/default/lv_theme_default.c ****         lv_obj_add_style(obj, &styles->text_align_center, 0);
 1416              		.loc 1 805 9 is_stmt 1 view .LVU435
 805:Middlewares/lvgl/src/extra/themes/default/lv_theme_default.c ****         lv_obj_add_style(obj, &styles->text_align_center, 0);
 1417              		.loc 1 805 38 is_stmt 0 view .LVU436
 1418 07a2 2968     		ldr	r1, [r5]
 805:Middlewares/lvgl/src/extra/themes/default/lv_theme_default.c ****         lv_obj_add_style(obj, &styles->text_align_center, 0);
 1419              		.loc 1 805 9 view .LVU437
 1420 07a4 0022     		movs	r2, #0
 1421 07a6 9031     		adds	r1, r1, #144
 1422 07a8 2046     		mov	r0, r4
 1423 07aa FFF7FEFF 		bl	lv_obj_add_style
 1424              	.LVL157:
 806:Middlewares/lvgl/src/extra/themes/default/lv_theme_default.c ****         lv_obj_add_style(obj, &styles->outline_primary, LV_STATE_FOCUS_KEY);
 1425              		.loc 1 806 9 is_stmt 1 view .LVU438
 806:Middlewares/lvgl/src/extra/themes/default/lv_theme_default.c ****         lv_obj_add_style(obj, &styles->outline_primary, LV_STATE_FOCUS_KEY);
 1426              		.loc 1 806 38 is_stmt 0 view .LVU439
 1427 07ae 2968     		ldr	r1, [r5]
 806:Middlewares/lvgl/src/extra/themes/default/lv_theme_default.c ****         lv_obj_add_style(obj, &styles->outline_primary, LV_STATE_FOCUS_KEY);
 1428              		.loc 1 806 9 view .LVU440
 1429 07b0 0022     		movs	r2, #0
 1430 07b2 9831     		adds	r1, r1, #152
 1431 07b4 2046     		mov	r0, r4
 1432 07b6 FFF7FEFF 		bl	lv_obj_add_style
 1433              	.LVL158:
 807:Middlewares/lvgl/src/extra/themes/default/lv_theme_default.c ****         lv_obj_add_style(obj, &styles->outline_secondary, LV_STATE_EDITED);
 1434              		.loc 1 807 9 is_stmt 1 view .LVU441
 807:Middlewares/lvgl/src/extra/themes/default/lv_theme_default.c ****         lv_obj_add_style(obj, &styles->outline_secondary, LV_STATE_EDITED);
 1435              		.loc 1 807 38 is_stmt 0 view .LVU442
 1436 07ba 2968     		ldr	r1, [r5]
 807:Middlewares/lvgl/src/extra/themes/default/lv_theme_default.c ****         lv_obj_add_style(obj, &styles->outline_secondary, LV_STATE_EDITED);
 1437              		.loc 1 807 9 view .LVU443
 1438 07bc 0422     		movs	r2, #4
 1439 07be A031     		adds	r1, r1, #160
 1440 07c0 2046     		mov	r0, r4
 1441 07c2 FFF7FEFF 		bl	lv_obj_add_style
 1442              	.LVL159:
 808:Middlewares/lvgl/src/extra/themes/default/lv_theme_default.c ****         lv_obj_add_style(obj, &styles->bg_color_primary, LV_PART_SELECTED);
 1443              		.loc 1 808 9 is_stmt 1 view .LVU444
 808:Middlewares/lvgl/src/extra/themes/default/lv_theme_default.c ****         lv_obj_add_style(obj, &styles->bg_color_primary, LV_PART_SELECTED);
 1444              		.loc 1 808 38 is_stmt 0 view .LVU445
 1445 07c6 2968     		ldr	r1, [r5]
 808:Middlewares/lvgl/src/extra/themes/default/lv_theme_default.c ****         lv_obj_add_style(obj, &styles->bg_color_primary, LV_PART_SELECTED);
 1446              		.loc 1 808 9 view .LVU446
 1447 07c8 0822     		movs	r2, #8
 1448 07ca A831     		adds	r1, r1, #168
 1449 07cc 2046     		mov	r0, r4
 1450 07ce FFF7FEFF 		bl	lv_obj_add_style
 1451              	.LVL160:
 809:Middlewares/lvgl/src/extra/themes/default/lv_theme_default.c ****     }
ARM GAS  /tmp/ccvS2HVy.s 			page 51


 1452              		.loc 1 809 9 is_stmt 1 view .LVU447
 809:Middlewares/lvgl/src/extra/themes/default/lv_theme_default.c ****     }
 1453              		.loc 1 809 38 is_stmt 0 view .LVU448
 1454 07d2 2968     		ldr	r1, [r5]
 809:Middlewares/lvgl/src/extra/themes/default/lv_theme_default.c ****     }
 1455              		.loc 1 809 9 view .LVU449
 1456 07d4 4FF48022 		mov	r2, #262144
 1457 07d8 2831     		adds	r1, r1, #40
 1458 07da 2046     		mov	r0, r4
 1459 07dc FFF7FEFF 		bl	lv_obj_add_style
 1460              	.LVL161:
 1461 07e0 E6E4     		b	.L8
 1462              	.L20:
 814:Middlewares/lvgl/src/extra/themes/default/lv_theme_default.c ****         lv_obj_add_style(obj, &styles->card, 0);
 1463              		.loc 1 814 10 is_stmt 1 view .LVU450
 814:Middlewares/lvgl/src/extra/themes/default/lv_theme_default.c ****         lv_obj_add_style(obj, &styles->card, 0);
 1464              		.loc 1 814 13 is_stmt 0 view .LVU451
 1465 07e2 6349     		ldr	r1, .L54+32
 1466 07e4 2046     		mov	r0, r4
 1467 07e6 FFF7FEFF 		bl	lv_obj_check_type
 1468              	.LVL162:
 814:Middlewares/lvgl/src/extra/themes/default/lv_theme_default.c ****         lv_obj_add_style(obj, &styles->card, 0);
 1469              		.loc 1 814 12 view .LVU452
 1470 07ea 90B3     		cbz	r0, .L21
 815:Middlewares/lvgl/src/extra/themes/default/lv_theme_default.c ****         lv_obj_add_style(obj, &styles->pad_small, 0);
 1471              		.loc 1 815 9 is_stmt 1 view .LVU453
 815:Middlewares/lvgl/src/extra/themes/default/lv_theme_default.c ****         lv_obj_add_style(obj, &styles->pad_small, 0);
 1472              		.loc 1 815 38 is_stmt 0 view .LVU454
 1473 07ec 594D     		ldr	r5, .L54+4
 1474 07ee 2968     		ldr	r1, [r5]
 815:Middlewares/lvgl/src/extra/themes/default/lv_theme_default.c ****         lv_obj_add_style(obj, &styles->pad_small, 0);
 1475              		.loc 1 815 9 view .LVU455
 1476 07f0 0022     		movs	r2, #0
 1477 07f2 1831     		adds	r1, r1, #24
 1478 07f4 2046     		mov	r0, r4
 1479 07f6 FFF7FEFF 		bl	lv_obj_add_style
 1480              	.LVL163:
 816:Middlewares/lvgl/src/extra/themes/default/lv_theme_default.c ****         lv_obj_add_style(obj, &styles->transition_delayed, 0);
 1481              		.loc 1 816 9 is_stmt 1 view .LVU456
 816:Middlewares/lvgl/src/extra/themes/default/lv_theme_default.c ****         lv_obj_add_style(obj, &styles->transition_delayed, 0);
 1482              		.loc 1 816 38 is_stmt 0 view .LVU457
 1483 07fa 2968     		ldr	r1, [r5]
 816:Middlewares/lvgl/src/extra/themes/default/lv_theme_default.c ****         lv_obj_add_style(obj, &styles->transition_delayed, 0);
 1484              		.loc 1 816 9 view .LVU458
 1485 07fc 0022     		movs	r2, #0
 1486 07fe 7831     		adds	r1, r1, #120
 1487 0800 2046     		mov	r0, r4
 1488 0802 FFF7FEFF 		bl	lv_obj_add_style
 1489              	.LVL164:
 817:Middlewares/lvgl/src/extra/themes/default/lv_theme_default.c ****         lv_obj_add_style(obj, &styles->transition_normal, LV_STATE_PRESSED);
 1490              		.loc 1 817 9 is_stmt 1 view .LVU459
 817:Middlewares/lvgl/src/extra/themes/default/lv_theme_default.c ****         lv_obj_add_style(obj, &styles->transition_normal, LV_STATE_PRESSED);
 1491              		.loc 1 817 38 is_stmt 0 view .LVU460
 1492 0806 2968     		ldr	r1, [r5]
 817:Middlewares/lvgl/src/extra/themes/default/lv_theme_default.c ****         lv_obj_add_style(obj, &styles->transition_normal, LV_STATE_PRESSED);
 1493              		.loc 1 817 9 view .LVU461
 1494 0808 0022     		movs	r2, #0
ARM GAS  /tmp/ccvS2HVy.s 			page 52


 1495 080a D031     		adds	r1, r1, #208
 1496 080c 2046     		mov	r0, r4
 1497 080e FFF7FEFF 		bl	lv_obj_add_style
 1498              	.LVL165:
 818:Middlewares/lvgl/src/extra/themes/default/lv_theme_default.c ****         lv_obj_add_style(obj, &styles->pressed, LV_STATE_PRESSED);
 1499              		.loc 1 818 9 is_stmt 1 view .LVU462
 818:Middlewares/lvgl/src/extra/themes/default/lv_theme_default.c ****         lv_obj_add_style(obj, &styles->pressed, LV_STATE_PRESSED);
 1500              		.loc 1 818 38 is_stmt 0 view .LVU463
 1501 0812 2968     		ldr	r1, [r5]
 818:Middlewares/lvgl/src/extra/themes/default/lv_theme_default.c ****         lv_obj_add_style(obj, &styles->pressed, LV_STATE_PRESSED);
 1502              		.loc 1 818 9 view .LVU464
 1503 0814 2022     		movs	r2, #32
 1504 0816 D831     		adds	r1, r1, #216
 1505 0818 2046     		mov	r0, r4
 1506 081a FFF7FEFF 		bl	lv_obj_add_style
 1507              	.LVL166:
 819:Middlewares/lvgl/src/extra/themes/default/lv_theme_default.c ****         lv_obj_add_style(obj, &styles->outline_primary, LV_STATE_FOCUS_KEY);
 1508              		.loc 1 819 9 is_stmt 1 view .LVU465
 819:Middlewares/lvgl/src/extra/themes/default/lv_theme_default.c ****         lv_obj_add_style(obj, &styles->outline_primary, LV_STATE_FOCUS_KEY);
 1509              		.loc 1 819 38 is_stmt 0 view .LVU466
 1510 081e 2968     		ldr	r1, [r5]
 819:Middlewares/lvgl/src/extra/themes/default/lv_theme_default.c ****         lv_obj_add_style(obj, &styles->outline_primary, LV_STATE_FOCUS_KEY);
 1511              		.loc 1 819 9 view .LVU467
 1512 0820 2022     		movs	r2, #32
 1513 0822 5831     		adds	r1, r1, #88
 1514 0824 2046     		mov	r0, r4
 1515 0826 FFF7FEFF 		bl	lv_obj_add_style
 1516              	.LVL167:
 820:Middlewares/lvgl/src/extra/themes/default/lv_theme_default.c ****         lv_obj_add_style(obj, &styles->outline_secondary, LV_STATE_EDITED);
 1517              		.loc 1 820 9 is_stmt 1 view .LVU468
 820:Middlewares/lvgl/src/extra/themes/default/lv_theme_default.c ****         lv_obj_add_style(obj, &styles->outline_secondary, LV_STATE_EDITED);
 1518              		.loc 1 820 38 is_stmt 0 view .LVU469
 1519 082a 2968     		ldr	r1, [r5]
 820:Middlewares/lvgl/src/extra/themes/default/lv_theme_default.c ****         lv_obj_add_style(obj, &styles->outline_secondary, LV_STATE_EDITED);
 1520              		.loc 1 820 9 view .LVU470
 1521 082c 0422     		movs	r2, #4
 1522 082e A031     		adds	r1, r1, #160
 1523 0830 2046     		mov	r0, r4
 1524 0832 FFF7FEFF 		bl	lv_obj_add_style
 1525              	.LVL168:
 821:Middlewares/lvgl/src/extra/themes/default/lv_theme_default.c ****         lv_obj_add_style(obj, &styles->transition_normal, LV_PART_INDICATOR);
 1526              		.loc 1 821 9 is_stmt 1 view .LVU471
 821:Middlewares/lvgl/src/extra/themes/default/lv_theme_default.c ****         lv_obj_add_style(obj, &styles->transition_normal, LV_PART_INDICATOR);
 1527              		.loc 1 821 38 is_stmt 0 view .LVU472
 1528 0836 2968     		ldr	r1, [r5]
 821:Middlewares/lvgl/src/extra/themes/default/lv_theme_default.c ****         lv_obj_add_style(obj, &styles->transition_normal, LV_PART_INDICATOR);
 1529              		.loc 1 821 9 view .LVU473
 1530 0838 0822     		movs	r2, #8
 1531 083a A831     		adds	r1, r1, #168
 1532 083c 2046     		mov	r0, r4
 1533 083e FFF7FEFF 		bl	lv_obj_add_style
 1534              	.LVL169:
 822:Middlewares/lvgl/src/extra/themes/default/lv_theme_default.c ****     }
 1535              		.loc 1 822 9 is_stmt 1 view .LVU474
 822:Middlewares/lvgl/src/extra/themes/default/lv_theme_default.c ****     }
 1536              		.loc 1 822 38 is_stmt 0 view .LVU475
 1537 0842 2968     		ldr	r1, [r5]
ARM GAS  /tmp/ccvS2HVy.s 			page 53


 822:Middlewares/lvgl/src/extra/themes/default/lv_theme_default.c ****     }
 1538              		.loc 1 822 9 view .LVU476
 1539 0844 4FF40032 		mov	r2, #131072
 1540 0848 D831     		adds	r1, r1, #216
 1541 084a 2046     		mov	r0, r4
 1542 084c FFF7FEFF 		bl	lv_obj_add_style
 1543              	.LVL170:
 1544 0850 AEE4     		b	.L8
 1545              	.L21:
 824:Middlewares/lvgl/src/extra/themes/default/lv_theme_default.c ****         lv_obj_add_style(obj, &styles->card, 0);
 1546              		.loc 1 824 10 is_stmt 1 view .LVU477
 824:Middlewares/lvgl/src/extra/themes/default/lv_theme_default.c ****         lv_obj_add_style(obj, &styles->card, 0);
 1547              		.loc 1 824 13 is_stmt 0 view .LVU478
 1548 0852 4849     		ldr	r1, .L54+36
 1549 0854 2046     		mov	r0, r4
 1550 0856 FFF7FEFF 		bl	lv_obj_check_type
 1551              	.LVL171:
 824:Middlewares/lvgl/src/extra/themes/default/lv_theme_default.c ****         lv_obj_add_style(obj, &styles->card, 0);
 1552              		.loc 1 824 12 view .LVU479
 1553 085a 0028     		cmp	r0, #0
 1554 085c 3AD0     		beq	.L22
 825:Middlewares/lvgl/src/extra/themes/default/lv_theme_default.c ****         lv_obj_add_style(obj, &styles->clip_corner, 0);
 1555              		.loc 1 825 9 is_stmt 1 view .LVU480
 825:Middlewares/lvgl/src/extra/themes/default/lv_theme_default.c ****         lv_obj_add_style(obj, &styles->clip_corner, 0);
 1556              		.loc 1 825 38 is_stmt 0 view .LVU481
 1557 085e 3D4D     		ldr	r5, .L54+4
 1558 0860 2968     		ldr	r1, [r5]
 825:Middlewares/lvgl/src/extra/themes/default/lv_theme_default.c ****         lv_obj_add_style(obj, &styles->clip_corner, 0);
 1559              		.loc 1 825 9 view .LVU482
 1560 0862 0022     		movs	r2, #0
 1561 0864 1831     		adds	r1, r1, #24
 1562 0866 2046     		mov	r0, r4
 1563 0868 FFF7FEFF 		bl	lv_obj_add_style
 1564              	.LVL172:
 826:Middlewares/lvgl/src/extra/themes/default/lv_theme_default.c ****         lv_obj_add_style(obj, &styles->line_space_large, 0);
 1565              		.loc 1 826 9 is_stmt 1 view .LVU483
 826:Middlewares/lvgl/src/extra/themes/default/lv_theme_default.c ****         lv_obj_add_style(obj, &styles->line_space_large, 0);
 1566              		.loc 1 826 38 is_stmt 0 view .LVU484
 1567 086c 2968     		ldr	r1, [r5]
 826:Middlewares/lvgl/src/extra/themes/default/lv_theme_default.c ****         lv_obj_add_style(obj, &styles->line_space_large, 0);
 1568              		.loc 1 826 9 view .LVU485
 1569 086e 0022     		movs	r2, #0
 1570 0870 C031     		adds	r1, r1, #192
 1571 0872 2046     		mov	r0, r4
 1572 0874 FFF7FEFF 		bl	lv_obj_add_style
 1573              	.LVL173:
 827:Middlewares/lvgl/src/extra/themes/default/lv_theme_default.c ****         lv_obj_add_style(obj, &styles->dropdown_list, 0);
 1574              		.loc 1 827 9 is_stmt 1 view .LVU486
 827:Middlewares/lvgl/src/extra/themes/default/lv_theme_default.c ****         lv_obj_add_style(obj, &styles->dropdown_list, 0);
 1575              		.loc 1 827 38 is_stmt 0 view .LVU487
 1576 0878 2968     		ldr	r1, [r5]
 827:Middlewares/lvgl/src/extra/themes/default/lv_theme_default.c ****         lv_obj_add_style(obj, &styles->dropdown_list, 0);
 1577              		.loc 1 827 9 view .LVU488
 1578 087a 0022     		movs	r2, #0
 1579 087c 9031     		adds	r1, r1, #144
 1580 087e 2046     		mov	r0, r4
 1581 0880 FFF7FEFF 		bl	lv_obj_add_style
ARM GAS  /tmp/ccvS2HVy.s 			page 54


 1582              	.LVL174:
 828:Middlewares/lvgl/src/extra/themes/default/lv_theme_default.c ****         lv_obj_add_style(obj, &styles->scrollbar, LV_PART_SCROLLBAR);
 1583              		.loc 1 828 9 is_stmt 1 view .LVU489
 828:Middlewares/lvgl/src/extra/themes/default/lv_theme_default.c ****         lv_obj_add_style(obj, &styles->scrollbar, LV_PART_SCROLLBAR);
 1584              		.loc 1 828 38 is_stmt 0 view .LVU490
 1585 0884 2968     		ldr	r1, [r5]
 828:Middlewares/lvgl/src/extra/themes/default/lv_theme_default.c ****         lv_obj_add_style(obj, &styles->scrollbar, LV_PART_SCROLLBAR);
 1586              		.loc 1 828 9 view .LVU491
 1587 0886 0022     		movs	r2, #0
 1588 0888 01F59471 		add	r1, r1, #296
 1589 088c 2046     		mov	r0, r4
 1590 088e FFF7FEFF 		bl	lv_obj_add_style
 1591              	.LVL175:
 829:Middlewares/lvgl/src/extra/themes/default/lv_theme_default.c ****         lv_obj_add_style(obj, &styles->scrollbar_scrolled, LV_PART_SCROLLBAR | LV_STATE_SCROLLED);
 1592              		.loc 1 829 9 is_stmt 1 view .LVU492
 829:Middlewares/lvgl/src/extra/themes/default/lv_theme_default.c ****         lv_obj_add_style(obj, &styles->scrollbar_scrolled, LV_PART_SCROLLBAR | LV_STATE_SCROLLED);
 1593              		.loc 1 829 38 is_stmt 0 view .LVU493
 1594 0892 2968     		ldr	r1, [r5]
 829:Middlewares/lvgl/src/extra/themes/default/lv_theme_default.c ****         lv_obj_add_style(obj, &styles->scrollbar_scrolled, LV_PART_SCROLLBAR | LV_STATE_SCROLLED);
 1595              		.loc 1 829 9 view .LVU494
 1596 0894 4FF48032 		mov	r2, #65536
 1597 0898 0831     		adds	r1, r1, #8
 1598 089a 2046     		mov	r0, r4
 1599 089c FFF7FEFF 		bl	lv_obj_add_style
 1600              	.LVL176:
 830:Middlewares/lvgl/src/extra/themes/default/lv_theme_default.c ****         lv_obj_add_style(obj, &styles->bg_color_white, LV_PART_SELECTED);
 1601              		.loc 1 830 9 is_stmt 1 view .LVU495
 830:Middlewares/lvgl/src/extra/themes/default/lv_theme_default.c ****         lv_obj_add_style(obj, &styles->bg_color_white, LV_PART_SELECTED);
 1602              		.loc 1 830 38 is_stmt 0 view .LVU496
 1603 08a0 2968     		ldr	r1, [r5]
 830:Middlewares/lvgl/src/extra/themes/default/lv_theme_default.c ****         lv_obj_add_style(obj, &styles->bg_color_white, LV_PART_SELECTED);
 1604              		.loc 1 830 9 view .LVU497
 1605 08a2 314A     		ldr	r2, .L54+24
 1606 08a4 1031     		adds	r1, r1, #16
 1607 08a6 2046     		mov	r0, r4
 1608 08a8 FFF7FEFF 		bl	lv_obj_add_style
 1609              	.LVL177:
 831:Middlewares/lvgl/src/extra/themes/default/lv_theme_default.c ****         lv_obj_add_style(obj, &styles->bg_color_primary, LV_PART_SELECTED | LV_STATE_CHECKED);
 1610              		.loc 1 831 9 is_stmt 1 view .LVU498
 831:Middlewares/lvgl/src/extra/themes/default/lv_theme_default.c ****         lv_obj_add_style(obj, &styles->bg_color_primary, LV_PART_SELECTED | LV_STATE_CHECKED);
 1611              		.loc 1 831 38 is_stmt 0 view .LVU499
 1612 08ac 2968     		ldr	r1, [r5]
 831:Middlewares/lvgl/src/extra/themes/default/lv_theme_default.c ****         lv_obj_add_style(obj, &styles->bg_color_primary, LV_PART_SELECTED | LV_STATE_CHECKED);
 1613              		.loc 1 831 9 view .LVU500
 1614 08ae 4FF48022 		mov	r2, #262144
 1615 08b2 5031     		adds	r1, r1, #80
 1616 08b4 2046     		mov	r0, r4
 1617 08b6 FFF7FEFF 		bl	lv_obj_add_style
 1618              	.LVL178:
 832:Middlewares/lvgl/src/extra/themes/default/lv_theme_default.c ****         lv_obj_add_style(obj, &styles->pressed, LV_PART_SELECTED | LV_STATE_PRESSED);
 1619              		.loc 1 832 9 is_stmt 1 view .LVU501
 832:Middlewares/lvgl/src/extra/themes/default/lv_theme_default.c ****         lv_obj_add_style(obj, &styles->pressed, LV_PART_SELECTED | LV_STATE_PRESSED);
 1620              		.loc 1 832 38 is_stmt 0 view .LVU502
 1621 08ba 2968     		ldr	r1, [r5]
 832:Middlewares/lvgl/src/extra/themes/default/lv_theme_default.c ****         lv_obj_add_style(obj, &styles->pressed, LV_PART_SELECTED | LV_STATE_PRESSED);
 1622              		.loc 1 832 9 view .LVU503
 1623 08bc 2E4A     		ldr	r2, .L54+40
ARM GAS  /tmp/ccvS2HVy.s 			page 55


 1624 08be 2831     		adds	r1, r1, #40
 1625 08c0 2046     		mov	r0, r4
 1626 08c2 FFF7FEFF 		bl	lv_obj_add_style
 1627              	.LVL179:
 833:Middlewares/lvgl/src/extra/themes/default/lv_theme_default.c ****     }
 1628              		.loc 1 833 9 is_stmt 1 view .LVU504
 833:Middlewares/lvgl/src/extra/themes/default/lv_theme_default.c ****     }
 1629              		.loc 1 833 38 is_stmt 0 view .LVU505
 1630 08c6 2968     		ldr	r1, [r5]
 833:Middlewares/lvgl/src/extra/themes/default/lv_theme_default.c ****     }
 1631              		.loc 1 833 9 view .LVU506
 1632 08c8 2C4A     		ldr	r2, .L54+44
 1633 08ca 5831     		adds	r1, r1, #88
 1634 08cc 2046     		mov	r0, r4
 1635 08ce FFF7FEFF 		bl	lv_obj_add_style
 1636              	.LVL180:
 1637 08d2 6DE4     		b	.L8
 1638              	.L22:
 838:Middlewares/lvgl/src/extra/themes/default/lv_theme_default.c ****         lv_obj_add_style(obj, &styles->arc_indic, 0);
 1639              		.loc 1 838 10 is_stmt 1 view .LVU507
 838:Middlewares/lvgl/src/extra/themes/default/lv_theme_default.c ****         lv_obj_add_style(obj, &styles->arc_indic, 0);
 1640              		.loc 1 838 13 is_stmt 0 view .LVU508
 1641 08d4 2A49     		ldr	r1, .L54+48
 1642 08d6 2046     		mov	r0, r4
 1643 08d8 FFF7FEFF 		bl	lv_obj_check_type
 1644              	.LVL181:
 838:Middlewares/lvgl/src/extra/themes/default/lv_theme_default.c ****         lv_obj_add_style(obj, &styles->arc_indic, 0);
 1645              		.loc 1 838 12 view .LVU509
 1646 08dc E8B1     		cbz	r0, .L23
 839:Middlewares/lvgl/src/extra/themes/default/lv_theme_default.c ****         lv_obj_add_style(obj, &styles->arc_indic, LV_PART_INDICATOR);
 1647              		.loc 1 839 9 is_stmt 1 view .LVU510
 839:Middlewares/lvgl/src/extra/themes/default/lv_theme_default.c ****         lv_obj_add_style(obj, &styles->arc_indic, LV_PART_INDICATOR);
 1648              		.loc 1 839 38 is_stmt 0 view .LVU511
 1649 08de 1D4D     		ldr	r5, .L54+4
 1650 08e0 2968     		ldr	r1, [r5]
 839:Middlewares/lvgl/src/extra/themes/default/lv_theme_default.c ****         lv_obj_add_style(obj, &styles->arc_indic, LV_PART_INDICATOR);
 1651              		.loc 1 839 9 view .LVU512
 1652 08e2 0022     		movs	r2, #0
 1653 08e4 F831     		adds	r1, r1, #248
 1654 08e6 2046     		mov	r0, r4
 1655 08e8 FFF7FEFF 		bl	lv_obj_add_style
 1656              	.LVL182:
 840:Middlewares/lvgl/src/extra/themes/default/lv_theme_default.c ****         lv_obj_add_style(obj, &styles->arc_indic_primary, LV_PART_INDICATOR);
 1657              		.loc 1 840 9 is_stmt 1 view .LVU513
 840:Middlewares/lvgl/src/extra/themes/default/lv_theme_default.c ****         lv_obj_add_style(obj, &styles->arc_indic_primary, LV_PART_INDICATOR);
 1658              		.loc 1 840 38 is_stmt 0 view .LVU514
 1659 08ec 2968     		ldr	r1, [r5]
 840:Middlewares/lvgl/src/extra/themes/default/lv_theme_default.c ****         lv_obj_add_style(obj, &styles->arc_indic_primary, LV_PART_INDICATOR);
 1660              		.loc 1 840 9 view .LVU515
 1661 08ee 4FF40032 		mov	r2, #131072
 1662 08f2 F831     		adds	r1, r1, #248
 1663 08f4 2046     		mov	r0, r4
 1664 08f6 FFF7FEFF 		bl	lv_obj_add_style
 1665              	.LVL183:
 841:Middlewares/lvgl/src/extra/themes/default/lv_theme_default.c ****         lv_obj_add_style(obj, &styles->knob, LV_PART_KNOB);
 1666              		.loc 1 841 9 is_stmt 1 view .LVU516
 841:Middlewares/lvgl/src/extra/themes/default/lv_theme_default.c ****         lv_obj_add_style(obj, &styles->knob, LV_PART_KNOB);
ARM GAS  /tmp/ccvS2HVy.s 			page 56


 1667              		.loc 1 841 38 is_stmt 0 view .LVU517
 1668 08fa 2968     		ldr	r1, [r5]
 841:Middlewares/lvgl/src/extra/themes/default/lv_theme_default.c ****         lv_obj_add_style(obj, &styles->knob, LV_PART_KNOB);
 1669              		.loc 1 841 9 view .LVU518
 1670 08fc 4FF40032 		mov	r2, #131072
 1671 0900 01F58071 		add	r1, r1, #256
 1672 0904 2046     		mov	r0, r4
 1673 0906 FFF7FEFF 		bl	lv_obj_add_style
 1674              	.LVL184:
 842:Middlewares/lvgl/src/extra/themes/default/lv_theme_default.c ****     }
 1675              		.loc 1 842 9 is_stmt 1 view .LVU519
 842:Middlewares/lvgl/src/extra/themes/default/lv_theme_default.c ****     }
 1676              		.loc 1 842 38 is_stmt 0 view .LVU520
 1677 090a 2968     		ldr	r1, [r5]
 842:Middlewares/lvgl/src/extra/themes/default/lv_theme_default.c ****     }
 1678              		.loc 1 842 9 view .LVU521
 1679 090c 4FF44032 		mov	r2, #196608
 1680 0910 E831     		adds	r1, r1, #232
 1681 0912 2046     		mov	r0, r4
 1682 0914 FFF7FEFF 		bl	lv_obj_add_style
 1683              	.LVL185:
 1684 0918 4AE4     		b	.L8
 1685              	.L23:
 847:Middlewares/lvgl/src/extra/themes/default/lv_theme_default.c ****         lv_obj_add_style(obj, &styles->card, 0);
 1686              		.loc 1 847 10 is_stmt 1 view .LVU522
 847:Middlewares/lvgl/src/extra/themes/default/lv_theme_default.c ****         lv_obj_add_style(obj, &styles->card, 0);
 1687              		.loc 1 847 13 is_stmt 0 view .LVU523
 1688 091a 1A49     		ldr	r1, .L54+52
 1689 091c 2046     		mov	r0, r4
 1690 091e FFF7FEFF 		bl	lv_obj_check_type
 1691              	.LVL186:
 847:Middlewares/lvgl/src/extra/themes/default/lv_theme_default.c ****         lv_obj_add_style(obj, &styles->card, 0);
 1692              		.loc 1 847 12 view .LVU524
 1693 0922 88B3     		cbz	r0, .L24
 848:Middlewares/lvgl/src/extra/themes/default/lv_theme_default.c ****         lv_obj_add_style(obj, &styles->circle, 0);
 1694              		.loc 1 848 9 is_stmt 1 view .LVU525
 848:Middlewares/lvgl/src/extra/themes/default/lv_theme_default.c ****         lv_obj_add_style(obj, &styles->circle, 0);
 1695              		.loc 1 848 38 is_stmt 0 view .LVU526
 1696 0924 0B4D     		ldr	r5, .L54+4
 1697 0926 2968     		ldr	r1, [r5]
 848:Middlewares/lvgl/src/extra/themes/default/lv_theme_default.c ****         lv_obj_add_style(obj, &styles->circle, 0);
 1698              		.loc 1 848 9 view .LVU527
 1699 0928 0022     		movs	r2, #0
 1700 092a 1831     		adds	r1, r1, #24
 1701 092c 2046     		mov	r0, r4
 1702 092e FFF7FEFF 		bl	lv_obj_add_style
 1703              	.LVL187:
 849:Middlewares/lvgl/src/extra/themes/default/lv_theme_default.c ****         lv_obj_add_style(obj, &styles->meter_indic, LV_PART_INDICATOR);
 1704              		.loc 1 849 9 is_stmt 1 view .LVU528
 849:Middlewares/lvgl/src/extra/themes/default/lv_theme_default.c ****         lv_obj_add_style(obj, &styles->meter_indic, LV_PART_INDICATOR);
 1705              		.loc 1 849 38 is_stmt 0 view .LVU529
 1706 0932 2968     		ldr	r1, [r5]
 849:Middlewares/lvgl/src/extra/themes/default/lv_theme_default.c ****         lv_obj_add_style(obj, &styles->meter_indic, LV_PART_INDICATOR);
 1707              		.loc 1 849 9 view .LVU530
 1708 0934 0022     		movs	r2, #0
 1709 0936 B031     		adds	r1, r1, #176
 1710 0938 2046     		mov	r0, r4
ARM GAS  /tmp/ccvS2HVy.s 			page 57


 1711 093a FFF7FEFF 		bl	lv_obj_add_style
 1712              	.LVL188:
 850:Middlewares/lvgl/src/extra/themes/default/lv_theme_default.c ****     }
 1713              		.loc 1 850 9 is_stmt 1 view .LVU531
 850:Middlewares/lvgl/src/extra/themes/default/lv_theme_default.c ****     }
 1714              		.loc 1 850 38 is_stmt 0 view .LVU532
 1715 093e 2968     		ldr	r1, [r5]
 850:Middlewares/lvgl/src/extra/themes/default/lv_theme_default.c ****     }
 1716              		.loc 1 850 9 view .LVU533
 1717 0940 4FF40032 		mov	r2, #131072
 1718 0944 01F5B071 		add	r1, r1, #352
 1719 0948 2046     		mov	r0, r4
 1720 094a FFF7FEFF 		bl	lv_obj_add_style
 1721              	.LVL189:
 1722 094e 2FE4     		b	.L8
 1723              	.L55:
 1724              		.align	2
 1725              	.L54:
 1726 0950 00000000 		.word	lv_switch_class
 1727 0954 00000000 		.word	.LANCHOR0
 1728 0958 01000200 		.word	131073
 1729 095c 80000200 		.word	131200
 1730 0960 80000300 		.word	196736
 1731 0964 00000000 		.word	lv_chart_class
 1732 0968 40000100 		.word	65600
 1733 096c 00000000 		.word	lv_roller_class
 1734 0970 00000000 		.word	lv_dropdown_class
 1735 0974 00000000 		.word	lv_dropdownlist_class
 1736 0978 01000400 		.word	262145
 1737 097c 20000400 		.word	262176
 1738 0980 00000000 		.word	lv_arc_class
 1739 0984 00000000 		.word	lv_meter_class
 1740              	.L24:
 855:Middlewares/lvgl/src/extra/themes/default/lv_theme_default.c ****         lv_obj_add_style(obj, &styles->card, 0);
 1741              		.loc 1 855 10 is_stmt 1 view .LVU534
