ARM GAS  /tmp/ccFxGgVE.s 			page 1


   1              		.cpu cortex-m7
   2              		.eabi_attribute 28, 1
   3              		.eabi_attribute 20, 1
   4              		.eabi_attribute 21, 1
   5              		.eabi_attribute 23, 3
   6              		.eabi_attribute 24, 1
   7              		.eabi_attribute 25, 1
   8              		.eabi_attribute 26, 1
   9              		.eabi_attribute 30, 1
  10              		.eabi_attribute 34, 1
  11              		.eabi_attribute 18, 4
  12              		.file	"lv_theme_mono.c"
  13              		.text
  14              	.Ltext0:
  15              		.cfi_sections	.debug_frame
  16              		.section	.text.theme_apply,"ax",%progbits
  17              		.align	1
  18              		.arch armv7e-m
  19              		.syntax unified
  20              		.thumb
  21              		.thumb_func
  22              		.fpu fpv5-d16
  24              	theme_apply:
  25              	.LVL0:
  26              	.LFB186:
  27              		.file 1 "Middlewares/lvgl/src/extra/themes/mono/lv_theme_mono.c"
   1:Middlewares/lvgl/src/extra/themes/mono/lv_theme_mono.c **** /**
   2:Middlewares/lvgl/src/extra/themes/mono/lv_theme_mono.c ****  * @file lv_theme_mono.c
   3:Middlewares/lvgl/src/extra/themes/mono/lv_theme_mono.c ****  *
   4:Middlewares/lvgl/src/extra/themes/mono/lv_theme_mono.c ****  */
   5:Middlewares/lvgl/src/extra/themes/mono/lv_theme_mono.c **** 
   6:Middlewares/lvgl/src/extra/themes/mono/lv_theme_mono.c **** /*********************
   7:Middlewares/lvgl/src/extra/themes/mono/lv_theme_mono.c ****  *      INCLUDES
   8:Middlewares/lvgl/src/extra/themes/mono/lv_theme_mono.c ****  *********************/
   9:Middlewares/lvgl/src/extra/themes/mono/lv_theme_mono.c **** #include "../../../lvgl.h"
  10:Middlewares/lvgl/src/extra/themes/mono/lv_theme_mono.c **** 
  11:Middlewares/lvgl/src/extra/themes/mono/lv_theme_mono.c **** #if LV_USE_THEME_MONO
  12:Middlewares/lvgl/src/extra/themes/mono/lv_theme_mono.c **** 
  13:Middlewares/lvgl/src/extra/themes/mono/lv_theme_mono.c **** #include "lv_theme_mono.h"
  14:Middlewares/lvgl/src/extra/themes/mono/lv_theme_mono.c **** #include "../../../misc/lv_gc.h"
  15:Middlewares/lvgl/src/extra/themes/mono/lv_theme_mono.c **** 
  16:Middlewares/lvgl/src/extra/themes/mono/lv_theme_mono.c **** /*********************
  17:Middlewares/lvgl/src/extra/themes/mono/lv_theme_mono.c ****  *      DEFINES
  18:Middlewares/lvgl/src/extra/themes/mono/lv_theme_mono.c ****  *********************/
  19:Middlewares/lvgl/src/extra/themes/mono/lv_theme_mono.c **** 
  20:Middlewares/lvgl/src/extra/themes/mono/lv_theme_mono.c **** #define COLOR_FG      dark_bg ? lv_color_white() : lv_color_black()
  21:Middlewares/lvgl/src/extra/themes/mono/lv_theme_mono.c **** #define COLOR_BG      dark_bg ? lv_color_black() : lv_color_white()
  22:Middlewares/lvgl/src/extra/themes/mono/lv_theme_mono.c **** 
  23:Middlewares/lvgl/src/extra/themes/mono/lv_theme_mono.c **** #define BORDER_W_NORMAL  1
  24:Middlewares/lvgl/src/extra/themes/mono/lv_theme_mono.c **** #define BORDER_W_PR      3
  25:Middlewares/lvgl/src/extra/themes/mono/lv_theme_mono.c **** #define BORDER_W_DIS     0
  26:Middlewares/lvgl/src/extra/themes/mono/lv_theme_mono.c **** #define BORDER_W_FOCUS   1
  27:Middlewares/lvgl/src/extra/themes/mono/lv_theme_mono.c **** #define BORDER_W_EDIT    2
  28:Middlewares/lvgl/src/extra/themes/mono/lv_theme_mono.c **** #define PAD_DEF          4
  29:Middlewares/lvgl/src/extra/themes/mono/lv_theme_mono.c **** 
  30:Middlewares/lvgl/src/extra/themes/mono/lv_theme_mono.c **** /**********************
  31:Middlewares/lvgl/src/extra/themes/mono/lv_theme_mono.c ****  *      TYPEDEFS
ARM GAS  /tmp/ccFxGgVE.s 			page 2


  32:Middlewares/lvgl/src/extra/themes/mono/lv_theme_mono.c ****  **********************/
  33:Middlewares/lvgl/src/extra/themes/mono/lv_theme_mono.c **** typedef struct {
  34:Middlewares/lvgl/src/extra/themes/mono/lv_theme_mono.c ****     lv_style_t scr;
  35:Middlewares/lvgl/src/extra/themes/mono/lv_theme_mono.c ****     lv_style_t card;
  36:Middlewares/lvgl/src/extra/themes/mono/lv_theme_mono.c ****     lv_style_t scrollbar;
  37:Middlewares/lvgl/src/extra/themes/mono/lv_theme_mono.c ****     lv_style_t btn;
  38:Middlewares/lvgl/src/extra/themes/mono/lv_theme_mono.c ****     lv_style_t pr;
  39:Middlewares/lvgl/src/extra/themes/mono/lv_theme_mono.c ****     lv_style_t inv;
  40:Middlewares/lvgl/src/extra/themes/mono/lv_theme_mono.c ****     lv_style_t disabled;
  41:Middlewares/lvgl/src/extra/themes/mono/lv_theme_mono.c ****     lv_style_t focus;
  42:Middlewares/lvgl/src/extra/themes/mono/lv_theme_mono.c ****     lv_style_t edit;
  43:Middlewares/lvgl/src/extra/themes/mono/lv_theme_mono.c ****     lv_style_t pad_gap;
  44:Middlewares/lvgl/src/extra/themes/mono/lv_theme_mono.c ****     lv_style_t pad_zero;
  45:Middlewares/lvgl/src/extra/themes/mono/lv_theme_mono.c ****     lv_style_t no_radius;
  46:Middlewares/lvgl/src/extra/themes/mono/lv_theme_mono.c ****     lv_style_t radius_circle;
  47:Middlewares/lvgl/src/extra/themes/mono/lv_theme_mono.c ****     lv_style_t large_border;
  48:Middlewares/lvgl/src/extra/themes/mono/lv_theme_mono.c ****     lv_style_t large_line_space;
  49:Middlewares/lvgl/src/extra/themes/mono/lv_theme_mono.c ****     lv_style_t underline;
  50:Middlewares/lvgl/src/extra/themes/mono/lv_theme_mono.c **** #if LV_USE_TEXTAREA
  51:Middlewares/lvgl/src/extra/themes/mono/lv_theme_mono.c ****     lv_style_t ta_cursor;
  52:Middlewares/lvgl/src/extra/themes/mono/lv_theme_mono.c **** #endif
  53:Middlewares/lvgl/src/extra/themes/mono/lv_theme_mono.c **** } my_theme_styles_t;
  54:Middlewares/lvgl/src/extra/themes/mono/lv_theme_mono.c **** 
  55:Middlewares/lvgl/src/extra/themes/mono/lv_theme_mono.c **** 
  56:Middlewares/lvgl/src/extra/themes/mono/lv_theme_mono.c **** /**********************
  57:Middlewares/lvgl/src/extra/themes/mono/lv_theme_mono.c ****  *  STATIC PROTOTYPES
  58:Middlewares/lvgl/src/extra/themes/mono/lv_theme_mono.c ****  **********************/
  59:Middlewares/lvgl/src/extra/themes/mono/lv_theme_mono.c **** static void style_init_reset(lv_style_t * style);
  60:Middlewares/lvgl/src/extra/themes/mono/lv_theme_mono.c **** static void theme_apply(lv_theme_t * th, lv_obj_t * obj);
  61:Middlewares/lvgl/src/extra/themes/mono/lv_theme_mono.c **** 
  62:Middlewares/lvgl/src/extra/themes/mono/lv_theme_mono.c **** /**********************
  63:Middlewares/lvgl/src/extra/themes/mono/lv_theme_mono.c ****  *  STATIC VARIABLES
  64:Middlewares/lvgl/src/extra/themes/mono/lv_theme_mono.c ****  **********************/
  65:Middlewares/lvgl/src/extra/themes/mono/lv_theme_mono.c **** static my_theme_styles_t * styles;
  66:Middlewares/lvgl/src/extra/themes/mono/lv_theme_mono.c **** static lv_theme_t theme;
  67:Middlewares/lvgl/src/extra/themes/mono/lv_theme_mono.c **** static bool inited;
  68:Middlewares/lvgl/src/extra/themes/mono/lv_theme_mono.c **** 
  69:Middlewares/lvgl/src/extra/themes/mono/lv_theme_mono.c **** /**********************
  70:Middlewares/lvgl/src/extra/themes/mono/lv_theme_mono.c ****  *      MACROS
  71:Middlewares/lvgl/src/extra/themes/mono/lv_theme_mono.c ****  **********************/
  72:Middlewares/lvgl/src/extra/themes/mono/lv_theme_mono.c **** 
  73:Middlewares/lvgl/src/extra/themes/mono/lv_theme_mono.c **** /**********************
  74:Middlewares/lvgl/src/extra/themes/mono/lv_theme_mono.c ****  *   STATIC FUNCTIONS
  75:Middlewares/lvgl/src/extra/themes/mono/lv_theme_mono.c ****  **********************/
  76:Middlewares/lvgl/src/extra/themes/mono/lv_theme_mono.c **** 
  77:Middlewares/lvgl/src/extra/themes/mono/lv_theme_mono.c **** static void style_init(bool dark_bg, const lv_font_t * font)
  78:Middlewares/lvgl/src/extra/themes/mono/lv_theme_mono.c **** {
  79:Middlewares/lvgl/src/extra/themes/mono/lv_theme_mono.c ****     style_init_reset(&styles->scrollbar);
  80:Middlewares/lvgl/src/extra/themes/mono/lv_theme_mono.c ****     lv_style_set_bg_opa(&styles->scrollbar, LV_OPA_COVER);
  81:Middlewares/lvgl/src/extra/themes/mono/lv_theme_mono.c ****     lv_style_set_bg_color(&styles->scrollbar,COLOR_FG);
  82:Middlewares/lvgl/src/extra/themes/mono/lv_theme_mono.c ****     lv_style_set_width(&styles->scrollbar,  PAD_DEF);
  83:Middlewares/lvgl/src/extra/themes/mono/lv_theme_mono.c **** 
  84:Middlewares/lvgl/src/extra/themes/mono/lv_theme_mono.c ****     style_init_reset(&styles->scr);
  85:Middlewares/lvgl/src/extra/themes/mono/lv_theme_mono.c ****     lv_style_set_bg_opa(&styles->scr, LV_OPA_COVER);
  86:Middlewares/lvgl/src/extra/themes/mono/lv_theme_mono.c ****     lv_style_set_bg_color(&styles->scr, COLOR_BG);
  87:Middlewares/lvgl/src/extra/themes/mono/lv_theme_mono.c ****     lv_style_set_text_color(&styles->scr, COLOR_FG);
  88:Middlewares/lvgl/src/extra/themes/mono/lv_theme_mono.c ****     lv_style_set_pad_row(&styles->scr, PAD_DEF);
ARM GAS  /tmp/ccFxGgVE.s 			page 3


  89:Middlewares/lvgl/src/extra/themes/mono/lv_theme_mono.c ****     lv_style_set_pad_column(&styles->scr, PAD_DEF);
  90:Middlewares/lvgl/src/extra/themes/mono/lv_theme_mono.c ****     lv_style_set_text_font(&styles->scr, font);
  91:Middlewares/lvgl/src/extra/themes/mono/lv_theme_mono.c **** 
  92:Middlewares/lvgl/src/extra/themes/mono/lv_theme_mono.c ****     style_init_reset(&styles->card);
  93:Middlewares/lvgl/src/extra/themes/mono/lv_theme_mono.c ****     lv_style_set_bg_opa(&styles->card, LV_OPA_COVER);
  94:Middlewares/lvgl/src/extra/themes/mono/lv_theme_mono.c ****     lv_style_set_bg_color(&styles->card, COLOR_BG);
  95:Middlewares/lvgl/src/extra/themes/mono/lv_theme_mono.c ****     lv_style_set_border_color(&styles->card, COLOR_FG);
  96:Middlewares/lvgl/src/extra/themes/mono/lv_theme_mono.c ****     lv_style_set_radius(&styles->card, 2);
  97:Middlewares/lvgl/src/extra/themes/mono/lv_theme_mono.c ****     lv_style_set_border_width(&styles->card, BORDER_W_NORMAL);
  98:Middlewares/lvgl/src/extra/themes/mono/lv_theme_mono.c ****     lv_style_set_pad_all(&styles->card, PAD_DEF);
  99:Middlewares/lvgl/src/extra/themes/mono/lv_theme_mono.c ****     lv_style_set_pad_gap(&styles->card, PAD_DEF);
 100:Middlewares/lvgl/src/extra/themes/mono/lv_theme_mono.c ****     lv_style_set_text_color(&styles->card, COLOR_FG);
 101:Middlewares/lvgl/src/extra/themes/mono/lv_theme_mono.c ****     lv_style_set_line_width(&styles->card, 2);
 102:Middlewares/lvgl/src/extra/themes/mono/lv_theme_mono.c ****     lv_style_set_line_color(&styles->card, COLOR_FG);
 103:Middlewares/lvgl/src/extra/themes/mono/lv_theme_mono.c ****     lv_style_set_arc_width(&styles->card, 2);
 104:Middlewares/lvgl/src/extra/themes/mono/lv_theme_mono.c ****     lv_style_set_arc_color(&styles->card, COLOR_FG);
 105:Middlewares/lvgl/src/extra/themes/mono/lv_theme_mono.c ****     lv_style_set_outline_color(&styles->card, COLOR_FG);
 106:Middlewares/lvgl/src/extra/themes/mono/lv_theme_mono.c ****     lv_style_set_anim_time(&styles->card, 300);
 107:Middlewares/lvgl/src/extra/themes/mono/lv_theme_mono.c **** 
 108:Middlewares/lvgl/src/extra/themes/mono/lv_theme_mono.c ****     style_init_reset(&styles->pr);
 109:Middlewares/lvgl/src/extra/themes/mono/lv_theme_mono.c ****     lv_style_set_border_width(&styles->pr, BORDER_W_PR);
 110:Middlewares/lvgl/src/extra/themes/mono/lv_theme_mono.c **** 
 111:Middlewares/lvgl/src/extra/themes/mono/lv_theme_mono.c ****     style_init_reset(&styles->inv);
 112:Middlewares/lvgl/src/extra/themes/mono/lv_theme_mono.c ****     lv_style_set_bg_opa(&styles->inv, LV_OPA_COVER);
 113:Middlewares/lvgl/src/extra/themes/mono/lv_theme_mono.c ****     lv_style_set_bg_color(&styles->inv, COLOR_FG);
 114:Middlewares/lvgl/src/extra/themes/mono/lv_theme_mono.c ****     lv_style_set_border_color(&styles->inv, COLOR_BG);
 115:Middlewares/lvgl/src/extra/themes/mono/lv_theme_mono.c ****     lv_style_set_line_color(&styles->inv, COLOR_BG);
 116:Middlewares/lvgl/src/extra/themes/mono/lv_theme_mono.c ****     lv_style_set_arc_color(&styles->inv, COLOR_BG);
 117:Middlewares/lvgl/src/extra/themes/mono/lv_theme_mono.c ****     lv_style_set_text_color(&styles->inv, COLOR_BG);
 118:Middlewares/lvgl/src/extra/themes/mono/lv_theme_mono.c ****     lv_style_set_outline_color(&styles->inv, COLOR_BG);
 119:Middlewares/lvgl/src/extra/themes/mono/lv_theme_mono.c **** 
 120:Middlewares/lvgl/src/extra/themes/mono/lv_theme_mono.c ****     style_init_reset(&styles->disabled);
 121:Middlewares/lvgl/src/extra/themes/mono/lv_theme_mono.c ****     lv_style_set_border_width(&styles->disabled, BORDER_W_DIS);
 122:Middlewares/lvgl/src/extra/themes/mono/lv_theme_mono.c **** 
 123:Middlewares/lvgl/src/extra/themes/mono/lv_theme_mono.c ****     style_init_reset(&styles->focus);
 124:Middlewares/lvgl/src/extra/themes/mono/lv_theme_mono.c ****     lv_style_set_outline_width(&styles->focus, 1);
 125:Middlewares/lvgl/src/extra/themes/mono/lv_theme_mono.c ****     lv_style_set_outline_pad(&styles->focus, BORDER_W_FOCUS);
 126:Middlewares/lvgl/src/extra/themes/mono/lv_theme_mono.c **** 
 127:Middlewares/lvgl/src/extra/themes/mono/lv_theme_mono.c ****     style_init_reset(&styles->edit);
 128:Middlewares/lvgl/src/extra/themes/mono/lv_theme_mono.c ****     lv_style_set_outline_width(&styles->edit, BORDER_W_EDIT);
 129:Middlewares/lvgl/src/extra/themes/mono/lv_theme_mono.c **** 
 130:Middlewares/lvgl/src/extra/themes/mono/lv_theme_mono.c ****     style_init_reset(&styles->large_border);
 131:Middlewares/lvgl/src/extra/themes/mono/lv_theme_mono.c ****     lv_style_set_border_width(&styles->large_border, BORDER_W_EDIT);
 132:Middlewares/lvgl/src/extra/themes/mono/lv_theme_mono.c **** 
 133:Middlewares/lvgl/src/extra/themes/mono/lv_theme_mono.c ****     style_init_reset(&styles->pad_gap);
 134:Middlewares/lvgl/src/extra/themes/mono/lv_theme_mono.c ****     lv_style_set_pad_gap(&styles->pad_gap, PAD_DEF);
 135:Middlewares/lvgl/src/extra/themes/mono/lv_theme_mono.c **** 
 136:Middlewares/lvgl/src/extra/themes/mono/lv_theme_mono.c ****     style_init_reset(&styles->pad_zero);
 137:Middlewares/lvgl/src/extra/themes/mono/lv_theme_mono.c ****     lv_style_set_pad_all(&styles->pad_zero, 0);
 138:Middlewares/lvgl/src/extra/themes/mono/lv_theme_mono.c ****     lv_style_set_pad_gap(&styles->pad_zero, 0);
 139:Middlewares/lvgl/src/extra/themes/mono/lv_theme_mono.c **** 
 140:Middlewares/lvgl/src/extra/themes/mono/lv_theme_mono.c ****     style_init_reset(&styles->no_radius);
 141:Middlewares/lvgl/src/extra/themes/mono/lv_theme_mono.c ****     lv_style_set_radius(&styles->no_radius, 0);
 142:Middlewares/lvgl/src/extra/themes/mono/lv_theme_mono.c **** 
 143:Middlewares/lvgl/src/extra/themes/mono/lv_theme_mono.c ****     style_init_reset(&styles->radius_circle);
 144:Middlewares/lvgl/src/extra/themes/mono/lv_theme_mono.c ****     lv_style_set_radius(&styles->radius_circle, LV_RADIUS_CIRCLE);
 145:Middlewares/lvgl/src/extra/themes/mono/lv_theme_mono.c **** 
ARM GAS  /tmp/ccFxGgVE.s 			page 4


 146:Middlewares/lvgl/src/extra/themes/mono/lv_theme_mono.c ****     style_init_reset(&styles->large_line_space);
 147:Middlewares/lvgl/src/extra/themes/mono/lv_theme_mono.c ****     lv_style_set_text_line_space(&styles->large_line_space, 6);
 148:Middlewares/lvgl/src/extra/themes/mono/lv_theme_mono.c **** 
 149:Middlewares/lvgl/src/extra/themes/mono/lv_theme_mono.c ****     style_init_reset(&styles->underline);
 150:Middlewares/lvgl/src/extra/themes/mono/lv_theme_mono.c ****     lv_style_set_text_decor(&styles->underline, LV_TEXT_DECOR_UNDERLINE);
 151:Middlewares/lvgl/src/extra/themes/mono/lv_theme_mono.c **** 
 152:Middlewares/lvgl/src/extra/themes/mono/lv_theme_mono.c **** #if LV_USE_TEXTAREA
 153:Middlewares/lvgl/src/extra/themes/mono/lv_theme_mono.c ****     style_init_reset(&styles->ta_cursor);
 154:Middlewares/lvgl/src/extra/themes/mono/lv_theme_mono.c ****     lv_style_set_border_side(&styles->ta_cursor, LV_BORDER_SIDE_LEFT);
 155:Middlewares/lvgl/src/extra/themes/mono/lv_theme_mono.c ****     lv_style_set_border_color(&styles->ta_cursor, COLOR_FG);
 156:Middlewares/lvgl/src/extra/themes/mono/lv_theme_mono.c ****     lv_style_set_border_width(&styles->ta_cursor, 2);
 157:Middlewares/lvgl/src/extra/themes/mono/lv_theme_mono.c ****     lv_style_set_bg_opa(&styles->ta_cursor, LV_OPA_TRANSP);
 158:Middlewares/lvgl/src/extra/themes/mono/lv_theme_mono.c ****     lv_style_set_anim_time(&styles->ta_cursor, 500);
 159:Middlewares/lvgl/src/extra/themes/mono/lv_theme_mono.c **** #endif
 160:Middlewares/lvgl/src/extra/themes/mono/lv_theme_mono.c **** }
 161:Middlewares/lvgl/src/extra/themes/mono/lv_theme_mono.c **** 
 162:Middlewares/lvgl/src/extra/themes/mono/lv_theme_mono.c **** 
 163:Middlewares/lvgl/src/extra/themes/mono/lv_theme_mono.c **** /**********************
 164:Middlewares/lvgl/src/extra/themes/mono/lv_theme_mono.c ****  *   GLOBAL FUNCTIONS
 165:Middlewares/lvgl/src/extra/themes/mono/lv_theme_mono.c ****  **********************/
 166:Middlewares/lvgl/src/extra/themes/mono/lv_theme_mono.c **** 
 167:Middlewares/lvgl/src/extra/themes/mono/lv_theme_mono.c **** lv_theme_t * lv_theme_mono_init(lv_disp_t * disp, bool dark_bg, const lv_font_t * font)
 168:Middlewares/lvgl/src/extra/themes/mono/lv_theme_mono.c **** {
 169:Middlewares/lvgl/src/extra/themes/mono/lv_theme_mono.c **** 
 170:Middlewares/lvgl/src/extra/themes/mono/lv_theme_mono.c ****     /*This trick is required only to avoid the garbage collection of
 171:Middlewares/lvgl/src/extra/themes/mono/lv_theme_mono.c ****      *styles' data if LVGL is used in a binding (e.g. Micropython)
 172:Middlewares/lvgl/src/extra/themes/mono/lv_theme_mono.c ****      *In a general case styles could be in simple `static lv_style_t my_style...` variables*/
 173:Middlewares/lvgl/src/extra/themes/mono/lv_theme_mono.c ****     if(!inited) {
 174:Middlewares/lvgl/src/extra/themes/mono/lv_theme_mono.c ****         LV_GC_ROOT(_lv_theme_default_styles) = lv_mem_alloc(sizeof(my_theme_styles_t));
 175:Middlewares/lvgl/src/extra/themes/mono/lv_theme_mono.c ****         styles = (my_theme_styles_t *)LV_GC_ROOT(_lv_theme_default_styles);
 176:Middlewares/lvgl/src/extra/themes/mono/lv_theme_mono.c ****     }
 177:Middlewares/lvgl/src/extra/themes/mono/lv_theme_mono.c **** 
 178:Middlewares/lvgl/src/extra/themes/mono/lv_theme_mono.c ****     theme.disp = disp;
 179:Middlewares/lvgl/src/extra/themes/mono/lv_theme_mono.c ****     theme.font_small = LV_FONT_DEFAULT;
 180:Middlewares/lvgl/src/extra/themes/mono/lv_theme_mono.c ****     theme.font_normal = LV_FONT_DEFAULT;
 181:Middlewares/lvgl/src/extra/themes/mono/lv_theme_mono.c ****     theme.font_large = LV_FONT_DEFAULT;
 182:Middlewares/lvgl/src/extra/themes/mono/lv_theme_mono.c ****     theme.apply_cb = theme_apply;
 183:Middlewares/lvgl/src/extra/themes/mono/lv_theme_mono.c **** 
 184:Middlewares/lvgl/src/extra/themes/mono/lv_theme_mono.c ****     style_init(dark_bg, font);
 185:Middlewares/lvgl/src/extra/themes/mono/lv_theme_mono.c **** 
 186:Middlewares/lvgl/src/extra/themes/mono/lv_theme_mono.c ****     inited = true;
 187:Middlewares/lvgl/src/extra/themes/mono/lv_theme_mono.c **** 
 188:Middlewares/lvgl/src/extra/themes/mono/lv_theme_mono.c ****     if(disp == NULL || lv_disp_get_theme(disp) == &theme) lv_obj_report_style_change(NULL);
 189:Middlewares/lvgl/src/extra/themes/mono/lv_theme_mono.c **** 
 190:Middlewares/lvgl/src/extra/themes/mono/lv_theme_mono.c ****     return (lv_theme_t *)&theme;
 191:Middlewares/lvgl/src/extra/themes/mono/lv_theme_mono.c **** }
 192:Middlewares/lvgl/src/extra/themes/mono/lv_theme_mono.c **** 
 193:Middlewares/lvgl/src/extra/themes/mono/lv_theme_mono.c **** 
 194:Middlewares/lvgl/src/extra/themes/mono/lv_theme_mono.c **** static void theme_apply(lv_theme_t * th, lv_obj_t * obj)
 195:Middlewares/lvgl/src/extra/themes/mono/lv_theme_mono.c **** {
  28              		.loc 1 195 1 view -0
  29              		.cfi_startproc
  30              		@ args = 0, pretend = 0, frame = 0
  31              		@ frame_needed = 0, uses_anonymous_args = 0
  32              		.loc 1 195 1 is_stmt 0 view .LVU1
  33 0000 70B5     		push	{r4, r5, r6, lr}
  34              	.LCFI0:
ARM GAS  /tmp/ccFxGgVE.s 			page 5


  35              		.cfi_def_cfa_offset 16
  36              		.cfi_offset 4, -16
  37              		.cfi_offset 5, -12
  38              		.cfi_offset 6, -8
  39              		.cfi_offset 14, -4
  40 0002 0C46     		mov	r4, r1
 196:Middlewares/lvgl/src/extra/themes/mono/lv_theme_mono.c ****     LV_UNUSED(th);
  41              		.loc 1 196 5 is_stmt 1 view .LVU2
 197:Middlewares/lvgl/src/extra/themes/mono/lv_theme_mono.c **** 
 198:Middlewares/lvgl/src/extra/themes/mono/lv_theme_mono.c ****     if(lv_obj_get_parent(obj) == NULL) {
  42              		.loc 1 198 5 view .LVU3
  43              		.loc 1 198 8 is_stmt 0 view .LVU4
  44 0004 0846     		mov	r0, r1
  45              	.LVL1:
  46              		.loc 1 198 8 view .LVU5
  47 0006 FFF7FEFF 		bl	lv_obj_get_parent
  48              	.LVL2:
  49              		.loc 1 198 7 view .LVU6
  50 000a 70B1     		cbz	r0, .L33
 199:Middlewares/lvgl/src/extra/themes/mono/lv_theme_mono.c ****         lv_obj_add_style(obj, &styles->scr, 0);
 200:Middlewares/lvgl/src/extra/themes/mono/lv_theme_mono.c ****         lv_obj_add_style(obj, &styles->scrollbar, LV_PART_SCROLLBAR);
 201:Middlewares/lvgl/src/extra/themes/mono/lv_theme_mono.c ****         return;
 202:Middlewares/lvgl/src/extra/themes/mono/lv_theme_mono.c ****     }
 203:Middlewares/lvgl/src/extra/themes/mono/lv_theme_mono.c **** 
 204:Middlewares/lvgl/src/extra/themes/mono/lv_theme_mono.c ****     if(lv_obj_check_type(obj, &lv_obj_class)) {
  51              		.loc 1 204 5 is_stmt 1 view .LVU7
  52              		.loc 1 204 8 is_stmt 0 view .LVU8
  53 000c BA49     		ldr	r1, .L42
  54 000e 2046     		mov	r0, r4
  55 0010 FFF7FEFF 		bl	lv_obj_check_type
  56              	.LVL3:
  57              		.loc 1 204 7 view .LVU9
  58 0014 0028     		cmp	r0, #0
  59 0016 7CD0     		beq	.L4
  60              	.LBB134:
 205:Middlewares/lvgl/src/extra/themes/mono/lv_theme_mono.c **** #if LV_USE_TABVIEW
 206:Middlewares/lvgl/src/extra/themes/mono/lv_theme_mono.c ****         lv_obj_t * parent = lv_obj_get_parent(obj);
  61              		.loc 1 206 9 is_stmt 1 view .LVU10
  62              		.loc 1 206 29 is_stmt 0 view .LVU11
  63 0018 2046     		mov	r0, r4
  64 001a FFF7FEFF 		bl	lv_obj_get_parent
  65              	.LVL4:
  66 001e 0546     		mov	r5, r0
  67              	.LVL5:
 207:Middlewares/lvgl/src/extra/themes/mono/lv_theme_mono.c ****         /*Tabview content area*/
 208:Middlewares/lvgl/src/extra/themes/mono/lv_theme_mono.c ****         if(lv_obj_check_type(parent, &lv_tabview_class)) {
  68              		.loc 1 208 9 is_stmt 1 view .LVU12
  69              		.loc 1 208 12 is_stmt 0 view .LVU13
  70 0020 B649     		ldr	r1, .L42+4
  71 0022 FFF7FEFF 		bl	lv_obj_check_type
  72              	.LVL6:
  73              		.loc 1 208 11 view .LVU14
  74 0026 70B1     		cbz	r0, .L34
  75              	.LVL7:
  76              	.L1:
  77              		.loc 1 208 11 view .LVU15
  78              	.LBE134:
ARM GAS  /tmp/ccFxGgVE.s 			page 6


 209:Middlewares/lvgl/src/extra/themes/mono/lv_theme_mono.c ****             return;
 210:Middlewares/lvgl/src/extra/themes/mono/lv_theme_mono.c ****         }
 211:Middlewares/lvgl/src/extra/themes/mono/lv_theme_mono.c ****         /*Tabview pages*/
 212:Middlewares/lvgl/src/extra/themes/mono/lv_theme_mono.c ****         else if(lv_obj_check_type(lv_obj_get_parent(parent), &lv_tabview_class)) {
 213:Middlewares/lvgl/src/extra/themes/mono/lv_theme_mono.c ****             lv_obj_add_style(obj, &styles->card, 0);
 214:Middlewares/lvgl/src/extra/themes/mono/lv_theme_mono.c ****             lv_obj_add_style(obj, &styles->no_radius, 0);
 215:Middlewares/lvgl/src/extra/themes/mono/lv_theme_mono.c ****             lv_obj_add_style(obj, &styles->scrollbar, LV_PART_SCROLLBAR);
 216:Middlewares/lvgl/src/extra/themes/mono/lv_theme_mono.c ****             return;
 217:Middlewares/lvgl/src/extra/themes/mono/lv_theme_mono.c ****         }
 218:Middlewares/lvgl/src/extra/themes/mono/lv_theme_mono.c **** #endif
 219:Middlewares/lvgl/src/extra/themes/mono/lv_theme_mono.c **** 
 220:Middlewares/lvgl/src/extra/themes/mono/lv_theme_mono.c **** #if LV_USE_WIN
 221:Middlewares/lvgl/src/extra/themes/mono/lv_theme_mono.c ****         /*Header*/
 222:Middlewares/lvgl/src/extra/themes/mono/lv_theme_mono.c ****         if(lv_obj_get_child_id(obj) == 0 && lv_obj_check_type(lv_obj_get_parent(obj), &lv_win_class
 223:Middlewares/lvgl/src/extra/themes/mono/lv_theme_mono.c ****             lv_obj_add_style(obj, &styles->card, 0);
 224:Middlewares/lvgl/src/extra/themes/mono/lv_theme_mono.c ****             lv_obj_add_style(obj, &styles->no_radius, 0);
 225:Middlewares/lvgl/src/extra/themes/mono/lv_theme_mono.c ****             return;
 226:Middlewares/lvgl/src/extra/themes/mono/lv_theme_mono.c ****         }
 227:Middlewares/lvgl/src/extra/themes/mono/lv_theme_mono.c ****         /*Content*/
 228:Middlewares/lvgl/src/extra/themes/mono/lv_theme_mono.c ****         else if(lv_obj_get_child_id(obj) == 1 && lv_obj_check_type(lv_obj_get_parent(obj), &lv_win_
 229:Middlewares/lvgl/src/extra/themes/mono/lv_theme_mono.c ****             lv_obj_add_style(obj, &styles->card, 0);
 230:Middlewares/lvgl/src/extra/themes/mono/lv_theme_mono.c ****             lv_obj_add_style(obj, &styles->no_radius, 0);
 231:Middlewares/lvgl/src/extra/themes/mono/lv_theme_mono.c ****             lv_obj_add_style(obj, &styles->scrollbar, LV_PART_SCROLLBAR);
 232:Middlewares/lvgl/src/extra/themes/mono/lv_theme_mono.c ****             return;
 233:Middlewares/lvgl/src/extra/themes/mono/lv_theme_mono.c ****         }
 234:Middlewares/lvgl/src/extra/themes/mono/lv_theme_mono.c **** #endif
 235:Middlewares/lvgl/src/extra/themes/mono/lv_theme_mono.c ****         lv_obj_add_style(obj, &styles->card, 0);
 236:Middlewares/lvgl/src/extra/themes/mono/lv_theme_mono.c ****         lv_obj_add_style(obj, &styles->scrollbar, LV_PART_SCROLLBAR);
 237:Middlewares/lvgl/src/extra/themes/mono/lv_theme_mono.c ****     }
 238:Middlewares/lvgl/src/extra/themes/mono/lv_theme_mono.c **** #if LV_USE_BTN
 239:Middlewares/lvgl/src/extra/themes/mono/lv_theme_mono.c ****     else if(lv_obj_check_type(obj, &lv_btn_class)) {
 240:Middlewares/lvgl/src/extra/themes/mono/lv_theme_mono.c ****         lv_obj_add_style(obj, &styles->card, 0);
 241:Middlewares/lvgl/src/extra/themes/mono/lv_theme_mono.c ****         lv_obj_add_style(obj, &styles->pr, LV_STATE_PRESSED);
 242:Middlewares/lvgl/src/extra/themes/mono/lv_theme_mono.c ****         lv_obj_add_style(obj, &styles->inv, LV_STATE_CHECKED);
 243:Middlewares/lvgl/src/extra/themes/mono/lv_theme_mono.c ****         lv_obj_add_style(obj, &styles->disabled, LV_STATE_DISABLED);
 244:Middlewares/lvgl/src/extra/themes/mono/lv_theme_mono.c ****         lv_obj_add_style(obj, &styles->focus, LV_STATE_FOCUS_KEY);
 245:Middlewares/lvgl/src/extra/themes/mono/lv_theme_mono.c ****         lv_obj_add_style(obj, &styles->edit, LV_STATE_EDITED);
 246:Middlewares/lvgl/src/extra/themes/mono/lv_theme_mono.c ****     }
 247:Middlewares/lvgl/src/extra/themes/mono/lv_theme_mono.c **** #endif
 248:Middlewares/lvgl/src/extra/themes/mono/lv_theme_mono.c **** 
 249:Middlewares/lvgl/src/extra/themes/mono/lv_theme_mono.c **** #if LV_USE_BTNMATRIX
 250:Middlewares/lvgl/src/extra/themes/mono/lv_theme_mono.c ****     else if(lv_obj_check_type(obj, &lv_btnmatrix_class)) {
 251:Middlewares/lvgl/src/extra/themes/mono/lv_theme_mono.c **** #if LV_USE_MSGBOX
 252:Middlewares/lvgl/src/extra/themes/mono/lv_theme_mono.c ****         if(lv_obj_check_type(lv_obj_get_parent(obj), &lv_msgbox_class)) {
 253:Middlewares/lvgl/src/extra/themes/mono/lv_theme_mono.c ****             lv_obj_add_style(obj, &styles->pad_gap, 0);
 254:Middlewares/lvgl/src/extra/themes/mono/lv_theme_mono.c ****             lv_obj_add_style(obj, &styles->card, LV_PART_ITEMS);
 255:Middlewares/lvgl/src/extra/themes/mono/lv_theme_mono.c ****             lv_obj_add_style(obj, &styles->pr, LV_PART_ITEMS | LV_STATE_PRESSED);
 256:Middlewares/lvgl/src/extra/themes/mono/lv_theme_mono.c ****             lv_obj_add_style(obj, &styles->disabled, LV_PART_ITEMS | LV_STATE_DISABLED);
 257:Middlewares/lvgl/src/extra/themes/mono/lv_theme_mono.c ****             lv_obj_add_style(obj, &styles->underline, LV_PART_ITEMS | LV_STATE_FOCUS_KEY);
 258:Middlewares/lvgl/src/extra/themes/mono/lv_theme_mono.c ****             lv_obj_add_style(obj, &styles->large_border, LV_PART_ITEMS | LV_STATE_FOCUS_KEY);
 259:Middlewares/lvgl/src/extra/themes/mono/lv_theme_mono.c ****             return;
 260:Middlewares/lvgl/src/extra/themes/mono/lv_theme_mono.c ****         }
 261:Middlewares/lvgl/src/extra/themes/mono/lv_theme_mono.c **** #endif
 262:Middlewares/lvgl/src/extra/themes/mono/lv_theme_mono.c **** #if LV_USE_TABVIEW
 263:Middlewares/lvgl/src/extra/themes/mono/lv_theme_mono.c ****         if(lv_obj_check_type(lv_obj_get_parent(obj), &lv_tabview_class)) {
 264:Middlewares/lvgl/src/extra/themes/mono/lv_theme_mono.c ****             lv_obj_add_style(obj, &styles->pad_gap, 0);
 265:Middlewares/lvgl/src/extra/themes/mono/lv_theme_mono.c ****             lv_obj_add_style(obj, &styles->card, LV_PART_ITEMS);
ARM GAS  /tmp/ccFxGgVE.s 			page 7


 266:Middlewares/lvgl/src/extra/themes/mono/lv_theme_mono.c ****             lv_obj_add_style(obj, &styles->pr, LV_PART_ITEMS | LV_STATE_PRESSED);
 267:Middlewares/lvgl/src/extra/themes/mono/lv_theme_mono.c ****             lv_obj_add_style(obj, &styles->inv, LV_PART_ITEMS | LV_STATE_CHECKED);
 268:Middlewares/lvgl/src/extra/themes/mono/lv_theme_mono.c ****             lv_obj_add_style(obj, &styles->disabled, LV_PART_ITEMS | LV_STATE_DISABLED);
 269:Middlewares/lvgl/src/extra/themes/mono/lv_theme_mono.c ****             lv_obj_add_style(obj, &styles->focus, LV_STATE_FOCUS_KEY);
 270:Middlewares/lvgl/src/extra/themes/mono/lv_theme_mono.c ****             lv_obj_add_style(obj, &styles->underline, LV_PART_ITEMS | LV_STATE_FOCUS_KEY);
 271:Middlewares/lvgl/src/extra/themes/mono/lv_theme_mono.c ****             lv_obj_add_style(obj, &styles->large_border, LV_PART_ITEMS | LV_STATE_FOCUS_KEY);
 272:Middlewares/lvgl/src/extra/themes/mono/lv_theme_mono.c ****             return;
 273:Middlewares/lvgl/src/extra/themes/mono/lv_theme_mono.c ****         }
 274:Middlewares/lvgl/src/extra/themes/mono/lv_theme_mono.c **** #endif
 275:Middlewares/lvgl/src/extra/themes/mono/lv_theme_mono.c ****         lv_obj_add_style(obj, &styles->card, 0);
 276:Middlewares/lvgl/src/extra/themes/mono/lv_theme_mono.c ****         lv_obj_add_style(obj, &styles->focus, LV_STATE_FOCUS_KEY);
 277:Middlewares/lvgl/src/extra/themes/mono/lv_theme_mono.c ****         lv_obj_add_style(obj, &styles->card, LV_PART_ITEMS);
 278:Middlewares/lvgl/src/extra/themes/mono/lv_theme_mono.c ****         lv_obj_add_style(obj, &styles->pr, LV_PART_ITEMS | LV_STATE_PRESSED);
 279:Middlewares/lvgl/src/extra/themes/mono/lv_theme_mono.c ****         lv_obj_add_style(obj, &styles->inv, LV_PART_ITEMS | LV_STATE_CHECKED);
 280:Middlewares/lvgl/src/extra/themes/mono/lv_theme_mono.c ****         lv_obj_add_style(obj, &styles->disabled, LV_PART_ITEMS | LV_STATE_DISABLED);
 281:Middlewares/lvgl/src/extra/themes/mono/lv_theme_mono.c ****         lv_obj_add_style(obj, &styles->underline, LV_PART_ITEMS | LV_STATE_FOCUS_KEY);
 282:Middlewares/lvgl/src/extra/themes/mono/lv_theme_mono.c ****             lv_obj_add_style(obj, &styles->large_border, LV_PART_ITEMS | LV_STATE_FOCUS_KEY);
 283:Middlewares/lvgl/src/extra/themes/mono/lv_theme_mono.c ****     }
 284:Middlewares/lvgl/src/extra/themes/mono/lv_theme_mono.c **** #endif
 285:Middlewares/lvgl/src/extra/themes/mono/lv_theme_mono.c **** 
 286:Middlewares/lvgl/src/extra/themes/mono/lv_theme_mono.c **** #if LV_USE_BAR
 287:Middlewares/lvgl/src/extra/themes/mono/lv_theme_mono.c ****     else if(lv_obj_check_type(obj, &lv_bar_class)) {
 288:Middlewares/lvgl/src/extra/themes/mono/lv_theme_mono.c ****         lv_obj_add_style(obj, &styles->card, 0);
 289:Middlewares/lvgl/src/extra/themes/mono/lv_theme_mono.c ****         lv_obj_add_style(obj, &styles->pad_zero, 0);
 290:Middlewares/lvgl/src/extra/themes/mono/lv_theme_mono.c ****         lv_obj_add_style(obj, &styles->inv, LV_PART_INDICATOR);
 291:Middlewares/lvgl/src/extra/themes/mono/lv_theme_mono.c ****         lv_obj_add_style(obj, &styles->focus, LV_STATE_FOCUS_KEY);
 292:Middlewares/lvgl/src/extra/themes/mono/lv_theme_mono.c ****     }
 293:Middlewares/lvgl/src/extra/themes/mono/lv_theme_mono.c **** #endif
 294:Middlewares/lvgl/src/extra/themes/mono/lv_theme_mono.c **** 
 295:Middlewares/lvgl/src/extra/themes/mono/lv_theme_mono.c **** #if LV_USE_SLIDER
 296:Middlewares/lvgl/src/extra/themes/mono/lv_theme_mono.c ****     else if(lv_obj_check_type(obj, &lv_slider_class)) {
 297:Middlewares/lvgl/src/extra/themes/mono/lv_theme_mono.c ****         lv_obj_add_style(obj, &styles->card, 0);
 298:Middlewares/lvgl/src/extra/themes/mono/lv_theme_mono.c ****         lv_obj_add_style(obj, &styles->pad_zero, 0);
 299:Middlewares/lvgl/src/extra/themes/mono/lv_theme_mono.c ****         lv_obj_add_style(obj, &styles->inv, LV_PART_INDICATOR);
 300:Middlewares/lvgl/src/extra/themes/mono/lv_theme_mono.c ****         lv_obj_add_style(obj, &styles->card, LV_PART_KNOB);
 301:Middlewares/lvgl/src/extra/themes/mono/lv_theme_mono.c ****         lv_obj_add_style(obj, &styles->radius_circle, LV_PART_KNOB);
 302:Middlewares/lvgl/src/extra/themes/mono/lv_theme_mono.c ****         lv_obj_add_style(obj, &styles->focus, LV_STATE_FOCUS_KEY);
 303:Middlewares/lvgl/src/extra/themes/mono/lv_theme_mono.c ****         lv_obj_add_style(obj, &styles->edit, LV_STATE_EDITED);
 304:Middlewares/lvgl/src/extra/themes/mono/lv_theme_mono.c ****     }
 305:Middlewares/lvgl/src/extra/themes/mono/lv_theme_mono.c **** #endif
 306:Middlewares/lvgl/src/extra/themes/mono/lv_theme_mono.c **** 
 307:Middlewares/lvgl/src/extra/themes/mono/lv_theme_mono.c **** #if LV_USE_TABLE
 308:Middlewares/lvgl/src/extra/themes/mono/lv_theme_mono.c ****     else if(lv_obj_check_type(obj, &lv_table_class)) {
 309:Middlewares/lvgl/src/extra/themes/mono/lv_theme_mono.c ****         lv_obj_add_style(obj, &styles->scrollbar, LV_PART_SCROLLBAR);
 310:Middlewares/lvgl/src/extra/themes/mono/lv_theme_mono.c ****         lv_obj_add_style(obj, &styles->card, LV_PART_ITEMS);
 311:Middlewares/lvgl/src/extra/themes/mono/lv_theme_mono.c ****         lv_obj_add_style(obj, &styles->no_radius, LV_PART_ITEMS);
 312:Middlewares/lvgl/src/extra/themes/mono/lv_theme_mono.c ****         lv_obj_add_style(obj, &styles->pr, LV_PART_ITEMS | LV_STATE_PRESSED);
 313:Middlewares/lvgl/src/extra/themes/mono/lv_theme_mono.c ****         lv_obj_add_style(obj, &styles->focus, LV_STATE_FOCUS_KEY);
 314:Middlewares/lvgl/src/extra/themes/mono/lv_theme_mono.c ****         lv_obj_add_style(obj, &styles->inv, LV_PART_ITEMS | LV_STATE_FOCUS_KEY);
 315:Middlewares/lvgl/src/extra/themes/mono/lv_theme_mono.c ****         lv_obj_add_style(obj, &styles->edit, LV_STATE_EDITED);
 316:Middlewares/lvgl/src/extra/themes/mono/lv_theme_mono.c ****     }
 317:Middlewares/lvgl/src/extra/themes/mono/lv_theme_mono.c **** #endif
 318:Middlewares/lvgl/src/extra/themes/mono/lv_theme_mono.c **** 
 319:Middlewares/lvgl/src/extra/themes/mono/lv_theme_mono.c **** #if LV_USE_CHECKBOX
 320:Middlewares/lvgl/src/extra/themes/mono/lv_theme_mono.c ****     else if(lv_obj_check_type(obj, &lv_checkbox_class)) {
 321:Middlewares/lvgl/src/extra/themes/mono/lv_theme_mono.c ****         lv_obj_add_style(obj, &styles->pad_gap, LV_PART_MAIN);
 322:Middlewares/lvgl/src/extra/themes/mono/lv_theme_mono.c ****         lv_obj_add_style(obj, &styles->card, LV_PART_INDICATOR);
ARM GAS  /tmp/ccFxGgVE.s 			page 8


 323:Middlewares/lvgl/src/extra/themes/mono/lv_theme_mono.c ****         lv_obj_add_style(obj, &styles->disabled, LV_PART_INDICATOR | LV_STATE_DISABLED);
 324:Middlewares/lvgl/src/extra/themes/mono/lv_theme_mono.c ****         lv_obj_add_style(obj, &styles->inv, LV_PART_INDICATOR | LV_STATE_CHECKED);
 325:Middlewares/lvgl/src/extra/themes/mono/lv_theme_mono.c ****         lv_obj_add_style(obj, &styles->pr, LV_PART_INDICATOR | LV_STATE_PRESSED);
 326:Middlewares/lvgl/src/extra/themes/mono/lv_theme_mono.c ****         lv_obj_add_style(obj, &styles->focus, LV_STATE_FOCUS_KEY);
 327:Middlewares/lvgl/src/extra/themes/mono/lv_theme_mono.c ****         lv_obj_add_style(obj, &styles->edit, LV_STATE_EDITED);
 328:Middlewares/lvgl/src/extra/themes/mono/lv_theme_mono.c ****     }
 329:Middlewares/lvgl/src/extra/themes/mono/lv_theme_mono.c **** #endif
 330:Middlewares/lvgl/src/extra/themes/mono/lv_theme_mono.c **** 
 331:Middlewares/lvgl/src/extra/themes/mono/lv_theme_mono.c **** #if LV_USE_SWITCH
 332:Middlewares/lvgl/src/extra/themes/mono/lv_theme_mono.c ****     else if(lv_obj_check_type(obj, &lv_switch_class)) {
 333:Middlewares/lvgl/src/extra/themes/mono/lv_theme_mono.c ****         lv_obj_add_style(obj, &styles->card, 0);
 334:Middlewares/lvgl/src/extra/themes/mono/lv_theme_mono.c ****         lv_obj_add_style(obj, &styles->radius_circle, 0);
 335:Middlewares/lvgl/src/extra/themes/mono/lv_theme_mono.c ****         lv_obj_add_style(obj, &styles->pad_zero, 0);
 336:Middlewares/lvgl/src/extra/themes/mono/lv_theme_mono.c ****         lv_obj_add_style(obj, &styles->inv, LV_PART_INDICATOR);
 337:Middlewares/lvgl/src/extra/themes/mono/lv_theme_mono.c ****         lv_obj_add_style(obj, &styles->radius_circle, LV_PART_INDICATOR);
 338:Middlewares/lvgl/src/extra/themes/mono/lv_theme_mono.c ****         lv_obj_add_style(obj, &styles->card, LV_PART_KNOB);
 339:Middlewares/lvgl/src/extra/themes/mono/lv_theme_mono.c ****         lv_obj_add_style(obj, &styles->radius_circle, LV_PART_KNOB);
 340:Middlewares/lvgl/src/extra/themes/mono/lv_theme_mono.c ****         lv_obj_add_style(obj, &styles->pad_zero, LV_PART_KNOB);
 341:Middlewares/lvgl/src/extra/themes/mono/lv_theme_mono.c ****         lv_obj_add_style(obj, &styles->focus, LV_STATE_FOCUS_KEY);
 342:Middlewares/lvgl/src/extra/themes/mono/lv_theme_mono.c ****         lv_obj_add_style(obj, &styles->edit, LV_STATE_EDITED);
 343:Middlewares/lvgl/src/extra/themes/mono/lv_theme_mono.c ****     }
 344:Middlewares/lvgl/src/extra/themes/mono/lv_theme_mono.c **** #endif
 345:Middlewares/lvgl/src/extra/themes/mono/lv_theme_mono.c **** 
 346:Middlewares/lvgl/src/extra/themes/mono/lv_theme_mono.c **** #if LV_USE_CHART
 347:Middlewares/lvgl/src/extra/themes/mono/lv_theme_mono.c ****     else if(lv_obj_check_type(obj, &lv_chart_class)) {
 348:Middlewares/lvgl/src/extra/themes/mono/lv_theme_mono.c ****         lv_obj_add_style(obj, &styles->card, 0);
 349:Middlewares/lvgl/src/extra/themes/mono/lv_theme_mono.c ****         lv_obj_add_style(obj, &styles->scrollbar, LV_PART_SCROLLBAR);
 350:Middlewares/lvgl/src/extra/themes/mono/lv_theme_mono.c ****         lv_obj_add_style(obj, &styles->card, LV_PART_ITEMS);
 351:Middlewares/lvgl/src/extra/themes/mono/lv_theme_mono.c ****         lv_obj_add_style(obj, &styles->card, LV_PART_TICKS);
 352:Middlewares/lvgl/src/extra/themes/mono/lv_theme_mono.c ****         lv_obj_add_style(obj, &styles->card, LV_PART_CURSOR);
 353:Middlewares/lvgl/src/extra/themes/mono/lv_theme_mono.c ****         lv_obj_add_style(obj, &styles->focus, LV_STATE_FOCUS_KEY);
 354:Middlewares/lvgl/src/extra/themes/mono/lv_theme_mono.c ****     }
 355:Middlewares/lvgl/src/extra/themes/mono/lv_theme_mono.c **** #endif
 356:Middlewares/lvgl/src/extra/themes/mono/lv_theme_mono.c **** 
 357:Middlewares/lvgl/src/extra/themes/mono/lv_theme_mono.c **** #if LV_USE_ROLLER
 358:Middlewares/lvgl/src/extra/themes/mono/lv_theme_mono.c ****     else if(lv_obj_check_type(obj, &lv_roller_class)) {
 359:Middlewares/lvgl/src/extra/themes/mono/lv_theme_mono.c ****         lv_obj_add_style(obj, &styles->card, 0);
 360:Middlewares/lvgl/src/extra/themes/mono/lv_theme_mono.c ****         lv_obj_add_style(obj, &styles->large_line_space, 0);
 361:Middlewares/lvgl/src/extra/themes/mono/lv_theme_mono.c ****         lv_obj_add_style(obj, &styles->inv, LV_PART_SELECTED);
 362:Middlewares/lvgl/src/extra/themes/mono/lv_theme_mono.c ****         lv_obj_add_style(obj, &styles->focus, LV_STATE_FOCUS_KEY);
 363:Middlewares/lvgl/src/extra/themes/mono/lv_theme_mono.c ****         lv_obj_add_style(obj, &styles->edit, LV_STATE_EDITED);
 364:Middlewares/lvgl/src/extra/themes/mono/lv_theme_mono.c ****     }
 365:Middlewares/lvgl/src/extra/themes/mono/lv_theme_mono.c **** #endif
 366:Middlewares/lvgl/src/extra/themes/mono/lv_theme_mono.c **** 
 367:Middlewares/lvgl/src/extra/themes/mono/lv_theme_mono.c **** #if LV_USE_DROPDOWN
 368:Middlewares/lvgl/src/extra/themes/mono/lv_theme_mono.c ****     else if(lv_obj_check_type(obj, &lv_dropdown_class)) {
 369:Middlewares/lvgl/src/extra/themes/mono/lv_theme_mono.c ****         lv_obj_add_style(obj, &styles->card, 0);
 370:Middlewares/lvgl/src/extra/themes/mono/lv_theme_mono.c ****         lv_obj_add_style(obj, &styles->pr, LV_STATE_PRESSED);
 371:Middlewares/lvgl/src/extra/themes/mono/lv_theme_mono.c ****         lv_obj_add_style(obj, &styles->focus, LV_STATE_FOCUS_KEY);
 372:Middlewares/lvgl/src/extra/themes/mono/lv_theme_mono.c ****         lv_obj_add_style(obj, &styles->edit, LV_STATE_EDITED);
 373:Middlewares/lvgl/src/extra/themes/mono/lv_theme_mono.c ****     }
 374:Middlewares/lvgl/src/extra/themes/mono/lv_theme_mono.c ****     else if(lv_obj_check_type(obj, &lv_dropdownlist_class)) {
 375:Middlewares/lvgl/src/extra/themes/mono/lv_theme_mono.c ****         lv_obj_add_style(obj, &styles->card, 0);
 376:Middlewares/lvgl/src/extra/themes/mono/lv_theme_mono.c ****         lv_obj_add_style(obj, &styles->large_line_space, 0);
 377:Middlewares/lvgl/src/extra/themes/mono/lv_theme_mono.c ****         lv_obj_add_style(obj, &styles->scrollbar, LV_PART_SCROLLBAR);
 378:Middlewares/lvgl/src/extra/themes/mono/lv_theme_mono.c ****         lv_obj_add_style(obj, &styles->inv, LV_PART_SELECTED | LV_STATE_CHECKED);
 379:Middlewares/lvgl/src/extra/themes/mono/lv_theme_mono.c ****         lv_obj_add_style(obj, &styles->pr, LV_PART_SELECTED | LV_STATE_PRESSED);
ARM GAS  /tmp/ccFxGgVE.s 			page 9


 380:Middlewares/lvgl/src/extra/themes/mono/lv_theme_mono.c ****         lv_obj_add_style(obj, &styles->focus, LV_STATE_FOCUS_KEY);
 381:Middlewares/lvgl/src/extra/themes/mono/lv_theme_mono.c ****         lv_obj_add_style(obj, &styles->edit, LV_STATE_EDITED);
 382:Middlewares/lvgl/src/extra/themes/mono/lv_theme_mono.c ****     }
 383:Middlewares/lvgl/src/extra/themes/mono/lv_theme_mono.c **** #endif
 384:Middlewares/lvgl/src/extra/themes/mono/lv_theme_mono.c **** 
 385:Middlewares/lvgl/src/extra/themes/mono/lv_theme_mono.c **** #if LV_USE_ARC
 386:Middlewares/lvgl/src/extra/themes/mono/lv_theme_mono.c ****     else if(lv_obj_check_type(obj, &lv_arc_class)) {
 387:Middlewares/lvgl/src/extra/themes/mono/lv_theme_mono.c ****         lv_obj_add_style(obj, &styles->card, 0);
 388:Middlewares/lvgl/src/extra/themes/mono/lv_theme_mono.c ****         lv_obj_add_style(obj, &styles->inv, LV_PART_INDICATOR);
 389:Middlewares/lvgl/src/extra/themes/mono/lv_theme_mono.c ****         lv_obj_add_style(obj, &styles->pad_zero, LV_PART_INDICATOR);
 390:Middlewares/lvgl/src/extra/themes/mono/lv_theme_mono.c ****         lv_obj_add_style(obj, &styles->card, LV_PART_KNOB);
 391:Middlewares/lvgl/src/extra/themes/mono/lv_theme_mono.c ****         lv_obj_add_style(obj, &styles->radius_circle, LV_PART_KNOB);
 392:Middlewares/lvgl/src/extra/themes/mono/lv_theme_mono.c ****         lv_obj_add_style(obj, &styles->focus, LV_STATE_FOCUS_KEY);
 393:Middlewares/lvgl/src/extra/themes/mono/lv_theme_mono.c ****         lv_obj_add_style(obj, &styles->edit, LV_STATE_EDITED);
 394:Middlewares/lvgl/src/extra/themes/mono/lv_theme_mono.c ****     }
 395:Middlewares/lvgl/src/extra/themes/mono/lv_theme_mono.c **** #endif
 396:Middlewares/lvgl/src/extra/themes/mono/lv_theme_mono.c **** 
 397:Middlewares/lvgl/src/extra/themes/mono/lv_theme_mono.c **** #if LV_USE_METER
 398:Middlewares/lvgl/src/extra/themes/mono/lv_theme_mono.c ****     else if(lv_obj_check_type(obj, &lv_meter_class)) {
 399:Middlewares/lvgl/src/extra/themes/mono/lv_theme_mono.c ****         lv_obj_add_style(obj, &styles->card, 0);
 400:Middlewares/lvgl/src/extra/themes/mono/lv_theme_mono.c ****     }
 401:Middlewares/lvgl/src/extra/themes/mono/lv_theme_mono.c **** #endif
 402:Middlewares/lvgl/src/extra/themes/mono/lv_theme_mono.c **** 
 403:Middlewares/lvgl/src/extra/themes/mono/lv_theme_mono.c **** #if LV_USE_TEXTAREA
 404:Middlewares/lvgl/src/extra/themes/mono/lv_theme_mono.c ****     else if(lv_obj_check_type(obj, &lv_textarea_class)) {
 405:Middlewares/lvgl/src/extra/themes/mono/lv_theme_mono.c ****         lv_obj_add_style(obj, &styles->card, 0);
 406:Middlewares/lvgl/src/extra/themes/mono/lv_theme_mono.c ****         lv_obj_add_style(obj, &styles->scrollbar, LV_PART_SCROLLBAR);
 407:Middlewares/lvgl/src/extra/themes/mono/lv_theme_mono.c ****         lv_obj_add_style(obj, &styles->ta_cursor, LV_PART_CURSOR | LV_STATE_FOCUSED);
 408:Middlewares/lvgl/src/extra/themes/mono/lv_theme_mono.c ****         lv_obj_add_style(obj, &styles->focus, LV_STATE_FOCUSED);
 409:Middlewares/lvgl/src/extra/themes/mono/lv_theme_mono.c ****         lv_obj_add_style(obj, &styles->edit, LV_STATE_EDITED);
 410:Middlewares/lvgl/src/extra/themes/mono/lv_theme_mono.c ****     }
 411:Middlewares/lvgl/src/extra/themes/mono/lv_theme_mono.c **** #endif
 412:Middlewares/lvgl/src/extra/themes/mono/lv_theme_mono.c **** 
 413:Middlewares/lvgl/src/extra/themes/mono/lv_theme_mono.c **** #if LV_USE_CALENDAR
 414:Middlewares/lvgl/src/extra/themes/mono/lv_theme_mono.c ****     else if(lv_obj_check_type(obj, &lv_calendar_class)) {
 415:Middlewares/lvgl/src/extra/themes/mono/lv_theme_mono.c ****         lv_obj_add_style(obj, &styles->card, 0);
 416:Middlewares/lvgl/src/extra/themes/mono/lv_theme_mono.c ****         lv_obj_add_style(obj, &styles->no_radius, 0);
 417:Middlewares/lvgl/src/extra/themes/mono/lv_theme_mono.c ****         lv_obj_add_style(obj, &styles->pr, LV_PART_ITEMS | LV_STATE_PRESSED);
 418:Middlewares/lvgl/src/extra/themes/mono/lv_theme_mono.c ****         lv_obj_add_style(obj, &styles->disabled, LV_PART_ITEMS | LV_STATE_DISABLED);
 419:Middlewares/lvgl/src/extra/themes/mono/lv_theme_mono.c ****         lv_obj_add_style(obj, &styles->focus, LV_STATE_FOCUS_KEY);
 420:Middlewares/lvgl/src/extra/themes/mono/lv_theme_mono.c ****         lv_obj_add_style(obj, &styles->edit, LV_STATE_EDITED);
 421:Middlewares/lvgl/src/extra/themes/mono/lv_theme_mono.c ****         lv_obj_add_style(obj, &styles->large_border, LV_PART_ITEMS | LV_STATE_FOCUS_KEY);
 422:Middlewares/lvgl/src/extra/themes/mono/lv_theme_mono.c ****     }
 423:Middlewares/lvgl/src/extra/themes/mono/lv_theme_mono.c **** #endif
 424:Middlewares/lvgl/src/extra/themes/mono/lv_theme_mono.c **** 
 425:Middlewares/lvgl/src/extra/themes/mono/lv_theme_mono.c **** #if LV_USE_KEYBOARD
 426:Middlewares/lvgl/src/extra/themes/mono/lv_theme_mono.c ****     else if(lv_obj_check_type(obj, &lv_keyboard_class)) {
 427:Middlewares/lvgl/src/extra/themes/mono/lv_theme_mono.c ****         lv_obj_add_style(obj, &styles->card, 0);
 428:Middlewares/lvgl/src/extra/themes/mono/lv_theme_mono.c ****         lv_obj_add_style(obj, &styles->card, LV_PART_ITEMS);
 429:Middlewares/lvgl/src/extra/themes/mono/lv_theme_mono.c ****         lv_obj_add_style(obj, &styles->pr, LV_PART_ITEMS | LV_STATE_PRESSED);
 430:Middlewares/lvgl/src/extra/themes/mono/lv_theme_mono.c ****         lv_obj_add_style(obj, &styles->inv, LV_PART_ITEMS | LV_STATE_CHECKED);
 431:Middlewares/lvgl/src/extra/themes/mono/lv_theme_mono.c ****         lv_obj_add_style(obj, &styles->focus, LV_STATE_FOCUS_KEY);
 432:Middlewares/lvgl/src/extra/themes/mono/lv_theme_mono.c ****         lv_obj_add_style(obj, &styles->edit, LV_STATE_EDITED);
 433:Middlewares/lvgl/src/extra/themes/mono/lv_theme_mono.c ****         lv_obj_add_style(obj, &styles->large_border, LV_PART_ITEMS | LV_STATE_EDITED);
 434:Middlewares/lvgl/src/extra/themes/mono/lv_theme_mono.c ****     }
 435:Middlewares/lvgl/src/extra/themes/mono/lv_theme_mono.c **** #endif
 436:Middlewares/lvgl/src/extra/themes/mono/lv_theme_mono.c **** #if LV_USE_LIST
ARM GAS  /tmp/ccFxGgVE.s 			page 10


 437:Middlewares/lvgl/src/extra/themes/mono/lv_theme_mono.c ****     else if(lv_obj_check_type(obj, &lv_list_class)) {
 438:Middlewares/lvgl/src/extra/themes/mono/lv_theme_mono.c ****         lv_obj_add_style(obj, &styles->card, 0);
 439:Middlewares/lvgl/src/extra/themes/mono/lv_theme_mono.c ****         lv_obj_add_style(obj, &styles->scrollbar, LV_PART_SCROLLBAR);
 440:Middlewares/lvgl/src/extra/themes/mono/lv_theme_mono.c ****         return;
 441:Middlewares/lvgl/src/extra/themes/mono/lv_theme_mono.c ****     }
 442:Middlewares/lvgl/src/extra/themes/mono/lv_theme_mono.c ****     else if(lv_obj_check_type(obj, &lv_list_text_class)) {
 443:Middlewares/lvgl/src/extra/themes/mono/lv_theme_mono.c **** 
 444:Middlewares/lvgl/src/extra/themes/mono/lv_theme_mono.c ****     }
 445:Middlewares/lvgl/src/extra/themes/mono/lv_theme_mono.c ****     else if(lv_obj_check_type(obj, &lv_list_btn_class)) {
 446:Middlewares/lvgl/src/extra/themes/mono/lv_theme_mono.c ****         lv_obj_add_style(obj, &styles->card, 0);
 447:Middlewares/lvgl/src/extra/themes/mono/lv_theme_mono.c ****         lv_obj_add_style(obj, &styles->pr, LV_STATE_PRESSED);
 448:Middlewares/lvgl/src/extra/themes/mono/lv_theme_mono.c ****         lv_obj_add_style(obj, &styles->focus, LV_STATE_FOCUS_KEY);
 449:Middlewares/lvgl/src/extra/themes/mono/lv_theme_mono.c ****         lv_obj_add_style(obj, &styles->large_border, LV_STATE_EDITED);
 450:Middlewares/lvgl/src/extra/themes/mono/lv_theme_mono.c **** 
 451:Middlewares/lvgl/src/extra/themes/mono/lv_theme_mono.c ****     }
 452:Middlewares/lvgl/src/extra/themes/mono/lv_theme_mono.c **** #endif
 453:Middlewares/lvgl/src/extra/themes/mono/lv_theme_mono.c **** #if LV_USE_MSGBOX
 454:Middlewares/lvgl/src/extra/themes/mono/lv_theme_mono.c ****     else if(lv_obj_check_type(obj, &lv_msgbox_class)) {
 455:Middlewares/lvgl/src/extra/themes/mono/lv_theme_mono.c ****         lv_obj_add_style(obj, &styles->card, 0);
 456:Middlewares/lvgl/src/extra/themes/mono/lv_theme_mono.c ****         return;
 457:Middlewares/lvgl/src/extra/themes/mono/lv_theme_mono.c ****     }
 458:Middlewares/lvgl/src/extra/themes/mono/lv_theme_mono.c **** #endif
 459:Middlewares/lvgl/src/extra/themes/mono/lv_theme_mono.c **** #if LV_USE_SPINBOX
 460:Middlewares/lvgl/src/extra/themes/mono/lv_theme_mono.c ****     else if(lv_obj_check_type(obj, &lv_spinbox_class)) {
 461:Middlewares/lvgl/src/extra/themes/mono/lv_theme_mono.c ****         lv_obj_add_style(obj, &styles->card, 0);
 462:Middlewares/lvgl/src/extra/themes/mono/lv_theme_mono.c ****         lv_obj_add_style(obj, &styles->inv, LV_PART_CURSOR);
 463:Middlewares/lvgl/src/extra/themes/mono/lv_theme_mono.c ****         lv_obj_add_style(obj, &styles->focus, LV_STATE_FOCUS_KEY);
 464:Middlewares/lvgl/src/extra/themes/mono/lv_theme_mono.c ****         lv_obj_add_style(obj, &styles->edit, LV_STATE_EDITED);
 465:Middlewares/lvgl/src/extra/themes/mono/lv_theme_mono.c ****     }
 466:Middlewares/lvgl/src/extra/themes/mono/lv_theme_mono.c **** #endif
 467:Middlewares/lvgl/src/extra/themes/mono/lv_theme_mono.c **** #if LV_USE_TILEVIEW
 468:Middlewares/lvgl/src/extra/themes/mono/lv_theme_mono.c ****     else if(lv_obj_check_type(obj, &lv_tileview_class)) {
 469:Middlewares/lvgl/src/extra/themes/mono/lv_theme_mono.c ****         lv_obj_add_style(obj, &styles->scr, 0);
 470:Middlewares/lvgl/src/extra/themes/mono/lv_theme_mono.c ****         lv_obj_add_style(obj, &styles->scrollbar, LV_PART_SCROLLBAR);
 471:Middlewares/lvgl/src/extra/themes/mono/lv_theme_mono.c ****     }
 472:Middlewares/lvgl/src/extra/themes/mono/lv_theme_mono.c ****     else if(lv_obj_check_type(obj, &lv_tileview_tile_class)) {
 473:Middlewares/lvgl/src/extra/themes/mono/lv_theme_mono.c ****         lv_obj_add_style(obj, &styles->scrollbar, LV_PART_SCROLLBAR);
 474:Middlewares/lvgl/src/extra/themes/mono/lv_theme_mono.c ****     }
 475:Middlewares/lvgl/src/extra/themes/mono/lv_theme_mono.c **** #endif
 476:Middlewares/lvgl/src/extra/themes/mono/lv_theme_mono.c **** 
 477:Middlewares/lvgl/src/extra/themes/mono/lv_theme_mono.c **** #if LV_USE_LED
 478:Middlewares/lvgl/src/extra/themes/mono/lv_theme_mono.c ****     else if(lv_obj_check_type(obj, &lv_led_class)) {
 479:Middlewares/lvgl/src/extra/themes/mono/lv_theme_mono.c ****             lv_obj_add_style(obj, &styles->card, 0);
 480:Middlewares/lvgl/src/extra/themes/mono/lv_theme_mono.c ****         }
 481:Middlewares/lvgl/src/extra/themes/mono/lv_theme_mono.c **** #endif
 482:Middlewares/lvgl/src/extra/themes/mono/lv_theme_mono.c **** }
  79              		.loc 1 482 1 view .LVU16
  80 0028 70BD     		pop	{r4, r5, r6, pc}
  81              	.LVL8:
  82              	.L33:
 199:Middlewares/lvgl/src/extra/themes/mono/lv_theme_mono.c ****         lv_obj_add_style(obj, &styles->scrollbar, LV_PART_SCROLLBAR);
  83              		.loc 1 199 9 is_stmt 1 view .LVU17
 199:Middlewares/lvgl/src/extra/themes/mono/lv_theme_mono.c ****         lv_obj_add_style(obj, &styles->scrollbar, LV_PART_SCROLLBAR);
  84              		.loc 1 199 38 is_stmt 0 view .LVU18
  85 002a B54D     		ldr	r5, .L42+8
 199:Middlewares/lvgl/src/extra/themes/mono/lv_theme_mono.c ****         lv_obj_add_style(obj, &styles->scrollbar, LV_PART_SCROLLBAR);
  86              		.loc 1 199 9 view .LVU19
ARM GAS  /tmp/ccFxGgVE.s 			page 11


  87 002c 0022     		movs	r2, #0
  88 002e 2968     		ldr	r1, [r5]
  89 0030 2046     		mov	r0, r4
  90 0032 FFF7FEFF 		bl	lv_obj_add_style
  91              	.LVL9:
 200:Middlewares/lvgl/src/extra/themes/mono/lv_theme_mono.c ****         return;
  92              		.loc 1 200 9 is_stmt 1 view .LVU20
 200:Middlewares/lvgl/src/extra/themes/mono/lv_theme_mono.c ****         return;
  93              		.loc 1 200 38 is_stmt 0 view .LVU21
  94 0036 2968     		ldr	r1, [r5]
 200:Middlewares/lvgl/src/extra/themes/mono/lv_theme_mono.c ****         return;
  95              		.loc 1 200 9 view .LVU22
  96 0038 4FF48032 		mov	r2, #65536
  97 003c 1031     		adds	r1, r1, #16
  98 003e 2046     		mov	r0, r4
  99 0040 FFF7FEFF 		bl	lv_obj_add_style
 100              	.LVL10:
 201:Middlewares/lvgl/src/extra/themes/mono/lv_theme_mono.c ****     }
 101              		.loc 1 201 9 is_stmt 1 view .LVU23
 102 0044 F0E7     		b	.L1
 103              	.LVL11:
 104              	.L34:
 105              	.LBB135:
 212:Middlewares/lvgl/src/extra/themes/mono/lv_theme_mono.c ****             lv_obj_add_style(obj, &styles->card, 0);
 106              		.loc 1 212 14 view .LVU24
 212:Middlewares/lvgl/src/extra/themes/mono/lv_theme_mono.c ****             lv_obj_add_style(obj, &styles->card, 0);
 107              		.loc 1 212 35 is_stmt 0 view .LVU25
 108 0046 2846     		mov	r0, r5
 109 0048 FFF7FEFF 		bl	lv_obj_get_parent
 110              	.LVL12:
 212:Middlewares/lvgl/src/extra/themes/mono/lv_theme_mono.c ****             lv_obj_add_style(obj, &styles->card, 0);
 111              		.loc 1 212 17 view .LVU26
 112 004c AB49     		ldr	r1, .L42+4
 113 004e FFF7FEFF 		bl	lv_obj_check_type
 114              	.LVL13:
 212:Middlewares/lvgl/src/extra/themes/mono/lv_theme_mono.c ****             lv_obj_add_style(obj, &styles->card, 0);
 115              		.loc 1 212 16 view .LVU27
 116 0052 F0B9     		cbnz	r0, .L35
 222:Middlewares/lvgl/src/extra/themes/mono/lv_theme_mono.c ****             lv_obj_add_style(obj, &styles->card, 0);
 117              		.loc 1 222 9 is_stmt 1 view .LVU28
 222:Middlewares/lvgl/src/extra/themes/mono/lv_theme_mono.c ****             lv_obj_add_style(obj, &styles->card, 0);
 118              		.loc 1 222 12 is_stmt 0 view .LVU29
 119 0054 2046     		mov	r0, r4
 120 0056 FFF7FEFF 		bl	lv_obj_get_child_id
 121              	.LVL14:
 222:Middlewares/lvgl/src/extra/themes/mono/lv_theme_mono.c ****             lv_obj_add_style(obj, &styles->card, 0);
 122              		.loc 1 222 11 view .LVU30
 123 005a 30B9     		cbnz	r0, .L6
 222:Middlewares/lvgl/src/extra/themes/mono/lv_theme_mono.c ****             lv_obj_add_style(obj, &styles->card, 0);
 124              		.loc 1 222 63 discriminator 1 view .LVU31
 125 005c 2046     		mov	r0, r4
 126 005e FFF7FEFF 		bl	lv_obj_get_parent
 127              	.LVL15:
 222:Middlewares/lvgl/src/extra/themes/mono/lv_theme_mono.c ****             lv_obj_add_style(obj, &styles->card, 0);
 128              		.loc 1 222 45 discriminator 1 view .LVU32
 129 0062 A849     		ldr	r1, .L42+12
 130 0064 FFF7FEFF 		bl	lv_obj_check_type
ARM GAS  /tmp/ccFxGgVE.s 			page 12


 131              	.LVL16:
 222:Middlewares/lvgl/src/extra/themes/mono/lv_theme_mono.c ****             lv_obj_add_style(obj, &styles->card, 0);
 132              		.loc 1 222 42 discriminator 1 view .LVU33
 133 0068 40BB     		cbnz	r0, .L36
 134              	.L6:
 228:Middlewares/lvgl/src/extra/themes/mono/lv_theme_mono.c ****             lv_obj_add_style(obj, &styles->card, 0);
 135              		.loc 1 228 14 is_stmt 1 view .LVU34
 228:Middlewares/lvgl/src/extra/themes/mono/lv_theme_mono.c ****             lv_obj_add_style(obj, &styles->card, 0);
 136              		.loc 1 228 17 is_stmt 0 view .LVU35
 137 006a 2046     		mov	r0, r4
 138 006c FFF7FEFF 		bl	lv_obj_get_child_id
 139              	.LVL17:
 228:Middlewares/lvgl/src/extra/themes/mono/lv_theme_mono.c ****             lv_obj_add_style(obj, &styles->card, 0);
 140              		.loc 1 228 16 view .LVU36
 141 0070 0128     		cmp	r0, #1
 142 0072 31D0     		beq	.L37
 143              	.L7:
 235:Middlewares/lvgl/src/extra/themes/mono/lv_theme_mono.c ****         lv_obj_add_style(obj, &styles->scrollbar, LV_PART_SCROLLBAR);
 144              		.loc 1 235 9 is_stmt 1 view .LVU37
 235:Middlewares/lvgl/src/extra/themes/mono/lv_theme_mono.c ****         lv_obj_add_style(obj, &styles->scrollbar, LV_PART_SCROLLBAR);
 145              		.loc 1 235 38 is_stmt 0 view .LVU38
 146 0074 A24D     		ldr	r5, .L42+8
 147              	.LVL18:
 235:Middlewares/lvgl/src/extra/themes/mono/lv_theme_mono.c ****         lv_obj_add_style(obj, &styles->scrollbar, LV_PART_SCROLLBAR);
 148              		.loc 1 235 38 view .LVU39
 149 0076 2968     		ldr	r1, [r5]
 235:Middlewares/lvgl/src/extra/themes/mono/lv_theme_mono.c ****         lv_obj_add_style(obj, &styles->scrollbar, LV_PART_SCROLLBAR);
 150              		.loc 1 235 9 view .LVU40
 151 0078 0022     		movs	r2, #0
 152 007a 0831     		adds	r1, r1, #8
 153 007c 2046     		mov	r0, r4
 154 007e FFF7FEFF 		bl	lv_obj_add_style
 155              	.LVL19:
 236:Middlewares/lvgl/src/extra/themes/mono/lv_theme_mono.c ****     }
 156              		.loc 1 236 9 is_stmt 1 view .LVU41
 236:Middlewares/lvgl/src/extra/themes/mono/lv_theme_mono.c ****     }
 157              		.loc 1 236 38 is_stmt 0 view .LVU42
 158 0082 2968     		ldr	r1, [r5]
 236:Middlewares/lvgl/src/extra/themes/mono/lv_theme_mono.c ****     }
 159              		.loc 1 236 9 view .LVU43
 160 0084 4FF48032 		mov	r2, #65536
 161 0088 1031     		adds	r1, r1, #16
 162 008a 2046     		mov	r0, r4
 163 008c FFF7FEFF 		bl	lv_obj_add_style
 164              	.LVL20:
 165              	.LBE135:
 166 0090 CAE7     		b	.L1
 167              	.LVL21:
 168              	.L35:
 169              	.LBB136:
 213:Middlewares/lvgl/src/extra/themes/mono/lv_theme_mono.c ****             lv_obj_add_style(obj, &styles->no_radius, 0);
 170              		.loc 1 213 13 is_stmt 1 view .LVU44
 213:Middlewares/lvgl/src/extra/themes/mono/lv_theme_mono.c ****             lv_obj_add_style(obj, &styles->no_radius, 0);
 171              		.loc 1 213 42 is_stmt 0 view .LVU45
 172 0092 9B4D     		ldr	r5, .L42+8
 173              	.LVL22:
 213:Middlewares/lvgl/src/extra/themes/mono/lv_theme_mono.c ****             lv_obj_add_style(obj, &styles->no_radius, 0);
ARM GAS  /tmp/ccFxGgVE.s 			page 13


 174              		.loc 1 213 42 view .LVU46
 175 0094 2968     		ldr	r1, [r5]
 213:Middlewares/lvgl/src/extra/themes/mono/lv_theme_mono.c ****             lv_obj_add_style(obj, &styles->no_radius, 0);
 176              		.loc 1 213 13 view .LVU47
 177 0096 0022     		movs	r2, #0
 178 0098 0831     		adds	r1, r1, #8
 179 009a 2046     		mov	r0, r4
 180 009c FFF7FEFF 		bl	lv_obj_add_style
 181              	.LVL23:
 214:Middlewares/lvgl/src/extra/themes/mono/lv_theme_mono.c ****             lv_obj_add_style(obj, &styles->scrollbar, LV_PART_SCROLLBAR);
 182              		.loc 1 214 13 is_stmt 1 view .LVU48
 214:Middlewares/lvgl/src/extra/themes/mono/lv_theme_mono.c ****             lv_obj_add_style(obj, &styles->scrollbar, LV_PART_SCROLLBAR);
 183              		.loc 1 214 42 is_stmt 0 view .LVU49
 184 00a0 2968     		ldr	r1, [r5]
 214:Middlewares/lvgl/src/extra/themes/mono/lv_theme_mono.c ****             lv_obj_add_style(obj, &styles->scrollbar, LV_PART_SCROLLBAR);
 185              		.loc 1 214 13 view .LVU50
 186 00a2 0022     		movs	r2, #0
 187 00a4 5831     		adds	r1, r1, #88
 188 00a6 2046     		mov	r0, r4
 189 00a8 FFF7FEFF 		bl	lv_obj_add_style
 190              	.LVL24:
 215:Middlewares/lvgl/src/extra/themes/mono/lv_theme_mono.c ****             return;
 191              		.loc 1 215 13 is_stmt 1 view .LVU51
 215:Middlewares/lvgl/src/extra/themes/mono/lv_theme_mono.c ****             return;
 192              		.loc 1 215 42 is_stmt 0 view .LVU52
 193 00ac 2968     		ldr	r1, [r5]
 215:Middlewares/lvgl/src/extra/themes/mono/lv_theme_mono.c ****             return;
 194              		.loc 1 215 13 view .LVU53
 195 00ae 4FF48032 		mov	r2, #65536
 196 00b2 1031     		adds	r1, r1, #16
 197 00b4 2046     		mov	r0, r4
 198 00b6 FFF7FEFF 		bl	lv_obj_add_style
 199              	.LVL25:
 216:Middlewares/lvgl/src/extra/themes/mono/lv_theme_mono.c ****         }
 200              		.loc 1 216 13 is_stmt 1 view .LVU54
 201 00ba B5E7     		b	.L1
 202              	.LVL26:
 203              	.L36:
 223:Middlewares/lvgl/src/extra/themes/mono/lv_theme_mono.c ****             lv_obj_add_style(obj, &styles->no_radius, 0);
 204              		.loc 1 223 13 view .LVU55
 223:Middlewares/lvgl/src/extra/themes/mono/lv_theme_mono.c ****             lv_obj_add_style(obj, &styles->no_radius, 0);
 205              		.loc 1 223 42 is_stmt 0 view .LVU56
 206 00bc 904D     		ldr	r5, .L42+8
 207              	.LVL27:
 223:Middlewares/lvgl/src/extra/themes/mono/lv_theme_mono.c ****             lv_obj_add_style(obj, &styles->no_radius, 0);
 208              		.loc 1 223 42 view .LVU57
 209 00be 2968     		ldr	r1, [r5]
 223:Middlewares/lvgl/src/extra/themes/mono/lv_theme_mono.c ****             lv_obj_add_style(obj, &styles->no_radius, 0);
 210              		.loc 1 223 13 view .LVU58
 211 00c0 0022     		movs	r2, #0
 212 00c2 0831     		adds	r1, r1, #8
 213 00c4 2046     		mov	r0, r4
 214 00c6 FFF7FEFF 		bl	lv_obj_add_style
 215              	.LVL28:
 224:Middlewares/lvgl/src/extra/themes/mono/lv_theme_mono.c ****             return;
 216              		.loc 1 224 13 is_stmt 1 view .LVU59
 224:Middlewares/lvgl/src/extra/themes/mono/lv_theme_mono.c ****             return;
ARM GAS  /tmp/ccFxGgVE.s 			page 14


 217              		.loc 1 224 42 is_stmt 0 view .LVU60
 218 00ca 2968     		ldr	r1, [r5]
 224:Middlewares/lvgl/src/extra/themes/mono/lv_theme_mono.c ****             return;
 219              		.loc 1 224 13 view .LVU61
 220 00cc 0022     		movs	r2, #0
 221 00ce 5831     		adds	r1, r1, #88
 222 00d0 2046     		mov	r0, r4
 223 00d2 FFF7FEFF 		bl	lv_obj_add_style
 224              	.LVL29:
 225:Middlewares/lvgl/src/extra/themes/mono/lv_theme_mono.c ****         }
 225              		.loc 1 225 13 is_stmt 1 view .LVU62
 226 00d6 A7E7     		b	.L1
 227              	.LVL30:
 228              	.L37:
 228:Middlewares/lvgl/src/extra/themes/mono/lv_theme_mono.c ****             lv_obj_add_style(obj, &styles->card, 0);
 229              		.loc 1 228 68 is_stmt 0 discriminator 1 view .LVU63
 230 00d8 2046     		mov	r0, r4
 231 00da FFF7FEFF 		bl	lv_obj_get_parent
 232              	.LVL31:
 228:Middlewares/lvgl/src/extra/themes/mono/lv_theme_mono.c ****             lv_obj_add_style(obj, &styles->card, 0);
 233              		.loc 1 228 50 discriminator 1 view .LVU64
 234 00de 8949     		ldr	r1, .L42+12
 235 00e0 FFF7FEFF 		bl	lv_obj_check_type
 236              	.LVL32:
 228:Middlewares/lvgl/src/extra/themes/mono/lv_theme_mono.c ****             lv_obj_add_style(obj, &styles->card, 0);
 237              		.loc 1 228 47 discriminator 1 view .LVU65
 238 00e4 0028     		cmp	r0, #0
 239 00e6 C5D0     		beq	.L7
 229:Middlewares/lvgl/src/extra/themes/mono/lv_theme_mono.c ****             lv_obj_add_style(obj, &styles->no_radius, 0);
 240              		.loc 1 229 13 is_stmt 1 view .LVU66
 229:Middlewares/lvgl/src/extra/themes/mono/lv_theme_mono.c ****             lv_obj_add_style(obj, &styles->no_radius, 0);
 241              		.loc 1 229 42 is_stmt 0 view .LVU67
 242 00e8 854D     		ldr	r5, .L42+8
 243              	.LVL33:
 229:Middlewares/lvgl/src/extra/themes/mono/lv_theme_mono.c ****             lv_obj_add_style(obj, &styles->no_radius, 0);
 244              		.loc 1 229 42 view .LVU68
 245 00ea 2968     		ldr	r1, [r5]
 229:Middlewares/lvgl/src/extra/themes/mono/lv_theme_mono.c ****             lv_obj_add_style(obj, &styles->no_radius, 0);
 246              		.loc 1 229 13 view .LVU69
 247 00ec 0022     		movs	r2, #0
 248 00ee 0831     		adds	r1, r1, #8
 249 00f0 2046     		mov	r0, r4
 250 00f2 FFF7FEFF 		bl	lv_obj_add_style
 251              	.LVL34:
 230:Middlewares/lvgl/src/extra/themes/mono/lv_theme_mono.c ****             lv_obj_add_style(obj, &styles->scrollbar, LV_PART_SCROLLBAR);
 252              		.loc 1 230 13 is_stmt 1 view .LVU70
 230:Middlewares/lvgl/src/extra/themes/mono/lv_theme_mono.c ****             lv_obj_add_style(obj, &styles->scrollbar, LV_PART_SCROLLBAR);
 253              		.loc 1 230 42 is_stmt 0 view .LVU71
 254 00f6 2968     		ldr	r1, [r5]
 230:Middlewares/lvgl/src/extra/themes/mono/lv_theme_mono.c ****             lv_obj_add_style(obj, &styles->scrollbar, LV_PART_SCROLLBAR);
 255              		.loc 1 230 13 view .LVU72
 256 00f8 0022     		movs	r2, #0
 257 00fa 5831     		adds	r1, r1, #88
 258 00fc 2046     		mov	r0, r4
 259 00fe FFF7FEFF 		bl	lv_obj_add_style
 260              	.LVL35:
 231:Middlewares/lvgl/src/extra/themes/mono/lv_theme_mono.c ****             return;
ARM GAS  /tmp/ccFxGgVE.s 			page 15


 261              		.loc 1 231 13 is_stmt 1 view .LVU73
 231:Middlewares/lvgl/src/extra/themes/mono/lv_theme_mono.c ****             return;
 262              		.loc 1 231 42 is_stmt 0 view .LVU74
 263 0102 2968     		ldr	r1, [r5]
 231:Middlewares/lvgl/src/extra/themes/mono/lv_theme_mono.c ****             return;
 264              		.loc 1 231 13 view .LVU75
 265 0104 4FF48032 		mov	r2, #65536
 266 0108 1031     		adds	r1, r1, #16
 267 010a 2046     		mov	r0, r4
 268 010c FFF7FEFF 		bl	lv_obj_add_style
 269              	.LVL36:
 232:Middlewares/lvgl/src/extra/themes/mono/lv_theme_mono.c ****         }
 270              		.loc 1 232 13 is_stmt 1 view .LVU76
 271 0110 8AE7     		b	.L1
 272              	.L4:
 232:Middlewares/lvgl/src/extra/themes/mono/lv_theme_mono.c ****         }
 273              		.loc 1 232 13 is_stmt 0 view .LVU77
 274              	.LBE136:
 239:Middlewares/lvgl/src/extra/themes/mono/lv_theme_mono.c ****         lv_obj_add_style(obj, &styles->card, 0);
 275              		.loc 1 239 10 is_stmt 1 view .LVU78
 239:Middlewares/lvgl/src/extra/themes/mono/lv_theme_mono.c ****         lv_obj_add_style(obj, &styles->card, 0);
 276              		.loc 1 239 13 is_stmt 0 view .LVU79
 277 0112 7D49     		ldr	r1, .L42+16
 278 0114 2046     		mov	r0, r4
 279 0116 FFF7FEFF 		bl	lv_obj_check_type
 280              	.LVL37:
 239:Middlewares/lvgl/src/extra/themes/mono/lv_theme_mono.c ****         lv_obj_add_style(obj, &styles->card, 0);
 281              		.loc 1 239 12 view .LVU80
 282 011a 28B3     		cbz	r0, .L8
 240:Middlewares/lvgl/src/extra/themes/mono/lv_theme_mono.c ****         lv_obj_add_style(obj, &styles->pr, LV_STATE_PRESSED);
 283              		.loc 1 240 9 is_stmt 1 view .LVU81
 240:Middlewares/lvgl/src/extra/themes/mono/lv_theme_mono.c ****         lv_obj_add_style(obj, &styles->pr, LV_STATE_PRESSED);
 284              		.loc 1 240 38 is_stmt 0 view .LVU82
 285 011c 784D     		ldr	r5, .L42+8
 286 011e 2968     		ldr	r1, [r5]
 240:Middlewares/lvgl/src/extra/themes/mono/lv_theme_mono.c ****         lv_obj_add_style(obj, &styles->pr, LV_STATE_PRESSED);
 287              		.loc 1 240 9 view .LVU83
 288 0120 0022     		movs	r2, #0
 289 0122 0831     		adds	r1, r1, #8
 290 0124 2046     		mov	r0, r4
 291 0126 FFF7FEFF 		bl	lv_obj_add_style
 292              	.LVL38:
 241:Middlewares/lvgl/src/extra/themes/mono/lv_theme_mono.c ****         lv_obj_add_style(obj, &styles->inv, LV_STATE_CHECKED);
 293              		.loc 1 241 9 is_stmt 1 view .LVU84
 241:Middlewares/lvgl/src/extra/themes/mono/lv_theme_mono.c ****         lv_obj_add_style(obj, &styles->inv, LV_STATE_CHECKED);
 294              		.loc 1 241 38 is_stmt 0 view .LVU85
 295 012a 2968     		ldr	r1, [r5]
 241:Middlewares/lvgl/src/extra/themes/mono/lv_theme_mono.c ****         lv_obj_add_style(obj, &styles->inv, LV_STATE_CHECKED);
 296              		.loc 1 241 9 view .LVU86
 297 012c 2022     		movs	r2, #32
 298 012e 1144     		add	r1, r1, r2
 299 0130 2046     		mov	r0, r4
 300 0132 FFF7FEFF 		bl	lv_obj_add_style
 301              	.LVL39:
 242:Middlewares/lvgl/src/extra/themes/mono/lv_theme_mono.c ****         lv_obj_add_style(obj, &styles->disabled, LV_STATE_DISABLED);
 302              		.loc 1 242 9 is_stmt 1 view .LVU87
 242:Middlewares/lvgl/src/extra/themes/mono/lv_theme_mono.c ****         lv_obj_add_style(obj, &styles->disabled, LV_STATE_DISABLED);
ARM GAS  /tmp/ccFxGgVE.s 			page 16


 303              		.loc 1 242 38 is_stmt 0 view .LVU88
 304 0136 2968     		ldr	r1, [r5]
 242:Middlewares/lvgl/src/extra/themes/mono/lv_theme_mono.c ****         lv_obj_add_style(obj, &styles->disabled, LV_STATE_DISABLED);
 305              		.loc 1 242 9 view .LVU89
 306 0138 0122     		movs	r2, #1
 307 013a 2831     		adds	r1, r1, #40
 308 013c 2046     		mov	r0, r4
 309 013e FFF7FEFF 		bl	lv_obj_add_style
 310              	.LVL40:
 243:Middlewares/lvgl/src/extra/themes/mono/lv_theme_mono.c ****         lv_obj_add_style(obj, &styles->focus, LV_STATE_FOCUS_KEY);
 311              		.loc 1 243 9 is_stmt 1 view .LVU90
 243:Middlewares/lvgl/src/extra/themes/mono/lv_theme_mono.c ****         lv_obj_add_style(obj, &styles->focus, LV_STATE_FOCUS_KEY);
 312              		.loc 1 243 38 is_stmt 0 view .LVU91
 313 0142 2968     		ldr	r1, [r5]
 243:Middlewares/lvgl/src/extra/themes/mono/lv_theme_mono.c ****         lv_obj_add_style(obj, &styles->focus, LV_STATE_FOCUS_KEY);
 314              		.loc 1 243 9 view .LVU92
 315 0144 8022     		movs	r2, #128
 316 0146 3031     		adds	r1, r1, #48
 317 0148 2046     		mov	r0, r4
 318 014a FFF7FEFF 		bl	lv_obj_add_style
 319              	.LVL41:
 244:Middlewares/lvgl/src/extra/themes/mono/lv_theme_mono.c ****         lv_obj_add_style(obj, &styles->edit, LV_STATE_EDITED);
 320              		.loc 1 244 9 is_stmt 1 view .LVU93
 244:Middlewares/lvgl/src/extra/themes/mono/lv_theme_mono.c ****         lv_obj_add_style(obj, &styles->edit, LV_STATE_EDITED);
 321              		.loc 1 244 38 is_stmt 0 view .LVU94
 322 014e 2968     		ldr	r1, [r5]
 244:Middlewares/lvgl/src/extra/themes/mono/lv_theme_mono.c ****         lv_obj_add_style(obj, &styles->edit, LV_STATE_EDITED);
 323              		.loc 1 244 9 view .LVU95
 324 0150 0422     		movs	r2, #4
 325 0152 3831     		adds	r1, r1, #56
 326 0154 2046     		mov	r0, r4
 327 0156 FFF7FEFF 		bl	lv_obj_add_style
 328              	.LVL42:
 245:Middlewares/lvgl/src/extra/themes/mono/lv_theme_mono.c ****     }
 329              		.loc 1 245 9 is_stmt 1 view .LVU96
 245:Middlewares/lvgl/src/extra/themes/mono/lv_theme_mono.c ****     }
 330              		.loc 1 245 38 is_stmt 0 view .LVU97
 331 015a 2968     		ldr	r1, [r5]
 245:Middlewares/lvgl/src/extra/themes/mono/lv_theme_mono.c ****     }
 332              		.loc 1 245 9 view .LVU98
 333 015c 0822     		movs	r2, #8
 334 015e 4031     		adds	r1, r1, #64
 335 0160 2046     		mov	r0, r4
 336 0162 FFF7FEFF 		bl	lv_obj_add_style
 337              	.LVL43:
 338 0166 5FE7     		b	.L1
 339              	.L8:
 250:Middlewares/lvgl/src/extra/themes/mono/lv_theme_mono.c **** #if LV_USE_MSGBOX
 340              		.loc 1 250 10 is_stmt 1 view .LVU99
 250:Middlewares/lvgl/src/extra/themes/mono/lv_theme_mono.c **** #if LV_USE_MSGBOX
 341              		.loc 1 250 13 is_stmt 0 view .LVU100
 342 0168 6849     		ldr	r1, .L42+20
 343 016a 2046     		mov	r0, r4
 344 016c FFF7FEFF 		bl	lv_obj_check_type
 345              	.LVL44:
 250:Middlewares/lvgl/src/extra/themes/mono/lv_theme_mono.c **** #if LV_USE_MSGBOX
 346              		.loc 1 250 12 view .LVU101
ARM GAS  /tmp/ccFxGgVE.s 			page 17


 347 0170 0028     		cmp	r0, #0
 348 0172 00F0A080 		beq	.L9
 252:Middlewares/lvgl/src/extra/themes/mono/lv_theme_mono.c ****             lv_obj_add_style(obj, &styles->pad_gap, 0);
 349              		.loc 1 252 9 is_stmt 1 view .LVU102
 252:Middlewares/lvgl/src/extra/themes/mono/lv_theme_mono.c ****             lv_obj_add_style(obj, &styles->pad_gap, 0);
 350              		.loc 1 252 30 is_stmt 0 view .LVU103
 351 0176 2046     		mov	r0, r4
 352 0178 FFF7FEFF 		bl	lv_obj_get_parent
 353              	.LVL45:
 252:Middlewares/lvgl/src/extra/themes/mono/lv_theme_mono.c ****             lv_obj_add_style(obj, &styles->pad_gap, 0);
 354              		.loc 1 252 12 view .LVU104
 355 017c 6449     		ldr	r1, .L42+24
 356 017e FFF7FEFF 		bl	lv_obj_check_type
 357              	.LVL46:
 252:Middlewares/lvgl/src/extra/themes/mono/lv_theme_mono.c ****             lv_obj_add_style(obj, &styles->pad_gap, 0);
 358              		.loc 1 252 11 view .LVU105
 359 0182 0028     		cmp	r0, #0
 360 0184 3BD1     		bne	.L38
 263:Middlewares/lvgl/src/extra/themes/mono/lv_theme_mono.c ****             lv_obj_add_style(obj, &styles->pad_gap, 0);
 361              		.loc 1 263 9 is_stmt 1 view .LVU106
 263:Middlewares/lvgl/src/extra/themes/mono/lv_theme_mono.c ****             lv_obj_add_style(obj, &styles->pad_gap, 0);
 362              		.loc 1 263 30 is_stmt 0 view .LVU107
 363 0186 2046     		mov	r0, r4
 364 0188 FFF7FEFF 		bl	lv_obj_get_parent
 365              	.LVL47:
 263:Middlewares/lvgl/src/extra/themes/mono/lv_theme_mono.c ****             lv_obj_add_style(obj, &styles->pad_gap, 0);
 366              		.loc 1 263 12 view .LVU108
 367 018c 5B49     		ldr	r1, .L42+4
 368 018e FFF7FEFF 		bl	lv_obj_check_type
 369              	.LVL48:
 263:Middlewares/lvgl/src/extra/themes/mono/lv_theme_mono.c ****             lv_obj_add_style(obj, &styles->pad_gap, 0);
 370              		.loc 1 263 11 view .LVU109
 371 0192 0028     		cmp	r0, #0
 372 0194 5BD1     		bne	.L39
 275:Middlewares/lvgl/src/extra/themes/mono/lv_theme_mono.c ****         lv_obj_add_style(obj, &styles->focus, LV_STATE_FOCUS_KEY);
 373              		.loc 1 275 9 is_stmt 1 view .LVU110
 275:Middlewares/lvgl/src/extra/themes/mono/lv_theme_mono.c ****         lv_obj_add_style(obj, &styles->focus, LV_STATE_FOCUS_KEY);
 374              		.loc 1 275 38 is_stmt 0 view .LVU111
 375 0196 5A4D     		ldr	r5, .L42+8
 376 0198 2968     		ldr	r1, [r5]
 275:Middlewares/lvgl/src/extra/themes/mono/lv_theme_mono.c ****         lv_obj_add_style(obj, &styles->focus, LV_STATE_FOCUS_KEY);
 377              		.loc 1 275 9 view .LVU112
 378 019a 0022     		movs	r2, #0
 379 019c 0831     		adds	r1, r1, #8
 380 019e 2046     		mov	r0, r4
 381 01a0 FFF7FEFF 		bl	lv_obj_add_style
 382              	.LVL49:
 276:Middlewares/lvgl/src/extra/themes/mono/lv_theme_mono.c ****         lv_obj_add_style(obj, &styles->card, LV_PART_ITEMS);
 383              		.loc 1 276 9 is_stmt 1 view .LVU113
 276:Middlewares/lvgl/src/extra/themes/mono/lv_theme_mono.c ****         lv_obj_add_style(obj, &styles->card, LV_PART_ITEMS);
 384              		.loc 1 276 38 is_stmt 0 view .LVU114
 385 01a4 2968     		ldr	r1, [r5]
 276:Middlewares/lvgl/src/extra/themes/mono/lv_theme_mono.c ****         lv_obj_add_style(obj, &styles->card, LV_PART_ITEMS);
 386              		.loc 1 276 9 view .LVU115
 387 01a6 0422     		movs	r2, #4
 388 01a8 3831     		adds	r1, r1, #56
 389 01aa 2046     		mov	r0, r4
ARM GAS  /tmp/ccFxGgVE.s 			page 18


 390 01ac FFF7FEFF 		bl	lv_obj_add_style
 391              	.LVL50:
 277:Middlewares/lvgl/src/extra/themes/mono/lv_theme_mono.c ****         lv_obj_add_style(obj, &styles->pr, LV_PART_ITEMS | LV_STATE_PRESSED);
 392              		.loc 1 277 9 is_stmt 1 view .LVU116
 277:Middlewares/lvgl/src/extra/themes/mono/lv_theme_mono.c ****         lv_obj_add_style(obj, &styles->pr, LV_PART_ITEMS | LV_STATE_PRESSED);
 393              		.loc 1 277 38 is_stmt 0 view .LVU117
 394 01b0 2968     		ldr	r1, [r5]
 277:Middlewares/lvgl/src/extra/themes/mono/lv_theme_mono.c ****         lv_obj_add_style(obj, &styles->pr, LV_PART_ITEMS | LV_STATE_PRESSED);
 395              		.loc 1 277 9 view .LVU118
 396 01b2 4FF4A022 		mov	r2, #327680
 397 01b6 0831     		adds	r1, r1, #8
 398 01b8 2046     		mov	r0, r4
 399 01ba FFF7FEFF 		bl	lv_obj_add_style
 400              	.LVL51:
 278:Middlewares/lvgl/src/extra/themes/mono/lv_theme_mono.c ****         lv_obj_add_style(obj, &styles->inv, LV_PART_ITEMS | LV_STATE_CHECKED);
 401              		.loc 1 278 9 is_stmt 1 view .LVU119
 278:Middlewares/lvgl/src/extra/themes/mono/lv_theme_mono.c ****         lv_obj_add_style(obj, &styles->inv, LV_PART_ITEMS | LV_STATE_CHECKED);
 402              		.loc 1 278 38 is_stmt 0 view .LVU120
 403 01be 2968     		ldr	r1, [r5]
 278:Middlewares/lvgl/src/extra/themes/mono/lv_theme_mono.c ****         lv_obj_add_style(obj, &styles->inv, LV_PART_ITEMS | LV_STATE_CHECKED);
 404              		.loc 1 278 9 view .LVU121
 405 01c0 544A     		ldr	r2, .L42+28
 406 01c2 2031     		adds	r1, r1, #32
 407 01c4 2046     		mov	r0, r4
 408 01c6 FFF7FEFF 		bl	lv_obj_add_style
 409              	.LVL52:
 279:Middlewares/lvgl/src/extra/themes/mono/lv_theme_mono.c ****         lv_obj_add_style(obj, &styles->disabled, LV_PART_ITEMS | LV_STATE_DISABLED);
 410              		.loc 1 279 9 is_stmt 1 view .LVU122
 279:Middlewares/lvgl/src/extra/themes/mono/lv_theme_mono.c ****         lv_obj_add_style(obj, &styles->disabled, LV_PART_ITEMS | LV_STATE_DISABLED);
 411              		.loc 1 279 38 is_stmt 0 view .LVU123
 412 01ca 2968     		ldr	r1, [r5]
 279:Middlewares/lvgl/src/extra/themes/mono/lv_theme_mono.c ****         lv_obj_add_style(obj, &styles->disabled, LV_PART_ITEMS | LV_STATE_DISABLED);
 413              		.loc 1 279 9 view .LVU124
 414 01cc 524A     		ldr	r2, .L42+32
 415 01ce 2831     		adds	r1, r1, #40
 416 01d0 2046     		mov	r0, r4
 417 01d2 FFF7FEFF 		bl	lv_obj_add_style
 418              	.LVL53:
 280:Middlewares/lvgl/src/extra/themes/mono/lv_theme_mono.c ****         lv_obj_add_style(obj, &styles->underline, LV_PART_ITEMS | LV_STATE_FOCUS_KEY);
 419              		.loc 1 280 9 is_stmt 1 view .LVU125
 280:Middlewares/lvgl/src/extra/themes/mono/lv_theme_mono.c ****         lv_obj_add_style(obj, &styles->underline, LV_PART_ITEMS | LV_STATE_FOCUS_KEY);
 420              		.loc 1 280 38 is_stmt 0 view .LVU126
 421 01d6 2968     		ldr	r1, [r5]
 280:Middlewares/lvgl/src/extra/themes/mono/lv_theme_mono.c ****         lv_obj_add_style(obj, &styles->underline, LV_PART_ITEMS | LV_STATE_FOCUS_KEY);
 422              		.loc 1 280 9 view .LVU127
 423 01d8 504A     		ldr	r2, .L42+36
 424 01da 3031     		adds	r1, r1, #48
 425 01dc 2046     		mov	r0, r4
 426 01de FFF7FEFF 		bl	lv_obj_add_style
 427              	.LVL54:
 281:Middlewares/lvgl/src/extra/themes/mono/lv_theme_mono.c ****             lv_obj_add_style(obj, &styles->large_border, LV_PART_ITEMS | LV_STATE_FOCUS_KEY);
 428              		.loc 1 281 9 is_stmt 1 view .LVU128
 281:Middlewares/lvgl/src/extra/themes/mono/lv_theme_mono.c ****             lv_obj_add_style(obj, &styles->large_border, LV_PART_ITEMS | LV_STATE_FOCUS_KEY);
 429              		.loc 1 281 38 is_stmt 0 view .LVU129
 430 01e2 2968     		ldr	r1, [r5]
 281:Middlewares/lvgl/src/extra/themes/mono/lv_theme_mono.c ****             lv_obj_add_style(obj, &styles->large_border, LV_PART_ITEMS | LV_STATE_FOCUS_KEY);
 431              		.loc 1 281 9 view .LVU130
ARM GAS  /tmp/ccFxGgVE.s 			page 19


 432 01e4 4E4E     		ldr	r6, .L42+40
 433 01e6 3246     		mov	r2, r6
 434 01e8 7831     		adds	r1, r1, #120
 435 01ea 2046     		mov	r0, r4
 436 01ec FFF7FEFF 		bl	lv_obj_add_style
 437              	.LVL55:
 282:Middlewares/lvgl/src/extra/themes/mono/lv_theme_mono.c ****     }
 438              		.loc 1 282 13 is_stmt 1 view .LVU131
 282:Middlewares/lvgl/src/extra/themes/mono/lv_theme_mono.c ****     }
 439              		.loc 1 282 42 is_stmt 0 view .LVU132
 440 01f0 2968     		ldr	r1, [r5]
 282:Middlewares/lvgl/src/extra/themes/mono/lv_theme_mono.c ****     }
 441              		.loc 1 282 13 view .LVU133
 442 01f2 3246     		mov	r2, r6
 443 01f4 6831     		adds	r1, r1, #104
 444 01f6 2046     		mov	r0, r4
 445 01f8 FFF7FEFF 		bl	lv_obj_add_style
 446              	.LVL56:
 447 01fc 14E7     		b	.L1
 448              	.L38:
 253:Middlewares/lvgl/src/extra/themes/mono/lv_theme_mono.c ****             lv_obj_add_style(obj, &styles->card, LV_PART_ITEMS);
 449              		.loc 1 253 13 is_stmt 1 view .LVU134
 253:Middlewares/lvgl/src/extra/themes/mono/lv_theme_mono.c ****             lv_obj_add_style(obj, &styles->card, LV_PART_ITEMS);
 450              		.loc 1 253 42 is_stmt 0 view .LVU135
 451 01fe 404D     		ldr	r5, .L42+8
 452 0200 2968     		ldr	r1, [r5]
 253:Middlewares/lvgl/src/extra/themes/mono/lv_theme_mono.c ****             lv_obj_add_style(obj, &styles->card, LV_PART_ITEMS);
 453              		.loc 1 253 13 view .LVU136
 454 0202 0022     		movs	r2, #0
 455 0204 4831     		adds	r1, r1, #72
 456 0206 2046     		mov	r0, r4
 457 0208 FFF7FEFF 		bl	lv_obj_add_style
 458              	.LVL57:
 254:Middlewares/lvgl/src/extra/themes/mono/lv_theme_mono.c ****             lv_obj_add_style(obj, &styles->pr, LV_PART_ITEMS | LV_STATE_PRESSED);
 459              		.loc 1 254 13 is_stmt 1 view .LVU137
 254:Middlewares/lvgl/src/extra/themes/mono/lv_theme_mono.c ****             lv_obj_add_style(obj, &styles->pr, LV_PART_ITEMS | LV_STATE_PRESSED);
 460              		.loc 1 254 42 is_stmt 0 view .LVU138
 461 020c 2968     		ldr	r1, [r5]
 254:Middlewares/lvgl/src/extra/themes/mono/lv_theme_mono.c ****             lv_obj_add_style(obj, &styles->pr, LV_PART_ITEMS | LV_STATE_PRESSED);
 462              		.loc 1 254 13 view .LVU139
 463 020e 4FF4A022 		mov	r2, #327680
 464 0212 0831     		adds	r1, r1, #8
 465 0214 2046     		mov	r0, r4
 466 0216 FFF7FEFF 		bl	lv_obj_add_style
 467              	.LVL58:
 255:Middlewares/lvgl/src/extra/themes/mono/lv_theme_mono.c ****             lv_obj_add_style(obj, &styles->disabled, LV_PART_ITEMS | LV_STATE_DISABLED);
 468              		.loc 1 255 13 is_stmt 1 view .LVU140
 255:Middlewares/lvgl/src/extra/themes/mono/lv_theme_mono.c ****             lv_obj_add_style(obj, &styles->disabled, LV_PART_ITEMS | LV_STATE_DISABLED);
 469              		.loc 1 255 42 is_stmt 0 view .LVU141
 470 021a 2968     		ldr	r1, [r5]
 255:Middlewares/lvgl/src/extra/themes/mono/lv_theme_mono.c ****             lv_obj_add_style(obj, &styles->disabled, LV_PART_ITEMS | LV_STATE_DISABLED);
 471              		.loc 1 255 13 view .LVU142
 472 021c 3D4A     		ldr	r2, .L42+28
 473 021e 2031     		adds	r1, r1, #32
 474 0220 2046     		mov	r0, r4
 475 0222 FFF7FEFF 		bl	lv_obj_add_style
 476              	.LVL59:
ARM GAS  /tmp/ccFxGgVE.s 			page 20


 256:Middlewares/lvgl/src/extra/themes/mono/lv_theme_mono.c ****             lv_obj_add_style(obj, &styles->underline, LV_PART_ITEMS | LV_STATE_FOCUS_KEY);
 477              		.loc 1 256 13 is_stmt 1 view .LVU143
 256:Middlewares/lvgl/src/extra/themes/mono/lv_theme_mono.c ****             lv_obj_add_style(obj, &styles->underline, LV_PART_ITEMS | LV_STATE_FOCUS_KEY);
 478              		.loc 1 256 42 is_stmt 0 view .LVU144
 479 0226 2968     		ldr	r1, [r5]
 256:Middlewares/lvgl/src/extra/themes/mono/lv_theme_mono.c ****             lv_obj_add_style(obj, &styles->underline, LV_PART_ITEMS | LV_STATE_FOCUS_KEY);
 480              		.loc 1 256 13 view .LVU145
 481 0228 3C4A     		ldr	r2, .L42+36
 482 022a 3031     		adds	r1, r1, #48
 483 022c 2046     		mov	r0, r4
 484 022e FFF7FEFF 		bl	lv_obj_add_style
 485              	.LVL60:
 257:Middlewares/lvgl/src/extra/themes/mono/lv_theme_mono.c ****             lv_obj_add_style(obj, &styles->large_border, LV_PART_ITEMS | LV_STATE_FOCUS_KEY);
 486              		.loc 1 257 13 is_stmt 1 view .LVU146
 257:Middlewares/lvgl/src/extra/themes/mono/lv_theme_mono.c ****             lv_obj_add_style(obj, &styles->large_border, LV_PART_ITEMS | LV_STATE_FOCUS_KEY);
 487              		.loc 1 257 42 is_stmt 0 view .LVU147
 488 0232 2968     		ldr	r1, [r5]
 257:Middlewares/lvgl/src/extra/themes/mono/lv_theme_mono.c ****             lv_obj_add_style(obj, &styles->large_border, LV_PART_ITEMS | LV_STATE_FOCUS_KEY);
 489              		.loc 1 257 13 view .LVU148
 490 0234 3A4E     		ldr	r6, .L42+40
 491 0236 3246     		mov	r2, r6
 492 0238 7831     		adds	r1, r1, #120
 493 023a 2046     		mov	r0, r4
 494 023c FFF7FEFF 		bl	lv_obj_add_style
 495              	.LVL61:
 258:Middlewares/lvgl/src/extra/themes/mono/lv_theme_mono.c ****             return;
 496              		.loc 1 258 13 is_stmt 1 view .LVU149
 258:Middlewares/lvgl/src/extra/themes/mono/lv_theme_mono.c ****             return;
 497              		.loc 1 258 42 is_stmt 0 view .LVU150
 498 0240 2968     		ldr	r1, [r5]
 258:Middlewares/lvgl/src/extra/themes/mono/lv_theme_mono.c ****             return;
 499              		.loc 1 258 13 view .LVU151
 500 0242 3246     		mov	r2, r6
 501 0244 6831     		adds	r1, r1, #104
 502 0246 2046     		mov	r0, r4
 503 0248 FFF7FEFF 		bl	lv_obj_add_style
 504              	.LVL62:
 259:Middlewares/lvgl/src/extra/themes/mono/lv_theme_mono.c ****         }
 505              		.loc 1 259 13 is_stmt 1 view .LVU152
 506 024c ECE6     		b	.L1
 507              	.L39:
 264:Middlewares/lvgl/src/extra/themes/mono/lv_theme_mono.c ****             lv_obj_add_style(obj, &styles->card, LV_PART_ITEMS);
 508              		.loc 1 264 13 view .LVU153
 264:Middlewares/lvgl/src/extra/themes/mono/lv_theme_mono.c ****             lv_obj_add_style(obj, &styles->card, LV_PART_ITEMS);
 509              		.loc 1 264 42 is_stmt 0 view .LVU154
 510 024e 2C4D     		ldr	r5, .L42+8
 511 0250 2968     		ldr	r1, [r5]
 264:Middlewares/lvgl/src/extra/themes/mono/lv_theme_mono.c ****             lv_obj_add_style(obj, &styles->card, LV_PART_ITEMS);
 512              		.loc 1 264 13 view .LVU155
 513 0252 0022     		movs	r2, #0
 514 0254 4831     		adds	r1, r1, #72
 515 0256 2046     		mov	r0, r4
 516 0258 FFF7FEFF 		bl	lv_obj_add_style
 517              	.LVL63:
 265:Middlewares/lvgl/src/extra/themes/mono/lv_theme_mono.c ****             lv_obj_add_style(obj, &styles->pr, LV_PART_ITEMS | LV_STATE_PRESSED);
 518              		.loc 1 265 13 is_stmt 1 view .LVU156
 265:Middlewares/lvgl/src/extra/themes/mono/lv_theme_mono.c ****             lv_obj_add_style(obj, &styles->pr, LV_PART_ITEMS | LV_STATE_PRESSED);
ARM GAS  /tmp/ccFxGgVE.s 			page 21


 519              		.loc 1 265 42 is_stmt 0 view .LVU157
 520 025c 2968     		ldr	r1, [r5]
 265:Middlewares/lvgl/src/extra/themes/mono/lv_theme_mono.c ****             lv_obj_add_style(obj, &styles->pr, LV_PART_ITEMS | LV_STATE_PRESSED);
 521              		.loc 1 265 13 view .LVU158
 522 025e 4FF4A022 		mov	r2, #327680
 523 0262 0831     		adds	r1, r1, #8
 524 0264 2046     		mov	r0, r4
 525 0266 FFF7FEFF 		bl	lv_obj_add_style
 526              	.LVL64:
 266:Middlewares/lvgl/src/extra/themes/mono/lv_theme_mono.c ****             lv_obj_add_style(obj, &styles->inv, LV_PART_ITEMS | LV_STATE_CHECKED);
 527              		.loc 1 266 13 is_stmt 1 view .LVU159
 266:Middlewares/lvgl/src/extra/themes/mono/lv_theme_mono.c ****             lv_obj_add_style(obj, &styles->inv, LV_PART_ITEMS | LV_STATE_CHECKED);
 528              		.loc 1 266 42 is_stmt 0 view .LVU160
 529 026a 2968     		ldr	r1, [r5]
 266:Middlewares/lvgl/src/extra/themes/mono/lv_theme_mono.c ****             lv_obj_add_style(obj, &styles->inv, LV_PART_ITEMS | LV_STATE_CHECKED);
 530              		.loc 1 266 13 view .LVU161
 531 026c 294A     		ldr	r2, .L42+28
 532 026e 2031     		adds	r1, r1, #32
 533 0270 2046     		mov	r0, r4
 534 0272 FFF7FEFF 		bl	lv_obj_add_style
 535              	.LVL65:
 267:Middlewares/lvgl/src/extra/themes/mono/lv_theme_mono.c ****             lv_obj_add_style(obj, &styles->disabled, LV_PART_ITEMS | LV_STATE_DISABLED);
 536              		.loc 1 267 13 is_stmt 1 view .LVU162
 267:Middlewares/lvgl/src/extra/themes/mono/lv_theme_mono.c ****             lv_obj_add_style(obj, &styles->disabled, LV_PART_ITEMS | LV_STATE_DISABLED);
 537              		.loc 1 267 42 is_stmt 0 view .LVU163
 538 0276 2968     		ldr	r1, [r5]
 267:Middlewares/lvgl/src/extra/themes/mono/lv_theme_mono.c ****             lv_obj_add_style(obj, &styles->disabled, LV_PART_ITEMS | LV_STATE_DISABLED);
 539              		.loc 1 267 13 view .LVU164
 540 0278 274A     		ldr	r2, .L42+32
 541 027a 2831     		adds	r1, r1, #40
 542 027c 2046     		mov	r0, r4
 543 027e FFF7FEFF 		bl	lv_obj_add_style
 544              	.LVL66:
 268:Middlewares/lvgl/src/extra/themes/mono/lv_theme_mono.c ****             lv_obj_add_style(obj, &styles->focus, LV_STATE_FOCUS_KEY);
 545              		.loc 1 268 13 is_stmt 1 view .LVU165
 268:Middlewares/lvgl/src/extra/themes/mono/lv_theme_mono.c ****             lv_obj_add_style(obj, &styles->focus, LV_STATE_FOCUS_KEY);
 546              		.loc 1 268 42 is_stmt 0 view .LVU166
 547 0282 2968     		ldr	r1, [r5]
 268:Middlewares/lvgl/src/extra/themes/mono/lv_theme_mono.c ****             lv_obj_add_style(obj, &styles->focus, LV_STATE_FOCUS_KEY);
 548              		.loc 1 268 13 view .LVU167
 549 0284 254A     		ldr	r2, .L42+36
 550 0286 3031     		adds	r1, r1, #48
 551 0288 2046     		mov	r0, r4
 552 028a FFF7FEFF 		bl	lv_obj_add_style
 553              	.LVL67:
 269:Middlewares/lvgl/src/extra/themes/mono/lv_theme_mono.c ****             lv_obj_add_style(obj, &styles->underline, LV_PART_ITEMS | LV_STATE_FOCUS_KEY);
 554              		.loc 1 269 13 is_stmt 1 view .LVU168
 269:Middlewares/lvgl/src/extra/themes/mono/lv_theme_mono.c ****             lv_obj_add_style(obj, &styles->underline, LV_PART_ITEMS | LV_STATE_FOCUS_KEY);
 555              		.loc 1 269 42 is_stmt 0 view .LVU169
 556 028e 2968     		ldr	r1, [r5]
 269:Middlewares/lvgl/src/extra/themes/mono/lv_theme_mono.c ****             lv_obj_add_style(obj, &styles->underline, LV_PART_ITEMS | LV_STATE_FOCUS_KEY);
 557              		.loc 1 269 13 view .LVU170
 558 0290 0422     		movs	r2, #4
 559 0292 3831     		adds	r1, r1, #56
 560 0294 2046     		mov	r0, r4
 561 0296 FFF7FEFF 		bl	lv_obj_add_style
 562              	.LVL68:
ARM GAS  /tmp/ccFxGgVE.s 			page 22


 270:Middlewares/lvgl/src/extra/themes/mono/lv_theme_mono.c ****             lv_obj_add_style(obj, &styles->large_border, LV_PART_ITEMS | LV_STATE_FOCUS_KEY);
 563              		.loc 1 270 13 is_stmt 1 view .LVU171
 270:Middlewares/lvgl/src/extra/themes/mono/lv_theme_mono.c ****             lv_obj_add_style(obj, &styles->large_border, LV_PART_ITEMS | LV_STATE_FOCUS_KEY);
 564              		.loc 1 270 42 is_stmt 0 view .LVU172
 565 029a 2968     		ldr	r1, [r5]
 270:Middlewares/lvgl/src/extra/themes/mono/lv_theme_mono.c ****             lv_obj_add_style(obj, &styles->large_border, LV_PART_ITEMS | LV_STATE_FOCUS_KEY);
 566              		.loc 1 270 13 view .LVU173
 567 029c 204E     		ldr	r6, .L42+40
 568 029e 3246     		mov	r2, r6
 569 02a0 7831     		adds	r1, r1, #120
 570 02a2 2046     		mov	r0, r4
 571 02a4 FFF7FEFF 		bl	lv_obj_add_style
 572              	.LVL69:
 271:Middlewares/lvgl/src/extra/themes/mono/lv_theme_mono.c ****             return;
 573              		.loc 1 271 13 is_stmt 1 view .LVU174
 271:Middlewares/lvgl/src/extra/themes/mono/lv_theme_mono.c ****             return;
 574              		.loc 1 271 42 is_stmt 0 view .LVU175
 575 02a8 2968     		ldr	r1, [r5]
 271:Middlewares/lvgl/src/extra/themes/mono/lv_theme_mono.c ****             return;
 576              		.loc 1 271 13 view .LVU176
 577 02aa 3246     		mov	r2, r6
 578 02ac 6831     		adds	r1, r1, #104
 579 02ae 2046     		mov	r0, r4
 580 02b0 FFF7FEFF 		bl	lv_obj_add_style
 581              	.LVL70:
 272:Middlewares/lvgl/src/extra/themes/mono/lv_theme_mono.c ****         }
 582              		.loc 1 272 13 is_stmt 1 view .LVU177
 583 02b4 B8E6     		b	.L1
 584              	.L9:
 287:Middlewares/lvgl/src/extra/themes/mono/lv_theme_mono.c ****         lv_obj_add_style(obj, &styles->card, 0);
 585              		.loc 1 287 10 view .LVU178
 287:Middlewares/lvgl/src/extra/themes/mono/lv_theme_mono.c ****         lv_obj_add_style(obj, &styles->card, 0);
 586              		.loc 1 287 13 is_stmt 0 view .LVU179
 587 02b6 1B49     		ldr	r1, .L42+44
 588 02b8 2046     		mov	r0, r4
 589 02ba FFF7FEFF 		bl	lv_obj_check_type
 590              	.LVL71:
 287:Middlewares/lvgl/src/extra/themes/mono/lv_theme_mono.c ****         lv_obj_add_style(obj, &styles->card, 0);
 591              		.loc 1 287 12 view .LVU180
 592 02be 98B3     		cbz	r0, .L12
 288:Middlewares/lvgl/src/extra/themes/mono/lv_theme_mono.c ****         lv_obj_add_style(obj, &styles->pad_zero, 0);
 593              		.loc 1 288 9 is_stmt 1 view .LVU181
 288:Middlewares/lvgl/src/extra/themes/mono/lv_theme_mono.c ****         lv_obj_add_style(obj, &styles->pad_zero, 0);
 594              		.loc 1 288 38 is_stmt 0 view .LVU182
 595 02c0 0F4D     		ldr	r5, .L42+8
 596 02c2 2968     		ldr	r1, [r5]
 288:Middlewares/lvgl/src/extra/themes/mono/lv_theme_mono.c ****         lv_obj_add_style(obj, &styles->pad_zero, 0);
 597              		.loc 1 288 9 view .LVU183
 598 02c4 0022     		movs	r2, #0
 599 02c6 0831     		adds	r1, r1, #8
 600 02c8 2046     		mov	r0, r4
 601 02ca FFF7FEFF 		bl	lv_obj_add_style
 602              	.LVL72:
 289:Middlewares/lvgl/src/extra/themes/mono/lv_theme_mono.c ****         lv_obj_add_style(obj, &styles->inv, LV_PART_INDICATOR);
 603              		.loc 1 289 9 is_stmt 1 view .LVU184
 289:Middlewares/lvgl/src/extra/themes/mono/lv_theme_mono.c ****         lv_obj_add_style(obj, &styles->inv, LV_PART_INDICATOR);
 604              		.loc 1 289 38 is_stmt 0 view .LVU185
ARM GAS  /tmp/ccFxGgVE.s 			page 23


 605 02ce 2968     		ldr	r1, [r5]
 289:Middlewares/lvgl/src/extra/themes/mono/lv_theme_mono.c ****         lv_obj_add_style(obj, &styles->inv, LV_PART_INDICATOR);
 606              		.loc 1 289 9 view .LVU186
 607 02d0 0022     		movs	r2, #0
 608 02d2 5031     		adds	r1, r1, #80
 609 02d4 2046     		mov	r0, r4
 610 02d6 FFF7FEFF 		bl	lv_obj_add_style
 611              	.LVL73:
 290:Middlewares/lvgl/src/extra/themes/mono/lv_theme_mono.c ****         lv_obj_add_style(obj, &styles->focus, LV_STATE_FOCUS_KEY);
 612              		.loc 1 290 9 is_stmt 1 view .LVU187
 290:Middlewares/lvgl/src/extra/themes/mono/lv_theme_mono.c ****         lv_obj_add_style(obj, &styles->focus, LV_STATE_FOCUS_KEY);
 613              		.loc 1 290 38 is_stmt 0 view .LVU188
 614 02da 2968     		ldr	r1, [r5]
 290:Middlewares/lvgl/src/extra/themes/mono/lv_theme_mono.c ****         lv_obj_add_style(obj, &styles->focus, LV_STATE_FOCUS_KEY);
 615              		.loc 1 290 9 view .LVU189
 616 02dc 4FF40032 		mov	r2, #131072
 617 02e0 2831     		adds	r1, r1, #40
 618 02e2 2046     		mov	r0, r4
 619 02e4 FFF7FEFF 		bl	lv_obj_add_style
 620              	.LVL74:
 291:Middlewares/lvgl/src/extra/themes/mono/lv_theme_mono.c ****     }
 621              		.loc 1 291 9 is_stmt 1 view .LVU190
 291:Middlewares/lvgl/src/extra/themes/mono/lv_theme_mono.c ****     }
 622              		.loc 1 291 38 is_stmt 0 view .LVU191
 623 02e8 2968     		ldr	r1, [r5]
 291:Middlewares/lvgl/src/extra/themes/mono/lv_theme_mono.c ****     }
 624              		.loc 1 291 9 view .LVU192
 625 02ea 0422     		movs	r2, #4
 626 02ec 3831     		adds	r1, r1, #56
 627 02ee 2046     		mov	r0, r4
 628 02f0 FFF7FEFF 		bl	lv_obj_add_style
 629              	.LVL75:
 630 02f4 98E6     		b	.L1
 631              	.L43:
 632 02f6 00BF     		.align	2
 633              	.L42:
 634 02f8 00000000 		.word	lv_obj_class
 635 02fc 00000000 		.word	lv_tabview_class
 636 0300 00000000 		.word	.LANCHOR0
 637 0304 00000000 		.word	lv_win_class
 638 0308 00000000 		.word	lv_btn_class
 639 030c 00000000 		.word	lv_btnmatrix_class
 640 0310 00000000 		.word	lv_msgbox_class
 641 0314 20000500 		.word	327712
 642 0318 01000500 		.word	327681
 643 031c 80000500 		.word	327808
 644 0320 04000500 		.word	327684
 645 0324 00000000 		.word	lv_bar_class
 646              	.L12:
 296:Middlewares/lvgl/src/extra/themes/mono/lv_theme_mono.c ****         lv_obj_add_style(obj, &styles->card, 0);
 647              		.loc 1 296 10 is_stmt 1 view .LVU193
 296:Middlewares/lvgl/src/extra/themes/mono/lv_theme_mono.c ****         lv_obj_add_style(obj, &styles->card, 0);
 648              		.loc 1 296 13 is_stmt 0 view .LVU194
 649 0328 C449     		ldr	r1, .L44
 650 032a 2046     		mov	r0, r4
 651 032c FFF7FEFF 		bl	lv_obj_check_type
 652              	.LVL76:
ARM GAS  /tmp/ccFxGgVE.s 			page 24


 296:Middlewares/lvgl/src/extra/themes/mono/lv_theme_mono.c ****         lv_obj_add_style(obj, &styles->card, 0);
 653              		.loc 1 296 12 view .LVU195
 654 0330 70B3     		cbz	r0, .L13
 297:Middlewares/lvgl/src/extra/themes/mono/lv_theme_mono.c ****         lv_obj_add_style(obj, &styles->pad_zero, 0);
 655              		.loc 1 297 9 is_stmt 1 view .LVU196
 297:Middlewares/lvgl/src/extra/themes/mono/lv_theme_mono.c ****         lv_obj_add_style(obj, &styles->pad_zero, 0);
 656              		.loc 1 297 38 is_stmt 0 view .LVU197
 657 0332 C34D     		ldr	r5, .L44+4
 658 0334 2968     		ldr	r1, [r5]
 297:Middlewares/lvgl/src/extra/themes/mono/lv_theme_mono.c ****         lv_obj_add_style(obj, &styles->pad_zero, 0);
 659              		.loc 1 297 9 view .LVU198
 660 0336 0022     		movs	r2, #0
 661 0338 0831     		adds	r1, r1, #8
 662 033a 2046     		mov	r0, r4
 663 033c FFF7FEFF 		bl	lv_obj_add_style
 664              	.LVL77:
 298:Middlewares/lvgl/src/extra/themes/mono/lv_theme_mono.c ****         lv_obj_add_style(obj, &styles->inv, LV_PART_INDICATOR);
 665              		.loc 1 298 9 is_stmt 1 view .LVU199
 298:Middlewares/lvgl/src/extra/themes/mono/lv_theme_mono.c ****         lv_obj_add_style(obj, &styles->inv, LV_PART_INDICATOR);
 666              		.loc 1 298 38 is_stmt 0 view .LVU200
 667 0340 2968     		ldr	r1, [r5]
 298:Middlewares/lvgl/src/extra/themes/mono/lv_theme_mono.c ****         lv_obj_add_style(obj, &styles->inv, LV_PART_INDICATOR);
 668              		.loc 1 298 9 view .LVU201
 669 0342 0022     		movs	r2, #0
 670 0344 5031     		adds	r1, r1, #80
 671 0346 2046     		mov	r0, r4
 672 0348 FFF7FEFF 		bl	lv_obj_add_style
 673              	.LVL78:
 299:Middlewares/lvgl/src/extra/themes/mono/lv_theme_mono.c ****         lv_obj_add_style(obj, &styles->card, LV_PART_KNOB);
 674              		.loc 1 299 9 is_stmt 1 view .LVU202
 299:Middlewares/lvgl/src/extra/themes/mono/lv_theme_mono.c ****         lv_obj_add_style(obj, &styles->card, LV_PART_KNOB);
 675              		.loc 1 299 38 is_stmt 0 view .LVU203
 676 034c 2968     		ldr	r1, [r5]
 299:Middlewares/lvgl/src/extra/themes/mono/lv_theme_mono.c ****         lv_obj_add_style(obj, &styles->card, LV_PART_KNOB);
 677              		.loc 1 299 9 view .LVU204
 678 034e 4FF40032 		mov	r2, #131072
 679 0352 2831     		adds	r1, r1, #40
 680 0354 2046     		mov	r0, r4
 681 0356 FFF7FEFF 		bl	lv_obj_add_style
 682              	.LVL79:
 300:Middlewares/lvgl/src/extra/themes/mono/lv_theme_mono.c ****         lv_obj_add_style(obj, &styles->radius_circle, LV_PART_KNOB);
 683              		.loc 1 300 9 is_stmt 1 view .LVU205
 300:Middlewares/lvgl/src/extra/themes/mono/lv_theme_mono.c ****         lv_obj_add_style(obj, &styles->radius_circle, LV_PART_KNOB);
 684              		.loc 1 300 38 is_stmt 0 view .LVU206
 685 035a 2968     		ldr	r1, [r5]
 300:Middlewares/lvgl/src/extra/themes/mono/lv_theme_mono.c ****         lv_obj_add_style(obj, &styles->radius_circle, LV_PART_KNOB);
 686              		.loc 1 300 9 view .LVU207
 687 035c 4FF44032 		mov	r2, #196608
 688 0360 0831     		adds	r1, r1, #8
 689 0362 2046     		mov	r0, r4
 690 0364 FFF7FEFF 		bl	lv_obj_add_style
 691              	.LVL80:
 301:Middlewares/lvgl/src/extra/themes/mono/lv_theme_mono.c ****         lv_obj_add_style(obj, &styles->focus, LV_STATE_FOCUS_KEY);
 692              		.loc 1 301 9 is_stmt 1 view .LVU208
 301:Middlewares/lvgl/src/extra/themes/mono/lv_theme_mono.c ****         lv_obj_add_style(obj, &styles->focus, LV_STATE_FOCUS_KEY);
 693              		.loc 1 301 38 is_stmt 0 view .LVU209
 694 0368 2968     		ldr	r1, [r5]
ARM GAS  /tmp/ccFxGgVE.s 			page 25


 301:Middlewares/lvgl/src/extra/themes/mono/lv_theme_mono.c ****         lv_obj_add_style(obj, &styles->focus, LV_STATE_FOCUS_KEY);
 695              		.loc 1 301 9 view .LVU210
 696 036a 4FF44032 		mov	r2, #196608
 697 036e 6031     		adds	r1, r1, #96
 698 0370 2046     		mov	r0, r4
 699 0372 FFF7FEFF 		bl	lv_obj_add_style
 700              	.LVL81:
 302:Middlewares/lvgl/src/extra/themes/mono/lv_theme_mono.c ****         lv_obj_add_style(obj, &styles->edit, LV_STATE_EDITED);
 701              		.loc 1 302 9 is_stmt 1 view .LVU211
 302:Middlewares/lvgl/src/extra/themes/mono/lv_theme_mono.c ****         lv_obj_add_style(obj, &styles->edit, LV_STATE_EDITED);
 702              		.loc 1 302 38 is_stmt 0 view .LVU212
 703 0376 2968     		ldr	r1, [r5]
 302:Middlewares/lvgl/src/extra/themes/mono/lv_theme_mono.c ****         lv_obj_add_style(obj, &styles->edit, LV_STATE_EDITED);
 704              		.loc 1 302 9 view .LVU213
 705 0378 0422     		movs	r2, #4
 706 037a 3831     		adds	r1, r1, #56
 707 037c 2046     		mov	r0, r4
 708 037e FFF7FEFF 		bl	lv_obj_add_style
 709              	.LVL82:
 303:Middlewares/lvgl/src/extra/themes/mono/lv_theme_mono.c ****     }
 710              		.loc 1 303 9 is_stmt 1 view .LVU214
 303:Middlewares/lvgl/src/extra/themes/mono/lv_theme_mono.c ****     }
 711              		.loc 1 303 38 is_stmt 0 view .LVU215
 712 0382 2968     		ldr	r1, [r5]
 303:Middlewares/lvgl/src/extra/themes/mono/lv_theme_mono.c ****     }
 713              		.loc 1 303 9 view .LVU216
 714 0384 0822     		movs	r2, #8
 715 0386 4031     		adds	r1, r1, #64
 716 0388 2046     		mov	r0, r4
 717 038a FFF7FEFF 		bl	lv_obj_add_style
 718              	.LVL83:
 719 038e 4BE6     		b	.L1
 720              	.L13:
 308:Middlewares/lvgl/src/extra/themes/mono/lv_theme_mono.c ****         lv_obj_add_style(obj, &styles->scrollbar, LV_PART_SCROLLBAR);
 721              		.loc 1 308 10 is_stmt 1 view .LVU217
 308:Middlewares/lvgl/src/extra/themes/mono/lv_theme_mono.c ****         lv_obj_add_style(obj, &styles->scrollbar, LV_PART_SCROLLBAR);
 722              		.loc 1 308 13 is_stmt 0 view .LVU218
 723 0390 AC49     		ldr	r1, .L44+8
 724 0392 2046     		mov	r0, r4
 725 0394 FFF7FEFF 		bl	lv_obj_check_type
 726              	.LVL84:
 308:Middlewares/lvgl/src/extra/themes/mono/lv_theme_mono.c ****         lv_obj_add_style(obj, &styles->scrollbar, LV_PART_SCROLLBAR);
 727              		.loc 1 308 12 view .LVU219
 728 0398 70B3     		cbz	r0, .L14
 309:Middlewares/lvgl/src/extra/themes/mono/lv_theme_mono.c ****         lv_obj_add_style(obj, &styles->card, LV_PART_ITEMS);
 729              		.loc 1 309 9 is_stmt 1 view .LVU220
 309:Middlewares/lvgl/src/extra/themes/mono/lv_theme_mono.c ****         lv_obj_add_style(obj, &styles->card, LV_PART_ITEMS);
 730              		.loc 1 309 38 is_stmt 0 view .LVU221
 731 039a A94D     		ldr	r5, .L44+4
 732 039c 2968     		ldr	r1, [r5]
 309:Middlewares/lvgl/src/extra/themes/mono/lv_theme_mono.c ****         lv_obj_add_style(obj, &styles->card, LV_PART_ITEMS);
 733              		.loc 1 309 9 view .LVU222
 734 039e 4FF48032 		mov	r2, #65536
 735 03a2 1031     		adds	r1, r1, #16
 736 03a4 2046     		mov	r0, r4
 737 03a6 FFF7FEFF 		bl	lv_obj_add_style
 738              	.LVL85:
ARM GAS  /tmp/ccFxGgVE.s 			page 26


 310:Middlewares/lvgl/src/extra/themes/mono/lv_theme_mono.c ****         lv_obj_add_style(obj, &styles->no_radius, LV_PART_ITEMS);
 739              		.loc 1 310 9 is_stmt 1 view .LVU223
 310:Middlewares/lvgl/src/extra/themes/mono/lv_theme_mono.c ****         lv_obj_add_style(obj, &styles->no_radius, LV_PART_ITEMS);
 740              		.loc 1 310 38 is_stmt 0 view .LVU224
 741 03aa 2968     		ldr	r1, [r5]
 310:Middlewares/lvgl/src/extra/themes/mono/lv_theme_mono.c ****         lv_obj_add_style(obj, &styles->no_radius, LV_PART_ITEMS);
 742              		.loc 1 310 9 view .LVU225
 743 03ac 4FF4A022 		mov	r2, #327680
 744 03b0 0831     		adds	r1, r1, #8
 745 03b2 2046     		mov	r0, r4
 746 03b4 FFF7FEFF 		bl	lv_obj_add_style
 747              	.LVL86:
 311:Middlewares/lvgl/src/extra/themes/mono/lv_theme_mono.c ****         lv_obj_add_style(obj, &styles->pr, LV_PART_ITEMS | LV_STATE_PRESSED);
 748              		.loc 1 311 9 is_stmt 1 view .LVU226
 311:Middlewares/lvgl/src/extra/themes/mono/lv_theme_mono.c ****         lv_obj_add_style(obj, &styles->pr, LV_PART_ITEMS | LV_STATE_PRESSED);
 749              		.loc 1 311 38 is_stmt 0 view .LVU227
 750 03b8 2968     		ldr	r1, [r5]
 311:Middlewares/lvgl/src/extra/themes/mono/lv_theme_mono.c ****         lv_obj_add_style(obj, &styles->pr, LV_PART_ITEMS | LV_STATE_PRESSED);
 751              		.loc 1 311 9 view .LVU228
 752 03ba 4FF4A022 		mov	r2, #327680
 753 03be 5831     		adds	r1, r1, #88
 754 03c0 2046     		mov	r0, r4
 755 03c2 FFF7FEFF 		bl	lv_obj_add_style
 756              	.LVL87:
 312:Middlewares/lvgl/src/extra/themes/mono/lv_theme_mono.c ****         lv_obj_add_style(obj, &styles->focus, LV_STATE_FOCUS_KEY);
 757              		.loc 1 312 9 is_stmt 1 view .LVU229
 312:Middlewares/lvgl/src/extra/themes/mono/lv_theme_mono.c ****         lv_obj_add_style(obj, &styles->focus, LV_STATE_FOCUS_KEY);
 758              		.loc 1 312 38 is_stmt 0 view .LVU230
 759 03c6 2968     		ldr	r1, [r5]
 312:Middlewares/lvgl/src/extra/themes/mono/lv_theme_mono.c ****         lv_obj_add_style(obj, &styles->focus, LV_STATE_FOCUS_KEY);
 760              		.loc 1 312 9 view .LVU231
 761 03c8 9F4A     		ldr	r2, .L44+12
 762 03ca 2031     		adds	r1, r1, #32
 763 03cc 2046     		mov	r0, r4
 764 03ce FFF7FEFF 		bl	lv_obj_add_style
 765              	.LVL88:
 313:Middlewares/lvgl/src/extra/themes/mono/lv_theme_mono.c ****         lv_obj_add_style(obj, &styles->inv, LV_PART_ITEMS | LV_STATE_FOCUS_KEY);
 766              		.loc 1 313 9 is_stmt 1 view .LVU232
 313:Middlewares/lvgl/src/extra/themes/mono/lv_theme_mono.c ****         lv_obj_add_style(obj, &styles->inv, LV_PART_ITEMS | LV_STATE_FOCUS_KEY);
 767              		.loc 1 313 38 is_stmt 0 view .LVU233
 768 03d2 2968     		ldr	r1, [r5]
 313:Middlewares/lvgl/src/extra/themes/mono/lv_theme_mono.c ****         lv_obj_add_style(obj, &styles->inv, LV_PART_ITEMS | LV_STATE_FOCUS_KEY);
 769              		.loc 1 313 9 view .LVU234
 770 03d4 0422     		movs	r2, #4
 771 03d6 3831     		adds	r1, r1, #56
 772 03d8 2046     		mov	r0, r4
 773 03da FFF7FEFF 		bl	lv_obj_add_style
 774              	.LVL89:
 314:Middlewares/lvgl/src/extra/themes/mono/lv_theme_mono.c ****         lv_obj_add_style(obj, &styles->edit, LV_STATE_EDITED);
 775              		.loc 1 314 9 is_stmt 1 view .LVU235
 314:Middlewares/lvgl/src/extra/themes/mono/lv_theme_mono.c ****         lv_obj_add_style(obj, &styles->edit, LV_STATE_EDITED);
 776              		.loc 1 314 38 is_stmt 0 view .LVU236
 777 03de 2968     		ldr	r1, [r5]
 314:Middlewares/lvgl/src/extra/themes/mono/lv_theme_mono.c ****         lv_obj_add_style(obj, &styles->edit, LV_STATE_EDITED);
 778              		.loc 1 314 9 view .LVU237
 779 03e0 9A4A     		ldr	r2, .L44+16
 780 03e2 2831     		adds	r1, r1, #40
ARM GAS  /tmp/ccFxGgVE.s 			page 27


 781 03e4 2046     		mov	r0, r4
 782 03e6 FFF7FEFF 		bl	lv_obj_add_style
 783              	.LVL90:
 315:Middlewares/lvgl/src/extra/themes/mono/lv_theme_mono.c ****     }
 784              		.loc 1 315 9 is_stmt 1 view .LVU238
 315:Middlewares/lvgl/src/extra/themes/mono/lv_theme_mono.c ****     }
 785              		.loc 1 315 38 is_stmt 0 view .LVU239
 786 03ea 2968     		ldr	r1, [r5]
 315:Middlewares/lvgl/src/extra/themes/mono/lv_theme_mono.c ****     }
 787              		.loc 1 315 9 view .LVU240
 788 03ec 0822     		movs	r2, #8
 789 03ee 4031     		adds	r1, r1, #64
 790 03f0 2046     		mov	r0, r4
 791 03f2 FFF7FEFF 		bl	lv_obj_add_style
 792              	.LVL91:
 793 03f6 17E6     		b	.L1
 794              	.L14:
 320:Middlewares/lvgl/src/extra/themes/mono/lv_theme_mono.c ****         lv_obj_add_style(obj, &styles->pad_gap, LV_PART_MAIN);
 795              		.loc 1 320 10 is_stmt 1 view .LVU241
 320:Middlewares/lvgl/src/extra/themes/mono/lv_theme_mono.c ****         lv_obj_add_style(obj, &styles->pad_gap, LV_PART_MAIN);
 796              		.loc 1 320 13 is_stmt 0 view .LVU242
 797 03f8 9549     		ldr	r1, .L44+20
 798 03fa 2046     		mov	r0, r4
 799 03fc FFF7FEFF 		bl	lv_obj_check_type
 800              	.LVL92:
 320:Middlewares/lvgl/src/extra/themes/mono/lv_theme_mono.c ****         lv_obj_add_style(obj, &styles->pad_gap, LV_PART_MAIN);
 801              		.loc 1 320 12 view .LVU243
 802 0400 60B3     		cbz	r0, .L15
 321:Middlewares/lvgl/src/extra/themes/mono/lv_theme_mono.c ****         lv_obj_add_style(obj, &styles->card, LV_PART_INDICATOR);
 803              		.loc 1 321 9 is_stmt 1 view .LVU244
 321:Middlewares/lvgl/src/extra/themes/mono/lv_theme_mono.c ****         lv_obj_add_style(obj, &styles->card, LV_PART_INDICATOR);
 804              		.loc 1 321 38 is_stmt 0 view .LVU245
 805 0402 8F4D     		ldr	r5, .L44+4
 806 0404 2968     		ldr	r1, [r5]
 321:Middlewares/lvgl/src/extra/themes/mono/lv_theme_mono.c ****         lv_obj_add_style(obj, &styles->card, LV_PART_INDICATOR);
 807              		.loc 1 321 9 view .LVU246
 808 0406 0022     		movs	r2, #0
 809 0408 4831     		adds	r1, r1, #72
 810 040a 2046     		mov	r0, r4
 811 040c FFF7FEFF 		bl	lv_obj_add_style
 812              	.LVL93:
 322:Middlewares/lvgl/src/extra/themes/mono/lv_theme_mono.c ****         lv_obj_add_style(obj, &styles->disabled, LV_PART_INDICATOR | LV_STATE_DISABLED);
 813              		.loc 1 322 9 is_stmt 1 view .LVU247
 322:Middlewares/lvgl/src/extra/themes/mono/lv_theme_mono.c ****         lv_obj_add_style(obj, &styles->disabled, LV_PART_INDICATOR | LV_STATE_DISABLED);
 814              		.loc 1 322 38 is_stmt 0 view .LVU248
 815 0410 2968     		ldr	r1, [r5]
 322:Middlewares/lvgl/src/extra/themes/mono/lv_theme_mono.c ****         lv_obj_add_style(obj, &styles->disabled, LV_PART_INDICATOR | LV_STATE_DISABLED);
 816              		.loc 1 322 9 view .LVU249
 817 0412 4FF40032 		mov	r2, #131072
 818 0416 0831     		adds	r1, r1, #8
 819 0418 2046     		mov	r0, r4
 820 041a FFF7FEFF 		bl	lv_obj_add_style
 821              	.LVL94:
 323:Middlewares/lvgl/src/extra/themes/mono/lv_theme_mono.c ****         lv_obj_add_style(obj, &styles->inv, LV_PART_INDICATOR | LV_STATE_CHECKED);
 822              		.loc 1 323 9 is_stmt 1 view .LVU250
 323:Middlewares/lvgl/src/extra/themes/mono/lv_theme_mono.c ****         lv_obj_add_style(obj, &styles->inv, LV_PART_INDICATOR | LV_STATE_CHECKED);
 823              		.loc 1 323 38 is_stmt 0 view .LVU251
ARM GAS  /tmp/ccFxGgVE.s 			page 28


 824 041e 2968     		ldr	r1, [r5]
 323:Middlewares/lvgl/src/extra/themes/mono/lv_theme_mono.c ****         lv_obj_add_style(obj, &styles->inv, LV_PART_INDICATOR | LV_STATE_CHECKED);
 825              		.loc 1 323 9 view .LVU252
 826 0420 8C4A     		ldr	r2, .L44+24
 827 0422 3031     		adds	r1, r1, #48
 828 0424 2046     		mov	r0, r4
 829 0426 FFF7FEFF 		bl	lv_obj_add_style
 830              	.LVL95:
 324:Middlewares/lvgl/src/extra/themes/mono/lv_theme_mono.c ****         lv_obj_add_style(obj, &styles->pr, LV_PART_INDICATOR | LV_STATE_PRESSED);
 831              		.loc 1 324 9 is_stmt 1 view .LVU253
 324:Middlewares/lvgl/src/extra/themes/mono/lv_theme_mono.c ****         lv_obj_add_style(obj, &styles->pr, LV_PART_INDICATOR | LV_STATE_PRESSED);
 832              		.loc 1 324 38 is_stmt 0 view .LVU254
 833 042a 2968     		ldr	r1, [r5]
 324:Middlewares/lvgl/src/extra/themes/mono/lv_theme_mono.c ****         lv_obj_add_style(obj, &styles->pr, LV_PART_INDICATOR | LV_STATE_PRESSED);
 834              		.loc 1 324 9 view .LVU255
 835 042c 8A4A     		ldr	r2, .L44+28
 836 042e 2831     		adds	r1, r1, #40
 837 0430 2046     		mov	r0, r4
 838 0432 FFF7FEFF 		bl	lv_obj_add_style
 839              	.LVL96:
 325:Middlewares/lvgl/src/extra/themes/mono/lv_theme_mono.c ****         lv_obj_add_style(obj, &styles->focus, LV_STATE_FOCUS_KEY);
 840              		.loc 1 325 9 is_stmt 1 view .LVU256
 325:Middlewares/lvgl/src/extra/themes/mono/lv_theme_mono.c ****         lv_obj_add_style(obj, &styles->focus, LV_STATE_FOCUS_KEY);
 841              		.loc 1 325 38 is_stmt 0 view .LVU257
 842 0436 2968     		ldr	r1, [r5]
 325:Middlewares/lvgl/src/extra/themes/mono/lv_theme_mono.c ****         lv_obj_add_style(obj, &styles->focus, LV_STATE_FOCUS_KEY);
 843              		.loc 1 325 9 view .LVU258
 844 0438 884A     		ldr	r2, .L44+32
 845 043a 2031     		adds	r1, r1, #32
 846 043c 2046     		mov	r0, r4
 847 043e FFF7FEFF 		bl	lv_obj_add_style
 848              	.LVL97:
 326:Middlewares/lvgl/src/extra/themes/mono/lv_theme_mono.c ****         lv_obj_add_style(obj, &styles->edit, LV_STATE_EDITED);
 849              		.loc 1 326 9 is_stmt 1 view .LVU259
 326:Middlewares/lvgl/src/extra/themes/mono/lv_theme_mono.c ****         lv_obj_add_style(obj, &styles->edit, LV_STATE_EDITED);
 850              		.loc 1 326 38 is_stmt 0 view .LVU260
 851 0442 2968     		ldr	r1, [r5]
 326:Middlewares/lvgl/src/extra/themes/mono/lv_theme_mono.c ****         lv_obj_add_style(obj, &styles->edit, LV_STATE_EDITED);
 852              		.loc 1 326 9 view .LVU261
 853 0444 0422     		movs	r2, #4
 854 0446 3831     		adds	r1, r1, #56
 855 0448 2046     		mov	r0, r4
 856 044a FFF7FEFF 		bl	lv_obj_add_style
 857              	.LVL98:
 327:Middlewares/lvgl/src/extra/themes/mono/lv_theme_mono.c ****     }
 858              		.loc 1 327 9 is_stmt 1 view .LVU262
 327:Middlewares/lvgl/src/extra/themes/mono/lv_theme_mono.c ****     }
 859              		.loc 1 327 38 is_stmt 0 view .LVU263
 860 044e 2968     		ldr	r1, [r5]
 327:Middlewares/lvgl/src/extra/themes/mono/lv_theme_mono.c ****     }
 861              		.loc 1 327 9 view .LVU264
 862 0450 0822     		movs	r2, #8
 863 0452 4031     		adds	r1, r1, #64
 864 0454 2046     		mov	r0, r4
 865 0456 FFF7FEFF 		bl	lv_obj_add_style
 866              	.LVL99:
 867 045a E5E5     		b	.L1
ARM GAS  /tmp/ccFxGgVE.s 			page 29


 868              	.L15:
 332:Middlewares/lvgl/src/extra/themes/mono/lv_theme_mono.c ****         lv_obj_add_style(obj, &styles->card, 0);
 869              		.loc 1 332 10 is_stmt 1 view .LVU265
 332:Middlewares/lvgl/src/extra/themes/mono/lv_theme_mono.c ****         lv_obj_add_style(obj, &styles->card, 0);
 870              		.loc 1 332 13 is_stmt 0 view .LVU266
 871 045c 8049     		ldr	r1, .L44+36
 872 045e 2046     		mov	r0, r4
 873 0460 FFF7FEFF 		bl	lv_obj_check_type
 874              	.LVL100:
 332:Middlewares/lvgl/src/extra/themes/mono/lv_theme_mono.c ****         lv_obj_add_style(obj, &styles->card, 0);
 875              		.loc 1 332 12 view .LVU267
 876 0464 0028     		cmp	r0, #0
 877 0466 42D0     		beq	.L16
 333:Middlewares/lvgl/src/extra/themes/mono/lv_theme_mono.c ****         lv_obj_add_style(obj, &styles->radius_circle, 0);
 878              		.loc 1 333 9 is_stmt 1 view .LVU268
 333:Middlewares/lvgl/src/extra/themes/mono/lv_theme_mono.c ****         lv_obj_add_style(obj, &styles->radius_circle, 0);
 879              		.loc 1 333 38 is_stmt 0 view .LVU269
 880 0468 754D     		ldr	r5, .L44+4
 881 046a 2968     		ldr	r1, [r5]
 333:Middlewares/lvgl/src/extra/themes/mono/lv_theme_mono.c ****         lv_obj_add_style(obj, &styles->radius_circle, 0);
 882              		.loc 1 333 9 view .LVU270
 883 046c 0022     		movs	r2, #0
 884 046e 0831     		adds	r1, r1, #8
 885 0470 2046     		mov	r0, r4
 886 0472 FFF7FEFF 		bl	lv_obj_add_style
 887              	.LVL101:
 334:Middlewares/lvgl/src/extra/themes/mono/lv_theme_mono.c ****         lv_obj_add_style(obj, &styles->pad_zero, 0);
 888              		.loc 1 334 9 is_stmt 1 view .LVU271
 334:Middlewares/lvgl/src/extra/themes/mono/lv_theme_mono.c ****         lv_obj_add_style(obj, &styles->pad_zero, 0);
 889              		.loc 1 334 38 is_stmt 0 view .LVU272
 890 0476 2968     		ldr	r1, [r5]
 334:Middlewares/lvgl/src/extra/themes/mono/lv_theme_mono.c ****         lv_obj_add_style(obj, &styles->pad_zero, 0);
 891              		.loc 1 334 9 view .LVU273
 892 0478 0022     		movs	r2, #0
 893 047a 6031     		adds	r1, r1, #96
 894 047c 2046     		mov	r0, r4
 895 047e FFF7FEFF 		bl	lv_obj_add_style
 896              	.LVL102:
 335:Middlewares/lvgl/src/extra/themes/mono/lv_theme_mono.c ****         lv_obj_add_style(obj, &styles->inv, LV_PART_INDICATOR);
 897              		.loc 1 335 9 is_stmt 1 view .LVU274
 335:Middlewares/lvgl/src/extra/themes/mono/lv_theme_mono.c ****         lv_obj_add_style(obj, &styles->inv, LV_PART_INDICATOR);
 898              		.loc 1 335 38 is_stmt 0 view .LVU275
 899 0482 2968     		ldr	r1, [r5]
 335:Middlewares/lvgl/src/extra/themes/mono/lv_theme_mono.c ****         lv_obj_add_style(obj, &styles->inv, LV_PART_INDICATOR);
 900              		.loc 1 335 9 view .LVU276
 901 0484 0022     		movs	r2, #0
 902 0486 5031     		adds	r1, r1, #80
 903 0488 2046     		mov	r0, r4
 904 048a FFF7FEFF 		bl	lv_obj_add_style
 905              	.LVL103:
 336:Middlewares/lvgl/src/extra/themes/mono/lv_theme_mono.c ****         lv_obj_add_style(obj, &styles->radius_circle, LV_PART_INDICATOR);
 906              		.loc 1 336 9 is_stmt 1 view .LVU277
 336:Middlewares/lvgl/src/extra/themes/mono/lv_theme_mono.c ****         lv_obj_add_style(obj, &styles->radius_circle, LV_PART_INDICATOR);
 907              		.loc 1 336 38 is_stmt 0 view .LVU278
 908 048e 2968     		ldr	r1, [r5]
 336:Middlewares/lvgl/src/extra/themes/mono/lv_theme_mono.c ****         lv_obj_add_style(obj, &styles->radius_circle, LV_PART_INDICATOR);
 909              		.loc 1 336 9 view .LVU279
ARM GAS  /tmp/ccFxGgVE.s 			page 30


 910 0490 4FF40032 		mov	r2, #131072
 911 0494 2831     		adds	r1, r1, #40
 912 0496 2046     		mov	r0, r4
 913 0498 FFF7FEFF 		bl	lv_obj_add_style
 914              	.LVL104:
 337:Middlewares/lvgl/src/extra/themes/mono/lv_theme_mono.c ****         lv_obj_add_style(obj, &styles->card, LV_PART_KNOB);
 915              		.loc 1 337 9 is_stmt 1 view .LVU280
 337:Middlewares/lvgl/src/extra/themes/mono/lv_theme_mono.c ****         lv_obj_add_style(obj, &styles->card, LV_PART_KNOB);
 916              		.loc 1 337 38 is_stmt 0 view .LVU281
 917 049c 2968     		ldr	r1, [r5]
 337:Middlewares/lvgl/src/extra/themes/mono/lv_theme_mono.c ****         lv_obj_add_style(obj, &styles->card, LV_PART_KNOB);
 918              		.loc 1 337 9 view .LVU282
 919 049e 4FF40032 		mov	r2, #131072
 920 04a2 6031     		adds	r1, r1, #96
 921 04a4 2046     		mov	r0, r4
 922 04a6 FFF7FEFF 		bl	lv_obj_add_style
 923              	.LVL105:
 338:Middlewares/lvgl/src/extra/themes/mono/lv_theme_mono.c ****         lv_obj_add_style(obj, &styles->radius_circle, LV_PART_KNOB);
 924              		.loc 1 338 9 is_stmt 1 view .LVU283
 338:Middlewares/lvgl/src/extra/themes/mono/lv_theme_mono.c ****         lv_obj_add_style(obj, &styles->radius_circle, LV_PART_KNOB);
 925              		.loc 1 338 38 is_stmt 0 view .LVU284
 926 04aa 2968     		ldr	r1, [r5]
 338:Middlewares/lvgl/src/extra/themes/mono/lv_theme_mono.c ****         lv_obj_add_style(obj, &styles->radius_circle, LV_PART_KNOB);
 927              		.loc 1 338 9 view .LVU285
 928 04ac 4FF44032 		mov	r2, #196608
 929 04b0 0831     		adds	r1, r1, #8
 930 04b2 2046     		mov	r0, r4
 931 04b4 FFF7FEFF 		bl	lv_obj_add_style
 932              	.LVL106:
 339:Middlewares/lvgl/src/extra/themes/mono/lv_theme_mono.c ****         lv_obj_add_style(obj, &styles->pad_zero, LV_PART_KNOB);
 933              		.loc 1 339 9 is_stmt 1 view .LVU286
 339:Middlewares/lvgl/src/extra/themes/mono/lv_theme_mono.c ****         lv_obj_add_style(obj, &styles->pad_zero, LV_PART_KNOB);
 934              		.loc 1 339 38 is_stmt 0 view .LVU287
 935 04b8 2968     		ldr	r1, [r5]
 339:Middlewares/lvgl/src/extra/themes/mono/lv_theme_mono.c ****         lv_obj_add_style(obj, &styles->pad_zero, LV_PART_KNOB);
 936              		.loc 1 339 9 view .LVU288
 937 04ba 4FF44032 		mov	r2, #196608
 938 04be 6031     		adds	r1, r1, #96
 939 04c0 2046     		mov	r0, r4
 940 04c2 FFF7FEFF 		bl	lv_obj_add_style
 941              	.LVL107:
 340:Middlewares/lvgl/src/extra/themes/mono/lv_theme_mono.c ****         lv_obj_add_style(obj, &styles->focus, LV_STATE_FOCUS_KEY);
 942              		.loc 1 340 9 is_stmt 1 view .LVU289
 340:Middlewares/lvgl/src/extra/themes/mono/lv_theme_mono.c ****         lv_obj_add_style(obj, &styles->focus, LV_STATE_FOCUS_KEY);
 943              		.loc 1 340 38 is_stmt 0 view .LVU290
 944 04c6 2968     		ldr	r1, [r5]
 340:Middlewares/lvgl/src/extra/themes/mono/lv_theme_mono.c ****         lv_obj_add_style(obj, &styles->focus, LV_STATE_FOCUS_KEY);
 945              		.loc 1 340 9 view .LVU291
 946 04c8 4FF44032 		mov	r2, #196608
 947 04cc 5031     		adds	r1, r1, #80
 948 04ce 2046     		mov	r0, r4
 949 04d0 FFF7FEFF 		bl	lv_obj_add_style
 950              	.LVL108:
 341:Middlewares/lvgl/src/extra/themes/mono/lv_theme_mono.c ****         lv_obj_add_style(obj, &styles->edit, LV_STATE_EDITED);
 951              		.loc 1 341 9 is_stmt 1 view .LVU292
 341:Middlewares/lvgl/src/extra/themes/mono/lv_theme_mono.c ****         lv_obj_add_style(obj, &styles->edit, LV_STATE_EDITED);
 952              		.loc 1 341 38 is_stmt 0 view .LVU293
ARM GAS  /tmp/ccFxGgVE.s 			page 31


 953 04d4 2968     		ldr	r1, [r5]
 341:Middlewares/lvgl/src/extra/themes/mono/lv_theme_mono.c ****         lv_obj_add_style(obj, &styles->edit, LV_STATE_EDITED);
 954              		.loc 1 341 9 view .LVU294
 955 04d6 0422     		movs	r2, #4
 956 04d8 3831     		adds	r1, r1, #56
 957 04da 2046     		mov	r0, r4
 958 04dc FFF7FEFF 		bl	lv_obj_add_style
 959              	.LVL109:
 342:Middlewares/lvgl/src/extra/themes/mono/lv_theme_mono.c ****     }
 960              		.loc 1 342 9 is_stmt 1 view .LVU295
 342:Middlewares/lvgl/src/extra/themes/mono/lv_theme_mono.c ****     }
 961              		.loc 1 342 38 is_stmt 0 view .LVU296
 962 04e0 2968     		ldr	r1, [r5]
 342:Middlewares/lvgl/src/extra/themes/mono/lv_theme_mono.c ****     }
 963              		.loc 1 342 9 view .LVU297
 964 04e2 0822     		movs	r2, #8
 965 04e4 4031     		adds	r1, r1, #64
 966 04e6 2046     		mov	r0, r4
 967 04e8 FFF7FEFF 		bl	lv_obj_add_style
 968              	.LVL110:
 969 04ec 9CE5     		b	.L1
 970              	.L16:
 347:Middlewares/lvgl/src/extra/themes/mono/lv_theme_mono.c ****         lv_obj_add_style(obj, &styles->card, 0);
 971              		.loc 1 347 10 is_stmt 1 view .LVU298
 347:Middlewares/lvgl/src/extra/themes/mono/lv_theme_mono.c ****         lv_obj_add_style(obj, &styles->card, 0);
 972              		.loc 1 347 13 is_stmt 0 view .LVU299
 973 04ee 5D49     		ldr	r1, .L44+40
 974 04f0 2046     		mov	r0, r4
 975 04f2 FFF7FEFF 		bl	lv_obj_check_type
 976              	.LVL111:
 347:Middlewares/lvgl/src/extra/themes/mono/lv_theme_mono.c ****         lv_obj_add_style(obj, &styles->card, 0);
 977              		.loc 1 347 12 view .LVU300
 978 04f6 48B3     		cbz	r0, .L17
 348:Middlewares/lvgl/src/extra/themes/mono/lv_theme_mono.c ****         lv_obj_add_style(obj, &styles->scrollbar, LV_PART_SCROLLBAR);
 979              		.loc 1 348 9 is_stmt 1 view .LVU301
 348:Middlewares/lvgl/src/extra/themes/mono/lv_theme_mono.c ****         lv_obj_add_style(obj, &styles->scrollbar, LV_PART_SCROLLBAR);
 980              		.loc 1 348 38 is_stmt 0 view .LVU302
 981 04f8 514D     		ldr	r5, .L44+4
 982 04fa 2968     		ldr	r1, [r5]
 348:Middlewares/lvgl/src/extra/themes/mono/lv_theme_mono.c ****         lv_obj_add_style(obj, &styles->scrollbar, LV_PART_SCROLLBAR);
 983              		.loc 1 348 9 view .LVU303
 984 04fc 0022     		movs	r2, #0
 985 04fe 0831     		adds	r1, r1, #8
 986 0500 2046     		mov	r0, r4
 987 0502 FFF7FEFF 		bl	lv_obj_add_style
 988              	.LVL112:
 349:Middlewares/lvgl/src/extra/themes/mono/lv_theme_mono.c ****         lv_obj_add_style(obj, &styles->card, LV_PART_ITEMS);
 989              		.loc 1 349 9 is_stmt 1 view .LVU304
 349:Middlewares/lvgl/src/extra/themes/mono/lv_theme_mono.c ****         lv_obj_add_style(obj, &styles->card, LV_PART_ITEMS);
 990              		.loc 1 349 38 is_stmt 0 view .LVU305
 991 0506 2968     		ldr	r1, [r5]
 349:Middlewares/lvgl/src/extra/themes/mono/lv_theme_mono.c ****         lv_obj_add_style(obj, &styles->card, LV_PART_ITEMS);
 992              		.loc 1 349 9 view .LVU306
 993 0508 4FF48032 		mov	r2, #65536
 994 050c 1031     		adds	r1, r1, #16
 995 050e 2046     		mov	r0, r4
 996 0510 FFF7FEFF 		bl	lv_obj_add_style
ARM GAS  /tmp/ccFxGgVE.s 			page 32


 997              	.LVL113:
 350:Middlewares/lvgl/src/extra/themes/mono/lv_theme_mono.c ****         lv_obj_add_style(obj, &styles->card, LV_PART_TICKS);
 998              		.loc 1 350 9 is_stmt 1 view .LVU307
 350:Middlewares/lvgl/src/extra/themes/mono/lv_theme_mono.c ****         lv_obj_add_style(obj, &styles->card, LV_PART_TICKS);
 999              		.loc 1 350 38 is_stmt 0 view .LVU308
 1000 0514 2968     		ldr	r1, [r5]
 350:Middlewares/lvgl/src/extra/themes/mono/lv_theme_mono.c ****         lv_obj_add_style(obj, &styles->card, LV_PART_TICKS);
 1001              		.loc 1 350 9 view .LVU309
 1002 0516 4FF4A022 		mov	r2, #327680
 1003 051a 0831     		adds	r1, r1, #8
 1004 051c 2046     		mov	r0, r4
 1005 051e FFF7FEFF 		bl	lv_obj_add_style
 1006              	.LVL114:
 351:Middlewares/lvgl/src/extra/themes/mono/lv_theme_mono.c ****         lv_obj_add_style(obj, &styles->card, LV_PART_CURSOR);
 1007              		.loc 1 351 9 is_stmt 1 view .LVU310
 351:Middlewares/lvgl/src/extra/themes/mono/lv_theme_mono.c ****         lv_obj_add_style(obj, &styles->card, LV_PART_CURSOR);
 1008              		.loc 1 351 38 is_stmt 0 view .LVU311
 1009 0522 2968     		ldr	r1, [r5]
 351:Middlewares/lvgl/src/extra/themes/mono/lv_theme_mono.c ****         lv_obj_add_style(obj, &styles->card, LV_PART_CURSOR);
 1010              		.loc 1 351 9 view .LVU312
 1011 0524 4FF4C022 		mov	r2, #393216
 1012 0528 0831     		adds	r1, r1, #8
 1013 052a 2046     		mov	r0, r4
 1014 052c FFF7FEFF 		bl	lv_obj_add_style
 1015              	.LVL115:
 352:Middlewares/lvgl/src/extra/themes/mono/lv_theme_mono.c ****         lv_obj_add_style(obj, &styles->focus, LV_STATE_FOCUS_KEY);
 1016              		.loc 1 352 9 is_stmt 1 view .LVU313
 352:Middlewares/lvgl/src/extra/themes/mono/lv_theme_mono.c ****         lv_obj_add_style(obj, &styles->focus, LV_STATE_FOCUS_KEY);
 1017              		.loc 1 352 38 is_stmt 0 view .LVU314
 1018 0530 2968     		ldr	r1, [r5]
 352:Middlewares/lvgl/src/extra/themes/mono/lv_theme_mono.c ****         lv_obj_add_style(obj, &styles->focus, LV_STATE_FOCUS_KEY);
 1019              		.loc 1 352 9 view .LVU315
 1020 0532 4FF4E022 		mov	r2, #458752
 1021 0536 0831     		adds	r1, r1, #8
 1022 0538 2046     		mov	r0, r4
 1023 053a FFF7FEFF 		bl	lv_obj_add_style
 1024              	.LVL116:
 353:Middlewares/lvgl/src/extra/themes/mono/lv_theme_mono.c ****     }
 1025              		.loc 1 353 9 is_stmt 1 view .LVU316
 353:Middlewares/lvgl/src/extra/themes/mono/lv_theme_mono.c ****     }
 1026              		.loc 1 353 38 is_stmt 0 view .LVU317
 1027 053e 2968     		ldr	r1, [r5]
 353:Middlewares/lvgl/src/extra/themes/mono/lv_theme_mono.c ****     }
 1028              		.loc 1 353 9 view .LVU318
 1029 0540 0422     		movs	r2, #4
 1030 0542 3831     		adds	r1, r1, #56
 1031 0544 2046     		mov	r0, r4
 1032 0546 FFF7FEFF 		bl	lv_obj_add_style
 1033              	.LVL117:
 1034 054a 6DE5     		b	.L1
 1035              	.L17:
 358:Middlewares/lvgl/src/extra/themes/mono/lv_theme_mono.c ****         lv_obj_add_style(obj, &styles->card, 0);
 1036              		.loc 1 358 10 is_stmt 1 view .LVU319
 358:Middlewares/lvgl/src/extra/themes/mono/lv_theme_mono.c ****         lv_obj_add_style(obj, &styles->card, 0);
 1037              		.loc 1 358 13 is_stmt 0 view .LVU320
 1038 054c 4649     		ldr	r1, .L44+44
 1039 054e 2046     		mov	r0, r4
ARM GAS  /tmp/ccFxGgVE.s 			page 33


 1040 0550 FFF7FEFF 		bl	lv_obj_check_type
 1041              	.LVL118:
 358:Middlewares/lvgl/src/extra/themes/mono/lv_theme_mono.c ****         lv_obj_add_style(obj, &styles->card, 0);
 1042              		.loc 1 358 12 view .LVU321
 1043 0554 00B3     		cbz	r0, .L18
 359:Middlewares/lvgl/src/extra/themes/mono/lv_theme_mono.c ****         lv_obj_add_style(obj, &styles->large_line_space, 0);
 1044              		.loc 1 359 9 is_stmt 1 view .LVU322
 359:Middlewares/lvgl/src/extra/themes/mono/lv_theme_mono.c ****         lv_obj_add_style(obj, &styles->large_line_space, 0);
 1045              		.loc 1 359 38 is_stmt 0 view .LVU323
 1046 0556 3A4D     		ldr	r5, .L44+4
 1047 0558 2968     		ldr	r1, [r5]
 359:Middlewares/lvgl/src/extra/themes/mono/lv_theme_mono.c ****         lv_obj_add_style(obj, &styles->large_line_space, 0);
 1048              		.loc 1 359 9 view .LVU324
 1049 055a 0022     		movs	r2, #0
 1050 055c 0831     		adds	r1, r1, #8
 1051 055e 2046     		mov	r0, r4
 1052 0560 FFF7FEFF 		bl	lv_obj_add_style
 1053              	.LVL119:
 360:Middlewares/lvgl/src/extra/themes/mono/lv_theme_mono.c ****         lv_obj_add_style(obj, &styles->inv, LV_PART_SELECTED);
 1054              		.loc 1 360 9 is_stmt 1 view .LVU325
 360:Middlewares/lvgl/src/extra/themes/mono/lv_theme_mono.c ****         lv_obj_add_style(obj, &styles->inv, LV_PART_SELECTED);
 1055              		.loc 1 360 38 is_stmt 0 view .LVU326
 1056 0564 2968     		ldr	r1, [r5]
 360:Middlewares/lvgl/src/extra/themes/mono/lv_theme_mono.c ****         lv_obj_add_style(obj, &styles->inv, LV_PART_SELECTED);
 1057              		.loc 1 360 9 view .LVU327
 1058 0566 0022     		movs	r2, #0
 1059 0568 7031     		adds	r1, r1, #112
 1060 056a 2046     		mov	r0, r4
 1061 056c FFF7FEFF 		bl	lv_obj_add_style
 1062              	.LVL120:
 361:Middlewares/lvgl/src/extra/themes/mono/lv_theme_mono.c ****         lv_obj_add_style(obj, &styles->focus, LV_STATE_FOCUS_KEY);
 1063              		.loc 1 361 9 is_stmt 1 view .LVU328
 361:Middlewares/lvgl/src/extra/themes/mono/lv_theme_mono.c ****         lv_obj_add_style(obj, &styles->focus, LV_STATE_FOCUS_KEY);
 1064              		.loc 1 361 38 is_stmt 0 view .LVU329
 1065 0570 2968     		ldr	r1, [r5]
 361:Middlewares/lvgl/src/extra/themes/mono/lv_theme_mono.c ****         lv_obj_add_style(obj, &styles->focus, LV_STATE_FOCUS_KEY);
 1066              		.loc 1 361 9 view .LVU330
 1067 0572 4FF48022 		mov	r2, #262144
 1068 0576 2831     		adds	r1, r1, #40
 1069 0578 2046     		mov	r0, r4
 1070 057a FFF7FEFF 		bl	lv_obj_add_style
 1071              	.LVL121:
 362:Middlewares/lvgl/src/extra/themes/mono/lv_theme_mono.c ****         lv_obj_add_style(obj, &styles->edit, LV_STATE_EDITED);
 1072              		.loc 1 362 9 is_stmt 1 view .LVU331
 362:Middlewares/lvgl/src/extra/themes/mono/lv_theme_mono.c ****         lv_obj_add_style(obj, &styles->edit, LV_STATE_EDITED);
 1073              		.loc 1 362 38 is_stmt 0 view .LVU332
 1074 057e 2968     		ldr	r1, [r5]
 362:Middlewares/lvgl/src/extra/themes/mono/lv_theme_mono.c ****         lv_obj_add_style(obj, &styles->edit, LV_STATE_EDITED);
 1075              		.loc 1 362 9 view .LVU333
 1076 0580 0422     		movs	r2, #4
 1077 0582 3831     		adds	r1, r1, #56
 1078 0584 2046     		mov	r0, r4
 1079 0586 FFF7FEFF 		bl	lv_obj_add_style
 1080              	.LVL122:
 363:Middlewares/lvgl/src/extra/themes/mono/lv_theme_mono.c ****     }
 1081              		.loc 1 363 9 is_stmt 1 view .LVU334
 363:Middlewares/lvgl/src/extra/themes/mono/lv_theme_mono.c ****     }
ARM GAS  /tmp/ccFxGgVE.s 			page 34


 1082              		.loc 1 363 38 is_stmt 0 view .LVU335
 1083 058a 2968     		ldr	r1, [r5]
 363:Middlewares/lvgl/src/extra/themes/mono/lv_theme_mono.c ****     }
 1084              		.loc 1 363 9 view .LVU336
 1085 058c 0822     		movs	r2, #8
 1086 058e 4031     		adds	r1, r1, #64
 1087 0590 2046     		mov	r0, r4
 1088 0592 FFF7FEFF 		bl	lv_obj_add_style
 1089              	.LVL123:
 1090 0596 47E5     		b	.L1
 1091              	.L18:
 368:Middlewares/lvgl/src/extra/themes/mono/lv_theme_mono.c ****         lv_obj_add_style(obj, &styles->card, 0);
 1092              		.loc 1 368 10 is_stmt 1 view .LVU337
 368:Middlewares/lvgl/src/extra/themes/mono/lv_theme_mono.c ****         lv_obj_add_style(obj, &styles->card, 0);
 1093              		.loc 1 368 13 is_stmt 0 view .LVU338
 1094 0598 3449     		ldr	r1, .L44+48
 1095 059a 2046     		mov	r0, r4
 1096 059c FFF7FEFF 		bl	lv_obj_check_type
 1097              	.LVL124:
 368:Middlewares/lvgl/src/extra/themes/mono/lv_theme_mono.c ****         lv_obj_add_style(obj, &styles->card, 0);
 1098              		.loc 1 368 12 view .LVU339
 1099 05a0 C8B1     		cbz	r0, .L19
 369:Middlewares/lvgl/src/extra/themes/mono/lv_theme_mono.c ****         lv_obj_add_style(obj, &styles->pr, LV_STATE_PRESSED);
 1100              		.loc 1 369 9 is_stmt 1 view .LVU340
 369:Middlewares/lvgl/src/extra/themes/mono/lv_theme_mono.c ****         lv_obj_add_style(obj, &styles->pr, LV_STATE_PRESSED);
 1101              		.loc 1 369 38 is_stmt 0 view .LVU341
 1102 05a2 274D     		ldr	r5, .L44+4
 1103 05a4 2968     		ldr	r1, [r5]
 369:Middlewares/lvgl/src/extra/themes/mono/lv_theme_mono.c ****         lv_obj_add_style(obj, &styles->pr, LV_STATE_PRESSED);
 1104              		.loc 1 369 9 view .LVU342
 1105 05a6 0022     		movs	r2, #0
 1106 05a8 0831     		adds	r1, r1, #8
 1107 05aa 2046     		mov	r0, r4
 1108 05ac FFF7FEFF 		bl	lv_obj_add_style
 1109              	.LVL125:
 370:Middlewares/lvgl/src/extra/themes/mono/lv_theme_mono.c ****         lv_obj_add_style(obj, &styles->focus, LV_STATE_FOCUS_KEY);
 1110              		.loc 1 370 9 is_stmt 1 view .LVU343
 370:Middlewares/lvgl/src/extra/themes/mono/lv_theme_mono.c ****         lv_obj_add_style(obj, &styles->focus, LV_STATE_FOCUS_KEY);
 1111              		.loc 1 370 38 is_stmt 0 view .LVU344
 1112 05b0 2968     		ldr	r1, [r5]
 370:Middlewares/lvgl/src/extra/themes/mono/lv_theme_mono.c ****         lv_obj_add_style(obj, &styles->focus, LV_STATE_FOCUS_KEY);
 1113              		.loc 1 370 9 view .LVU345
 1114 05b2 2022     		movs	r2, #32
 1115 05b4 1144     		add	r1, r1, r2
 1116 05b6 2046     		mov	r0, r4
 1117 05b8 FFF7FEFF 		bl	lv_obj_add_style
 1118              	.LVL126:
 371:Middlewares/lvgl/src/extra/themes/mono/lv_theme_mono.c ****         lv_obj_add_style(obj, &styles->edit, LV_STATE_EDITED);
 1119              		.loc 1 371 9 is_stmt 1 view .LVU346
 371:Middlewares/lvgl/src/extra/themes/mono/lv_theme_mono.c ****         lv_obj_add_style(obj, &styles->edit, LV_STATE_EDITED);
 1120              		.loc 1 371 38 is_stmt 0 view .LVU347
 1121 05bc 2968     		ldr	r1, [r5]
 371:Middlewares/lvgl/src/extra/themes/mono/lv_theme_mono.c ****         lv_obj_add_style(obj, &styles->edit, LV_STATE_EDITED);
 1122              		.loc 1 371 9 view .LVU348
 1123 05be 0422     		movs	r2, #4
 1124 05c0 3831     		adds	r1, r1, #56
 1125 05c2 2046     		mov	r0, r4
ARM GAS  /tmp/ccFxGgVE.s 			page 35


 1126 05c4 FFF7FEFF 		bl	lv_obj_add_style
 1127              	.LVL127:
 372:Middlewares/lvgl/src/extra/themes/mono/lv_theme_mono.c ****     }
 1128              		.loc 1 372 9 is_stmt 1 view .LVU349
 372:Middlewares/lvgl/src/extra/themes/mono/lv_theme_mono.c ****     }
 1129              		.loc 1 372 38 is_stmt 0 view .LVU350
 1130 05c8 2968     		ldr	r1, [r5]
 372:Middlewares/lvgl/src/extra/themes/mono/lv_theme_mono.c ****     }
 1131              		.loc 1 372 9 view .LVU351
 1132 05ca 0822     		movs	r2, #8
 1133 05cc 4031     		adds	r1, r1, #64
 1134 05ce 2046     		mov	r0, r4
 1135 05d0 FFF7FEFF 		bl	lv_obj_add_style
 1136              	.LVL128:
 1137 05d4 28E5     		b	.L1
 1138              	.L19:
 374:Middlewares/lvgl/src/extra/themes/mono/lv_theme_mono.c ****         lv_obj_add_style(obj, &styles->card, 0);
 1139              		.loc 1 374 10 is_stmt 1 view .LVU352
 374:Middlewares/lvgl/src/extra/themes/mono/lv_theme_mono.c ****         lv_obj_add_style(obj, &styles->card, 0);
 1140              		.loc 1 374 13 is_stmt 0 view .LVU353
 1141 05d6 2649     		ldr	r1, .L44+52
 1142 05d8 2046     		mov	r0, r4
 1143 05da FFF7FEFF 		bl	lv_obj_check_type
 1144              	.LVL129:
 374:Middlewares/lvgl/src/extra/themes/mono/lv_theme_mono.c ****         lv_obj_add_style(obj, &styles->card, 0);
 1145              		.loc 1 374 12 view .LVU354
 1146 05de 0028     		cmp	r0, #0
 1147 05e0 4CD0     		beq	.L20
 375:Middlewares/lvgl/src/extra/themes/mono/lv_theme_mono.c ****         lv_obj_add_style(obj, &styles->large_line_space, 0);
 1148              		.loc 1 375 9 is_stmt 1 view .LVU355
 375:Middlewares/lvgl/src/extra/themes/mono/lv_theme_mono.c ****         lv_obj_add_style(obj, &styles->large_line_space, 0);
 1149              		.loc 1 375 38 is_stmt 0 view .LVU356
 1150 05e2 174D     		ldr	r5, .L44+4
 1151 05e4 2968     		ldr	r1, [r5]
 375:Middlewares/lvgl/src/extra/themes/mono/lv_theme_mono.c ****         lv_obj_add_style(obj, &styles->large_line_space, 0);
 1152              		.loc 1 375 9 view .LVU357
 1153 05e6 0022     		movs	r2, #0
 1154 05e8 0831     		adds	r1, r1, #8
 1155 05ea 2046     		mov	r0, r4
 1156 05ec FFF7FEFF 		bl	lv_obj_add_style
 1157              	.LVL130:
 376:Middlewares/lvgl/src/extra/themes/mono/lv_theme_mono.c ****         lv_obj_add_style(obj, &styles->scrollbar, LV_PART_SCROLLBAR);
 1158              		.loc 1 376 9 is_stmt 1 view .LVU358
 376:Middlewares/lvgl/src/extra/themes/mono/lv_theme_mono.c ****         lv_obj_add_style(obj, &styles->scrollbar, LV_PART_SCROLLBAR);
 1159              		.loc 1 376 38 is_stmt 0 view .LVU359
 1160 05f0 2968     		ldr	r1, [r5]
 376:Middlewares/lvgl/src/extra/themes/mono/lv_theme_mono.c ****         lv_obj_add_style(obj, &styles->scrollbar, LV_PART_SCROLLBAR);
 1161              		.loc 1 376 9 view .LVU360
 1162 05f2 0022     		movs	r2, #0
 1163 05f4 7031     		adds	r1, r1, #112
 1164 05f6 2046     		mov	r0, r4
 1165 05f8 FFF7FEFF 		bl	lv_obj_add_style
 1166              	.LVL131:
 377:Middlewares/lvgl/src/extra/themes/mono/lv_theme_mono.c ****         lv_obj_add_style(obj, &styles->inv, LV_PART_SELECTED | LV_STATE_CHECKED);
 1167              		.loc 1 377 9 is_stmt 1 view .LVU361
 377:Middlewares/lvgl/src/extra/themes/mono/lv_theme_mono.c ****         lv_obj_add_style(obj, &styles->inv, LV_PART_SELECTED | LV_STATE_CHECKED);
 1168              		.loc 1 377 38 is_stmt 0 view .LVU362
ARM GAS  /tmp/ccFxGgVE.s 			page 36


 1169 05fc 2968     		ldr	r1, [r5]
 377:Middlewares/lvgl/src/extra/themes/mono/lv_theme_mono.c ****         lv_obj_add_style(obj, &styles->inv, LV_PART_SELECTED | LV_STATE_CHECKED);
 1170              		.loc 1 377 9 view .LVU363
 1171 05fe 4FF48032 		mov	r2, #65536
 1172 0602 1031     		adds	r1, r1, #16
 1173 0604 2046     		mov	r0, r4
 1174 0606 FFF7FEFF 		bl	lv_obj_add_style
 1175              	.LVL132:
 378:Middlewares/lvgl/src/extra/themes/mono/lv_theme_mono.c ****         lv_obj_add_style(obj, &styles->pr, LV_PART_SELECTED | LV_STATE_PRESSED);
 1176              		.loc 1 378 9 is_stmt 1 view .LVU364
 378:Middlewares/lvgl/src/extra/themes/mono/lv_theme_mono.c ****         lv_obj_add_style(obj, &styles->pr, LV_PART_SELECTED | LV_STATE_PRESSED);
 1177              		.loc 1 378 38 is_stmt 0 view .LVU365
 1178 060a 2968     		ldr	r1, [r5]
 378:Middlewares/lvgl/src/extra/themes/mono/lv_theme_mono.c ****         lv_obj_add_style(obj, &styles->pr, LV_PART_SELECTED | LV_STATE_PRESSED);
 1179              		.loc 1 378 9 view .LVU366
 1180 060c 194A     		ldr	r2, .L44+56
 1181 060e 2831     		adds	r1, r1, #40
 1182 0610 2046     		mov	r0, r4
 1183 0612 FFF7FEFF 		bl	lv_obj_add_style
 1184              	.LVL133:
 379:Middlewares/lvgl/src/extra/themes/mono/lv_theme_mono.c ****         lv_obj_add_style(obj, &styles->focus, LV_STATE_FOCUS_KEY);
 1185              		.loc 1 379 9 is_stmt 1 view .LVU367
 379:Middlewares/lvgl/src/extra/themes/mono/lv_theme_mono.c ****         lv_obj_add_style(obj, &styles->focus, LV_STATE_FOCUS_KEY);
 1186              		.loc 1 379 38 is_stmt 0 view .LVU368
 1187 0616 2968     		ldr	r1, [r5]
 379:Middlewares/lvgl/src/extra/themes/mono/lv_theme_mono.c ****         lv_obj_add_style(obj, &styles->focus, LV_STATE_FOCUS_KEY);
 1188              		.loc 1 379 9 view .LVU369
 1189 0618 174A     		ldr	r2, .L44+60
 1190 061a 2031     		adds	r1, r1, #32
 1191 061c 2046     		mov	r0, r4
 1192 061e FFF7FEFF 		bl	lv_obj_add_style
 1193              	.LVL134:
 380:Middlewares/lvgl/src/extra/themes/mono/lv_theme_mono.c ****         lv_obj_add_style(obj, &styles->edit, LV_STATE_EDITED);
 1194              		.loc 1 380 9 is_stmt 1 view .LVU370
 380:Middlewares/lvgl/src/extra/themes/mono/lv_theme_mono.c ****         lv_obj_add_style(obj, &styles->edit, LV_STATE_EDITED);
 1195              		.loc 1 380 38 is_stmt 0 view .LVU371
 1196 0622 2968     		ldr	r1, [r5]
 380:Middlewares/lvgl/src/extra/themes/mono/lv_theme_mono.c ****         lv_obj_add_style(obj, &styles->edit, LV_STATE_EDITED);
 1197              		.loc 1 380 9 view .LVU372
 1198 0624 0422     		movs	r2, #4
 1199 0626 3831     		adds	r1, r1, #56
 1200 0628 2046     		mov	r0, r4
 1201 062a FFF7FEFF 		bl	lv_obj_add_style
 1202              	.LVL135:
 381:Middlewares/lvgl/src/extra/themes/mono/lv_theme_mono.c ****     }
 1203              		.loc 1 381 9 is_stmt 1 view .LVU373
 381:Middlewares/lvgl/src/extra/themes/mono/lv_theme_mono.c ****     }
 1204              		.loc 1 381 38 is_stmt 0 view .LVU374
 1205 062e 2968     		ldr	r1, [r5]
 381:Middlewares/lvgl/src/extra/themes/mono/lv_theme_mono.c ****     }
 1206              		.loc 1 381 9 view .LVU375
 1207 0630 0822     		movs	r2, #8
 1208 0632 4031     		adds	r1, r1, #64
 1209 0634 2046     		mov	r0, r4
 1210 0636 FFF7FEFF 		bl	lv_obj_add_style
 1211              	.LVL136:
 1212 063a F5E4     		b	.L1
ARM GAS  /tmp/ccFxGgVE.s 			page 37


 1213              	.L45:
 1214              		.align	2
 1215              	.L44:
 1216 063c 00000000 		.word	lv_slider_class
 1217 0640 00000000 		.word	.LANCHOR0
 1218 0644 00000000 		.word	lv_table_class
 1219 0648 20000500 		.word	327712
 1220 064c 04000500 		.word	327684
 1221 0650 00000000 		.word	lv_checkbox_class
 1222 0654 80000200 		.word	131200
 1223 0658 01000200 		.word	131073
 1224 065c 20000200 		.word	131104
 1225 0660 00000000 		.word	lv_switch_class
 1226 0664 00000000 		.word	lv_chart_class
 1227 0668 00000000 		.word	lv_roller_class
 1228 066c 00000000 		.word	lv_dropdown_class
 1229 0670 00000000 		.word	lv_dropdownlist_class
 1230 0674 01000400 		.word	262145
 1231 0678 20000400 		.word	262176
 1232              	.L20:
 386:Middlewares/lvgl/src/extra/themes/mono/lv_theme_mono.c ****         lv_obj_add_style(obj, &styles->card, 0);
 1233              		.loc 1 386 10 is_stmt 1 view .LVU376
 386:Middlewares/lvgl/src/extra/themes/mono/lv_theme_mono.c ****         lv_obj_add_style(obj, &styles->card, 0);
 1234              		.loc 1 386 13 is_stmt 0 view .LVU377
 1235 067c B449     		ldr	r1, .L46
 1236 067e 2046     		mov	r0, r4
 1237 0680 FFF7FEFF 		bl	lv_obj_check_type
 1238              	.LVL137:
 386:Middlewares/lvgl/src/extra/themes/mono/lv_theme_mono.c ****         lv_obj_add_style(obj, &styles->card, 0);
 1239              		.loc 1 386 12 view .LVU378
 1240 0684 78B3     		cbz	r0, .L21
 387:Middlewares/lvgl/src/extra/themes/mono/lv_theme_mono.c ****         lv_obj_add_style(obj, &styles->inv, LV_PART_INDICATOR);
 1241              		.loc 1 387 9 is_stmt 1 view .LVU379
 387:Middlewares/lvgl/src/extra/themes/mono/lv_theme_mono.c ****         lv_obj_add_style(obj, &styles->inv, LV_PART_INDICATOR);
 1242              		.loc 1 387 38 is_stmt 0 view .LVU380
 1243 0686 B34D     		ldr	r5, .L46+4
 1244 0688 2968     		ldr	r1, [r5]
 387:Middlewares/lvgl/src/extra/themes/mono/lv_theme_mono.c ****         lv_obj_add_style(obj, &styles->inv, LV_PART_INDICATOR);
 1245              		.loc 1 387 9 view .LVU381
 1246 068a 0022     		movs	r2, #0
 1247 068c 0831     		adds	r1, r1, #8
 1248 068e 2046     		mov	r0, r4
 1249 0690 FFF7FEFF 		bl	lv_obj_add_style
 1250              	.LVL138:
 388:Middlewares/lvgl/src/extra/themes/mono/lv_theme_mono.c ****         lv_obj_add_style(obj, &styles->pad_zero, LV_PART_INDICATOR);
 1251              		.loc 1 388 9 is_stmt 1 view .LVU382
 388:Middlewares/lvgl/src/extra/themes/mono/lv_theme_mono.c ****         lv_obj_add_style(obj, &styles->pad_zero, LV_PART_INDICATOR);
 1252              		.loc 1 388 38 is_stmt 0 view .LVU383
 1253 0694 2968     		ldr	r1, [r5]
 388:Middlewares/lvgl/src/extra/themes/mono/lv_theme_mono.c ****         lv_obj_add_style(obj, &styles->pad_zero, LV_PART_INDICATOR);
 1254              		.loc 1 388 9 view .LVU384
 1255 0696 4FF40032 		mov	r2, #131072
 1256 069a 2831     		adds	r1, r1, #40
 1257 069c 2046     		mov	r0, r4
 1258 069e FFF7FEFF 		bl	lv_obj_add_style
 1259              	.LVL139:
 389:Middlewares/lvgl/src/extra/themes/mono/lv_theme_mono.c ****         lv_obj_add_style(obj, &styles->card, LV_PART_KNOB);
ARM GAS  /tmp/ccFxGgVE.s 			page 38


 1260              		.loc 1 389 9 is_stmt 1 view .LVU385
 389:Middlewares/lvgl/src/extra/themes/mono/lv_theme_mono.c ****         lv_obj_add_style(obj, &styles->card, LV_PART_KNOB);
 1261              		.loc 1 389 38 is_stmt 0 view .LVU386
 1262 06a2 2968     		ldr	r1, [r5]
 389:Middlewares/lvgl/src/extra/themes/mono/lv_theme_mono.c ****         lv_obj_add_style(obj, &styles->card, LV_PART_KNOB);
 1263              		.loc 1 389 9 view .LVU387
 1264 06a4 4FF40032 		mov	r2, #131072
 1265 06a8 5031     		adds	r1, r1, #80
 1266 06aa 2046     		mov	r0, r4
 1267 06ac FFF7FEFF 		bl	lv_obj_add_style
 1268              	.LVL140:
 390:Middlewares/lvgl/src/extra/themes/mono/lv_theme_mono.c ****         lv_obj_add_style(obj, &styles->radius_circle, LV_PART_KNOB);
 1269              		.loc 1 390 9 is_stmt 1 view .LVU388
 390:Middlewares/lvgl/src/extra/themes/mono/lv_theme_mono.c ****         lv_obj_add_style(obj, &styles->radius_circle, LV_PART_KNOB);
 1270              		.loc 1 390 38 is_stmt 0 view .LVU389
 1271 06b0 2968     		ldr	r1, [r5]
 390:Middlewares/lvgl/src/extra/themes/mono/lv_theme_mono.c ****         lv_obj_add_style(obj, &styles->radius_circle, LV_PART_KNOB);
 1272              		.loc 1 390 9 view .LVU390
 1273 06b2 4FF44032 		mov	r2, #196608
 1274 06b6 0831     		adds	r1, r1, #8
 1275 06b8 2046     		mov	r0, r4
 1276 06ba FFF7FEFF 		bl	lv_obj_add_style
 1277              	.LVL141:
 391:Middlewares/lvgl/src/extra/themes/mono/lv_theme_mono.c ****         lv_obj_add_style(obj, &styles->focus, LV_STATE_FOCUS_KEY);
 1278              		.loc 1 391 9 is_stmt 1 view .LVU391
 391:Middlewares/lvgl/src/extra/themes/mono/lv_theme_mono.c ****         lv_obj_add_style(obj, &styles->focus, LV_STATE_FOCUS_KEY);
 1279              		.loc 1 391 38 is_stmt 0 view .LVU392
 1280 06be 2968     		ldr	r1, [r5]
 391:Middlewares/lvgl/src/extra/themes/mono/lv_theme_mono.c ****         lv_obj_add_style(obj, &styles->focus, LV_STATE_FOCUS_KEY);
 1281              		.loc 1 391 9 view .LVU393
 1282 06c0 4FF44032 		mov	r2, #196608
 1283 06c4 6031     		adds	r1, r1, #96
 1284 06c6 2046     		mov	r0, r4
 1285 06c8 FFF7FEFF 		bl	lv_obj_add_style
 1286              	.LVL142:
 392:Middlewares/lvgl/src/extra/themes/mono/lv_theme_mono.c ****         lv_obj_add_style(obj, &styles->edit, LV_STATE_EDITED);
 1287              		.loc 1 392 9 is_stmt 1 view .LVU394
 392:Middlewares/lvgl/src/extra/themes/mono/lv_theme_mono.c ****         lv_obj_add_style(obj, &styles->edit, LV_STATE_EDITED);
 1288              		.loc 1 392 38 is_stmt 0 view .LVU395
 1289 06cc 2968     		ldr	r1, [r5]
 392:Middlewares/lvgl/src/extra/themes/mono/lv_theme_mono.c ****         lv_obj_add_style(obj, &styles->edit, LV_STATE_EDITED);
 1290              		.loc 1 392 9 view .LVU396
 1291 06ce 0422     		movs	r2, #4
 1292 06d0 3831     		adds	r1, r1, #56
 1293 06d2 2046     		mov	r0, r4
 1294 06d4 FFF7FEFF 		bl	lv_obj_add_style
 1295              	.LVL143:
 393:Middlewares/lvgl/src/extra/themes/mono/lv_theme_mono.c ****     }
 1296              		.loc 1 393 9 is_stmt 1 view .LVU397
 393:Middlewares/lvgl/src/extra/themes/mono/lv_theme_mono.c ****     }
 1297              		.loc 1 393 38 is_stmt 0 view .LVU398
 1298 06d8 2968     		ldr	r1, [r5]
 393:Middlewares/lvgl/src/extra/themes/mono/lv_theme_mono.c ****     }
 1299              		.loc 1 393 9 view .LVU399
 1300 06da 0822     		movs	r2, #8
 1301 06dc 4031     		adds	r1, r1, #64
 1302 06de 2046     		mov	r0, r4
ARM GAS  /tmp/ccFxGgVE.s 			page 39


 1303 06e0 FFF7FEFF 		bl	lv_obj_add_style
 1304              	.LVL144:
 1305 06e4 A0E4     		b	.L1
 1306              	.L21:
 398:Middlewares/lvgl/src/extra/themes/mono/lv_theme_mono.c ****         lv_obj_add_style(obj, &styles->card, 0);
 1307              		.loc 1 398 10 is_stmt 1 view .LVU400
 398:Middlewares/lvgl/src/extra/themes/mono/lv_theme_mono.c ****         lv_obj_add_style(obj, &styles->card, 0);
 1308              		.loc 1 398 13 is_stmt 0 view .LVU401
 1309 06e6 9C49     		ldr	r1, .L46+8
 1310 06e8 2046     		mov	r0, r4
 1311 06ea FFF7FEFF 		bl	lv_obj_check_type
 1312              	.LVL145:
 398:Middlewares/lvgl/src/extra/themes/mono/lv_theme_mono.c ****         lv_obj_add_style(obj, &styles->card, 0);
 1313              		.loc 1 398 12 view .LVU402
 1314 06ee 38B1     		cbz	r0, .L22
 399:Middlewares/lvgl/src/extra/themes/mono/lv_theme_mono.c ****     }
 1315              		.loc 1 399 9 is_stmt 1 view .LVU403
 399:Middlewares/lvgl/src/extra/themes/mono/lv_theme_mono.c ****     }
 1316              		.loc 1 399 38 is_stmt 0 view .LVU404
 1317 06f0 984B     		ldr	r3, .L46+4
 1318 06f2 1968     		ldr	r1, [r3]
 399:Middlewares/lvgl/src/extra/themes/mono/lv_theme_mono.c ****     }
 1319              		.loc 1 399 9 view .LVU405
 1320 06f4 0022     		movs	r2, #0
 1321 06f6 0831     		adds	r1, r1, #8
 1322 06f8 2046     		mov	r0, r4
 1323 06fa FFF7FEFF 		bl	lv_obj_add_style
 1324              	.LVL146:
 1325 06fe 93E4     		b	.L1
 1326              	.L22:
 404:Middlewares/lvgl/src/extra/themes/mono/lv_theme_mono.c ****         lv_obj_add_style(obj, &styles->card, 0);
 1327              		.loc 1 404 10 is_stmt 1 view .LVU406
 404:Middlewares/lvgl/src/extra/themes/mono/lv_theme_mono.c ****         lv_obj_add_style(obj, &styles->card, 0);
 1328              		.loc 1 404 13 is_stmt 0 view .LVU407
 1329 0700 9649     		ldr	r1, .L46+12
 1330 0702 2046     		mov	r0, r4
 1331 0704 FFF7FEFF 		bl	lv_obj_check_type
 1332              	.LVL147:
 404:Middlewares/lvgl/src/extra/themes/mono/lv_theme_mono.c ****         lv_obj_add_style(obj, &styles->card, 0);
 1333              		.loc 1 404 12 view .LVU408
 1334 0708 00B3     		cbz	r0, .L23
 405:Middlewares/lvgl/src/extra/themes/mono/lv_theme_mono.c ****         lv_obj_add_style(obj, &styles->scrollbar, LV_PART_SCROLLBAR);
 1335              		.loc 1 405 9 is_stmt 1 view .LVU409
 405:Middlewares/lvgl/src/extra/themes/mono/lv_theme_mono.c ****         lv_obj_add_style(obj, &styles->scrollbar, LV_PART_SCROLLBAR);
 1336              		.loc 1 405 38 is_stmt 0 view .LVU410
 1337 070a 924D     		ldr	r5, .L46+4
 1338 070c 2968     		ldr	r1, [r5]
 405:Middlewares/lvgl/src/extra/themes/mono/lv_theme_mono.c ****         lv_obj_add_style(obj, &styles->scrollbar, LV_PART_SCROLLBAR);
 1339              		.loc 1 405 9 view .LVU411
 1340 070e 0022     		movs	r2, #0
 1341 0710 0831     		adds	r1, r1, #8
 1342 0712 2046     		mov	r0, r4
 1343 0714 FFF7FEFF 		bl	lv_obj_add_style
 1344              	.LVL148:
 406:Middlewares/lvgl/src/extra/themes/mono/lv_theme_mono.c ****         lv_obj_add_style(obj, &styles->ta_cursor, LV_PART_CURSOR | LV_STATE_FOCUSED);
 1345              		.loc 1 406 9 is_stmt 1 view .LVU412
 406:Middlewares/lvgl/src/extra/themes/mono/lv_theme_mono.c ****         lv_obj_add_style(obj, &styles->ta_cursor, LV_PART_CURSOR | LV_STATE_FOCUSED);
ARM GAS  /tmp/ccFxGgVE.s 			page 40


 1346              		.loc 1 406 38 is_stmt 0 view .LVU413
 1347 0718 2968     		ldr	r1, [r5]
 406:Middlewares/lvgl/src/extra/themes/mono/lv_theme_mono.c ****         lv_obj_add_style(obj, &styles->ta_cursor, LV_PART_CURSOR | LV_STATE_FOCUSED);
 1348              		.loc 1 406 9 view .LVU414
 1349 071a 4FF48032 		mov	r2, #65536
 1350 071e 1031     		adds	r1, r1, #16
 1351 0720 2046     		mov	r0, r4
 1352 0722 FFF7FEFF 		bl	lv_obj_add_style
 1353              	.LVL149:
 407:Middlewares/lvgl/src/extra/themes/mono/lv_theme_mono.c ****         lv_obj_add_style(obj, &styles->focus, LV_STATE_FOCUSED);
 1354              		.loc 1 407 9 is_stmt 1 view .LVU415
 407:Middlewares/lvgl/src/extra/themes/mono/lv_theme_mono.c ****         lv_obj_add_style(obj, &styles->focus, LV_STATE_FOCUSED);
 1355              		.loc 1 407 38 is_stmt 0 view .LVU416
 1356 0726 2968     		ldr	r1, [r5]
 407:Middlewares/lvgl/src/extra/themes/mono/lv_theme_mono.c ****         lv_obj_add_style(obj, &styles->focus, LV_STATE_FOCUSED);
 1357              		.loc 1 407 9 view .LVU417
 1358 0728 8D4A     		ldr	r2, .L46+16
 1359 072a 8031     		adds	r1, r1, #128
 1360 072c 2046     		mov	r0, r4
 1361 072e FFF7FEFF 		bl	lv_obj_add_style
 1362              	.LVL150:
 408:Middlewares/lvgl/src/extra/themes/mono/lv_theme_mono.c ****         lv_obj_add_style(obj, &styles->edit, LV_STATE_EDITED);
 1363              		.loc 1 408 9 is_stmt 1 view .LVU418
 408:Middlewares/lvgl/src/extra/themes/mono/lv_theme_mono.c ****         lv_obj_add_style(obj, &styles->edit, LV_STATE_EDITED);
 1364              		.loc 1 408 38 is_stmt 0 view .LVU419
 1365 0732 2968     		ldr	r1, [r5]
 408:Middlewares/lvgl/src/extra/themes/mono/lv_theme_mono.c ****         lv_obj_add_style(obj, &styles->edit, LV_STATE_EDITED);
 1366              		.loc 1 408 9 view .LVU420
 1367 0734 0222     		movs	r2, #2
 1368 0736 3831     		adds	r1, r1, #56
 1369 0738 2046     		mov	r0, r4
 1370 073a FFF7FEFF 		bl	lv_obj_add_style
 1371              	.LVL151:
 409:Middlewares/lvgl/src/extra/themes/mono/lv_theme_mono.c ****     }
 1372              		.loc 1 409 9 is_stmt 1 view .LVU421
 409:Middlewares/lvgl/src/extra/themes/mono/lv_theme_mono.c ****     }
 1373              		.loc 1 409 38 is_stmt 0 view .LVU422
 1374 073e 2968     		ldr	r1, [r5]
 409:Middlewares/lvgl/src/extra/themes/mono/lv_theme_mono.c ****     }
 1375              		.loc 1 409 9 view .LVU423
 1376 0740 0822     		movs	r2, #8
 1377 0742 4031     		adds	r1, r1, #64
 1378 0744 2046     		mov	r0, r4
 1379 0746 FFF7FEFF 		bl	lv_obj_add_style
 1380              	.LVL152:
 1381 074a 6DE4     		b	.L1
 1382              	.L23:
 414:Middlewares/lvgl/src/extra/themes/mono/lv_theme_mono.c ****         lv_obj_add_style(obj, &styles->card, 0);
 1383              		.loc 1 414 10 is_stmt 1 view .LVU424
 414:Middlewares/lvgl/src/extra/themes/mono/lv_theme_mono.c ****         lv_obj_add_style(obj, &styles->card, 0);
 1384              		.loc 1 414 13 is_stmt 0 view .LVU425
 1385 074c 8549     		ldr	r1, .L46+20
 1386 074e 2046     		mov	r0, r4
 1387 0750 FFF7FEFF 		bl	lv_obj_check_type
 1388              	.LVL153:
 414:Middlewares/lvgl/src/extra/themes/mono/lv_theme_mono.c ****         lv_obj_add_style(obj, &styles->card, 0);
 1389              		.loc 1 414 12 view .LVU426
ARM GAS  /tmp/ccFxGgVE.s 			page 41


 1390 0754 58B3     		cbz	r0, .L24
 415:Middlewares/lvgl/src/extra/themes/mono/lv_theme_mono.c ****         lv_obj_add_style(obj, &styles->no_radius, 0);
 1391              		.loc 1 415 9 is_stmt 1 view .LVU427
 415:Middlewares/lvgl/src/extra/themes/mono/lv_theme_mono.c ****         lv_obj_add_style(obj, &styles->no_radius, 0);
 1392              		.loc 1 415 38 is_stmt 0 view .LVU428
 1393 0756 7F4D     		ldr	r5, .L46+4
 1394 0758 2968     		ldr	r1, [r5]
 415:Middlewares/lvgl/src/extra/themes/mono/lv_theme_mono.c ****         lv_obj_add_style(obj, &styles->no_radius, 0);
 1395              		.loc 1 415 9 view .LVU429
 1396 075a 0022     		movs	r2, #0
 1397 075c 0831     		adds	r1, r1, #8
 1398 075e 2046     		mov	r0, r4
 1399 0760 FFF7FEFF 		bl	lv_obj_add_style
 1400              	.LVL154:
 416:Middlewares/lvgl/src/extra/themes/mono/lv_theme_mono.c ****         lv_obj_add_style(obj, &styles->pr, LV_PART_ITEMS | LV_STATE_PRESSED);
 1401              		.loc 1 416 9 is_stmt 1 view .LVU430
 416:Middlewares/lvgl/src/extra/themes/mono/lv_theme_mono.c ****         lv_obj_add_style(obj, &styles->pr, LV_PART_ITEMS | LV_STATE_PRESSED);
 1402              		.loc 1 416 38 is_stmt 0 view .LVU431
 1403 0764 2968     		ldr	r1, [r5]
 416:Middlewares/lvgl/src/extra/themes/mono/lv_theme_mono.c ****         lv_obj_add_style(obj, &styles->pr, LV_PART_ITEMS | LV_STATE_PRESSED);
 1404              		.loc 1 416 9 view .LVU432
 1405 0766 0022     		movs	r2, #0
 1406 0768 5831     		adds	r1, r1, #88
 1407 076a 2046     		mov	r0, r4
 1408 076c FFF7FEFF 		bl	lv_obj_add_style
 1409              	.LVL155:
 417:Middlewares/lvgl/src/extra/themes/mono/lv_theme_mono.c ****         lv_obj_add_style(obj, &styles->disabled, LV_PART_ITEMS | LV_STATE_DISABLED);
 1410              		.loc 1 417 9 is_stmt 1 view .LVU433
 417:Middlewares/lvgl/src/extra/themes/mono/lv_theme_mono.c ****         lv_obj_add_style(obj, &styles->disabled, LV_PART_ITEMS | LV_STATE_DISABLED);
 1411              		.loc 1 417 38 is_stmt 0 view .LVU434
 1412 0770 2968     		ldr	r1, [r5]
 417:Middlewares/lvgl/src/extra/themes/mono/lv_theme_mono.c ****         lv_obj_add_style(obj, &styles->disabled, LV_PART_ITEMS | LV_STATE_DISABLED);
 1413              		.loc 1 417 9 view .LVU435
 1414 0772 7D4A     		ldr	r2, .L46+24
 1415 0774 2031     		adds	r1, r1, #32
 1416 0776 2046     		mov	r0, r4
 1417 0778 FFF7FEFF 		bl	lv_obj_add_style
 1418              	.LVL156:
 418:Middlewares/lvgl/src/extra/themes/mono/lv_theme_mono.c ****         lv_obj_add_style(obj, &styles->focus, LV_STATE_FOCUS_KEY);
 1419              		.loc 1 418 9 is_stmt 1 view .LVU436
 418:Middlewares/lvgl/src/extra/themes/mono/lv_theme_mono.c ****         lv_obj_add_style(obj, &styles->focus, LV_STATE_FOCUS_KEY);
 1420              		.loc 1 418 38 is_stmt 0 view .LVU437
 1421 077c 2968     		ldr	r1, [r5]
 418:Middlewares/lvgl/src/extra/themes/mono/lv_theme_mono.c ****         lv_obj_add_style(obj, &styles->focus, LV_STATE_FOCUS_KEY);
 1422              		.loc 1 418 9 view .LVU438
 1423 077e 7B4A     		ldr	r2, .L46+28
 1424 0780 3031     		adds	r1, r1, #48
 1425 0782 2046     		mov	r0, r4
 1426 0784 FFF7FEFF 		bl	lv_obj_add_style
 1427              	.LVL157:
 419:Middlewares/lvgl/src/extra/themes/mono/lv_theme_mono.c ****         lv_obj_add_style(obj, &styles->edit, LV_STATE_EDITED);
 1428              		.loc 1 419 9 is_stmt 1 view .LVU439
 419:Middlewares/lvgl/src/extra/themes/mono/lv_theme_mono.c ****         lv_obj_add_style(obj, &styles->edit, LV_STATE_EDITED);
 1429              		.loc 1 419 38 is_stmt 0 view .LVU440
 1430 0788 2968     		ldr	r1, [r5]
 419:Middlewares/lvgl/src/extra/themes/mono/lv_theme_mono.c ****         lv_obj_add_style(obj, &styles->edit, LV_STATE_EDITED);
 1431              		.loc 1 419 9 view .LVU441
ARM GAS  /tmp/ccFxGgVE.s 			page 42


 1432 078a 0422     		movs	r2, #4
 1433 078c 3831     		adds	r1, r1, #56
 1434 078e 2046     		mov	r0, r4
 1435 0790 FFF7FEFF 		bl	lv_obj_add_style
 1436              	.LVL158:
 420:Middlewares/lvgl/src/extra/themes/mono/lv_theme_mono.c ****         lv_obj_add_style(obj, &styles->large_border, LV_PART_ITEMS | LV_STATE_FOCUS_KEY);
 1437              		.loc 1 420 9 is_stmt 1 view .LVU442
 420:Middlewares/lvgl/src/extra/themes/mono/lv_theme_mono.c ****         lv_obj_add_style(obj, &styles->large_border, LV_PART_ITEMS | LV_STATE_FOCUS_KEY);
 1438              		.loc 1 420 38 is_stmt 0 view .LVU443
 1439 0794 2968     		ldr	r1, [r5]
 420:Middlewares/lvgl/src/extra/themes/mono/lv_theme_mono.c ****         lv_obj_add_style(obj, &styles->large_border, LV_PART_ITEMS | LV_STATE_FOCUS_KEY);
 1440              		.loc 1 420 9 view .LVU444
 1441 0796 0822     		movs	r2, #8
 1442 0798 4031     		adds	r1, r1, #64
 1443 079a 2046     		mov	r0, r4
 1444 079c FFF7FEFF 		bl	lv_obj_add_style
 1445              	.LVL159:
 421:Middlewares/lvgl/src/extra/themes/mono/lv_theme_mono.c ****     }
 1446              		.loc 1 421 9 is_stmt 1 view .LVU445
 421:Middlewares/lvgl/src/extra/themes/mono/lv_theme_mono.c ****     }
 1447              		.loc 1 421 38 is_stmt 0 view .LVU446
 1448 07a0 2968     		ldr	r1, [r5]
 421:Middlewares/lvgl/src/extra/themes/mono/lv_theme_mono.c ****     }
 1449              		.loc 1 421 9 view .LVU447
 1450 07a2 734A     		ldr	r2, .L46+32
 1451 07a4 6831     		adds	r1, r1, #104
 1452 07a6 2046     		mov	r0, r4
 1453 07a8 FFF7FEFF 		bl	lv_obj_add_style
 1454              	.LVL160:
 1455 07ac 3CE4     		b	.L1
 1456              	.L24:
 426:Middlewares/lvgl/src/extra/themes/mono/lv_theme_mono.c ****         lv_obj_add_style(obj, &styles->card, 0);
 1457              		.loc 1 426 10 is_stmt 1 view .LVU448
 426:Middlewares/lvgl/src/extra/themes/mono/lv_theme_mono.c ****         lv_obj_add_style(obj, &styles->card, 0);
 1458              		.loc 1 426 13 is_stmt 0 view .LVU449
 1459 07ae 7149     		ldr	r1, .L46+36
 1460 07b0 2046     		mov	r0, r4
 1461 07b2 FFF7FEFF 		bl	lv_obj_check_type
 1462              	.LVL161:
 426:Middlewares/lvgl/src/extra/themes/mono/lv_theme_mono.c ****         lv_obj_add_style(obj, &styles->card, 0);
 1463              		.loc 1 426 12 view .LVU450
 1464 07b6 60B3     		cbz	r0, .L25
 427:Middlewares/lvgl/src/extra/themes/mono/lv_theme_mono.c ****         lv_obj_add_style(obj, &styles->card, LV_PART_ITEMS);
 1465              		.loc 1 427 9 is_stmt 1 view .LVU451
 427:Middlewares/lvgl/src/extra/themes/mono/lv_theme_mono.c ****         lv_obj_add_style(obj, &styles->card, LV_PART_ITEMS);
 1466              		.loc 1 427 38 is_stmt 0 view .LVU452
 1467 07b8 664D     		ldr	r5, .L46+4
 1468 07ba 2968     		ldr	r1, [r5]
 427:Middlewares/lvgl/src/extra/themes/mono/lv_theme_mono.c ****         lv_obj_add_style(obj, &styles->card, LV_PART_ITEMS);
 1469              		.loc 1 427 9 view .LVU453
 1470 07bc 0022     		movs	r2, #0
 1471 07be 0831     		adds	r1, r1, #8
 1472 07c0 2046     		mov	r0, r4
 1473 07c2 FFF7FEFF 		bl	lv_obj_add_style
 1474              	.LVL162:
 428:Middlewares/lvgl/src/extra/themes/mono/lv_theme_mono.c ****         lv_obj_add_style(obj, &styles->pr, LV_PART_ITEMS | LV_STATE_PRESSED);
 1475              		.loc 1 428 9 is_stmt 1 view .LVU454
ARM GAS  /tmp/ccFxGgVE.s 			page 43


 428:Middlewares/lvgl/src/extra/themes/mono/lv_theme_mono.c ****         lv_obj_add_style(obj, &styles->pr, LV_PART_ITEMS | LV_STATE_PRESSED);
 1476              		.loc 1 428 38 is_stmt 0 view .LVU455
 1477 07c6 2968     		ldr	r1, [r5]
 428:Middlewares/lvgl/src/extra/themes/mono/lv_theme_mono.c ****         lv_obj_add_style(obj, &styles->pr, LV_PART_ITEMS | LV_STATE_PRESSED);
 1478              		.loc 1 428 9 view .LVU456
 1479 07c8 4FF4A022 		mov	r2, #327680
 1480 07cc 0831     		adds	r1, r1, #8
 1481 07ce 2046     		mov	r0, r4
 1482 07d0 FFF7FEFF 		bl	lv_obj_add_style
 1483              	.LVL163:
 429:Middlewares/lvgl/src/extra/themes/mono/lv_theme_mono.c ****         lv_obj_add_style(obj, &styles->inv, LV_PART_ITEMS | LV_STATE_CHECKED);
 1484              		.loc 1 429 9 is_stmt 1 view .LVU457
 429:Middlewares/lvgl/src/extra/themes/mono/lv_theme_mono.c ****         lv_obj_add_style(obj, &styles->inv, LV_PART_ITEMS | LV_STATE_CHECKED);
 1485              		.loc 1 429 38 is_stmt 0 view .LVU458
 1486 07d4 2968     		ldr	r1, [r5]
 429:Middlewares/lvgl/src/extra/themes/mono/lv_theme_mono.c ****         lv_obj_add_style(obj, &styles->inv, LV_PART_ITEMS | LV_STATE_CHECKED);
 1487              		.loc 1 429 9 view .LVU459
 1488 07d6 644A     		ldr	r2, .L46+24
 1489 07d8 2031     		adds	r1, r1, #32
 1490 07da 2046     		mov	r0, r4
 1491 07dc FFF7FEFF 		bl	lv_obj_add_style
 1492              	.LVL164:
 430:Middlewares/lvgl/src/extra/themes/mono/lv_theme_mono.c ****         lv_obj_add_style(obj, &styles->focus, LV_STATE_FOCUS_KEY);
 1493              		.loc 1 430 9 is_stmt 1 view .LVU460
 430:Middlewares/lvgl/src/extra/themes/mono/lv_theme_mono.c ****         lv_obj_add_style(obj, &styles->focus, LV_STATE_FOCUS_KEY);
 1494              		.loc 1 430 38 is_stmt 0 view .LVU461
 1495 07e0 2968     		ldr	r1, [r5]
 430:Middlewares/lvgl/src/extra/themes/mono/lv_theme_mono.c ****         lv_obj_add_style(obj, &styles->focus, LV_STATE_FOCUS_KEY);
 1496              		.loc 1 430 9 view .LVU462
 1497 07e2 654A     		ldr	r2, .L46+40
 1498 07e4 2831     		adds	r1, r1, #40
 1499 07e6 2046     		mov	r0, r4
 1500 07e8 FFF7FEFF 		bl	lv_obj_add_style
 1501              	.LVL165:
 431:Middlewares/lvgl/src/extra/themes/mono/lv_theme_mono.c ****         lv_obj_add_style(obj, &styles->edit, LV_STATE_EDITED);
 1502              		.loc 1 431 9 is_stmt 1 view .LVU463
 431:Middlewares/lvgl/src/extra/themes/mono/lv_theme_mono.c ****         lv_obj_add_style(obj, &styles->edit, LV_STATE_EDITED);
 1503              		.loc 1 431 38 is_stmt 0 view .LVU464
 1504 07ec 2968     		ldr	r1, [r5]
 431:Middlewares/lvgl/src/extra/themes/mono/lv_theme_mono.c ****         lv_obj_add_style(obj, &styles->edit, LV_STATE_EDITED);
 1505              		.loc 1 431 9 view .LVU465
 1506 07ee 0422     		movs	r2, #4
 1507 07f0 3831     		adds	r1, r1, #56
 1508 07f2 2046     		mov	r0, r4
 1509 07f4 FFF7FEFF 		bl	lv_obj_add_style
 1510              	.LVL166:
 432:Middlewares/lvgl/src/extra/themes/mono/lv_theme_mono.c ****         lv_obj_add_style(obj, &styles->large_border, LV_PART_ITEMS | LV_STATE_EDITED);
 1511              		.loc 1 432 9 is_stmt 1 view .LVU466
 432:Middlewares/lvgl/src/extra/themes/mono/lv_theme_mono.c ****         lv_obj_add_style(obj, &styles->large_border, LV_PART_ITEMS | LV_STATE_EDITED);
 1512              		.loc 1 432 38 is_stmt 0 view .LVU467
 1513 07f8 2968     		ldr	r1, [r5]
 432:Middlewares/lvgl/src/extra/themes/mono/lv_theme_mono.c ****         lv_obj_add_style(obj, &styles->large_border, LV_PART_ITEMS | LV_STATE_EDITED);
 1514              		.loc 1 432 9 view .LVU468
 1515 07fa 0822     		movs	r2, #8
 1516 07fc 4031     		adds	r1, r1, #64
 1517 07fe 2046     		mov	r0, r4
 1518 0800 FFF7FEFF 		bl	lv_obj_add_style
ARM GAS  /tmp/ccFxGgVE.s 			page 44


 1519              	.LVL167:
 433:Middlewares/lvgl/src/extra/themes/mono/lv_theme_mono.c ****     }
 1520              		.loc 1 433 9 is_stmt 1 view .LVU469
 433:Middlewares/lvgl/src/extra/themes/mono/lv_theme_mono.c ****     }
 1521              		.loc 1 433 38 is_stmt 0 view .LVU470
 1522 0804 2968     		ldr	r1, [r5]
 433:Middlewares/lvgl/src/extra/themes/mono/lv_theme_mono.c ****     }
 1523              		.loc 1 433 9 view .LVU471
 1524 0806 5D4A     		ldr	r2, .L46+44
 1525 0808 6831     		adds	r1, r1, #104
 1526 080a 2046     		mov	r0, r4
 1527 080c FFF7FEFF 		bl	lv_obj_add_style
 1528              	.LVL168:
 1529 0810 0AE4     		b	.L1
 1530              	.L25:
 437:Middlewares/lvgl/src/extra/themes/mono/lv_theme_mono.c ****         lv_obj_add_style(obj, &styles->card, 0);
 1531              		.loc 1 437 10 is_stmt 1 view .LVU472
 437:Middlewares/lvgl/src/extra/themes/mono/lv_theme_mono.c ****         lv_obj_add_style(obj, &styles->card, 0);
 1532              		.loc 1 437 13 is_stmt 0 view .LVU473
 1533 0812 5B49     		ldr	r1, .L46+48
 1534 0814 2046     		mov	r0, r4
 1535 0816 FFF7FEFF 		bl	lv_obj_check_type
 1536              	.LVL169:
 437:Middlewares/lvgl/src/extra/themes/mono/lv_theme_mono.c ****         lv_obj_add_style(obj, &styles->card, 0);
 1537              		.loc 1 437 12 view .LVU474
 1538 081a 30BB     		cbnz	r0, .L40
 442:Middlewares/lvgl/src/extra/themes/mono/lv_theme_mono.c **** 
 1539              		.loc 1 442 10 is_stmt 1 view .LVU475
 442:Middlewares/lvgl/src/extra/themes/mono/lv_theme_mono.c **** 
 1540              		.loc 1 442 13 is_stmt 0 view .LVU476
 1541 081c 5949     		ldr	r1, .L46+52
 1542 081e 2046     		mov	r0, r4
 1543 0820 FFF7FEFF 		bl	lv_obj_check_type
 1544              	.LVL170:
 442:Middlewares/lvgl/src/extra/themes/mono/lv_theme_mono.c **** 
 1545              		.loc 1 442 12 view .LVU477
 1546 0824 0028     		cmp	r0, #0
 1547 0826 7FF4FFAB 		bne	.L1
 445:Middlewares/lvgl/src/extra/themes/mono/lv_theme_mono.c ****         lv_obj_add_style(obj, &styles->card, 0);
 1548              		.loc 1 445 10 is_stmt 1 view .LVU478
 445:Middlewares/lvgl/src/extra/themes/mono/lv_theme_mono.c ****         lv_obj_add_style(obj, &styles->card, 0);
 1549              		.loc 1 445 13 is_stmt 0 view .LVU479
 1550 082a 5749     		ldr	r1, .L46+56
 1551 082c 2046     		mov	r0, r4
 1552 082e FFF7FEFF 		bl	lv_obj_check_type
 1553              	.LVL171:
 445:Middlewares/lvgl/src/extra/themes/mono/lv_theme_mono.c ****         lv_obj_add_style(obj, &styles->card, 0);
 1554              		.loc 1 445 12 view .LVU480
 1555 0832 50B3     		cbz	r0, .L27
 446:Middlewares/lvgl/src/extra/themes/mono/lv_theme_mono.c ****         lv_obj_add_style(obj, &styles->pr, LV_STATE_PRESSED);
 1556              		.loc 1 446 9 is_stmt 1 view .LVU481
 446:Middlewares/lvgl/src/extra/themes/mono/lv_theme_mono.c ****         lv_obj_add_style(obj, &styles->pr, LV_STATE_PRESSED);
 1557              		.loc 1 446 38 is_stmt 0 view .LVU482
 1558 0834 474D     		ldr	r5, .L46+4
 1559 0836 2968     		ldr	r1, [r5]
 446:Middlewares/lvgl/src/extra/themes/mono/lv_theme_mono.c ****         lv_obj_add_style(obj, &styles->pr, LV_STATE_PRESSED);
 1560              		.loc 1 446 9 view .LVU483
ARM GAS  /tmp/ccFxGgVE.s 			page 45


 1561 0838 0022     		movs	r2, #0
 1562 083a 0831     		adds	r1, r1, #8
 1563 083c 2046     		mov	r0, r4
 1564 083e FFF7FEFF 		bl	lv_obj_add_style
 1565              	.LVL172:
 447:Middlewares/lvgl/src/extra/themes/mono/lv_theme_mono.c ****         lv_obj_add_style(obj, &styles->focus, LV_STATE_FOCUS_KEY);
 1566              		.loc 1 447 9 is_stmt 1 view .LVU484
 447:Middlewares/lvgl/src/extra/themes/mono/lv_theme_mono.c ****         lv_obj_add_style(obj, &styles->focus, LV_STATE_FOCUS_KEY);
 1567              		.loc 1 447 38 is_stmt 0 view .LVU485
 1568 0842 2968     		ldr	r1, [r5]
 447:Middlewares/lvgl/src/extra/themes/mono/lv_theme_mono.c ****         lv_obj_add_style(obj, &styles->focus, LV_STATE_FOCUS_KEY);
 1569              		.loc 1 447 9 view .LVU486
 1570 0844 2022     		movs	r2, #32
 1571 0846 1144     		add	r1, r1, r2
 1572 0848 2046     		mov	r0, r4
 1573 084a FFF7FEFF 		bl	lv_obj_add_style
 1574              	.LVL173:
 448:Middlewares/lvgl/src/extra/themes/mono/lv_theme_mono.c ****         lv_obj_add_style(obj, &styles->large_border, LV_STATE_EDITED);
 1575              		.loc 1 448 9 is_stmt 1 view .LVU487
 448:Middlewares/lvgl/src/extra/themes/mono/lv_theme_mono.c ****         lv_obj_add_style(obj, &styles->large_border, LV_STATE_EDITED);
 1576              		.loc 1 448 38 is_stmt 0 view .LVU488
 1577 084e 2968     		ldr	r1, [r5]
 448:Middlewares/lvgl/src/extra/themes/mono/lv_theme_mono.c ****         lv_obj_add_style(obj, &styles->large_border, LV_STATE_EDITED);
 1578              		.loc 1 448 9 view .LVU489
 1579 0850 0422     		movs	r2, #4
 1580 0852 3831     		adds	r1, r1, #56
 1581 0854 2046     		mov	r0, r4
 1582 0856 FFF7FEFF 		bl	lv_obj_add_style
 1583              	.LVL174:
 449:Middlewares/lvgl/src/extra/themes/mono/lv_theme_mono.c **** 
 1584              		.loc 1 449 9 is_stmt 1 view .LVU490
 449:Middlewares/lvgl/src/extra/themes/mono/lv_theme_mono.c **** 
 1585              		.loc 1 449 38 is_stmt 0 view .LVU491
 1586 085a 2968     		ldr	r1, [r5]
 449:Middlewares/lvgl/src/extra/themes/mono/lv_theme_mono.c **** 
 1587              		.loc 1 449 9 view .LVU492
 1588 085c 0822     		movs	r2, #8
 1589 085e 6831     		adds	r1, r1, #104
 1590 0860 2046     		mov	r0, r4
 1591 0862 FFF7FEFF 		bl	lv_obj_add_style
 1592              	.LVL175:
 1593 0866 FFF7DFBB 		b	.L1
 1594              	.L40:
 438:Middlewares/lvgl/src/extra/themes/mono/lv_theme_mono.c ****         lv_obj_add_style(obj, &styles->scrollbar, LV_PART_SCROLLBAR);
 1595              		.loc 1 438 9 is_stmt 1 view .LVU493
 438:Middlewares/lvgl/src/extra/themes/mono/lv_theme_mono.c ****         lv_obj_add_style(obj, &styles->scrollbar, LV_PART_SCROLLBAR);
 1596              		.loc 1 438 38 is_stmt 0 view .LVU494
 1597 086a 3A4D     		ldr	r5, .L46+4
 1598 086c 2968     		ldr	r1, [r5]
 438:Middlewares/lvgl/src/extra/themes/mono/lv_theme_mono.c ****         lv_obj_add_style(obj, &styles->scrollbar, LV_PART_SCROLLBAR);
 1599              		.loc 1 438 9 view .LVU495
 1600 086e 0022     		movs	r2, #0
 1601 0870 0831     		adds	r1, r1, #8
 1602 0872 2046     		mov	r0, r4
 1603 0874 FFF7FEFF 		bl	lv_obj_add_style
 1604              	.LVL176:
 439:Middlewares/lvgl/src/extra/themes/mono/lv_theme_mono.c ****         return;
ARM GAS  /tmp/ccFxGgVE.s 			page 46


 1605              		.loc 1 439 9 is_stmt 1 view .LVU496
 439:Middlewares/lvgl/src/extra/themes/mono/lv_theme_mono.c ****         return;
 1606              		.loc 1 439 38 is_stmt 0 view .LVU497
 1607 0878 2968     		ldr	r1, [r5]
 439:Middlewares/lvgl/src/extra/themes/mono/lv_theme_mono.c ****         return;
 1608              		.loc 1 439 9 view .LVU498
 1609 087a 4FF48032 		mov	r2, #65536
 1610 087e 1031     		adds	r1, r1, #16
 1611 0880 2046     		mov	r0, r4
 1612 0882 FFF7FEFF 		bl	lv_obj_add_style
 1613              	.LVL177:
 440:Middlewares/lvgl/src/extra/themes/mono/lv_theme_mono.c ****     }
 1614              		.loc 1 440 9 is_stmt 1 view .LVU499
 1615 0886 FFF7CFBB 		b	.L1
 1616              	.L27:
 454:Middlewares/lvgl/src/extra/themes/mono/lv_theme_mono.c ****         lv_obj_add_style(obj, &styles->card, 0);
 1617              		.loc 1 454 10 view .LVU500
 454:Middlewares/lvgl/src/extra/themes/mono/lv_theme_mono.c ****         lv_obj_add_style(obj, &styles->card, 0);
 1618              		.loc 1 454 13 is_stmt 0 view .LVU501
 1619 088a 4049     		ldr	r1, .L46+60
 1620 088c 2046     		mov	r0, r4
 1621 088e FFF7FEFF 		bl	lv_obj_check_type
 1622              	.LVL178:
 454:Middlewares/lvgl/src/extra/themes/mono/lv_theme_mono.c ****         lv_obj_add_style(obj, &styles->card, 0);
 1623              		.loc 1 454 12 view .LVU502
 1624 0892 00BB     		cbnz	r0, .L41
 460:Middlewares/lvgl/src/extra/themes/mono/lv_theme_mono.c ****         lv_obj_add_style(obj, &styles->card, 0);
 1625              		.loc 1 460 10 is_stmt 1 view .LVU503
 460:Middlewares/lvgl/src/extra/themes/mono/lv_theme_mono.c ****         lv_obj_add_style(obj, &styles->card, 0);
 1626              		.loc 1 460 13 is_stmt 0 view .LVU504
 1627 0894 3E49     		ldr	r1, .L46+64
 1628 0896 2046     		mov	r0, r4
 1629 0898 FFF7FEFF 		bl	lv_obj_check_type
 1630              	.LVL179:
 460:Middlewares/lvgl/src/extra/themes/mono/lv_theme_mono.c ****         lv_obj_add_style(obj, &styles->card, 0);
 1631              		.loc 1 460 12 view .LVU505
 1632 089c 20B3     		cbz	r0, .L29
 461:Middlewares/lvgl/src/extra/themes/mono/lv_theme_mono.c ****         lv_obj_add_style(obj, &styles->inv, LV_PART_CURSOR);
 1633              		.loc 1 461 9 is_stmt 1 view .LVU506
 461:Middlewares/lvgl/src/extra/themes/mono/lv_theme_mono.c ****         lv_obj_add_style(obj, &styles->inv, LV_PART_CURSOR);
 1634              		.loc 1 461 38 is_stmt 0 view .LVU507
 1635 089e 2D4D     		ldr	r5, .L46+4
 1636 08a0 2968     		ldr	r1, [r5]
 461:Middlewares/lvgl/src/extra/themes/mono/lv_theme_mono.c ****         lv_obj_add_style(obj, &styles->inv, LV_PART_CURSOR);
 1637              		.loc 1 461 9 view .LVU508
 1638 08a2 0022     		movs	r2, #0
 1639 08a4 0831     		adds	r1, r1, #8
 1640 08a6 2046     		mov	r0, r4
 1641 08a8 FFF7FEFF 		bl	lv_obj_add_style
 1642              	.LVL180:
 462:Middlewares/lvgl/src/extra/themes/mono/lv_theme_mono.c ****         lv_obj_add_style(obj, &styles->focus, LV_STATE_FOCUS_KEY);
 1643              		.loc 1 462 9 is_stmt 1 view .LVU509
 462:Middlewares/lvgl/src/extra/themes/mono/lv_theme_mono.c ****         lv_obj_add_style(obj, &styles->focus, LV_STATE_FOCUS_KEY);
 1644              		.loc 1 462 38 is_stmt 0 view .LVU510
 1645 08ac 2968     		ldr	r1, [r5]
 462:Middlewares/lvgl/src/extra/themes/mono/lv_theme_mono.c ****         lv_obj_add_style(obj, &styles->focus, LV_STATE_FOCUS_KEY);
 1646              		.loc 1 462 9 view .LVU511
ARM GAS  /tmp/ccFxGgVE.s 			page 47


 1647 08ae 4FF4E022 		mov	r2, #458752
 1648 08b2 2831     		adds	r1, r1, #40
 1649 08b4 2046     		mov	r0, r4
 1650 08b6 FFF7FEFF 		bl	lv_obj_add_style
 1651              	.LVL181:
 463:Middlewares/lvgl/src/extra/themes/mono/lv_theme_mono.c ****         lv_obj_add_style(obj, &styles->edit, LV_STATE_EDITED);
 1652              		.loc 1 463 9 is_stmt 1 view .LVU512
 463:Middlewares/lvgl/src/extra/themes/mono/lv_theme_mono.c ****         lv_obj_add_style(obj, &styles->edit, LV_STATE_EDITED);
 1653              		.loc 1 463 38 is_stmt 0 view .LVU513
 1654 08ba 2968     		ldr	r1, [r5]
 463:Middlewares/lvgl/src/extra/themes/mono/lv_theme_mono.c ****         lv_obj_add_style(obj, &styles->edit, LV_STATE_EDITED);
 1655              		.loc 1 463 9 view .LVU514
 1656 08bc 0422     		movs	r2, #4
 1657 08be 3831     		adds	r1, r1, #56
 1658 08c0 2046     		mov	r0, r4
 1659 08c2 FFF7FEFF 		bl	lv_obj_add_style
 1660              	.LVL182:
 464:Middlewares/lvgl/src/extra/themes/mono/lv_theme_mono.c ****     }
 1661              		.loc 1 464 9 is_stmt 1 view .LVU515
 464:Middlewares/lvgl/src/extra/themes/mono/lv_theme_mono.c ****     }
 1662              		.loc 1 464 38 is_stmt 0 view .LVU516
 1663 08c6 2968     		ldr	r1, [r5]
 464:Middlewares/lvgl/src/extra/themes/mono/lv_theme_mono.c ****     }
 1664              		.loc 1 464 9 view .LVU517
 1665 08c8 0822     		movs	r2, #8
 1666 08ca 4031     		adds	r1, r1, #64
 1667 08cc 2046     		mov	r0, r4
 1668 08ce FFF7FEFF 		bl	lv_obj_add_style
 1669              	.LVL183:
 1670 08d2 FFF7A9BB 		b	.L1
 1671              	.L41:
 455:Middlewares/lvgl/src/extra/themes/mono/lv_theme_mono.c ****         return;
 1672              		.loc 1 455 9 is_stmt 1 view .LVU518
 455:Middlewares/lvgl/src/extra/themes/mono/lv_theme_mono.c ****         return;
 1673              		.loc 1 455 38 is_stmt 0 view .LVU519
 1674 08d6 1F4B     		ldr	r3, .L46+4
 1675 08d8 1968     		ldr	r1, [r3]
 455:Middlewares/lvgl/src/extra/themes/mono/lv_theme_mono.c ****         return;
 1676              		.loc 1 455 9 view .LVU520
 1677 08da 0022     		movs	r2, #0
 1678 08dc 0831     		adds	r1, r1, #8
 1679 08de 2046     		mov	r0, r4
 1680 08e0 FFF7FEFF 		bl	lv_obj_add_style
 1681              	.LVL184:
 456:Middlewares/lvgl/src/extra/themes/mono/lv_theme_mono.c ****     }
 1682              		.loc 1 456 9 is_stmt 1 view .LVU521
 1683 08e4 FFF7A0BB 		b	.L1
 1684              	.L29:
 468:Middlewares/lvgl/src/extra/themes/mono/lv_theme_mono.c ****         lv_obj_add_style(obj, &styles->scr, 0);
 1685              		.loc 1 468 10 view .LVU522
 468:Middlewares/lvgl/src/extra/themes/mono/lv_theme_mono.c ****         lv_obj_add_style(obj, &styles->scr, 0);
 1686              		.loc 1 468 13 is_stmt 0 view .LVU523
 1687 08e8 2A49     		ldr	r1, .L46+68
 1688 08ea 2046     		mov	r0, r4
 1689 08ec FFF7FEFF 		bl	lv_obj_check_type
 1690              	.LVL185:
 468:Middlewares/lvgl/src/extra/themes/mono/lv_theme_mono.c ****         lv_obj_add_style(obj, &styles->scr, 0);
ARM GAS  /tmp/ccFxGgVE.s 			page 48


 1691              		.loc 1 468 12 view .LVU524
 1692 08f0 70B1     		cbz	r0, .L30
 469:Middlewares/lvgl/src/extra/themes/mono/lv_theme_mono.c ****         lv_obj_add_style(obj, &styles->scrollbar, LV_PART_SCROLLBAR);
 1693              		.loc 1 469 9 is_stmt 1 view .LVU525
 469:Middlewares/lvgl/src/extra/themes/mono/lv_theme_mono.c ****         lv_obj_add_style(obj, &styles->scrollbar, LV_PART_SCROLLBAR);
 1694              		.loc 1 469 38 is_stmt 0 view .LVU526
 1695 08f2 184D     		ldr	r5, .L46+4
 469:Middlewares/lvgl/src/extra/themes/mono/lv_theme_mono.c ****         lv_obj_add_style(obj, &styles->scrollbar, LV_PART_SCROLLBAR);
 1696              		.loc 1 469 9 view .LVU527
 1697 08f4 0022     		movs	r2, #0
 1698 08f6 2968     		ldr	r1, [r5]
 1699 08f8 2046     		mov	r0, r4
 1700 08fa FFF7FEFF 		bl	lv_obj_add_style
 1701              	.LVL186:
 470:Middlewares/lvgl/src/extra/themes/mono/lv_theme_mono.c ****     }
 1702              		.loc 1 470 9 is_stmt 1 view .LVU528
 470:Middlewares/lvgl/src/extra/themes/mono/lv_theme_mono.c ****     }
 1703              		.loc 1 470 38 is_stmt 0 view .LVU529
 1704 08fe 2968     		ldr	r1, [r5]
 470:Middlewares/lvgl/src/extra/themes/mono/lv_theme_mono.c ****     }
 1705              		.loc 1 470 9 view .LVU530
 1706 0900 4FF48032 		mov	r2, #65536
 1707 0904 1031     		adds	r1, r1, #16
 1708 0906 2046     		mov	r0, r4
 1709 0908 FFF7FEFF 		bl	lv_obj_add_style
 1710              	.LVL187:
 1711 090c FFF78CBB 		b	.L1
 1712              	.L30:
 472:Middlewares/lvgl/src/extra/themes/mono/lv_theme_mono.c ****         lv_obj_add_style(obj, &styles->scrollbar, LV_PART_SCROLLBAR);
 1713              		.loc 1 472 10 is_stmt 1 view .LVU531
 472:Middlewares/lvgl/src/extra/themes/mono/lv_theme_mono.c ****         lv_obj_add_style(obj, &styles->scrollbar, LV_PART_SCROLLBAR);
 1714              		.loc 1 472 13 is_stmt 0 view .LVU532
 1715 0910 2149     		ldr	r1, .L46+72
 1716 0912 2046     		mov	r0, r4
 1717 0914 FFF7FEFF 		bl	lv_obj_check_type
 1718              	.LVL188:
 472:Middlewares/lvgl/src/extra/themes/mono/lv_theme_mono.c ****         lv_obj_add_style(obj, &styles->scrollbar, LV_PART_SCROLLBAR);
 1719              		.loc 1 472 12 view .LVU533
 1720 0918 48B1     		cbz	r0, .L31
 473:Middlewares/lvgl/src/extra/themes/mono/lv_theme_mono.c ****     }
 1721              		.loc 1 473 9 is_stmt 1 view .LVU534
 473:Middlewares/lvgl/src/extra/themes/mono/lv_theme_mono.c ****     }
 1722              		.loc 1 473 38 is_stmt 0 view .LVU535
 1723 091a 0E4B     		ldr	r3, .L46+4
 1724 091c 1968     		ldr	r1, [r3]
 473:Middlewares/lvgl/src/extra/themes/mono/lv_theme_mono.c ****     }
 1725              		.loc 1 473 9 view .LVU536
 1726 091e 4FF48032 		mov	r2, #65536
 1727 0922 1031     		adds	r1, r1, #16
 1728 0924 2046     		mov	r0, r4
 1729 0926 FFF7FEFF 		bl	lv_obj_add_style
 1730              	.LVL189:
 1731 092a FFF77DBB 		b	.L1
 1732              	.L31:
 478:Middlewares/lvgl/src/extra/themes/mono/lv_theme_mono.c ****             lv_obj_add_style(obj, &styles->card, 0);
 1733              		.loc 1 478 10 is_stmt 1 view .LVU537
 478:Middlewares/lvgl/src/extra/themes/mono/lv_theme_mono.c ****             lv_obj_add_style(obj, &styles->card, 0);
ARM GAS  /tmp/ccFxGgVE.s 			page 49


 1734              		.loc 1 478 13 is_stmt 0 view .LVU538
 1735 092e 1B49     		ldr	r1, .L46+76
 1736 0930 2046     		mov	r0, r4
 1737 0932 FFF7FEFF 		bl	lv_obj_check_type
 1738              	.LVL190:
 478:Middlewares/lvgl/src/extra/themes/mono/lv_theme_mono.c ****             lv_obj_add_style(obj, &styles->card, 0);
 1739              		.loc 1 478 12 view .LVU539
 1740 0936 0028     		cmp	r0, #0
 1741 0938 3FF476AB 		beq	.L1
 479:Middlewares/lvgl/src/extra/themes/mono/lv_theme_mono.c ****         }
 1742              		.loc 1 479 13 is_stmt 1 view .LVU540
 479:Middlewares/lvgl/src/extra/themes/mono/lv_theme_mono.c ****         }
 1743              		.loc 1 479 42 is_stmt 0 view .LVU541
 1744 093c 054B     		ldr	r3, .L46+4
 1745 093e 1968     		ldr	r1, [r3]
 479:Middlewares/lvgl/src/extra/themes/mono/lv_theme_mono.c ****         }
 1746              		.loc 1 479 13 view .LVU542
 1747 0940 0022     		movs	r2, #0
 1748 0942 0831     		adds	r1, r1, #8
 1749 0944 2046     		mov	r0, r4
 1750 0946 FFF7FEFF 		bl	lv_obj_add_style
 1751              	.LVL191:
 1752 094a FFF76DBB 		b	.L1
 1753              	.L47:
 1754 094e 00BF     		.align	2
 1755              	.L46:
 1756 0950 00000000 		.word	lv_arc_class
 1757 0954 00000000 		.word	.LANCHOR0
 1758 0958 00000000 		.word	lv_meter_class
 1759 095c 00000000 		.word	lv_textarea_class
 1760 0960 02000700 		.word	458754
 1761 0964 00000000 		.word	lv_calendar_class
 1762 0968 20000500 		.word	327712
 1763 096c 80000500 		.word	327808
 1764 0970 04000500 		.word	327684
 1765 0974 00000000 		.word	lv_keyboard_class
 1766 0978 01000500 		.word	327681
 1767 097c 08000500 		.word	327688
 1768 0980 00000000 		.word	lv_list_class
 1769 0984 00000000 		.word	lv_list_text_class
 1770 0988 00000000 		.word	lv_list_btn_class
 1771 098c 00000000 		.word	lv_msgbox_class
 1772 0990 00000000 		.word	lv_spinbox_class
 1773 0994 00000000 		.word	lv_tileview_class
 1774 0998 00000000 		.word	lv_tileview_tile_class
 1775 099c 00000000 		.word	lv_led_class
 1776              		.cfi_endproc
 1777              	.LFE186:
 1779              		.section	.text.style_init_reset,"ax",%progbits
 1780              		.align	1
 1781              		.syntax unified
 1782              		.thumb
 1783              		.thumb_func
 1784              		.fpu fpv5-d16
 1786              	style_init_reset:
 1787              	.LVL192:
 1788              	.LFB187:
ARM GAS  /tmp/ccFxGgVE.s 			page 50


 483:Middlewares/lvgl/src/extra/themes/mono/lv_theme_mono.c **** 
 484:Middlewares/lvgl/src/extra/themes/mono/lv_theme_mono.c **** /**********************
 485:Middlewares/lvgl/src/extra/themes/mono/lv_theme_mono.c ****  *   STATIC FUNCTIONS
 486:Middlewares/lvgl/src/extra/themes/mono/lv_theme_mono.c ****  **********************/
 487:Middlewares/lvgl/src/extra/themes/mono/lv_theme_mono.c **** 
 488:Middlewares/lvgl/src/extra/themes/mono/lv_theme_mono.c **** static void style_init_reset(lv_style_t * style)
 489:Middlewares/lvgl/src/extra/themes/mono/lv_theme_mono.c **** {
 1789              		.loc 1 489 1 is_stmt 1 view -0
 1790              		.cfi_startproc
 1791              		@ args = 0, pretend = 0, frame = 0
 1792              		@ frame_needed = 0, uses_anonymous_args = 0
 1793              		.loc 1 489 1 is_stmt 0 view .LVU544
 1794 0000 08B5     		push	{r3, lr}
 1795              	.LCFI1:
 1796              		.cfi_def_cfa_offset 8
 1797              		.cfi_offset 3, -8
 1798              		.cfi_offset 14, -4
 490:Middlewares/lvgl/src/extra/themes/mono/lv_theme_mono.c ****     if(inited) lv_style_reset(style);
 1799              		.loc 1 490 5 is_stmt 1 view .LVU545
 1800              		.loc 1 490 8 is_stmt 0 view .LVU546
 1801 0002 044B     		ldr	r3, .L52
 1802 0004 1B78     		ldrb	r3, [r3]	@ zero_extendqisi2
 1803              		.loc 1 490 7 view .LVU547
 1804 0006 13B1     		cbz	r3, .L49
 1805              		.loc 1 490 16 is_stmt 1 discriminator 1 view .LVU548
 1806 0008 FFF7FEFF 		bl	lv_style_reset
 1807              	.LVL193:
 1808              	.L48:
 491:Middlewares/lvgl/src/extra/themes/mono/lv_theme_mono.c ****     else lv_style_init(style);
 492:Middlewares/lvgl/src/extra/themes/mono/lv_theme_mono.c **** }
 1809              		.loc 1 492 1 is_stmt 0 view .LVU549
 1810 000c 08BD     		pop	{r3, pc}
 1811              	.LVL194:
 1812              	.L49:
 491:Middlewares/lvgl/src/extra/themes/mono/lv_theme_mono.c ****     else lv_style_init(style);
 1813              		.loc 1 491 10 is_stmt 1 view .LVU550
 1814 000e FFF7FEFF 		bl	lv_style_init
 1815              	.LVL195:
 1816              		.loc 1 492 1 is_stmt 0 view .LVU551
 1817 0012 FBE7     		b	.L48
 1818              	.L53:
 1819              		.align	2
 1820              	.L52:
 1821 0014 00000000 		.word	.LANCHOR1
 1822              		.cfi_endproc
 1823              	.LFE187:
 1825              		.section	.text.style_init,"ax",%progbits
 1826              		.align	1
 1827              		.syntax unified
 1828              		.thumb
 1829              		.thumb_func
 1830              		.fpu fpv5-d16
 1832              	style_init:
 1833              	.LVL196:
 1834              	.LFB184:
  78:Middlewares/lvgl/src/extra/themes/mono/lv_theme_mono.c ****     style_init_reset(&styles->scrollbar);
 1835              		.loc 1 78 1 is_stmt 1 view -0
ARM GAS  /tmp/ccFxGgVE.s 			page 51


 1836              		.cfi_startproc
 1837              		@ args = 0, pretend = 0, frame = 0
 1838              		@ frame_needed = 0, uses_anonymous_args = 0
  78:Middlewares/lvgl/src/extra/themes/mono/lv_theme_mono.c ****     style_init_reset(&styles->scrollbar);
 1839              		.loc 1 78 1 is_stmt 0 view .LVU553
 1840 0000 70B5     		push	{r4, r5, r6, lr}
 1841              	.LCFI2:
 1842              		.cfi_def_cfa_offset 16
 1843              		.cfi_offset 4, -16
 1844              		.cfi_offset 5, -12
 1845              		.cfi_offset 6, -8
 1846              		.cfi_offset 14, -4
 1847 0002 0546     		mov	r5, r0
 1848 0004 0E46     		mov	r6, r1
  79:Middlewares/lvgl/src/extra/themes/mono/lv_theme_mono.c ****     lv_style_set_bg_opa(&styles->scrollbar, LV_OPA_COVER);
 1849              		.loc 1 79 5 is_stmt 1 view .LVU554
  79:Middlewares/lvgl/src/extra/themes/mono/lv_theme_mono.c ****     lv_style_set_bg_opa(&styles->scrollbar, LV_OPA_COVER);
 1850              		.loc 1 79 29 is_stmt 0 view .LVU555
 1851 0006 CE4C     		ldr	r4, .L88
 1852 0008 2068     		ldr	r0, [r4]
 1853              	.LVL197:
  79:Middlewares/lvgl/src/extra/themes/mono/lv_theme_mono.c ****     lv_style_set_bg_opa(&styles->scrollbar, LV_OPA_COVER);
 1854              		.loc 1 79 5 view .LVU556
 1855 000a 1030     		adds	r0, r0, #16
 1856 000c FFF7FEFF 		bl	style_init_reset
 1857              	.LVL198:
  80:Middlewares/lvgl/src/extra/themes/mono/lv_theme_mono.c ****     lv_style_set_bg_color(&styles->scrollbar,COLOR_FG);
 1858              		.loc 1 80 5 is_stmt 1 view .LVU557
  80:Middlewares/lvgl/src/extra/themes/mono/lv_theme_mono.c ****     lv_style_set_bg_color(&styles->scrollbar,COLOR_FG);
 1859              		.loc 1 80 32 is_stmt 0 view .LVU558
 1860 0010 2068     		ldr	r0, [r4]
  80:Middlewares/lvgl/src/extra/themes/mono/lv_theme_mono.c ****     lv_style_set_bg_color(&styles->scrollbar,COLOR_FG);
 1861              		.loc 1 80 5 view .LVU559
 1862 0012 FF21     		movs	r1, #255
 1863 0014 1030     		adds	r0, r0, #16
 1864 0016 FFF7FEFF 		bl	lv_style_set_bg_opa
 1865              	.LVL199:
  81:Middlewares/lvgl/src/extra/themes/mono/lv_theme_mono.c ****     lv_style_set_width(&styles->scrollbar,  PAD_DEF);
 1866              		.loc 1 81 5 is_stmt 1 view .LVU560
  81:Middlewares/lvgl/src/extra/themes/mono/lv_theme_mono.c ****     lv_style_set_width(&styles->scrollbar,  PAD_DEF);
 1867              		.loc 1 81 34 is_stmt 0 view .LVU561
 1868 001a 2068     		ldr	r0, [r4]
  81:Middlewares/lvgl/src/extra/themes/mono/lv_theme_mono.c ****     lv_style_set_width(&styles->scrollbar,  PAD_DEF);
 1869              		.loc 1 81 5 view .LVU562
 1870 001c 1030     		adds	r0, r0, #16
 1871 001e 002D     		cmp	r5, #0
 1872 0020 00F09B81 		beq	.L55
 1873              	.LBB275:
 1874              	.LBI275:
 1875              		.file 2 "Middlewares/lvgl/src/extra/themes/mono/../../../../src/hal/../misc/lv_color.h"
   1:Middlewares/lvgl/src/extra/themes/mono/../../../../src/hal/../misc/lv_color.h **** /**
   2:Middlewares/lvgl/src/extra/themes/mono/../../../../src/hal/../misc/lv_color.h ****  * @file lv_color.h
   3:Middlewares/lvgl/src/extra/themes/mono/../../../../src/hal/../misc/lv_color.h ****  *
   4:Middlewares/lvgl/src/extra/themes/mono/../../../../src/hal/../misc/lv_color.h ****  */
   5:Middlewares/lvgl/src/extra/themes/mono/../../../../src/hal/../misc/lv_color.h **** 
   6:Middlewares/lvgl/src/extra/themes/mono/../../../../src/hal/../misc/lv_color.h **** #ifndef LV_COLOR_H
   7:Middlewares/lvgl/src/extra/themes/mono/../../../../src/hal/../misc/lv_color.h **** #define LV_COLOR_H
ARM GAS  /tmp/ccFxGgVE.s 			page 52


   8:Middlewares/lvgl/src/extra/themes/mono/../../../../src/hal/../misc/lv_color.h **** 
   9:Middlewares/lvgl/src/extra/themes/mono/../../../../src/hal/../misc/lv_color.h **** #ifdef __cplusplus
  10:Middlewares/lvgl/src/extra/themes/mono/../../../../src/hal/../misc/lv_color.h **** extern "C" {
  11:Middlewares/lvgl/src/extra/themes/mono/../../../../src/hal/../misc/lv_color.h **** #endif
  12:Middlewares/lvgl/src/extra/themes/mono/../../../../src/hal/../misc/lv_color.h **** 
  13:Middlewares/lvgl/src/extra/themes/mono/../../../../src/hal/../misc/lv_color.h **** /*********************
  14:Middlewares/lvgl/src/extra/themes/mono/../../../../src/hal/../misc/lv_color.h ****  *      INCLUDES
  15:Middlewares/lvgl/src/extra/themes/mono/../../../../src/hal/../misc/lv_color.h ****  *********************/
  16:Middlewares/lvgl/src/extra/themes/mono/../../../../src/hal/../misc/lv_color.h **** #include "../lv_conf_internal.h"
  17:Middlewares/lvgl/src/extra/themes/mono/../../../../src/hal/../misc/lv_color.h **** #include "lv_math.h"
  18:Middlewares/lvgl/src/extra/themes/mono/../../../../src/hal/../misc/lv_color.h **** #include "lv_types.h"
  19:Middlewares/lvgl/src/extra/themes/mono/../../../../src/hal/../misc/lv_color.h **** 
  20:Middlewares/lvgl/src/extra/themes/mono/../../../../src/hal/../misc/lv_color.h **** /*Error checking*/
  21:Middlewares/lvgl/src/extra/themes/mono/../../../../src/hal/../misc/lv_color.h **** #if LV_COLOR_DEPTH == 24
  22:Middlewares/lvgl/src/extra/themes/mono/../../../../src/hal/../misc/lv_color.h **** #error "LV_COLOR_DEPTH 24 is deprecated. Use LV_COLOR_DEPTH 32 instead (lv_conf.h)"
  23:Middlewares/lvgl/src/extra/themes/mono/../../../../src/hal/../misc/lv_color.h **** #endif
  24:Middlewares/lvgl/src/extra/themes/mono/../../../../src/hal/../misc/lv_color.h **** 
  25:Middlewares/lvgl/src/extra/themes/mono/../../../../src/hal/../misc/lv_color.h **** #if LV_COLOR_DEPTH != 32 && LV_COLOR_SCREEN_TRANSP != 0
  26:Middlewares/lvgl/src/extra/themes/mono/../../../../src/hal/../misc/lv_color.h **** #error "LV_COLOR_SCREEN_TRANSP requires LV_COLOR_DEPTH == 32. Set it in lv_conf.h"
  27:Middlewares/lvgl/src/extra/themes/mono/../../../../src/hal/../misc/lv_color.h **** #endif
  28:Middlewares/lvgl/src/extra/themes/mono/../../../../src/hal/../misc/lv_color.h **** 
  29:Middlewares/lvgl/src/extra/themes/mono/../../../../src/hal/../misc/lv_color.h **** #if LV_COLOR_DEPTH != 16 && LV_COLOR_16_SWAP != 0
  30:Middlewares/lvgl/src/extra/themes/mono/../../../../src/hal/../misc/lv_color.h **** #error "LV_COLOR_16_SWAP requires LV_COLOR_DEPTH == 16. Set it in lv_conf.h"
  31:Middlewares/lvgl/src/extra/themes/mono/../../../../src/hal/../misc/lv_color.h **** #endif
  32:Middlewares/lvgl/src/extra/themes/mono/../../../../src/hal/../misc/lv_color.h **** 
  33:Middlewares/lvgl/src/extra/themes/mono/../../../../src/hal/../misc/lv_color.h **** #include <stdint.h>
  34:Middlewares/lvgl/src/extra/themes/mono/../../../../src/hal/../misc/lv_color.h **** 
  35:Middlewares/lvgl/src/extra/themes/mono/../../../../src/hal/../misc/lv_color.h **** /*********************
  36:Middlewares/lvgl/src/extra/themes/mono/../../../../src/hal/../misc/lv_color.h ****  *      DEFINES
  37:Middlewares/lvgl/src/extra/themes/mono/../../../../src/hal/../misc/lv_color.h ****  *********************/
  38:Middlewares/lvgl/src/extra/themes/mono/../../../../src/hal/../misc/lv_color.h **** 
  39:Middlewares/lvgl/src/extra/themes/mono/../../../../src/hal/../misc/lv_color.h **** /**
  40:Middlewares/lvgl/src/extra/themes/mono/../../../../src/hal/../misc/lv_color.h ****  * Opacity percentages.
  41:Middlewares/lvgl/src/extra/themes/mono/../../../../src/hal/../misc/lv_color.h ****  */
  42:Middlewares/lvgl/src/extra/themes/mono/../../../../src/hal/../misc/lv_color.h **** enum {
  43:Middlewares/lvgl/src/extra/themes/mono/../../../../src/hal/../misc/lv_color.h ****     LV_OPA_TRANSP = 0,
  44:Middlewares/lvgl/src/extra/themes/mono/../../../../src/hal/../misc/lv_color.h ****     LV_OPA_0      = 0,
  45:Middlewares/lvgl/src/extra/themes/mono/../../../../src/hal/../misc/lv_color.h ****     LV_OPA_10     = 25,
  46:Middlewares/lvgl/src/extra/themes/mono/../../../../src/hal/../misc/lv_color.h ****     LV_OPA_20     = 51,
  47:Middlewares/lvgl/src/extra/themes/mono/../../../../src/hal/../misc/lv_color.h ****     LV_OPA_30     = 76,
  48:Middlewares/lvgl/src/extra/themes/mono/../../../../src/hal/../misc/lv_color.h ****     LV_OPA_40     = 102,
  49:Middlewares/lvgl/src/extra/themes/mono/../../../../src/hal/../misc/lv_color.h ****     LV_OPA_50     = 127,
  50:Middlewares/lvgl/src/extra/themes/mono/../../../../src/hal/../misc/lv_color.h ****     LV_OPA_60     = 153,
  51:Middlewares/lvgl/src/extra/themes/mono/../../../../src/hal/../misc/lv_color.h ****     LV_OPA_70     = 178,
  52:Middlewares/lvgl/src/extra/themes/mono/../../../../src/hal/../misc/lv_color.h ****     LV_OPA_80     = 204,
  53:Middlewares/lvgl/src/extra/themes/mono/../../../../src/hal/../misc/lv_color.h ****     LV_OPA_90     = 229,
  54:Middlewares/lvgl/src/extra/themes/mono/../../../../src/hal/../misc/lv_color.h ****     LV_OPA_100    = 255,
  55:Middlewares/lvgl/src/extra/themes/mono/../../../../src/hal/../misc/lv_color.h ****     LV_OPA_COVER  = 255,
  56:Middlewares/lvgl/src/extra/themes/mono/../../../../src/hal/../misc/lv_color.h **** };
  57:Middlewares/lvgl/src/extra/themes/mono/../../../../src/hal/../misc/lv_color.h **** 
  58:Middlewares/lvgl/src/extra/themes/mono/../../../../src/hal/../misc/lv_color.h **** #define LV_OPA_MIN 2    /*Opacities below this will be transparent*/
  59:Middlewares/lvgl/src/extra/themes/mono/../../../../src/hal/../misc/lv_color.h **** #define LV_OPA_MAX 253  /*Opacities above this will fully cover*/
  60:Middlewares/lvgl/src/extra/themes/mono/../../../../src/hal/../misc/lv_color.h **** 
  61:Middlewares/lvgl/src/extra/themes/mono/../../../../src/hal/../misc/lv_color.h **** #if LV_COLOR_DEPTH == 1
  62:Middlewares/lvgl/src/extra/themes/mono/../../../../src/hal/../misc/lv_color.h **** #define LV_COLOR_SIZE 8
  63:Middlewares/lvgl/src/extra/themes/mono/../../../../src/hal/../misc/lv_color.h **** #elif LV_COLOR_DEPTH == 8
  64:Middlewares/lvgl/src/extra/themes/mono/../../../../src/hal/../misc/lv_color.h **** #define LV_COLOR_SIZE 8
ARM GAS  /tmp/ccFxGgVE.s 			page 53


  65:Middlewares/lvgl/src/extra/themes/mono/../../../../src/hal/../misc/lv_color.h **** #elif LV_COLOR_DEPTH == 16
  66:Middlewares/lvgl/src/extra/themes/mono/../../../../src/hal/../misc/lv_color.h **** #define LV_COLOR_SIZE 16
  67:Middlewares/lvgl/src/extra/themes/mono/../../../../src/hal/../misc/lv_color.h **** #elif LV_COLOR_DEPTH == 32
  68:Middlewares/lvgl/src/extra/themes/mono/../../../../src/hal/../misc/lv_color.h **** #define LV_COLOR_SIZE 32
  69:Middlewares/lvgl/src/extra/themes/mono/../../../../src/hal/../misc/lv_color.h **** #else
  70:Middlewares/lvgl/src/extra/themes/mono/../../../../src/hal/../misc/lv_color.h **** #error "Invalid LV_COLOR_DEPTH in lv_conf.h! Set it to 1, 8, 16 or 32!"
  71:Middlewares/lvgl/src/extra/themes/mono/../../../../src/hal/../misc/lv_color.h **** #endif
  72:Middlewares/lvgl/src/extra/themes/mono/../../../../src/hal/../misc/lv_color.h **** 
  73:Middlewares/lvgl/src/extra/themes/mono/../../../../src/hal/../misc/lv_color.h **** /**
  74:Middlewares/lvgl/src/extra/themes/mono/../../../../src/hal/../misc/lv_color.h ****  * Adjust color mix functions rounding.
  75:Middlewares/lvgl/src/extra/themes/mono/../../../../src/hal/../misc/lv_color.h ****  * GPUs might calculate color mix (blending) differently.
  76:Middlewares/lvgl/src/extra/themes/mono/../../../../src/hal/../misc/lv_color.h ****  * Should be in range of 0..254
  77:Middlewares/lvgl/src/extra/themes/mono/../../../../src/hal/../misc/lv_color.h ****  * 0: no adjustment, get the integer part of the result (round down)
  78:Middlewares/lvgl/src/extra/themes/mono/../../../../src/hal/../misc/lv_color.h ****  * 64: round up from x.75
  79:Middlewares/lvgl/src/extra/themes/mono/../../../../src/hal/../misc/lv_color.h ****  * 128: round up from half
  80:Middlewares/lvgl/src/extra/themes/mono/../../../../src/hal/../misc/lv_color.h ****  * 192: round up from x.25
  81:Middlewares/lvgl/src/extra/themes/mono/../../../../src/hal/../misc/lv_color.h ****  * 254: round up*/
  82:Middlewares/lvgl/src/extra/themes/mono/../../../../src/hal/../misc/lv_color.h **** #ifndef LV_COLOR_MIX_ROUND_OFS
  83:Middlewares/lvgl/src/extra/themes/mono/../../../../src/hal/../misc/lv_color.h **** #if LV_COLOR_DEPTH == 32
  84:Middlewares/lvgl/src/extra/themes/mono/../../../../src/hal/../misc/lv_color.h **** #define LV_COLOR_MIX_ROUND_OFS 0
  85:Middlewares/lvgl/src/extra/themes/mono/../../../../src/hal/../misc/lv_color.h **** #else
  86:Middlewares/lvgl/src/extra/themes/mono/../../../../src/hal/../misc/lv_color.h **** #define LV_COLOR_MIX_ROUND_OFS 128
  87:Middlewares/lvgl/src/extra/themes/mono/../../../../src/hal/../misc/lv_color.h **** #endif
  88:Middlewares/lvgl/src/extra/themes/mono/../../../../src/hal/../misc/lv_color.h **** #endif
  89:Middlewares/lvgl/src/extra/themes/mono/../../../../src/hal/../misc/lv_color.h **** 
  90:Middlewares/lvgl/src/extra/themes/mono/../../../../src/hal/../misc/lv_color.h **** #if defined(__cplusplus) && !defined(_LV_COLOR_HAS_MODERN_CPP)
  91:Middlewares/lvgl/src/extra/themes/mono/../../../../src/hal/../misc/lv_color.h **** /**
  92:Middlewares/lvgl/src/extra/themes/mono/../../../../src/hal/../misc/lv_color.h **** * MSVC compiler's definition of the __cplusplus indicating 199711L regardless to C++ standard versi
  93:Middlewares/lvgl/src/extra/themes/mono/../../../../src/hal/../misc/lv_color.h **** * see https://devblogs.microsoft.com/cppblog/msvc-now-correctly-reports-cplusplus
  94:Middlewares/lvgl/src/extra/themes/mono/../../../../src/hal/../misc/lv_color.h **** * so we use _MSC_VER macro instead of __cplusplus
  95:Middlewares/lvgl/src/extra/themes/mono/../../../../src/hal/../misc/lv_color.h **** */
  96:Middlewares/lvgl/src/extra/themes/mono/../../../../src/hal/../misc/lv_color.h **** #ifdef _MSC_VER
  97:Middlewares/lvgl/src/extra/themes/mono/../../../../src/hal/../misc/lv_color.h **** #if _MSC_VER >= 1900 /*Visual Studio 2015*/
  98:Middlewares/lvgl/src/extra/themes/mono/../../../../src/hal/../misc/lv_color.h **** #define _LV_COLOR_HAS_MODERN_CPP 1
  99:Middlewares/lvgl/src/extra/themes/mono/../../../../src/hal/../misc/lv_color.h **** #endif
 100:Middlewares/lvgl/src/extra/themes/mono/../../../../src/hal/../misc/lv_color.h **** #else
 101:Middlewares/lvgl/src/extra/themes/mono/../../../../src/hal/../misc/lv_color.h **** #if __cplusplus >= 201103L
 102:Middlewares/lvgl/src/extra/themes/mono/../../../../src/hal/../misc/lv_color.h **** #define _LV_COLOR_HAS_MODERN_CPP 1
 103:Middlewares/lvgl/src/extra/themes/mono/../../../../src/hal/../misc/lv_color.h **** #endif
 104:Middlewares/lvgl/src/extra/themes/mono/../../../../src/hal/../misc/lv_color.h **** #endif
 105:Middlewares/lvgl/src/extra/themes/mono/../../../../src/hal/../misc/lv_color.h **** #endif /*__cplusplus*/
 106:Middlewares/lvgl/src/extra/themes/mono/../../../../src/hal/../misc/lv_color.h **** 
 107:Middlewares/lvgl/src/extra/themes/mono/../../../../src/hal/../misc/lv_color.h **** #ifndef _LV_COLOR_HAS_MODERN_CPP
 108:Middlewares/lvgl/src/extra/themes/mono/../../../../src/hal/../misc/lv_color.h **** #define _LV_COLOR_HAS_MODERN_CPP 0
 109:Middlewares/lvgl/src/extra/themes/mono/../../../../src/hal/../misc/lv_color.h **** #endif
 110:Middlewares/lvgl/src/extra/themes/mono/../../../../src/hal/../misc/lv_color.h **** 
 111:Middlewares/lvgl/src/extra/themes/mono/../../../../src/hal/../misc/lv_color.h **** #if _LV_COLOR_HAS_MODERN_CPP
 112:Middlewares/lvgl/src/extra/themes/mono/../../../../src/hal/../misc/lv_color.h **** /*Fix msvc compiler error C4576 inside C++ code*/
 113:Middlewares/lvgl/src/extra/themes/mono/../../../../src/hal/../misc/lv_color.h **** #define _LV_COLOR_MAKE_TYPE_HELPER lv_color_t
 114:Middlewares/lvgl/src/extra/themes/mono/../../../../src/hal/../misc/lv_color.h **** #else
 115:Middlewares/lvgl/src/extra/themes/mono/../../../../src/hal/../misc/lv_color.h **** #define _LV_COLOR_MAKE_TYPE_HELPER (lv_color_t)
 116:Middlewares/lvgl/src/extra/themes/mono/../../../../src/hal/../misc/lv_color.h **** #endif
 117:Middlewares/lvgl/src/extra/themes/mono/../../../../src/hal/../misc/lv_color.h **** 
 118:Middlewares/lvgl/src/extra/themes/mono/../../../../src/hal/../misc/lv_color.h **** /*---------------------------------------
 119:Middlewares/lvgl/src/extra/themes/mono/../../../../src/hal/../misc/lv_color.h ****  * Macros for all existing color depths
 120:Middlewares/lvgl/src/extra/themes/mono/../../../../src/hal/../misc/lv_color.h ****  * to set/get values of the color channels
 121:Middlewares/lvgl/src/extra/themes/mono/../../../../src/hal/../misc/lv_color.h ****  *------------------------------------------*/
ARM GAS  /tmp/ccFxGgVE.s 			page 54


 122:Middlewares/lvgl/src/extra/themes/mono/../../../../src/hal/../misc/lv_color.h **** # define LV_COLOR_SET_R1(c, v) (c).ch.red = (uint8_t)((v) & 0x1)
 123:Middlewares/lvgl/src/extra/themes/mono/../../../../src/hal/../misc/lv_color.h **** # define LV_COLOR_SET_G1(c, v) (c).ch.green = (uint8_t)((v) & 0x1)
 124:Middlewares/lvgl/src/extra/themes/mono/../../../../src/hal/../misc/lv_color.h **** # define LV_COLOR_SET_B1(c, v) (c).ch.blue = (uint8_t)((v) & 0x1)
 125:Middlewares/lvgl/src/extra/themes/mono/../../../../src/hal/../misc/lv_color.h **** # define LV_COLOR_SET_A1(c, v) do {} while(0)
 126:Middlewares/lvgl/src/extra/themes/mono/../../../../src/hal/../misc/lv_color.h **** 
 127:Middlewares/lvgl/src/extra/themes/mono/../../../../src/hal/../misc/lv_color.h **** # define LV_COLOR_GET_R1(c) (c).ch.red
 128:Middlewares/lvgl/src/extra/themes/mono/../../../../src/hal/../misc/lv_color.h **** # define LV_COLOR_GET_G1(c) (c).ch.green
 129:Middlewares/lvgl/src/extra/themes/mono/../../../../src/hal/../misc/lv_color.h **** # define LV_COLOR_GET_B1(c) (c).ch.blue
 130:Middlewares/lvgl/src/extra/themes/mono/../../../../src/hal/../misc/lv_color.h **** # define LV_COLOR_GET_A1(c) 0xFF
 131:Middlewares/lvgl/src/extra/themes/mono/../../../../src/hal/../misc/lv_color.h **** 
 132:Middlewares/lvgl/src/extra/themes/mono/../../../../src/hal/../misc/lv_color.h **** # define _LV_COLOR_ZERO_INITIALIZER1 {0x00}
 133:Middlewares/lvgl/src/extra/themes/mono/../../../../src/hal/../misc/lv_color.h **** # define LV_COLOR_MAKE1(r8, g8, b8)  {(uint8_t)((b8 >> 7) | (g8 >> 7) | (r8 >> 7))}
 134:Middlewares/lvgl/src/extra/themes/mono/../../../../src/hal/../misc/lv_color.h **** 
 135:Middlewares/lvgl/src/extra/themes/mono/../../../../src/hal/../misc/lv_color.h **** # define LV_COLOR_SET_R8(c, v) (c).ch.red = (uint8_t)((v) & 0x7U)
 136:Middlewares/lvgl/src/extra/themes/mono/../../../../src/hal/../misc/lv_color.h **** # define LV_COLOR_SET_G8(c, v) (c).ch.green = (uint8_t)((v) & 0x7U)
 137:Middlewares/lvgl/src/extra/themes/mono/../../../../src/hal/../misc/lv_color.h **** # define LV_COLOR_SET_B8(c, v) (c).ch.blue = (uint8_t)((v) & 0x3U)
 138:Middlewares/lvgl/src/extra/themes/mono/../../../../src/hal/../misc/lv_color.h **** # define LV_COLOR_SET_A8(c, v) do {} while(0)
 139:Middlewares/lvgl/src/extra/themes/mono/../../../../src/hal/../misc/lv_color.h **** 
 140:Middlewares/lvgl/src/extra/themes/mono/../../../../src/hal/../misc/lv_color.h **** # define LV_COLOR_GET_R8(c) (c).ch.red
 141:Middlewares/lvgl/src/extra/themes/mono/../../../../src/hal/../misc/lv_color.h **** # define LV_COLOR_GET_G8(c) (c).ch.green
 142:Middlewares/lvgl/src/extra/themes/mono/../../../../src/hal/../misc/lv_color.h **** # define LV_COLOR_GET_B8(c) (c).ch.blue
 143:Middlewares/lvgl/src/extra/themes/mono/../../../../src/hal/../misc/lv_color.h **** # define LV_COLOR_GET_A8(c) 0xFF
 144:Middlewares/lvgl/src/extra/themes/mono/../../../../src/hal/../misc/lv_color.h **** 
 145:Middlewares/lvgl/src/extra/themes/mono/../../../../src/hal/../misc/lv_color.h **** # define _LV_COLOR_ZERO_INITIALIZER8 _LV_COLOR_MAKE_TYPE_HELPER {{0x00, 0x00, 0x00}}
 146:Middlewares/lvgl/src/extra/themes/mono/../../../../src/hal/../misc/lv_color.h **** # define LV_COLOR_MAKE8(r8, g8, b8) _LV_COLOR_MAKE_TYPE_HELPER  {{(uint8_t)((b8 >> 6) & 0x3U), (uin
 147:Middlewares/lvgl/src/extra/themes/mono/../../../../src/hal/../misc/lv_color.h **** 
 148:Middlewares/lvgl/src/extra/themes/mono/../../../../src/hal/../misc/lv_color.h **** # define LV_COLOR_SET_R16(c, v) (c).ch.red = (uint8_t)((v) & 0x1FU)
 149:Middlewares/lvgl/src/extra/themes/mono/../../../../src/hal/../misc/lv_color.h **** #if LV_COLOR_16_SWAP == 0
 150:Middlewares/lvgl/src/extra/themes/mono/../../../../src/hal/../misc/lv_color.h **** # define LV_COLOR_SET_G16(c, v) (c).ch.green = (uint8_t)((v) & 0x3FU)
 151:Middlewares/lvgl/src/extra/themes/mono/../../../../src/hal/../misc/lv_color.h **** #else
 152:Middlewares/lvgl/src/extra/themes/mono/../../../../src/hal/../misc/lv_color.h **** # define LV_COLOR_SET_G16(c, v) {(c).ch.green_h = (uint8_t)(((v) >> 3) & 0x7); (c).ch.green_l = (ui
 153:Middlewares/lvgl/src/extra/themes/mono/../../../../src/hal/../misc/lv_color.h **** #endif
 154:Middlewares/lvgl/src/extra/themes/mono/../../../../src/hal/../misc/lv_color.h **** # define LV_COLOR_SET_B16(c, v) (c).ch.blue = (uint8_t)((v) & 0x1FU)
 155:Middlewares/lvgl/src/extra/themes/mono/../../../../src/hal/../misc/lv_color.h **** # define LV_COLOR_SET_A16(c, v) do {} while(0)
 156:Middlewares/lvgl/src/extra/themes/mono/../../../../src/hal/../misc/lv_color.h **** 
 157:Middlewares/lvgl/src/extra/themes/mono/../../../../src/hal/../misc/lv_color.h **** # define LV_COLOR_GET_R16(c) (c).ch.red
 158:Middlewares/lvgl/src/extra/themes/mono/../../../../src/hal/../misc/lv_color.h **** #if LV_COLOR_16_SWAP == 0
 159:Middlewares/lvgl/src/extra/themes/mono/../../../../src/hal/../misc/lv_color.h **** # define LV_COLOR_GET_G16(c) (c).ch.green
 160:Middlewares/lvgl/src/extra/themes/mono/../../../../src/hal/../misc/lv_color.h **** #else
 161:Middlewares/lvgl/src/extra/themes/mono/../../../../src/hal/../misc/lv_color.h **** # define LV_COLOR_GET_G16(c) (((c).ch.green_h << 3) + (c).ch.green_l)
 162:Middlewares/lvgl/src/extra/themes/mono/../../../../src/hal/../misc/lv_color.h **** #endif
 163:Middlewares/lvgl/src/extra/themes/mono/../../../../src/hal/../misc/lv_color.h **** # define LV_COLOR_GET_B16(c) (c).ch.blue
 164:Middlewares/lvgl/src/extra/themes/mono/../../../../src/hal/../misc/lv_color.h **** # define LV_COLOR_GET_A16(c) 0xFF
 165:Middlewares/lvgl/src/extra/themes/mono/../../../../src/hal/../misc/lv_color.h **** 
 166:Middlewares/lvgl/src/extra/themes/mono/../../../../src/hal/../misc/lv_color.h **** #if LV_COLOR_16_SWAP == 0
 167:Middlewares/lvgl/src/extra/themes/mono/../../../../src/hal/../misc/lv_color.h **** # define _LV_COLOR_ZERO_INITIALIZER16  {{0x00, 0x00, 0x00}}
 168:Middlewares/lvgl/src/extra/themes/mono/../../../../src/hal/../misc/lv_color.h **** # define LV_COLOR_MAKE16(r8, g8, b8) {{(uint8_t)((b8 >> 3) & 0x1FU), (uint8_t)((g8 >> 2) & 0x3FU), 
 169:Middlewares/lvgl/src/extra/themes/mono/../../../../src/hal/../misc/lv_color.h **** #else
 170:Middlewares/lvgl/src/extra/themes/mono/../../../../src/hal/../misc/lv_color.h **** # define _LV_COLOR_ZERO_INITIALIZER16 {{0x00, 0x00, 0x00, 0x00}}
 171:Middlewares/lvgl/src/extra/themes/mono/../../../../src/hal/../misc/lv_color.h **** # define LV_COLOR_MAKE16(r8, g8, b8) {{(uint8_t)((g8 >> 5) & 0x7U), (uint8_t)((r8 >> 3) & 0x1FU), (
 172:Middlewares/lvgl/src/extra/themes/mono/../../../../src/hal/../misc/lv_color.h **** #endif
 173:Middlewares/lvgl/src/extra/themes/mono/../../../../src/hal/../misc/lv_color.h **** 
 174:Middlewares/lvgl/src/extra/themes/mono/../../../../src/hal/../misc/lv_color.h **** # define LV_COLOR_SET_R32(c, v) (c).ch.red = (uint8_t)((v) & 0xFF)
 175:Middlewares/lvgl/src/extra/themes/mono/../../../../src/hal/../misc/lv_color.h **** # define LV_COLOR_SET_G32(c, v) (c).ch.green = (uint8_t)((v) & 0xFF)
 176:Middlewares/lvgl/src/extra/themes/mono/../../../../src/hal/../misc/lv_color.h **** # define LV_COLOR_SET_B32(c, v) (c).ch.blue = (uint8_t)((v) & 0xFF)
 177:Middlewares/lvgl/src/extra/themes/mono/../../../../src/hal/../misc/lv_color.h **** # define LV_COLOR_SET_A32(c, v) (c).ch.alpha = (uint8_t)((v) & 0xFF)
 178:Middlewares/lvgl/src/extra/themes/mono/../../../../src/hal/../misc/lv_color.h **** 
ARM GAS  /tmp/ccFxGgVE.s 			page 55


 179:Middlewares/lvgl/src/extra/themes/mono/../../../../src/hal/../misc/lv_color.h **** # define LV_COLOR_GET_R32(c) (c).ch.red
 180:Middlewares/lvgl/src/extra/themes/mono/../../../../src/hal/../misc/lv_color.h **** # define LV_COLOR_GET_G32(c) (c).ch.green
 181:Middlewares/lvgl/src/extra/themes/mono/../../../../src/hal/../misc/lv_color.h **** # define LV_COLOR_GET_B32(c) (c).ch.blue
 182:Middlewares/lvgl/src/extra/themes/mono/../../../../src/hal/../misc/lv_color.h **** # define LV_COLOR_GET_A32(c) (c).ch.alpha
 183:Middlewares/lvgl/src/extra/themes/mono/../../../../src/hal/../misc/lv_color.h **** 
 184:Middlewares/lvgl/src/extra/themes/mono/../../../../src/hal/../misc/lv_color.h **** # define _LV_COLOR_ZERO_INITIALIZER32  {{0x00, 0x00, 0x00, 0x00}}
 185:Middlewares/lvgl/src/extra/themes/mono/../../../../src/hal/../misc/lv_color.h **** # define LV_COLOR_MAKE32(r8, g8, b8) {{b8, g8, r8, 0xff}} /*Fix 0xff alpha*/
 186:Middlewares/lvgl/src/extra/themes/mono/../../../../src/hal/../misc/lv_color.h **** 
 187:Middlewares/lvgl/src/extra/themes/mono/../../../../src/hal/../misc/lv_color.h **** /*---------------------------------------
 188:Middlewares/lvgl/src/extra/themes/mono/../../../../src/hal/../misc/lv_color.h ****  * Macros for the current color depth
 189:Middlewares/lvgl/src/extra/themes/mono/../../../../src/hal/../misc/lv_color.h ****  * to set/get values of the color channels
 190:Middlewares/lvgl/src/extra/themes/mono/../../../../src/hal/../misc/lv_color.h ****  *------------------------------------------*/
 191:Middlewares/lvgl/src/extra/themes/mono/../../../../src/hal/../misc/lv_color.h **** #define LV_COLOR_SET_R(c, v) LV_CONCAT(LV_COLOR_SET_R, LV_COLOR_DEPTH)(c, v)
 192:Middlewares/lvgl/src/extra/themes/mono/../../../../src/hal/../misc/lv_color.h **** #define LV_COLOR_SET_G(c, v) LV_CONCAT(LV_COLOR_SET_G, LV_COLOR_DEPTH)(c, v)
 193:Middlewares/lvgl/src/extra/themes/mono/../../../../src/hal/../misc/lv_color.h **** #define LV_COLOR_SET_B(c, v) LV_CONCAT(LV_COLOR_SET_B, LV_COLOR_DEPTH)(c, v)
 194:Middlewares/lvgl/src/extra/themes/mono/../../../../src/hal/../misc/lv_color.h **** #define LV_COLOR_SET_A(c, v) LV_CONCAT(LV_COLOR_SET_A, LV_COLOR_DEPTH)(c, v)
 195:Middlewares/lvgl/src/extra/themes/mono/../../../../src/hal/../misc/lv_color.h **** 
 196:Middlewares/lvgl/src/extra/themes/mono/../../../../src/hal/../misc/lv_color.h **** #define LV_COLOR_GET_R(c) LV_CONCAT(LV_COLOR_GET_R, LV_COLOR_DEPTH)(c)
 197:Middlewares/lvgl/src/extra/themes/mono/../../../../src/hal/../misc/lv_color.h **** #define LV_COLOR_GET_G(c) LV_CONCAT(LV_COLOR_GET_G, LV_COLOR_DEPTH)(c)
 198:Middlewares/lvgl/src/extra/themes/mono/../../../../src/hal/../misc/lv_color.h **** #define LV_COLOR_GET_B(c) LV_CONCAT(LV_COLOR_GET_B, LV_COLOR_DEPTH)(c)
 199:Middlewares/lvgl/src/extra/themes/mono/../../../../src/hal/../misc/lv_color.h **** #define LV_COLOR_GET_A(c) LV_CONCAT(LV_COLOR_GET_A, LV_COLOR_DEPTH)(c)
 200:Middlewares/lvgl/src/extra/themes/mono/../../../../src/hal/../misc/lv_color.h **** 
 201:Middlewares/lvgl/src/extra/themes/mono/../../../../src/hal/../misc/lv_color.h **** #define _LV_COLOR_ZERO_INITIALIZER LV_CONCAT(_LV_COLOR_ZERO_INITIALIZER, LV_COLOR_DEPTH)
 202:Middlewares/lvgl/src/extra/themes/mono/../../../../src/hal/../misc/lv_color.h **** #define LV_COLOR_MAKE(r8, g8, b8) LV_CONCAT(LV_COLOR_MAKE, LV_COLOR_DEPTH)(r8, g8, b8)
 203:Middlewares/lvgl/src/extra/themes/mono/../../../../src/hal/../misc/lv_color.h **** 
 204:Middlewares/lvgl/src/extra/themes/mono/../../../../src/hal/../misc/lv_color.h **** #define LV_UDIV255(x) ((uint32_t)((uint32_t) (x) * 0x8081) >> 0x17)
 205:Middlewares/lvgl/src/extra/themes/mono/../../../../src/hal/../misc/lv_color.h **** 
 206:Middlewares/lvgl/src/extra/themes/mono/../../../../src/hal/../misc/lv_color.h **** /**********************
 207:Middlewares/lvgl/src/extra/themes/mono/../../../../src/hal/../misc/lv_color.h ****  *      TYPEDEFS
 208:Middlewares/lvgl/src/extra/themes/mono/../../../../src/hal/../misc/lv_color.h ****  **********************/
 209:Middlewares/lvgl/src/extra/themes/mono/../../../../src/hal/../misc/lv_color.h **** 
 210:Middlewares/lvgl/src/extra/themes/mono/../../../../src/hal/../misc/lv_color.h **** typedef union {
 211:Middlewares/lvgl/src/extra/themes/mono/../../../../src/hal/../misc/lv_color.h ****     uint8_t full; /*must be declared first to set all bits of byte via initializer list*/
 212:Middlewares/lvgl/src/extra/themes/mono/../../../../src/hal/../misc/lv_color.h ****     union {
 213:Middlewares/lvgl/src/extra/themes/mono/../../../../src/hal/../misc/lv_color.h ****         uint8_t blue : 1;
 214:Middlewares/lvgl/src/extra/themes/mono/../../../../src/hal/../misc/lv_color.h ****         uint8_t green : 1;
 215:Middlewares/lvgl/src/extra/themes/mono/../../../../src/hal/../misc/lv_color.h ****         uint8_t red : 1;
 216:Middlewares/lvgl/src/extra/themes/mono/../../../../src/hal/../misc/lv_color.h ****     } ch;
 217:Middlewares/lvgl/src/extra/themes/mono/../../../../src/hal/../misc/lv_color.h **** } lv_color1_t;
 218:Middlewares/lvgl/src/extra/themes/mono/../../../../src/hal/../misc/lv_color.h **** 
 219:Middlewares/lvgl/src/extra/themes/mono/../../../../src/hal/../misc/lv_color.h **** typedef union {
 220:Middlewares/lvgl/src/extra/themes/mono/../../../../src/hal/../misc/lv_color.h ****     struct {
 221:Middlewares/lvgl/src/extra/themes/mono/../../../../src/hal/../misc/lv_color.h ****         uint8_t blue : 2;
 222:Middlewares/lvgl/src/extra/themes/mono/../../../../src/hal/../misc/lv_color.h ****         uint8_t green : 3;
 223:Middlewares/lvgl/src/extra/themes/mono/../../../../src/hal/../misc/lv_color.h ****         uint8_t red : 3;
 224:Middlewares/lvgl/src/extra/themes/mono/../../../../src/hal/../misc/lv_color.h ****     } ch;
 225:Middlewares/lvgl/src/extra/themes/mono/../../../../src/hal/../misc/lv_color.h ****     uint8_t full;
 226:Middlewares/lvgl/src/extra/themes/mono/../../../../src/hal/../misc/lv_color.h **** } lv_color8_t;
 227:Middlewares/lvgl/src/extra/themes/mono/../../../../src/hal/../misc/lv_color.h **** 
 228:Middlewares/lvgl/src/extra/themes/mono/../../../../src/hal/../misc/lv_color.h **** typedef union {
 229:Middlewares/lvgl/src/extra/themes/mono/../../../../src/hal/../misc/lv_color.h ****     struct {
 230:Middlewares/lvgl/src/extra/themes/mono/../../../../src/hal/../misc/lv_color.h **** #if LV_COLOR_16_SWAP == 0
 231:Middlewares/lvgl/src/extra/themes/mono/../../../../src/hal/../misc/lv_color.h ****         uint16_t blue : 5;
 232:Middlewares/lvgl/src/extra/themes/mono/../../../../src/hal/../misc/lv_color.h ****         uint16_t green : 6;
 233:Middlewares/lvgl/src/extra/themes/mono/../../../../src/hal/../misc/lv_color.h ****         uint16_t red : 5;
 234:Middlewares/lvgl/src/extra/themes/mono/../../../../src/hal/../misc/lv_color.h **** #else
 235:Middlewares/lvgl/src/extra/themes/mono/../../../../src/hal/../misc/lv_color.h ****         uint16_t green_h : 3;
ARM GAS  /tmp/ccFxGgVE.s 			page 56


 236:Middlewares/lvgl/src/extra/themes/mono/../../../../src/hal/../misc/lv_color.h ****         uint16_t red : 5;
 237:Middlewares/lvgl/src/extra/themes/mono/../../../../src/hal/../misc/lv_color.h ****         uint16_t blue : 5;
 238:Middlewares/lvgl/src/extra/themes/mono/../../../../src/hal/../misc/lv_color.h ****         uint16_t green_l : 3;
 239:Middlewares/lvgl/src/extra/themes/mono/../../../../src/hal/../misc/lv_color.h **** #endif
 240:Middlewares/lvgl/src/extra/themes/mono/../../../../src/hal/../misc/lv_color.h ****     } ch;
 241:Middlewares/lvgl/src/extra/themes/mono/../../../../src/hal/../misc/lv_color.h ****     uint16_t full;
 242:Middlewares/lvgl/src/extra/themes/mono/../../../../src/hal/../misc/lv_color.h **** } lv_color16_t;
 243:Middlewares/lvgl/src/extra/themes/mono/../../../../src/hal/../misc/lv_color.h **** 
 244:Middlewares/lvgl/src/extra/themes/mono/../../../../src/hal/../misc/lv_color.h **** typedef union {
 245:Middlewares/lvgl/src/extra/themes/mono/../../../../src/hal/../misc/lv_color.h ****     struct {
 246:Middlewares/lvgl/src/extra/themes/mono/../../../../src/hal/../misc/lv_color.h ****         uint8_t blue;
 247:Middlewares/lvgl/src/extra/themes/mono/../../../../src/hal/../misc/lv_color.h ****         uint8_t green;
 248:Middlewares/lvgl/src/extra/themes/mono/../../../../src/hal/../misc/lv_color.h ****         uint8_t red;
 249:Middlewares/lvgl/src/extra/themes/mono/../../../../src/hal/../misc/lv_color.h ****         uint8_t alpha;
 250:Middlewares/lvgl/src/extra/themes/mono/../../../../src/hal/../misc/lv_color.h ****     } ch;
 251:Middlewares/lvgl/src/extra/themes/mono/../../../../src/hal/../misc/lv_color.h ****     uint32_t full;
 252:Middlewares/lvgl/src/extra/themes/mono/../../../../src/hal/../misc/lv_color.h **** } lv_color32_t;
 253:Middlewares/lvgl/src/extra/themes/mono/../../../../src/hal/../misc/lv_color.h **** 
 254:Middlewares/lvgl/src/extra/themes/mono/../../../../src/hal/../misc/lv_color.h **** typedef LV_CONCAT3(uint, LV_COLOR_SIZE, _t) lv_color_int_t;
 255:Middlewares/lvgl/src/extra/themes/mono/../../../../src/hal/../misc/lv_color.h **** typedef LV_CONCAT3(lv_color, LV_COLOR_DEPTH, _t) lv_color_t;
 256:Middlewares/lvgl/src/extra/themes/mono/../../../../src/hal/../misc/lv_color.h **** 
 257:Middlewares/lvgl/src/extra/themes/mono/../../../../src/hal/../misc/lv_color.h **** typedef struct {
 258:Middlewares/lvgl/src/extra/themes/mono/../../../../src/hal/../misc/lv_color.h ****     uint16_t h;
 259:Middlewares/lvgl/src/extra/themes/mono/../../../../src/hal/../misc/lv_color.h ****     uint8_t s;
 260:Middlewares/lvgl/src/extra/themes/mono/../../../../src/hal/../misc/lv_color.h ****     uint8_t v;
 261:Middlewares/lvgl/src/extra/themes/mono/../../../../src/hal/../misc/lv_color.h **** } lv_color_hsv_t;
 262:Middlewares/lvgl/src/extra/themes/mono/../../../../src/hal/../misc/lv_color.h **** 
 263:Middlewares/lvgl/src/extra/themes/mono/../../../../src/hal/../misc/lv_color.h **** //! @cond Doxygen_Suppress
 264:Middlewares/lvgl/src/extra/themes/mono/../../../../src/hal/../misc/lv_color.h **** /*No idea where the guard is required but else throws warnings in the docs*/
 265:Middlewares/lvgl/src/extra/themes/mono/../../../../src/hal/../misc/lv_color.h **** typedef uint8_t lv_opa_t;
 266:Middlewares/lvgl/src/extra/themes/mono/../../../../src/hal/../misc/lv_color.h **** //! @endcond
 267:Middlewares/lvgl/src/extra/themes/mono/../../../../src/hal/../misc/lv_color.h **** 
 268:Middlewares/lvgl/src/extra/themes/mono/../../../../src/hal/../misc/lv_color.h **** struct _lv_color_filter_dsc_t;
 269:Middlewares/lvgl/src/extra/themes/mono/../../../../src/hal/../misc/lv_color.h **** 
 270:Middlewares/lvgl/src/extra/themes/mono/../../../../src/hal/../misc/lv_color.h **** typedef lv_color_t (*lv_color_filter_cb_t)(const struct _lv_color_filter_dsc_t *, lv_color_t, lv_op
 271:Middlewares/lvgl/src/extra/themes/mono/../../../../src/hal/../misc/lv_color.h **** 
 272:Middlewares/lvgl/src/extra/themes/mono/../../../../src/hal/../misc/lv_color.h **** typedef struct _lv_color_filter_dsc_t {
 273:Middlewares/lvgl/src/extra/themes/mono/../../../../src/hal/../misc/lv_color.h ****     lv_color_filter_cb_t filter_cb;
 274:Middlewares/lvgl/src/extra/themes/mono/../../../../src/hal/../misc/lv_color.h ****     void * user_data;
 275:Middlewares/lvgl/src/extra/themes/mono/../../../../src/hal/../misc/lv_color.h **** }lv_color_filter_dsc_t;
 276:Middlewares/lvgl/src/extra/themes/mono/../../../../src/hal/../misc/lv_color.h **** 
 277:Middlewares/lvgl/src/extra/themes/mono/../../../../src/hal/../misc/lv_color.h **** 
 278:Middlewares/lvgl/src/extra/themes/mono/../../../../src/hal/../misc/lv_color.h **** typedef enum {
 279:Middlewares/lvgl/src/extra/themes/mono/../../../../src/hal/../misc/lv_color.h ****     LV_PALETTE_RED,
 280:Middlewares/lvgl/src/extra/themes/mono/../../../../src/hal/../misc/lv_color.h ****     LV_PALETTE_PINK,
 281:Middlewares/lvgl/src/extra/themes/mono/../../../../src/hal/../misc/lv_color.h ****     LV_PALETTE_PURPLE,
 282:Middlewares/lvgl/src/extra/themes/mono/../../../../src/hal/../misc/lv_color.h ****     LV_PALETTE_DEEP_PURPLE,
 283:Middlewares/lvgl/src/extra/themes/mono/../../../../src/hal/../misc/lv_color.h ****     LV_PALETTE_INDIGO,
 284:Middlewares/lvgl/src/extra/themes/mono/../../../../src/hal/../misc/lv_color.h ****     LV_PALETTE_BLUE,
 285:Middlewares/lvgl/src/extra/themes/mono/../../../../src/hal/../misc/lv_color.h ****     LV_PALETTE_LIGHT_BLUE,
 286:Middlewares/lvgl/src/extra/themes/mono/../../../../src/hal/../misc/lv_color.h ****     LV_PALETTE_CYAN,
 287:Middlewares/lvgl/src/extra/themes/mono/../../../../src/hal/../misc/lv_color.h ****     LV_PALETTE_TEAL,
 288:Middlewares/lvgl/src/extra/themes/mono/../../../../src/hal/../misc/lv_color.h ****     LV_PALETTE_GREEN,
 289:Middlewares/lvgl/src/extra/themes/mono/../../../../src/hal/../misc/lv_color.h ****     LV_PALETTE_LIGHT_GREEN,
 290:Middlewares/lvgl/src/extra/themes/mono/../../../../src/hal/../misc/lv_color.h ****     LV_PALETTE_LIME,
 291:Middlewares/lvgl/src/extra/themes/mono/../../../../src/hal/../misc/lv_color.h ****     LV_PALETTE_YELLOW,
 292:Middlewares/lvgl/src/extra/themes/mono/../../../../src/hal/../misc/lv_color.h ****     LV_PALETTE_AMBER,
ARM GAS  /tmp/ccFxGgVE.s 			page 57


 293:Middlewares/lvgl/src/extra/themes/mono/../../../../src/hal/../misc/lv_color.h ****     LV_PALETTE_ORANGE,
 294:Middlewares/lvgl/src/extra/themes/mono/../../../../src/hal/../misc/lv_color.h ****     LV_PALETTE_DEEP_ORANGE,
 295:Middlewares/lvgl/src/extra/themes/mono/../../../../src/hal/../misc/lv_color.h ****     LV_PALETTE_BROWN,
 296:Middlewares/lvgl/src/extra/themes/mono/../../../../src/hal/../misc/lv_color.h ****     LV_PALETTE_BLUE_GREY,
 297:Middlewares/lvgl/src/extra/themes/mono/../../../../src/hal/../misc/lv_color.h ****     LV_PALETTE_GREY,
 298:Middlewares/lvgl/src/extra/themes/mono/../../../../src/hal/../misc/lv_color.h ****     _LV_PALETTE_LAST,
 299:Middlewares/lvgl/src/extra/themes/mono/../../../../src/hal/../misc/lv_color.h ****     LV_PALETTE_NONE = 0xff,
 300:Middlewares/lvgl/src/extra/themes/mono/../../../../src/hal/../misc/lv_color.h **** }lv_palette_t;
 301:Middlewares/lvgl/src/extra/themes/mono/../../../../src/hal/../misc/lv_color.h **** 
 302:Middlewares/lvgl/src/extra/themes/mono/../../../../src/hal/../misc/lv_color.h **** /**********************
 303:Middlewares/lvgl/src/extra/themes/mono/../../../../src/hal/../misc/lv_color.h ****  * GLOBAL PROTOTYPES
 304:Middlewares/lvgl/src/extra/themes/mono/../../../../src/hal/../misc/lv_color.h ****  **********************/
 305:Middlewares/lvgl/src/extra/themes/mono/../../../../src/hal/../misc/lv_color.h **** 
 306:Middlewares/lvgl/src/extra/themes/mono/../../../../src/hal/../misc/lv_color.h **** /*In color conversations:
 307:Middlewares/lvgl/src/extra/themes/mono/../../../../src/hal/../misc/lv_color.h ****  * - When converting to bigger color type the LSB weight of 1 LSB is calculated
 308:Middlewares/lvgl/src/extra/themes/mono/../../../../src/hal/../misc/lv_color.h ****  *   E.g. 16 bit Red has 5 bits
 309:Middlewares/lvgl/src/extra/themes/mono/../../../../src/hal/../misc/lv_color.h ****  *         8 bit Red has 3 bits
 310:Middlewares/lvgl/src/extra/themes/mono/../../../../src/hal/../misc/lv_color.h ****  *        ----------------------
 311:Middlewares/lvgl/src/extra/themes/mono/../../../../src/hal/../misc/lv_color.h ****  *        8 bit red LSB = (2^5 - 1) / (2^3 - 1) = 31 / 7 = 4
 312:Middlewares/lvgl/src/extra/themes/mono/../../../../src/hal/../misc/lv_color.h ****  *
 313:Middlewares/lvgl/src/extra/themes/mono/../../../../src/hal/../misc/lv_color.h ****  * - When calculating to smaller color type simply shift out the LSBs
 314:Middlewares/lvgl/src/extra/themes/mono/../../../../src/hal/../misc/lv_color.h ****  *   E.g.  8 bit Red has 3 bits
 315:Middlewares/lvgl/src/extra/themes/mono/../../../../src/hal/../misc/lv_color.h ****  *        16 bit Red has 5 bits
 316:Middlewares/lvgl/src/extra/themes/mono/../../../../src/hal/../misc/lv_color.h ****  *        ----------------------
 317:Middlewares/lvgl/src/extra/themes/mono/../../../../src/hal/../misc/lv_color.h ****  *         Shift right with 5 - 3 = 2
 318:Middlewares/lvgl/src/extra/themes/mono/../../../../src/hal/../misc/lv_color.h ****  */
 319:Middlewares/lvgl/src/extra/themes/mono/../../../../src/hal/../misc/lv_color.h **** static inline uint8_t lv_color_to1(lv_color_t color)
 320:Middlewares/lvgl/src/extra/themes/mono/../../../../src/hal/../misc/lv_color.h **** {
 321:Middlewares/lvgl/src/extra/themes/mono/../../../../src/hal/../misc/lv_color.h **** #if LV_COLOR_DEPTH == 1
 322:Middlewares/lvgl/src/extra/themes/mono/../../../../src/hal/../misc/lv_color.h ****     return color.full;
 323:Middlewares/lvgl/src/extra/themes/mono/../../../../src/hal/../misc/lv_color.h **** #elif LV_COLOR_DEPTH == 8
 324:Middlewares/lvgl/src/extra/themes/mono/../../../../src/hal/../misc/lv_color.h ****     if((LV_COLOR_GET_R(color) & 0x4) || (LV_COLOR_GET_G(color) & 0x4) || (LV_COLOR_GET_B(color) & 0
 325:Middlewares/lvgl/src/extra/themes/mono/../../../../src/hal/../misc/lv_color.h ****         return 1;
 326:Middlewares/lvgl/src/extra/themes/mono/../../../../src/hal/../misc/lv_color.h ****     }
 327:Middlewares/lvgl/src/extra/themes/mono/../../../../src/hal/../misc/lv_color.h ****     else {
 328:Middlewares/lvgl/src/extra/themes/mono/../../../../src/hal/../misc/lv_color.h ****         return 0;
 329:Middlewares/lvgl/src/extra/themes/mono/../../../../src/hal/../misc/lv_color.h ****     }
 330:Middlewares/lvgl/src/extra/themes/mono/../../../../src/hal/../misc/lv_color.h **** #elif LV_COLOR_DEPTH == 16
 331:Middlewares/lvgl/src/extra/themes/mono/../../../../src/hal/../misc/lv_color.h ****     if((LV_COLOR_GET_R(color) & 0x10) || (LV_COLOR_GET_G(color) & 0x20) || (LV_COLOR_GET_B(color) &
 332:Middlewares/lvgl/src/extra/themes/mono/../../../../src/hal/../misc/lv_color.h ****         return 1;
 333:Middlewares/lvgl/src/extra/themes/mono/../../../../src/hal/../misc/lv_color.h ****     }
 334:Middlewares/lvgl/src/extra/themes/mono/../../../../src/hal/../misc/lv_color.h ****     else {
 335:Middlewares/lvgl/src/extra/themes/mono/../../../../src/hal/../misc/lv_color.h ****         return 0;
 336:Middlewares/lvgl/src/extra/themes/mono/../../../../src/hal/../misc/lv_color.h ****     }
 337:Middlewares/lvgl/src/extra/themes/mono/../../../../src/hal/../misc/lv_color.h **** #elif LV_COLOR_DEPTH == 32
 338:Middlewares/lvgl/src/extra/themes/mono/../../../../src/hal/../misc/lv_color.h ****     if((LV_COLOR_GET_R(color) & 0x80) || (LV_COLOR_GET_G(color) & 0x80) || (LV_COLOR_GET_B(color) &
 339:Middlewares/lvgl/src/extra/themes/mono/../../../../src/hal/../misc/lv_color.h ****         return 1;
 340:Middlewares/lvgl/src/extra/themes/mono/../../../../src/hal/../misc/lv_color.h ****     }
 341:Middlewares/lvgl/src/extra/themes/mono/../../../../src/hal/../misc/lv_color.h ****     else {
 342:Middlewares/lvgl/src/extra/themes/mono/../../../../src/hal/../misc/lv_color.h ****         return 0;
 343:Middlewares/lvgl/src/extra/themes/mono/../../../../src/hal/../misc/lv_color.h ****     }
 344:Middlewares/lvgl/src/extra/themes/mono/../../../../src/hal/../misc/lv_color.h **** #endif
 345:Middlewares/lvgl/src/extra/themes/mono/../../../../src/hal/../misc/lv_color.h **** }
 346:Middlewares/lvgl/src/extra/themes/mono/../../../../src/hal/../misc/lv_color.h **** 
 347:Middlewares/lvgl/src/extra/themes/mono/../../../../src/hal/../misc/lv_color.h **** static inline uint8_t lv_color_to8(lv_color_t color)
 348:Middlewares/lvgl/src/extra/themes/mono/../../../../src/hal/../misc/lv_color.h **** {
 349:Middlewares/lvgl/src/extra/themes/mono/../../../../src/hal/../misc/lv_color.h **** #if LV_COLOR_DEPTH == 1
ARM GAS  /tmp/ccFxGgVE.s 			page 58


 350:Middlewares/lvgl/src/extra/themes/mono/../../../../src/hal/../misc/lv_color.h ****     if(color.full == 0)
 351:Middlewares/lvgl/src/extra/themes/mono/../../../../src/hal/../misc/lv_color.h ****         return 0;
 352:Middlewares/lvgl/src/extra/themes/mono/../../../../src/hal/../misc/lv_color.h ****     else
 353:Middlewares/lvgl/src/extra/themes/mono/../../../../src/hal/../misc/lv_color.h ****         return 0xFF;
 354:Middlewares/lvgl/src/extra/themes/mono/../../../../src/hal/../misc/lv_color.h **** #elif LV_COLOR_DEPTH == 8
 355:Middlewares/lvgl/src/extra/themes/mono/../../../../src/hal/../misc/lv_color.h ****     return color.full;
 356:Middlewares/lvgl/src/extra/themes/mono/../../../../src/hal/../misc/lv_color.h **** #elif LV_COLOR_DEPTH == 16
 357:Middlewares/lvgl/src/extra/themes/mono/../../../../src/hal/../misc/lv_color.h ****     lv_color8_t ret;
 358:Middlewares/lvgl/src/extra/themes/mono/../../../../src/hal/../misc/lv_color.h ****     LV_COLOR_SET_R8(ret, LV_COLOR_GET_R(color) >> 2); /*5 - 3  = 2*/
 359:Middlewares/lvgl/src/extra/themes/mono/../../../../src/hal/../misc/lv_color.h ****     LV_COLOR_SET_G8(ret, LV_COLOR_GET_G(color) >> 3); /*6 - 3  = 3*/
 360:Middlewares/lvgl/src/extra/themes/mono/../../../../src/hal/../misc/lv_color.h ****     LV_COLOR_SET_B8(ret, LV_COLOR_GET_B(color) >> 3); /*5 - 2  = 3*/
 361:Middlewares/lvgl/src/extra/themes/mono/../../../../src/hal/../misc/lv_color.h ****     return ret.full;
 362:Middlewares/lvgl/src/extra/themes/mono/../../../../src/hal/../misc/lv_color.h **** #elif LV_COLOR_DEPTH == 32
 363:Middlewares/lvgl/src/extra/themes/mono/../../../../src/hal/../misc/lv_color.h ****     lv_color8_t ret;
 364:Middlewares/lvgl/src/extra/themes/mono/../../../../src/hal/../misc/lv_color.h ****     LV_COLOR_SET_R8(ret, LV_COLOR_GET_R(color) >> 5); /*8 - 3  = 5*/
 365:Middlewares/lvgl/src/extra/themes/mono/../../../../src/hal/../misc/lv_color.h ****     LV_COLOR_SET_G8(ret, LV_COLOR_GET_G(color) >> 5); /*8 - 3  = 5*/
 366:Middlewares/lvgl/src/extra/themes/mono/../../../../src/hal/../misc/lv_color.h ****     LV_COLOR_SET_B8(ret, LV_COLOR_GET_B(color) >> 6); /*8 - 2  = 6*/
 367:Middlewares/lvgl/src/extra/themes/mono/../../../../src/hal/../misc/lv_color.h ****     return ret.full;
 368:Middlewares/lvgl/src/extra/themes/mono/../../../../src/hal/../misc/lv_color.h **** #endif
 369:Middlewares/lvgl/src/extra/themes/mono/../../../../src/hal/../misc/lv_color.h **** }
 370:Middlewares/lvgl/src/extra/themes/mono/../../../../src/hal/../misc/lv_color.h **** 
 371:Middlewares/lvgl/src/extra/themes/mono/../../../../src/hal/../misc/lv_color.h **** static inline uint16_t lv_color_to16(lv_color_t color)
 372:Middlewares/lvgl/src/extra/themes/mono/../../../../src/hal/../misc/lv_color.h **** {
 373:Middlewares/lvgl/src/extra/themes/mono/../../../../src/hal/../misc/lv_color.h **** #if LV_COLOR_DEPTH == 1
 374:Middlewares/lvgl/src/extra/themes/mono/../../../../src/hal/../misc/lv_color.h ****     if(color.full == 0)
 375:Middlewares/lvgl/src/extra/themes/mono/../../../../src/hal/../misc/lv_color.h ****         return 0;
 376:Middlewares/lvgl/src/extra/themes/mono/../../../../src/hal/../misc/lv_color.h ****     else
 377:Middlewares/lvgl/src/extra/themes/mono/../../../../src/hal/../misc/lv_color.h ****         return 0xFFFF;
 378:Middlewares/lvgl/src/extra/themes/mono/../../../../src/hal/../misc/lv_color.h **** #elif LV_COLOR_DEPTH == 8
 379:Middlewares/lvgl/src/extra/themes/mono/../../../../src/hal/../misc/lv_color.h ****     lv_color16_t ret;
 380:Middlewares/lvgl/src/extra/themes/mono/../../../../src/hal/../misc/lv_color.h ****     LV_COLOR_SET_R16(ret, LV_COLOR_GET_R(color) * 4);  /*(2^5 - 1)/(2^3 - 1) = 31/7 = 4*/
 381:Middlewares/lvgl/src/extra/themes/mono/../../../../src/hal/../misc/lv_color.h ****     LV_COLOR_SET_G16(ret, LV_COLOR_GET_G(color) * 9);  /*(2^6 - 1)/(2^3 - 1) = 63/7 = 9*/
 382:Middlewares/lvgl/src/extra/themes/mono/../../../../src/hal/../misc/lv_color.h ****     LV_COLOR_SET_B16(ret, LV_COLOR_GET_B(color) * 10); /*(2^5 - 1)/(2^2 - 1) = 31/3 = 10*/
 383:Middlewares/lvgl/src/extra/themes/mono/../../../../src/hal/../misc/lv_color.h ****     return ret.full;
 384:Middlewares/lvgl/src/extra/themes/mono/../../../../src/hal/../misc/lv_color.h **** #elif LV_COLOR_DEPTH == 16
 385:Middlewares/lvgl/src/extra/themes/mono/../../../../src/hal/../misc/lv_color.h ****     return color.full;
 386:Middlewares/lvgl/src/extra/themes/mono/../../../../src/hal/../misc/lv_color.h **** #elif LV_COLOR_DEPTH == 32
 387:Middlewares/lvgl/src/extra/themes/mono/../../../../src/hal/../misc/lv_color.h ****     lv_color16_t ret;
 388:Middlewares/lvgl/src/extra/themes/mono/../../../../src/hal/../misc/lv_color.h ****     LV_COLOR_SET_R16(ret, LV_COLOR_GET_R(color) >> 3); /*8 - 5  = 3*/
 389:Middlewares/lvgl/src/extra/themes/mono/../../../../src/hal/../misc/lv_color.h ****     LV_COLOR_SET_G16(ret, LV_COLOR_GET_G(color) >> 2); /*8 - 6  = 2*/
 390:Middlewares/lvgl/src/extra/themes/mono/../../../../src/hal/../misc/lv_color.h ****     LV_COLOR_SET_B16(ret, LV_COLOR_GET_B(color) >> 3); /*8 - 5  = 3*/
 391:Middlewares/lvgl/src/extra/themes/mono/../../../../src/hal/../misc/lv_color.h ****     return ret.full;
 392:Middlewares/lvgl/src/extra/themes/mono/../../../../src/hal/../misc/lv_color.h **** #endif
 393:Middlewares/lvgl/src/extra/themes/mono/../../../../src/hal/../misc/lv_color.h **** }
 394:Middlewares/lvgl/src/extra/themes/mono/../../../../src/hal/../misc/lv_color.h **** 
 395:Middlewares/lvgl/src/extra/themes/mono/../../../../src/hal/../misc/lv_color.h **** static inline uint32_t lv_color_to32(lv_color_t color)
 396:Middlewares/lvgl/src/extra/themes/mono/../../../../src/hal/../misc/lv_color.h **** {
 397:Middlewares/lvgl/src/extra/themes/mono/../../../../src/hal/../misc/lv_color.h **** #if LV_COLOR_DEPTH == 1
 398:Middlewares/lvgl/src/extra/themes/mono/../../../../src/hal/../misc/lv_color.h ****     if(color.full == 0)
 399:Middlewares/lvgl/src/extra/themes/mono/../../../../src/hal/../misc/lv_color.h ****         return 0xFF000000;
 400:Middlewares/lvgl/src/extra/themes/mono/../../../../src/hal/../misc/lv_color.h ****     else
 401:Middlewares/lvgl/src/extra/themes/mono/../../../../src/hal/../misc/lv_color.h ****         return 0xFFFFFFFF;
 402:Middlewares/lvgl/src/extra/themes/mono/../../../../src/hal/../misc/lv_color.h **** #elif LV_COLOR_DEPTH == 8
 403:Middlewares/lvgl/src/extra/themes/mono/../../../../src/hal/../misc/lv_color.h ****     lv_color32_t ret;
 404:Middlewares/lvgl/src/extra/themes/mono/../../../../src/hal/../misc/lv_color.h ****     LV_COLOR_SET_R32(ret, LV_COLOR_GET_R(color) * 36); /*(2^8 - 1)/(2^3 - 1) = 255/7 = 36*/
 405:Middlewares/lvgl/src/extra/themes/mono/../../../../src/hal/../misc/lv_color.h ****     LV_COLOR_SET_G32(ret, LV_COLOR_GET_G(color) * 36); /*(2^8 - 1)/(2^3 - 1) = 255/7 = 36*/
 406:Middlewares/lvgl/src/extra/themes/mono/../../../../src/hal/../misc/lv_color.h ****     LV_COLOR_SET_B32(ret, LV_COLOR_GET_B(color) * 85); /*(2^8 - 1)/(2^2 - 1) = 255/3 = 85*/
ARM GAS  /tmp/ccFxGgVE.s 			page 59


 407:Middlewares/lvgl/src/extra/themes/mono/../../../../src/hal/../misc/lv_color.h ****     LV_COLOR_SET_A32(ret, 0xFF);
 408:Middlewares/lvgl/src/extra/themes/mono/../../../../src/hal/../misc/lv_color.h ****     return ret.full;
 409:Middlewares/lvgl/src/extra/themes/mono/../../../../src/hal/../misc/lv_color.h **** #elif LV_COLOR_DEPTH == 16
 410:Middlewares/lvgl/src/extra/themes/mono/../../../../src/hal/../misc/lv_color.h ****     /**
 411:Middlewares/lvgl/src/extra/themes/mono/../../../../src/hal/../misc/lv_color.h ****      * The floating point math for conversion is:
 412:Middlewares/lvgl/src/extra/themes/mono/../../../../src/hal/../misc/lv_color.h ****      *  valueto = valuefrom * ( (2^bitsto - 1) / (float)(2^bitsfrom - 1) )
 413:Middlewares/lvgl/src/extra/themes/mono/../../../../src/hal/../misc/lv_color.h ****      * The faster integer math for conversion is:
 414:Middlewares/lvgl/src/extra/themes/mono/../../../../src/hal/../misc/lv_color.h ****      *  valueto = ( valuefrom * multiplier + adder ) >> divisor
 415:Middlewares/lvgl/src/extra/themes/mono/../../../../src/hal/../misc/lv_color.h ****      *   multiplier = FLOOR( ( (2^bitsto - 1) << divisor ) / (float)(2^bitsfrom - 1) )
 416:Middlewares/lvgl/src/extra/themes/mono/../../../../src/hal/../misc/lv_color.h ****      *
 417:Middlewares/lvgl/src/extra/themes/mono/../../../../src/hal/../misc/lv_color.h ****      * Find the first divisor where ( adder >> divisor ) <= 0
 418:Middlewares/lvgl/src/extra/themes/mono/../../../../src/hal/../misc/lv_color.h ****      *
 419:Middlewares/lvgl/src/extra/themes/mono/../../../../src/hal/../misc/lv_color.h ****      * 5-bit to 8-bit: ( 31 * multiplier + adder ) >> divisor = 255
 420:Middlewares/lvgl/src/extra/themes/mono/../../../../src/hal/../misc/lv_color.h ****      * divisor  multiplier  adder  min (0)  max (31)
 421:Middlewares/lvgl/src/extra/themes/mono/../../../../src/hal/../misc/lv_color.h ****      *       0           8      7        7       255
 422:Middlewares/lvgl/src/extra/themes/mono/../../../../src/hal/../misc/lv_color.h ****      *       1          16     14        7       255
 423:Middlewares/lvgl/src/extra/themes/mono/../../../../src/hal/../misc/lv_color.h ****      *       2          32     28        7       255
 424:Middlewares/lvgl/src/extra/themes/mono/../../../../src/hal/../misc/lv_color.h ****      *       3          65     25        3       255
 425:Middlewares/lvgl/src/extra/themes/mono/../../../../src/hal/../misc/lv_color.h ****      *       4         131     19        1       255
 426:Middlewares/lvgl/src/extra/themes/mono/../../../../src/hal/../misc/lv_color.h ****      *       5         263      7        0       255
 427:Middlewares/lvgl/src/extra/themes/mono/../../../../src/hal/../misc/lv_color.h ****      *
 428:Middlewares/lvgl/src/extra/themes/mono/../../../../src/hal/../misc/lv_color.h ****      * 6-bit to 8-bit: 255 = ( 63 * multiplier + adder ) >> divisor
 429:Middlewares/lvgl/src/extra/themes/mono/../../../../src/hal/../misc/lv_color.h ****      * divisor  multiplier  adder  min (0)  max (63)
 430:Middlewares/lvgl/src/extra/themes/mono/../../../../src/hal/../misc/lv_color.h ****      *       0           4      3        3       255
 431:Middlewares/lvgl/src/extra/themes/mono/../../../../src/hal/../misc/lv_color.h ****      *       1           8      6        3       255
 432:Middlewares/lvgl/src/extra/themes/mono/../../../../src/hal/../misc/lv_color.h ****      *       2          16     12        3       255
 433:Middlewares/lvgl/src/extra/themes/mono/../../../../src/hal/../misc/lv_color.h ****      *       3          32     24        3       255
 434:Middlewares/lvgl/src/extra/themes/mono/../../../../src/hal/../misc/lv_color.h ****      *       4          64     48        3       255
 435:Middlewares/lvgl/src/extra/themes/mono/../../../../src/hal/../misc/lv_color.h ****      *       5         129     33        1       255
 436:Middlewares/lvgl/src/extra/themes/mono/../../../../src/hal/../misc/lv_color.h ****      *       6         259      3        0       255
 437:Middlewares/lvgl/src/extra/themes/mono/../../../../src/hal/../misc/lv_color.h ****      */
 438:Middlewares/lvgl/src/extra/themes/mono/../../../../src/hal/../misc/lv_color.h **** 
 439:Middlewares/lvgl/src/extra/themes/mono/../../../../src/hal/../misc/lv_color.h ****     lv_color32_t ret;
 440:Middlewares/lvgl/src/extra/themes/mono/../../../../src/hal/../misc/lv_color.h ****     LV_COLOR_SET_R32(ret, (LV_COLOR_GET_R(color) * 263 + 7) >> 5);
 441:Middlewares/lvgl/src/extra/themes/mono/../../../../src/hal/../misc/lv_color.h ****     LV_COLOR_SET_G32(ret, (LV_COLOR_GET_G(color) * 259 + 3) >> 6);
 442:Middlewares/lvgl/src/extra/themes/mono/../../../../src/hal/../misc/lv_color.h ****     LV_COLOR_SET_B32(ret, (LV_COLOR_GET_B(color) * 263 + 7) >> 5);
 443:Middlewares/lvgl/src/extra/themes/mono/../../../../src/hal/../misc/lv_color.h ****     LV_COLOR_SET_A32(ret, 0xFF);
 444:Middlewares/lvgl/src/extra/themes/mono/../../../../src/hal/../misc/lv_color.h ****     return ret.full;
 445:Middlewares/lvgl/src/extra/themes/mono/../../../../src/hal/../misc/lv_color.h **** #elif LV_COLOR_DEPTH == 32
 446:Middlewares/lvgl/src/extra/themes/mono/../../../../src/hal/../misc/lv_color.h ****     return color.full;
 447:Middlewares/lvgl/src/extra/themes/mono/../../../../src/hal/../misc/lv_color.h **** #endif
 448:Middlewares/lvgl/src/extra/themes/mono/../../../../src/hal/../misc/lv_color.h **** }
 449:Middlewares/lvgl/src/extra/themes/mono/../../../../src/hal/../misc/lv_color.h **** 
 450:Middlewares/lvgl/src/extra/themes/mono/../../../../src/hal/../misc/lv_color.h **** //! @cond Doxygen_Suppress
 451:Middlewares/lvgl/src/extra/themes/mono/../../../../src/hal/../misc/lv_color.h **** 
 452:Middlewares/lvgl/src/extra/themes/mono/../../../../src/hal/../misc/lv_color.h **** /**
 453:Middlewares/lvgl/src/extra/themes/mono/../../../../src/hal/../misc/lv_color.h ****  * Mix two colors with a given ratio.
 454:Middlewares/lvgl/src/extra/themes/mono/../../../../src/hal/../misc/lv_color.h ****  * @param c1 the first color to mix (usually the foreground)
 455:Middlewares/lvgl/src/extra/themes/mono/../../../../src/hal/../misc/lv_color.h ****  * @param c2 the second color to mix (usually the background)
 456:Middlewares/lvgl/src/extra/themes/mono/../../../../src/hal/../misc/lv_color.h ****  * @param mix The ratio of the colors. 0: full `c2`, 255: full `c1`, 127: half `c1` and half`c2`
 457:Middlewares/lvgl/src/extra/themes/mono/../../../../src/hal/../misc/lv_color.h ****  * @return the mixed color
 458:Middlewares/lvgl/src/extra/themes/mono/../../../../src/hal/../misc/lv_color.h ****  */
 459:Middlewares/lvgl/src/extra/themes/mono/../../../../src/hal/../misc/lv_color.h **** LV_ATTRIBUTE_FAST_MEM static inline lv_color_t lv_color_mix(lv_color_t c1, lv_color_t c2, uint8_t m
 460:Middlewares/lvgl/src/extra/themes/mono/../../../../src/hal/../misc/lv_color.h **** {
 461:Middlewares/lvgl/src/extra/themes/mono/../../../../src/hal/../misc/lv_color.h ****     lv_color_t ret;
 462:Middlewares/lvgl/src/extra/themes/mono/../../../../src/hal/../misc/lv_color.h **** #if LV_COLOR_DEPTH != 1
 463:Middlewares/lvgl/src/extra/themes/mono/../../../../src/hal/../misc/lv_color.h ****     /*LV_COLOR_DEPTH == 8, 16 or 32*/
ARM GAS  /tmp/ccFxGgVE.s 			page 60


 464:Middlewares/lvgl/src/extra/themes/mono/../../../../src/hal/../misc/lv_color.h ****     LV_COLOR_SET_R(ret, LV_UDIV255((uint16_t) LV_COLOR_GET_R(c1) * mix + LV_COLOR_GET_R(c2) *
 465:Middlewares/lvgl/src/extra/themes/mono/../../../../src/hal/../misc/lv_color.h ****                                         (255 - mix) + LV_COLOR_MIX_ROUND_OFS));
 466:Middlewares/lvgl/src/extra/themes/mono/../../../../src/hal/../misc/lv_color.h ****     LV_COLOR_SET_G(ret, LV_UDIV255((uint16_t) LV_COLOR_GET_G(c1) * mix + LV_COLOR_GET_G(c2) *
 467:Middlewares/lvgl/src/extra/themes/mono/../../../../src/hal/../misc/lv_color.h ****                                         (255 - mix) + LV_COLOR_MIX_ROUND_OFS));
 468:Middlewares/lvgl/src/extra/themes/mono/../../../../src/hal/../misc/lv_color.h ****     LV_COLOR_SET_B(ret, LV_UDIV255((uint16_t) LV_COLOR_GET_B(c1) * mix + LV_COLOR_GET_B(c2) *
 469:Middlewares/lvgl/src/extra/themes/mono/../../../../src/hal/../misc/lv_color.h ****                                         (255 - mix) + LV_COLOR_MIX_ROUND_OFS));
 470:Middlewares/lvgl/src/extra/themes/mono/../../../../src/hal/../misc/lv_color.h ****     LV_COLOR_SET_A(ret, 0xFF);
 471:Middlewares/lvgl/src/extra/themes/mono/../../../../src/hal/../misc/lv_color.h **** #else
 472:Middlewares/lvgl/src/extra/themes/mono/../../../../src/hal/../misc/lv_color.h ****     /*LV_COLOR_DEPTH == 1*/
 473:Middlewares/lvgl/src/extra/themes/mono/../../../../src/hal/../misc/lv_color.h ****     ret.full = mix > LV_OPA_50 ? c1.full : c2.full;
 474:Middlewares/lvgl/src/extra/themes/mono/../../../../src/hal/../misc/lv_color.h **** #endif
 475:Middlewares/lvgl/src/extra/themes/mono/../../../../src/hal/../misc/lv_color.h **** 
 476:Middlewares/lvgl/src/extra/themes/mono/../../../../src/hal/../misc/lv_color.h ****     return ret;
 477:Middlewares/lvgl/src/extra/themes/mono/../../../../src/hal/../misc/lv_color.h **** }
 478:Middlewares/lvgl/src/extra/themes/mono/../../../../src/hal/../misc/lv_color.h **** 
 479:Middlewares/lvgl/src/extra/themes/mono/../../../../src/hal/../misc/lv_color.h **** LV_ATTRIBUTE_FAST_MEM static inline void lv_color_premult(lv_color_t c, uint8_t mix, uint16_t * out
 480:Middlewares/lvgl/src/extra/themes/mono/../../../../src/hal/../misc/lv_color.h **** {
