ARM GAS  /tmp/cctamPcj.s 			page 1


   1              		.cpu cortex-m7
   2              		.arch armv7e-m
   3              		.fpu fpv5-d16
   4              		.eabi_attribute 28, 1
   5              		.eabi_attribute 20, 1
   6              		.eabi_attribute 21, 1
   7              		.eabi_attribute 23, 3
   8              		.eabi_attribute 24, 1
   9              		.eabi_attribute 25, 1
  10              		.eabi_attribute 26, 1
  11              		.eabi_attribute 30, 1
  12              		.eabi_attribute 34, 1
  13              		.eabi_attribute 18, 4
  14              		.file	"lv_textarea.c"
  15              		.text
  16              	.Ltext0:
  17              		.cfi_sections	.debug_frame
  18              		.section	.text.pwd_char_hider_anim,"ax",%progbits
  19              		.align	1
  20              		.syntax unified
  21              		.thumb
  22              		.thumb_func
  24              	pwd_char_hider_anim:
  25              	.LVL0:
  26              	.LFB185:
  27              		.file 1 "Middlewares/lvgl/src/widgets/lv_textarea.c"
   1:Middlewares/lvgl/src/widgets/lv_textarea.c **** /**
   2:Middlewares/lvgl/src/widgets/lv_textarea.c ****  * @file lv_ta.c
   3:Middlewares/lvgl/src/widgets/lv_textarea.c ****  *
   4:Middlewares/lvgl/src/widgets/lv_textarea.c ****  */
   5:Middlewares/lvgl/src/widgets/lv_textarea.c **** 
   6:Middlewares/lvgl/src/widgets/lv_textarea.c **** /*********************
   7:Middlewares/lvgl/src/widgets/lv_textarea.c ****  *      INCLUDES
   8:Middlewares/lvgl/src/widgets/lv_textarea.c ****  *********************/
   9:Middlewares/lvgl/src/widgets/lv_textarea.c **** #include "lv_textarea.h"
  10:Middlewares/lvgl/src/widgets/lv_textarea.c **** #if LV_USE_TEXTAREA != 0
  11:Middlewares/lvgl/src/widgets/lv_textarea.c **** 
  12:Middlewares/lvgl/src/widgets/lv_textarea.c **** #include <string.h>
  13:Middlewares/lvgl/src/widgets/lv_textarea.c **** #include "../misc/lv_assert.h"
  14:Middlewares/lvgl/src/widgets/lv_textarea.c **** #include "../core/lv_group.h"
  15:Middlewares/lvgl/src/widgets/lv_textarea.c **** #include "../core/lv_refr.h"
  16:Middlewares/lvgl/src/widgets/lv_textarea.c **** #include "../core/lv_indev.h"
  17:Middlewares/lvgl/src/widgets/lv_textarea.c **** #include "../draw/lv_draw.h"
  18:Middlewares/lvgl/src/widgets/lv_textarea.c **** #include "../misc/lv_anim.h"
  19:Middlewares/lvgl/src/widgets/lv_textarea.c **** #include "../misc/lv_txt.h"
  20:Middlewares/lvgl/src/widgets/lv_textarea.c **** #include "../misc/lv_math.h"
  21:Middlewares/lvgl/src/widgets/lv_textarea.c **** 
  22:Middlewares/lvgl/src/widgets/lv_textarea.c **** /*********************
  23:Middlewares/lvgl/src/widgets/lv_textarea.c ****  *      DEFINES
  24:Middlewares/lvgl/src/widgets/lv_textarea.c ****  *********************/
  25:Middlewares/lvgl/src/widgets/lv_textarea.c **** #define MY_CLASS &lv_textarea_class
  26:Middlewares/lvgl/src/widgets/lv_textarea.c **** 
  27:Middlewares/lvgl/src/widgets/lv_textarea.c **** /*Test configuration*/
  28:Middlewares/lvgl/src/widgets/lv_textarea.c **** #ifndef LV_TEXTAREA_DEF_CURSOR_BLINK_TIME
  29:Middlewares/lvgl/src/widgets/lv_textarea.c ****     #define LV_TEXTAREA_DEF_CURSOR_BLINK_TIME 400 /*ms*/
  30:Middlewares/lvgl/src/widgets/lv_textarea.c **** #endif
  31:Middlewares/lvgl/src/widgets/lv_textarea.c **** 
ARM GAS  /tmp/cctamPcj.s 			page 2


  32:Middlewares/lvgl/src/widgets/lv_textarea.c **** #ifndef LV_TEXTAREA_DEF_PWD_SHOW_TIME
  33:Middlewares/lvgl/src/widgets/lv_textarea.c ****     #define LV_TEXTAREA_DEF_PWD_SHOW_TIME 1500 /*ms*/
  34:Middlewares/lvgl/src/widgets/lv_textarea.c **** #endif
  35:Middlewares/lvgl/src/widgets/lv_textarea.c **** 
  36:Middlewares/lvgl/src/widgets/lv_textarea.c **** #define LV_TEXTAREA_PWD_BULLET_UNICODE      0x2022
  37:Middlewares/lvgl/src/widgets/lv_textarea.c **** 
  38:Middlewares/lvgl/src/widgets/lv_textarea.c **** /**********************
  39:Middlewares/lvgl/src/widgets/lv_textarea.c ****  *      TYPEDEFS
  40:Middlewares/lvgl/src/widgets/lv_textarea.c ****  **********************/
  41:Middlewares/lvgl/src/widgets/lv_textarea.c **** 
  42:Middlewares/lvgl/src/widgets/lv_textarea.c **** /**********************
  43:Middlewares/lvgl/src/widgets/lv_textarea.c ****  *  STATIC PROTOTYPES
  44:Middlewares/lvgl/src/widgets/lv_textarea.c ****  **********************/
  45:Middlewares/lvgl/src/widgets/lv_textarea.c **** static void lv_textarea_constructor(const lv_obj_class_t * class_p, lv_obj_t * obj);
  46:Middlewares/lvgl/src/widgets/lv_textarea.c **** static void lv_textarea_destructor(const lv_obj_class_t * class_p, lv_obj_t * obj);
  47:Middlewares/lvgl/src/widgets/lv_textarea.c **** static void lv_textarea_event(const lv_obj_class_t * class_p, lv_event_t * e);
  48:Middlewares/lvgl/src/widgets/lv_textarea.c **** static void cursor_blink_anim_cb(void * obj, int32_t show);
  49:Middlewares/lvgl/src/widgets/lv_textarea.c **** static void pwd_char_hider_anim(void * obj, int32_t x);
  50:Middlewares/lvgl/src/widgets/lv_textarea.c **** static void pwd_char_hider_anim_ready(lv_anim_t * a);
  51:Middlewares/lvgl/src/widgets/lv_textarea.c **** static void pwd_char_hider(lv_obj_t * obj);
  52:Middlewares/lvgl/src/widgets/lv_textarea.c **** static bool char_is_accepted(lv_obj_t * obj, uint32_t c);
  53:Middlewares/lvgl/src/widgets/lv_textarea.c **** static void start_cursor_blink(lv_obj_t * obj);
  54:Middlewares/lvgl/src/widgets/lv_textarea.c **** static void refr_cursor_area(lv_obj_t * obj);
  55:Middlewares/lvgl/src/widgets/lv_textarea.c **** static void update_cursor_position_on_click(lv_event_t * e);
  56:Middlewares/lvgl/src/widgets/lv_textarea.c **** static lv_res_t insert_handler(lv_obj_t * obj, const char * txt);
  57:Middlewares/lvgl/src/widgets/lv_textarea.c **** static void draw_placeholder(lv_event_t * e);
  58:Middlewares/lvgl/src/widgets/lv_textarea.c **** static void draw_cursor(lv_event_t * e);
  59:Middlewares/lvgl/src/widgets/lv_textarea.c **** 
  60:Middlewares/lvgl/src/widgets/lv_textarea.c **** /**********************
  61:Middlewares/lvgl/src/widgets/lv_textarea.c ****  *  STATIC VARIABLES
  62:Middlewares/lvgl/src/widgets/lv_textarea.c ****  **********************/
  63:Middlewares/lvgl/src/widgets/lv_textarea.c **** const lv_obj_class_t lv_textarea_class = {
  64:Middlewares/lvgl/src/widgets/lv_textarea.c ****     .constructor_cb = lv_textarea_constructor,
  65:Middlewares/lvgl/src/widgets/lv_textarea.c ****     .destructor_cb = lv_textarea_destructor,
  66:Middlewares/lvgl/src/widgets/lv_textarea.c ****     .event_cb = lv_textarea_event,
  67:Middlewares/lvgl/src/widgets/lv_textarea.c ****     .group_def = LV_OBJ_CLASS_GROUP_DEF_TRUE,
  68:Middlewares/lvgl/src/widgets/lv_textarea.c ****     .width_def = LV_DPI_DEF * 2,
  69:Middlewares/lvgl/src/widgets/lv_textarea.c ****     .height_def = LV_DPI_DEF,
  70:Middlewares/lvgl/src/widgets/lv_textarea.c ****     .instance_size = sizeof(lv_textarea_t),
  71:Middlewares/lvgl/src/widgets/lv_textarea.c ****     .base_class = &lv_obj_class
  72:Middlewares/lvgl/src/widgets/lv_textarea.c **** };
  73:Middlewares/lvgl/src/widgets/lv_textarea.c **** 
  74:Middlewares/lvgl/src/widgets/lv_textarea.c **** static const char * ta_insert_replace;
  75:Middlewares/lvgl/src/widgets/lv_textarea.c **** 
  76:Middlewares/lvgl/src/widgets/lv_textarea.c **** /**********************
  77:Middlewares/lvgl/src/widgets/lv_textarea.c ****  *      MACROS
  78:Middlewares/lvgl/src/widgets/lv_textarea.c ****  **********************/
  79:Middlewares/lvgl/src/widgets/lv_textarea.c **** 
  80:Middlewares/lvgl/src/widgets/lv_textarea.c **** /**********************
  81:Middlewares/lvgl/src/widgets/lv_textarea.c ****  *   GLOBAL FUNCTIONS
  82:Middlewares/lvgl/src/widgets/lv_textarea.c ****  **********************/
  83:Middlewares/lvgl/src/widgets/lv_textarea.c **** 
  84:Middlewares/lvgl/src/widgets/lv_textarea.c **** lv_obj_t * lv_textarea_create(lv_obj_t * parent)
  85:Middlewares/lvgl/src/widgets/lv_textarea.c **** {
  86:Middlewares/lvgl/src/widgets/lv_textarea.c ****     LV_LOG_INFO("begin")
  87:Middlewares/lvgl/src/widgets/lv_textarea.c ****     lv_obj_t * obj = lv_obj_class_create_obj(MY_CLASS, parent);
  88:Middlewares/lvgl/src/widgets/lv_textarea.c ****     lv_obj_class_init_obj(obj);
ARM GAS  /tmp/cctamPcj.s 			page 3


  89:Middlewares/lvgl/src/widgets/lv_textarea.c ****     return obj;
  90:Middlewares/lvgl/src/widgets/lv_textarea.c **** }
  91:Middlewares/lvgl/src/widgets/lv_textarea.c **** 
  92:Middlewares/lvgl/src/widgets/lv_textarea.c **** /*======================
  93:Middlewares/lvgl/src/widgets/lv_textarea.c ****  * Add/remove functions
  94:Middlewares/lvgl/src/widgets/lv_textarea.c ****  *=====================*/
  95:Middlewares/lvgl/src/widgets/lv_textarea.c **** 
  96:Middlewares/lvgl/src/widgets/lv_textarea.c **** void lv_textarea_add_char(lv_obj_t * obj, uint32_t c)
  97:Middlewares/lvgl/src/widgets/lv_textarea.c **** {
  98:Middlewares/lvgl/src/widgets/lv_textarea.c ****     LV_ASSERT_OBJ(obj, MY_CLASS);
  99:Middlewares/lvgl/src/widgets/lv_textarea.c **** 
 100:Middlewares/lvgl/src/widgets/lv_textarea.c ****      lv_textarea_t * ta = (lv_textarea_t *)obj;
 101:Middlewares/lvgl/src/widgets/lv_textarea.c **** 
 102:Middlewares/lvgl/src/widgets/lv_textarea.c ****     const char * letter_buf;
 103:Middlewares/lvgl/src/widgets/lv_textarea.c **** 
 104:Middlewares/lvgl/src/widgets/lv_textarea.c ****     uint32_t u32_buf[2];
 105:Middlewares/lvgl/src/widgets/lv_textarea.c ****     u32_buf[0] = c;
 106:Middlewares/lvgl/src/widgets/lv_textarea.c ****     u32_buf[1] = 0;
 107:Middlewares/lvgl/src/widgets/lv_textarea.c **** 
 108:Middlewares/lvgl/src/widgets/lv_textarea.c ****     letter_buf = (char *)&u32_buf;
 109:Middlewares/lvgl/src/widgets/lv_textarea.c **** 
 110:Middlewares/lvgl/src/widgets/lv_textarea.c **** #if LV_BIG_ENDIAN_SYSTEM
 111:Middlewares/lvgl/src/widgets/lv_textarea.c ****     if(c != 0) while(*letter_buf == 0) ++letter_buf;
 112:Middlewares/lvgl/src/widgets/lv_textarea.c **** #endif
 113:Middlewares/lvgl/src/widgets/lv_textarea.c **** 
 114:Middlewares/lvgl/src/widgets/lv_textarea.c ****     lv_res_t res = insert_handler(obj, letter_buf);
 115:Middlewares/lvgl/src/widgets/lv_textarea.c ****     if(res != LV_RES_OK) return;
 116:Middlewares/lvgl/src/widgets/lv_textarea.c **** 
 117:Middlewares/lvgl/src/widgets/lv_textarea.c ****     if(ta->one_line && (c == '\n' || c == '\r')) {
 118:Middlewares/lvgl/src/widgets/lv_textarea.c ****         LV_LOG_INFO("Text area: line break ignored in one-line mode");
 119:Middlewares/lvgl/src/widgets/lv_textarea.c ****         return;
 120:Middlewares/lvgl/src/widgets/lv_textarea.c ****     }
 121:Middlewares/lvgl/src/widgets/lv_textarea.c **** 
 122:Middlewares/lvgl/src/widgets/lv_textarea.c ****     uint32_t c_uni = _lv_txt_encoded_next((const char *)&c, NULL);
 123:Middlewares/lvgl/src/widgets/lv_textarea.c **** 
 124:Middlewares/lvgl/src/widgets/lv_textarea.c ****     if(char_is_accepted(obj, c_uni) == false) {
 125:Middlewares/lvgl/src/widgets/lv_textarea.c ****         LV_LOG_INFO("Character is not accepted by the text area (too long text or not in the accept
 126:Middlewares/lvgl/src/widgets/lv_textarea.c ****         return;
 127:Middlewares/lvgl/src/widgets/lv_textarea.c ****     }
 128:Middlewares/lvgl/src/widgets/lv_textarea.c **** 
 129:Middlewares/lvgl/src/widgets/lv_textarea.c ****     if(ta->pwd_mode != 0) pwd_char_hider(obj); /*Make sure all the current text contains only '*'*/
 130:Middlewares/lvgl/src/widgets/lv_textarea.c **** 
 131:Middlewares/lvgl/src/widgets/lv_textarea.c ****     /*If the textarea is empty, invalidate it to hide the placeholder*/
 132:Middlewares/lvgl/src/widgets/lv_textarea.c ****     if(ta->placeholder_txt) {
 133:Middlewares/lvgl/src/widgets/lv_textarea.c ****         const char * txt = lv_label_get_text(ta->label);
 134:Middlewares/lvgl/src/widgets/lv_textarea.c ****         if(txt[0] == '\0') lv_obj_invalidate(obj);
 135:Middlewares/lvgl/src/widgets/lv_textarea.c ****     }
 136:Middlewares/lvgl/src/widgets/lv_textarea.c **** 
 137:Middlewares/lvgl/src/widgets/lv_textarea.c ****     lv_label_ins_text(ta->label, ta->cursor.pos, letter_buf); /*Insert the character*/
 138:Middlewares/lvgl/src/widgets/lv_textarea.c ****     lv_textarea_clear_selection(obj);                                                /*Clear select
 139:Middlewares/lvgl/src/widgets/lv_textarea.c **** 
 140:Middlewares/lvgl/src/widgets/lv_textarea.c ****     if(ta->pwd_mode != 0) {
 141:Middlewares/lvgl/src/widgets/lv_textarea.c ****         ta->pwd_tmp = lv_mem_realloc(ta->pwd_tmp, strlen(ta->pwd_tmp) + strlen(letter_buf) + 1); /*
 142:Middlewares/lvgl/src/widgets/lv_textarea.c ****         LV_ASSERT_MALLOC(ta->pwd_tmp);
 143:Middlewares/lvgl/src/widgets/lv_textarea.c ****         if(ta->pwd_tmp == NULL) return;
 144:Middlewares/lvgl/src/widgets/lv_textarea.c **** 
 145:Middlewares/lvgl/src/widgets/lv_textarea.c ****         _lv_txt_ins(ta->pwd_tmp, ta->cursor.pos, (const char *)letter_buf);
ARM GAS  /tmp/cctamPcj.s 			page 4


 146:Middlewares/lvgl/src/widgets/lv_textarea.c **** 
 147:Middlewares/lvgl/src/widgets/lv_textarea.c ****         /*Auto hide characters*/
 148:Middlewares/lvgl/src/widgets/lv_textarea.c ****         if(ta->pwd_show_time == 0) {
 149:Middlewares/lvgl/src/widgets/lv_textarea.c ****             pwd_char_hider(obj);
 150:Middlewares/lvgl/src/widgets/lv_textarea.c ****         }
 151:Middlewares/lvgl/src/widgets/lv_textarea.c ****         else {
 152:Middlewares/lvgl/src/widgets/lv_textarea.c ****             lv_anim_t a;
 153:Middlewares/lvgl/src/widgets/lv_textarea.c ****             lv_anim_init(&a);
 154:Middlewares/lvgl/src/widgets/lv_textarea.c ****             lv_anim_set_var(&a, ta);
 155:Middlewares/lvgl/src/widgets/lv_textarea.c ****             lv_anim_set_exec_cb(&a, pwd_char_hider_anim);
 156:Middlewares/lvgl/src/widgets/lv_textarea.c ****             lv_anim_set_time(&a, ta->pwd_show_time);
 157:Middlewares/lvgl/src/widgets/lv_textarea.c ****             lv_anim_set_values(&a, 0, 1);
 158:Middlewares/lvgl/src/widgets/lv_textarea.c ****             lv_anim_set_path_cb(&a, lv_anim_path_step);
 159:Middlewares/lvgl/src/widgets/lv_textarea.c ****             lv_anim_set_ready_cb(&a, pwd_char_hider_anim_ready);
 160:Middlewares/lvgl/src/widgets/lv_textarea.c ****             lv_anim_start(&a);
 161:Middlewares/lvgl/src/widgets/lv_textarea.c ****         }
 162:Middlewares/lvgl/src/widgets/lv_textarea.c ****     }
 163:Middlewares/lvgl/src/widgets/lv_textarea.c **** 
 164:Middlewares/lvgl/src/widgets/lv_textarea.c ****     /*Move the cursor after the new character*/
 165:Middlewares/lvgl/src/widgets/lv_textarea.c ****     lv_textarea_set_cursor_pos(obj, lv_textarea_get_cursor_pos(obj) + 1);
 166:Middlewares/lvgl/src/widgets/lv_textarea.c **** 
 167:Middlewares/lvgl/src/widgets/lv_textarea.c ****     lv_event_send(obj, LV_EVENT_VALUE_CHANGED, NULL);
 168:Middlewares/lvgl/src/widgets/lv_textarea.c **** }
 169:Middlewares/lvgl/src/widgets/lv_textarea.c **** 
 170:Middlewares/lvgl/src/widgets/lv_textarea.c **** void lv_textarea_add_text(lv_obj_t * obj, const char * txt)
 171:Middlewares/lvgl/src/widgets/lv_textarea.c **** {
 172:Middlewares/lvgl/src/widgets/lv_textarea.c ****     LV_ASSERT_OBJ(obj, MY_CLASS);
 173:Middlewares/lvgl/src/widgets/lv_textarea.c ****     LV_ASSERT_NULL(txt);
 174:Middlewares/lvgl/src/widgets/lv_textarea.c **** 
 175:Middlewares/lvgl/src/widgets/lv_textarea.c ****      lv_textarea_t * ta = (lv_textarea_t *)obj;
 176:Middlewares/lvgl/src/widgets/lv_textarea.c **** 
 177:Middlewares/lvgl/src/widgets/lv_textarea.c ****     if(ta->pwd_mode != 0) pwd_char_hider(obj); /*Make sure all the current text contains only '*'*/
 178:Middlewares/lvgl/src/widgets/lv_textarea.c **** 
 179:Middlewares/lvgl/src/widgets/lv_textarea.c ****     /*Add the character one-by-one if not all characters are accepted or there is character limit.*
 180:Middlewares/lvgl/src/widgets/lv_textarea.c ****     if(lv_textarea_get_accepted_chars(obj) || lv_textarea_get_max_length(obj)) {
 181:Middlewares/lvgl/src/widgets/lv_textarea.c ****         uint32_t i = 0;
 182:Middlewares/lvgl/src/widgets/lv_textarea.c ****         while(txt[i] != '\0') {
 183:Middlewares/lvgl/src/widgets/lv_textarea.c ****             uint32_t c = _lv_txt_encoded_next(txt, &i);
 184:Middlewares/lvgl/src/widgets/lv_textarea.c ****             lv_textarea_add_char(obj, _lv_txt_unicode_to_encoded(c));
 185:Middlewares/lvgl/src/widgets/lv_textarea.c ****         }
 186:Middlewares/lvgl/src/widgets/lv_textarea.c ****         return;
 187:Middlewares/lvgl/src/widgets/lv_textarea.c ****     }
 188:Middlewares/lvgl/src/widgets/lv_textarea.c **** 
 189:Middlewares/lvgl/src/widgets/lv_textarea.c ****     lv_res_t res = insert_handler(obj, txt);
 190:Middlewares/lvgl/src/widgets/lv_textarea.c ****     if(res != LV_RES_OK) return;
 191:Middlewares/lvgl/src/widgets/lv_textarea.c **** 
 192:Middlewares/lvgl/src/widgets/lv_textarea.c ****     /*If the textarea is empty, invalidate it to hide the placeholder*/
 193:Middlewares/lvgl/src/widgets/lv_textarea.c ****     if(ta->placeholder_txt) {
 194:Middlewares/lvgl/src/widgets/lv_textarea.c ****         const char * txt_act = lv_label_get_text(ta->label);
 195:Middlewares/lvgl/src/widgets/lv_textarea.c ****         if(txt_act[0] == '\0') lv_obj_invalidate(obj);
 196:Middlewares/lvgl/src/widgets/lv_textarea.c ****     }
 197:Middlewares/lvgl/src/widgets/lv_textarea.c **** 
 198:Middlewares/lvgl/src/widgets/lv_textarea.c ****     /*Insert the text*/
 199:Middlewares/lvgl/src/widgets/lv_textarea.c ****     lv_label_ins_text(ta->label, ta->cursor.pos, txt);
 200:Middlewares/lvgl/src/widgets/lv_textarea.c ****     lv_textarea_clear_selection(obj);
 201:Middlewares/lvgl/src/widgets/lv_textarea.c **** 
 202:Middlewares/lvgl/src/widgets/lv_textarea.c ****     if(ta->pwd_mode != 0) {
ARM GAS  /tmp/cctamPcj.s 			page 5


 203:Middlewares/lvgl/src/widgets/lv_textarea.c ****         ta->pwd_tmp = lv_mem_realloc(ta->pwd_tmp, strlen(ta->pwd_tmp) + strlen(txt) + 1);
 204:Middlewares/lvgl/src/widgets/lv_textarea.c ****         LV_ASSERT_MALLOC(ta->pwd_tmp);
 205:Middlewares/lvgl/src/widgets/lv_textarea.c ****         if(ta->pwd_tmp == NULL) return;
 206:Middlewares/lvgl/src/widgets/lv_textarea.c **** 
 207:Middlewares/lvgl/src/widgets/lv_textarea.c ****         _lv_txt_ins(ta->pwd_tmp, ta->cursor.pos, txt);
 208:Middlewares/lvgl/src/widgets/lv_textarea.c **** 
 209:Middlewares/lvgl/src/widgets/lv_textarea.c ****         /*Auto hide characters*/
 210:Middlewares/lvgl/src/widgets/lv_textarea.c ****         if(ta->pwd_show_time == 0) {
 211:Middlewares/lvgl/src/widgets/lv_textarea.c ****             pwd_char_hider(obj);
 212:Middlewares/lvgl/src/widgets/lv_textarea.c ****         }
 213:Middlewares/lvgl/src/widgets/lv_textarea.c ****         else {
 214:Middlewares/lvgl/src/widgets/lv_textarea.c ****             lv_anim_t a;
 215:Middlewares/lvgl/src/widgets/lv_textarea.c ****             lv_anim_init(&a);
 216:Middlewares/lvgl/src/widgets/lv_textarea.c ****             lv_anim_set_var(&a, ta);
 217:Middlewares/lvgl/src/widgets/lv_textarea.c ****             lv_anim_set_exec_cb(&a, pwd_char_hider_anim);
 218:Middlewares/lvgl/src/widgets/lv_textarea.c ****             lv_anim_set_time(&a, ta->pwd_show_time);
 219:Middlewares/lvgl/src/widgets/lv_textarea.c ****             lv_anim_set_values(&a, 0, 1);
 220:Middlewares/lvgl/src/widgets/lv_textarea.c ****             lv_anim_set_path_cb(&a, lv_anim_path_step);
 221:Middlewares/lvgl/src/widgets/lv_textarea.c ****             lv_anim_set_ready_cb(&a, pwd_char_hider_anim_ready);
 222:Middlewares/lvgl/src/widgets/lv_textarea.c ****             lv_anim_start(&a);
 223:Middlewares/lvgl/src/widgets/lv_textarea.c ****         }
 224:Middlewares/lvgl/src/widgets/lv_textarea.c ****     }
 225:Middlewares/lvgl/src/widgets/lv_textarea.c **** 
 226:Middlewares/lvgl/src/widgets/lv_textarea.c ****     /*Move the cursor after the new text*/
 227:Middlewares/lvgl/src/widgets/lv_textarea.c ****     lv_textarea_set_cursor_pos(obj, lv_textarea_get_cursor_pos(obj) + _lv_txt_get_encoded_length(tx
 228:Middlewares/lvgl/src/widgets/lv_textarea.c **** 
 229:Middlewares/lvgl/src/widgets/lv_textarea.c ****     lv_event_send(obj, LV_EVENT_VALUE_CHANGED, NULL);
 230:Middlewares/lvgl/src/widgets/lv_textarea.c **** }
 231:Middlewares/lvgl/src/widgets/lv_textarea.c **** 
 232:Middlewares/lvgl/src/widgets/lv_textarea.c **** void lv_textarea_del_char(lv_obj_t * obj)
 233:Middlewares/lvgl/src/widgets/lv_textarea.c **** {
 234:Middlewares/lvgl/src/widgets/lv_textarea.c ****     LV_ASSERT_OBJ(obj, MY_CLASS);
 235:Middlewares/lvgl/src/widgets/lv_textarea.c **** 
 236:Middlewares/lvgl/src/widgets/lv_textarea.c ****      lv_textarea_t * ta = (lv_textarea_t *)obj;
 237:Middlewares/lvgl/src/widgets/lv_textarea.c ****     uint32_t cur_pos  = ta->cursor.pos;
 238:Middlewares/lvgl/src/widgets/lv_textarea.c **** 
 239:Middlewares/lvgl/src/widgets/lv_textarea.c ****     if(cur_pos == 0) return;
 240:Middlewares/lvgl/src/widgets/lv_textarea.c **** 
 241:Middlewares/lvgl/src/widgets/lv_textarea.c ****     char del_buf[2]   = {LV_KEY_DEL, '\0'};
 242:Middlewares/lvgl/src/widgets/lv_textarea.c **** 
 243:Middlewares/lvgl/src/widgets/lv_textarea.c ****     lv_res_t res = insert_handler(obj, del_buf);
 244:Middlewares/lvgl/src/widgets/lv_textarea.c ****     if(res != LV_RES_OK) return;
 245:Middlewares/lvgl/src/widgets/lv_textarea.c **** 
 246:Middlewares/lvgl/src/widgets/lv_textarea.c ****     char * label_txt = lv_label_get_text(ta->label);
 247:Middlewares/lvgl/src/widgets/lv_textarea.c **** 
 248:Middlewares/lvgl/src/widgets/lv_textarea.c ****     /*Delete a character*/
 249:Middlewares/lvgl/src/widgets/lv_textarea.c ****     _lv_txt_cut(label_txt, ta->cursor.pos - 1, 1);
 250:Middlewares/lvgl/src/widgets/lv_textarea.c ****     /*Refresh the label*/
 251:Middlewares/lvgl/src/widgets/lv_textarea.c ****     lv_label_set_text(ta->label, label_txt);
 252:Middlewares/lvgl/src/widgets/lv_textarea.c ****     lv_textarea_clear_selection(obj);
 253:Middlewares/lvgl/src/widgets/lv_textarea.c **** 
 254:Middlewares/lvgl/src/widgets/lv_textarea.c ****     /*If the textarea became empty, invalidate it to hide the placeholder*/
 255:Middlewares/lvgl/src/widgets/lv_textarea.c ****     if(ta->placeholder_txt) {
 256:Middlewares/lvgl/src/widgets/lv_textarea.c ****         const char * txt = lv_label_get_text(ta->label);
 257:Middlewares/lvgl/src/widgets/lv_textarea.c ****         if(txt[0] == '\0') lv_obj_invalidate(obj);
 258:Middlewares/lvgl/src/widgets/lv_textarea.c ****     }
 259:Middlewares/lvgl/src/widgets/lv_textarea.c **** 
ARM GAS  /tmp/cctamPcj.s 			page 6


 260:Middlewares/lvgl/src/widgets/lv_textarea.c ****     if(ta->pwd_mode != 0) {
 261:Middlewares/lvgl/src/widgets/lv_textarea.c ****         uint32_t byte_pos = _lv_txt_encoded_get_byte_id(ta->pwd_tmp, ta->cursor.pos - 1);
 262:Middlewares/lvgl/src/widgets/lv_textarea.c ****         _lv_txt_cut(ta->pwd_tmp, ta->cursor.pos - 1, _lv_txt_encoded_size(&ta->pwd_tmp[byte_pos]));
 263:Middlewares/lvgl/src/widgets/lv_textarea.c **** 
 264:Middlewares/lvgl/src/widgets/lv_textarea.c ****         ta->pwd_tmp = lv_mem_realloc(ta->pwd_tmp, strlen(ta->pwd_tmp) + 1);
 265:Middlewares/lvgl/src/widgets/lv_textarea.c ****         LV_ASSERT_MALLOC(ta->pwd_tmp);
 266:Middlewares/lvgl/src/widgets/lv_textarea.c ****         if(ta->pwd_tmp == NULL) return;
 267:Middlewares/lvgl/src/widgets/lv_textarea.c ****     }
 268:Middlewares/lvgl/src/widgets/lv_textarea.c **** 
 269:Middlewares/lvgl/src/widgets/lv_textarea.c ****     /*Move the cursor to the place of the deleted character*/
 270:Middlewares/lvgl/src/widgets/lv_textarea.c ****     lv_textarea_set_cursor_pos(obj, ta->cursor.pos - 1);
 271:Middlewares/lvgl/src/widgets/lv_textarea.c **** 
 272:Middlewares/lvgl/src/widgets/lv_textarea.c ****     lv_event_send(obj, LV_EVENT_VALUE_CHANGED, NULL);
 273:Middlewares/lvgl/src/widgets/lv_textarea.c **** 
 274:Middlewares/lvgl/src/widgets/lv_textarea.c **** }
 275:Middlewares/lvgl/src/widgets/lv_textarea.c **** 
 276:Middlewares/lvgl/src/widgets/lv_textarea.c **** void lv_textarea_del_char_forward(lv_obj_t * obj)
 277:Middlewares/lvgl/src/widgets/lv_textarea.c **** {
 278:Middlewares/lvgl/src/widgets/lv_textarea.c ****     LV_ASSERT_OBJ(obj, MY_CLASS);
 279:Middlewares/lvgl/src/widgets/lv_textarea.c **** 
 280:Middlewares/lvgl/src/widgets/lv_textarea.c ****     uint32_t cp = lv_textarea_get_cursor_pos(obj);
 281:Middlewares/lvgl/src/widgets/lv_textarea.c ****     lv_textarea_set_cursor_pos(obj, cp + 1);
 282:Middlewares/lvgl/src/widgets/lv_textarea.c ****     if(cp != lv_textarea_get_cursor_pos(obj)) lv_textarea_del_char(obj);
 283:Middlewares/lvgl/src/widgets/lv_textarea.c **** }
 284:Middlewares/lvgl/src/widgets/lv_textarea.c **** 
 285:Middlewares/lvgl/src/widgets/lv_textarea.c **** /*=====================
 286:Middlewares/lvgl/src/widgets/lv_textarea.c ****  * Setter functions
 287:Middlewares/lvgl/src/widgets/lv_textarea.c ****  *====================*/
 288:Middlewares/lvgl/src/widgets/lv_textarea.c **** 
 289:Middlewares/lvgl/src/widgets/lv_textarea.c **** void lv_textarea_set_text(lv_obj_t * obj, const char * txt)
 290:Middlewares/lvgl/src/widgets/lv_textarea.c **** {
 291:Middlewares/lvgl/src/widgets/lv_textarea.c ****     LV_ASSERT_OBJ(obj, MY_CLASS);
 292:Middlewares/lvgl/src/widgets/lv_textarea.c ****     LV_ASSERT_NULL(txt);
 293:Middlewares/lvgl/src/widgets/lv_textarea.c **** 
 294:Middlewares/lvgl/src/widgets/lv_textarea.c ****      lv_textarea_t * ta = (lv_textarea_t *)obj;
 295:Middlewares/lvgl/src/widgets/lv_textarea.c **** 
 296:Middlewares/lvgl/src/widgets/lv_textarea.c ****     /*Clear the existing selection*/
 297:Middlewares/lvgl/src/widgets/lv_textarea.c ****     lv_textarea_clear_selection(obj);
 298:Middlewares/lvgl/src/widgets/lv_textarea.c **** 
 299:Middlewares/lvgl/src/widgets/lv_textarea.c ****     /*Add the character one-by-one if not all characters are accepted or there is character limit.*
 300:Middlewares/lvgl/src/widgets/lv_textarea.c ****     if(lv_textarea_get_accepted_chars(obj) || lv_textarea_get_max_length(obj)) {
 301:Middlewares/lvgl/src/widgets/lv_textarea.c ****         lv_label_set_text(ta->label, "");
 302:Middlewares/lvgl/src/widgets/lv_textarea.c ****         lv_textarea_set_cursor_pos(obj, LV_TEXTAREA_CURSOR_LAST);
 303:Middlewares/lvgl/src/widgets/lv_textarea.c ****         if(ta->pwd_mode != 0) {
 304:Middlewares/lvgl/src/widgets/lv_textarea.c ****             ta->pwd_tmp[0] = '\0'; /*Clear the password too*/
 305:Middlewares/lvgl/src/widgets/lv_textarea.c ****         }
 306:Middlewares/lvgl/src/widgets/lv_textarea.c ****         uint32_t i = 0;
 307:Middlewares/lvgl/src/widgets/lv_textarea.c ****         while(txt[i] != '\0') {
 308:Middlewares/lvgl/src/widgets/lv_textarea.c ****             uint32_t c = _lv_txt_encoded_next(txt, &i);
 309:Middlewares/lvgl/src/widgets/lv_textarea.c ****             lv_textarea_add_char(obj, _lv_txt_unicode_to_encoded(c));
 310:Middlewares/lvgl/src/widgets/lv_textarea.c ****         }
 311:Middlewares/lvgl/src/widgets/lv_textarea.c ****     }
 312:Middlewares/lvgl/src/widgets/lv_textarea.c ****     else {
 313:Middlewares/lvgl/src/widgets/lv_textarea.c ****         lv_label_set_text(ta->label, txt);
 314:Middlewares/lvgl/src/widgets/lv_textarea.c ****         lv_textarea_set_cursor_pos(obj, LV_TEXTAREA_CURSOR_LAST);
 315:Middlewares/lvgl/src/widgets/lv_textarea.c ****     }
 316:Middlewares/lvgl/src/widgets/lv_textarea.c **** 
ARM GAS  /tmp/cctamPcj.s 			page 7


 317:Middlewares/lvgl/src/widgets/lv_textarea.c ****     /*If the textarea is empty, invalidate it to hide the placeholder*/
 318:Middlewares/lvgl/src/widgets/lv_textarea.c ****     if(ta->placeholder_txt) {
 319:Middlewares/lvgl/src/widgets/lv_textarea.c ****         const char * txt_act = lv_label_get_text(ta->label);
 320:Middlewares/lvgl/src/widgets/lv_textarea.c ****         if(txt_act[0] == '\0') lv_obj_invalidate(obj);
 321:Middlewares/lvgl/src/widgets/lv_textarea.c ****     }
 322:Middlewares/lvgl/src/widgets/lv_textarea.c **** 
 323:Middlewares/lvgl/src/widgets/lv_textarea.c ****     if(ta->pwd_mode != 0) {
 324:Middlewares/lvgl/src/widgets/lv_textarea.c ****         ta->pwd_tmp = lv_mem_realloc(ta->pwd_tmp, strlen(txt) + 1);
 325:Middlewares/lvgl/src/widgets/lv_textarea.c ****         LV_ASSERT_MALLOC(ta->pwd_tmp);
 326:Middlewares/lvgl/src/widgets/lv_textarea.c ****         if(ta->pwd_tmp == NULL) return;
 327:Middlewares/lvgl/src/widgets/lv_textarea.c ****         strcpy(ta->pwd_tmp, txt);
 328:Middlewares/lvgl/src/widgets/lv_textarea.c **** 
 329:Middlewares/lvgl/src/widgets/lv_textarea.c ****         /*Auto hide characters*/
 330:Middlewares/lvgl/src/widgets/lv_textarea.c ****         if(ta->pwd_show_time == 0) {
 331:Middlewares/lvgl/src/widgets/lv_textarea.c ****             pwd_char_hider(obj);
 332:Middlewares/lvgl/src/widgets/lv_textarea.c ****         }
 333:Middlewares/lvgl/src/widgets/lv_textarea.c ****         else {
 334:Middlewares/lvgl/src/widgets/lv_textarea.c ****             lv_anim_t a;
 335:Middlewares/lvgl/src/widgets/lv_textarea.c ****             lv_anim_init(&a);
 336:Middlewares/lvgl/src/widgets/lv_textarea.c ****             lv_anim_set_var(&a, ta);
 337:Middlewares/lvgl/src/widgets/lv_textarea.c ****             lv_anim_set_exec_cb(&a, pwd_char_hider_anim);
 338:Middlewares/lvgl/src/widgets/lv_textarea.c ****             lv_anim_set_time(&a, ta->pwd_show_time);
 339:Middlewares/lvgl/src/widgets/lv_textarea.c ****             lv_anim_set_values(&a, 0, 1);
 340:Middlewares/lvgl/src/widgets/lv_textarea.c ****             lv_anim_set_path_cb(&a, lv_anim_path_step);
 341:Middlewares/lvgl/src/widgets/lv_textarea.c ****             lv_anim_set_ready_cb(&a, pwd_char_hider_anim_ready);
 342:Middlewares/lvgl/src/widgets/lv_textarea.c ****             lv_anim_start(&a);
 343:Middlewares/lvgl/src/widgets/lv_textarea.c ****         }
 344:Middlewares/lvgl/src/widgets/lv_textarea.c ****     }
 345:Middlewares/lvgl/src/widgets/lv_textarea.c **** 
 346:Middlewares/lvgl/src/widgets/lv_textarea.c ****     lv_event_send(obj, LV_EVENT_VALUE_CHANGED, NULL);
 347:Middlewares/lvgl/src/widgets/lv_textarea.c **** }
 348:Middlewares/lvgl/src/widgets/lv_textarea.c **** 
 349:Middlewares/lvgl/src/widgets/lv_textarea.c **** void lv_textarea_set_placeholder_text(lv_obj_t * obj, const char * txt)
 350:Middlewares/lvgl/src/widgets/lv_textarea.c **** {
 351:Middlewares/lvgl/src/widgets/lv_textarea.c ****     LV_ASSERT_OBJ(obj, MY_CLASS);
 352:Middlewares/lvgl/src/widgets/lv_textarea.c ****     LV_ASSERT_NULL(txt);
 353:Middlewares/lvgl/src/widgets/lv_textarea.c **** 
 354:Middlewares/lvgl/src/widgets/lv_textarea.c ****      lv_textarea_t * ta = (lv_textarea_t *)obj;
 355:Middlewares/lvgl/src/widgets/lv_textarea.c **** 
 356:Middlewares/lvgl/src/widgets/lv_textarea.c ****     size_t txt_len = strlen(txt);
 357:Middlewares/lvgl/src/widgets/lv_textarea.c **** 
 358:Middlewares/lvgl/src/widgets/lv_textarea.c ****     if(txt_len == 0) {
 359:Middlewares/lvgl/src/widgets/lv_textarea.c ****         if(ta->placeholder_txt) {
 360:Middlewares/lvgl/src/widgets/lv_textarea.c ****             lv_mem_free(ta->placeholder_txt);
 361:Middlewares/lvgl/src/widgets/lv_textarea.c ****             ta->placeholder_txt = NULL;
 362:Middlewares/lvgl/src/widgets/lv_textarea.c ****         }
 363:Middlewares/lvgl/src/widgets/lv_textarea.c ****     }
 364:Middlewares/lvgl/src/widgets/lv_textarea.c ****     else {
 365:Middlewares/lvgl/src/widgets/lv_textarea.c **** 
 366:Middlewares/lvgl/src/widgets/lv_textarea.c ****         /*Allocate memory for the placeholder_txt text*/
 367:Middlewares/lvgl/src/widgets/lv_textarea.c ****         if(ta->placeholder_txt == NULL) {
 368:Middlewares/lvgl/src/widgets/lv_textarea.c ****             ta->placeholder_txt = lv_mem_alloc(txt_len + 1);
 369:Middlewares/lvgl/src/widgets/lv_textarea.c ****         }
 370:Middlewares/lvgl/src/widgets/lv_textarea.c ****         else {
 371:Middlewares/lvgl/src/widgets/lv_textarea.c ****             ta->placeholder_txt = lv_mem_realloc(ta->placeholder_txt, txt_len + 1);
 372:Middlewares/lvgl/src/widgets/lv_textarea.c **** 
 373:Middlewares/lvgl/src/widgets/lv_textarea.c ****         }
ARM GAS  /tmp/cctamPcj.s 			page 8


 374:Middlewares/lvgl/src/widgets/lv_textarea.c ****         LV_ASSERT_MALLOC(ta->placeholder_txt);
 375:Middlewares/lvgl/src/widgets/lv_textarea.c ****         if(ta->placeholder_txt == NULL) {
 376:Middlewares/lvgl/src/widgets/lv_textarea.c ****             LV_LOG_ERROR("lv_textarea_set_placeholder_text: couldn't allocate memory for placeholde
 377:Middlewares/lvgl/src/widgets/lv_textarea.c ****             return;
 378:Middlewares/lvgl/src/widgets/lv_textarea.c ****         }
 379:Middlewares/lvgl/src/widgets/lv_textarea.c ****         strcpy(ta->placeholder_txt, txt);
 380:Middlewares/lvgl/src/widgets/lv_textarea.c ****     }
 381:Middlewares/lvgl/src/widgets/lv_textarea.c **** 
 382:Middlewares/lvgl/src/widgets/lv_textarea.c ****     lv_obj_invalidate(obj);
 383:Middlewares/lvgl/src/widgets/lv_textarea.c **** }
 384:Middlewares/lvgl/src/widgets/lv_textarea.c **** 
 385:Middlewares/lvgl/src/widgets/lv_textarea.c **** void lv_textarea_set_cursor_pos(lv_obj_t * obj, int32_t pos)
 386:Middlewares/lvgl/src/widgets/lv_textarea.c **** {
 387:Middlewares/lvgl/src/widgets/lv_textarea.c ****     LV_ASSERT_OBJ(obj, MY_CLASS);
 388:Middlewares/lvgl/src/widgets/lv_textarea.c **** 
 389:Middlewares/lvgl/src/widgets/lv_textarea.c ****      lv_textarea_t * ta = (lv_textarea_t *)obj;
 390:Middlewares/lvgl/src/widgets/lv_textarea.c ****     if((uint32_t)ta->cursor.pos == (uint32_t)pos) return;
 391:Middlewares/lvgl/src/widgets/lv_textarea.c **** 
 392:Middlewares/lvgl/src/widgets/lv_textarea.c ****     uint32_t len = _lv_txt_get_encoded_length(lv_label_get_text(ta->label));
 393:Middlewares/lvgl/src/widgets/lv_textarea.c **** 
 394:Middlewares/lvgl/src/widgets/lv_textarea.c ****     if(pos < 0) pos = len + pos;
 395:Middlewares/lvgl/src/widgets/lv_textarea.c **** 
 396:Middlewares/lvgl/src/widgets/lv_textarea.c ****     if(pos > (int32_t)len || pos == LV_TEXTAREA_CURSOR_LAST) pos = len;
 397:Middlewares/lvgl/src/widgets/lv_textarea.c **** 
 398:Middlewares/lvgl/src/widgets/lv_textarea.c ****     ta->cursor.pos = pos;
 399:Middlewares/lvgl/src/widgets/lv_textarea.c **** 
 400:Middlewares/lvgl/src/widgets/lv_textarea.c ****     /*Position the label to make the cursor visible*/
 401:Middlewares/lvgl/src/widgets/lv_textarea.c **** 	lv_point_t cur_pos;
 402:Middlewares/lvgl/src/widgets/lv_textarea.c **** 	const lv_font_t * font = lv_obj_get_style_text_font(obj, LV_PART_MAIN);
 403:Middlewares/lvgl/src/widgets/lv_textarea.c **** 	lv_area_t label_cords;
 404:Middlewares/lvgl/src/widgets/lv_textarea.c **** 	lv_area_t ta_cords;
 405:Middlewares/lvgl/src/widgets/lv_textarea.c **** 	lv_label_get_letter_pos(ta->label, pos, &cur_pos);
 406:Middlewares/lvgl/src/widgets/lv_textarea.c **** 	lv_obj_get_coords(obj, &ta_cords);
 407:Middlewares/lvgl/src/widgets/lv_textarea.c **** 	lv_obj_get_coords(ta->label, &label_cords);
 408:Middlewares/lvgl/src/widgets/lv_textarea.c **** 
 409:Middlewares/lvgl/src/widgets/lv_textarea.c **** 	/*The text area needs to have it's final size to see if the cursor is out of the area or not*/
 410:Middlewares/lvgl/src/widgets/lv_textarea.c **** 	lv_obj_update_layout(obj);
 411:Middlewares/lvgl/src/widgets/lv_textarea.c **** 
 412:Middlewares/lvgl/src/widgets/lv_textarea.c **** 	/*Check the top*/
 413:Middlewares/lvgl/src/widgets/lv_textarea.c **** 	lv_coord_t font_h = lv_font_get_line_height(font);
 414:Middlewares/lvgl/src/widgets/lv_textarea.c **** 	if(cur_pos.y < lv_obj_get_scroll_top(obj)) {
 415:Middlewares/lvgl/src/widgets/lv_textarea.c **** 		lv_obj_scroll_to_y(obj, cur_pos.y, LV_ANIM_ON);
 416:Middlewares/lvgl/src/widgets/lv_textarea.c **** 	}
 417:Middlewares/lvgl/src/widgets/lv_textarea.c **** 	/*Check the bottom*/
 418:Middlewares/lvgl/src/widgets/lv_textarea.c **** 	lv_coord_t h = lv_obj_get_content_height(obj);
 419:Middlewares/lvgl/src/widgets/lv_textarea.c **** 	if(cur_pos.y + font_h - lv_obj_get_scroll_top(obj) > h) {
 420:Middlewares/lvgl/src/widgets/lv_textarea.c **** 		lv_obj_scroll_to_y(obj, cur_pos.y - h + font_h, LV_ANIM_ON);
 421:Middlewares/lvgl/src/widgets/lv_textarea.c **** 	}
 422:Middlewares/lvgl/src/widgets/lv_textarea.c **** 
 423:Middlewares/lvgl/src/widgets/lv_textarea.c ****     /*Check the left*/
 424:Middlewares/lvgl/src/widgets/lv_textarea.c ****     if(cur_pos.x < lv_obj_get_scroll_left(obj)) {
 425:Middlewares/lvgl/src/widgets/lv_textarea.c ****         lv_obj_scroll_to_x(obj, cur_pos.x, LV_ANIM_ON);
 426:Middlewares/lvgl/src/widgets/lv_textarea.c ****     }
 427:Middlewares/lvgl/src/widgets/lv_textarea.c ****     /*Check the right*/
 428:Middlewares/lvgl/src/widgets/lv_textarea.c ****     lv_coord_t w = lv_obj_get_content_width(obj);
 429:Middlewares/lvgl/src/widgets/lv_textarea.c ****     if(cur_pos.x + font_h - lv_obj_get_scroll_left(obj) > w) {
 430:Middlewares/lvgl/src/widgets/lv_textarea.c ****         lv_obj_scroll_to_x(obj, cur_pos.x - w + font_h, LV_ANIM_ON);
ARM GAS  /tmp/cctamPcj.s 			page 9


 431:Middlewares/lvgl/src/widgets/lv_textarea.c ****     }
 432:Middlewares/lvgl/src/widgets/lv_textarea.c **** 
 433:Middlewares/lvgl/src/widgets/lv_textarea.c ****     ta->cursor.valid_x = cur_pos.x;
 434:Middlewares/lvgl/src/widgets/lv_textarea.c **** 
 435:Middlewares/lvgl/src/widgets/lv_textarea.c ****     start_cursor_blink(obj);
 436:Middlewares/lvgl/src/widgets/lv_textarea.c **** 
 437:Middlewares/lvgl/src/widgets/lv_textarea.c ****     refr_cursor_area(obj);
 438:Middlewares/lvgl/src/widgets/lv_textarea.c **** }
 439:Middlewares/lvgl/src/widgets/lv_textarea.c **** 
 440:Middlewares/lvgl/src/widgets/lv_textarea.c **** void lv_textarea_set_cursor_click_pos(lv_obj_t * obj, bool en)
 441:Middlewares/lvgl/src/widgets/lv_textarea.c **** {
 442:Middlewares/lvgl/src/widgets/lv_textarea.c ****     LV_ASSERT_OBJ(obj, MY_CLASS);
 443:Middlewares/lvgl/src/widgets/lv_textarea.c **** 
 444:Middlewares/lvgl/src/widgets/lv_textarea.c ****     lv_textarea_t * ta = (lv_textarea_t *)obj;
 445:Middlewares/lvgl/src/widgets/lv_textarea.c ****     ta->cursor.click_pos = en ? 1 : 0;
 446:Middlewares/lvgl/src/widgets/lv_textarea.c **** }
 447:Middlewares/lvgl/src/widgets/lv_textarea.c **** 
 448:Middlewares/lvgl/src/widgets/lv_textarea.c **** void lv_textarea_set_password_mode(lv_obj_t * obj, bool en)
 449:Middlewares/lvgl/src/widgets/lv_textarea.c **** {
 450:Middlewares/lvgl/src/widgets/lv_textarea.c ****     LV_ASSERT_OBJ(obj, MY_CLASS);
 451:Middlewares/lvgl/src/widgets/lv_textarea.c **** 
 452:Middlewares/lvgl/src/widgets/lv_textarea.c ****      lv_textarea_t * ta = (lv_textarea_t *)obj;
 453:Middlewares/lvgl/src/widgets/lv_textarea.c ****     if(ta->pwd_mode == en) return;
 454:Middlewares/lvgl/src/widgets/lv_textarea.c **** 
 455:Middlewares/lvgl/src/widgets/lv_textarea.c ****     ta->pwd_mode = en == false ? 0 : 1;
 456:Middlewares/lvgl/src/widgets/lv_textarea.c ****     /*Pwd mode is now enabled*/
 457:Middlewares/lvgl/src/widgets/lv_textarea.c ****     if(en != false) {
 458:Middlewares/lvgl/src/widgets/lv_textarea.c ****         char * txt   = lv_label_get_text(ta->label);
 459:Middlewares/lvgl/src/widgets/lv_textarea.c ****         size_t len = strlen(txt);
 460:Middlewares/lvgl/src/widgets/lv_textarea.c ****         ta->pwd_tmp = lv_mem_alloc(len + 1);
 461:Middlewares/lvgl/src/widgets/lv_textarea.c ****         LV_ASSERT_MALLOC(ta->pwd_tmp);
 462:Middlewares/lvgl/src/widgets/lv_textarea.c ****         if(ta->pwd_tmp == NULL) return;
 463:Middlewares/lvgl/src/widgets/lv_textarea.c **** 
 464:Middlewares/lvgl/src/widgets/lv_textarea.c ****         strcpy(ta->pwd_tmp, txt);
 465:Middlewares/lvgl/src/widgets/lv_textarea.c **** 
 466:Middlewares/lvgl/src/widgets/lv_textarea.c ****         pwd_char_hider(obj);
 467:Middlewares/lvgl/src/widgets/lv_textarea.c **** 
 468:Middlewares/lvgl/src/widgets/lv_textarea.c ****         lv_textarea_clear_selection(obj);
 469:Middlewares/lvgl/src/widgets/lv_textarea.c ****     }
 470:Middlewares/lvgl/src/widgets/lv_textarea.c ****     /*Pwd mode is now disabled*/
 471:Middlewares/lvgl/src/widgets/lv_textarea.c ****     else {
 472:Middlewares/lvgl/src/widgets/lv_textarea.c ****         lv_textarea_clear_selection(obj);
 473:Middlewares/lvgl/src/widgets/lv_textarea.c ****         lv_label_set_text(ta->label, ta->pwd_tmp);
 474:Middlewares/lvgl/src/widgets/lv_textarea.c ****         lv_mem_free(ta->pwd_tmp);
 475:Middlewares/lvgl/src/widgets/lv_textarea.c ****         ta->pwd_tmp = NULL;
 476:Middlewares/lvgl/src/widgets/lv_textarea.c ****     }
 477:Middlewares/lvgl/src/widgets/lv_textarea.c **** 
 478:Middlewares/lvgl/src/widgets/lv_textarea.c ****     refr_cursor_area(obj);
 479:Middlewares/lvgl/src/widgets/lv_textarea.c **** }
 480:Middlewares/lvgl/src/widgets/lv_textarea.c **** 
 481:Middlewares/lvgl/src/widgets/lv_textarea.c **** void lv_textarea_set_one_line(lv_obj_t * obj, bool en)
 482:Middlewares/lvgl/src/widgets/lv_textarea.c **** {
 483:Middlewares/lvgl/src/widgets/lv_textarea.c ****     LV_ASSERT_OBJ(obj, MY_CLASS);
 484:Middlewares/lvgl/src/widgets/lv_textarea.c **** 
 485:Middlewares/lvgl/src/widgets/lv_textarea.c ****      lv_textarea_t * ta = (lv_textarea_t *)obj;
 486:Middlewares/lvgl/src/widgets/lv_textarea.c ****     if(ta->one_line == en) return;
 487:Middlewares/lvgl/src/widgets/lv_textarea.c **** 
ARM GAS  /tmp/cctamPcj.s 			page 10


 488:Middlewares/lvgl/src/widgets/lv_textarea.c ****     if(en) {
 489:Middlewares/lvgl/src/widgets/lv_textarea.c ****         ta->one_line = 1;
 490:Middlewares/lvgl/src/widgets/lv_textarea.c ****         lv_obj_set_width(ta->label, LV_SIZE_CONTENT);
 491:Middlewares/lvgl/src/widgets/lv_textarea.c **** 
 492:Middlewares/lvgl/src/widgets/lv_textarea.c ****         lv_obj_set_height(obj, LV_SIZE_CONTENT);
 493:Middlewares/lvgl/src/widgets/lv_textarea.c ****         lv_obj_scroll_to(obj, 0, 0, LV_ANIM_OFF);
 494:Middlewares/lvgl/src/widgets/lv_textarea.c ****     }
 495:Middlewares/lvgl/src/widgets/lv_textarea.c ****     else {
 496:Middlewares/lvgl/src/widgets/lv_textarea.c ****         ta->one_line = 0;
 497:Middlewares/lvgl/src/widgets/lv_textarea.c ****         lv_obj_set_width(ta->label, lv_pct(100));
 498:Middlewares/lvgl/src/widgets/lv_textarea.c ****         lv_obj_remove_local_style_prop(obj, LV_STYLE_HEIGHT, LV_PART_MAIN);
 499:Middlewares/lvgl/src/widgets/lv_textarea.c ****         lv_obj_scroll_to(obj, 0, 0, LV_ANIM_OFF);
 500:Middlewares/lvgl/src/widgets/lv_textarea.c ****     }
 501:Middlewares/lvgl/src/widgets/lv_textarea.c **** }
 502:Middlewares/lvgl/src/widgets/lv_textarea.c **** 
 503:Middlewares/lvgl/src/widgets/lv_textarea.c **** void lv_textarea_set_accepted_chars(lv_obj_t * obj, const char * list)
 504:Middlewares/lvgl/src/widgets/lv_textarea.c **** {
 505:Middlewares/lvgl/src/widgets/lv_textarea.c ****     LV_ASSERT_OBJ(obj, MY_CLASS);
 506:Middlewares/lvgl/src/widgets/lv_textarea.c **** 
 507:Middlewares/lvgl/src/widgets/lv_textarea.c ****      lv_textarea_t * ta = (lv_textarea_t *)obj;
 508:Middlewares/lvgl/src/widgets/lv_textarea.c **** 
 509:Middlewares/lvgl/src/widgets/lv_textarea.c ****     ta->accepted_chars = list;
 510:Middlewares/lvgl/src/widgets/lv_textarea.c **** }
 511:Middlewares/lvgl/src/widgets/lv_textarea.c **** 
 512:Middlewares/lvgl/src/widgets/lv_textarea.c **** void lv_textarea_set_max_length(lv_obj_t * obj, uint32_t num)
 513:Middlewares/lvgl/src/widgets/lv_textarea.c **** {
 514:Middlewares/lvgl/src/widgets/lv_textarea.c ****     LV_ASSERT_OBJ(obj, MY_CLASS);
 515:Middlewares/lvgl/src/widgets/lv_textarea.c **** 
 516:Middlewares/lvgl/src/widgets/lv_textarea.c ****      lv_textarea_t * ta = (lv_textarea_t *)obj;
 517:Middlewares/lvgl/src/widgets/lv_textarea.c **** 
 518:Middlewares/lvgl/src/widgets/lv_textarea.c ****     ta->max_length = num;
 519:Middlewares/lvgl/src/widgets/lv_textarea.c **** }
 520:Middlewares/lvgl/src/widgets/lv_textarea.c **** 
 521:Middlewares/lvgl/src/widgets/lv_textarea.c **** void lv_textarea_set_insert_replace(lv_obj_t * obj, const char * txt)
 522:Middlewares/lvgl/src/widgets/lv_textarea.c **** {
 523:Middlewares/lvgl/src/widgets/lv_textarea.c ****     LV_ASSERT_OBJ(obj, MY_CLASS);
 524:Middlewares/lvgl/src/widgets/lv_textarea.c **** 
 525:Middlewares/lvgl/src/widgets/lv_textarea.c ****     LV_UNUSED(obj);
 526:Middlewares/lvgl/src/widgets/lv_textarea.c ****     ta_insert_replace = txt;
 527:Middlewares/lvgl/src/widgets/lv_textarea.c **** }
 528:Middlewares/lvgl/src/widgets/lv_textarea.c **** 
 529:Middlewares/lvgl/src/widgets/lv_textarea.c **** void lv_textarea_set_text_selection(lv_obj_t * obj, bool en)
 530:Middlewares/lvgl/src/widgets/lv_textarea.c **** {
 531:Middlewares/lvgl/src/widgets/lv_textarea.c ****     LV_ASSERT_OBJ(obj, MY_CLASS);
 532:Middlewares/lvgl/src/widgets/lv_textarea.c **** 
 533:Middlewares/lvgl/src/widgets/lv_textarea.c **** #if LV_LABEL_TEXT_SELECTION
 534:Middlewares/lvgl/src/widgets/lv_textarea.c ****      lv_textarea_t * ta = (lv_textarea_t *)obj;
 535:Middlewares/lvgl/src/widgets/lv_textarea.c **** 
 536:Middlewares/lvgl/src/widgets/lv_textarea.c ****     ta->text_sel_en = en;
 537:Middlewares/lvgl/src/widgets/lv_textarea.c **** 
 538:Middlewares/lvgl/src/widgets/lv_textarea.c ****     if(!en) lv_textarea_clear_selection(obj);
 539:Middlewares/lvgl/src/widgets/lv_textarea.c **** #else
 540:Middlewares/lvgl/src/widgets/lv_textarea.c ****     (void)obj; /*Unused*/
 541:Middlewares/lvgl/src/widgets/lv_textarea.c ****     (void)en; /*Unused*/
 542:Middlewares/lvgl/src/widgets/lv_textarea.c **** #endif
 543:Middlewares/lvgl/src/widgets/lv_textarea.c **** }
 544:Middlewares/lvgl/src/widgets/lv_textarea.c **** 
ARM GAS  /tmp/cctamPcj.s 			page 11


 545:Middlewares/lvgl/src/widgets/lv_textarea.c **** void lv_textarea_set_password_show_time(lv_obj_t * obj, uint16_t time)
 546:Middlewares/lvgl/src/widgets/lv_textarea.c **** {
 547:Middlewares/lvgl/src/widgets/lv_textarea.c ****     LV_ASSERT_OBJ(obj, MY_CLASS);
 548:Middlewares/lvgl/src/widgets/lv_textarea.c **** 
 549:Middlewares/lvgl/src/widgets/lv_textarea.c ****     lv_textarea_t * ta = (lv_textarea_t *)obj;
 550:Middlewares/lvgl/src/widgets/lv_textarea.c ****     ta->pwd_show_time = time;
 551:Middlewares/lvgl/src/widgets/lv_textarea.c **** }
 552:Middlewares/lvgl/src/widgets/lv_textarea.c **** 
 553:Middlewares/lvgl/src/widgets/lv_textarea.c **** void lv_textarea_set_align(lv_obj_t * obj, lv_text_align_t align)
 554:Middlewares/lvgl/src/widgets/lv_textarea.c **** {
 555:Middlewares/lvgl/src/widgets/lv_textarea.c ****     lv_obj_set_style_text_align(obj, align, 0);
 556:Middlewares/lvgl/src/widgets/lv_textarea.c **** 
 557:Middlewares/lvgl/src/widgets/lv_textarea.c ****     switch(align) {
 558:Middlewares/lvgl/src/widgets/lv_textarea.c ****     default:
 559:Middlewares/lvgl/src/widgets/lv_textarea.c ****     case LV_TEXT_ALIGN_LEFT:
 560:Middlewares/lvgl/src/widgets/lv_textarea.c ****         lv_obj_align(lv_textarea_get_label(obj), LV_ALIGN_TOP_LEFT, 0, 0);
 561:Middlewares/lvgl/src/widgets/lv_textarea.c ****         break;
 562:Middlewares/lvgl/src/widgets/lv_textarea.c ****     case LV_TEXT_ALIGN_RIGHT:
 563:Middlewares/lvgl/src/widgets/lv_textarea.c ****         lv_obj_align(lv_textarea_get_label(obj), LV_ALIGN_TOP_RIGHT, 0, 0);
 564:Middlewares/lvgl/src/widgets/lv_textarea.c ****         break;
 565:Middlewares/lvgl/src/widgets/lv_textarea.c ****     case LV_TEXT_ALIGN_CENTER:
 566:Middlewares/lvgl/src/widgets/lv_textarea.c ****         lv_obj_align(lv_textarea_get_label(obj), LV_ALIGN_TOP_MID, 0, 0);
 567:Middlewares/lvgl/src/widgets/lv_textarea.c ****         break;
 568:Middlewares/lvgl/src/widgets/lv_textarea.c ****     }
 569:Middlewares/lvgl/src/widgets/lv_textarea.c **** }
 570:Middlewares/lvgl/src/widgets/lv_textarea.c **** 
 571:Middlewares/lvgl/src/widgets/lv_textarea.c **** /*=====================
 572:Middlewares/lvgl/src/widgets/lv_textarea.c ****  * Getter functions
 573:Middlewares/lvgl/src/widgets/lv_textarea.c ****  *====================*/
 574:Middlewares/lvgl/src/widgets/lv_textarea.c **** 
 575:Middlewares/lvgl/src/widgets/lv_textarea.c **** const char * lv_textarea_get_text(const lv_obj_t * obj)
 576:Middlewares/lvgl/src/widgets/lv_textarea.c **** {
 577:Middlewares/lvgl/src/widgets/lv_textarea.c ****     LV_ASSERT_OBJ(obj, MY_CLASS);
 578:Middlewares/lvgl/src/widgets/lv_textarea.c **** 
 579:Middlewares/lvgl/src/widgets/lv_textarea.c ****      lv_textarea_t * ta = (lv_textarea_t *)obj;
 580:Middlewares/lvgl/src/widgets/lv_textarea.c **** 
 581:Middlewares/lvgl/src/widgets/lv_textarea.c ****     const char * txt;
 582:Middlewares/lvgl/src/widgets/lv_textarea.c ****     if(ta->pwd_mode == 0) {
 583:Middlewares/lvgl/src/widgets/lv_textarea.c ****         txt = lv_label_get_text(ta->label);
 584:Middlewares/lvgl/src/widgets/lv_textarea.c ****     }
 585:Middlewares/lvgl/src/widgets/lv_textarea.c ****     else {
 586:Middlewares/lvgl/src/widgets/lv_textarea.c ****         txt = ta->pwd_tmp;
 587:Middlewares/lvgl/src/widgets/lv_textarea.c ****     }
 588:Middlewares/lvgl/src/widgets/lv_textarea.c **** 
 589:Middlewares/lvgl/src/widgets/lv_textarea.c ****     return txt;
 590:Middlewares/lvgl/src/widgets/lv_textarea.c **** }
 591:Middlewares/lvgl/src/widgets/lv_textarea.c **** 
 592:Middlewares/lvgl/src/widgets/lv_textarea.c **** const char * lv_textarea_get_placeholder_text(lv_obj_t * obj)
 593:Middlewares/lvgl/src/widgets/lv_textarea.c **** {
 594:Middlewares/lvgl/src/widgets/lv_textarea.c ****     LV_ASSERT_OBJ(obj, MY_CLASS);
 595:Middlewares/lvgl/src/widgets/lv_textarea.c **** 
 596:Middlewares/lvgl/src/widgets/lv_textarea.c ****      lv_textarea_t * ta = (lv_textarea_t *)obj;
 597:Middlewares/lvgl/src/widgets/lv_textarea.c ****     if(ta->placeholder_txt) return ta->placeholder_txt;
 598:Middlewares/lvgl/src/widgets/lv_textarea.c ****     else return "";
 599:Middlewares/lvgl/src/widgets/lv_textarea.c **** }
 600:Middlewares/lvgl/src/widgets/lv_textarea.c **** 
 601:Middlewares/lvgl/src/widgets/lv_textarea.c **** lv_obj_t * lv_textarea_get_label(const lv_obj_t * obj)
ARM GAS  /tmp/cctamPcj.s 			page 12


 602:Middlewares/lvgl/src/widgets/lv_textarea.c **** {
 603:Middlewares/lvgl/src/widgets/lv_textarea.c ****     LV_ASSERT_OBJ(obj, MY_CLASS);
 604:Middlewares/lvgl/src/widgets/lv_textarea.c **** 
 605:Middlewares/lvgl/src/widgets/lv_textarea.c ****      lv_textarea_t * ta = (lv_textarea_t *)obj;
 606:Middlewares/lvgl/src/widgets/lv_textarea.c ****     return ta->label;
 607:Middlewares/lvgl/src/widgets/lv_textarea.c **** }
 608:Middlewares/lvgl/src/widgets/lv_textarea.c **** 
 609:Middlewares/lvgl/src/widgets/lv_textarea.c **** uint32_t lv_textarea_get_cursor_pos(const lv_obj_t * obj)
 610:Middlewares/lvgl/src/widgets/lv_textarea.c **** {
 611:Middlewares/lvgl/src/widgets/lv_textarea.c ****     LV_ASSERT_OBJ(obj, MY_CLASS);
 612:Middlewares/lvgl/src/widgets/lv_textarea.c **** 
 613:Middlewares/lvgl/src/widgets/lv_textarea.c ****      lv_textarea_t * ta = (lv_textarea_t *)obj;
 614:Middlewares/lvgl/src/widgets/lv_textarea.c ****     return ta->cursor.pos;
 615:Middlewares/lvgl/src/widgets/lv_textarea.c **** }
 616:Middlewares/lvgl/src/widgets/lv_textarea.c **** 
 617:Middlewares/lvgl/src/widgets/lv_textarea.c **** bool lv_textarea_get_cursor_click_pos(lv_obj_t * obj)
 618:Middlewares/lvgl/src/widgets/lv_textarea.c **** {
 619:Middlewares/lvgl/src/widgets/lv_textarea.c ****     LV_ASSERT_OBJ(obj, MY_CLASS);
 620:Middlewares/lvgl/src/widgets/lv_textarea.c **** 
 621:Middlewares/lvgl/src/widgets/lv_textarea.c ****      lv_textarea_t * ta = (lv_textarea_t *)obj;
 622:Middlewares/lvgl/src/widgets/lv_textarea.c ****     return ta->cursor.click_pos ? true : false;
 623:Middlewares/lvgl/src/widgets/lv_textarea.c **** }
 624:Middlewares/lvgl/src/widgets/lv_textarea.c **** 
 625:Middlewares/lvgl/src/widgets/lv_textarea.c **** bool lv_textarea_get_password_mode(const lv_obj_t * obj)
 626:Middlewares/lvgl/src/widgets/lv_textarea.c **** {
 627:Middlewares/lvgl/src/widgets/lv_textarea.c ****     LV_ASSERT_OBJ(obj, MY_CLASS);
 628:Middlewares/lvgl/src/widgets/lv_textarea.c **** 
 629:Middlewares/lvgl/src/widgets/lv_textarea.c ****      lv_textarea_t * ta = (lv_textarea_t *)obj;
 630:Middlewares/lvgl/src/widgets/lv_textarea.c ****     return ta->pwd_mode == 0 ? false : true;
 631:Middlewares/lvgl/src/widgets/lv_textarea.c **** }
 632:Middlewares/lvgl/src/widgets/lv_textarea.c **** 
 633:Middlewares/lvgl/src/widgets/lv_textarea.c **** bool lv_textarea_get_one_line(const lv_obj_t * obj)
 634:Middlewares/lvgl/src/widgets/lv_textarea.c **** {
 635:Middlewares/lvgl/src/widgets/lv_textarea.c ****     LV_ASSERT_OBJ(obj, MY_CLASS);
 636:Middlewares/lvgl/src/widgets/lv_textarea.c **** 
 637:Middlewares/lvgl/src/widgets/lv_textarea.c ****      lv_textarea_t * ta = (lv_textarea_t *)obj;
 638:Middlewares/lvgl/src/widgets/lv_textarea.c ****     return ta->one_line == 0 ? false : true;
 639:Middlewares/lvgl/src/widgets/lv_textarea.c **** }
 640:Middlewares/lvgl/src/widgets/lv_textarea.c **** 
 641:Middlewares/lvgl/src/widgets/lv_textarea.c **** const char * lv_textarea_get_accepted_chars(lv_obj_t * obj)
 642:Middlewares/lvgl/src/widgets/lv_textarea.c **** {
 643:Middlewares/lvgl/src/widgets/lv_textarea.c ****     LV_ASSERT_OBJ(obj, MY_CLASS);
 644:Middlewares/lvgl/src/widgets/lv_textarea.c **** 
 645:Middlewares/lvgl/src/widgets/lv_textarea.c ****      lv_textarea_t * ta = (lv_textarea_t *)obj;
 646:Middlewares/lvgl/src/widgets/lv_textarea.c **** 
 647:Middlewares/lvgl/src/widgets/lv_textarea.c ****     return ta->accepted_chars;
 648:Middlewares/lvgl/src/widgets/lv_textarea.c **** }
 649:Middlewares/lvgl/src/widgets/lv_textarea.c **** 
 650:Middlewares/lvgl/src/widgets/lv_textarea.c **** uint32_t lv_textarea_get_max_length(lv_obj_t * obj)
 651:Middlewares/lvgl/src/widgets/lv_textarea.c **** {
 652:Middlewares/lvgl/src/widgets/lv_textarea.c ****     LV_ASSERT_OBJ(obj, MY_CLASS);
 653:Middlewares/lvgl/src/widgets/lv_textarea.c **** 
 654:Middlewares/lvgl/src/widgets/lv_textarea.c ****      lv_textarea_t * ta = (lv_textarea_t *)obj;
 655:Middlewares/lvgl/src/widgets/lv_textarea.c ****     return ta->max_length;
 656:Middlewares/lvgl/src/widgets/lv_textarea.c **** }
 657:Middlewares/lvgl/src/widgets/lv_textarea.c **** 
 658:Middlewares/lvgl/src/widgets/lv_textarea.c **** bool lv_textarea_text_is_selected(const lv_obj_t * obj)
ARM GAS  /tmp/cctamPcj.s 			page 13


 659:Middlewares/lvgl/src/widgets/lv_textarea.c **** {
 660:Middlewares/lvgl/src/widgets/lv_textarea.c ****     LV_ASSERT_OBJ(obj, MY_CLASS);
 661:Middlewares/lvgl/src/widgets/lv_textarea.c **** 
 662:Middlewares/lvgl/src/widgets/lv_textarea.c **** #if LV_LABEL_TEXT_SELECTION
 663:Middlewares/lvgl/src/widgets/lv_textarea.c ****      lv_textarea_t * ta = (lv_textarea_t *)obj;
 664:Middlewares/lvgl/src/widgets/lv_textarea.c **** 
 665:Middlewares/lvgl/src/widgets/lv_textarea.c ****     if((lv_label_get_text_selection_start(ta->label) != LV_DRAW_LABEL_NO_TXT_SEL ||
 666:Middlewares/lvgl/src/widgets/lv_textarea.c ****         lv_label_get_text_selection_end(ta->label) != LV_DRAW_LABEL_NO_TXT_SEL)) {
 667:Middlewares/lvgl/src/widgets/lv_textarea.c ****         return true;
 668:Middlewares/lvgl/src/widgets/lv_textarea.c ****     }
 669:Middlewares/lvgl/src/widgets/lv_textarea.c ****     else {
 670:Middlewares/lvgl/src/widgets/lv_textarea.c ****         return false;
 671:Middlewares/lvgl/src/widgets/lv_textarea.c ****     }
 672:Middlewares/lvgl/src/widgets/lv_textarea.c **** #else
 673:Middlewares/lvgl/src/widgets/lv_textarea.c ****     (void)obj; /*Unused*/
 674:Middlewares/lvgl/src/widgets/lv_textarea.c ****     return false;
 675:Middlewares/lvgl/src/widgets/lv_textarea.c **** #endif
 676:Middlewares/lvgl/src/widgets/lv_textarea.c **** }
 677:Middlewares/lvgl/src/widgets/lv_textarea.c **** 
 678:Middlewares/lvgl/src/widgets/lv_textarea.c **** bool lv_textarea_get_text_selection(lv_obj_t * obj)
 679:Middlewares/lvgl/src/widgets/lv_textarea.c **** {
 680:Middlewares/lvgl/src/widgets/lv_textarea.c ****     LV_ASSERT_OBJ(obj, MY_CLASS);
 681:Middlewares/lvgl/src/widgets/lv_textarea.c **** 
 682:Middlewares/lvgl/src/widgets/lv_textarea.c **** #if LV_LABEL_TEXT_SELECTION
 683:Middlewares/lvgl/src/widgets/lv_textarea.c ****      lv_textarea_t * ta = (lv_textarea_t *)obj;
 684:Middlewares/lvgl/src/widgets/lv_textarea.c ****     return ta->text_sel_en;
 685:Middlewares/lvgl/src/widgets/lv_textarea.c **** #else
 686:Middlewares/lvgl/src/widgets/lv_textarea.c ****     (void)obj; /*Unused*/
 687:Middlewares/lvgl/src/widgets/lv_textarea.c ****     return false;
 688:Middlewares/lvgl/src/widgets/lv_textarea.c **** #endif
 689:Middlewares/lvgl/src/widgets/lv_textarea.c **** }
 690:Middlewares/lvgl/src/widgets/lv_textarea.c **** 
 691:Middlewares/lvgl/src/widgets/lv_textarea.c **** uint16_t lv_textarea_get_password_show_time(lv_obj_t * obj)
 692:Middlewares/lvgl/src/widgets/lv_textarea.c **** {
 693:Middlewares/lvgl/src/widgets/lv_textarea.c ****     LV_ASSERT_OBJ(obj, MY_CLASS);
 694:Middlewares/lvgl/src/widgets/lv_textarea.c **** 
 695:Middlewares/lvgl/src/widgets/lv_textarea.c ****      lv_textarea_t * ta = (lv_textarea_t *)obj;
 696:Middlewares/lvgl/src/widgets/lv_textarea.c **** 
 697:Middlewares/lvgl/src/widgets/lv_textarea.c ****     return ta->pwd_show_time;
 698:Middlewares/lvgl/src/widgets/lv_textarea.c **** }
 699:Middlewares/lvgl/src/widgets/lv_textarea.c **** 
 700:Middlewares/lvgl/src/widgets/lv_textarea.c **** /*=====================
 701:Middlewares/lvgl/src/widgets/lv_textarea.c ****  * Other functions
 702:Middlewares/lvgl/src/widgets/lv_textarea.c ****  *====================*/
 703:Middlewares/lvgl/src/widgets/lv_textarea.c **** 
 704:Middlewares/lvgl/src/widgets/lv_textarea.c **** void lv_textarea_clear_selection(lv_obj_t * obj)
 705:Middlewares/lvgl/src/widgets/lv_textarea.c **** {
 706:Middlewares/lvgl/src/widgets/lv_textarea.c ****     LV_ASSERT_OBJ(obj, MY_CLASS);
 707:Middlewares/lvgl/src/widgets/lv_textarea.c **** 
 708:Middlewares/lvgl/src/widgets/lv_textarea.c **** #if LV_LABEL_TEXT_SELECTION
 709:Middlewares/lvgl/src/widgets/lv_textarea.c ****      lv_textarea_t * ta = (lv_textarea_t *)obj;
 710:Middlewares/lvgl/src/widgets/lv_textarea.c **** 
 711:Middlewares/lvgl/src/widgets/lv_textarea.c ****     if(lv_label_get_text_selection_start(ta->label) != LV_DRAW_LABEL_NO_TXT_SEL ||
 712:Middlewares/lvgl/src/widgets/lv_textarea.c ****        lv_label_get_text_selection_end(ta->label) != LV_DRAW_LABEL_NO_TXT_SEL) {
 713:Middlewares/lvgl/src/widgets/lv_textarea.c ****         lv_label_set_text_sel_start(ta->label, LV_DRAW_LABEL_NO_TXT_SEL);
 714:Middlewares/lvgl/src/widgets/lv_textarea.c ****         lv_label_set_text_sel_end(ta->label, LV_DRAW_LABEL_NO_TXT_SEL);
 715:Middlewares/lvgl/src/widgets/lv_textarea.c ****     }
ARM GAS  /tmp/cctamPcj.s 			page 14


 716:Middlewares/lvgl/src/widgets/lv_textarea.c **** #else
 717:Middlewares/lvgl/src/widgets/lv_textarea.c ****     (void)obj; /*Unused*/
 718:Middlewares/lvgl/src/widgets/lv_textarea.c **** #endif
 719:Middlewares/lvgl/src/widgets/lv_textarea.c **** }
 720:Middlewares/lvgl/src/widgets/lv_textarea.c **** 
 721:Middlewares/lvgl/src/widgets/lv_textarea.c **** void lv_textarea_cursor_right(lv_obj_t * obj)
 722:Middlewares/lvgl/src/widgets/lv_textarea.c **** {
 723:Middlewares/lvgl/src/widgets/lv_textarea.c ****     LV_ASSERT_OBJ(obj, MY_CLASS);
 724:Middlewares/lvgl/src/widgets/lv_textarea.c **** 
 725:Middlewares/lvgl/src/widgets/lv_textarea.c ****     uint32_t cp = lv_textarea_get_cursor_pos(obj);
 726:Middlewares/lvgl/src/widgets/lv_textarea.c ****     cp++;
 727:Middlewares/lvgl/src/widgets/lv_textarea.c ****     lv_textarea_set_cursor_pos(obj, cp);
 728:Middlewares/lvgl/src/widgets/lv_textarea.c **** }
 729:Middlewares/lvgl/src/widgets/lv_textarea.c **** 
 730:Middlewares/lvgl/src/widgets/lv_textarea.c **** void lv_textarea_cursor_left(lv_obj_t * obj)
 731:Middlewares/lvgl/src/widgets/lv_textarea.c **** {
 732:Middlewares/lvgl/src/widgets/lv_textarea.c ****     LV_ASSERT_OBJ(obj, MY_CLASS);
 733:Middlewares/lvgl/src/widgets/lv_textarea.c **** 
 734:Middlewares/lvgl/src/widgets/lv_textarea.c ****     uint32_t cp = lv_textarea_get_cursor_pos(obj);
 735:Middlewares/lvgl/src/widgets/lv_textarea.c ****     if(cp > 0) {
 736:Middlewares/lvgl/src/widgets/lv_textarea.c ****         cp--;
 737:Middlewares/lvgl/src/widgets/lv_textarea.c ****         lv_textarea_set_cursor_pos(obj, cp);
 738:Middlewares/lvgl/src/widgets/lv_textarea.c ****     }
 739:Middlewares/lvgl/src/widgets/lv_textarea.c **** }
 740:Middlewares/lvgl/src/widgets/lv_textarea.c **** 
 741:Middlewares/lvgl/src/widgets/lv_textarea.c **** void lv_textarea_cursor_down(lv_obj_t * obj)
 742:Middlewares/lvgl/src/widgets/lv_textarea.c **** {
 743:Middlewares/lvgl/src/widgets/lv_textarea.c ****     LV_ASSERT_OBJ(obj, MY_CLASS);
 744:Middlewares/lvgl/src/widgets/lv_textarea.c **** 
 745:Middlewares/lvgl/src/widgets/lv_textarea.c ****      lv_textarea_t * ta = (lv_textarea_t *)obj;
 746:Middlewares/lvgl/src/widgets/lv_textarea.c ****     lv_point_t pos;
 747:Middlewares/lvgl/src/widgets/lv_textarea.c **** 
 748:Middlewares/lvgl/src/widgets/lv_textarea.c ****     /*Get the position of the current letter*/
 749:Middlewares/lvgl/src/widgets/lv_textarea.c ****     lv_label_get_letter_pos(ta->label, lv_textarea_get_cursor_pos(obj), &pos);
 750:Middlewares/lvgl/src/widgets/lv_textarea.c **** 
 751:Middlewares/lvgl/src/widgets/lv_textarea.c ****     /*Increment the y with one line and keep the valid x*/
 752:Middlewares/lvgl/src/widgets/lv_textarea.c **** 
 753:Middlewares/lvgl/src/widgets/lv_textarea.c ****     lv_coord_t line_space = lv_obj_get_style_text_line_space(obj, LV_PART_MAIN);
 754:Middlewares/lvgl/src/widgets/lv_textarea.c ****     const lv_font_t * font = lv_obj_get_style_text_font(obj, LV_PART_MAIN);
 755:Middlewares/lvgl/src/widgets/lv_textarea.c ****     lv_coord_t font_h              = lv_font_get_line_height(font);
 756:Middlewares/lvgl/src/widgets/lv_textarea.c ****     pos.y += font_h + line_space + 1;
 757:Middlewares/lvgl/src/widgets/lv_textarea.c ****     pos.x = ta->cursor.valid_x;
 758:Middlewares/lvgl/src/widgets/lv_textarea.c **** 
 759:Middlewares/lvgl/src/widgets/lv_textarea.c ****     /*Do not go below the last line*/
 760:Middlewares/lvgl/src/widgets/lv_textarea.c ****     if(pos.y < lv_obj_get_height(ta->label)) {
 761:Middlewares/lvgl/src/widgets/lv_textarea.c ****         /*Get the letter index on the new cursor position and set it*/
 762:Middlewares/lvgl/src/widgets/lv_textarea.c ****         uint32_t new_cur_pos = lv_label_get_letter_on(ta->label, &pos);
 763:Middlewares/lvgl/src/widgets/lv_textarea.c **** 
 764:Middlewares/lvgl/src/widgets/lv_textarea.c ****         lv_coord_t cur_valid_x_tmp = ta->cursor.valid_x; /*Cursor position set overwrites the valid
 765:Middlewares/lvgl/src/widgets/lv_textarea.c ****         lv_textarea_set_cursor_pos(obj, new_cur_pos);
 766:Middlewares/lvgl/src/widgets/lv_textarea.c ****         ta->cursor.valid_x = cur_valid_x_tmp;
 767:Middlewares/lvgl/src/widgets/lv_textarea.c ****     }
 768:Middlewares/lvgl/src/widgets/lv_textarea.c **** }
 769:Middlewares/lvgl/src/widgets/lv_textarea.c **** 
 770:Middlewares/lvgl/src/widgets/lv_textarea.c **** void lv_textarea_cursor_up(lv_obj_t * obj)
 771:Middlewares/lvgl/src/widgets/lv_textarea.c **** {
 772:Middlewares/lvgl/src/widgets/lv_textarea.c ****     LV_ASSERT_OBJ(obj, MY_CLASS);
ARM GAS  /tmp/cctamPcj.s 			page 15


 773:Middlewares/lvgl/src/widgets/lv_textarea.c **** 
 774:Middlewares/lvgl/src/widgets/lv_textarea.c ****      lv_textarea_t * ta = (lv_textarea_t *)obj;
 775:Middlewares/lvgl/src/widgets/lv_textarea.c ****     lv_point_t pos;
 776:Middlewares/lvgl/src/widgets/lv_textarea.c **** 
 777:Middlewares/lvgl/src/widgets/lv_textarea.c ****     /*Get the position of the current letter*/
 778:Middlewares/lvgl/src/widgets/lv_textarea.c ****     lv_label_get_letter_pos(ta->label, lv_textarea_get_cursor_pos(obj), &pos);
 779:Middlewares/lvgl/src/widgets/lv_textarea.c **** 
 780:Middlewares/lvgl/src/widgets/lv_textarea.c ****     /*Decrement the y with one line and keep the valid x*/
 781:Middlewares/lvgl/src/widgets/lv_textarea.c ****     lv_coord_t line_space = lv_obj_get_style_text_line_space(obj, LV_PART_MAIN);
 782:Middlewares/lvgl/src/widgets/lv_textarea.c ****     const lv_font_t * font = lv_obj_get_style_text_font(obj, LV_PART_MAIN);
 783:Middlewares/lvgl/src/widgets/lv_textarea.c ****     lv_coord_t font_h              = lv_font_get_line_height(font);
 784:Middlewares/lvgl/src/widgets/lv_textarea.c ****     pos.y -= font_h + line_space - 1;
 785:Middlewares/lvgl/src/widgets/lv_textarea.c ****     pos.x = ta->cursor.valid_x;
 786:Middlewares/lvgl/src/widgets/lv_textarea.c **** 
 787:Middlewares/lvgl/src/widgets/lv_textarea.c ****     /*Get the letter index on the new cursor position and set it*/
 788:Middlewares/lvgl/src/widgets/lv_textarea.c ****     uint32_t new_cur_pos       = lv_label_get_letter_on(ta->label, &pos);
 789:Middlewares/lvgl/src/widgets/lv_textarea.c ****     lv_coord_t cur_valid_x_tmp = ta->cursor.valid_x; /*Cursor position set overwrites the valid pos
 790:Middlewares/lvgl/src/widgets/lv_textarea.c ****     lv_textarea_set_cursor_pos(obj, new_cur_pos);
 791:Middlewares/lvgl/src/widgets/lv_textarea.c ****     ta->cursor.valid_x = cur_valid_x_tmp;
 792:Middlewares/lvgl/src/widgets/lv_textarea.c **** }
 793:Middlewares/lvgl/src/widgets/lv_textarea.c **** 
 794:Middlewares/lvgl/src/widgets/lv_textarea.c **** /**********************
 795:Middlewares/lvgl/src/widgets/lv_textarea.c ****  *   STATIC FUNCTIONS
 796:Middlewares/lvgl/src/widgets/lv_textarea.c ****  **********************/
 797:Middlewares/lvgl/src/widgets/lv_textarea.c **** 
 798:Middlewares/lvgl/src/widgets/lv_textarea.c **** static void lv_textarea_constructor(const lv_obj_class_t * class_p, lv_obj_t * obj)
 799:Middlewares/lvgl/src/widgets/lv_textarea.c **** {
 800:Middlewares/lvgl/src/widgets/lv_textarea.c ****     LV_UNUSED(class_p);
 801:Middlewares/lvgl/src/widgets/lv_textarea.c ****     LV_TRACE_OBJ_CREATE("begin");
 802:Middlewares/lvgl/src/widgets/lv_textarea.c **** 
 803:Middlewares/lvgl/src/widgets/lv_textarea.c ****     lv_textarea_t * ta = (lv_textarea_t *)obj;
 804:Middlewares/lvgl/src/widgets/lv_textarea.c **** 
 805:Middlewares/lvgl/src/widgets/lv_textarea.c ****     ta->pwd_mode          = 0;
 806:Middlewares/lvgl/src/widgets/lv_textarea.c ****     ta->pwd_tmp           = NULL;
 807:Middlewares/lvgl/src/widgets/lv_textarea.c ****     ta->pwd_show_time     = LV_TEXTAREA_DEF_PWD_SHOW_TIME;
 808:Middlewares/lvgl/src/widgets/lv_textarea.c ****     ta->accepted_chars    = NULL;
 809:Middlewares/lvgl/src/widgets/lv_textarea.c ****     ta->max_length        = 0;
 810:Middlewares/lvgl/src/widgets/lv_textarea.c ****     ta->cursor.show      = 1;
 811:Middlewares/lvgl/src/widgets/lv_textarea.c ****     ta->cursor.pos        = 1;	/*It will be set to zero later (with zero value lv_textarea_set_curs
 812:Middlewares/lvgl/src/widgets/lv_textarea.c ****     ta->cursor.click_pos  = 1;
 813:Middlewares/lvgl/src/widgets/lv_textarea.c ****     ta->cursor.valid_x    = 0;
 814:Middlewares/lvgl/src/widgets/lv_textarea.c ****     ta->one_line          = 0;
 815:Middlewares/lvgl/src/widgets/lv_textarea.c **** #if LV_LABEL_TEXT_SELECTION
 816:Middlewares/lvgl/src/widgets/lv_textarea.c ****     ta->text_sel_en = 0;
 817:Middlewares/lvgl/src/widgets/lv_textarea.c **** #endif
 818:Middlewares/lvgl/src/widgets/lv_textarea.c ****     ta->label       = NULL;
 819:Middlewares/lvgl/src/widgets/lv_textarea.c ****     ta->placeholder_txt = NULL;
 820:Middlewares/lvgl/src/widgets/lv_textarea.c **** 
 821:Middlewares/lvgl/src/widgets/lv_textarea.c ****     ta->label = lv_label_create(obj);
 822:Middlewares/lvgl/src/widgets/lv_textarea.c ****     lv_obj_set_width(ta->label, lv_pct(100));
 823:Middlewares/lvgl/src/widgets/lv_textarea.c ****     lv_label_set_text(ta->label, "");
 824:Middlewares/lvgl/src/widgets/lv_textarea.c ****     lv_obj_add_flag(obj, LV_OBJ_FLAG_SCROLL_ON_FOCUS);
 825:Middlewares/lvgl/src/widgets/lv_textarea.c ****     lv_textarea_set_cursor_pos(obj, 0);
 826:Middlewares/lvgl/src/widgets/lv_textarea.c **** 
 827:Middlewares/lvgl/src/widgets/lv_textarea.c ****     start_cursor_blink(obj);
 828:Middlewares/lvgl/src/widgets/lv_textarea.c **** 
 829:Middlewares/lvgl/src/widgets/lv_textarea.c ****     LV_TRACE_OBJ_CREATE("finished");
ARM GAS  /tmp/cctamPcj.s 			page 16


 830:Middlewares/lvgl/src/widgets/lv_textarea.c **** }
 831:Middlewares/lvgl/src/widgets/lv_textarea.c **** 
 832:Middlewares/lvgl/src/widgets/lv_textarea.c **** static void lv_textarea_destructor(const lv_obj_class_t * class_p, lv_obj_t * obj)
 833:Middlewares/lvgl/src/widgets/lv_textarea.c **** {
 834:Middlewares/lvgl/src/widgets/lv_textarea.c ****     LV_UNUSED(class_p);
 835:Middlewares/lvgl/src/widgets/lv_textarea.c **** 
 836:Middlewares/lvgl/src/widgets/lv_textarea.c ****     lv_textarea_t * ta = (lv_textarea_t *)obj;
 837:Middlewares/lvgl/src/widgets/lv_textarea.c ****     if(ta->pwd_tmp != NULL) {
 838:Middlewares/lvgl/src/widgets/lv_textarea.c ****         lv_mem_free(ta->pwd_tmp);
 839:Middlewares/lvgl/src/widgets/lv_textarea.c ****         ta->pwd_tmp = NULL;
 840:Middlewares/lvgl/src/widgets/lv_textarea.c ****     }
 841:Middlewares/lvgl/src/widgets/lv_textarea.c ****     if(ta->placeholder_txt != NULL) {
 842:Middlewares/lvgl/src/widgets/lv_textarea.c ****         lv_mem_free(ta->placeholder_txt);
 843:Middlewares/lvgl/src/widgets/lv_textarea.c ****         ta->placeholder_txt = NULL;
 844:Middlewares/lvgl/src/widgets/lv_textarea.c ****     }
 845:Middlewares/lvgl/src/widgets/lv_textarea.c **** }
 846:Middlewares/lvgl/src/widgets/lv_textarea.c **** 
 847:Middlewares/lvgl/src/widgets/lv_textarea.c **** static void lv_textarea_event(const lv_obj_class_t * class_p, lv_event_t * e)
 848:Middlewares/lvgl/src/widgets/lv_textarea.c **** {
 849:Middlewares/lvgl/src/widgets/lv_textarea.c ****     LV_UNUSED(class_p);
 850:Middlewares/lvgl/src/widgets/lv_textarea.c **** 
 851:Middlewares/lvgl/src/widgets/lv_textarea.c ****     lv_res_t res;
 852:Middlewares/lvgl/src/widgets/lv_textarea.c ****     /*Call the ancestor's event handler*/
 853:Middlewares/lvgl/src/widgets/lv_textarea.c ****     res = lv_obj_event_base(MY_CLASS, e);
 854:Middlewares/lvgl/src/widgets/lv_textarea.c ****     if(res != LV_RES_OK) return;
 855:Middlewares/lvgl/src/widgets/lv_textarea.c **** 
 856:Middlewares/lvgl/src/widgets/lv_textarea.c ****     lv_event_code_t code = lv_event_get_code(e);
 857:Middlewares/lvgl/src/widgets/lv_textarea.c ****     lv_obj_t * obj = lv_event_get_target(e);
 858:Middlewares/lvgl/src/widgets/lv_textarea.c ****     lv_textarea_t * ta = (lv_textarea_t *)obj;
 859:Middlewares/lvgl/src/widgets/lv_textarea.c **** 
 860:Middlewares/lvgl/src/widgets/lv_textarea.c ****     if(code == LV_EVENT_STYLE_CHANGED) {
 861:Middlewares/lvgl/src/widgets/lv_textarea.c ****         if(ta->label) {
 862:Middlewares/lvgl/src/widgets/lv_textarea.c ****             lv_label_set_text(ta->label, NULL);
 863:Middlewares/lvgl/src/widgets/lv_textarea.c ****             refr_cursor_area(obj);
 864:Middlewares/lvgl/src/widgets/lv_textarea.c ****             start_cursor_blink(obj);
 865:Middlewares/lvgl/src/widgets/lv_textarea.c ****         }
 866:Middlewares/lvgl/src/widgets/lv_textarea.c ****     }
 867:Middlewares/lvgl/src/widgets/lv_textarea.c ****     else if(code == LV_EVENT_FOCUSED) {
 868:Middlewares/lvgl/src/widgets/lv_textarea.c ****         start_cursor_blink(obj);
 869:Middlewares/lvgl/src/widgets/lv_textarea.c ****     }
 870:Middlewares/lvgl/src/widgets/lv_textarea.c ****     else if(code == LV_EVENT_SIZE_CHANGED) {
 871:Middlewares/lvgl/src/widgets/lv_textarea.c ****         /*Set the label width according to the text area width*/
 872:Middlewares/lvgl/src/widgets/lv_textarea.c ****         if(ta->label) {
 873:Middlewares/lvgl/src/widgets/lv_textarea.c ****             lv_obj_set_pos(ta->label, 0, 0);
 874:Middlewares/lvgl/src/widgets/lv_textarea.c ****             lv_label_set_text(ta->label, NULL); /*Refresh the label*/
 875:Middlewares/lvgl/src/widgets/lv_textarea.c **** 
 876:Middlewares/lvgl/src/widgets/lv_textarea.c ****             refr_cursor_area(obj);
 877:Middlewares/lvgl/src/widgets/lv_textarea.c ****         }
 878:Middlewares/lvgl/src/widgets/lv_textarea.c ****     }
 879:Middlewares/lvgl/src/widgets/lv_textarea.c ****     else if(code == LV_EVENT_KEY) {
 880:Middlewares/lvgl/src/widgets/lv_textarea.c ****         uint32_t c = *((uint32_t *)lv_event_get_param(e)); /*uint32_t because can be UTF-8*/
 881:Middlewares/lvgl/src/widgets/lv_textarea.c ****         if(c == LV_KEY_RIGHT)
 882:Middlewares/lvgl/src/widgets/lv_textarea.c ****             lv_textarea_cursor_right(obj);
 883:Middlewares/lvgl/src/widgets/lv_textarea.c ****         else if(c == LV_KEY_LEFT)
 884:Middlewares/lvgl/src/widgets/lv_textarea.c ****             lv_textarea_cursor_left(obj);
 885:Middlewares/lvgl/src/widgets/lv_textarea.c ****         else if(c == LV_KEY_UP)
 886:Middlewares/lvgl/src/widgets/lv_textarea.c ****             lv_textarea_cursor_up(obj);
ARM GAS  /tmp/cctamPcj.s 			page 17


 887:Middlewares/lvgl/src/widgets/lv_textarea.c ****         else if(c == LV_KEY_DOWN)
 888:Middlewares/lvgl/src/widgets/lv_textarea.c ****             lv_textarea_cursor_down(obj);
 889:Middlewares/lvgl/src/widgets/lv_textarea.c ****         else if(c == LV_KEY_BACKSPACE)
 890:Middlewares/lvgl/src/widgets/lv_textarea.c ****             lv_textarea_del_char(obj);
 891:Middlewares/lvgl/src/widgets/lv_textarea.c ****         else if(c == LV_KEY_DEL)
 892:Middlewares/lvgl/src/widgets/lv_textarea.c ****             lv_textarea_del_char_forward(obj);
 893:Middlewares/lvgl/src/widgets/lv_textarea.c ****         else if(c == LV_KEY_HOME)
 894:Middlewares/lvgl/src/widgets/lv_textarea.c ****             lv_textarea_set_cursor_pos(obj, 0);
 895:Middlewares/lvgl/src/widgets/lv_textarea.c ****         else if(c == LV_KEY_END)
 896:Middlewares/lvgl/src/widgets/lv_textarea.c ****             lv_textarea_set_cursor_pos(obj, LV_TEXTAREA_CURSOR_LAST);
 897:Middlewares/lvgl/src/widgets/lv_textarea.c ****         else if(c == LV_KEY_ENTER && lv_textarea_get_one_line(obj))
 898:Middlewares/lvgl/src/widgets/lv_textarea.c ****             lv_event_send(obj, LV_EVENT_READY, NULL);
 899:Middlewares/lvgl/src/widgets/lv_textarea.c ****         else {
 900:Middlewares/lvgl/src/widgets/lv_textarea.c ****             lv_textarea_add_char(obj, c);
 901:Middlewares/lvgl/src/widgets/lv_textarea.c ****         }
 902:Middlewares/lvgl/src/widgets/lv_textarea.c ****     }
 903:Middlewares/lvgl/src/widgets/lv_textarea.c ****     else if(code == LV_EVENT_PRESSED || code == LV_EVENT_PRESSING || code == LV_EVENT_PRESS_LOST ||
 904:Middlewares/lvgl/src/widgets/lv_textarea.c ****             code == LV_EVENT_RELEASED) {
 905:Middlewares/lvgl/src/widgets/lv_textarea.c ****         update_cursor_position_on_click(e);
 906:Middlewares/lvgl/src/widgets/lv_textarea.c ****     }
 907:Middlewares/lvgl/src/widgets/lv_textarea.c ****     else if(code == LV_EVENT_DRAW_MAIN) {
 908:Middlewares/lvgl/src/widgets/lv_textarea.c ****         draw_placeholder(e);
 909:Middlewares/lvgl/src/widgets/lv_textarea.c ****     }
 910:Middlewares/lvgl/src/widgets/lv_textarea.c ****     else if(code == LV_EVENT_DRAW_POST) {
 911:Middlewares/lvgl/src/widgets/lv_textarea.c ****         draw_cursor(e);
 912:Middlewares/lvgl/src/widgets/lv_textarea.c ****     }
 913:Middlewares/lvgl/src/widgets/lv_textarea.c **** }
 914:Middlewares/lvgl/src/widgets/lv_textarea.c **** 
 915:Middlewares/lvgl/src/widgets/lv_textarea.c **** /**
 916:Middlewares/lvgl/src/widgets/lv_textarea.c ****  * Called to blink the cursor
 917:Middlewares/lvgl/src/widgets/lv_textarea.c ****  * @param ta pointer to a text area
 918:Middlewares/lvgl/src/widgets/lv_textarea.c ****  * @param hide 1: hide the cursor, 0: show it
 919:Middlewares/lvgl/src/widgets/lv_textarea.c ****  */
 920:Middlewares/lvgl/src/widgets/lv_textarea.c **** static void cursor_blink_anim_cb(void * obj, int32_t show)
 921:Middlewares/lvgl/src/widgets/lv_textarea.c **** {
 922:Middlewares/lvgl/src/widgets/lv_textarea.c ****      lv_textarea_t * ta = (lv_textarea_t *)obj;
 923:Middlewares/lvgl/src/widgets/lv_textarea.c ****     if(show != ta->cursor.show) {
 924:Middlewares/lvgl/src/widgets/lv_textarea.c ****         ta->cursor.show = show == 0 ? 0 : 1;
 925:Middlewares/lvgl/src/widgets/lv_textarea.c ****         lv_area_t area_tmp;
 926:Middlewares/lvgl/src/widgets/lv_textarea.c ****         lv_area_copy(&area_tmp, &ta->cursor.area);
 927:Middlewares/lvgl/src/widgets/lv_textarea.c ****         area_tmp.x1 += ta->label->coords.x1;
 928:Middlewares/lvgl/src/widgets/lv_textarea.c ****         area_tmp.y1 += ta->label->coords.y1;
 929:Middlewares/lvgl/src/widgets/lv_textarea.c ****         area_tmp.x2 += ta->label->coords.x1;
 930:Middlewares/lvgl/src/widgets/lv_textarea.c ****         area_tmp.y2 += ta->label->coords.y1;
 931:Middlewares/lvgl/src/widgets/lv_textarea.c ****         lv_obj_invalidate_area(obj, &area_tmp);
 932:Middlewares/lvgl/src/widgets/lv_textarea.c ****     }
 933:Middlewares/lvgl/src/widgets/lv_textarea.c **** }
 934:Middlewares/lvgl/src/widgets/lv_textarea.c **** 
 935:Middlewares/lvgl/src/widgets/lv_textarea.c **** /**
 936:Middlewares/lvgl/src/widgets/lv_textarea.c ****  * Dummy function to animate char hiding in pwd mode.
 937:Middlewares/lvgl/src/widgets/lv_textarea.c ****  * Does nothing, but a function is required in car hiding anim.
 938:Middlewares/lvgl/src/widgets/lv_textarea.c ****  * (pwd_char_hider callback do the real job)
 939:Middlewares/lvgl/src/widgets/lv_textarea.c ****  * @param ta unused
 940:Middlewares/lvgl/src/widgets/lv_textarea.c ****  * @param x unused
 941:Middlewares/lvgl/src/widgets/lv_textarea.c ****  */
 942:Middlewares/lvgl/src/widgets/lv_textarea.c **** static void pwd_char_hider_anim(void * obj, int32_t x)
 943:Middlewares/lvgl/src/widgets/lv_textarea.c **** {
ARM GAS  /tmp/cctamPcj.s 			page 18


  28              		.loc 1 943 1 view -0
  29              		.cfi_startproc
  30              		@ args = 0, pretend = 0, frame = 0
  31              		@ frame_needed = 0, uses_anonymous_args = 0
  32              		@ link register save eliminated.
 944:Middlewares/lvgl/src/widgets/lv_textarea.c ****     LV_UNUSED(obj);
  33              		.loc 1 944 5 view .LVU1
 945:Middlewares/lvgl/src/widgets/lv_textarea.c ****     LV_UNUSED(x);
  34              		.loc 1 945 5 view .LVU2
 946:Middlewares/lvgl/src/widgets/lv_textarea.c **** }
  35              		.loc 1 946 1 is_stmt 0 view .LVU3
  36 0000 7047     		bx	lr
  37              		.cfi_endproc
  38              	.LFE185:
  40              		.section	.text.cursor_blink_anim_cb,"ax",%progbits
  41              		.align	1
  42              		.syntax unified
  43              		.thumb
  44              		.thumb_func
  46              	cursor_blink_anim_cb:
  47              	.LVL1:
  48              	.LFB184:
 921:Middlewares/lvgl/src/widgets/lv_textarea.c ****      lv_textarea_t * ta = (lv_textarea_t *)obj;
  49              		.loc 1 921 1 is_stmt 1 view -0
  50              		.cfi_startproc
  51              		@ args = 0, pretend = 0, frame = 8
  52              		@ frame_needed = 0, uses_anonymous_args = 0
 922:Middlewares/lvgl/src/widgets/lv_textarea.c ****     if(show != ta->cursor.show) {
  53              		.loc 1 922 6 view .LVU5
 923:Middlewares/lvgl/src/widgets/lv_textarea.c ****         ta->cursor.show = show == 0 ? 0 : 1;
  54              		.loc 1 923 5 view .LVU6
 923:Middlewares/lvgl/src/widgets/lv_textarea.c ****         ta->cursor.show = show == 0 ? 0 : 1;
  55              		.loc 1 923 26 is_stmt 0 view .LVU7
  56 0000 90F85030 		ldrb	r3, [r0, #80]	@ zero_extendqisi2
  57 0004 03F00103 		and	r3, r3, #1
 923:Middlewares/lvgl/src/widgets/lv_textarea.c ****         ta->cursor.show = show == 0 ? 0 : 1;
  58              		.loc 1 923 7 view .LVU8
  59 0008 8B42     		cmp	r3, r1
  60 000a 00D1     		bne	.L8
  61 000c 7047     		bx	lr
  62              	.L8:
 921:Middlewares/lvgl/src/widgets/lv_textarea.c ****      lv_textarea_t * ta = (lv_textarea_t *)obj;
  63              		.loc 1 921 1 view .LVU9
  64 000e 10B5     		push	{r4, lr}
  65              	.LCFI0:
  66              		.cfi_def_cfa_offset 8
  67              		.cfi_offset 4, -8
  68              		.cfi_offset 14, -4
  69 0010 82B0     		sub	sp, sp, #8
  70              	.LCFI1:
  71              		.cfi_def_cfa_offset 16
  72              	.LBB134:
 924:Middlewares/lvgl/src/widgets/lv_textarea.c ****         lv_area_t area_tmp;
  73              		.loc 1 924 9 is_stmt 1 view .LVU10
 924:Middlewares/lvgl/src/widgets/lv_textarea.c ****         lv_area_t area_tmp;
  74              		.loc 1 924 41 is_stmt 0 view .LVU11
  75 0012 0039     		subs	r1, r1, #0
ARM GAS  /tmp/cctamPcj.s 			page 19


 924:Middlewares/lvgl/src/widgets/lv_textarea.c ****         lv_area_t area_tmp;
  76              		.loc 1 924 41 view .LVU12
  77 0014 18BF     		it	ne
  78 0016 0121     		movne	r1, #1
  79              	.LVL2:
 924:Middlewares/lvgl/src/widgets/lv_textarea.c ****         lv_area_t area_tmp;
  80              		.loc 1 924 25 view .LVU13
  81 0018 90F85030 		ldrb	r3, [r0, #80]	@ zero_extendqisi2
  82 001c 61F30003 		bfi	r3, r1, #0, #1
  83 0020 80F85030 		strb	r3, [r0, #80]
 925:Middlewares/lvgl/src/widgets/lv_textarea.c ****         lv_area_copy(&area_tmp, &ta->cursor.area);
  84              		.loc 1 925 9 is_stmt 1 view .LVU14
 926:Middlewares/lvgl/src/widgets/lv_textarea.c ****         area_tmp.x1 += ta->label->coords.x1;
  85              		.loc 1 926 9 view .LVU15
  86              	.LVL3:
  87              	.LBB135:
  88              	.LBI135:
  89              		.file 2 "Middlewares/lvgl/src/widgets/../core/../misc/../font/../misc/lv_area.h"
   1:Middlewares/lvgl/src/widgets/../core/../misc/../font/../misc/lv_area.h **** /**
   2:Middlewares/lvgl/src/widgets/../core/../misc/../font/../misc/lv_area.h ****  * @file lv_area.h
   3:Middlewares/lvgl/src/widgets/../core/../misc/../font/../misc/lv_area.h ****  *
   4:Middlewares/lvgl/src/widgets/../core/../misc/../font/../misc/lv_area.h ****  */
   5:Middlewares/lvgl/src/widgets/../core/../misc/../font/../misc/lv_area.h **** 
   6:Middlewares/lvgl/src/widgets/../core/../misc/../font/../misc/lv_area.h **** #ifndef LV_AREA_H
   7:Middlewares/lvgl/src/widgets/../core/../misc/../font/../misc/lv_area.h **** #define LV_AREA_H
   8:Middlewares/lvgl/src/widgets/../core/../misc/../font/../misc/lv_area.h **** 
   9:Middlewares/lvgl/src/widgets/../core/../misc/../font/../misc/lv_area.h **** #ifdef __cplusplus
  10:Middlewares/lvgl/src/widgets/../core/../misc/../font/../misc/lv_area.h **** extern "C" {
  11:Middlewares/lvgl/src/widgets/../core/../misc/../font/../misc/lv_area.h **** #endif
  12:Middlewares/lvgl/src/widgets/../core/../misc/../font/../misc/lv_area.h **** 
  13:Middlewares/lvgl/src/widgets/../core/../misc/../font/../misc/lv_area.h **** /*********************
  14:Middlewares/lvgl/src/widgets/../core/../misc/../font/../misc/lv_area.h ****  *      INCLUDES
  15:Middlewares/lvgl/src/widgets/../core/../misc/../font/../misc/lv_area.h ****  *********************/
  16:Middlewares/lvgl/src/widgets/../core/../misc/../font/../misc/lv_area.h **** #include "../lv_conf_internal.h"
  17:Middlewares/lvgl/src/widgets/../core/../misc/../font/../misc/lv_area.h **** #include <string.h>
  18:Middlewares/lvgl/src/widgets/../core/../misc/../font/../misc/lv_area.h **** #include <stdbool.h>
  19:Middlewares/lvgl/src/widgets/../core/../misc/../font/../misc/lv_area.h **** #include <stdint.h>
  20:Middlewares/lvgl/src/widgets/../core/../misc/../font/../misc/lv_area.h **** 
  21:Middlewares/lvgl/src/widgets/../core/../misc/../font/../misc/lv_area.h **** /*********************
  22:Middlewares/lvgl/src/widgets/../core/../misc/../font/../misc/lv_area.h ****  *      DEFINES
  23:Middlewares/lvgl/src/widgets/../core/../misc/../font/../misc/lv_area.h ****  *********************/
  24:Middlewares/lvgl/src/widgets/../core/../misc/../font/../misc/lv_area.h **** 
  25:Middlewares/lvgl/src/widgets/../core/../misc/../font/../misc/lv_area.h **** #define _LV_COORD_MAX_REDUCE    8192
  26:Middlewares/lvgl/src/widgets/../core/../misc/../font/../misc/lv_area.h **** 
  27:Middlewares/lvgl/src/widgets/../core/../misc/../font/../misc/lv_area.h **** #if LV_USE_LARGE_COORD
  28:Middlewares/lvgl/src/widgets/../core/../misc/../font/../misc/lv_area.h **** typedef int32_t lv_coord_t;
  29:Middlewares/lvgl/src/widgets/../core/../misc/../font/../misc/lv_area.h **** #else
  30:Middlewares/lvgl/src/widgets/../core/../misc/../font/../misc/lv_area.h **** typedef int16_t lv_coord_t;
  31:Middlewares/lvgl/src/widgets/../core/../misc/../font/../misc/lv_area.h **** #endif
  32:Middlewares/lvgl/src/widgets/../core/../misc/../font/../misc/lv_area.h **** 
  33:Middlewares/lvgl/src/widgets/../core/../misc/../font/../misc/lv_area.h **** /*To allow some special values in the end reduce the max value*/
  34:Middlewares/lvgl/src/widgets/../core/../misc/../font/../misc/lv_area.h **** #define LV_COORD_MAX ((lv_coord_t)((uint32_t)((uint32_t)1 << (8 * sizeof(lv_coord_t) - 1)) - _LV_CO
  35:Middlewares/lvgl/src/widgets/../core/../misc/../font/../misc/lv_area.h **** #define LV_COORD_MIN (-LV_COORD_MAX)
  36:Middlewares/lvgl/src/widgets/../core/../misc/../font/../misc/lv_area.h **** 
  37:Middlewares/lvgl/src/widgets/../core/../misc/../font/../misc/lv_area.h **** LV_EXPORT_CONST_INT(LV_COORD_MAX);
  38:Middlewares/lvgl/src/widgets/../core/../misc/../font/../misc/lv_area.h **** LV_EXPORT_CONST_INT(LV_COORD_MIN);
  39:Middlewares/lvgl/src/widgets/../core/../misc/../font/../misc/lv_area.h **** 
ARM GAS  /tmp/cctamPcj.s 			page 20


  40:Middlewares/lvgl/src/widgets/../core/../misc/../font/../misc/lv_area.h **** /**********************
  41:Middlewares/lvgl/src/widgets/../core/../misc/../font/../misc/lv_area.h ****  *      TYPEDEFS
  42:Middlewares/lvgl/src/widgets/../core/../misc/../font/../misc/lv_area.h ****  **********************/
  43:Middlewares/lvgl/src/widgets/../core/../misc/../font/../misc/lv_area.h **** 
  44:Middlewares/lvgl/src/widgets/../core/../misc/../font/../misc/lv_area.h **** /**
  45:Middlewares/lvgl/src/widgets/../core/../misc/../font/../misc/lv_area.h ****  * Represents a point on the screen.
  46:Middlewares/lvgl/src/widgets/../core/../misc/../font/../misc/lv_area.h ****  */
  47:Middlewares/lvgl/src/widgets/../core/../misc/../font/../misc/lv_area.h **** typedef struct {
  48:Middlewares/lvgl/src/widgets/../core/../misc/../font/../misc/lv_area.h ****     lv_coord_t x;
  49:Middlewares/lvgl/src/widgets/../core/../misc/../font/../misc/lv_area.h ****     lv_coord_t y;
  50:Middlewares/lvgl/src/widgets/../core/../misc/../font/../misc/lv_area.h **** } lv_point_t;
  51:Middlewares/lvgl/src/widgets/../core/../misc/../font/../misc/lv_area.h **** 
  52:Middlewares/lvgl/src/widgets/../core/../misc/../font/../misc/lv_area.h **** /** Represents an area of the screen.*/
  53:Middlewares/lvgl/src/widgets/../core/../misc/../font/../misc/lv_area.h **** typedef struct {
  54:Middlewares/lvgl/src/widgets/../core/../misc/../font/../misc/lv_area.h ****     lv_coord_t x1;
  55:Middlewares/lvgl/src/widgets/../core/../misc/../font/../misc/lv_area.h ****     lv_coord_t y1;
  56:Middlewares/lvgl/src/widgets/../core/../misc/../font/../misc/lv_area.h ****     lv_coord_t x2;
  57:Middlewares/lvgl/src/widgets/../core/../misc/../font/../misc/lv_area.h ****     lv_coord_t y2;
  58:Middlewares/lvgl/src/widgets/../core/../misc/../font/../misc/lv_area.h **** } lv_area_t;
  59:Middlewares/lvgl/src/widgets/../core/../misc/../font/../misc/lv_area.h **** 
  60:Middlewares/lvgl/src/widgets/../core/../misc/../font/../misc/lv_area.h **** /** Alignments*/
  61:Middlewares/lvgl/src/widgets/../core/../misc/../font/../misc/lv_area.h **** enum {
  62:Middlewares/lvgl/src/widgets/../core/../misc/../font/../misc/lv_area.h ****     LV_ALIGN_DEFAULT = 0,
  63:Middlewares/lvgl/src/widgets/../core/../misc/../font/../misc/lv_area.h ****     LV_ALIGN_TOP_LEFT,
  64:Middlewares/lvgl/src/widgets/../core/../misc/../font/../misc/lv_area.h ****     LV_ALIGN_TOP_MID,
  65:Middlewares/lvgl/src/widgets/../core/../misc/../font/../misc/lv_area.h ****     LV_ALIGN_TOP_RIGHT,
  66:Middlewares/lvgl/src/widgets/../core/../misc/../font/../misc/lv_area.h ****     LV_ALIGN_BOTTOM_LEFT,
  67:Middlewares/lvgl/src/widgets/../core/../misc/../font/../misc/lv_area.h ****     LV_ALIGN_BOTTOM_MID,
  68:Middlewares/lvgl/src/widgets/../core/../misc/../font/../misc/lv_area.h ****     LV_ALIGN_BOTTOM_RIGHT,
  69:Middlewares/lvgl/src/widgets/../core/../misc/../font/../misc/lv_area.h ****     LV_ALIGN_LEFT_MID,
  70:Middlewares/lvgl/src/widgets/../core/../misc/../font/../misc/lv_area.h ****     LV_ALIGN_RIGHT_MID,
  71:Middlewares/lvgl/src/widgets/../core/../misc/../font/../misc/lv_area.h ****     LV_ALIGN_CENTER,
  72:Middlewares/lvgl/src/widgets/../core/../misc/../font/../misc/lv_area.h **** 
  73:Middlewares/lvgl/src/widgets/../core/../misc/../font/../misc/lv_area.h ****     LV_ALIGN_OUT_TOP_LEFT,
  74:Middlewares/lvgl/src/widgets/../core/../misc/../font/../misc/lv_area.h ****     LV_ALIGN_OUT_TOP_MID,
  75:Middlewares/lvgl/src/widgets/../core/../misc/../font/../misc/lv_area.h ****     LV_ALIGN_OUT_TOP_RIGHT,
  76:Middlewares/lvgl/src/widgets/../core/../misc/../font/../misc/lv_area.h ****     LV_ALIGN_OUT_BOTTOM_LEFT,
  77:Middlewares/lvgl/src/widgets/../core/../misc/../font/../misc/lv_area.h ****     LV_ALIGN_OUT_BOTTOM_MID,
  78:Middlewares/lvgl/src/widgets/../core/../misc/../font/../misc/lv_area.h ****     LV_ALIGN_OUT_BOTTOM_RIGHT,
  79:Middlewares/lvgl/src/widgets/../core/../misc/../font/../misc/lv_area.h ****     LV_ALIGN_OUT_LEFT_TOP,
  80:Middlewares/lvgl/src/widgets/../core/../misc/../font/../misc/lv_area.h ****     LV_ALIGN_OUT_LEFT_MID,
  81:Middlewares/lvgl/src/widgets/../core/../misc/../font/../misc/lv_area.h ****     LV_ALIGN_OUT_LEFT_BOTTOM,
  82:Middlewares/lvgl/src/widgets/../core/../misc/../font/../misc/lv_area.h ****     LV_ALIGN_OUT_RIGHT_TOP,
  83:Middlewares/lvgl/src/widgets/../core/../misc/../font/../misc/lv_area.h ****     LV_ALIGN_OUT_RIGHT_MID,
  84:Middlewares/lvgl/src/widgets/../core/../misc/../font/../misc/lv_area.h ****     LV_ALIGN_OUT_RIGHT_BOTTOM,
  85:Middlewares/lvgl/src/widgets/../core/../misc/../font/../misc/lv_area.h **** };
  86:Middlewares/lvgl/src/widgets/../core/../misc/../font/../misc/lv_area.h **** typedef uint8_t lv_align_t;
  87:Middlewares/lvgl/src/widgets/../core/../misc/../font/../misc/lv_area.h **** 
  88:Middlewares/lvgl/src/widgets/../core/../misc/../font/../misc/lv_area.h **** enum {
  89:Middlewares/lvgl/src/widgets/../core/../misc/../font/../misc/lv_area.h ****     LV_DIR_NONE     = 0x00,
  90:Middlewares/lvgl/src/widgets/../core/../misc/../font/../misc/lv_area.h ****     LV_DIR_LEFT     = (1 << 0),
  91:Middlewares/lvgl/src/widgets/../core/../misc/../font/../misc/lv_area.h ****     LV_DIR_RIGHT    = (1 << 1),
  92:Middlewares/lvgl/src/widgets/../core/../misc/../font/../misc/lv_area.h ****     LV_DIR_TOP      = (1 << 2),
  93:Middlewares/lvgl/src/widgets/../core/../misc/../font/../misc/lv_area.h ****     LV_DIR_BOTTOM   = (1 << 3),
  94:Middlewares/lvgl/src/widgets/../core/../misc/../font/../misc/lv_area.h ****     LV_DIR_HOR      = LV_DIR_LEFT | LV_DIR_RIGHT,
  95:Middlewares/lvgl/src/widgets/../core/../misc/../font/../misc/lv_area.h ****     LV_DIR_VER      = LV_DIR_TOP | LV_DIR_BOTTOM,
  96:Middlewares/lvgl/src/widgets/../core/../misc/../font/../misc/lv_area.h ****     LV_DIR_ALL      = LV_DIR_HOR | LV_DIR_VER,
ARM GAS  /tmp/cctamPcj.s 			page 21


  97:Middlewares/lvgl/src/widgets/../core/../misc/../font/../misc/lv_area.h **** };
  98:Middlewares/lvgl/src/widgets/../core/../misc/../font/../misc/lv_area.h **** 
  99:Middlewares/lvgl/src/widgets/../core/../misc/../font/../misc/lv_area.h **** typedef uint8_t lv_dir_t;
 100:Middlewares/lvgl/src/widgets/../core/../misc/../font/../misc/lv_area.h **** 
 101:Middlewares/lvgl/src/widgets/../core/../misc/../font/../misc/lv_area.h **** /**********************
 102:Middlewares/lvgl/src/widgets/../core/../misc/../font/../misc/lv_area.h ****  * GLOBAL PROTOTYPES
 103:Middlewares/lvgl/src/widgets/../core/../misc/../font/../misc/lv_area.h ****  **********************/
 104:Middlewares/lvgl/src/widgets/../core/../misc/../font/../misc/lv_area.h **** 
 105:Middlewares/lvgl/src/widgets/../core/../misc/../font/../misc/lv_area.h **** /**
 106:Middlewares/lvgl/src/widgets/../core/../misc/../font/../misc/lv_area.h ****  * Initialize an area
 107:Middlewares/lvgl/src/widgets/../core/../misc/../font/../misc/lv_area.h ****  * @param area_p pointer to an area
 108:Middlewares/lvgl/src/widgets/../core/../misc/../font/../misc/lv_area.h ****  * @param x1 left coordinate of the area
 109:Middlewares/lvgl/src/widgets/../core/../misc/../font/../misc/lv_area.h ****  * @param y1 top coordinate of the area
 110:Middlewares/lvgl/src/widgets/../core/../misc/../font/../misc/lv_area.h ****  * @param x2 right coordinate of the area
 111:Middlewares/lvgl/src/widgets/../core/../misc/../font/../misc/lv_area.h ****  * @param y2 bottom coordinate of the area
 112:Middlewares/lvgl/src/widgets/../core/../misc/../font/../misc/lv_area.h ****  */
 113:Middlewares/lvgl/src/widgets/../core/../misc/../font/../misc/lv_area.h **** void lv_area_set(lv_area_t * area_p, lv_coord_t x1, lv_coord_t y1, lv_coord_t x2, lv_coord_t y2);
 114:Middlewares/lvgl/src/widgets/../core/../misc/../font/../misc/lv_area.h **** 
 115:Middlewares/lvgl/src/widgets/../core/../misc/../font/../misc/lv_area.h **** /**
 116:Middlewares/lvgl/src/widgets/../core/../misc/../font/../misc/lv_area.h ****  * Copy an area
 117:Middlewares/lvgl/src/widgets/../core/../misc/../font/../misc/lv_area.h ****  * @param dest pointer to the destination area
 118:Middlewares/lvgl/src/widgets/../core/../misc/../font/../misc/lv_area.h ****  * @param src pointer to the source area
 119:Middlewares/lvgl/src/widgets/../core/../misc/../font/../misc/lv_area.h ****  */
 120:Middlewares/lvgl/src/widgets/../core/../misc/../font/../misc/lv_area.h **** inline static void lv_area_copy(lv_area_t * dest, const lv_area_t * src)
  90              		.loc 2 120 20 view .LVU16
  91              	.LBB136:
 121:Middlewares/lvgl/src/widgets/../core/../misc/../font/../misc/lv_area.h **** {
 122:Middlewares/lvgl/src/widgets/../core/../misc/../font/../misc/lv_area.h ****     dest->x1 = src->x1;
  92              		.loc 2 122 5 view .LVU17
  93              		.loc 2 122 19 is_stmt 0 view .LVU18
  94 0024 B0F944C0 		ldrsh	ip, [r0, #68]
  95              		.loc 2 122 14 view .LVU19
  96 0028 ADF800C0 		strh	ip, [sp]	@ movhi
 123:Middlewares/lvgl/src/widgets/../core/../misc/../font/../misc/lv_area.h ****     dest->y1 = src->y1;
  97              		.loc 2 123 5 is_stmt 1 view .LVU20
  98              		.loc 2 123 19 is_stmt 0 view .LVU21
  99 002c B0F94610 		ldrsh	r1, [r0, #70]
 100              		.loc 2 123 14 view .LVU22
 101 0030 ADF80210 		strh	r1, [sp, #2]	@ movhi
 124:Middlewares/lvgl/src/widgets/../core/../misc/../font/../misc/lv_area.h ****     dest->x2 = src->x2;
 102              		.loc 2 124 5 is_stmt 1 view .LVU23
 103              		.loc 2 124 19 is_stmt 0 view .LVU24
 104 0034 B0F94840 		ldrsh	r4, [r0, #72]
 105              		.loc 2 124 14 view .LVU25
 106 0038 ADF80440 		strh	r4, [sp, #4]	@ movhi
 125:Middlewares/lvgl/src/widgets/../core/../misc/../font/../misc/lv_area.h ****     dest->y2 = src->y2;
 107              		.loc 2 125 5 is_stmt 1 view .LVU26
 108              		.loc 2 125 19 is_stmt 0 view .LVU27
 109 003c B0F94AE0 		ldrsh	lr, [r0, #74]
 110              		.loc 2 125 14 view .LVU28
 111 0040 ADF806E0 		strh	lr, [sp, #6]	@ movhi
 112              	.LVL4:
 113              		.loc 2 125 14 view .LVU29
 114              	.LBE136:
 115              	.LBE135:
 927:Middlewares/lvgl/src/widgets/lv_textarea.c ****         area_tmp.y1 += ta->label->coords.y1;
 116              		.loc 1 927 9 is_stmt 1 view .LVU30
ARM GAS  /tmp/cctamPcj.s 			page 22


 927:Middlewares/lvgl/src/widgets/lv_textarea.c ****         area_tmp.y1 += ta->label->coords.y1;
 117              		.loc 1 927 26 is_stmt 0 view .LVU31
 118 0044 436A     		ldr	r3, [r0, #36]
 927:Middlewares/lvgl/src/widgets/lv_textarea.c ****         area_tmp.y1 += ta->label->coords.y1;
 119              		.loc 1 927 41 view .LVU32
 120 0046 9A8A     		ldrh	r2, [r3, #20]
 927:Middlewares/lvgl/src/widgets/lv_textarea.c ****         area_tmp.y1 += ta->label->coords.y1;
 121              		.loc 1 927 21 view .LVU33
 122 0048 9444     		add	ip, ip, r2
 123 004a ADF800C0 		strh	ip, [sp]	@ movhi
 928:Middlewares/lvgl/src/widgets/lv_textarea.c ****         area_tmp.x2 += ta->label->coords.x1;
 124              		.loc 1 928 9 is_stmt 1 view .LVU34
 928:Middlewares/lvgl/src/widgets/lv_textarea.c ****         area_tmp.x2 += ta->label->coords.x1;
 125              		.loc 1 928 41 is_stmt 0 view .LVU35
 126 004e DB8A     		ldrh	r3, [r3, #22]
 928:Middlewares/lvgl/src/widgets/lv_textarea.c ****         area_tmp.x2 += ta->label->coords.x1;
 127              		.loc 1 928 21 view .LVU36
 128 0050 1944     		add	r1, r1, r3
 129 0052 ADF80210 		strh	r1, [sp, #2]	@ movhi
 929:Middlewares/lvgl/src/widgets/lv_textarea.c ****         area_tmp.y2 += ta->label->coords.y1;
 130              		.loc 1 929 9 is_stmt 1 view .LVU37
 929:Middlewares/lvgl/src/widgets/lv_textarea.c ****         area_tmp.y2 += ta->label->coords.y1;
 131              		.loc 1 929 21 is_stmt 0 view .LVU38
 132 0056 2244     		add	r2, r2, r4
 133 0058 ADF80420 		strh	r2, [sp, #4]	@ movhi
 930:Middlewares/lvgl/src/widgets/lv_textarea.c ****         lv_obj_invalidate_area(obj, &area_tmp);
 134              		.loc 1 930 9 is_stmt 1 view .LVU39
 930:Middlewares/lvgl/src/widgets/lv_textarea.c ****         lv_obj_invalidate_area(obj, &area_tmp);
 135              		.loc 1 930 21 is_stmt 0 view .LVU40
 136 005c 7344     		add	r3, r3, lr
 137 005e ADF80630 		strh	r3, [sp, #6]	@ movhi
 931:Middlewares/lvgl/src/widgets/lv_textarea.c ****     }
 138              		.loc 1 931 9 is_stmt 1 view .LVU41
 139 0062 6946     		mov	r1, sp
 140 0064 FFF7FEFF 		bl	lv_obj_invalidate_area
 141              	.LVL5:
 931:Middlewares/lvgl/src/widgets/lv_textarea.c ****     }
 142              		.loc 1 931 9 is_stmt 0 view .LVU42
 143              	.LBE134:
 933:Middlewares/lvgl/src/widgets/lv_textarea.c **** 
 144              		.loc 1 933 1 view .LVU43
 145 0068 02B0     		add	sp, sp, #8
 146              	.LCFI2:
 147              		.cfi_def_cfa_offset 8
 148              		@ sp needed
 149 006a 10BD     		pop	{r4, pc}
 150              		.cfi_endproc
 151              	.LFE184:
 153              		.section	.text.start_cursor_blink,"ax",%progbits
 154              		.align	1
 155              		.syntax unified
 156              		.thumb
 157              		.thumb_func
 159              	start_cursor_blink:
 160              	.LVL6:
 161              	.LFB189:
 947:Middlewares/lvgl/src/widgets/lv_textarea.c **** 
ARM GAS  /tmp/cctamPcj.s 			page 23


 948:Middlewares/lvgl/src/widgets/lv_textarea.c **** /**
 949:Middlewares/lvgl/src/widgets/lv_textarea.c ****  * Call when an animation is ready to convert all characters to '*'
 950:Middlewares/lvgl/src/widgets/lv_textarea.c ****  * @param a pointer to the animation
 951:Middlewares/lvgl/src/widgets/lv_textarea.c ****  */
 952:Middlewares/lvgl/src/widgets/lv_textarea.c **** static void pwd_char_hider_anim_ready(lv_anim_t * a)
 953:Middlewares/lvgl/src/widgets/lv_textarea.c **** {
 954:Middlewares/lvgl/src/widgets/lv_textarea.c ****     lv_obj_t * obj = a->var;
 955:Middlewares/lvgl/src/widgets/lv_textarea.c ****     pwd_char_hider(obj);
 956:Middlewares/lvgl/src/widgets/lv_textarea.c **** }
 957:Middlewares/lvgl/src/widgets/lv_textarea.c **** 
 958:Middlewares/lvgl/src/widgets/lv_textarea.c **** /**
 959:Middlewares/lvgl/src/widgets/lv_textarea.c ****  * Hide all characters (convert them to '*')
 960:Middlewares/lvgl/src/widgets/lv_textarea.c ****  * @param ta pointer to text area object
 961:Middlewares/lvgl/src/widgets/lv_textarea.c ****  */
 962:Middlewares/lvgl/src/widgets/lv_textarea.c **** static void pwd_char_hider(lv_obj_t * obj)
 963:Middlewares/lvgl/src/widgets/lv_textarea.c **** {
 964:Middlewares/lvgl/src/widgets/lv_textarea.c ****      lv_textarea_t * ta = (lv_textarea_t *)obj;
 965:Middlewares/lvgl/src/widgets/lv_textarea.c ****     if(ta->pwd_mode != 0) {
 966:Middlewares/lvgl/src/widgets/lv_textarea.c ****         char * txt  = lv_label_get_text(ta->label);
 967:Middlewares/lvgl/src/widgets/lv_textarea.c ****         int32_t enc_len = _lv_txt_get_encoded_length(txt);
 968:Middlewares/lvgl/src/widgets/lv_textarea.c ****         if(enc_len == 0) return;
 969:Middlewares/lvgl/src/widgets/lv_textarea.c **** 
 970:Middlewares/lvgl/src/widgets/lv_textarea.c ****         /*If the textarea's font has "bullet" character use it else fallback to "*"*/
 971:Middlewares/lvgl/src/widgets/lv_textarea.c ****         const lv_font_t * font = lv_obj_get_style_text_font(obj, LV_PART_MAIN);
 972:Middlewares/lvgl/src/widgets/lv_textarea.c ****         lv_font_glyph_dsc_t g;
 973:Middlewares/lvgl/src/widgets/lv_textarea.c ****         bool has_bullet;
 974:Middlewares/lvgl/src/widgets/lv_textarea.c ****         has_bullet = lv_font_get_glyph_dsc(font, &g, LV_TEXTAREA_PWD_BULLET_UNICODE, 0);
 975:Middlewares/lvgl/src/widgets/lv_textarea.c ****         const char * bullet;
 976:Middlewares/lvgl/src/widgets/lv_textarea.c ****         if(has_bullet) bullet = LV_SYMBOL_BULLET;
 977:Middlewares/lvgl/src/widgets/lv_textarea.c ****         else bullet = "*";
 978:Middlewares/lvgl/src/widgets/lv_textarea.c **** 
 979:Middlewares/lvgl/src/widgets/lv_textarea.c ****         size_t bullet_len = strlen(bullet);
 980:Middlewares/lvgl/src/widgets/lv_textarea.c ****         char * txt_tmp = lv_mem_buf_get(enc_len * bullet_len + 1);
 981:Middlewares/lvgl/src/widgets/lv_textarea.c ****         int32_t i;
 982:Middlewares/lvgl/src/widgets/lv_textarea.c ****         for(i = 0; i < enc_len; i++) {
 983:Middlewares/lvgl/src/widgets/lv_textarea.c ****             lv_memcpy(&txt_tmp[i * bullet_len], bullet, bullet_len);
 984:Middlewares/lvgl/src/widgets/lv_textarea.c ****         }
 985:Middlewares/lvgl/src/widgets/lv_textarea.c **** 
 986:Middlewares/lvgl/src/widgets/lv_textarea.c ****         txt_tmp[i * bullet_len] = '\0';
 987:Middlewares/lvgl/src/widgets/lv_textarea.c **** 
 988:Middlewares/lvgl/src/widgets/lv_textarea.c ****         lv_label_set_text(ta->label, txt_tmp);
 989:Middlewares/lvgl/src/widgets/lv_textarea.c ****         lv_mem_buf_release(txt_tmp);
 990:Middlewares/lvgl/src/widgets/lv_textarea.c ****         refr_cursor_area(obj);
 991:Middlewares/lvgl/src/widgets/lv_textarea.c ****     }
 992:Middlewares/lvgl/src/widgets/lv_textarea.c **** }
 993:Middlewares/lvgl/src/widgets/lv_textarea.c **** 
 994:Middlewares/lvgl/src/widgets/lv_textarea.c **** /**
 995:Middlewares/lvgl/src/widgets/lv_textarea.c ****  * Test an unicode character if it is accepted or not. Checks max length and accepted char list.
 996:Middlewares/lvgl/src/widgets/lv_textarea.c ****  * @param ta pointer to a test area object
 997:Middlewares/lvgl/src/widgets/lv_textarea.c ****  * @param c an unicode character
 998:Middlewares/lvgl/src/widgets/lv_textarea.c ****  * @return true: accepted; false: rejected
 999:Middlewares/lvgl/src/widgets/lv_textarea.c ****  */
1000:Middlewares/lvgl/src/widgets/lv_textarea.c **** static bool char_is_accepted(lv_obj_t * obj, uint32_t c)
1001:Middlewares/lvgl/src/widgets/lv_textarea.c **** {
1002:Middlewares/lvgl/src/widgets/lv_textarea.c ****      lv_textarea_t * ta = (lv_textarea_t *)obj;
1003:Middlewares/lvgl/src/widgets/lv_textarea.c **** 
1004:Middlewares/lvgl/src/widgets/lv_textarea.c ****     /*If no restriction accept it*/
ARM GAS  /tmp/cctamPcj.s 			page 24


1005:Middlewares/lvgl/src/widgets/lv_textarea.c ****     if(ta->accepted_chars == NULL && ta->max_length == 0) return true;
1006:Middlewares/lvgl/src/widgets/lv_textarea.c **** 
1007:Middlewares/lvgl/src/widgets/lv_textarea.c ****     /*Too many characters?*/
1008:Middlewares/lvgl/src/widgets/lv_textarea.c ****     if(ta->max_length > 0 && _lv_txt_get_encoded_length(lv_textarea_get_text(obj)) >= ta->max_lengt
1009:Middlewares/lvgl/src/widgets/lv_textarea.c ****         return false;
1010:Middlewares/lvgl/src/widgets/lv_textarea.c ****     }
1011:Middlewares/lvgl/src/widgets/lv_textarea.c **** 
1012:Middlewares/lvgl/src/widgets/lv_textarea.c ****     /*Accepted character?*/
1013:Middlewares/lvgl/src/widgets/lv_textarea.c ****     if(ta->accepted_chars) {
1014:Middlewares/lvgl/src/widgets/lv_textarea.c ****         uint32_t i = 0;
1015:Middlewares/lvgl/src/widgets/lv_textarea.c **** 
1016:Middlewares/lvgl/src/widgets/lv_textarea.c ****         while(ta->accepted_chars[i] != '\0') {
1017:Middlewares/lvgl/src/widgets/lv_textarea.c ****             uint32_t a = _lv_txt_encoded_next(ta->accepted_chars, &i);
1018:Middlewares/lvgl/src/widgets/lv_textarea.c ****             if(a == c) return true; /*Accepted*/
1019:Middlewares/lvgl/src/widgets/lv_textarea.c ****         }
1020:Middlewares/lvgl/src/widgets/lv_textarea.c **** 
1021:Middlewares/lvgl/src/widgets/lv_textarea.c ****         return false; /*The character wasn't in the list*/
1022:Middlewares/lvgl/src/widgets/lv_textarea.c ****     }
1023:Middlewares/lvgl/src/widgets/lv_textarea.c ****     else {
1024:Middlewares/lvgl/src/widgets/lv_textarea.c ****         return true; /*If the accepted char list in not specified the accept the character*/
1025:Middlewares/lvgl/src/widgets/lv_textarea.c ****     }
1026:Middlewares/lvgl/src/widgets/lv_textarea.c **** }
1027:Middlewares/lvgl/src/widgets/lv_textarea.c **** 
1028:Middlewares/lvgl/src/widgets/lv_textarea.c **** static void start_cursor_blink(lv_obj_t * obj)
1029:Middlewares/lvgl/src/widgets/lv_textarea.c **** {
 162              		.loc 1 1029 1 is_stmt 1 view -0
 163              		.cfi_startproc
 164              		@ args = 0, pretend = 0, frame = 72
 165              		@ frame_needed = 0, uses_anonymous_args = 0
 166              		.loc 1 1029 1 is_stmt 0 view .LVU45
 167 0000 30B5     		push	{r4, r5, lr}
 168              	.LCFI3:
 169              		.cfi_def_cfa_offset 12
 170              		.cfi_offset 4, -12
 171              		.cfi_offset 5, -8
 172              		.cfi_offset 14, -4
 173 0002 93B0     		sub	sp, sp, #76
 174              	.LCFI4:
 175              		.cfi_def_cfa_offset 88
 176 0004 0446     		mov	r4, r0
1030:Middlewares/lvgl/src/widgets/lv_textarea.c ****     lv_textarea_t * ta = (lv_textarea_t *)obj;
 177              		.loc 1 1030 5 is_stmt 1 view .LVU46
 178              	.LVL7:
1031:Middlewares/lvgl/src/widgets/lv_textarea.c ****     uint32_t blink_time = lv_obj_get_style_anim_time(obj, LV_PART_CURSOR);
 179              		.loc 1 1031 5 view .LVU47
 180              	.LBB137:
 181              	.LBI137:
 182              		.file 3 "Middlewares/lvgl/src/widgets/../core/lv_obj_style_gen.h"
   1:Middlewares/lvgl/src/widgets/../core/lv_obj_style_gen.h **** static inline lv_coord_t lv_obj_get_style_width(const struct _lv_obj_t * obj, uint32_t part)
   2:Middlewares/lvgl/src/widgets/../core/lv_obj_style_gen.h **** {
   3:Middlewares/lvgl/src/widgets/../core/lv_obj_style_gen.h ****     lv_style_value_t v = lv_obj_get_style_prop(obj, part, LV_STYLE_WIDTH);
   4:Middlewares/lvgl/src/widgets/../core/lv_obj_style_gen.h ****     return (lv_coord_t)v.num;
   5:Middlewares/lvgl/src/widgets/../core/lv_obj_style_gen.h **** }
   6:Middlewares/lvgl/src/widgets/../core/lv_obj_style_gen.h **** 
   7:Middlewares/lvgl/src/widgets/../core/lv_obj_style_gen.h **** static inline lv_coord_t lv_obj_get_style_min_width(const struct _lv_obj_t * obj, uint32_t part)
   8:Middlewares/lvgl/src/widgets/../core/lv_obj_style_gen.h **** {
   9:Middlewares/lvgl/src/widgets/../core/lv_obj_style_gen.h ****     lv_style_value_t v = lv_obj_get_style_prop(obj, part, LV_STYLE_MIN_WIDTH);
ARM GAS  /tmp/cctamPcj.s 			page 25


  10:Middlewares/lvgl/src/widgets/../core/lv_obj_style_gen.h ****     return (lv_coord_t)v.num;
  11:Middlewares/lvgl/src/widgets/../core/lv_obj_style_gen.h **** }
  12:Middlewares/lvgl/src/widgets/../core/lv_obj_style_gen.h **** 
  13:Middlewares/lvgl/src/widgets/../core/lv_obj_style_gen.h **** static inline lv_coord_t lv_obj_get_style_max_width(const struct _lv_obj_t * obj, uint32_t part)
  14:Middlewares/lvgl/src/widgets/../core/lv_obj_style_gen.h **** {
  15:Middlewares/lvgl/src/widgets/../core/lv_obj_style_gen.h ****     lv_style_value_t v = lv_obj_get_style_prop(obj, part, LV_STYLE_MAX_WIDTH);
  16:Middlewares/lvgl/src/widgets/../core/lv_obj_style_gen.h ****     return (lv_coord_t)v.num;
  17:Middlewares/lvgl/src/widgets/../core/lv_obj_style_gen.h **** }
  18:Middlewares/lvgl/src/widgets/../core/lv_obj_style_gen.h **** 
  19:Middlewares/lvgl/src/widgets/../core/lv_obj_style_gen.h **** static inline lv_coord_t lv_obj_get_style_height(const struct _lv_obj_t * obj, uint32_t part)
  20:Middlewares/lvgl/src/widgets/../core/lv_obj_style_gen.h **** {
  21:Middlewares/lvgl/src/widgets/../core/lv_obj_style_gen.h ****     lv_style_value_t v = lv_obj_get_style_prop(obj, part, LV_STYLE_HEIGHT);
  22:Middlewares/lvgl/src/widgets/../core/lv_obj_style_gen.h ****     return (lv_coord_t)v.num;
  23:Middlewares/lvgl/src/widgets/../core/lv_obj_style_gen.h **** }
  24:Middlewares/lvgl/src/widgets/../core/lv_obj_style_gen.h **** 
  25:Middlewares/lvgl/src/widgets/../core/lv_obj_style_gen.h **** static inline lv_coord_t lv_obj_get_style_min_height(const struct _lv_obj_t * obj, uint32_t part)
  26:Middlewares/lvgl/src/widgets/../core/lv_obj_style_gen.h **** {
  27:Middlewares/lvgl/src/widgets/../core/lv_obj_style_gen.h ****     lv_style_value_t v = lv_obj_get_style_prop(obj, part, LV_STYLE_MIN_HEIGHT);
  28:Middlewares/lvgl/src/widgets/../core/lv_obj_style_gen.h ****     return (lv_coord_t)v.num;
  29:Middlewares/lvgl/src/widgets/../core/lv_obj_style_gen.h **** }
  30:Middlewares/lvgl/src/widgets/../core/lv_obj_style_gen.h **** 
  31:Middlewares/lvgl/src/widgets/../core/lv_obj_style_gen.h **** static inline lv_coord_t lv_obj_get_style_max_height(const struct _lv_obj_t * obj, uint32_t part)
  32:Middlewares/lvgl/src/widgets/../core/lv_obj_style_gen.h **** {
  33:Middlewares/lvgl/src/widgets/../core/lv_obj_style_gen.h ****     lv_style_value_t v = lv_obj_get_style_prop(obj, part, LV_STYLE_MAX_HEIGHT);
  34:Middlewares/lvgl/src/widgets/../core/lv_obj_style_gen.h ****     return (lv_coord_t)v.num;
  35:Middlewares/lvgl/src/widgets/../core/lv_obj_style_gen.h **** }
  36:Middlewares/lvgl/src/widgets/../core/lv_obj_style_gen.h **** 
  37:Middlewares/lvgl/src/widgets/../core/lv_obj_style_gen.h **** static inline lv_coord_t lv_obj_get_style_x(const struct _lv_obj_t * obj, uint32_t part)
  38:Middlewares/lvgl/src/widgets/../core/lv_obj_style_gen.h **** {
  39:Middlewares/lvgl/src/widgets/../core/lv_obj_style_gen.h ****     lv_style_value_t v = lv_obj_get_style_prop(obj, part, LV_STYLE_X);
  40:Middlewares/lvgl/src/widgets/../core/lv_obj_style_gen.h ****     return (lv_coord_t)v.num;
  41:Middlewares/lvgl/src/widgets/../core/lv_obj_style_gen.h **** }
  42:Middlewares/lvgl/src/widgets/../core/lv_obj_style_gen.h **** 
  43:Middlewares/lvgl/src/widgets/../core/lv_obj_style_gen.h **** static inline lv_coord_t lv_obj_get_style_y(const struct _lv_obj_t * obj, uint32_t part)
  44:Middlewares/lvgl/src/widgets/../core/lv_obj_style_gen.h **** {
  45:Middlewares/lvgl/src/widgets/../core/lv_obj_style_gen.h ****     lv_style_value_t v = lv_obj_get_style_prop(obj, part, LV_STYLE_Y);
  46:Middlewares/lvgl/src/widgets/../core/lv_obj_style_gen.h ****     return (lv_coord_t)v.num;
  47:Middlewares/lvgl/src/widgets/../core/lv_obj_style_gen.h **** }
  48:Middlewares/lvgl/src/widgets/../core/lv_obj_style_gen.h **** 
  49:Middlewares/lvgl/src/widgets/../core/lv_obj_style_gen.h **** static inline lv_align_t lv_obj_get_style_align(const struct _lv_obj_t * obj, uint32_t part)
  50:Middlewares/lvgl/src/widgets/../core/lv_obj_style_gen.h **** {
  51:Middlewares/lvgl/src/widgets/../core/lv_obj_style_gen.h ****     lv_style_value_t v = lv_obj_get_style_prop(obj, part, LV_STYLE_ALIGN);
  52:Middlewares/lvgl/src/widgets/../core/lv_obj_style_gen.h ****     return (lv_align_t)v.num;
  53:Middlewares/lvgl/src/widgets/../core/lv_obj_style_gen.h **** }
  54:Middlewares/lvgl/src/widgets/../core/lv_obj_style_gen.h **** 
  55:Middlewares/lvgl/src/widgets/../core/lv_obj_style_gen.h **** static inline lv_coord_t lv_obj_get_style_transform_width(const struct _lv_obj_t * obj, uint32_t pa
  56:Middlewares/lvgl/src/widgets/../core/lv_obj_style_gen.h **** {
  57:Middlewares/lvgl/src/widgets/../core/lv_obj_style_gen.h ****     lv_style_value_t v = lv_obj_get_style_prop(obj, part, LV_STYLE_TRANSFORM_WIDTH);
  58:Middlewares/lvgl/src/widgets/../core/lv_obj_style_gen.h ****     return (lv_coord_t)v.num;
  59:Middlewares/lvgl/src/widgets/../core/lv_obj_style_gen.h **** }
  60:Middlewares/lvgl/src/widgets/../core/lv_obj_style_gen.h **** 
  61:Middlewares/lvgl/src/widgets/../core/lv_obj_style_gen.h **** static inline lv_coord_t lv_obj_get_style_transform_height(const struct _lv_obj_t * obj, uint32_t p
  62:Middlewares/lvgl/src/widgets/../core/lv_obj_style_gen.h **** {
  63:Middlewares/lvgl/src/widgets/../core/lv_obj_style_gen.h ****     lv_style_value_t v = lv_obj_get_style_prop(obj, part, LV_STYLE_TRANSFORM_HEIGHT);
  64:Middlewares/lvgl/src/widgets/../core/lv_obj_style_gen.h ****     return (lv_coord_t)v.num;
  65:Middlewares/lvgl/src/widgets/../core/lv_obj_style_gen.h **** }
  66:Middlewares/lvgl/src/widgets/../core/lv_obj_style_gen.h **** 
ARM GAS  /tmp/cctamPcj.s 			page 26


  67:Middlewares/lvgl/src/widgets/../core/lv_obj_style_gen.h **** static inline lv_coord_t lv_obj_get_style_translate_x(const struct _lv_obj_t * obj, uint32_t part)
  68:Middlewares/lvgl/src/widgets/../core/lv_obj_style_gen.h **** {
  69:Middlewares/lvgl/src/widgets/../core/lv_obj_style_gen.h ****     lv_style_value_t v = lv_obj_get_style_prop(obj, part, LV_STYLE_TRANSLATE_X);
  70:Middlewares/lvgl/src/widgets/../core/lv_obj_style_gen.h ****     return (lv_coord_t)v.num;
  71:Middlewares/lvgl/src/widgets/../core/lv_obj_style_gen.h **** }
  72:Middlewares/lvgl/src/widgets/../core/lv_obj_style_gen.h **** 
  73:Middlewares/lvgl/src/widgets/../core/lv_obj_style_gen.h **** static inline lv_coord_t lv_obj_get_style_translate_y(const struct _lv_obj_t * obj, uint32_t part)
  74:Middlewares/lvgl/src/widgets/../core/lv_obj_style_gen.h **** {
  75:Middlewares/lvgl/src/widgets/../core/lv_obj_style_gen.h ****     lv_style_value_t v = lv_obj_get_style_prop(obj, part, LV_STYLE_TRANSLATE_Y);
  76:Middlewares/lvgl/src/widgets/../core/lv_obj_style_gen.h ****     return (lv_coord_t)v.num;
  77:Middlewares/lvgl/src/widgets/../core/lv_obj_style_gen.h **** }
  78:Middlewares/lvgl/src/widgets/../core/lv_obj_style_gen.h **** 
  79:Middlewares/lvgl/src/widgets/../core/lv_obj_style_gen.h **** static inline lv_coord_t lv_obj_get_style_transform_zoom(const struct _lv_obj_t * obj, uint32_t par
  80:Middlewares/lvgl/src/widgets/../core/lv_obj_style_gen.h **** {
  81:Middlewares/lvgl/src/widgets/../core/lv_obj_style_gen.h ****     lv_style_value_t v = lv_obj_get_style_prop(obj, part, LV_STYLE_TRANSFORM_ZOOM);
  82:Middlewares/lvgl/src/widgets/../core/lv_obj_style_gen.h ****     return (lv_coord_t)v.num;
  83:Middlewares/lvgl/src/widgets/../core/lv_obj_style_gen.h **** }
  84:Middlewares/lvgl/src/widgets/../core/lv_obj_style_gen.h **** 
  85:Middlewares/lvgl/src/widgets/../core/lv_obj_style_gen.h **** static inline lv_coord_t lv_obj_get_style_transform_angle(const struct _lv_obj_t * obj, uint32_t pa
  86:Middlewares/lvgl/src/widgets/../core/lv_obj_style_gen.h **** {
  87:Middlewares/lvgl/src/widgets/../core/lv_obj_style_gen.h ****     lv_style_value_t v = lv_obj_get_style_prop(obj, part, LV_STYLE_TRANSFORM_ANGLE);
  88:Middlewares/lvgl/src/widgets/../core/lv_obj_style_gen.h ****     return (lv_coord_t)v.num;
  89:Middlewares/lvgl/src/widgets/../core/lv_obj_style_gen.h **** }
  90:Middlewares/lvgl/src/widgets/../core/lv_obj_style_gen.h **** 
  91:Middlewares/lvgl/src/widgets/../core/lv_obj_style_gen.h **** static inline lv_coord_t lv_obj_get_style_pad_top(const struct _lv_obj_t * obj, uint32_t part)
  92:Middlewares/lvgl/src/widgets/../core/lv_obj_style_gen.h **** {
  93:Middlewares/lvgl/src/widgets/../core/lv_obj_style_gen.h ****     lv_style_value_t v = lv_obj_get_style_prop(obj, part, LV_STYLE_PAD_TOP);
  94:Middlewares/lvgl/src/widgets/../core/lv_obj_style_gen.h ****     return (lv_coord_t)v.num;
  95:Middlewares/lvgl/src/widgets/../core/lv_obj_style_gen.h **** }
  96:Middlewares/lvgl/src/widgets/../core/lv_obj_style_gen.h **** 
  97:Middlewares/lvgl/src/widgets/../core/lv_obj_style_gen.h **** static inline lv_coord_t lv_obj_get_style_pad_bottom(const struct _lv_obj_t * obj, uint32_t part)
  98:Middlewares/lvgl/src/widgets/../core/lv_obj_style_gen.h **** {
  99:Middlewares/lvgl/src/widgets/../core/lv_obj_style_gen.h ****     lv_style_value_t v = lv_obj_get_style_prop(obj, part, LV_STYLE_PAD_BOTTOM);
 100:Middlewares/lvgl/src/widgets/../core/lv_obj_style_gen.h ****     return (lv_coord_t)v.num;
 101:Middlewares/lvgl/src/widgets/../core/lv_obj_style_gen.h **** }
 102:Middlewares/lvgl/src/widgets/../core/lv_obj_style_gen.h **** 
 103:Middlewares/lvgl/src/widgets/../core/lv_obj_style_gen.h **** static inline lv_coord_t lv_obj_get_style_pad_left(const struct _lv_obj_t * obj, uint32_t part)
 104:Middlewares/lvgl/src/widgets/../core/lv_obj_style_gen.h **** {
 105:Middlewares/lvgl/src/widgets/../core/lv_obj_style_gen.h ****     lv_style_value_t v = lv_obj_get_style_prop(obj, part, LV_STYLE_PAD_LEFT);
 106:Middlewares/lvgl/src/widgets/../core/lv_obj_style_gen.h ****     return (lv_coord_t)v.num;
 107:Middlewares/lvgl/src/widgets/../core/lv_obj_style_gen.h **** }
 108:Middlewares/lvgl/src/widgets/../core/lv_obj_style_gen.h **** 
 109:Middlewares/lvgl/src/widgets/../core/lv_obj_style_gen.h **** static inline lv_coord_t lv_obj_get_style_pad_right(const struct _lv_obj_t * obj, uint32_t part)
 110:Middlewares/lvgl/src/widgets/../core/lv_obj_style_gen.h **** {
 111:Middlewares/lvgl/src/widgets/../core/lv_obj_style_gen.h ****     lv_style_value_t v = lv_obj_get_style_prop(obj, part, LV_STYLE_PAD_RIGHT);
 112:Middlewares/lvgl/src/widgets/../core/lv_obj_style_gen.h ****     return (lv_coord_t)v.num;
 113:Middlewares/lvgl/src/widgets/../core/lv_obj_style_gen.h **** }
 114:Middlewares/lvgl/src/widgets/../core/lv_obj_style_gen.h **** 
 115:Middlewares/lvgl/src/widgets/../core/lv_obj_style_gen.h **** static inline lv_coord_t lv_obj_get_style_pad_row(const struct _lv_obj_t * obj, uint32_t part)
 116:Middlewares/lvgl/src/widgets/../core/lv_obj_style_gen.h **** {
 117:Middlewares/lvgl/src/widgets/../core/lv_obj_style_gen.h ****     lv_style_value_t v = lv_obj_get_style_prop(obj, part, LV_STYLE_PAD_ROW);
 118:Middlewares/lvgl/src/widgets/../core/lv_obj_style_gen.h ****     return (lv_coord_t)v.num;
 119:Middlewares/lvgl/src/widgets/../core/lv_obj_style_gen.h **** }
 120:Middlewares/lvgl/src/widgets/../core/lv_obj_style_gen.h **** 
 121:Middlewares/lvgl/src/widgets/../core/lv_obj_style_gen.h **** static inline lv_coord_t lv_obj_get_style_pad_column(const struct _lv_obj_t * obj, uint32_t part)
 122:Middlewares/lvgl/src/widgets/../core/lv_obj_style_gen.h **** {
 123:Middlewares/lvgl/src/widgets/../core/lv_obj_style_gen.h ****     lv_style_value_t v = lv_obj_get_style_prop(obj, part, LV_STYLE_PAD_COLUMN);
ARM GAS  /tmp/cctamPcj.s 			page 27


 124:Middlewares/lvgl/src/widgets/../core/lv_obj_style_gen.h ****     return (lv_coord_t)v.num;
 125:Middlewares/lvgl/src/widgets/../core/lv_obj_style_gen.h **** }
 126:Middlewares/lvgl/src/widgets/../core/lv_obj_style_gen.h **** 
 127:Middlewares/lvgl/src/widgets/../core/lv_obj_style_gen.h **** static inline lv_coord_t lv_obj_get_style_radius(const struct _lv_obj_t * obj, uint32_t part)
 128:Middlewares/lvgl/src/widgets/../core/lv_obj_style_gen.h **** {
 129:Middlewares/lvgl/src/widgets/../core/lv_obj_style_gen.h ****     lv_style_value_t v = lv_obj_get_style_prop(obj, part, LV_STYLE_RADIUS);
 130:Middlewares/lvgl/src/widgets/../core/lv_obj_style_gen.h ****     return (lv_coord_t)v.num;
 131:Middlewares/lvgl/src/widgets/../core/lv_obj_style_gen.h **** }
 132:Middlewares/lvgl/src/widgets/../core/lv_obj_style_gen.h **** 
 133:Middlewares/lvgl/src/widgets/../core/lv_obj_style_gen.h **** static inline bool lv_obj_get_style_clip_corner(const struct _lv_obj_t * obj, uint32_t part)
 134:Middlewares/lvgl/src/widgets/../core/lv_obj_style_gen.h **** {
 135:Middlewares/lvgl/src/widgets/../core/lv_obj_style_gen.h ****     lv_style_value_t v = lv_obj_get_style_prop(obj, part, LV_STYLE_CLIP_CORNER);
 136:Middlewares/lvgl/src/widgets/../core/lv_obj_style_gen.h ****     return (bool)v.num;
 137:Middlewares/lvgl/src/widgets/../core/lv_obj_style_gen.h **** }
 138:Middlewares/lvgl/src/widgets/../core/lv_obj_style_gen.h **** 
 139:Middlewares/lvgl/src/widgets/../core/lv_obj_style_gen.h **** static inline lv_opa_t lv_obj_get_style_opa(const struct _lv_obj_t * obj, uint32_t part)
 140:Middlewares/lvgl/src/widgets/../core/lv_obj_style_gen.h **** {
 141:Middlewares/lvgl/src/widgets/../core/lv_obj_style_gen.h ****     lv_style_value_t v = lv_obj_get_style_prop(obj, part, LV_STYLE_OPA);
 142:Middlewares/lvgl/src/widgets/../core/lv_obj_style_gen.h ****     return (lv_opa_t)v.num;
 143:Middlewares/lvgl/src/widgets/../core/lv_obj_style_gen.h **** }
 144:Middlewares/lvgl/src/widgets/../core/lv_obj_style_gen.h **** 
 145:Middlewares/lvgl/src/widgets/../core/lv_obj_style_gen.h **** static inline const lv_color_filter_dsc_t * lv_obj_get_style_color_filter_dsc(const struct _lv_obj_
 146:Middlewares/lvgl/src/widgets/../core/lv_obj_style_gen.h **** {
 147:Middlewares/lvgl/src/widgets/../core/lv_obj_style_gen.h ****     lv_style_value_t v = lv_obj_get_style_prop(obj, part, LV_STYLE_COLOR_FILTER_DSC);
 148:Middlewares/lvgl/src/widgets/../core/lv_obj_style_gen.h ****     return (const lv_color_filter_dsc_t *)v.ptr;
 149:Middlewares/lvgl/src/widgets/../core/lv_obj_style_gen.h **** }
 150:Middlewares/lvgl/src/widgets/../core/lv_obj_style_gen.h **** 
 151:Middlewares/lvgl/src/widgets/../core/lv_obj_style_gen.h **** static inline lv_opa_t lv_obj_get_style_color_filter_opa(const struct _lv_obj_t * obj, uint32_t par
 152:Middlewares/lvgl/src/widgets/../core/lv_obj_style_gen.h **** {
 153:Middlewares/lvgl/src/widgets/../core/lv_obj_style_gen.h ****     lv_style_value_t v = lv_obj_get_style_prop(obj, part, LV_STYLE_COLOR_FILTER_OPA);
 154:Middlewares/lvgl/src/widgets/../core/lv_obj_style_gen.h ****     return (lv_opa_t)v.num;
 155:Middlewares/lvgl/src/widgets/../core/lv_obj_style_gen.h **** }
 156:Middlewares/lvgl/src/widgets/../core/lv_obj_style_gen.h **** 
 157:Middlewares/lvgl/src/widgets/../core/lv_obj_style_gen.h **** static inline uint32_t lv_obj_get_style_anim_time(const struct _lv_obj_t * obj, uint32_t part)
 183              		.loc 3 157 24 view .LVU48
 184              	.LBB138:
 158:Middlewares/lvgl/src/widgets/../core/lv_obj_style_gen.h **** {
 159:Middlewares/lvgl/src/widgets/../core/lv_obj_style_gen.h ****     lv_style_value_t v = lv_obj_get_style_prop(obj, part, LV_STYLE_ANIM_TIME);
 185              		.loc 3 159 5 view .LVU49
 186              		.loc 3 159 26 is_stmt 0 view .LVU50
 187 0006 6522     		movs	r2, #101
 188 0008 4FF4E021 		mov	r1, #458752
 189 000c FFF7FEFF 		bl	lv_obj_get_style_prop
 190              	.LVL8:
 160:Middlewares/lvgl/src/widgets/../core/lv_obj_style_gen.h ****     return (uint32_t)v.num;
 191              		.loc 3 160 5 is_stmt 1 view .LVU51
 192              		.loc 3 160 5 is_stmt 0 view .LVU52
 193              	.LBE138:
 194              	.LBE137:
1032:Middlewares/lvgl/src/widgets/lv_textarea.c ****     if(blink_time == 0) {
 195              		.loc 1 1032 5 is_stmt 1 view .LVU53
 196              		.loc 1 1032 7 is_stmt 0 view .LVU54
 197 0010 58B9     		cbnz	r0, .L10
1033:Middlewares/lvgl/src/widgets/lv_textarea.c ****         lv_anim_del(obj, cursor_blink_anim_cb);
 198              		.loc 1 1033 9 is_stmt 1 view .LVU55
 199 0012 1249     		ldr	r1, .L13
 200 0014 2046     		mov	r0, r4
ARM GAS  /tmp/cctamPcj.s 			page 28


 201              	.LVL9:
 202              		.loc 1 1033 9 is_stmt 0 view .LVU56
 203 0016 FFF7FEFF 		bl	lv_anim_del
 204              	.LVL10:
1034:Middlewares/lvgl/src/widgets/lv_textarea.c ****         ta->cursor.show = 1;
 205              		.loc 1 1034 9 is_stmt 1 view .LVU57
 206              		.loc 1 1034 25 is_stmt 0 view .LVU58
 207 001a 94F85030 		ldrb	r3, [r4, #80]	@ zero_extendqisi2
 208 001e 43F00103 		orr	r3, r3, #1
 209 0022 84F85030 		strb	r3, [r4, #80]
 210              	.L9:
1035:Middlewares/lvgl/src/widgets/lv_textarea.c ****     } else {
1036:Middlewares/lvgl/src/widgets/lv_textarea.c ****         lv_anim_t a;
1037:Middlewares/lvgl/src/widgets/lv_textarea.c ****         lv_anim_init(&a);
1038:Middlewares/lvgl/src/widgets/lv_textarea.c ****         lv_anim_set_var(&a, ta);
1039:Middlewares/lvgl/src/widgets/lv_textarea.c ****         lv_anim_set_exec_cb(&a, cursor_blink_anim_cb);
1040:Middlewares/lvgl/src/widgets/lv_textarea.c ****         lv_anim_set_time(&a, blink_time);
1041:Middlewares/lvgl/src/widgets/lv_textarea.c ****         lv_anim_set_playback_time(&a, blink_time);
1042:Middlewares/lvgl/src/widgets/lv_textarea.c ****         lv_anim_set_values(&a, 1, 0);
1043:Middlewares/lvgl/src/widgets/lv_textarea.c ****         lv_anim_set_path_cb(&a, lv_anim_path_step);
1044:Middlewares/lvgl/src/widgets/lv_textarea.c ****         lv_anim_set_repeat_count(&a, LV_ANIM_REPEAT_INFINITE);
1045:Middlewares/lvgl/src/widgets/lv_textarea.c ****         lv_anim_start(&a);
1046:Middlewares/lvgl/src/widgets/lv_textarea.c ****     }
1047:Middlewares/lvgl/src/widgets/lv_textarea.c **** }
 211              		.loc 1 1047 1 view .LVU59
 212 0026 13B0     		add	sp, sp, #76
 213              	.LCFI5:
 214              		.cfi_remember_state
 215              		.cfi_def_cfa_offset 12
 216              		@ sp needed
 217 0028 30BD     		pop	{r4, r5, pc}
 218              	.LVL11:
 219              	.L10:
 220              	.LCFI6:
 221              		.cfi_restore_state
 222              		.loc 1 1047 1 view .LVU60
 223 002a 0546     		mov	r5, r0
 224              	.LBB139:
1036:Middlewares/lvgl/src/widgets/lv_textarea.c ****         lv_anim_init(&a);
 225              		.loc 1 1036 9 is_stmt 1 view .LVU61
1037:Middlewares/lvgl/src/widgets/lv_textarea.c ****         lv_anim_set_var(&a, ta);
 226              		.loc 1 1037 9 view .LVU62
 227 002c 01A8     		add	r0, sp, #4
 228              	.LVL12:
1037:Middlewares/lvgl/src/widgets/lv_textarea.c ****         lv_anim_set_var(&a, ta);
 229              		.loc 1 1037 9 is_stmt 0 view .LVU63
 230 002e FFF7FEFF 		bl	lv_anim_init
 231              	.LVL13:
1038:Middlewares/lvgl/src/widgets/lv_textarea.c ****         lv_anim_set_exec_cb(&a, cursor_blink_anim_cb);
 232              		.loc 1 1038 9 is_stmt 1 view .LVU64
 233              	.LBB140:
 234              	.LBI140:
 235              		.file 4 "Middlewares/lvgl/src/widgets/../core/../misc/lv_anim.h"
   1:Middlewares/lvgl/src/widgets/../core/../misc/lv_anim.h **** /**
   2:Middlewares/lvgl/src/widgets/../core/../misc/lv_anim.h ****  * @file lv_anim.h
   3:Middlewares/lvgl/src/widgets/../core/../misc/lv_anim.h ****  *
   4:Middlewares/lvgl/src/widgets/../core/../misc/lv_anim.h ****  */
ARM GAS  /tmp/cctamPcj.s 			page 29


   5:Middlewares/lvgl/src/widgets/../core/../misc/lv_anim.h **** 
   6:Middlewares/lvgl/src/widgets/../core/../misc/lv_anim.h **** #ifndef LV_ANIM_H
   7:Middlewares/lvgl/src/widgets/../core/../misc/lv_anim.h **** #define LV_ANIM_H
   8:Middlewares/lvgl/src/widgets/../core/../misc/lv_anim.h **** 
   9:Middlewares/lvgl/src/widgets/../core/../misc/lv_anim.h **** #ifdef __cplusplus
  10:Middlewares/lvgl/src/widgets/../core/../misc/lv_anim.h **** extern "C" {
  11:Middlewares/lvgl/src/widgets/../core/../misc/lv_anim.h **** #endif
  12:Middlewares/lvgl/src/widgets/../core/../misc/lv_anim.h **** 
  13:Middlewares/lvgl/src/widgets/../core/../misc/lv_anim.h **** /*********************
  14:Middlewares/lvgl/src/widgets/../core/../misc/lv_anim.h ****  *      INCLUDES
  15:Middlewares/lvgl/src/widgets/../core/../misc/lv_anim.h ****  *********************/
  16:Middlewares/lvgl/src/widgets/../core/../misc/lv_anim.h **** #include "../lv_conf_internal.h"
  17:Middlewares/lvgl/src/widgets/../core/../misc/lv_anim.h **** 
  18:Middlewares/lvgl/src/widgets/../core/../misc/lv_anim.h **** #include <stdint.h>
  19:Middlewares/lvgl/src/widgets/../core/../misc/lv_anim.h **** #include <stdbool.h>
  20:Middlewares/lvgl/src/widgets/../core/../misc/lv_anim.h **** #include <string.h>
  21:Middlewares/lvgl/src/widgets/../core/../misc/lv_anim.h **** 
  22:Middlewares/lvgl/src/widgets/../core/../misc/lv_anim.h **** /*********************
  23:Middlewares/lvgl/src/widgets/../core/../misc/lv_anim.h ****  *      DEFINES
  24:Middlewares/lvgl/src/widgets/../core/../misc/lv_anim.h ****  *********************/
  25:Middlewares/lvgl/src/widgets/../core/../misc/lv_anim.h **** 
  26:Middlewares/lvgl/src/widgets/../core/../misc/lv_anim.h **** /**********************
  27:Middlewares/lvgl/src/widgets/../core/../misc/lv_anim.h ****  *      TYPEDEFS
  28:Middlewares/lvgl/src/widgets/../core/../misc/lv_anim.h ****  **********************/
  29:Middlewares/lvgl/src/widgets/../core/../misc/lv_anim.h **** 
  30:Middlewares/lvgl/src/widgets/../core/../misc/lv_anim.h **** /** Can be used to indicate if animations are enabled or disabled in a case*/
  31:Middlewares/lvgl/src/widgets/../core/../misc/lv_anim.h **** typedef enum {
  32:Middlewares/lvgl/src/widgets/../core/../misc/lv_anim.h ****     LV_ANIM_OFF,
  33:Middlewares/lvgl/src/widgets/../core/../misc/lv_anim.h ****     LV_ANIM_ON,
  34:Middlewares/lvgl/src/widgets/../core/../misc/lv_anim.h **** }lv_anim_enable_t;
  35:Middlewares/lvgl/src/widgets/../core/../misc/lv_anim.h **** 
  36:Middlewares/lvgl/src/widgets/../core/../misc/lv_anim.h **** #define LV_ANIM_REPEAT_INFINITE      0xFFFF
  37:Middlewares/lvgl/src/widgets/../core/../misc/lv_anim.h **** LV_EXPORT_CONST_INT(LV_ANIM_REPEAT_INFINITE);
  38:Middlewares/lvgl/src/widgets/../core/../misc/lv_anim.h **** 
  39:Middlewares/lvgl/src/widgets/../core/../misc/lv_anim.h **** struct _lv_anim_t;
  40:Middlewares/lvgl/src/widgets/../core/../misc/lv_anim.h **** 
  41:Middlewares/lvgl/src/widgets/../core/../misc/lv_anim.h **** /** Get the current value during an animation*/
  42:Middlewares/lvgl/src/widgets/../core/../misc/lv_anim.h **** typedef int32_t (*lv_anim_path_cb_t)(const struct _lv_anim_t *);
  43:Middlewares/lvgl/src/widgets/../core/../misc/lv_anim.h **** 
  44:Middlewares/lvgl/src/widgets/../core/../misc/lv_anim.h **** /** Generic prototype of "animator" functions.
  45:Middlewares/lvgl/src/widgets/../core/../misc/lv_anim.h ****  * First parameter is the variable to animate.
  46:Middlewares/lvgl/src/widgets/../core/../misc/lv_anim.h ****  * Second parameter is the value to set.
  47:Middlewares/lvgl/src/widgets/../core/../misc/lv_anim.h ****  * Compatible with `lv_xxx_set_yyy(obj, value)` functions
  48:Middlewares/lvgl/src/widgets/../core/../misc/lv_anim.h ****  * The `x` in `_xcb_t` means its not a fully generic prototype because
  49:Middlewares/lvgl/src/widgets/../core/../misc/lv_anim.h ****  * it doesn't receive `lv_anim_t *` as its first argument*/
  50:Middlewares/lvgl/src/widgets/../core/../misc/lv_anim.h **** typedef void (*lv_anim_exec_xcb_t)(void *, int32_t);
  51:Middlewares/lvgl/src/widgets/../core/../misc/lv_anim.h **** 
  52:Middlewares/lvgl/src/widgets/../core/../misc/lv_anim.h **** /** Same as `lv_anim_exec_xcb_t` but receives `lv_anim_t *` as the first parameter.
  53:Middlewares/lvgl/src/widgets/../core/../misc/lv_anim.h ****  * It's more consistent but less convenient. Might be used by binding generator functions.*/
  54:Middlewares/lvgl/src/widgets/../core/../misc/lv_anim.h **** typedef void (*lv_anim_custom_exec_cb_t)(struct _lv_anim_t *, int32_t);
  55:Middlewares/lvgl/src/widgets/../core/../misc/lv_anim.h **** 
  56:Middlewares/lvgl/src/widgets/../core/../misc/lv_anim.h **** /** Callback to call when the animation is ready*/
  57:Middlewares/lvgl/src/widgets/../core/../misc/lv_anim.h **** typedef void (*lv_anim_ready_cb_t)(struct _lv_anim_t *);
  58:Middlewares/lvgl/src/widgets/../core/../misc/lv_anim.h **** 
  59:Middlewares/lvgl/src/widgets/../core/../misc/lv_anim.h **** /** Callback to call when the animation really stars (considering `delay`)*/
  60:Middlewares/lvgl/src/widgets/../core/../misc/lv_anim.h **** typedef void (*lv_anim_start_cb_t)(struct _lv_anim_t *);
  61:Middlewares/lvgl/src/widgets/../core/../misc/lv_anim.h **** 
ARM GAS  /tmp/cctamPcj.s 			page 30


  62:Middlewares/lvgl/src/widgets/../core/../misc/lv_anim.h **** /** Callback used when the animation values are relative to get the current value*/
  63:Middlewares/lvgl/src/widgets/../core/../misc/lv_anim.h **** typedef int32_t (*lv_anim_get_value_cb_t)(struct _lv_anim_t *);
  64:Middlewares/lvgl/src/widgets/../core/../misc/lv_anim.h **** 
  65:Middlewares/lvgl/src/widgets/../core/../misc/lv_anim.h **** /** Describes an animation*/
  66:Middlewares/lvgl/src/widgets/../core/../misc/lv_anim.h **** typedef struct _lv_anim_t {
  67:Middlewares/lvgl/src/widgets/../core/../misc/lv_anim.h ****     void * var;                          /**<Variable to animate*/
  68:Middlewares/lvgl/src/widgets/../core/../misc/lv_anim.h ****     lv_anim_exec_xcb_t exec_cb;          /**< Function to execute to animate*/
  69:Middlewares/lvgl/src/widgets/../core/../misc/lv_anim.h ****     lv_anim_start_cb_t start_cb;         /**< Call it when the animation is starts (considering `de
  70:Middlewares/lvgl/src/widgets/../core/../misc/lv_anim.h ****     lv_anim_ready_cb_t ready_cb;         /**< Call it when the animation is ready*/
  71:Middlewares/lvgl/src/widgets/../core/../misc/lv_anim.h ****     lv_anim_get_value_cb_t get_value_cb; /**< Get the current value in relative mode*/
  72:Middlewares/lvgl/src/widgets/../core/../misc/lv_anim.h **** #if LV_USE_USER_DATA
  73:Middlewares/lvgl/src/widgets/../core/../misc/lv_anim.h ****     void * user_data; /**< Custom user data*/
  74:Middlewares/lvgl/src/widgets/../core/../misc/lv_anim.h **** #endif
  75:Middlewares/lvgl/src/widgets/../core/../misc/lv_anim.h ****     lv_anim_path_cb_t path_cb;         /**< Describe the path (curve) of animations*/
  76:Middlewares/lvgl/src/widgets/../core/../misc/lv_anim.h ****     int32_t start_value;               /**< Start value*/
  77:Middlewares/lvgl/src/widgets/../core/../misc/lv_anim.h ****     int32_t current_value;             /**< Current value*/
  78:Middlewares/lvgl/src/widgets/../core/../misc/lv_anim.h ****     int32_t end_value;                 /**< End value*/
  79:Middlewares/lvgl/src/widgets/../core/../misc/lv_anim.h ****     int32_t time;                /**< Animation time in ms*/
  80:Middlewares/lvgl/src/widgets/../core/../misc/lv_anim.h ****     int32_t act_time;            /**< Current time in animation. Set to negative to make delay.*/
  81:Middlewares/lvgl/src/widgets/../core/../misc/lv_anim.h ****     uint32_t playback_delay;     /**< Wait before play back*/
  82:Middlewares/lvgl/src/widgets/../core/../misc/lv_anim.h ****     uint32_t playback_time;      /**< Duration of playback animation*/
  83:Middlewares/lvgl/src/widgets/../core/../misc/lv_anim.h ****     uint32_t repeat_delay;       /**< Wait before repeat*/
  84:Middlewares/lvgl/src/widgets/../core/../misc/lv_anim.h ****     uint16_t repeat_cnt;         /**< Repeat count for the animation*/
  85:Middlewares/lvgl/src/widgets/../core/../misc/lv_anim.h ****     uint8_t early_apply  : 1;    /**< 1: Apply start value immediately even is there is `delay`*/
  86:Middlewares/lvgl/src/widgets/../core/../misc/lv_anim.h **** 
  87:Middlewares/lvgl/src/widgets/../core/../misc/lv_anim.h ****     /*Animation system use these - user shouldn't set*/
  88:Middlewares/lvgl/src/widgets/../core/../misc/lv_anim.h ****     uint8_t playback_now : 1; /**< Play back is in progress*/
  89:Middlewares/lvgl/src/widgets/../core/../misc/lv_anim.h ****     uint8_t run_round : 1;    /**< Indicates the animation has run in this round*/
  90:Middlewares/lvgl/src/widgets/../core/../misc/lv_anim.h ****     uint8_t start_cb_called : 1;    /**< Indicates that the `start_cb` was already called*/
  91:Middlewares/lvgl/src/widgets/../core/../misc/lv_anim.h ****     uint32_t time_orig;
  92:Middlewares/lvgl/src/widgets/../core/../misc/lv_anim.h **** } lv_anim_t;
  93:Middlewares/lvgl/src/widgets/../core/../misc/lv_anim.h **** 
  94:Middlewares/lvgl/src/widgets/../core/../misc/lv_anim.h **** /**********************
  95:Middlewares/lvgl/src/widgets/../core/../misc/lv_anim.h ****  * GLOBAL PROTOTYPES
  96:Middlewares/lvgl/src/widgets/../core/../misc/lv_anim.h ****  **********************/
  97:Middlewares/lvgl/src/widgets/../core/../misc/lv_anim.h **** 
  98:Middlewares/lvgl/src/widgets/../core/../misc/lv_anim.h **** /**
  99:Middlewares/lvgl/src/widgets/../core/../misc/lv_anim.h ****  * Init. the animation module
 100:Middlewares/lvgl/src/widgets/../core/../misc/lv_anim.h ****  */
 101:Middlewares/lvgl/src/widgets/../core/../misc/lv_anim.h **** void _lv_anim_core_init(void);
 102:Middlewares/lvgl/src/widgets/../core/../misc/lv_anim.h **** 
 103:Middlewares/lvgl/src/widgets/../core/../misc/lv_anim.h **** /**
 104:Middlewares/lvgl/src/widgets/../core/../misc/lv_anim.h ****  * Initialize an animation variable.
 105:Middlewares/lvgl/src/widgets/../core/../misc/lv_anim.h ****  * E.g.:
 106:Middlewares/lvgl/src/widgets/../core/../misc/lv_anim.h ****  * lv_anim_t a;
 107:Middlewares/lvgl/src/widgets/../core/../misc/lv_anim.h ****  * lv_anim_init(&a);
 108:Middlewares/lvgl/src/widgets/../core/../misc/lv_anim.h ****  * lv_anim_set_...(&a);
 109:Middlewares/lvgl/src/widgets/../core/../misc/lv_anim.h ****  * lv_anim_start(&a);
 110:Middlewares/lvgl/src/widgets/../core/../misc/lv_anim.h ****  * @param a     pointer to an `lv_anim_t` variable to initialize
 111:Middlewares/lvgl/src/widgets/../core/../misc/lv_anim.h ****  */
 112:Middlewares/lvgl/src/widgets/../core/../misc/lv_anim.h **** void lv_anim_init(lv_anim_t * a);
 113:Middlewares/lvgl/src/widgets/../core/../misc/lv_anim.h **** 
 114:Middlewares/lvgl/src/widgets/../core/../misc/lv_anim.h **** /**
 115:Middlewares/lvgl/src/widgets/../core/../misc/lv_anim.h ****  * Set a variable to animate
 116:Middlewares/lvgl/src/widgets/../core/../misc/lv_anim.h ****  * @param a     pointer to an initialized `lv_anim_t` variable
 117:Middlewares/lvgl/src/widgets/../core/../misc/lv_anim.h ****  * @param var   pointer to a variable to animate
 118:Middlewares/lvgl/src/widgets/../core/../misc/lv_anim.h ****  */
ARM GAS  /tmp/cctamPcj.s 			page 31


 119:Middlewares/lvgl/src/widgets/../core/../misc/lv_anim.h **** static inline void lv_anim_set_var(lv_anim_t * a, void * var)
 236              		.loc 4 119 20 view .LVU65
 237              	.LBB141:
 120:Middlewares/lvgl/src/widgets/../core/../misc/lv_anim.h **** {
 121:Middlewares/lvgl/src/widgets/../core/../misc/lv_anim.h ****     a->var = var;
 238              		.loc 4 121 5 view .LVU66
 239              		.loc 4 121 12 is_stmt 0 view .LVU67
 240 0032 0194     		str	r4, [sp, #4]
 241              	.LVL14:
 242              		.loc 4 121 12 view .LVU68
 243              	.LBE141:
 244              	.LBE140:
1039:Middlewares/lvgl/src/widgets/lv_textarea.c ****         lv_anim_set_time(&a, blink_time);
 245              		.loc 1 1039 9 is_stmt 1 view .LVU69
 246              	.LBB142:
 247              	.LBI142:
 122:Middlewares/lvgl/src/widgets/../core/../misc/lv_anim.h **** }
 123:Middlewares/lvgl/src/widgets/../core/../misc/lv_anim.h **** 
 124:Middlewares/lvgl/src/widgets/../core/../misc/lv_anim.h **** /**
 125:Middlewares/lvgl/src/widgets/../core/../misc/lv_anim.h ****  * Set a function to animate `var`
 126:Middlewares/lvgl/src/widgets/../core/../misc/lv_anim.h ****  * @param a         pointer to an initialized `lv_anim_t` variable
 127:Middlewares/lvgl/src/widgets/../core/../misc/lv_anim.h ****  * @param exec_cb   a function to execute during animation
 128:Middlewares/lvgl/src/widgets/../core/../misc/lv_anim.h ****  *                  LVGL's built-in functions can be used.
 129:Middlewares/lvgl/src/widgets/../core/../misc/lv_anim.h ****  *                  E.g. lv_obj_set_x
 130:Middlewares/lvgl/src/widgets/../core/../misc/lv_anim.h ****  */
 131:Middlewares/lvgl/src/widgets/../core/../misc/lv_anim.h **** static inline void lv_anim_set_exec_cb(lv_anim_t * a, lv_anim_exec_xcb_t exec_cb)
 248              		.loc 4 131 20 view .LVU70
 249              	.LBB143:
 132:Middlewares/lvgl/src/widgets/../core/../misc/lv_anim.h **** {
 133:Middlewares/lvgl/src/widgets/../core/../misc/lv_anim.h ****     a->exec_cb = exec_cb;
 250              		.loc 4 133 5 view .LVU71
 251              		.loc 4 133 16 is_stmt 0 view .LVU72
 252 0034 094B     		ldr	r3, .L13
 253 0036 0293     		str	r3, [sp, #8]
 254              	.LVL15:
 255              		.loc 4 133 16 view .LVU73
 256              	.LBE143:
 257              	.LBE142:
1040:Middlewares/lvgl/src/widgets/lv_textarea.c ****         lv_anim_set_playback_time(&a, blink_time);
 258              		.loc 1 1040 9 is_stmt 1 view .LVU74
 259              	.LBB144:
 260              	.LBI144:
 134:Middlewares/lvgl/src/widgets/../core/../misc/lv_anim.h **** }
 135:Middlewares/lvgl/src/widgets/../core/../misc/lv_anim.h **** 
 136:Middlewares/lvgl/src/widgets/../core/../misc/lv_anim.h **** /**
 137:Middlewares/lvgl/src/widgets/../core/../misc/lv_anim.h ****  * Set the duration of an animation
 138:Middlewares/lvgl/src/widgets/../core/../misc/lv_anim.h ****  * @param a         pointer to an initialized `lv_anim_t` variable
 139:Middlewares/lvgl/src/widgets/../core/../misc/lv_anim.h ****  * @param duration  duration of the animation in milliseconds
 140:Middlewares/lvgl/src/widgets/../core/../misc/lv_anim.h ****  */
 141:Middlewares/lvgl/src/widgets/../core/../misc/lv_anim.h **** static inline void lv_anim_set_time(lv_anim_t * a, uint32_t duration)
 261              		.loc 4 141 20 view .LVU75
 262              	.LBB145:
 142:Middlewares/lvgl/src/widgets/../core/../misc/lv_anim.h **** {
 143:Middlewares/lvgl/src/widgets/../core/../misc/lv_anim.h ****     a->time = duration;
 263              		.loc 4 143 5 view .LVU76
 264              		.loc 4 143 13 is_stmt 0 view .LVU77
 265 0038 0B95     		str	r5, [sp, #44]
ARM GAS  /tmp/cctamPcj.s 			page 32


 266              	.LVL16:
 267              		.loc 4 143 13 view .LVU78
 268              	.LBE145:
 269              	.LBE144:
1041:Middlewares/lvgl/src/widgets/lv_textarea.c ****         lv_anim_set_values(&a, 1, 0);
 270              		.loc 1 1041 9 is_stmt 1 view .LVU79
 271              	.LBB146:
 272              	.LBI146:
 144:Middlewares/lvgl/src/widgets/../core/../misc/lv_anim.h **** }
 145:Middlewares/lvgl/src/widgets/../core/../misc/lv_anim.h **** 
 146:Middlewares/lvgl/src/widgets/../core/../misc/lv_anim.h **** /**
 147:Middlewares/lvgl/src/widgets/../core/../misc/lv_anim.h ****  * Set a delay before starting the animation
 148:Middlewares/lvgl/src/widgets/../core/../misc/lv_anim.h ****  * @param a         pointer to an initialized `lv_anim_t` variable
 149:Middlewares/lvgl/src/widgets/../core/../misc/lv_anim.h ****  * @param delay     delay before the animation in milliseconds
 150:Middlewares/lvgl/src/widgets/../core/../misc/lv_anim.h ****  */
 151:Middlewares/lvgl/src/widgets/../core/../misc/lv_anim.h **** static inline void lv_anim_set_delay(lv_anim_t * a, uint32_t delay)
 152:Middlewares/lvgl/src/widgets/../core/../misc/lv_anim.h **** {
 153:Middlewares/lvgl/src/widgets/../core/../misc/lv_anim.h ****     a->act_time = -(int32_t)(delay);
 154:Middlewares/lvgl/src/widgets/../core/../misc/lv_anim.h **** }
 155:Middlewares/lvgl/src/widgets/../core/../misc/lv_anim.h **** 
 156:Middlewares/lvgl/src/widgets/../core/../misc/lv_anim.h **** /**
 157:Middlewares/lvgl/src/widgets/../core/../misc/lv_anim.h ****  * Set the start and end values of an animation
 158:Middlewares/lvgl/src/widgets/../core/../misc/lv_anim.h ****  * @param a         pointer to an initialized `lv_anim_t` variable
 159:Middlewares/lvgl/src/widgets/../core/../misc/lv_anim.h ****  * @param start     the start value
 160:Middlewares/lvgl/src/widgets/../core/../misc/lv_anim.h ****  * @param end       the end value
 161:Middlewares/lvgl/src/widgets/../core/../misc/lv_anim.h ****  */
 162:Middlewares/lvgl/src/widgets/../core/../misc/lv_anim.h **** static inline void lv_anim_set_values(lv_anim_t * a, int32_t start, int32_t end)
 163:Middlewares/lvgl/src/widgets/../core/../misc/lv_anim.h **** {
 164:Middlewares/lvgl/src/widgets/../core/../misc/lv_anim.h ****     a->start_value = start;
 165:Middlewares/lvgl/src/widgets/../core/../misc/lv_anim.h ****     a->current_value = start;
 166:Middlewares/lvgl/src/widgets/../core/../misc/lv_anim.h ****     a->end_value = end;
 167:Middlewares/lvgl/src/widgets/../core/../misc/lv_anim.h **** }
 168:Middlewares/lvgl/src/widgets/../core/../misc/lv_anim.h **** 
 169:Middlewares/lvgl/src/widgets/../core/../misc/lv_anim.h **** /**
 170:Middlewares/lvgl/src/widgets/../core/../misc/lv_anim.h ****  * Similar to `lv_anim_set_exec_cb` but `lv_anim_custom_exec_cb_t` receives
 171:Middlewares/lvgl/src/widgets/../core/../misc/lv_anim.h ****  * `lv_anim_t * ` as its first parameter instead of `void *`.
 172:Middlewares/lvgl/src/widgets/../core/../misc/lv_anim.h ****  * This function might be used when LVGL is binded to other languages because
 173:Middlewares/lvgl/src/widgets/../core/../misc/lv_anim.h ****  * it's more consistent to have `lv_anim_t *` as first parameter.
 174:Middlewares/lvgl/src/widgets/../core/../misc/lv_anim.h ****  * The variable to animate can be stored in the animation's `user_sata`
 175:Middlewares/lvgl/src/widgets/../core/../misc/lv_anim.h ****  * @param a         pointer to an initialized `lv_anim_t` variable
 176:Middlewares/lvgl/src/widgets/../core/../misc/lv_anim.h ****  * @param exec_cb   a function to execute.
 177:Middlewares/lvgl/src/widgets/../core/../misc/lv_anim.h ****  */
 178:Middlewares/lvgl/src/widgets/../core/../misc/lv_anim.h **** static inline void lv_anim_set_custom_exec_cb(lv_anim_t * a, lv_anim_custom_exec_cb_t exec_cb)
 179:Middlewares/lvgl/src/widgets/../core/../misc/lv_anim.h **** {
 180:Middlewares/lvgl/src/widgets/../core/../misc/lv_anim.h ****     a->var     = a;
 181:Middlewares/lvgl/src/widgets/../core/../misc/lv_anim.h ****     a->exec_cb = (lv_anim_exec_xcb_t)exec_cb;
 182:Middlewares/lvgl/src/widgets/../core/../misc/lv_anim.h **** }
 183:Middlewares/lvgl/src/widgets/../core/../misc/lv_anim.h **** 
 184:Middlewares/lvgl/src/widgets/../core/../misc/lv_anim.h **** /**
 185:Middlewares/lvgl/src/widgets/../core/../misc/lv_anim.h ****  * Set the path (curve) of the animation.
 186:Middlewares/lvgl/src/widgets/../core/../misc/lv_anim.h ****  * @param a         pointer to an initialized `lv_anim_t` variable
 187:Middlewares/lvgl/src/widgets/../core/../misc/lv_anim.h ****  * @param path_cb a function the get the current value of the animation.
 188:Middlewares/lvgl/src/widgets/../core/../misc/lv_anim.h ****  */
 189:Middlewares/lvgl/src/widgets/../core/../misc/lv_anim.h **** static inline void lv_anim_set_path_cb(lv_anim_t * a, lv_anim_path_cb_t path_cb)
 190:Middlewares/lvgl/src/widgets/../core/../misc/lv_anim.h **** {
 191:Middlewares/lvgl/src/widgets/../core/../misc/lv_anim.h ****     a->path_cb = path_cb;
 192:Middlewares/lvgl/src/widgets/../core/../misc/lv_anim.h **** }
ARM GAS  /tmp/cctamPcj.s 			page 33


 193:Middlewares/lvgl/src/widgets/../core/../misc/lv_anim.h **** 
 194:Middlewares/lvgl/src/widgets/../core/../misc/lv_anim.h **** /**
 195:Middlewares/lvgl/src/widgets/../core/../misc/lv_anim.h ****  * Set a function call when the animation really starts (considering `delay`)
 196:Middlewares/lvgl/src/widgets/../core/../misc/lv_anim.h ****  * @param a         pointer to an initialized `lv_anim_t` variable
 197:Middlewares/lvgl/src/widgets/../core/../misc/lv_anim.h ****  * @param start_cb  a function call when the animation starts
 198:Middlewares/lvgl/src/widgets/../core/../misc/lv_anim.h ****  */
 199:Middlewares/lvgl/src/widgets/../core/../misc/lv_anim.h **** static inline void lv_anim_set_start_cb(lv_anim_t * a, lv_anim_ready_cb_t start_cb)
 200:Middlewares/lvgl/src/widgets/../core/../misc/lv_anim.h **** {
 201:Middlewares/lvgl/src/widgets/../core/../misc/lv_anim.h ****     a->start_cb = start_cb;
 202:Middlewares/lvgl/src/widgets/../core/../misc/lv_anim.h **** }
 203:Middlewares/lvgl/src/widgets/../core/../misc/lv_anim.h **** 
 204:Middlewares/lvgl/src/widgets/../core/../misc/lv_anim.h **** /**
 205:Middlewares/lvgl/src/widgets/../core/../misc/lv_anim.h ****  * Set a function to use the current value of the variable and make start and end value
 206:Middlewares/lvgl/src/widgets/../core/../misc/lv_anim.h ****  * relative the the returned current value.
 207:Middlewares/lvgl/src/widgets/../core/../misc/lv_anim.h ****  * @param a             pointer to an initialized `lv_anim_t` variable
 208:Middlewares/lvgl/src/widgets/../core/../misc/lv_anim.h ****  * @param get_value_cb  a function call when the animation starts
 209:Middlewares/lvgl/src/widgets/../core/../misc/lv_anim.h ****  */
 210:Middlewares/lvgl/src/widgets/../core/../misc/lv_anim.h **** static inline void lv_anim_set_get_value_cb(lv_anim_t * a, lv_anim_get_value_cb_t get_value_cb)
 211:Middlewares/lvgl/src/widgets/../core/../misc/lv_anim.h **** {
 212:Middlewares/lvgl/src/widgets/../core/../misc/lv_anim.h ****     a->get_value_cb = get_value_cb;
 213:Middlewares/lvgl/src/widgets/../core/../misc/lv_anim.h **** }
 214:Middlewares/lvgl/src/widgets/../core/../misc/lv_anim.h **** 
 215:Middlewares/lvgl/src/widgets/../core/../misc/lv_anim.h **** /**
 216:Middlewares/lvgl/src/widgets/../core/../misc/lv_anim.h ****  * Set a function call when the animation is ready
 217:Middlewares/lvgl/src/widgets/../core/../misc/lv_anim.h ****  * @param a         pointer to an initialized `lv_anim_t` variable
 218:Middlewares/lvgl/src/widgets/../core/../misc/lv_anim.h ****  * @param ready_cb  a function call when the animation is ready
 219:Middlewares/lvgl/src/widgets/../core/../misc/lv_anim.h ****  */
 220:Middlewares/lvgl/src/widgets/../core/../misc/lv_anim.h **** static inline void lv_anim_set_ready_cb(lv_anim_t * a, lv_anim_ready_cb_t ready_cb)
 221:Middlewares/lvgl/src/widgets/../core/../misc/lv_anim.h **** {
 222:Middlewares/lvgl/src/widgets/../core/../misc/lv_anim.h ****     a->ready_cb = ready_cb;
 223:Middlewares/lvgl/src/widgets/../core/../misc/lv_anim.h **** }
 224:Middlewares/lvgl/src/widgets/../core/../misc/lv_anim.h **** /**
 225:Middlewares/lvgl/src/widgets/../core/../misc/lv_anim.h ****  * Make the animation to play back to when the forward direction is ready
 226:Middlewares/lvgl/src/widgets/../core/../misc/lv_anim.h ****  * @param a         pointer to an initialized `lv_anim_t` variable
 227:Middlewares/lvgl/src/widgets/../core/../misc/lv_anim.h ****  * @param time      the duration of the playback animation in in milliseconds. 0: disable playback
 228:Middlewares/lvgl/src/widgets/../core/../misc/lv_anim.h ****  */
 229:Middlewares/lvgl/src/widgets/../core/../misc/lv_anim.h **** static inline void lv_anim_set_playback_time(lv_anim_t * a, uint32_t time)
 273              		.loc 4 229 20 view .LVU80
 274              	.LBB147:
 230:Middlewares/lvgl/src/widgets/../core/../misc/lv_anim.h **** {
 231:Middlewares/lvgl/src/widgets/../core/../misc/lv_anim.h ****     a->playback_time = time;
 275              		.loc 4 231 5 view .LVU81
 276              		.loc 4 231 22 is_stmt 0 view .LVU82
 277 003a 0E95     		str	r5, [sp, #56]
 278              	.LVL17:
 279              		.loc 4 231 22 view .LVU83
 280              	.LBE147:
 281              	.LBE146:
1042:Middlewares/lvgl/src/widgets/lv_textarea.c ****         lv_anim_set_path_cb(&a, lv_anim_path_step);
 282              		.loc 1 1042 9 is_stmt 1 view .LVU84
 283              	.LBB148:
 284              	.LBI148:
 162:Middlewares/lvgl/src/widgets/../core/../misc/lv_anim.h **** {
 285              		.loc 4 162 20 view .LVU85
 286              	.LBB149:
 164:Middlewares/lvgl/src/widgets/../core/../misc/lv_anim.h ****     a->current_value = start;
 287              		.loc 4 164 5 view .LVU86
ARM GAS  /tmp/cctamPcj.s 			page 34


 164:Middlewares/lvgl/src/widgets/../core/../misc/lv_anim.h ****     a->current_value = start;
 288              		.loc 4 164 20 is_stmt 0 view .LVU87
 289 003c 0123     		movs	r3, #1
 290 003e 0893     		str	r3, [sp, #32]
 165:Middlewares/lvgl/src/widgets/../core/../misc/lv_anim.h ****     a->end_value = end;
 291              		.loc 4 165 5 is_stmt 1 view .LVU88
 165:Middlewares/lvgl/src/widgets/../core/../misc/lv_anim.h ****     a->end_value = end;
 292              		.loc 4 165 22 is_stmt 0 view .LVU89
 293 0040 0993     		str	r3, [sp, #36]
 166:Middlewares/lvgl/src/widgets/../core/../misc/lv_anim.h **** }
 294              		.loc 4 166 5 is_stmt 1 view .LVU90
 166:Middlewares/lvgl/src/widgets/../core/../misc/lv_anim.h **** }
 295              		.loc 4 166 18 is_stmt 0 view .LVU91
 296 0042 0023     		movs	r3, #0
 297 0044 0A93     		str	r3, [sp, #40]
 298              	.LVL18:
 166:Middlewares/lvgl/src/widgets/../core/../misc/lv_anim.h **** }
 299              		.loc 4 166 18 view .LVU92
 300              	.LBE149:
 301              	.LBE148:
1043:Middlewares/lvgl/src/widgets/lv_textarea.c ****         lv_anim_set_repeat_count(&a, LV_ANIM_REPEAT_INFINITE);
 302              		.loc 1 1043 9 is_stmt 1 view .LVU93
 303              	.LBB150:
 304              	.LBI150:
 189:Middlewares/lvgl/src/widgets/../core/../misc/lv_anim.h **** {
 305              		.loc 4 189 20 view .LVU94
 306              	.LBB151:
 191:Middlewares/lvgl/src/widgets/../core/../misc/lv_anim.h **** }
 307              		.loc 4 191 5 view .LVU95
 191:Middlewares/lvgl/src/widgets/../core/../misc/lv_anim.h **** }
 308              		.loc 4 191 16 is_stmt 0 view .LVU96
 309 0046 064B     		ldr	r3, .L13+4
 310 0048 0793     		str	r3, [sp, #28]
 311              	.LVL19:
 191:Middlewares/lvgl/src/widgets/../core/../misc/lv_anim.h **** }
 312              		.loc 4 191 16 view .LVU97
 313              	.LBE151:
 314              	.LBE150:
1044:Middlewares/lvgl/src/widgets/lv_textarea.c ****         lv_anim_start(&a);
 315              		.loc 1 1044 9 is_stmt 1 view .LVU98
 316              	.LBB152:
 317              	.LBI152:
 232:Middlewares/lvgl/src/widgets/../core/../misc/lv_anim.h **** }
 233:Middlewares/lvgl/src/widgets/../core/../misc/lv_anim.h **** 
 234:Middlewares/lvgl/src/widgets/../core/../misc/lv_anim.h **** /**
 235:Middlewares/lvgl/src/widgets/../core/../misc/lv_anim.h ****  * Make the animation to play back to when the forward direction is ready
 236:Middlewares/lvgl/src/widgets/../core/../misc/lv_anim.h ****  * @param a         pointer to an initialized `lv_anim_t` variable
 237:Middlewares/lvgl/src/widgets/../core/../misc/lv_anim.h ****  * @param delay     delay in milliseconds before starting the playback animation.
 238:Middlewares/lvgl/src/widgets/../core/../misc/lv_anim.h ****  */
 239:Middlewares/lvgl/src/widgets/../core/../misc/lv_anim.h **** static inline void lv_anim_set_playback_delay(lv_anim_t * a, uint32_t delay)
 240:Middlewares/lvgl/src/widgets/../core/../misc/lv_anim.h **** {
 241:Middlewares/lvgl/src/widgets/../core/../misc/lv_anim.h ****     a->playback_delay = delay;
 242:Middlewares/lvgl/src/widgets/../core/../misc/lv_anim.h **** }
 243:Middlewares/lvgl/src/widgets/../core/../misc/lv_anim.h **** 
 244:Middlewares/lvgl/src/widgets/../core/../misc/lv_anim.h **** /**
 245:Middlewares/lvgl/src/widgets/../core/../misc/lv_anim.h ****  * Make the animation repeat itself.
 246:Middlewares/lvgl/src/widgets/../core/../misc/lv_anim.h ****  * @param a         pointer to an initialized `lv_anim_t` variable
ARM GAS  /tmp/cctamPcj.s 			page 35


 247:Middlewares/lvgl/src/widgets/../core/../misc/lv_anim.h ****  * @param cnt       repeat count or `LV_ANIM_REPEAT_INFINITE` for infinite repetition. 0: to disabl
 248:Middlewares/lvgl/src/widgets/../core/../misc/lv_anim.h ****  */
 249:Middlewares/lvgl/src/widgets/../core/../misc/lv_anim.h **** static inline void lv_anim_set_repeat_count(lv_anim_t * a, uint16_t cnt)
 318              		.loc 4 249 20 view .LVU99
 319              	.LBB153:
 250:Middlewares/lvgl/src/widgets/../core/../misc/lv_anim.h **** {
 251:Middlewares/lvgl/src/widgets/../core/../misc/lv_anim.h ****     a->repeat_cnt = cnt;
 320              		.loc 4 251 5 view .LVU100
 321              		.loc 4 251 19 is_stmt 0 view .LVU101
 322 004a 4FF6FF73 		movw	r3, #65535
 323 004e ADF84030 		strh	r3, [sp, #64]	@ movhi
 324              	.LVL20:
 325              		.loc 4 251 19 view .LVU102
 326              	.LBE153:
 327              	.LBE152:
1045:Middlewares/lvgl/src/widgets/lv_textarea.c ****     }
 328              		.loc 1 1045 9 is_stmt 1 view .LVU103
 329 0052 01A8     		add	r0, sp, #4
 330 0054 FFF7FEFF 		bl	lv_anim_start
 331              	.LVL21:
 332              	.LBE139:
 333              		.loc 1 1047 1 is_stmt 0 view .LVU104
 334 0058 E5E7     		b	.L9
 335              	.L14:
 336 005a 00BF     		.align	2
 337              	.L13:
 338 005c 00000000 		.word	cursor_blink_anim_cb
 339 0060 00000000 		.word	lv_anim_path_step
 340              		.cfi_endproc
 341              	.LFE189:
 343              		.section	.text.draw_placeholder,"ax",%progbits
 344              		.align	1
 345              		.syntax unified
 346              		.thumb
 347              		.thumb_func
 349              	draw_placeholder:
 350              	.LVL22:
 351              	.LFB193:
1048:Middlewares/lvgl/src/widgets/lv_textarea.c **** 
1049:Middlewares/lvgl/src/widgets/lv_textarea.c **** static void refr_cursor_area(lv_obj_t * obj)
1050:Middlewares/lvgl/src/widgets/lv_textarea.c **** {
1051:Middlewares/lvgl/src/widgets/lv_textarea.c ****     lv_textarea_t * ta = (lv_textarea_t *)obj;
1052:Middlewares/lvgl/src/widgets/lv_textarea.c **** 
1053:Middlewares/lvgl/src/widgets/lv_textarea.c ****     const lv_font_t * font = lv_obj_get_style_text_font(obj, LV_PART_MAIN);
1054:Middlewares/lvgl/src/widgets/lv_textarea.c ****     lv_coord_t line_space = lv_obj_get_style_text_line_space(obj, LV_PART_MAIN);
1055:Middlewares/lvgl/src/widgets/lv_textarea.c **** 
1056:Middlewares/lvgl/src/widgets/lv_textarea.c ****     uint32_t cur_pos = lv_textarea_get_cursor_pos(obj);
1057:Middlewares/lvgl/src/widgets/lv_textarea.c ****     const char * txt = lv_label_get_text(ta->label);
1058:Middlewares/lvgl/src/widgets/lv_textarea.c **** 
1059:Middlewares/lvgl/src/widgets/lv_textarea.c ****     uint32_t byte_pos;
1060:Middlewares/lvgl/src/widgets/lv_textarea.c ****     byte_pos = _lv_txt_encoded_get_byte_id(txt, cur_pos);
1061:Middlewares/lvgl/src/widgets/lv_textarea.c **** 
1062:Middlewares/lvgl/src/widgets/lv_textarea.c ****     uint32_t letter = _lv_txt_encoded_next(&txt[byte_pos], NULL);
1063:Middlewares/lvgl/src/widgets/lv_textarea.c **** 
1064:Middlewares/lvgl/src/widgets/lv_textarea.c ****     lv_coord_t letter_h = lv_font_get_line_height(font);
1065:Middlewares/lvgl/src/widgets/lv_textarea.c **** 
1066:Middlewares/lvgl/src/widgets/lv_textarea.c ****     /*Set letter_w (set not 0 on non printable but valid chars)*/
ARM GAS  /tmp/cctamPcj.s 			page 36


1067:Middlewares/lvgl/src/widgets/lv_textarea.c ****     lv_coord_t letter_w;
1068:Middlewares/lvgl/src/widgets/lv_textarea.c ****     if(letter == '\0' || letter == '\n' || letter == '\r') {
1069:Middlewares/lvgl/src/widgets/lv_textarea.c ****         letter_w = lv_font_get_glyph_width(font, ' ', '\0');
1070:Middlewares/lvgl/src/widgets/lv_textarea.c ****     }
1071:Middlewares/lvgl/src/widgets/lv_textarea.c ****     else {
1072:Middlewares/lvgl/src/widgets/lv_textarea.c ****         /*`letter_next` parameter is '\0' to ignore kerning*/
1073:Middlewares/lvgl/src/widgets/lv_textarea.c ****         letter_w = lv_font_get_glyph_width(font, letter, '\0');
1074:Middlewares/lvgl/src/widgets/lv_textarea.c ****     }
1075:Middlewares/lvgl/src/widgets/lv_textarea.c **** 
1076:Middlewares/lvgl/src/widgets/lv_textarea.c ****     lv_point_t letter_pos;
1077:Middlewares/lvgl/src/widgets/lv_textarea.c ****     lv_label_get_letter_pos(ta->label, cur_pos, &letter_pos);
1078:Middlewares/lvgl/src/widgets/lv_textarea.c **** 
1079:Middlewares/lvgl/src/widgets/lv_textarea.c ****     lv_text_align_t align = lv_obj_get_style_text_align(ta->label, LV_PART_MAIN);
1080:Middlewares/lvgl/src/widgets/lv_textarea.c ****     if(align == LV_TEXT_ALIGN_AUTO) {
1081:Middlewares/lvgl/src/widgets/lv_textarea.c ****        if(lv_obj_get_style_base_dir(obj, LV_PART_MAIN) == LV_BASE_DIR_RTL) align = LV_TEXT_ALIGN_RI
1082:Middlewares/lvgl/src/widgets/lv_textarea.c ****        else align = LV_TEXT_ALIGN_LEFT;
1083:Middlewares/lvgl/src/widgets/lv_textarea.c ****     }
1084:Middlewares/lvgl/src/widgets/lv_textarea.c **** 
1085:Middlewares/lvgl/src/widgets/lv_textarea.c ****     /*If the cursor is out of the text (most right) draw it to the next line*/
1086:Middlewares/lvgl/src/widgets/lv_textarea.c ****     if(letter_pos.x + ta->label->coords.x1 + letter_w > ta->label->coords.x2 && ta->one_line == 0 &
1087:Middlewares/lvgl/src/widgets/lv_textarea.c ****         letter_pos.x = 0;
1088:Middlewares/lvgl/src/widgets/lv_textarea.c ****         letter_pos.y += letter_h + line_space;
1089:Middlewares/lvgl/src/widgets/lv_textarea.c **** 
1090:Middlewares/lvgl/src/widgets/lv_textarea.c ****         if(letter != '\0') {
1091:Middlewares/lvgl/src/widgets/lv_textarea.c ****             byte_pos += _lv_txt_encoded_size(&txt[byte_pos]);
1092:Middlewares/lvgl/src/widgets/lv_textarea.c ****             letter = _lv_txt_encoded_next(&txt[byte_pos], NULL);
1093:Middlewares/lvgl/src/widgets/lv_textarea.c ****         }
1094:Middlewares/lvgl/src/widgets/lv_textarea.c **** 
1095:Middlewares/lvgl/src/widgets/lv_textarea.c ****         if(letter == '\0' || letter == '\n' || letter == '\r') {
1096:Middlewares/lvgl/src/widgets/lv_textarea.c ****             letter_w = lv_font_get_glyph_width(font, ' ', '\0');
1097:Middlewares/lvgl/src/widgets/lv_textarea.c ****         }
1098:Middlewares/lvgl/src/widgets/lv_textarea.c ****         else {
1099:Middlewares/lvgl/src/widgets/lv_textarea.c ****             letter_w = lv_font_get_glyph_width(font, letter, '\0');
1100:Middlewares/lvgl/src/widgets/lv_textarea.c ****         }
1101:Middlewares/lvgl/src/widgets/lv_textarea.c ****     }
1102:Middlewares/lvgl/src/widgets/lv_textarea.c **** 
1103:Middlewares/lvgl/src/widgets/lv_textarea.c ****     /*Save the byte position. It is required to draw `LV_CURSOR_BLOCK`*/
1104:Middlewares/lvgl/src/widgets/lv_textarea.c ****     ta->cursor.txt_byte_pos = byte_pos;
1105:Middlewares/lvgl/src/widgets/lv_textarea.c **** 
1106:Middlewares/lvgl/src/widgets/lv_textarea.c ****     /*Calculate the cursor according to its type*/
1107:Middlewares/lvgl/src/widgets/lv_textarea.c ****     lv_coord_t top = lv_obj_get_style_pad_top(obj, LV_PART_CURSOR);
1108:Middlewares/lvgl/src/widgets/lv_textarea.c ****     lv_coord_t bottom = lv_obj_get_style_pad_bottom(obj, LV_PART_CURSOR);
1109:Middlewares/lvgl/src/widgets/lv_textarea.c ****     lv_coord_t left = lv_obj_get_style_pad_left(obj, LV_PART_CURSOR);
1110:Middlewares/lvgl/src/widgets/lv_textarea.c ****     lv_coord_t right = lv_obj_get_style_pad_right(obj, LV_PART_CURSOR);
1111:Middlewares/lvgl/src/widgets/lv_textarea.c **** 
1112:Middlewares/lvgl/src/widgets/lv_textarea.c ****     lv_area_t cur_area;
1113:Middlewares/lvgl/src/widgets/lv_textarea.c ****     cur_area.x1 = letter_pos.x - left;
1114:Middlewares/lvgl/src/widgets/lv_textarea.c ****     cur_area.y1 = letter_pos.y - top;
1115:Middlewares/lvgl/src/widgets/lv_textarea.c ****     cur_area.x2 = letter_pos.x + right + letter_w - 1;
1116:Middlewares/lvgl/src/widgets/lv_textarea.c ****     cur_area.y2 = letter_pos.y + bottom + letter_h - 1;
1117:Middlewares/lvgl/src/widgets/lv_textarea.c **** 
1118:Middlewares/lvgl/src/widgets/lv_textarea.c ****     /*Save the new area*/
1119:Middlewares/lvgl/src/widgets/lv_textarea.c ****     lv_area_t area_tmp;
1120:Middlewares/lvgl/src/widgets/lv_textarea.c ****     lv_area_copy(&area_tmp, &ta->cursor.area);
1121:Middlewares/lvgl/src/widgets/lv_textarea.c ****     area_tmp.x1 += ta->label->coords.x1;
1122:Middlewares/lvgl/src/widgets/lv_textarea.c ****     area_tmp.y1 += ta->label->coords.y1;
1123:Middlewares/lvgl/src/widgets/lv_textarea.c ****     area_tmp.x2 += ta->label->coords.x1;
ARM GAS  /tmp/cctamPcj.s 			page 37


1124:Middlewares/lvgl/src/widgets/lv_textarea.c ****     area_tmp.y2 += ta->label->coords.y1;
1125:Middlewares/lvgl/src/widgets/lv_textarea.c ****     lv_obj_invalidate_area(obj, &area_tmp);
1126:Middlewares/lvgl/src/widgets/lv_textarea.c **** 
1127:Middlewares/lvgl/src/widgets/lv_textarea.c ****     lv_area_copy(&ta->cursor.area, &cur_area);
1128:Middlewares/lvgl/src/widgets/lv_textarea.c **** 
1129:Middlewares/lvgl/src/widgets/lv_textarea.c ****     lv_area_copy(&area_tmp, &ta->cursor.area);
1130:Middlewares/lvgl/src/widgets/lv_textarea.c ****     area_tmp.x1 += ta->label->coords.x1;
1131:Middlewares/lvgl/src/widgets/lv_textarea.c ****     area_tmp.y1 += ta->label->coords.y1;
1132:Middlewares/lvgl/src/widgets/lv_textarea.c ****     area_tmp.x2 += ta->label->coords.x1;
1133:Middlewares/lvgl/src/widgets/lv_textarea.c ****     area_tmp.y2 += ta->label->coords.y1;
1134:Middlewares/lvgl/src/widgets/lv_textarea.c ****     lv_obj_invalidate_area(obj, &area_tmp);
1135:Middlewares/lvgl/src/widgets/lv_textarea.c **** }
1136:Middlewares/lvgl/src/widgets/lv_textarea.c **** 
1137:Middlewares/lvgl/src/widgets/lv_textarea.c **** static void update_cursor_position_on_click(lv_event_t * e)
1138:Middlewares/lvgl/src/widgets/lv_textarea.c **** {
1139:Middlewares/lvgl/src/widgets/lv_textarea.c ****     lv_indev_t * click_source = lv_indev_get_act();
1140:Middlewares/lvgl/src/widgets/lv_textarea.c ****     if(click_source == NULL) return;
1141:Middlewares/lvgl/src/widgets/lv_textarea.c **** 
1142:Middlewares/lvgl/src/widgets/lv_textarea.c ****     lv_event_code_t code = lv_event_get_code(e);
1143:Middlewares/lvgl/src/widgets/lv_textarea.c ****     lv_obj_t * obj = lv_event_get_target(e);
1144:Middlewares/lvgl/src/widgets/lv_textarea.c ****      lv_textarea_t * ta = (lv_textarea_t *)obj;
1145:Middlewares/lvgl/src/widgets/lv_textarea.c ****     if(ta->cursor.click_pos == 0) return;
1146:Middlewares/lvgl/src/widgets/lv_textarea.c **** 
1147:Middlewares/lvgl/src/widgets/lv_textarea.c ****     if(lv_indev_get_type(click_source) == LV_INDEV_TYPE_KEYPAD ||
1148:Middlewares/lvgl/src/widgets/lv_textarea.c ****        lv_indev_get_type(click_source) == LV_INDEV_TYPE_ENCODER) {
1149:Middlewares/lvgl/src/widgets/lv_textarea.c ****         return;
1150:Middlewares/lvgl/src/widgets/lv_textarea.c ****     }
1151:Middlewares/lvgl/src/widgets/lv_textarea.c **** 
1152:Middlewares/lvgl/src/widgets/lv_textarea.c ****     lv_area_t label_coords;
1153:Middlewares/lvgl/src/widgets/lv_textarea.c ****     lv_obj_get_coords(ta->label, &label_coords);
1154:Middlewares/lvgl/src/widgets/lv_textarea.c **** 
1155:Middlewares/lvgl/src/widgets/lv_textarea.c ****     lv_point_t point_act, vect_act;
1156:Middlewares/lvgl/src/widgets/lv_textarea.c ****     lv_indev_get_point(click_source, &point_act);
1157:Middlewares/lvgl/src/widgets/lv_textarea.c ****     lv_indev_get_vect(click_source, &vect_act);
1158:Middlewares/lvgl/src/widgets/lv_textarea.c **** 
1159:Middlewares/lvgl/src/widgets/lv_textarea.c ****     if(point_act.x < 0 || point_act.y < 0) return; /*Ignore event from keypad*/
1160:Middlewares/lvgl/src/widgets/lv_textarea.c ****     lv_point_t rel_pos;
1161:Middlewares/lvgl/src/widgets/lv_textarea.c ****     rel_pos.x = point_act.x - label_coords.x1;
1162:Middlewares/lvgl/src/widgets/lv_textarea.c ****     rel_pos.y = point_act.y - label_coords.y1;
1163:Middlewares/lvgl/src/widgets/lv_textarea.c **** 
1164:Middlewares/lvgl/src/widgets/lv_textarea.c ****     lv_coord_t label_width = lv_obj_get_width(ta->label);
1165:Middlewares/lvgl/src/widgets/lv_textarea.c **** 
1166:Middlewares/lvgl/src/widgets/lv_textarea.c ****     uint16_t char_id_at_click;
1167:Middlewares/lvgl/src/widgets/lv_textarea.c **** 
1168:Middlewares/lvgl/src/widgets/lv_textarea.c **** #if LV_LABEL_TEXT_SELECTION
1169:Middlewares/lvgl/src/widgets/lv_textarea.c ****     lv_label_t * label_data = (lv_label_t *)ta->label;
1170:Middlewares/lvgl/src/widgets/lv_textarea.c ****     bool click_outside_label;
1171:Middlewares/lvgl/src/widgets/lv_textarea.c ****     /*Check if the click happened on the left side of the area outside the label*/
1172:Middlewares/lvgl/src/widgets/lv_textarea.c ****     if(rel_pos.x < 0) {
1173:Middlewares/lvgl/src/widgets/lv_textarea.c ****         char_id_at_click = 0;
1174:Middlewares/lvgl/src/widgets/lv_textarea.c ****         click_outside_label       = true;
1175:Middlewares/lvgl/src/widgets/lv_textarea.c ****     }
1176:Middlewares/lvgl/src/widgets/lv_textarea.c ****     /*Check if the click happened on the right side of the area outside the label*/
1177:Middlewares/lvgl/src/widgets/lv_textarea.c ****     else if(rel_pos.x >= label_width) {
1178:Middlewares/lvgl/src/widgets/lv_textarea.c ****         char_id_at_click = LV_TEXTAREA_CURSOR_LAST;
1179:Middlewares/lvgl/src/widgets/lv_textarea.c ****         click_outside_label       = true;
1180:Middlewares/lvgl/src/widgets/lv_textarea.c ****     }
ARM GAS  /tmp/cctamPcj.s 			page 38


1181:Middlewares/lvgl/src/widgets/lv_textarea.c ****     else {
1182:Middlewares/lvgl/src/widgets/lv_textarea.c ****         char_id_at_click = lv_label_get_letter_on(ta->label, &rel_pos);
1183:Middlewares/lvgl/src/widgets/lv_textarea.c ****         click_outside_label       = !lv_label_is_char_under_pos(ta->label, &rel_pos);
1184:Middlewares/lvgl/src/widgets/lv_textarea.c ****     }
1185:Middlewares/lvgl/src/widgets/lv_textarea.c **** 
1186:Middlewares/lvgl/src/widgets/lv_textarea.c ****     if(ta->text_sel_en) {
1187:Middlewares/lvgl/src/widgets/lv_textarea.c ****         if(!ta->text_sel_in_prog && !click_outside_label && code == LV_EVENT_PRESSED) {
1188:Middlewares/lvgl/src/widgets/lv_textarea.c ****             /*Input device just went down. Store the selection start position*/
1189:Middlewares/lvgl/src/widgets/lv_textarea.c ****             ta->sel_start    = char_id_at_click;
1190:Middlewares/lvgl/src/widgets/lv_textarea.c ****             ta->sel_end      = LV_LABEL_TEXT_SELECTION_OFF;
1191:Middlewares/lvgl/src/widgets/lv_textarea.c ****             ta->text_sel_in_prog = 1;
1192:Middlewares/lvgl/src/widgets/lv_textarea.c ****             lv_obj_clear_flag(obj, LV_OBJ_FLAG_SCROLL_CHAIN);
1193:Middlewares/lvgl/src/widgets/lv_textarea.c ****         }
1194:Middlewares/lvgl/src/widgets/lv_textarea.c ****         else if(ta->text_sel_in_prog && code == LV_EVENT_PRESSING) {
1195:Middlewares/lvgl/src/widgets/lv_textarea.c ****             /*Input device may be moving. Store the end position*/
1196:Middlewares/lvgl/src/widgets/lv_textarea.c ****             ta->sel_end = char_id_at_click;
1197:Middlewares/lvgl/src/widgets/lv_textarea.c ****         }
1198:Middlewares/lvgl/src/widgets/lv_textarea.c ****         else if(ta->text_sel_in_prog && (code == LV_EVENT_PRESS_LOST || code == LV_EVENT_RELEASED))
1199:Middlewares/lvgl/src/widgets/lv_textarea.c ****             /*Input device is released. Check if anything was selected.*/
1200:Middlewares/lvgl/src/widgets/lv_textarea.c ****             lv_obj_add_flag(obj, LV_OBJ_FLAG_SCROLL_CHAIN);
1201:Middlewares/lvgl/src/widgets/lv_textarea.c ****         }
1202:Middlewares/lvgl/src/widgets/lv_textarea.c ****     }
1203:Middlewares/lvgl/src/widgets/lv_textarea.c **** 
1204:Middlewares/lvgl/src/widgets/lv_textarea.c ****     if(ta->text_sel_in_prog || code == LV_EVENT_PRESSED) lv_textarea_set_cursor_pos(obj, char_id_at
1205:Middlewares/lvgl/src/widgets/lv_textarea.c **** 
1206:Middlewares/lvgl/src/widgets/lv_textarea.c ****     if(ta->text_sel_in_prog) {
1207:Middlewares/lvgl/src/widgets/lv_textarea.c ****         /*If the selected area has changed then update the real values and*/
1208:Middlewares/lvgl/src/widgets/lv_textarea.c **** 
1209:Middlewares/lvgl/src/widgets/lv_textarea.c ****         /*Invalidate the text area.*/
1210:Middlewares/lvgl/src/widgets/lv_textarea.c ****         if(ta->sel_start > ta->sel_end) {
1211:Middlewares/lvgl/src/widgets/lv_textarea.c ****             if(label_data->sel_start != ta->sel_end || label_data->sel_end != ta->sel_start) {
1212:Middlewares/lvgl/src/widgets/lv_textarea.c ****                 label_data->sel_start = ta->sel_end;
1213:Middlewares/lvgl/src/widgets/lv_textarea.c ****                 label_data->sel_end   = ta->sel_start;
1214:Middlewares/lvgl/src/widgets/lv_textarea.c ****                 lv_obj_invalidate(obj);
1215:Middlewares/lvgl/src/widgets/lv_textarea.c ****             }
1216:Middlewares/lvgl/src/widgets/lv_textarea.c ****         }
1217:Middlewares/lvgl/src/widgets/lv_textarea.c ****         else if(ta->sel_start < ta->sel_end) {
1218:Middlewares/lvgl/src/widgets/lv_textarea.c ****             if(label_data->sel_start != ta->sel_start || label_data->sel_end != ta->sel_end) {
1219:Middlewares/lvgl/src/widgets/lv_textarea.c ****                 label_data->sel_start = ta->sel_start;
1220:Middlewares/lvgl/src/widgets/lv_textarea.c ****                 label_data->sel_end   = ta->sel_end;
1221:Middlewares/lvgl/src/widgets/lv_textarea.c ****                 lv_obj_invalidate(obj);
1222:Middlewares/lvgl/src/widgets/lv_textarea.c ****             }
1223:Middlewares/lvgl/src/widgets/lv_textarea.c ****         }
1224:Middlewares/lvgl/src/widgets/lv_textarea.c ****         else {
1225:Middlewares/lvgl/src/widgets/lv_textarea.c ****             if(label_data->sel_start != LV_DRAW_LABEL_NO_TXT_SEL || label_data->sel_end != LV_DRAW_
1226:Middlewares/lvgl/src/widgets/lv_textarea.c ****                 label_data->sel_start = LV_DRAW_LABEL_NO_TXT_SEL;
1227:Middlewares/lvgl/src/widgets/lv_textarea.c ****                 label_data->sel_end   = LV_DRAW_LABEL_NO_TXT_SEL;
1228:Middlewares/lvgl/src/widgets/lv_textarea.c ****                 lv_obj_invalidate(obj);
1229:Middlewares/lvgl/src/widgets/lv_textarea.c ****             }
1230:Middlewares/lvgl/src/widgets/lv_textarea.c ****         }
1231:Middlewares/lvgl/src/widgets/lv_textarea.c ****         /*Finish selection if necessary*/
1232:Middlewares/lvgl/src/widgets/lv_textarea.c ****         if(code == LV_EVENT_PRESS_LOST || code == LV_EVENT_RELEASED) {
1233:Middlewares/lvgl/src/widgets/lv_textarea.c ****             ta->text_sel_in_prog = 0;
1234:Middlewares/lvgl/src/widgets/lv_textarea.c ****         }
1235:Middlewares/lvgl/src/widgets/lv_textarea.c ****     }
1236:Middlewares/lvgl/src/widgets/lv_textarea.c **** #else
1237:Middlewares/lvgl/src/widgets/lv_textarea.c ****     /*Check if the click happened on the left side of the area outside the label*/
ARM GAS  /tmp/cctamPcj.s 			page 39


1238:Middlewares/lvgl/src/widgets/lv_textarea.c ****     if(rel_pos.x < 0) {
1239:Middlewares/lvgl/src/widgets/lv_textarea.c ****         char_id_at_click = 0;
1240:Middlewares/lvgl/src/widgets/lv_textarea.c ****     }
1241:Middlewares/lvgl/src/widgets/lv_textarea.c ****     /*Check if the click happened on the right side of the area outside the label*/
1242:Middlewares/lvgl/src/widgets/lv_textarea.c ****     else if(rel_pos.x >= label_width) {
1243:Middlewares/lvgl/src/widgets/lv_textarea.c ****         char_id_at_click = LV_TEXTAREA_CURSOR_LAST;
1244:Middlewares/lvgl/src/widgets/lv_textarea.c ****     }
1245:Middlewares/lvgl/src/widgets/lv_textarea.c ****     else {
1246:Middlewares/lvgl/src/widgets/lv_textarea.c ****         char_id_at_click = lv_label_get_letter_on(ta->label, &rel_pos);
1247:Middlewares/lvgl/src/widgets/lv_textarea.c ****     }
1248:Middlewares/lvgl/src/widgets/lv_textarea.c **** 
1249:Middlewares/lvgl/src/widgets/lv_textarea.c ****     if(code == LV_EVENT_PRESSED) lv_textarea_set_cursor_pos(obj, char_id_at_click);
1250:Middlewares/lvgl/src/widgets/lv_textarea.c **** #endif
1251:Middlewares/lvgl/src/widgets/lv_textarea.c **** }
1252:Middlewares/lvgl/src/widgets/lv_textarea.c **** 
1253:Middlewares/lvgl/src/widgets/lv_textarea.c **** static lv_res_t insert_handler(lv_obj_t * obj, const char * txt)
1254:Middlewares/lvgl/src/widgets/lv_textarea.c **** {
1255:Middlewares/lvgl/src/widgets/lv_textarea.c ****     ta_insert_replace = NULL;
1256:Middlewares/lvgl/src/widgets/lv_textarea.c ****     lv_event_send(obj, LV_EVENT_INSERT, (char*)txt);
1257:Middlewares/lvgl/src/widgets/lv_textarea.c ****     if(ta_insert_replace) {
1258:Middlewares/lvgl/src/widgets/lv_textarea.c ****         if(ta_insert_replace[0] == '\0') return LV_RES_INV; /*Drop this text*/
1259:Middlewares/lvgl/src/widgets/lv_textarea.c **** 
1260:Middlewares/lvgl/src/widgets/lv_textarea.c ****         /*Add the replaced text directly it's different from the original*/
1261:Middlewares/lvgl/src/widgets/lv_textarea.c ****         if(strcmp(ta_insert_replace, txt)) {
1262:Middlewares/lvgl/src/widgets/lv_textarea.c ****             lv_textarea_add_text(obj, ta_insert_replace);
1263:Middlewares/lvgl/src/widgets/lv_textarea.c ****             return LV_RES_INV;
1264:Middlewares/lvgl/src/widgets/lv_textarea.c ****         }
1265:Middlewares/lvgl/src/widgets/lv_textarea.c ****     }
1266:Middlewares/lvgl/src/widgets/lv_textarea.c **** 
1267:Middlewares/lvgl/src/widgets/lv_textarea.c ****     return LV_RES_OK;
1268:Middlewares/lvgl/src/widgets/lv_textarea.c **** }
1269:Middlewares/lvgl/src/widgets/lv_textarea.c **** 
1270:Middlewares/lvgl/src/widgets/lv_textarea.c **** static void draw_placeholder(lv_event_t * e)
1271:Middlewares/lvgl/src/widgets/lv_textarea.c **** {
 352              		.loc 1 1271 1 is_stmt 1 view -0
 353              		.cfi_startproc
 354              		@ args = 0, pretend = 0, frame = 40
 355              		@ frame_needed = 0, uses_anonymous_args = 0
 356              		.loc 1 1271 1 is_stmt 0 view .LVU106
 357 0000 F0B5     		push	{r4, r5, r6, r7, lr}
 358              	.LCFI7:
 359              		.cfi_def_cfa_offset 20
 360              		.cfi_offset 4, -20
 361              		.cfi_offset 5, -16
 362              		.cfi_offset 6, -12
 363              		.cfi_offset 7, -8
 364              		.cfi_offset 14, -4
 365 0002 8DB0     		sub	sp, sp, #52
 366              	.LCFI8:
 367              		.cfi_def_cfa_offset 72
 368 0004 0546     		mov	r5, r0
1272:Middlewares/lvgl/src/widgets/lv_textarea.c ****     lv_obj_t * obj = lv_event_get_target(e);
 369              		.loc 1 1272 5 is_stmt 1 view .LVU107
 370              		.loc 1 1272 22 is_stmt 0 view .LVU108
 371 0006 FFF7FEFF 		bl	lv_event_get_target
 372              	.LVL23:
 373              		.loc 1 1272 22 view .LVU109
ARM GAS  /tmp/cctamPcj.s 			page 40


 374 000a 0446     		mov	r4, r0
 375              	.LVL24:
1273:Middlewares/lvgl/src/widgets/lv_textarea.c ****     lv_textarea_t * ta = (lv_textarea_t *)obj;
 376              		.loc 1 1273 5 is_stmt 1 view .LVU110
1274:Middlewares/lvgl/src/widgets/lv_textarea.c ****     const lv_area_t * clip_area = lv_event_get_param(e);
 377              		.loc 1 1274 5 view .LVU111
 378              		.loc 1 1274 35 is_stmt 0 view .LVU112
 379 000c 2846     		mov	r0, r5
 380              	.LVL25:
 381              		.loc 1 1274 35 view .LVU113
 382 000e FFF7FEFF 		bl	lv_event_get_param
 383              	.LVL26:
 384 0012 0546     		mov	r5, r0
 385              	.LVL27:
1275:Middlewares/lvgl/src/widgets/lv_textarea.c ****     const char * txt = lv_label_get_text(ta->label);
 386              		.loc 1 1275 5 is_stmt 1 view .LVU114
 387              		.loc 1 1275 24 is_stmt 0 view .LVU115
 388 0014 606A     		ldr	r0, [r4, #36]
 389              	.LVL28:
 390              		.loc 1 1275 24 view .LVU116
 391 0016 FFF7FEFF 		bl	lv_label_get_text
 392              	.LVL29:
1276:Middlewares/lvgl/src/widgets/lv_textarea.c **** 
1277:Middlewares/lvgl/src/widgets/lv_textarea.c ****     /*Draw the place holder*/
1278:Middlewares/lvgl/src/widgets/lv_textarea.c ****     if(txt[0] == '\0' && ta->placeholder_txt && ta->placeholder_txt[0] != 0) {
 393              		.loc 1 1278 5 is_stmt 1 view .LVU117
 394              		.loc 1 1278 11 is_stmt 0 view .LVU118
 395 001a 0378     		ldrb	r3, [r0]	@ zero_extendqisi2
 396              		.loc 1 1278 7 view .LVU119
 397 001c 1BB9     		cbnz	r3, .L15
 398              		.loc 1 1278 28 discriminator 1 view .LVU120
 399 001e A36A     		ldr	r3, [r4, #40]
 400              		.loc 1 1278 23 discriminator 1 view .LVU121
 401 0020 0BB1     		cbz	r3, .L15
 402              		.loc 1 1278 68 discriminator 2 view .LVU122
 403 0022 1B78     		ldrb	r3, [r3]	@ zero_extendqisi2
 404              		.loc 1 1278 46 discriminator 2 view .LVU123
 405 0024 0BB9     		cbnz	r3, .L19
 406              	.LVL30:
 407              	.L15:
1279:Middlewares/lvgl/src/widgets/lv_textarea.c ****         lv_draw_label_dsc_t ph_dsc;
1280:Middlewares/lvgl/src/widgets/lv_textarea.c ****         lv_draw_label_dsc_init(&ph_dsc);
1281:Middlewares/lvgl/src/widgets/lv_textarea.c ****         lv_obj_init_draw_label_dsc(obj, LV_PART_TEXTAREA_PLACEHOLDER, &ph_dsc);
1282:Middlewares/lvgl/src/widgets/lv_textarea.c **** 
1283:Middlewares/lvgl/src/widgets/lv_textarea.c ****         if(ta->one_line) ph_dsc.flag |= LV_TEXT_FLAG_EXPAND;
1284:Middlewares/lvgl/src/widgets/lv_textarea.c **** 
1285:Middlewares/lvgl/src/widgets/lv_textarea.c ****         lv_coord_t left = lv_obj_get_style_pad_left(obj, LV_PART_MAIN);
1286:Middlewares/lvgl/src/widgets/lv_textarea.c ****         lv_coord_t top = lv_obj_get_style_pad_top(obj, LV_PART_MAIN);
1287:Middlewares/lvgl/src/widgets/lv_textarea.c ****         lv_coord_t border_width = lv_obj_get_style_border_width(obj, LV_PART_MAIN);
1288:Middlewares/lvgl/src/widgets/lv_textarea.c ****         lv_area_t ph_coords;
1289:Middlewares/lvgl/src/widgets/lv_textarea.c ****         lv_area_copy(&ph_coords, &obj->coords);
1290:Middlewares/lvgl/src/widgets/lv_textarea.c ****         lv_area_move(&ph_coords, left + border_width, top + border_width);
1291:Middlewares/lvgl/src/widgets/lv_textarea.c ****         lv_draw_label(&ph_coords, clip_area, &ph_dsc, ta->placeholder_txt, NULL);
1292:Middlewares/lvgl/src/widgets/lv_textarea.c ****     }
1293:Middlewares/lvgl/src/widgets/lv_textarea.c **** }
 408              		.loc 1 1293 1 view .LVU124
 409 0026 0DB0     		add	sp, sp, #52
ARM GAS  /tmp/cctamPcj.s 			page 41


 410              	.LCFI9:
 411              		.cfi_remember_state
 412              		.cfi_def_cfa_offset 20
 413              		@ sp needed
 414 0028 F0BD     		pop	{r4, r5, r6, r7, pc}
 415              	.LVL31:
 416              	.L19:
 417              	.LCFI10:
 418              		.cfi_restore_state
 419              	.LBB154:
1279:Middlewares/lvgl/src/widgets/lv_textarea.c ****         lv_draw_label_dsc_t ph_dsc;
 420              		.loc 1 1279 9 is_stmt 1 view .LVU125
1280:Middlewares/lvgl/src/widgets/lv_textarea.c ****         lv_obj_init_draw_label_dsc(obj, LV_PART_TEXTAREA_PLACEHOLDER, &ph_dsc);
 421              		.loc 1 1280 9 view .LVU126
 422 002a 04A8     		add	r0, sp, #16
 423              	.LVL32:
1280:Middlewares/lvgl/src/widgets/lv_textarea.c ****         lv_obj_init_draw_label_dsc(obj, LV_PART_TEXTAREA_PLACEHOLDER, &ph_dsc);
 424              		.loc 1 1280 9 is_stmt 0 view .LVU127
 425 002c FFF7FEFF 		bl	lv_draw_label_dsc_init
 426              	.LVL33:
1281:Middlewares/lvgl/src/widgets/lv_textarea.c **** 
 427              		.loc 1 1281 9 is_stmt 1 view .LVU128
 428 0030 04AA     		add	r2, sp, #16
 429 0032 4FF40021 		mov	r1, #524288
 430 0036 2046     		mov	r0, r4
 431 0038 FFF7FEFF 		bl	lv_obj_init_draw_label_dsc
 432              	.LVL34:
1283:Middlewares/lvgl/src/widgets/lv_textarea.c **** 
 433              		.loc 1 1283 9 view .LVU129
1283:Middlewares/lvgl/src/widgets/lv_textarea.c **** 
 434              		.loc 1 1283 12 is_stmt 0 view .LVU130
 435 003c 94F85C30 		ldrb	r3, [r4, #92]	@ zero_extendqisi2
1283:Middlewares/lvgl/src/widgets/lv_textarea.c **** 
 436              		.loc 1 1283 11 view .LVU131
 437 0040 13F0080F 		tst	r3, #8
 438 0044 05D0     		beq	.L17
1283:Middlewares/lvgl/src/widgets/lv_textarea.c **** 
 439              		.loc 1 1283 26 is_stmt 1 discriminator 1 view .LVU132
1283:Middlewares/lvgl/src/widgets/lv_textarea.c **** 
 440              		.loc 1 1283 38 is_stmt 0 discriminator 1 view .LVU133
 441 0046 9DF82C30 		ldrb	r3, [sp, #44]	@ zero_extendqisi2
 442 004a 43F00203 		orr	r3, r3, #2
 443 004e 8DF82C30 		strb	r3, [sp, #44]
 444              	.L17:
1285:Middlewares/lvgl/src/widgets/lv_textarea.c ****         lv_coord_t top = lv_obj_get_style_pad_top(obj, LV_PART_MAIN);
 445              		.loc 1 1285 9 is_stmt 1 view .LVU134
 446              	.LVL35:
 447              	.LBB155:
 448              	.LBI155:
 103:Middlewares/lvgl/src/widgets/../core/lv_obj_style_gen.h **** {
 449              		.loc 3 103 26 view .LVU135
 450              	.LBB156:
 105:Middlewares/lvgl/src/widgets/../core/lv_obj_style_gen.h ****     return (lv_coord_t)v.num;
 451              		.loc 3 105 5 view .LVU136
 105:Middlewares/lvgl/src/widgets/../core/lv_obj_style_gen.h ****     return (lv_coord_t)v.num;
 452              		.loc 3 105 26 is_stmt 0 view .LVU137
 453 0052 41F21202 		movw	r2, #4114
ARM GAS  /tmp/cctamPcj.s 			page 42


 454 0056 0021     		movs	r1, #0
 455 0058 2046     		mov	r0, r4
 456 005a FFF7FEFF 		bl	lv_obj_get_style_prop
 457              	.LVL36:
 458 005e 0646     		mov	r6, r0
 106:Middlewares/lvgl/src/widgets/../core/lv_obj_style_gen.h **** }
 459              		.loc 3 106 5 is_stmt 1 view .LVU138
 460              	.LVL37:
 106:Middlewares/lvgl/src/widgets/../core/lv_obj_style_gen.h **** }
 461              		.loc 3 106 5 is_stmt 0 view .LVU139
 462              	.LBE156:
 463              	.LBE155:
1286:Middlewares/lvgl/src/widgets/lv_textarea.c ****         lv_coord_t border_width = lv_obj_get_style_border_width(obj, LV_PART_MAIN);
 464              		.loc 1 1286 9 is_stmt 1 view .LVU140
 465              	.LBB157:
 466              	.LBI157:
  91:Middlewares/lvgl/src/widgets/../core/lv_obj_style_gen.h **** {
 467              		.loc 3 91 26 view .LVU141
 468              	.LBB158:
  93:Middlewares/lvgl/src/widgets/../core/lv_obj_style_gen.h ****     return (lv_coord_t)v.num;
 469              		.loc 3 93 5 view .LVU142
  93:Middlewares/lvgl/src/widgets/../core/lv_obj_style_gen.h ****     return (lv_coord_t)v.num;
 470              		.loc 3 93 26 is_stmt 0 view .LVU143
 471 0060 41F21002 		movw	r2, #4112
 472 0064 0021     		movs	r1, #0
 473 0066 2046     		mov	r0, r4
 474 0068 FFF7FEFF 		bl	lv_obj_get_style_prop
 475              	.LVL38:
 476 006c 0746     		mov	r7, r0
  94:Middlewares/lvgl/src/widgets/../core/lv_obj_style_gen.h **** }
 477              		.loc 3 94 5 is_stmt 1 view .LVU144
 478              	.LVL39:
  94:Middlewares/lvgl/src/widgets/../core/lv_obj_style_gen.h **** }
 479              		.loc 3 94 5 is_stmt 0 view .LVU145
 480              	.LBE158:
 481              	.LBE157:
1287:Middlewares/lvgl/src/widgets/lv_textarea.c ****         lv_area_t ph_coords;
 482              		.loc 1 1287 9 is_stmt 1 view .LVU146
 483              	.LBB159:
 484              	.LBI159:
 161:Middlewares/lvgl/src/widgets/../core/lv_obj_style_gen.h **** }
 162:Middlewares/lvgl/src/widgets/../core/lv_obj_style_gen.h **** 
 163:Middlewares/lvgl/src/widgets/../core/lv_obj_style_gen.h **** static inline uint32_t lv_obj_get_style_anim_speed(const struct _lv_obj_t * obj, uint32_t part)
 164:Middlewares/lvgl/src/widgets/../core/lv_obj_style_gen.h **** {
 165:Middlewares/lvgl/src/widgets/../core/lv_obj_style_gen.h ****     lv_style_value_t v = lv_obj_get_style_prop(obj, part, LV_STYLE_ANIM_SPEED);
 166:Middlewares/lvgl/src/widgets/../core/lv_obj_style_gen.h ****     return (uint32_t)v.num;
 167:Middlewares/lvgl/src/widgets/../core/lv_obj_style_gen.h **** }
 168:Middlewares/lvgl/src/widgets/../core/lv_obj_style_gen.h **** 
 169:Middlewares/lvgl/src/widgets/../core/lv_obj_style_gen.h **** static inline const lv_style_transition_dsc_t * lv_obj_get_style_transition(const struct _lv_obj_t 
 170:Middlewares/lvgl/src/widgets/../core/lv_obj_style_gen.h **** {
 171:Middlewares/lvgl/src/widgets/../core/lv_obj_style_gen.h ****     lv_style_value_t v = lv_obj_get_style_prop(obj, part, LV_STYLE_TRANSITION);
 172:Middlewares/lvgl/src/widgets/../core/lv_obj_style_gen.h ****     return (const lv_style_transition_dsc_t *)v.ptr;
 173:Middlewares/lvgl/src/widgets/../core/lv_obj_style_gen.h **** }
 174:Middlewares/lvgl/src/widgets/../core/lv_obj_style_gen.h **** 
 175:Middlewares/lvgl/src/widgets/../core/lv_obj_style_gen.h **** static inline lv_blend_mode_t lv_obj_get_style_blend_mode(const struct _lv_obj_t * obj, uint32_t pa
 176:Middlewares/lvgl/src/widgets/../core/lv_obj_style_gen.h **** {
 177:Middlewares/lvgl/src/widgets/../core/lv_obj_style_gen.h ****     lv_style_value_t v = lv_obj_get_style_prop(obj, part, LV_STYLE_BLEND_MODE);
ARM GAS  /tmp/cctamPcj.s 			page 43


 178:Middlewares/lvgl/src/widgets/../core/lv_obj_style_gen.h ****     return (lv_blend_mode_t)v.num;
 179:Middlewares/lvgl/src/widgets/../core/lv_obj_style_gen.h **** }
 180:Middlewares/lvgl/src/widgets/../core/lv_obj_style_gen.h **** 
 181:Middlewares/lvgl/src/widgets/../core/lv_obj_style_gen.h **** static inline uint16_t lv_obj_get_style_layout(const struct _lv_obj_t * obj, uint32_t part)
 182:Middlewares/lvgl/src/widgets/../core/lv_obj_style_gen.h **** {
 183:Middlewares/lvgl/src/widgets/../core/lv_obj_style_gen.h ****     lv_style_value_t v = lv_obj_get_style_prop(obj, part, LV_STYLE_LAYOUT);
 184:Middlewares/lvgl/src/widgets/../core/lv_obj_style_gen.h ****     return (uint16_t)v.num;
 185:Middlewares/lvgl/src/widgets/../core/lv_obj_style_gen.h **** }
 186:Middlewares/lvgl/src/widgets/../core/lv_obj_style_gen.h **** 
 187:Middlewares/lvgl/src/widgets/../core/lv_obj_style_gen.h **** static inline lv_base_dir_t lv_obj_get_style_base_dir(const struct _lv_obj_t * obj, uint32_t part)
 188:Middlewares/lvgl/src/widgets/../core/lv_obj_style_gen.h **** {
 189:Middlewares/lvgl/src/widgets/../core/lv_obj_style_gen.h ****     lv_style_value_t v = lv_obj_get_style_prop(obj, part, LV_STYLE_BASE_DIR);
 190:Middlewares/lvgl/src/widgets/../core/lv_obj_style_gen.h ****     return (lv_base_dir_t)v.num;
 191:Middlewares/lvgl/src/widgets/../core/lv_obj_style_gen.h **** }
 192:Middlewares/lvgl/src/widgets/../core/lv_obj_style_gen.h **** 
 193:Middlewares/lvgl/src/widgets/../core/lv_obj_style_gen.h **** static inline lv_color_t lv_obj_get_style_bg_color(const struct _lv_obj_t * obj, uint32_t part)
 194:Middlewares/lvgl/src/widgets/../core/lv_obj_style_gen.h **** {
 195:Middlewares/lvgl/src/widgets/../core/lv_obj_style_gen.h ****     lv_style_value_t v = lv_obj_get_style_prop(obj, part, LV_STYLE_BG_COLOR);
 196:Middlewares/lvgl/src/widgets/../core/lv_obj_style_gen.h ****     return v.color;
 197:Middlewares/lvgl/src/widgets/../core/lv_obj_style_gen.h **** }
 198:Middlewares/lvgl/src/widgets/../core/lv_obj_style_gen.h **** 
 199:Middlewares/lvgl/src/widgets/../core/lv_obj_style_gen.h **** static inline lv_color_t lv_obj_get_style_bg_color_filtered(const struct _lv_obj_t * obj, uint32_t 
 200:Middlewares/lvgl/src/widgets/../core/lv_obj_style_gen.h **** {
 201:Middlewares/lvgl/src/widgets/../core/lv_obj_style_gen.h ****     lv_style_value_t v = lv_obj_get_style_prop(obj, part, LV_STYLE_BG_COLOR_FILTERED);
 202:Middlewares/lvgl/src/widgets/../core/lv_obj_style_gen.h ****     return v.color;
 203:Middlewares/lvgl/src/widgets/../core/lv_obj_style_gen.h **** }
 204:Middlewares/lvgl/src/widgets/../core/lv_obj_style_gen.h **** 
 205:Middlewares/lvgl/src/widgets/../core/lv_obj_style_gen.h **** static inline lv_opa_t lv_obj_get_style_bg_opa(const struct _lv_obj_t * obj, uint32_t part)
 206:Middlewares/lvgl/src/widgets/../core/lv_obj_style_gen.h **** {
 207:Middlewares/lvgl/src/widgets/../core/lv_obj_style_gen.h ****     lv_style_value_t v = lv_obj_get_style_prop(obj, part, LV_STYLE_BG_OPA);
 208:Middlewares/lvgl/src/widgets/../core/lv_obj_style_gen.h ****     return (lv_opa_t)v.num;
 209:Middlewares/lvgl/src/widgets/../core/lv_obj_style_gen.h **** }
 210:Middlewares/lvgl/src/widgets/../core/lv_obj_style_gen.h **** 
 211:Middlewares/lvgl/src/widgets/../core/lv_obj_style_gen.h **** static inline lv_color_t lv_obj_get_style_bg_grad_color(const struct _lv_obj_t * obj, uint32_t part
 212:Middlewares/lvgl/src/widgets/../core/lv_obj_style_gen.h **** {
 213:Middlewares/lvgl/src/widgets/../core/lv_obj_style_gen.h ****     lv_style_value_t v = lv_obj_get_style_prop(obj, part, LV_STYLE_BG_GRAD_COLOR);
 214:Middlewares/lvgl/src/widgets/../core/lv_obj_style_gen.h ****     return v.color;
 215:Middlewares/lvgl/src/widgets/../core/lv_obj_style_gen.h **** }
 216:Middlewares/lvgl/src/widgets/../core/lv_obj_style_gen.h **** 
 217:Middlewares/lvgl/src/widgets/../core/lv_obj_style_gen.h **** static inline lv_color_t lv_obj_get_style_bg_grad_color_filtered(const struct _lv_obj_t * obj, uint
 218:Middlewares/lvgl/src/widgets/../core/lv_obj_style_gen.h **** {
 219:Middlewares/lvgl/src/widgets/../core/lv_obj_style_gen.h ****     lv_style_value_t v = lv_obj_get_style_prop(obj, part, LV_STYLE_BG_GRAD_COLOR_FILTERED);
 220:Middlewares/lvgl/src/widgets/../core/lv_obj_style_gen.h ****     return v.color;
 221:Middlewares/lvgl/src/widgets/../core/lv_obj_style_gen.h **** }
 222:Middlewares/lvgl/src/widgets/../core/lv_obj_style_gen.h **** 
 223:Middlewares/lvgl/src/widgets/../core/lv_obj_style_gen.h **** static inline lv_grad_dir_t lv_obj_get_style_bg_grad_dir(const struct _lv_obj_t * obj, uint32_t par
 224:Middlewares/lvgl/src/widgets/../core/lv_obj_style_gen.h **** {
 225:Middlewares/lvgl/src/widgets/../core/lv_obj_style_gen.h ****     lv_style_value_t v = lv_obj_get_style_prop(obj, part, LV_STYLE_BG_GRAD_DIR);
 226:Middlewares/lvgl/src/widgets/../core/lv_obj_style_gen.h ****     return (lv_grad_dir_t)v.num;
 227:Middlewares/lvgl/src/widgets/../core/lv_obj_style_gen.h **** }
 228:Middlewares/lvgl/src/widgets/../core/lv_obj_style_gen.h **** 
 229:Middlewares/lvgl/src/widgets/../core/lv_obj_style_gen.h **** static inline lv_coord_t lv_obj_get_style_bg_main_stop(const struct _lv_obj_t * obj, uint32_t part)
 230:Middlewares/lvgl/src/widgets/../core/lv_obj_style_gen.h **** {
 231:Middlewares/lvgl/src/widgets/../core/lv_obj_style_gen.h ****     lv_style_value_t v = lv_obj_get_style_prop(obj, part, LV_STYLE_BG_MAIN_STOP);
 232:Middlewares/lvgl/src/widgets/../core/lv_obj_style_gen.h ****     return (lv_coord_t)v.num;
 233:Middlewares/lvgl/src/widgets/../core/lv_obj_style_gen.h **** }
 234:Middlewares/lvgl/src/widgets/../core/lv_obj_style_gen.h **** 
ARM GAS  /tmp/cctamPcj.s 			page 44


 235:Middlewares/lvgl/src/widgets/../core/lv_obj_style_gen.h **** static inline lv_coord_t lv_obj_get_style_bg_grad_stop(const struct _lv_obj_t * obj, uint32_t part)
 236:Middlewares/lvgl/src/widgets/../core/lv_obj_style_gen.h **** {
 237:Middlewares/lvgl/src/widgets/../core/lv_obj_style_gen.h ****     lv_style_value_t v = lv_obj_get_style_prop(obj, part, LV_STYLE_BG_GRAD_STOP);
 238:Middlewares/lvgl/src/widgets/../core/lv_obj_style_gen.h ****     return (lv_coord_t)v.num;
 239:Middlewares/lvgl/src/widgets/../core/lv_obj_style_gen.h **** }
 240:Middlewares/lvgl/src/widgets/../core/lv_obj_style_gen.h **** 
 241:Middlewares/lvgl/src/widgets/../core/lv_obj_style_gen.h **** static inline const void * lv_obj_get_style_bg_img_src(const struct _lv_obj_t * obj, uint32_t part)
 242:Middlewares/lvgl/src/widgets/../core/lv_obj_style_gen.h **** {
 243:Middlewares/lvgl/src/widgets/../core/lv_obj_style_gen.h ****     lv_style_value_t v = lv_obj_get_style_prop(obj, part, LV_STYLE_BG_IMG_SRC);
 244:Middlewares/lvgl/src/widgets/../core/lv_obj_style_gen.h ****     return (const void *)v.ptr;
 245:Middlewares/lvgl/src/widgets/../core/lv_obj_style_gen.h **** }
 246:Middlewares/lvgl/src/widgets/../core/lv_obj_style_gen.h **** 
 247:Middlewares/lvgl/src/widgets/../core/lv_obj_style_gen.h **** static inline lv_opa_t lv_obj_get_style_bg_img_opa(const struct _lv_obj_t * obj, uint32_t part)
 248:Middlewares/lvgl/src/widgets/../core/lv_obj_style_gen.h **** {
 249:Middlewares/lvgl/src/widgets/../core/lv_obj_style_gen.h ****     lv_style_value_t v = lv_obj_get_style_prop(obj, part, LV_STYLE_BG_IMG_OPA);
 250:Middlewares/lvgl/src/widgets/../core/lv_obj_style_gen.h ****     return (lv_opa_t)v.num;
 251:Middlewares/lvgl/src/widgets/../core/lv_obj_style_gen.h **** }
 252:Middlewares/lvgl/src/widgets/../core/lv_obj_style_gen.h **** 
 253:Middlewares/lvgl/src/widgets/../core/lv_obj_style_gen.h **** static inline lv_color_t lv_obj_get_style_bg_img_recolor(const struct _lv_obj_t * obj, uint32_t par
 254:Middlewares/lvgl/src/widgets/../core/lv_obj_style_gen.h **** {
 255:Middlewares/lvgl/src/widgets/../core/lv_obj_style_gen.h ****     lv_style_value_t v = lv_obj_get_style_prop(obj, part, LV_STYLE_BG_IMG_RECOLOR);
 256:Middlewares/lvgl/src/widgets/../core/lv_obj_style_gen.h ****     return v.color;
 257:Middlewares/lvgl/src/widgets/../core/lv_obj_style_gen.h **** }
 258:Middlewares/lvgl/src/widgets/../core/lv_obj_style_gen.h **** 
 259:Middlewares/lvgl/src/widgets/../core/lv_obj_style_gen.h **** static inline lv_color_t lv_obj_get_style_bg_img_recolor_filtered(const struct _lv_obj_t * obj, uin
 260:Middlewares/lvgl/src/widgets/../core/lv_obj_style_gen.h **** {
 261:Middlewares/lvgl/src/widgets/../core/lv_obj_style_gen.h ****     lv_style_value_t v = lv_obj_get_style_prop(obj, part, LV_STYLE_BG_IMG_RECOLOR_FILTERED);
 262:Middlewares/lvgl/src/widgets/../core/lv_obj_style_gen.h ****     return v.color;
 263:Middlewares/lvgl/src/widgets/../core/lv_obj_style_gen.h **** }
 264:Middlewares/lvgl/src/widgets/../core/lv_obj_style_gen.h **** 
 265:Middlewares/lvgl/src/widgets/../core/lv_obj_style_gen.h **** static inline lv_opa_t lv_obj_get_style_bg_img_recolor_opa(const struct _lv_obj_t * obj, uint32_t p
 266:Middlewares/lvgl/src/widgets/../core/lv_obj_style_gen.h **** {
 267:Middlewares/lvgl/src/widgets/../core/lv_obj_style_gen.h ****     lv_style_value_t v = lv_obj_get_style_prop(obj, part, LV_STYLE_BG_IMG_RECOLOR_OPA);
 268:Middlewares/lvgl/src/widgets/../core/lv_obj_style_gen.h ****     return (lv_opa_t)v.num;
 269:Middlewares/lvgl/src/widgets/../core/lv_obj_style_gen.h **** }
 270:Middlewares/lvgl/src/widgets/../core/lv_obj_style_gen.h **** 
 271:Middlewares/lvgl/src/widgets/../core/lv_obj_style_gen.h **** static inline bool lv_obj_get_style_bg_img_tiled(const struct _lv_obj_t * obj, uint32_t part)
 272:Middlewares/lvgl/src/widgets/../core/lv_obj_style_gen.h **** {
 273:Middlewares/lvgl/src/widgets/../core/lv_obj_style_gen.h ****     lv_style_value_t v = lv_obj_get_style_prop(obj, part, LV_STYLE_BG_IMG_TILED);
 274:Middlewares/lvgl/src/widgets/../core/lv_obj_style_gen.h ****     return (bool)v.num;
 275:Middlewares/lvgl/src/widgets/../core/lv_obj_style_gen.h **** }
 276:Middlewares/lvgl/src/widgets/../core/lv_obj_style_gen.h **** 
 277:Middlewares/lvgl/src/widgets/../core/lv_obj_style_gen.h **** static inline lv_color_t lv_obj_get_style_border_color(const struct _lv_obj_t * obj, uint32_t part)
 278:Middlewares/lvgl/src/widgets/../core/lv_obj_style_gen.h **** {
 279:Middlewares/lvgl/src/widgets/../core/lv_obj_style_gen.h ****     lv_style_value_t v = lv_obj_get_style_prop(obj, part, LV_STYLE_BORDER_COLOR);
 280:Middlewares/lvgl/src/widgets/../core/lv_obj_style_gen.h ****     return v.color;
 281:Middlewares/lvgl/src/widgets/../core/lv_obj_style_gen.h **** }
 282:Middlewares/lvgl/src/widgets/../core/lv_obj_style_gen.h **** 
 283:Middlewares/lvgl/src/widgets/../core/lv_obj_style_gen.h **** static inline lv_color_t lv_obj_get_style_border_color_filtered(const struct _lv_obj_t * obj, uint3
 284:Middlewares/lvgl/src/widgets/../core/lv_obj_style_gen.h **** {
 285:Middlewares/lvgl/src/widgets/../core/lv_obj_style_gen.h ****     lv_style_value_t v = lv_obj_get_style_prop(obj, part, LV_STYLE_BORDER_COLOR_FILTERED);
 286:Middlewares/lvgl/src/widgets/../core/lv_obj_style_gen.h ****     return v.color;
 287:Middlewares/lvgl/src/widgets/../core/lv_obj_style_gen.h **** }
 288:Middlewares/lvgl/src/widgets/../core/lv_obj_style_gen.h **** 
 289:Middlewares/lvgl/src/widgets/../core/lv_obj_style_gen.h **** static inline lv_opa_t lv_obj_get_style_border_opa(const struct _lv_obj_t * obj, uint32_t part)
 290:Middlewares/lvgl/src/widgets/../core/lv_obj_style_gen.h **** {
 291:Middlewares/lvgl/src/widgets/../core/lv_obj_style_gen.h ****     lv_style_value_t v = lv_obj_get_style_prop(obj, part, LV_STYLE_BORDER_OPA);
ARM GAS  /tmp/cctamPcj.s 			page 45


 292:Middlewares/lvgl/src/widgets/../core/lv_obj_style_gen.h ****     return (lv_opa_t)v.num;
 293:Middlewares/lvgl/src/widgets/../core/lv_obj_style_gen.h **** }
 294:Middlewares/lvgl/src/widgets/../core/lv_obj_style_gen.h **** 
 295:Middlewares/lvgl/src/widgets/../core/lv_obj_style_gen.h **** static inline lv_coord_t lv_obj_get_style_border_width(const struct _lv_obj_t * obj, uint32_t part)
 485              		.loc 3 295 26 view .LVU147
 486              	.LBB160:
 296:Middlewares/lvgl/src/widgets/../core/lv_obj_style_gen.h **** {
 297:Middlewares/lvgl/src/widgets/../core/lv_obj_style_gen.h ****     lv_style_value_t v = lv_obj_get_style_prop(obj, part, LV_STYLE_BORDER_WIDTH);
 487              		.loc 3 297 5 view .LVU148
 488              		.loc 3 297 26 is_stmt 0 view .LVU149
 489 006e 41F23202 		movw	r2, #4146
 490 0072 0021     		movs	r1, #0
 491 0074 2046     		mov	r0, r4
 492 0076 FFF7FEFF 		bl	lv_obj_get_style_prop
 493              	.LVL40:
 298:Middlewares/lvgl/src/widgets/../core/lv_obj_style_gen.h ****     return (lv_coord_t)v.num;
 494              		.loc 3 298 5 is_stmt 1 view .LVU150
 495              		.loc 3 298 5 is_stmt 0 view .LVU151
 496              	.LBE160:
 497              	.LBE159:
1288:Middlewares/lvgl/src/widgets/lv_textarea.c ****         lv_area_copy(&ph_coords, &obj->coords);
 498              		.loc 1 1288 9 is_stmt 1 view .LVU152
1289:Middlewares/lvgl/src/widgets/lv_textarea.c ****         lv_area_move(&ph_coords, left + border_width, top + border_width);
 499              		.loc 1 1289 9 view .LVU153
 500              	.LBB161:
 501              	.LBI161:
 120:Middlewares/lvgl/src/widgets/../core/../misc/../font/../misc/lv_area.h **** {
 502              		.loc 2 120 20 view .LVU154
 503              	.LBB162:
 122:Middlewares/lvgl/src/widgets/../core/../misc/../font/../misc/lv_area.h ****     dest->y1 = src->y1;
 504              		.loc 2 122 5 view .LVU155
 122:Middlewares/lvgl/src/widgets/../core/../misc/../font/../misc/lv_area.h ****     dest->y1 = src->y1;
 505              		.loc 2 122 19 is_stmt 0 view .LVU156
 506 007a B4F91430 		ldrsh	r3, [r4, #20]
 122:Middlewares/lvgl/src/widgets/../core/../misc/../font/../misc/lv_area.h ****     dest->y1 = src->y1;
 507              		.loc 2 122 14 view .LVU157
 508 007e ADF80830 		strh	r3, [sp, #8]	@ movhi
 123:Middlewares/lvgl/src/widgets/../core/../misc/../font/../misc/lv_area.h ****     dest->x2 = src->x2;
 509              		.loc 2 123 5 is_stmt 1 view .LVU158
 123:Middlewares/lvgl/src/widgets/../core/../misc/../font/../misc/lv_area.h ****     dest->x2 = src->x2;
 510              		.loc 2 123 19 is_stmt 0 view .LVU159
 511 0082 B4F91630 		ldrsh	r3, [r4, #22]
 123:Middlewares/lvgl/src/widgets/../core/../misc/../font/../misc/lv_area.h ****     dest->x2 = src->x2;
 512              		.loc 2 123 14 view .LVU160
 513 0086 ADF80A30 		strh	r3, [sp, #10]	@ movhi
 124:Middlewares/lvgl/src/widgets/../core/../misc/../font/../misc/lv_area.h ****     dest->y2 = src->y2;
 514              		.loc 2 124 5 is_stmt 1 view .LVU161
 124:Middlewares/lvgl/src/widgets/../core/../misc/../font/../misc/lv_area.h ****     dest->y2 = src->y2;
 515              		.loc 2 124 19 is_stmt 0 view .LVU162
 516 008a B4F91830 		ldrsh	r3, [r4, #24]
 124:Middlewares/lvgl/src/widgets/../core/../misc/../font/../misc/lv_area.h ****     dest->y2 = src->y2;
 517              		.loc 2 124 14 view .LVU163
 518 008e ADF80C30 		strh	r3, [sp, #12]	@ movhi
 519              		.loc 2 125 5 is_stmt 1 view .LVU164
 520              		.loc 2 125 19 is_stmt 0 view .LVU165
 521 0092 B4F91A30 		ldrsh	r3, [r4, #26]
 522              		.loc 2 125 14 view .LVU166
ARM GAS  /tmp/cctamPcj.s 			page 46


 523 0096 ADF80E30 		strh	r3, [sp, #14]	@ movhi
 524              	.LVL41:
 525              		.loc 2 125 14 view .LVU167
 526              	.LBE162:
 527              	.LBE161:
1290:Middlewares/lvgl/src/widgets/lv_textarea.c ****         lv_draw_label(&ph_coords, clip_area, &ph_dsc, ta->placeholder_txt, NULL);
 528              		.loc 1 1290 9 is_stmt 1 view .LVU168
1290:Middlewares/lvgl/src/widgets/lv_textarea.c ****         lv_draw_label(&ph_coords, clip_area, &ph_dsc, ta->placeholder_txt, NULL);
 529              		.loc 1 1290 39 is_stmt 0 view .LVU169
 530 009a 82B2     		uxth	r2, r0
 531 009c 9119     		adds	r1, r2, r6
1290:Middlewares/lvgl/src/widgets/lv_textarea.c ****         lv_draw_label(&ph_coords, clip_area, &ph_dsc, ta->placeholder_txt, NULL);
 532              		.loc 1 1290 59 view .LVU170
 533 009e 3A44     		add	r2, r2, r7
1290:Middlewares/lvgl/src/widgets/lv_textarea.c ****         lv_draw_label(&ph_coords, clip_area, &ph_dsc, ta->placeholder_txt, NULL);
 534              		.loc 1 1290 9 view .LVU171
 535 00a0 12B2     		sxth	r2, r2
 536 00a2 09B2     		sxth	r1, r1
 537 00a4 02A8     		add	r0, sp, #8
 538              	.LVL42:
1290:Middlewares/lvgl/src/widgets/lv_textarea.c ****         lv_draw_label(&ph_coords, clip_area, &ph_dsc, ta->placeholder_txt, NULL);
 539              		.loc 1 1290 9 view .LVU172
 540 00a6 FFF7FEFF 		bl	lv_area_move
 541              	.LVL43:
1291:Middlewares/lvgl/src/widgets/lv_textarea.c ****     }
 542              		.loc 1 1291 9 is_stmt 1 view .LVU173
1291:Middlewares/lvgl/src/widgets/lv_textarea.c ****     }
 543              		.loc 1 1291 57 is_stmt 0 view .LVU174
 544 00aa A36A     		ldr	r3, [r4, #40]
1291:Middlewares/lvgl/src/widgets/lv_textarea.c ****     }
 545              		.loc 1 1291 9 view .LVU175
 546 00ac 0022     		movs	r2, #0
 547 00ae 0092     		str	r2, [sp]
 548 00b0 04AA     		add	r2, sp, #16
 549 00b2 2946     		mov	r1, r5
 550 00b4 02A8     		add	r0, sp, #8
 551 00b6 FFF7FEFF 		bl	lv_draw_label
 552              	.LVL44:
 553              	.LBE154:
 554              		.loc 1 1293 1 view .LVU176
 555 00ba B4E7     		b	.L15
 556              		.cfi_endproc
 557              	.LFE193:
 559              		.section	.text.draw_cursor,"ax",%progbits
 560              		.align	1
 561              		.syntax unified
 562              		.thumb
 563              		.thumb_func
 565              	draw_cursor:
 566              	.LVL45:
 567              	.LFB194:
1294:Middlewares/lvgl/src/widgets/lv_textarea.c **** 
1295:Middlewares/lvgl/src/widgets/lv_textarea.c **** static void draw_cursor(lv_event_t * e)
1296:Middlewares/lvgl/src/widgets/lv_textarea.c **** {
 568              		.loc 1 1296 1 is_stmt 1 view -0
 569              		.cfi_startproc
 570              		@ args = 0, pretend = 0, frame = 104
ARM GAS  /tmp/cctamPcj.s 			page 47


 571              		@ frame_needed = 0, uses_anonymous_args = 0
 572              		.loc 1 1296 1 is_stmt 0 view .LVU178
 573 0000 F0B5     		push	{r4, r5, r6, r7, lr}
 574              	.LCFI11:
 575              		.cfi_def_cfa_offset 20
 576              		.cfi_offset 4, -20
 577              		.cfi_offset 5, -16
 578              		.cfi_offset 6, -12
 579              		.cfi_offset 7, -8
 580              		.cfi_offset 14, -4
 581 0002 9DB0     		sub	sp, sp, #116
 582              	.LCFI12:
 583              		.cfi_def_cfa_offset 136
 584 0004 0546     		mov	r5, r0
1297:Middlewares/lvgl/src/widgets/lv_textarea.c ****     lv_obj_t * obj = lv_event_get_target(e);
 585              		.loc 1 1297 5 is_stmt 1 view .LVU179
 586              		.loc 1 1297 22 is_stmt 0 view .LVU180
 587 0006 FFF7FEFF 		bl	lv_event_get_target
 588              	.LVL46:
 589              		.loc 1 1297 22 view .LVU181
 590 000a 0446     		mov	r4, r0
 591              	.LVL47:
1298:Middlewares/lvgl/src/widgets/lv_textarea.c ****     lv_textarea_t * ta = (lv_textarea_t *)obj;
 592              		.loc 1 1298 5 is_stmt 1 view .LVU182
1299:Middlewares/lvgl/src/widgets/lv_textarea.c ****     const lv_area_t * clip_area = lv_event_get_param(e);
 593              		.loc 1 1299 5 view .LVU183
 594              		.loc 1 1299 35 is_stmt 0 view .LVU184
 595 000c 2846     		mov	r0, r5
 596              	.LVL48:
 597              		.loc 1 1299 35 view .LVU185
 598 000e FFF7FEFF 		bl	lv_event_get_param
 599              	.LVL49:
 600 0012 0646     		mov	r6, r0
 601              	.LVL50:
1300:Middlewares/lvgl/src/widgets/lv_textarea.c ****     const char * txt = lv_label_get_text(ta->label);
 602              		.loc 1 1300 5 is_stmt 1 view .LVU186
 603              		.loc 1 1300 24 is_stmt 0 view .LVU187
 604 0014 606A     		ldr	r0, [r4, #36]
 605              	.LVL51:
 606              		.loc 1 1300 24 view .LVU188
 607 0016 FFF7FEFF 		bl	lv_label_get_text
 608              	.LVL52:
1301:Middlewares/lvgl/src/widgets/lv_textarea.c **** 
1302:Middlewares/lvgl/src/widgets/lv_textarea.c ****     if(ta->cursor.show == 0) return;
 609              		.loc 1 1302 5 is_stmt 1 view .LVU189
 610              		.loc 1 1302 24 is_stmt 0 view .LVU190
 611 001a 94F85030 		ldrb	r3, [r4, #80]	@ zero_extendqisi2
 612              		.loc 1 1302 7 view .LVU191
 613 001e 13F0010F 		tst	r3, #1
 614 0022 01D1     		bne	.L25
 615              	.LVL53:
 616              	.L20:
1303:Middlewares/lvgl/src/widgets/lv_textarea.c **** 
1304:Middlewares/lvgl/src/widgets/lv_textarea.c ****     lv_draw_rect_dsc_t cur_dsc;
1305:Middlewares/lvgl/src/widgets/lv_textarea.c ****     lv_draw_rect_dsc_init(&cur_dsc);
1306:Middlewares/lvgl/src/widgets/lv_textarea.c ****     lv_obj_init_draw_rect_dsc(obj, LV_PART_CURSOR, &cur_dsc);
1307:Middlewares/lvgl/src/widgets/lv_textarea.c **** 
ARM GAS  /tmp/cctamPcj.s 			page 48


1308:Middlewares/lvgl/src/widgets/lv_textarea.c ****     /*Draw he cursor according to the type*/
1309:Middlewares/lvgl/src/widgets/lv_textarea.c ****     lv_area_t cur_area;
1310:Middlewares/lvgl/src/widgets/lv_textarea.c ****     lv_area_copy(&cur_area, &ta->cursor.area);
1311:Middlewares/lvgl/src/widgets/lv_textarea.c **** 
1312:Middlewares/lvgl/src/widgets/lv_textarea.c ****     cur_area.x1 += ta->label->coords.x1;
1313:Middlewares/lvgl/src/widgets/lv_textarea.c ****     cur_area.y1 += ta->label->coords.y1;
1314:Middlewares/lvgl/src/widgets/lv_textarea.c ****     cur_area.x2 += ta->label->coords.x1;
1315:Middlewares/lvgl/src/widgets/lv_textarea.c ****     cur_area.y2 += ta->label->coords.y1;
1316:Middlewares/lvgl/src/widgets/lv_textarea.c **** 
1317:Middlewares/lvgl/src/widgets/lv_textarea.c ****     lv_draw_rect(&cur_area, clip_area, &cur_dsc);
1318:Middlewares/lvgl/src/widgets/lv_textarea.c **** 
1319:Middlewares/lvgl/src/widgets/lv_textarea.c ****     char letter_buf[8] = {0};
1320:Middlewares/lvgl/src/widgets/lv_textarea.c ****     lv_memcpy(letter_buf, &txt[ta->cursor.txt_byte_pos], _lv_txt_encoded_size(&txt[ta->cursor.txt_b
1321:Middlewares/lvgl/src/widgets/lv_textarea.c **** 
1322:Middlewares/lvgl/src/widgets/lv_textarea.c ****     if(cur_dsc.bg_opa == LV_OPA_COVER) {
1323:Middlewares/lvgl/src/widgets/lv_textarea.c ****         lv_coord_t left = lv_obj_get_style_pad_left(obj, LV_PART_CURSOR);
1324:Middlewares/lvgl/src/widgets/lv_textarea.c ****         lv_coord_t top = lv_obj_get_style_pad_top(obj, LV_PART_CURSOR);
1325:Middlewares/lvgl/src/widgets/lv_textarea.c ****         lv_coord_t border_width = lv_obj_get_style_border_width(obj, LV_PART_CURSOR);
1326:Middlewares/lvgl/src/widgets/lv_textarea.c ****         cur_area.x1 += left + border_width;
1327:Middlewares/lvgl/src/widgets/lv_textarea.c ****         cur_area.y1 += top + border_width;
1328:Middlewares/lvgl/src/widgets/lv_textarea.c **** 
1329:Middlewares/lvgl/src/widgets/lv_textarea.c ****         lv_draw_label_dsc_t cur_label_dsc;
1330:Middlewares/lvgl/src/widgets/lv_textarea.c ****         lv_draw_label_dsc_init(&cur_label_dsc);
1331:Middlewares/lvgl/src/widgets/lv_textarea.c ****         lv_obj_init_draw_label_dsc(obj, LV_PART_CURSOR, &cur_label_dsc);
1332:Middlewares/lvgl/src/widgets/lv_textarea.c ****         lv_draw_label(&cur_area, clip_area, &cur_label_dsc, letter_buf, NULL);
1333:Middlewares/lvgl/src/widgets/lv_textarea.c ****     }
1334:Middlewares/lvgl/src/widgets/lv_textarea.c **** }
 617              		.loc 1 1334 1 view .LVU192
 618 0024 1DB0     		add	sp, sp, #116
 619              	.LCFI13:
 620              		.cfi_remember_state
 621              		.cfi_def_cfa_offset 20
 622              		@ sp needed
 623 0026 F0BD     		pop	{r4, r5, r6, r7, pc}
 624              	.LVL54:
 625              	.L25:
 626              	.LCFI14:
 627              		.cfi_restore_state
 628              		.loc 1 1334 1 view .LVU193
 629 0028 0546     		mov	r5, r0
 630              	.LVL55:
1304:Middlewares/lvgl/src/widgets/lv_textarea.c ****     lv_draw_rect_dsc_init(&cur_dsc);
 631              		.loc 1 1304 5 is_stmt 1 view .LVU194
1305:Middlewares/lvgl/src/widgets/lv_textarea.c ****     lv_obj_init_draw_rect_dsc(obj, LV_PART_CURSOR, &cur_dsc);
 632              		.loc 1 1305 5 view .LVU195
 633 002a 0FA8     		add	r0, sp, #60
 634              	.LVL56:
1305:Middlewares/lvgl/src/widgets/lv_textarea.c ****     lv_obj_init_draw_rect_dsc(obj, LV_PART_CURSOR, &cur_dsc);
 635              		.loc 1 1305 5 is_stmt 0 view .LVU196
 636 002c FFF7FEFF 		bl	lv_draw_rect_dsc_init
 637              	.LVL57:
1306:Middlewares/lvgl/src/widgets/lv_textarea.c **** 
 638              		.loc 1 1306 5 is_stmt 1 view .LVU197
 639 0030 0FAA     		add	r2, sp, #60
 640 0032 4FF4E021 		mov	r1, #458752
 641 0036 2046     		mov	r0, r4
 642 0038 FFF7FEFF 		bl	lv_obj_init_draw_rect_dsc
ARM GAS  /tmp/cctamPcj.s 			page 49


 643              	.LVL58:
1309:Middlewares/lvgl/src/widgets/lv_textarea.c ****     lv_area_copy(&cur_area, &ta->cursor.area);
 644              		.loc 1 1309 5 view .LVU198
1310:Middlewares/lvgl/src/widgets/lv_textarea.c **** 
 645              		.loc 1 1310 5 view .LVU199
 646              	.LBB163:
 647              	.LBI163:
 120:Middlewares/lvgl/src/widgets/../core/../misc/../font/../misc/lv_area.h **** {
 648              		.loc 2 120 20 view .LVU200
 649              	.LBB164:
 122:Middlewares/lvgl/src/widgets/../core/../misc/../font/../misc/lv_area.h ****     dest->y1 = src->y1;
 650              		.loc 2 122 5 view .LVU201
 122:Middlewares/lvgl/src/widgets/../core/../misc/../font/../misc/lv_area.h ****     dest->y1 = src->y1;
 651              		.loc 2 122 19 is_stmt 0 view .LVU202
 652 003c B4F94400 		ldrsh	r0, [r4, #68]
 122:Middlewares/lvgl/src/widgets/../core/../misc/../font/../misc/lv_area.h ****     dest->y1 = src->y1;
 653              		.loc 2 122 14 view .LVU203
 654 0040 ADF83400 		strh	r0, [sp, #52]	@ movhi
 123:Middlewares/lvgl/src/widgets/../core/../misc/../font/../misc/lv_area.h ****     dest->x2 = src->x2;
 655              		.loc 2 123 5 is_stmt 1 view .LVU204
 123:Middlewares/lvgl/src/widgets/../core/../misc/../font/../misc/lv_area.h ****     dest->x2 = src->x2;
 656              		.loc 2 123 19 is_stmt 0 view .LVU205
 657 0044 B4F94610 		ldrsh	r1, [r4, #70]
 123:Middlewares/lvgl/src/widgets/../core/../misc/../font/../misc/lv_area.h ****     dest->x2 = src->x2;
 658              		.loc 2 123 14 view .LVU206
 659 0048 ADF83610 		strh	r1, [sp, #54]	@ movhi
 124:Middlewares/lvgl/src/widgets/../core/../misc/../font/../misc/lv_area.h ****     dest->y2 = src->y2;
 660              		.loc 2 124 5 is_stmt 1 view .LVU207
 124:Middlewares/lvgl/src/widgets/../core/../misc/../font/../misc/lv_area.h ****     dest->y2 = src->y2;
 661              		.loc 2 124 19 is_stmt 0 view .LVU208
 662 004c B4F948E0 		ldrsh	lr, [r4, #72]
 124:Middlewares/lvgl/src/widgets/../core/../misc/../font/../misc/lv_area.h ****     dest->y2 = src->y2;
 663              		.loc 2 124 14 view .LVU209
 664 0050 ADF838E0 		strh	lr, [sp, #56]	@ movhi
 665              		.loc 2 125 5 is_stmt 1 view .LVU210
 666              		.loc 2 125 19 is_stmt 0 view .LVU211
 667 0054 B4F94AC0 		ldrsh	ip, [r4, #74]
 668              		.loc 2 125 14 view .LVU212
 669 0058 ADF83AC0 		strh	ip, [sp, #58]	@ movhi
 670              	.LVL59:
 671              		.loc 2 125 14 view .LVU213
 672              	.LBE164:
 673              	.LBE163:
1312:Middlewares/lvgl/src/widgets/lv_textarea.c ****     cur_area.y1 += ta->label->coords.y1;
 674              		.loc 1 1312 5 is_stmt 1 view .LVU214
1312:Middlewares/lvgl/src/widgets/lv_textarea.c ****     cur_area.y1 += ta->label->coords.y1;
 675              		.loc 1 1312 22 is_stmt 0 view .LVU215
 676 005c 636A     		ldr	r3, [r4, #36]
1312:Middlewares/lvgl/src/widgets/lv_textarea.c ****     cur_area.y1 += ta->label->coords.y1;
 677              		.loc 1 1312 37 view .LVU216
 678 005e 9A8A     		ldrh	r2, [r3, #20]
1312:Middlewares/lvgl/src/widgets/lv_textarea.c ****     cur_area.y1 += ta->label->coords.y1;
 679              		.loc 1 1312 17 view .LVU217
 680 0060 1044     		add	r0, r0, r2
 681 0062 ADF83400 		strh	r0, [sp, #52]	@ movhi
1313:Middlewares/lvgl/src/widgets/lv_textarea.c ****     cur_area.x2 += ta->label->coords.x1;
 682              		.loc 1 1313 5 is_stmt 1 view .LVU218
ARM GAS  /tmp/cctamPcj.s 			page 50


1313:Middlewares/lvgl/src/widgets/lv_textarea.c ****     cur_area.x2 += ta->label->coords.x1;
 683              		.loc 1 1313 37 is_stmt 0 view .LVU219
 684 0066 DB8A     		ldrh	r3, [r3, #22]
1313:Middlewares/lvgl/src/widgets/lv_textarea.c ****     cur_area.x2 += ta->label->coords.x1;
 685              		.loc 1 1313 17 view .LVU220
 686 0068 1944     		add	r1, r1, r3
 687 006a ADF83610 		strh	r1, [sp, #54]	@ movhi
1314:Middlewares/lvgl/src/widgets/lv_textarea.c ****     cur_area.y2 += ta->label->coords.y1;
 688              		.loc 1 1314 5 is_stmt 1 view .LVU221
1314:Middlewares/lvgl/src/widgets/lv_textarea.c ****     cur_area.y2 += ta->label->coords.y1;
 689              		.loc 1 1314 17 is_stmt 0 view .LVU222
 690 006e 7244     		add	r2, r2, lr
 691 0070 ADF83820 		strh	r2, [sp, #56]	@ movhi
1315:Middlewares/lvgl/src/widgets/lv_textarea.c **** 
 692              		.loc 1 1315 5 is_stmt 1 view .LVU223
1315:Middlewares/lvgl/src/widgets/lv_textarea.c **** 
 693              		.loc 1 1315 17 is_stmt 0 view .LVU224
 694 0074 6344     		add	r3, r3, ip
 695 0076 ADF83A30 		strh	r3, [sp, #58]	@ movhi
1317:Middlewares/lvgl/src/widgets/lv_textarea.c **** 
 696              		.loc 1 1317 5 is_stmt 1 view .LVU225
 697 007a 0FAA     		add	r2, sp, #60
 698 007c 3146     		mov	r1, r6
 699 007e 0DA8     		add	r0, sp, #52
 700 0080 FFF7FEFF 		bl	lv_draw_rect
 701              	.LVL60:
1319:Middlewares/lvgl/src/widgets/lv_textarea.c ****     lv_memcpy(letter_buf, &txt[ta->cursor.txt_byte_pos], _lv_txt_encoded_size(&txt[ta->cursor.txt_b
 702              		.loc 1 1319 5 view .LVU226
1319:Middlewares/lvgl/src/widgets/lv_textarea.c ****     lv_memcpy(letter_buf, &txt[ta->cursor.txt_byte_pos], _lv_txt_encoded_size(&txt[ta->cursor.txt_b
 703              		.loc 1 1319 10 is_stmt 0 view .LVU227
 704 0084 0023     		movs	r3, #0
 705 0086 0B93     		str	r3, [sp, #44]
 706 0088 0C93     		str	r3, [sp, #48]
1320:Middlewares/lvgl/src/widgets/lv_textarea.c **** 
 707              		.loc 1 1320 5 is_stmt 1 view .LVU228
1320:Middlewares/lvgl/src/widgets/lv_textarea.c **** 
 708              		.loc 1 1320 42 is_stmt 0 view .LVU229
 709 008a E06C     		ldr	r0, [r4, #76]
1320:Middlewares/lvgl/src/widgets/lv_textarea.c **** 
 710              		.loc 1 1320 27 view .LVU230
 711 008c 0544     		add	r5, r5, r0
 712              	.LVL61:
1320:Middlewares/lvgl/src/widgets/lv_textarea.c **** 
 713              		.loc 1 1320 58 view .LVU231
 714 008e 224B     		ldr	r3, .L26
 715 0090 1B68     		ldr	r3, [r3]
 716 0092 2846     		mov	r0, r5
 717 0094 9847     		blx	r3
 718              	.LVL62:
 719 0096 0246     		mov	r2, r0
1320:Middlewares/lvgl/src/widgets/lv_textarea.c **** 
 720              		.loc 1 1320 5 view .LVU232
 721 0098 2946     		mov	r1, r5
 722 009a 0BA8     		add	r0, sp, #44
 723 009c FFF7FEFF 		bl	lv_memcpy
 724              	.LVL63:
1322:Middlewares/lvgl/src/widgets/lv_textarea.c ****         lv_coord_t left = lv_obj_get_style_pad_left(obj, LV_PART_CURSOR);
ARM GAS  /tmp/cctamPcj.s 			page 51


 725              		.loc 1 1322 5 is_stmt 1 view .LVU233
1322:Middlewares/lvgl/src/widgets/lv_textarea.c ****         lv_coord_t left = lv_obj_get_style_pad_left(obj, LV_PART_CURSOR);
 726              		.loc 1 1322 15 is_stmt 0 view .LVU234
 727 00a0 9DF84630 		ldrb	r3, [sp, #70]	@ zero_extendqisi2
1322:Middlewares/lvgl/src/widgets/lv_textarea.c ****         lv_coord_t left = lv_obj_get_style_pad_left(obj, LV_PART_CURSOR);
 728              		.loc 1 1322 7 view .LVU235
 729 00a4 FF2B     		cmp	r3, #255
 730 00a6 BDD1     		bne	.L20
 731              	.LBB165:
1323:Middlewares/lvgl/src/widgets/lv_textarea.c ****         lv_coord_t top = lv_obj_get_style_pad_top(obj, LV_PART_CURSOR);
 732              		.loc 1 1323 9 is_stmt 1 view .LVU236
 733              	.LVL64:
 734              	.LBB166:
 735              	.LBI166:
 103:Middlewares/lvgl/src/widgets/../core/lv_obj_style_gen.h **** {
 736              		.loc 3 103 26 view .LVU237
 737              	.LBB167:
 105:Middlewares/lvgl/src/widgets/../core/lv_obj_style_gen.h ****     return (lv_coord_t)v.num;
 738              		.loc 3 105 5 view .LVU238
 105:Middlewares/lvgl/src/widgets/../core/lv_obj_style_gen.h ****     return (lv_coord_t)v.num;
 739              		.loc 3 105 26 is_stmt 0 view .LVU239
 740 00a8 41F21202 		movw	r2, #4114
 741 00ac 4FF4E021 		mov	r1, #458752
 742 00b0 2046     		mov	r0, r4
 743 00b2 FFF7FEFF 		bl	lv_obj_get_style_prop
 744              	.LVL65:
 745 00b6 0546     		mov	r5, r0
 746              	.LVL66:
 106:Middlewares/lvgl/src/widgets/../core/lv_obj_style_gen.h **** }
 747              		.loc 3 106 5 is_stmt 1 view .LVU240
 106:Middlewares/lvgl/src/widgets/../core/lv_obj_style_gen.h **** }
 748              		.loc 3 106 5 is_stmt 0 view .LVU241
 749              	.LBE167:
 750              	.LBE166:
1324:Middlewares/lvgl/src/widgets/lv_textarea.c ****         lv_coord_t border_width = lv_obj_get_style_border_width(obj, LV_PART_CURSOR);
 751              		.loc 1 1324 9 is_stmt 1 view .LVU242
 752              	.LBB168:
 753              	.LBI168:
  91:Middlewares/lvgl/src/widgets/../core/lv_obj_style_gen.h **** {
 754              		.loc 3 91 26 view .LVU243
 755              	.LBB169:
  93:Middlewares/lvgl/src/widgets/../core/lv_obj_style_gen.h ****     return (lv_coord_t)v.num;
 756              		.loc 3 93 5 view .LVU244
  93:Middlewares/lvgl/src/widgets/../core/lv_obj_style_gen.h ****     return (lv_coord_t)v.num;
 757              		.loc 3 93 26 is_stmt 0 view .LVU245
 758 00b8 41F21002 		movw	r2, #4112
 759 00bc 4FF4E021 		mov	r1, #458752
 760 00c0 2046     		mov	r0, r4
 761 00c2 FFF7FEFF 		bl	lv_obj_get_style_prop
 762              	.LVL67:
 763 00c6 0746     		mov	r7, r0
  94:Middlewares/lvgl/src/widgets/../core/lv_obj_style_gen.h **** }
 764              		.loc 3 94 5 is_stmt 1 view .LVU246
 765              	.LVL68:
  94:Middlewares/lvgl/src/widgets/../core/lv_obj_style_gen.h **** }
 766              		.loc 3 94 5 is_stmt 0 view .LVU247
 767              	.LBE169:
ARM GAS  /tmp/cctamPcj.s 			page 52


 768              	.LBE168:
1325:Middlewares/lvgl/src/widgets/lv_textarea.c ****         cur_area.x1 += left + border_width;
 769              		.loc 1 1325 9 is_stmt 1 view .LVU248
 770              	.LBB170:
 771              	.LBI170:
 295:Middlewares/lvgl/src/widgets/../core/lv_obj_style_gen.h **** {
 772              		.loc 3 295 26 view .LVU249
 773              	.LBB171:
 297:Middlewares/lvgl/src/widgets/../core/lv_obj_style_gen.h ****     return (lv_coord_t)v.num;
 774              		.loc 3 297 5 view .LVU250
 297:Middlewares/lvgl/src/widgets/../core/lv_obj_style_gen.h ****     return (lv_coord_t)v.num;
 775              		.loc 3 297 26 is_stmt 0 view .LVU251
 776 00c8 41F23202 		movw	r2, #4146
 777 00cc 4FF4E021 		mov	r1, #458752
 778 00d0 2046     		mov	r0, r4
 779 00d2 FFF7FEFF 		bl	lv_obj_get_style_prop
 780              	.LVL69:
 781              		.loc 3 298 5 is_stmt 1 view .LVU252
 782              		.loc 3 298 5 is_stmt 0 view .LVU253
 783              	.LBE171:
 784              	.LBE170:
1326:Middlewares/lvgl/src/widgets/lv_textarea.c ****         cur_area.y1 += top + border_width;
 785              		.loc 1 1326 9 is_stmt 1 view .LVU254
1326:Middlewares/lvgl/src/widgets/lv_textarea.c ****         cur_area.y1 += top + border_width;
 786              		.loc 1 1326 29 is_stmt 0 view .LVU255
 787 00d6 83B2     		uxth	r3, r0
 788 00d8 1D44     		add	r5, r5, r3
 789              	.LVL70:
1326:Middlewares/lvgl/src/widgets/lv_textarea.c ****         cur_area.y1 += top + border_width;
 790              		.loc 1 1326 21 view .LVU256
 791 00da BDF83420 		ldrh	r2, [sp, #52]
 792 00de 12FA85F5 		uxtah	r5, r2, r5
 793 00e2 ADF83450 		strh	r5, [sp, #52]	@ movhi
1327:Middlewares/lvgl/src/widgets/lv_textarea.c **** 
 794              		.loc 1 1327 9 is_stmt 1 view .LVU257
1327:Middlewares/lvgl/src/widgets/lv_textarea.c **** 
 795              		.loc 1 1327 28 is_stmt 0 view .LVU258
 796 00e6 3B44     		add	r3, r3, r7
1327:Middlewares/lvgl/src/widgets/lv_textarea.c **** 
 797              		.loc 1 1327 21 view .LVU259
 798 00e8 BDF83620 		ldrh	r2, [sp, #54]
 799 00ec 12FA83F3 		uxtah	r3, r2, r3
 800 00f0 ADF83630 		strh	r3, [sp, #54]	@ movhi
1329:Middlewares/lvgl/src/widgets/lv_textarea.c ****         lv_draw_label_dsc_init(&cur_label_dsc);
 801              		.loc 1 1329 9 is_stmt 1 view .LVU260
1330:Middlewares/lvgl/src/widgets/lv_textarea.c ****         lv_obj_init_draw_label_dsc(obj, LV_PART_CURSOR, &cur_label_dsc);
 802              		.loc 1 1330 9 view .LVU261
 803 00f4 03A8     		add	r0, sp, #12
 804              	.LVL71:
1330:Middlewares/lvgl/src/widgets/lv_textarea.c ****         lv_obj_init_draw_label_dsc(obj, LV_PART_CURSOR, &cur_label_dsc);
 805              		.loc 1 1330 9 is_stmt 0 view .LVU262
 806 00f6 FFF7FEFF 		bl	lv_draw_label_dsc_init
 807              	.LVL72:
1331:Middlewares/lvgl/src/widgets/lv_textarea.c ****         lv_draw_label(&cur_area, clip_area, &cur_label_dsc, letter_buf, NULL);
 808              		.loc 1 1331 9 is_stmt 1 view .LVU263
 809 00fa 03AA     		add	r2, sp, #12
 810 00fc 4FF4E021 		mov	r1, #458752
ARM GAS  /tmp/cctamPcj.s 			page 53


 811 0100 2046     		mov	r0, r4
 812 0102 FFF7FEFF 		bl	lv_obj_init_draw_label_dsc
 813              	.LVL73:
1332:Middlewares/lvgl/src/widgets/lv_textarea.c ****     }
 814              		.loc 1 1332 9 view .LVU264
 815 0106 0023     		movs	r3, #0
 816 0108 0093     		str	r3, [sp]
 817 010a 0BAB     		add	r3, sp, #44
 818 010c 03AA     		add	r2, sp, #12
 819 010e 3146     		mov	r1, r6
 820 0110 0DA8     		add	r0, sp, #52
 821 0112 FFF7FEFF 		bl	lv_draw_label
 822              	.LVL74:
 823 0116 85E7     		b	.L20
 824              	.L27:
 825              		.align	2
 826              	.L26:
 827 0118 00000000 		.word	_lv_txt_encoded_size
 828              	.LBE165:
 829              		.cfi_endproc
 830              	.LFE194:
 832              		.section	.text.lv_textarea_destructor,"ax",%progbits
 833              		.align	1
 834              		.syntax unified
 835              		.thumb
 836              		.thumb_func
 838              	lv_textarea_destructor:
 839              	.LVL75:
 840              	.LFB182:
 833:Middlewares/lvgl/src/widgets/lv_textarea.c ****     LV_UNUSED(class_p);
 841              		.loc 1 833 1 view -0
 842              		.cfi_startproc
 843              		@ args = 0, pretend = 0, frame = 0
 844              		@ frame_needed = 0, uses_anonymous_args = 0
 833:Middlewares/lvgl/src/widgets/lv_textarea.c ****     LV_UNUSED(class_p);
 845              		.loc 1 833 1 is_stmt 0 view .LVU266
 846 0000 10B5     		push	{r4, lr}
 847              	.LCFI15:
 848              		.cfi_def_cfa_offset 8
 849              		.cfi_offset 4, -8
 850              		.cfi_offset 14, -4
 851 0002 0C46     		mov	r4, r1
 834:Middlewares/lvgl/src/widgets/lv_textarea.c **** 
 852              		.loc 1 834 5 is_stmt 1 view .LVU267
 836:Middlewares/lvgl/src/widgets/lv_textarea.c ****     if(ta->pwd_tmp != NULL) {
 853              		.loc 1 836 5 view .LVU268
 854              	.LVL76:
 837:Middlewares/lvgl/src/widgets/lv_textarea.c ****         lv_mem_free(ta->pwd_tmp);
 855              		.loc 1 837 5 view .LVU269
 837:Middlewares/lvgl/src/widgets/lv_textarea.c ****         lv_mem_free(ta->pwd_tmp);
 856              		.loc 1 837 10 is_stmt 0 view .LVU270
 857 0004 C86A     		ldr	r0, [r1, #44]
 858              	.LVL77:
 837:Middlewares/lvgl/src/widgets/lv_textarea.c ****         lv_mem_free(ta->pwd_tmp);
 859              		.loc 1 837 7 view .LVU271
 860 0006 18B1     		cbz	r0, .L29
 838:Middlewares/lvgl/src/widgets/lv_textarea.c ****         ta->pwd_tmp = NULL;
ARM GAS  /tmp/cctamPcj.s 			page 54


 861              		.loc 1 838 9 is_stmt 1 view .LVU272
 862 0008 FFF7FEFF 		bl	lv_mem_free
 863              	.LVL78:
 839:Middlewares/lvgl/src/widgets/lv_textarea.c ****     }
 864              		.loc 1 839 9 view .LVU273
 839:Middlewares/lvgl/src/widgets/lv_textarea.c ****     }
 865              		.loc 1 839 21 is_stmt 0 view .LVU274
 866 000c 0023     		movs	r3, #0
 867 000e E362     		str	r3, [r4, #44]
 868              	.L29:
 841:Middlewares/lvgl/src/widgets/lv_textarea.c ****         lv_mem_free(ta->placeholder_txt);
 869              		.loc 1 841 5 is_stmt 1 view .LVU275
 841:Middlewares/lvgl/src/widgets/lv_textarea.c ****         lv_mem_free(ta->placeholder_txt);
 870              		.loc 1 841 10 is_stmt 0 view .LVU276
 871 0010 A06A     		ldr	r0, [r4, #40]
 841:Middlewares/lvgl/src/widgets/lv_textarea.c ****         lv_mem_free(ta->placeholder_txt);
 872              		.loc 1 841 7 view .LVU277
 873 0012 18B1     		cbz	r0, .L28
 842:Middlewares/lvgl/src/widgets/lv_textarea.c ****         ta->placeholder_txt = NULL;
 874              		.loc 1 842 9 is_stmt 1 view .LVU278
 875 0014 FFF7FEFF 		bl	lv_mem_free
 876              	.LVL79:
 843:Middlewares/lvgl/src/widgets/lv_textarea.c ****     }
 877              		.loc 1 843 9 view .LVU279
 843:Middlewares/lvgl/src/widgets/lv_textarea.c ****     }
 878              		.loc 1 843 29 is_stmt 0 view .LVU280
 879 0018 0023     		movs	r3, #0
 880 001a A362     		str	r3, [r4, #40]
 881              	.L28:
 845:Middlewares/lvgl/src/widgets/lv_textarea.c **** 
 882              		.loc 1 845 1 view .LVU281
 883 001c 10BD     		pop	{r4, pc}
 845:Middlewares/lvgl/src/widgets/lv_textarea.c **** 
 884              		.loc 1 845 1 view .LVU282
 885              		.cfi_endproc
 886              	.LFE182:
 888              		.section	.text.lv_textarea_create,"ax",%progbits
 889              		.align	1
 890              		.global	lv_textarea_create
 891              		.syntax unified
 892              		.thumb
 893              		.thumb_func
 895              	lv_textarea_create:
 896              	.LVL80:
 897              	.LFB147:
  85:Middlewares/lvgl/src/widgets/lv_textarea.c ****     LV_LOG_INFO("begin")
 898              		.loc 1 85 1 is_stmt 1 view -0
 899              		.cfi_startproc
 900              		@ args = 0, pretend = 0, frame = 0
 901              		@ frame_needed = 0, uses_anonymous_args = 0
  85:Middlewares/lvgl/src/widgets/lv_textarea.c ****     LV_LOG_INFO("begin")
 902              		.loc 1 85 1 is_stmt 0 view .LVU284
 903 0000 10B5     		push	{r4, lr}
 904              	.LCFI16:
 905              		.cfi_def_cfa_offset 8
 906              		.cfi_offset 4, -8
 907              		.cfi_offset 14, -4
ARM GAS  /tmp/cctamPcj.s 			page 55


 908 0002 0146     		mov	r1, r0
  87:Middlewares/lvgl/src/widgets/lv_textarea.c ****     lv_obj_class_init_obj(obj);
 909              		.loc 1 87 5 is_stmt 1 view .LVU285
  87:Middlewares/lvgl/src/widgets/lv_textarea.c ****     lv_obj_class_init_obj(obj);
 910              		.loc 1 87 22 is_stmt 0 view .LVU286
 911 0004 0348     		ldr	r0, .L34
 912              	.LVL81:
  87:Middlewares/lvgl/src/widgets/lv_textarea.c ****     lv_obj_class_init_obj(obj);
 913              		.loc 1 87 22 view .LVU287
 914 0006 FFF7FEFF 		bl	lv_obj_class_create_obj
 915              	.LVL82:
  87:Middlewares/lvgl/src/widgets/lv_textarea.c ****     lv_obj_class_init_obj(obj);
 916              		.loc 1 87 22 view .LVU288
 917 000a 0446     		mov	r4, r0
 918              	.LVL83:
  88:Middlewares/lvgl/src/widgets/lv_textarea.c ****     return obj;
 919              		.loc 1 88 5 is_stmt 1 view .LVU289
 920 000c FFF7FEFF 		bl	lv_obj_class_init_obj
 921              	.LVL84:
  89:Middlewares/lvgl/src/widgets/lv_textarea.c **** }
 922              		.loc 1 89 5 view .LVU290
  90:Middlewares/lvgl/src/widgets/lv_textarea.c **** 
 923              		.loc 1 90 1 is_stmt 0 view .LVU291
 924 0010 2046     		mov	r0, r4
 925 0012 10BD     		pop	{r4, pc}
 926              	.LVL85:
 927              	.L35:
  90:Middlewares/lvgl/src/widgets/lv_textarea.c **** 
 928              		.loc 1 90 1 view .LVU292
 929              		.align	2
 930              	.L34:
 931 0014 00000000 		.word	.LANCHOR0
 932              		.cfi_endproc
 933              	.LFE147:
 935              		.section	.text.lv_textarea_set_placeholder_text,"ax",%progbits
 936              		.align	1
 937              		.global	lv_textarea_set_placeholder_text
 938              		.syntax unified
 939              		.thumb
 940              		.thumb_func
 942              	lv_textarea_set_placeholder_text:
 943              	.LVL86:
 944              	.LFB153:
 350:Middlewares/lvgl/src/widgets/lv_textarea.c ****     LV_ASSERT_OBJ(obj, MY_CLASS);
 945              		.loc 1 350 1 is_stmt 1 view -0
 946              		.cfi_startproc
 947              		@ args = 0, pretend = 0, frame = 0
 948              		@ frame_needed = 0, uses_anonymous_args = 0
 351:Middlewares/lvgl/src/widgets/lv_textarea.c ****     LV_ASSERT_NULL(txt);
 949              		.loc 1 351 5 view .LVU294
 351:Middlewares/lvgl/src/widgets/lv_textarea.c ****     LV_ASSERT_NULL(txt);
 950              		.loc 1 351 5 view .LVU295
 351:Middlewares/lvgl/src/widgets/lv_textarea.c ****     LV_ASSERT_NULL(txt);
 951              		.loc 1 351 5 view .LVU296
 352:Middlewares/lvgl/src/widgets/lv_textarea.c **** 
 952              		.loc 1 352 5 view .LVU297
 352:Middlewares/lvgl/src/widgets/lv_textarea.c **** 
ARM GAS  /tmp/cctamPcj.s 			page 56


 953              		.loc 1 352 5 view .LVU298
 954 0000 89B1     		cbz	r1, .L38
 350:Middlewares/lvgl/src/widgets/lv_textarea.c ****     LV_ASSERT_OBJ(obj, MY_CLASS);
 955              		.loc 1 350 1 is_stmt 0 discriminator 2 view .LVU299
 956 0002 38B5     		push	{r3, r4, r5, lr}
 957              	.LCFI17:
 958              		.cfi_def_cfa_offset 16
 959              		.cfi_offset 3, -16
 960              		.cfi_offset 4, -12
 961              		.cfi_offset 5, -8
 962              		.cfi_offset 14, -4
 963 0004 0446     		mov	r4, r0
 964 0006 0D46     		mov	r5, r1
 352:Middlewares/lvgl/src/widgets/lv_textarea.c **** 
 965              		.loc 1 352 5 is_stmt 1 discriminator 2 view .LVU300
 352:Middlewares/lvgl/src/widgets/lv_textarea.c **** 
 966              		.loc 1 352 24 discriminator 2 view .LVU301
 354:Middlewares/lvgl/src/widgets/lv_textarea.c **** 
 967              		.loc 1 354 6 discriminator 2 view .LVU302
 968              	.LVL87:
 356:Middlewares/lvgl/src/widgets/lv_textarea.c **** 
 969              		.loc 1 356 5 discriminator 2 view .LVU303
 356:Middlewares/lvgl/src/widgets/lv_textarea.c **** 
 970              		.loc 1 356 22 is_stmt 0 discriminator 2 view .LVU304
 971 0008 0846     		mov	r0, r1
 972              	.LVL88:
 356:Middlewares/lvgl/src/widgets/lv_textarea.c **** 
 973              		.loc 1 356 22 discriminator 2 view .LVU305
 974 000a FFF7FEFF 		bl	strlen
 975              	.LVL89:
 358:Middlewares/lvgl/src/widgets/lv_textarea.c ****         if(ta->placeholder_txt) {
 976              		.loc 1 358 5 is_stmt 1 discriminator 2 view .LVU306
 358:Middlewares/lvgl/src/widgets/lv_textarea.c ****         if(ta->placeholder_txt) {
 977              		.loc 1 358 7 is_stmt 0 discriminator 2 view .LVU307
 978 000e 0146     		mov	r1, r0
 979 0010 50B9     		cbnz	r0, .L39
 359:Middlewares/lvgl/src/widgets/lv_textarea.c ****             lv_mem_free(ta->placeholder_txt);
 980              		.loc 1 359 9 is_stmt 1 view .LVU308
 359:Middlewares/lvgl/src/widgets/lv_textarea.c ****             lv_mem_free(ta->placeholder_txt);
 981              		.loc 1 359 14 is_stmt 0 view .LVU309
 982 0012 A06A     		ldr	r0, [r4, #40]
 983              	.LVL90:
 359:Middlewares/lvgl/src/widgets/lv_textarea.c ****             lv_mem_free(ta->placeholder_txt);
 984              		.loc 1 359 11 view .LVU310
 985 0014 18B1     		cbz	r0, .L40
 360:Middlewares/lvgl/src/widgets/lv_textarea.c ****             ta->placeholder_txt = NULL;
 986              		.loc 1 360 13 is_stmt 1 view .LVU311
 987 0016 FFF7FEFF 		bl	lv_mem_free
 988              	.LVL91:
 361:Middlewares/lvgl/src/widgets/lv_textarea.c ****         }
 989              		.loc 1 361 13 view .LVU312
 361:Middlewares/lvgl/src/widgets/lv_textarea.c ****         }
 990              		.loc 1 361 33 is_stmt 0 view .LVU313
 991 001a 0023     		movs	r3, #0
 992 001c A362     		str	r3, [r4, #40]
 993              	.L40:
 382:Middlewares/lvgl/src/widgets/lv_textarea.c **** }
ARM GAS  /tmp/cctamPcj.s 			page 57


 994              		.loc 1 382 5 is_stmt 1 view .LVU314
 995 001e 2046     		mov	r0, r4
 996 0020 FFF7FEFF 		bl	lv_obj_invalidate
 997              	.LVL92:
 383:Middlewares/lvgl/src/widgets/lv_textarea.c **** 
 998              		.loc 1 383 1 is_stmt 0 view .LVU315
 999 0024 38BD     		pop	{r3, r4, r5, pc}
 1000              	.LVL93:
 1001              	.L38:
 1002              	.LCFI18:
 1003              		.cfi_def_cfa_offset 0
 1004              		.cfi_restore 3
 1005              		.cfi_restore 4
 1006              		.cfi_restore 5
 1007              		.cfi_restore 14
 352:Middlewares/lvgl/src/widgets/lv_textarea.c **** 
 1008              		.loc 1 352 5 is_stmt 1 discriminator 1 view .LVU316
 352:Middlewares/lvgl/src/widgets/lv_textarea.c **** 
 1009              		.loc 1 352 5 discriminator 1 view .LVU317
 352:Middlewares/lvgl/src/widgets/lv_textarea.c **** 
 1010              		.loc 1 352 5 discriminator 1 view .LVU318
 352:Middlewares/lvgl/src/widgets/lv_textarea.c **** 
 1011              		.loc 1 352 5 discriminator 1 view .LVU319
 1012 0026 FEE7     		b	.L38
 1013              	.LVL94:
 1014              	.L39:
 1015              	.LCFI19:
 1016              		.cfi_def_cfa_offset 16
 1017              		.cfi_offset 3, -16
 1018              		.cfi_offset 4, -12
 1019              		.cfi_offset 5, -8
 1020              		.cfi_offset 14, -4
 367:Middlewares/lvgl/src/widgets/lv_textarea.c ****             ta->placeholder_txt = lv_mem_alloc(txt_len + 1);
 1021              		.loc 1 367 9 view .LVU320
 367:Middlewares/lvgl/src/widgets/lv_textarea.c ****             ta->placeholder_txt = lv_mem_alloc(txt_len + 1);
 1022              		.loc 1 367 14 is_stmt 0 view .LVU321
 1023 0028 A06A     		ldr	r0, [r4, #40]
 1024              	.LVL95:
 367:Middlewares/lvgl/src/widgets/lv_textarea.c ****             ta->placeholder_txt = lv_mem_alloc(txt_len + 1);
 1025              		.loc 1 367 11 view .LVU322
 1026 002a 48B1     		cbz	r0, .L47
 371:Middlewares/lvgl/src/widgets/lv_textarea.c **** 
 1027              		.loc 1 371 13 is_stmt 1 view .LVU323
 371:Middlewares/lvgl/src/widgets/lv_textarea.c **** 
 1028              		.loc 1 371 35 is_stmt 0 view .LVU324
 1029 002c 0131     		adds	r1, r1, #1
 1030              	.LVL96:
 371:Middlewares/lvgl/src/widgets/lv_textarea.c **** 
 1031              		.loc 1 371 35 view .LVU325
 1032 002e FFF7FEFF 		bl	lv_mem_realloc
 1033              	.LVL97:
 371:Middlewares/lvgl/src/widgets/lv_textarea.c **** 
 1034              		.loc 1 371 33 view .LVU326
 1035 0032 A062     		str	r0, [r4, #40]
 1036              	.L42:
 374:Middlewares/lvgl/src/widgets/lv_textarea.c ****         if(ta->placeholder_txt == NULL) {
 1037              		.loc 1 374 9 is_stmt 1 view .LVU327
ARM GAS  /tmp/cctamPcj.s 			page 58


 374:Middlewares/lvgl/src/widgets/lv_textarea.c ****         if(ta->placeholder_txt == NULL) {
 1038              		.loc 1 374 9 view .LVU328
 1039 0034 A06A     		ldr	r0, [r4, #40]
 1040 0036 40B1     		cbz	r0, .L44
 374:Middlewares/lvgl/src/widgets/lv_textarea.c ****         if(ta->placeholder_txt == NULL) {
 1041              		.loc 1 374 9 view .LVU329
 374:Middlewares/lvgl/src/widgets/lv_textarea.c ****         if(ta->placeholder_txt == NULL) {
 1042              		.loc 1 374 46 view .LVU330
 375:Middlewares/lvgl/src/widgets/lv_textarea.c ****             LV_LOG_ERROR("lv_textarea_set_placeholder_text: couldn't allocate memory for placeholde
 1043              		.loc 1 375 9 view .LVU331
 379:Middlewares/lvgl/src/widgets/lv_textarea.c ****     }
 1044              		.loc 1 379 9 view .LVU332
 1045 0038 2946     		mov	r1, r5
 1046 003a FFF7FEFF 		bl	strcpy
 1047              	.LVL98:
 1048 003e EEE7     		b	.L40
 1049              	.LVL99:
 1050              	.L47:
 368:Middlewares/lvgl/src/widgets/lv_textarea.c ****         }
 1051              		.loc 1 368 13 view .LVU333
 368:Middlewares/lvgl/src/widgets/lv_textarea.c ****         }
 1052              		.loc 1 368 35 is_stmt 0 view .LVU334
 1053 0040 481C     		adds	r0, r1, #1
 1054 0042 FFF7FEFF 		bl	lv_mem_alloc
 1055              	.LVL100:
 368:Middlewares/lvgl/src/widgets/lv_textarea.c ****         }
 1056              		.loc 1 368 33 view .LVU335
 1057 0046 A062     		str	r0, [r4, #40]
 1058 0048 F4E7     		b	.L42
 1059              	.L44:
 374:Middlewares/lvgl/src/widgets/lv_textarea.c ****         if(ta->placeholder_txt == NULL) {
 1060              		.loc 1 374 9 is_stmt 1 discriminator 2 view .LVU336
 374:Middlewares/lvgl/src/widgets/lv_textarea.c ****         if(ta->placeholder_txt == NULL) {
 1061              		.loc 1 374 9 discriminator 2 view .LVU337
 374:Middlewares/lvgl/src/widgets/lv_textarea.c ****         if(ta->placeholder_txt == NULL) {
 1062              		.loc 1 374 9 discriminator 2 view .LVU338
 374:Middlewares/lvgl/src/widgets/lv_textarea.c ****         if(ta->placeholder_txt == NULL) {
 1063              		.loc 1 374 9 discriminator 2 view .LVU339
 1064 004a FEE7     		b	.L44
 1065              		.cfi_endproc
 1066              	.LFE153:
 1068              		.section	.text.lv_textarea_set_cursor_click_pos,"ax",%progbits
 1069              		.align	1
 1070              		.global	lv_textarea_set_cursor_click_pos
 1071              		.syntax unified
 1072              		.thumb
 1073              		.thumb_func
 1075              	lv_textarea_set_cursor_click_pos:
 1076              	.LVL101:
 1077              	.LFB155:
 441:Middlewares/lvgl/src/widgets/lv_textarea.c ****     LV_ASSERT_OBJ(obj, MY_CLASS);
 1078              		.loc 1 441 1 view -0
 1079              		.cfi_startproc
 1080              		@ args = 0, pretend = 0, frame = 0
 1081              		@ frame_needed = 0, uses_anonymous_args = 0
 1082              		@ link register save eliminated.
 442:Middlewares/lvgl/src/widgets/lv_textarea.c **** 
ARM GAS  /tmp/cctamPcj.s 			page 59


 1083              		.loc 1 442 5 view .LVU341
 442:Middlewares/lvgl/src/widgets/lv_textarea.c **** 
 1084              		.loc 1 442 5 view .LVU342
 442:Middlewares/lvgl/src/widgets/lv_textarea.c **** 
 1085              		.loc 1 442 5 view .LVU343
 444:Middlewares/lvgl/src/widgets/lv_textarea.c ****     ta->cursor.click_pos = en ? 1 : 0;
 1086              		.loc 1 444 5 view .LVU344
 445:Middlewares/lvgl/src/widgets/lv_textarea.c **** }
 1087              		.loc 1 445 5 view .LVU345
 445:Middlewares/lvgl/src/widgets/lv_textarea.c **** }
 1088              		.loc 1 445 26 is_stmt 0 view .LVU346
 1089 0000 90F85030 		ldrb	r3, [r0, #80]	@ zero_extendqisi2
 1090 0004 61F34103 		bfi	r3, r1, #1, #1
 1091 0008 80F85030 		strb	r3, [r0, #80]
 446:Middlewares/lvgl/src/widgets/lv_textarea.c **** 
 1092              		.loc 1 446 1 view .LVU347
 1093 000c 7047     		bx	lr
 1094              		.cfi_endproc
 1095              	.LFE155:
 1097              		.section	.text.lv_textarea_set_one_line,"ax",%progbits
 1098              		.align	1
 1099              		.global	lv_textarea_set_one_line
 1100              		.syntax unified
 1101              		.thumb
 1102              		.thumb_func
 1104              	lv_textarea_set_one_line:
 1105              	.LVL102:
 1106              	.LFB157:
 482:Middlewares/lvgl/src/widgets/lv_textarea.c ****     LV_ASSERT_OBJ(obj, MY_CLASS);
 1107              		.loc 1 482 1 is_stmt 1 view -0
 1108              		.cfi_startproc
 1109              		@ args = 0, pretend = 0, frame = 0
 1110              		@ frame_needed = 0, uses_anonymous_args = 0
 483:Middlewares/lvgl/src/widgets/lv_textarea.c **** 
 1111              		.loc 1 483 5 view .LVU349
 483:Middlewares/lvgl/src/widgets/lv_textarea.c **** 
 1112              		.loc 1 483 5 view .LVU350
 483:Middlewares/lvgl/src/widgets/lv_textarea.c **** 
 1113              		.loc 1 483 5 view .LVU351
 485:Middlewares/lvgl/src/widgets/lv_textarea.c ****     if(ta->one_line == en) return;
 1114              		.loc 1 485 6 view .LVU352
 486:Middlewares/lvgl/src/widgets/lv_textarea.c **** 
 1115              		.loc 1 486 5 view .LVU353
 486:Middlewares/lvgl/src/widgets/lv_textarea.c **** 
 1116              		.loc 1 486 10 is_stmt 0 view .LVU354
 1117 0000 90F85C30 		ldrb	r3, [r0, #92]	@ zero_extendqisi2
 1118 0004 C3F3C003 		ubfx	r3, r3, #3, #1
 486:Middlewares/lvgl/src/widgets/lv_textarea.c **** 
 1119              		.loc 1 486 7 view .LVU355
 1120 0008 8B42     		cmp	r3, r1
 1121 000a 31D0     		beq	.L53
 482:Middlewares/lvgl/src/widgets/lv_textarea.c ****     LV_ASSERT_OBJ(obj, MY_CLASS);
 1122              		.loc 1 482 1 view .LVU356
 1123 000c 10B5     		push	{r4, lr}
 1124              	.LCFI20:
 1125              		.cfi_def_cfa_offset 8
 1126              		.cfi_offset 4, -8
ARM GAS  /tmp/cctamPcj.s 			page 60


 1127              		.cfi_offset 14, -4
 1128 000e 0446     		mov	r4, r0
 488:Middlewares/lvgl/src/widgets/lv_textarea.c ****         ta->one_line = 1;
 1129              		.loc 1 488 5 is_stmt 1 view .LVU357
 488:Middlewares/lvgl/src/widgets/lv_textarea.c ****         ta->one_line = 1;
 1130              		.loc 1 488 7 is_stmt 0 view .LVU358
 1131 0010 B1B1     		cbz	r1, .L51
 489:Middlewares/lvgl/src/widgets/lv_textarea.c ****         lv_obj_set_width(ta->label, LV_SIZE_CONTENT);
 1132              		.loc 1 489 9 is_stmt 1 view .LVU359
 489:Middlewares/lvgl/src/widgets/lv_textarea.c ****         lv_obj_set_width(ta->label, LV_SIZE_CONTENT);
 1133              		.loc 1 489 22 is_stmt 0 view .LVU360
 1134 0012 90F85C30 		ldrb	r3, [r0, #92]	@ zero_extendqisi2
 1135 0016 43F00803 		orr	r3, r3, #8
 1136 001a 80F85C30 		strb	r3, [r0, #92]
 490:Middlewares/lvgl/src/widgets/lv_textarea.c **** 
 1137              		.loc 1 490 9 is_stmt 1 view .LVU361
 1138 001e 42F2D171 		movw	r1, #10193
 1139              	.LVL103:
 490:Middlewares/lvgl/src/widgets/lv_textarea.c **** 
 1140              		.loc 1 490 9 is_stmt 0 view .LVU362
 1141 0022 406A     		ldr	r0, [r0, #36]
 1142              	.LVL104:
 490:Middlewares/lvgl/src/widgets/lv_textarea.c **** 
 1143              		.loc 1 490 9 view .LVU363
 1144 0024 FFF7FEFF 		bl	lv_obj_set_width
 1145              	.LVL105:
 492:Middlewares/lvgl/src/widgets/lv_textarea.c ****         lv_obj_scroll_to(obj, 0, 0, LV_ANIM_OFF);
 1146              		.loc 1 492 9 is_stmt 1 view .LVU364
 1147 0028 42F2D171 		movw	r1, #10193
 1148 002c 2046     		mov	r0, r4
 1149 002e FFF7FEFF 		bl	lv_obj_set_height
 1150              	.LVL106:
 493:Middlewares/lvgl/src/widgets/lv_textarea.c ****     }
 1151              		.loc 1 493 9 view .LVU365
 1152 0032 0023     		movs	r3, #0
 1153 0034 1A46     		mov	r2, r3
 1154 0036 1946     		mov	r1, r3
 1155 0038 2046     		mov	r0, r4
 1156 003a FFF7FEFF 		bl	lv_obj_scroll_to
