ARM GAS  /tmp/ccNZMix7.s 			page 1


   1              		.cpu cortex-m7
   2              		.eabi_attribute 28, 1
   3              		.eabi_attribute 20, 1
   4              		.eabi_attribute 21, 1
   5              		.eabi_attribute 23, 3
   6              		.eabi_attribute 24, 1
   7              		.eabi_attribute 25, 1
   8              		.eabi_attribute 26, 1
   9              		.eabi_attribute 30, 1
  10              		.eabi_attribute 34, 1
  11              		.eabi_attribute 18, 4
  12              		.file	"Mytouch.c"
  13              		.text
  14              	.Ltext0:
  15              		.cfi_sections	.debug_frame
  16              		.section	.text.TP_Write_Byte,"ax",%progbits
  17              		.align	1
  18              		.global	TP_Write_Byte
  19              		.arch armv7e-m
  20              		.syntax unified
  21              		.thumb
  22              		.thumb_func
  23              		.fpu fpv5-d16
  25              	TP_Write_Byte:
  26              	.LVL0:
  27              	.LFB147:
  28              		.file 1 "Core/Src/Mytouch.c"
   1:Core/Src/Mytouch.c **** //
   2:Core/Src/Mytouch.c **** // Created by wbh on 2021/2/14.
   3:Core/Src/Mytouch.c **** // 移植自正点原子HAL库实例
   4:Core/Src/Mytouch.c **** //
   5:Core/Src/Mytouch.c **** 
   6:Core/Src/Mytouch.c **** #include "Mytouch.h"
   7:Core/Src/Mytouch.c **** #include <stdio.h>
   8:Core/Src/Mytouch.c **** 
   9:Core/Src/Mytouch.c **** _m_tp_dev tp_dev=
  10:Core/Src/Mytouch.c **** {
  11:Core/Src/Mytouch.c **** 	TP_Init,
  12:Core/Src/Mytouch.c **** 	TP_Scan,
  13:Core/Src/Mytouch.c **** 	TP_Adjust,
  14:Core/Src/Mytouch.c **** 	0,
  15:Core/Src/Mytouch.c **** 	0, 
  16:Core/Src/Mytouch.c **** 	0,
  17:Core/Src/Mytouch.c **** 	0,
  18:Core/Src/Mytouch.c **** 	0,
  19:Core/Src/Mytouch.c **** 	0,	  	 		
  20:Core/Src/Mytouch.c **** 	0,
  21:Core/Src/Mytouch.c **** 	0,	  	 		
  22:Core/Src/Mytouch.c **** };					
  23:Core/Src/Mytouch.c **** //默认为touchtype=0的数据.
  24:Core/Src/Mytouch.c **** u8 CMD_RDX=0XD0;
  25:Core/Src/Mytouch.c **** u8 CMD_RDY=0X90;
  26:Core/Src/Mytouch.c ****  	 			    					   
  27:Core/Src/Mytouch.c **** //SPI写数据
  28:Core/Src/Mytouch.c **** //向触摸屏IC写入1byte数据    
  29:Core/Src/Mytouch.c **** //num:要写入的数据
  30:Core/Src/Mytouch.c **** void TP_Write_Byte(u8 num)    
ARM GAS  /tmp/ccNZMix7.s 			page 2


  31:Core/Src/Mytouch.c **** {  
  29              		.loc 1 31 1 view -0
  30              		.cfi_startproc
  31              		@ args = 0, pretend = 0, frame = 0
  32              		@ frame_needed = 0, uses_anonymous_args = 0
  33              		.loc 1 31 1 is_stmt 0 view .LVU1
  34 0000 70B5     		push	{r4, r5, r6, lr}
  35              	.LCFI0:
  36              		.cfi_def_cfa_offset 16
  37              		.cfi_offset 4, -16
  38              		.cfi_offset 5, -12
  39              		.cfi_offset 6, -8
  40              		.cfi_offset 14, -4
  41 0002 0446     		mov	r4, r0
  32:Core/Src/Mytouch.c **** 	u8 count=0;   
  42              		.loc 1 32 2 is_stmt 1 view .LVU2
  43              	.LVL1:
  33:Core/Src/Mytouch.c **** 	for(count=0;count<8;count++)  
  44              		.loc 1 33 2 view .LVU3
  45              		.loc 1 33 11 is_stmt 0 view .LVU4
  46 0004 0025     		movs	r5, #0
  47              		.loc 1 33 2 view .LVU5
  48 0006 16E0     		b	.L2
  49              	.LVL2:
  50              	.L3:
  34:Core/Src/Mytouch.c **** 	{ 	  
  35:Core/Src/Mytouch.c **** 		if(num&0x80)TDIN(1);  
  36:Core/Src/Mytouch.c **** 		else TDIN(0);   
  51              		.loc 1 36 8 is_stmt 1 view .LVU6
  52 0008 0022     		movs	r2, #0
  53 000a 0821     		movs	r1, #8
  54 000c 1048     		ldr	r0, .L8
  55 000e FFF7FEFF 		bl	HAL_GPIO_WritePin
  56              	.LVL3:
  57              	.L4:
  37:Core/Src/Mytouch.c **** 		num<<=1;    
  58              		.loc 1 37 3 discriminator 2 view .LVU7
  59              		.loc 1 37 6 is_stmt 0 discriminator 2 view .LVU8
  60 0012 6400     		lsls	r4, r4, #1
  61              	.LVL4:
  62              		.loc 1 37 6 discriminator 2 view .LVU9
  63 0014 E4B2     		uxtb	r4, r4
  64              	.LVL5:
  38:Core/Src/Mytouch.c **** 		TCLK(0); 
  65              		.loc 1 38 3 is_stmt 1 discriminator 2 view .LVU10
  66 0016 0F4E     		ldr	r6, .L8+4
  67 0018 0022     		movs	r2, #0
  68 001a 4021     		movs	r1, #64
  69 001c 3046     		mov	r0, r6
  70 001e FFF7FEFF 		bl	HAL_GPIO_WritePin
  71              	.LVL6:
  39:Core/Src/Mytouch.c **** 		delay_us(1);
  72              		.loc 1 39 3 discriminator 2 view .LVU11
  73 0022 0120     		movs	r0, #1
  74 0024 FFF7FEFF 		bl	delay_us
  75              	.LVL7:
  40:Core/Src/Mytouch.c **** 		TCLK(1);		//上升沿有效	        
ARM GAS  /tmp/ccNZMix7.s 			page 3


  76              		.loc 1 40 3 discriminator 2 view .LVU12
  77 0028 0122     		movs	r2, #1
  78 002a 4021     		movs	r1, #64
  79 002c 3046     		mov	r0, r6
  80 002e FFF7FEFF 		bl	HAL_GPIO_WritePin
  81              	.LVL8:
  33:Core/Src/Mytouch.c **** 	{ 	  
  82              		.loc 1 33 22 discriminator 2 view .LVU13
  33:Core/Src/Mytouch.c **** 	{ 	  
  83              		.loc 1 33 27 is_stmt 0 discriminator 2 view .LVU14
  84 0032 0135     		adds	r5, r5, #1
  85              	.LVL9:
  33:Core/Src/Mytouch.c **** 	{ 	  
  86              		.loc 1 33 27 discriminator 2 view .LVU15
  87 0034 EDB2     		uxtb	r5, r5
  88              	.LVL10:
  89              	.L2:
  33:Core/Src/Mytouch.c **** 	{ 	  
  90              		.loc 1 33 14 is_stmt 1 discriminator 1 view .LVU16
  33:Core/Src/Mytouch.c **** 	{ 	  
  91              		.loc 1 33 2 is_stmt 0 discriminator 1 view .LVU17
  92 0036 072D     		cmp	r5, #7
  93 0038 08D8     		bhi	.L7
  35:Core/Src/Mytouch.c **** 		else TDIN(0);   
  94              		.loc 1 35 3 is_stmt 1 view .LVU18
  35:Core/Src/Mytouch.c **** 		else TDIN(0);   
  95              		.loc 1 35 5 is_stmt 0 view .LVU19
  96 003a 14F0800F 		tst	r4, #128
  97 003e E3D0     		beq	.L3
  35:Core/Src/Mytouch.c **** 		else TDIN(0);   
  98              		.loc 1 35 15 is_stmt 1 discriminator 1 view .LVU20
  99 0040 0122     		movs	r2, #1
 100 0042 0821     		movs	r1, #8
 101 0044 0248     		ldr	r0, .L8
 102 0046 FFF7FEFF 		bl	HAL_GPIO_WritePin
 103              	.LVL11:
 104 004a E2E7     		b	.L4
 105              	.L7:
  41:Core/Src/Mytouch.c **** 	}		 			    
  42:Core/Src/Mytouch.c **** } 		 
 106              		.loc 1 42 1 is_stmt 0 view .LVU21
 107 004c 70BD     		pop	{r4, r5, r6, pc}
 108              	.LVL12:
 109              	.L9:
 110              		.loc 1 42 1 view .LVU22
 111 004e 00BF     		.align	2
 112              	.L8:
 113 0050 00200258 		.word	1476534272
 114 0054 001C0258 		.word	1476533248
 115              		.cfi_endproc
 116              	.LFE147:
 118              		.section	.text.TP_Read_AD,"ax",%progbits
 119              		.align	1
 120              		.global	TP_Read_AD
 121              		.syntax unified
 122              		.thumb
 123              		.thumb_func
ARM GAS  /tmp/ccNZMix7.s 			page 4


 124              		.fpu fpv5-d16
 126              	TP_Read_AD:
 127              	.LVL13:
 128              	.LFB148:
  43:Core/Src/Mytouch.c **** //SPI读数据 
  44:Core/Src/Mytouch.c **** //从触摸屏IC读取adc值
  45:Core/Src/Mytouch.c **** //CMD:指令
  46:Core/Src/Mytouch.c **** //返回值:读到的数据	   
  47:Core/Src/Mytouch.c **** u16 TP_Read_AD(u8 CMD)	  
  48:Core/Src/Mytouch.c **** { 	 
 129              		.loc 1 48 1 is_stmt 1 view -0
 130              		.cfi_startproc
 131              		@ args = 0, pretend = 0, frame = 0
 132              		@ frame_needed = 0, uses_anonymous_args = 0
 133              		.loc 1 48 1 is_stmt 0 view .LVU24
 134 0000 70B5     		push	{r4, r5, r6, lr}
 135              	.LCFI1:
 136              		.cfi_def_cfa_offset 16
 137              		.cfi_offset 4, -16
 138              		.cfi_offset 5, -12
 139              		.cfi_offset 6, -8
 140              		.cfi_offset 14, -4
 141 0002 0546     		mov	r5, r0
  49:Core/Src/Mytouch.c **** 	u8 count=0; 	  
 142              		.loc 1 49 2 is_stmt 1 view .LVU25
 143              	.LVL14:
  50:Core/Src/Mytouch.c **** 	u16 Num=0; 
 144              		.loc 1 50 2 view .LVU26
  51:Core/Src/Mytouch.c **** 	TCLK(0);		//先拉低时钟 	 
 145              		.loc 1 51 2 view .LVU27
 146 0004 2A4C     		ldr	r4, .L16
 147 0006 0022     		movs	r2, #0
 148 0008 4021     		movs	r1, #64
 149 000a 2046     		mov	r0, r4
 150              	.LVL15:
 151              		.loc 1 51 2 is_stmt 0 view .LVU28
 152 000c FFF7FEFF 		bl	HAL_GPIO_WritePin
 153              	.LVL16:
  52:Core/Src/Mytouch.c **** 	TDIN(0); 	//拉低数据线
 154              		.loc 1 52 2 is_stmt 1 view .LVU29
 155 0010 284E     		ldr	r6, .L16+4
 156 0012 0022     		movs	r2, #0
 157 0014 0821     		movs	r1, #8
 158 0016 3046     		mov	r0, r6
 159 0018 FFF7FEFF 		bl	HAL_GPIO_WritePin
 160              	.LVL17:
  53:Core/Src/Mytouch.c **** 	TCS(0); 		//选中触摸屏IC
 161              		.loc 1 53 2 view .LVU30
 162 001c 0022     		movs	r2, #0
 163 001e 4FF48071 		mov	r1, #256
 164 0022 3046     		mov	r0, r6
 165 0024 FFF7FEFF 		bl	HAL_GPIO_WritePin
 166              	.LVL18:
  54:Core/Src/Mytouch.c **** 	TP_Write_Byte(CMD);//发送命令字
 167              		.loc 1 54 2 view .LVU31
 168 0028 2846     		mov	r0, r5
 169 002a FFF7FEFF 		bl	TP_Write_Byte
ARM GAS  /tmp/ccNZMix7.s 			page 5


 170              	.LVL19:
  55:Core/Src/Mytouch.c **** 	delay_us(6);//ADS7846的转换时间最长为6us
 171              		.loc 1 55 2 view .LVU32
 172 002e 0620     		movs	r0, #6
 173 0030 FFF7FEFF 		bl	delay_us
 174              	.LVL20:
  56:Core/Src/Mytouch.c **** 	TCLK(0); 	     	    
 175              		.loc 1 56 2 view .LVU33
 176 0034 0022     		movs	r2, #0
 177 0036 4021     		movs	r1, #64
 178 0038 2046     		mov	r0, r4
 179 003a FFF7FEFF 		bl	HAL_GPIO_WritePin
 180              	.LVL21:
  57:Core/Src/Mytouch.c **** 	delay_us(1);    	   
 181              		.loc 1 57 2 view .LVU34
 182 003e 0120     		movs	r0, #1
 183 0040 FFF7FEFF 		bl	delay_us
 184              	.LVL22:
  58:Core/Src/Mytouch.c **** 	TCLK(1);		//给1个时钟，清除BUSY
 185              		.loc 1 58 2 view .LVU35
 186 0044 0122     		movs	r2, #1
 187 0046 4021     		movs	r1, #64
 188 0048 2046     		mov	r0, r4
 189 004a FFF7FEFF 		bl	HAL_GPIO_WritePin
 190              	.LVL23:
  59:Core/Src/Mytouch.c **** 	delay_us(1);    
 191              		.loc 1 59 2 view .LVU36
 192 004e 0120     		movs	r0, #1
 193 0050 FFF7FEFF 		bl	delay_us
 194              	.LVL24:
  60:Core/Src/Mytouch.c **** 	TCLK(0); 	     	    
 195              		.loc 1 60 2 view .LVU37
 196 0054 0022     		movs	r2, #0
 197 0056 4021     		movs	r1, #64
 198 0058 2046     		mov	r0, r4
 199 005a FFF7FEFF 		bl	HAL_GPIO_WritePin
 200              	.LVL25:
  61:Core/Src/Mytouch.c **** 	for(count=0;count<16;count++)//读出16位数据,只有高12位有效 
 201              		.loc 1 61 2 view .LVU38
  50:Core/Src/Mytouch.c **** 	TCLK(0);		//先拉低时钟 	 
 202              		.loc 1 50 6 is_stmt 0 view .LVU39
 203 005e 0024     		movs	r4, #0
 204              		.loc 1 61 11 view .LVU40
 205 0060 2546     		mov	r5, r4
 206              		.loc 1 61 2 view .LVU41
 207 0062 01E0     		b	.L11
 208              	.LVL26:
 209              	.L12:
 210              		.loc 1 61 23 is_stmt 1 discriminator 2 view .LVU42
 211              		.loc 1 61 28 is_stmt 0 discriminator 2 view .LVU43
 212 0064 0135     		adds	r5, r5, #1
 213              	.LVL27:
 214              		.loc 1 61 28 discriminator 2 view .LVU44
 215 0066 EDB2     		uxtb	r5, r5
 216              	.LVL28:
 217              	.L11:
 218              		.loc 1 61 14 is_stmt 1 discriminator 1 view .LVU45
ARM GAS  /tmp/ccNZMix7.s 			page 6


 219              		.loc 1 61 2 is_stmt 0 discriminator 1 view .LVU46
 220 0068 0F2D     		cmp	r5, #15
 221 006a 18D8     		bhi	.L15
  62:Core/Src/Mytouch.c **** 	{ 				  
  63:Core/Src/Mytouch.c **** 		Num<<=1; 	 
 222              		.loc 1 63 3 is_stmt 1 view .LVU47
 223              		.loc 1 63 6 is_stmt 0 view .LVU48
 224 006c 6400     		lsls	r4, r4, #1
 225              	.LVL29:
 226              		.loc 1 63 6 view .LVU49
 227 006e A4B2     		uxth	r4, r4
 228              	.LVL30:
  64:Core/Src/Mytouch.c **** 		TCLK(0);	//下降沿有效  	    	   
 229              		.loc 1 64 3 is_stmt 1 view .LVU50
 230 0070 0F4E     		ldr	r6, .L16
 231 0072 0022     		movs	r2, #0
 232 0074 4021     		movs	r1, #64
 233 0076 3046     		mov	r0, r6
 234 0078 FFF7FEFF 		bl	HAL_GPIO_WritePin
 235              	.LVL31:
  65:Core/Src/Mytouch.c **** 		delay_us(1);    
 236              		.loc 1 65 3 view .LVU51
 237 007c 0120     		movs	r0, #1
 238 007e FFF7FEFF 		bl	delay_us
 239              	.LVL32:
  66:Core/Src/Mytouch.c ****  		TCLK(1);
 240              		.loc 1 66 4 view .LVU52
 241 0082 0122     		movs	r2, #1
 242 0084 4021     		movs	r1, #64
 243 0086 3046     		mov	r0, r6
 244 0088 FFF7FEFF 		bl	HAL_GPIO_WritePin
 245              	.LVL33:
  67:Core/Src/Mytouch.c ****  		if(DOUT)Num++; 		 
 246              		.loc 1 67 4 view .LVU53
 247              		.loc 1 67 7 is_stmt 0 view .LVU54
 248 008c 0821     		movs	r1, #8
 249 008e 0A48     		ldr	r0, .L16+8
 250 0090 FFF7FEFF 		bl	HAL_GPIO_ReadPin
 251              	.LVL34:
 252              		.loc 1 67 6 view .LVU55
 253 0094 0028     		cmp	r0, #0
 254 0096 E5D0     		beq	.L12
 255              		.loc 1 67 12 is_stmt 1 discriminator 1 view .LVU56
 256              		.loc 1 67 15 is_stmt 0 discriminator 1 view .LVU57
 257 0098 0134     		adds	r4, r4, #1
 258              	.LVL35:
 259              		.loc 1 67 15 discriminator 1 view .LVU58
 260 009a A4B2     		uxth	r4, r4
 261              	.LVL36:
 262              		.loc 1 67 15 discriminator 1 view .LVU59
 263 009c E2E7     		b	.L12
 264              	.L15:
  68:Core/Src/Mytouch.c **** 	}  	
  69:Core/Src/Mytouch.c **** 	Num>>=4;   	//只有高12位有效.
 265              		.loc 1 69 2 is_stmt 1 view .LVU60
 266              		.loc 1 69 5 is_stmt 0 view .LVU61
 267 009e 2409     		lsrs	r4, r4, #4
ARM GAS  /tmp/ccNZMix7.s 			page 7


 268              	.LVL37:
  70:Core/Src/Mytouch.c **** 	TCS(1);		//释放片选	 
 269              		.loc 1 70 2 is_stmt 1 view .LVU62
 270 00a0 0122     		movs	r2, #1
 271 00a2 4FF48071 		mov	r1, #256
 272 00a6 0348     		ldr	r0, .L16+4
 273 00a8 FFF7FEFF 		bl	HAL_GPIO_WritePin
 274              	.LVL38:
  71:Core/Src/Mytouch.c **** 	return(Num);   
 275              		.loc 1 71 2 view .LVU63
  72:Core/Src/Mytouch.c **** }
 276              		.loc 1 72 1 is_stmt 0 view .LVU64
 277 00ac 2046     		mov	r0, r4
 278 00ae 70BD     		pop	{r4, r5, r6, pc}
 279              	.LVL39:
 280              	.L17:
 281              		.loc 1 72 1 view .LVU65
 282              		.align	2
 283              	.L16:
 284 00b0 001C0258 		.word	1476533248
 285 00b4 00200258 		.word	1476534272
 286 00b8 00180258 		.word	1476532224
 287              		.cfi_endproc
 288              	.LFE148:
 290              		.section	.text.TP_Read_XOY,"ax",%progbits
 291              		.align	1
 292              		.global	TP_Read_XOY
 293              		.syntax unified
 294              		.thumb
 295              		.thumb_func
 296              		.fpu fpv5-d16
 298              	TP_Read_XOY:
 299              	.LVL40:
 300              	.LFB149:
  73:Core/Src/Mytouch.c **** //读取一个坐标值(x或者y)
  74:Core/Src/Mytouch.c **** //连续读取READ_TIMES次数据,对这些数据升序排列,
  75:Core/Src/Mytouch.c **** //然后去掉最低和最高LOST_VAL个数,取平均值 
  76:Core/Src/Mytouch.c **** //xy:指令（CMD_RDX/CMD_RDY）
  77:Core/Src/Mytouch.c **** //返回值:读到的数据
  78:Core/Src/Mytouch.c **** #define READ_TIMES 5 	//读取次数
  79:Core/Src/Mytouch.c **** #define LOST_VAL 1	  	//丢弃值
  80:Core/Src/Mytouch.c **** u16 TP_Read_XOY(u8 xy)
  81:Core/Src/Mytouch.c **** {
 301              		.loc 1 81 1 is_stmt 1 view -0
 302              		.cfi_startproc
 303              		@ args = 0, pretend = 0, frame = 16
 304              		@ frame_needed = 0, uses_anonymous_args = 0
 305              		.loc 1 81 1 is_stmt 0 view .LVU67
 306 0000 30B5     		push	{r4, r5, lr}
 307              	.LCFI2:
 308              		.cfi_def_cfa_offset 12
 309              		.cfi_offset 4, -12
 310              		.cfi_offset 5, -8
 311              		.cfi_offset 14, -4
 312 0002 85B0     		sub	sp, sp, #20
 313              	.LCFI3:
 314              		.cfi_def_cfa_offset 32
ARM GAS  /tmp/ccNZMix7.s 			page 8


 315 0004 0546     		mov	r5, r0
  82:Core/Src/Mytouch.c **** 	u16 i, j;
 316              		.loc 1 82 2 is_stmt 1 view .LVU68
  83:Core/Src/Mytouch.c **** 	u16 buf[READ_TIMES];
 317              		.loc 1 83 2 view .LVU69
  84:Core/Src/Mytouch.c **** 	u16 sum=0;
 318              		.loc 1 84 2 view .LVU70
 319              	.LVL41:
  85:Core/Src/Mytouch.c **** 	u16 temp;
 320              		.loc 1 85 2 view .LVU71
  86:Core/Src/Mytouch.c **** 	for(i=0;i<READ_TIMES;i++)buf[i]=TP_Read_AD(xy);		 		    
 321              		.loc 1 86 2 view .LVU72
 322              		.loc 1 86 7 is_stmt 0 view .LVU73
 323 0006 0024     		movs	r4, #0
 324              		.loc 1 86 2 view .LVU74
 325 0008 09E0     		b	.L19
 326              	.LVL42:
 327              	.L20:
 328              		.loc 1 86 27 is_stmt 1 discriminator 3 view .LVU75
 329              		.loc 1 86 34 is_stmt 0 discriminator 3 view .LVU76
 330 000a 2846     		mov	r0, r5
 331 000c FFF7FEFF 		bl	TP_Read_AD
 332              	.LVL43:
 333              		.loc 1 86 33 discriminator 3 view .LVU77
 334 0010 04AB     		add	r3, sp, #16
 335 0012 03EB4403 		add	r3, r3, r4, lsl #1
 336 0016 23F80C0C 		strh	r0, [r3, #-12]	@ movhi
 337              		.loc 1 86 23 is_stmt 1 discriminator 3 view .LVU78
 338              		.loc 1 86 24 is_stmt 0 discriminator 3 view .LVU79
 339 001a 0134     		adds	r4, r4, #1
 340              	.LVL44:
 341              		.loc 1 86 24 discriminator 3 view .LVU80
 342 001c A4B2     		uxth	r4, r4
 343              	.LVL45:
 344              	.L19:
 345              		.loc 1 86 10 is_stmt 1 discriminator 1 view .LVU81
 346              		.loc 1 86 2 is_stmt 0 discriminator 1 view .LVU82
 347 001e 042C     		cmp	r4, #4
 348 0020 F3D9     		bls	.L20
  87:Core/Src/Mytouch.c **** 	for(i=0;i<READ_TIMES-1; i++)//排序
 349              		.loc 1 87 7 view .LVU83
 350 0022 0020     		movs	r0, #0
 351 0024 1AE0     		b	.L21
 352              	.LVL46:
 353              	.L23:
  88:Core/Src/Mytouch.c **** 	{
  89:Core/Src/Mytouch.c **** 		for(j=i+1;j<READ_TIMES;j++)
 354              		.loc 1 89 26 is_stmt 1 discriminator 2 view .LVU84
 355              		.loc 1 89 27 is_stmt 0 discriminator 2 view .LVU85
 356 0026 0133     		adds	r3, r3, #1
 357              	.LVL47:
 358              		.loc 1 89 27 discriminator 2 view .LVU86
 359 0028 9BB2     		uxth	r3, r3
 360              	.LVL48:
 361              	.L22:
 362              		.loc 1 89 13 is_stmt 1 discriminator 1 view .LVU87
 363              		.loc 1 89 3 is_stmt 0 discriminator 1 view .LVU88
ARM GAS  /tmp/ccNZMix7.s 			page 9


 364 002a 042B     		cmp	r3, #4
 365 002c 15D8     		bhi	.L29
  90:Core/Src/Mytouch.c **** 		{
  91:Core/Src/Mytouch.c **** 			if(buf[i]>buf[j])//升序排列
 366              		.loc 1 91 4 is_stmt 1 view .LVU89
 367              		.loc 1 91 10 is_stmt 0 view .LVU90
 368 002e 04AA     		add	r2, sp, #16
 369 0030 02EB4002 		add	r2, r2, r0, lsl #1
 370 0034 32F80C2C 		ldrh	r2, [r2, #-12]
 371              		.loc 1 91 17 view .LVU91
 372 0038 04A9     		add	r1, sp, #16
 373 003a 01EB4301 		add	r1, r1, r3, lsl #1
 374 003e 31F80C1C 		ldrh	r1, [r1, #-12]
 375              		.loc 1 91 6 view .LVU92
 376 0042 8A42     		cmp	r2, r1
 377 0044 EFD9     		bls	.L23
  92:Core/Src/Mytouch.c **** 			{
  93:Core/Src/Mytouch.c **** 				temp=buf[i];
 378              		.loc 1 93 5 is_stmt 1 view .LVU93
 379              	.LVL49:
  94:Core/Src/Mytouch.c **** 				buf[i]=buf[j];
 380              		.loc 1 94 5 view .LVU94
 381              		.loc 1 94 11 is_stmt 0 view .LVU95
 382 0046 04AD     		add	r5, sp, #16
 383 0048 05EB400C 		add	ip, r5, r0, lsl #1
 384 004c 2CF80C1C 		strh	r1, [ip, #-12]	@ movhi
  95:Core/Src/Mytouch.c **** 				buf[j]=temp;
 385              		.loc 1 95 5 is_stmt 1 view .LVU96
 386              		.loc 1 95 11 is_stmt 0 view .LVU97
 387 0050 05EB4301 		add	r1, r5, r3, lsl #1
 388 0054 21F80C2C 		strh	r2, [r1, #-12]	@ movhi
 389 0058 E5E7     		b	.L23
 390              	.LVL50:
 391              	.L29:
  87:Core/Src/Mytouch.c **** 	{
 392              		.loc 1 87 27 view .LVU98
 393 005a 2046     		mov	r0, r4
 394              	.LVL51:
 395              	.L21:
  87:Core/Src/Mytouch.c **** 	{
 396              		.loc 1 87 10 is_stmt 1 discriminator 1 view .LVU99
  87:Core/Src/Mytouch.c **** 	{
 397              		.loc 1 87 2 is_stmt 0 discriminator 1 view .LVU100
 398 005c 0328     		cmp	r0, #3
 399 005e 03D8     		bhi	.L30
  89:Core/Src/Mytouch.c **** 		{
 400              		.loc 1 89 3 is_stmt 1 view .LVU101
  89:Core/Src/Mytouch.c **** 		{
 401              		.loc 1 89 8 is_stmt 0 view .LVU102
 402 0060 441C     		adds	r4, r0, #1
 403 0062 A4B2     		uxth	r4, r4
 404              	.LVL52:
  89:Core/Src/Mytouch.c **** 		{
 405              		.loc 1 89 8 view .LVU103
 406 0064 2346     		mov	r3, r4
  89:Core/Src/Mytouch.c **** 		{
 407              		.loc 1 89 3 view .LVU104
ARM GAS  /tmp/ccNZMix7.s 			page 10


 408 0066 E0E7     		b	.L22
 409              	.LVL53:
 410              	.L30:
  96:Core/Src/Mytouch.c **** 			}
  97:Core/Src/Mytouch.c **** 		}
  98:Core/Src/Mytouch.c **** 	}	  
  99:Core/Src/Mytouch.c **** 	sum=0;
 411              		.loc 1 99 5 view .LVU105
 412 0068 0020     		movs	r0, #0
 413              	.LVL54:
 100:Core/Src/Mytouch.c **** 	for(i=LOST_VAL;i<READ_TIMES-LOST_VAL;i++)sum+=buf[i];
 414              		.loc 1 100 7 view .LVU106
 415 006a 0123     		movs	r3, #1
 416 006c 08E0     		b	.L26
 417              	.LVL55:
 418              	.L27:
 419              		.loc 1 100 43 is_stmt 1 discriminator 3 view .LVU107
 420              		.loc 1 100 51 is_stmt 0 discriminator 3 view .LVU108
 421 006e 04AA     		add	r2, sp, #16
 422 0070 02EB4302 		add	r2, r2, r3, lsl #1
 423 0074 32F80C2C 		ldrh	r2, [r2, #-12]
 424              		.loc 1 100 46 discriminator 3 view .LVU109
 425 0078 1044     		add	r0, r0, r2
 426              	.LVL56:
 427              		.loc 1 100 46 discriminator 3 view .LVU110
 428 007a 80B2     		uxth	r0, r0
 429              	.LVL57:
 430              		.loc 1 100 39 is_stmt 1 discriminator 3 view .LVU111
 431              		.loc 1 100 40 is_stmt 0 discriminator 3 view .LVU112
 432 007c 0133     		adds	r3, r3, #1
 433              	.LVL58:
 434              		.loc 1 100 40 discriminator 3 view .LVU113
 435 007e 9BB2     		uxth	r3, r3
 436              	.LVL59:
 437              	.L26:
 438              		.loc 1 100 17 is_stmt 1 discriminator 1 view .LVU114
 439              		.loc 1 100 2 is_stmt 0 discriminator 1 view .LVU115
 440 0080 032B     		cmp	r3, #3
 441 0082 F4D9     		bls	.L27
 101:Core/Src/Mytouch.c **** 	temp=sum/(READ_TIMES-2*LOST_VAL);
 442              		.loc 1 101 2 is_stmt 1 view .LVU116
 443              		.loc 1 101 6 is_stmt 0 view .LVU117
 444 0084 034B     		ldr	r3, .L31
 445              	.LVL60:
 446              		.loc 1 101 6 view .LVU118
 447 0086 A3FB0030 		umull	r3, r0, r3, r0
 448              	.LVL61:
 102:Core/Src/Mytouch.c **** 	return temp;   
 449              		.loc 1 102 2 is_stmt 1 view .LVU119
 103:Core/Src/Mytouch.c **** } 
 450              		.loc 1 103 1 is_stmt 0 view .LVU120
 451 008a C0F34F00 		ubfx	r0, r0, #1, #16
 452              	.LVL62:
 453              		.loc 1 103 1 view .LVU121
 454 008e 05B0     		add	sp, sp, #20
 455              	.LCFI4:
 456              		.cfi_def_cfa_offset 12
ARM GAS  /tmp/ccNZMix7.s 			page 11


 457              		@ sp needed
 458 0090 30BD     		pop	{r4, r5, pc}
 459              	.L32:
 460 0092 00BF     		.align	2
 461              	.L31:
 462 0094 ABAAAAAA 		.word	-1431655765
 463              		.cfi_endproc
 464              	.LFE149:
 466              		.section	.text.TP_Read_XY,"ax",%progbits
 467              		.align	1
 468              		.global	TP_Read_XY
 469              		.syntax unified
 470              		.thumb
 471              		.thumb_func
 472              		.fpu fpv5-d16
 474              	TP_Read_XY:
 475              	.LVL63:
 476              	.LFB150:
 104:Core/Src/Mytouch.c **** //读取x,y坐标
 105:Core/Src/Mytouch.c **** //最小值不能少于100.
 106:Core/Src/Mytouch.c **** //x,y:读取到的坐标值
 107:Core/Src/Mytouch.c **** //返回值:0,失败;1,成功。
 108:Core/Src/Mytouch.c **** u8 TP_Read_XY(u16 *x,u16 *y)
 109:Core/Src/Mytouch.c **** {
 477              		.loc 1 109 1 is_stmt 1 view -0
 478              		.cfi_startproc
 479              		@ args = 0, pretend = 0, frame = 0
 480              		@ frame_needed = 0, uses_anonymous_args = 0
 481              		.loc 1 109 1 is_stmt 0 view .LVU123
 482 0000 70B5     		push	{r4, r5, r6, lr}
 483              	.LCFI5:
 484              		.cfi_def_cfa_offset 16
 485              		.cfi_offset 4, -16
 486              		.cfi_offset 5, -12
 487              		.cfi_offset 6, -8
 488              		.cfi_offset 14, -4
 489 0002 0546     		mov	r5, r0
 490 0004 0C46     		mov	r4, r1
 110:Core/Src/Mytouch.c **** 	u16 xtemp,ytemp;			 	 		  
 491              		.loc 1 110 2 is_stmt 1 view .LVU124
 111:Core/Src/Mytouch.c **** 	xtemp=TP_Read_XOY(CMD_RDX);
 492              		.loc 1 111 2 view .LVU125
 493              		.loc 1 111 8 is_stmt 0 view .LVU126
 494 0006 064B     		ldr	r3, .L35
 495 0008 1878     		ldrb	r0, [r3]	@ zero_extendqisi2
 496              	.LVL64:
 497              		.loc 1 111 8 view .LVU127
 498 000a FFF7FEFF 		bl	TP_Read_XOY
 499              	.LVL65:
 500              		.loc 1 111 8 view .LVU128
 501 000e 0646     		mov	r6, r0
 502              	.LVL66:
 112:Core/Src/Mytouch.c **** 	ytemp=TP_Read_XOY(CMD_RDY);	  												   
 503              		.loc 1 112 2 is_stmt 1 view .LVU129
 504              		.loc 1 112 8 is_stmt 0 view .LVU130
 505 0010 044B     		ldr	r3, .L35+4
 506 0012 1878     		ldrb	r0, [r3]	@ zero_extendqisi2
ARM GAS  /tmp/ccNZMix7.s 			page 12


 507 0014 FFF7FEFF 		bl	TP_Read_XOY
 508              	.LVL67:
 113:Core/Src/Mytouch.c **** 	//if(xtemp<100||ytemp<100)return 0;//读数失败
 114:Core/Src/Mytouch.c **** 	*x=xtemp;
 509              		.loc 1 114 2 is_stmt 1 view .LVU131
 510              		.loc 1 114 4 is_stmt 0 view .LVU132
 511 0018 2E80     		strh	r6, [r5]	@ movhi
 115:Core/Src/Mytouch.c **** 	*y=ytemp;
 512              		.loc 1 115 2 is_stmt 1 view .LVU133
 513              		.loc 1 115 4 is_stmt 0 view .LVU134
 514 001a 2080     		strh	r0, [r4]	@ movhi
 116:Core/Src/Mytouch.c **** 	return 1;//读数成功
 515              		.loc 1 116 2 is_stmt 1 view .LVU135
 117:Core/Src/Mytouch.c **** }
 516              		.loc 1 117 1 is_stmt 0 view .LVU136
 517 001c 0120     		movs	r0, #1
 518              	.LVL68:
 519              		.loc 1 117 1 view .LVU137
 520 001e 70BD     		pop	{r4, r5, r6, pc}
 521              	.LVL69:
 522              	.L36:
 523              		.loc 1 117 1 view .LVU138
 524              		.align	2
 525              	.L35:
 526 0020 00000000 		.word	.LANCHOR0
 527 0024 00000000 		.word	.LANCHOR1
 528              		.cfi_endproc
 529              	.LFE150:
 531              		.section	.text.TP_Read_XY2,"ax",%progbits
 532              		.align	1
 533              		.global	TP_Read_XY2
 534              		.syntax unified
 535              		.thumb
 536              		.thumb_func
 537              		.fpu fpv5-d16
 539              	TP_Read_XY2:
 540              	.LVL70:
 541              	.LFB151:
 118:Core/Src/Mytouch.c **** //连续2次读取触摸屏IC,且这两次的偏差不能超过
 119:Core/Src/Mytouch.c **** //ERR_RANGE,满足条件,则认为读数正确,否则读数错误.	   
 120:Core/Src/Mytouch.c **** //该函数能大大提高准确度
 121:Core/Src/Mytouch.c **** //x,y:读取到的坐标值
 122:Core/Src/Mytouch.c **** //返回值:0,失败;1,成功。
 123:Core/Src/Mytouch.c **** #define ERR_RANGE 50 //误差范围 
 124:Core/Src/Mytouch.c **** u8 TP_Read_XY2(u16 *x,u16 *y) 
 125:Core/Src/Mytouch.c **** {
 542              		.loc 1 125 1 is_stmt 1 view -0
 543              		.cfi_startproc
 544              		@ args = 0, pretend = 0, frame = 8
 545              		@ frame_needed = 0, uses_anonymous_args = 0
 546              		.loc 1 125 1 is_stmt 0 view .LVU140
 547 0000 30B5     		push	{r4, r5, lr}
 548              	.LCFI6:
 549              		.cfi_def_cfa_offset 12
 550              		.cfi_offset 4, -12
 551              		.cfi_offset 5, -8
 552              		.cfi_offset 14, -4
ARM GAS  /tmp/ccNZMix7.s 			page 13


 553 0002 83B0     		sub	sp, sp, #12
 554              	.LCFI7:
 555              		.cfi_def_cfa_offset 24
 556 0004 0546     		mov	r5, r0
 557 0006 0C46     		mov	r4, r1
 126:Core/Src/Mytouch.c **** 	u16 x1,y1;
 558              		.loc 1 126 2 is_stmt 1 view .LVU141
 127:Core/Src/Mytouch.c ****  	u16 x2,y2;
 559              		.loc 1 127 3 view .LVU142
 128:Core/Src/Mytouch.c ****  	u8 flag;    
 560              		.loc 1 128 3 view .LVU143
 129:Core/Src/Mytouch.c ****     flag=TP_Read_XY(&x1,&y1);   
 561              		.loc 1 129 5 view .LVU144
 562              		.loc 1 129 10 is_stmt 0 view .LVU145
 563 0008 01A9     		add	r1, sp, #4
 564              	.LVL71:
 565              		.loc 1 129 10 view .LVU146
 566 000a 0DF10600 		add	r0, sp, #6
 567              	.LVL72:
 568              		.loc 1 129 10 view .LVU147
 569 000e FFF7FEFF 		bl	TP_Read_XY
 570              	.LVL73:
 130:Core/Src/Mytouch.c ****     if(flag==0)return(0);
 571              		.loc 1 130 5 is_stmt 1 view .LVU148
 572              		.loc 1 130 7 is_stmt 0 view .LVU149
 573 0012 08B9     		cbnz	r0, .L50
 574              	.L38:
 131:Core/Src/Mytouch.c ****     flag=TP_Read_XY(&x2,&y2);	   
 132:Core/Src/Mytouch.c ****     if(flag==0)return(0);   
 133:Core/Src/Mytouch.c ****     if(((x2<=x1&&x1<x2+ERR_RANGE)||(x1<=x2&&x2<x1+ERR_RANGE))//前后两次采样在+-50内
 134:Core/Src/Mytouch.c ****     &&((y2<=y1&&y1<y2+ERR_RANGE)||(y1<=y2&&y2<y1+ERR_RANGE)))
 135:Core/Src/Mytouch.c ****     {
 136:Core/Src/Mytouch.c ****         *x=(x1+x2)/2;
 137:Core/Src/Mytouch.c ****         *y=(y1+y2)/2;
 138:Core/Src/Mytouch.c ****         return 1;
 139:Core/Src/Mytouch.c ****     }else return 0;	  
 140:Core/Src/Mytouch.c **** }   
 575              		.loc 1 140 1 view .LVU150
 576 0014 03B0     		add	sp, sp, #12
 577              	.LCFI8:
 578              		.cfi_remember_state
 579              		.cfi_def_cfa_offset 12
 580              		@ sp needed
 581 0016 30BD     		pop	{r4, r5, pc}
 582              	.LVL74:
 583              	.L50:
 584              	.LCFI9:
 585              		.cfi_restore_state
 131:Core/Src/Mytouch.c ****     flag=TP_Read_XY(&x2,&y2);	   
 586              		.loc 1 131 5 is_stmt 1 view .LVU151
 131:Core/Src/Mytouch.c ****     flag=TP_Read_XY(&x2,&y2);	   
 587              		.loc 1 131 10 is_stmt 0 view .LVU152
 588 0018 6946     		mov	r1, sp
 589 001a 0DF10200 		add	r0, sp, #2
 590 001e FFF7FEFF 		bl	TP_Read_XY
 591              	.LVL75:
 132:Core/Src/Mytouch.c ****     if(((x2<=x1&&x1<x2+ERR_RANGE)||(x1<=x2&&x2<x1+ERR_RANGE))//前后两次采样在+-50内
ARM GAS  /tmp/ccNZMix7.s 			page 14


 592              		.loc 1 132 5 is_stmt 1 view .LVU153
 132:Core/Src/Mytouch.c ****     if(((x2<=x1&&x1<x2+ERR_RANGE)||(x1<=x2&&x2<x1+ERR_RANGE))//前后两次采样在+-50内
 593              		.loc 1 132 7 is_stmt 0 view .LVU154
 594 0022 0028     		cmp	r0, #0
 595 0024 F6D0     		beq	.L38
 133:Core/Src/Mytouch.c ****     &&((y2<=y1&&y1<y2+ERR_RANGE)||(y1<=y2&&y2<y1+ERR_RANGE)))
 596              		.loc 1 133 5 is_stmt 1 view .LVU155
 133:Core/Src/Mytouch.c ****     &&((y2<=y1&&y1<y2+ERR_RANGE)||(y1<=y2&&y2<y1+ERR_RANGE)))
 597              		.loc 1 133 12 is_stmt 0 view .LVU156
 598 0026 BDF80220 		ldrh	r2, [sp, #2]
 599 002a BDF80630 		ldrh	r3, [sp, #6]
 133:Core/Src/Mytouch.c ****     &&((y2<=y1&&y1<y2+ERR_RANGE)||(y1<=y2&&y2<y1+ERR_RANGE)))
 600              		.loc 1 133 7 view .LVU157
 601 002e 9A42     		cmp	r2, r3
 602 0030 03D8     		bhi	.L39
 133:Core/Src/Mytouch.c ****     &&((y2<=y1&&y1<y2+ERR_RANGE)||(y1<=y2&&y2<y1+ERR_RANGE)))
 603              		.loc 1 133 20 discriminator 1 view .LVU158
 604 0032 02F13101 		add	r1, r2, #49
 133:Core/Src/Mytouch.c ****     &&((y2<=y1&&y1<y2+ERR_RANGE)||(y1<=y2&&y2<y1+ERR_RANGE)))
 605              		.loc 1 133 16 discriminator 1 view .LVU159
 606 0036 9942     		cmp	r1, r3
 607 0038 05DA     		bge	.L40
 608              	.L39:
 133:Core/Src/Mytouch.c ****     &&((y2<=y1&&y1<y2+ERR_RANGE)||(y1<=y2&&y2<y1+ERR_RANGE)))
 609              		.loc 1 133 34 discriminator 3 view .LVU160
 610 003a 9A42     		cmp	r2, r3
 611 003c 1ED3     		bcc	.L45
 133:Core/Src/Mytouch.c ****     &&((y2<=y1&&y1<y2+ERR_RANGE)||(y1<=y2&&y2<y1+ERR_RANGE)))
 612              		.loc 1 133 47 discriminator 4 view .LVU161
 613 003e 03F13101 		add	r1, r3, #49
 133:Core/Src/Mytouch.c ****     &&((y2<=y1&&y1<y2+ERR_RANGE)||(y1<=y2&&y2<y1+ERR_RANGE)))
 614              		.loc 1 133 43 discriminator 4 view .LVU162
 615 0042 9142     		cmp	r1, r2
 616 0044 1CDB     		blt	.L46
 617              	.L40:
 134:Core/Src/Mytouch.c ****     {
 618              		.loc 1 134 11 view .LVU163
 619 0046 BDF80000 		ldrh	r0, [sp]
 620              	.LVL76:
 134:Core/Src/Mytouch.c ****     {
 621              		.loc 1 134 11 view .LVU164
 622 004a BDF80410 		ldrh	r1, [sp, #4]
 134:Core/Src/Mytouch.c ****     {
 623              		.loc 1 134 5 view .LVU165
 624 004e 8842     		cmp	r0, r1
 625 0050 03D8     		bhi	.L41
 134:Core/Src/Mytouch.c ****     {
 626              		.loc 1 134 19 discriminator 1 view .LVU166
 627 0052 00F1310C 		add	ip, r0, #49
 134:Core/Src/Mytouch.c ****     {
 628              		.loc 1 134 15 discriminator 1 view .LVU167
 629 0056 8C45     		cmp	ip, r1
 630 0058 04DA     		bge	.L42
 631              	.L41:
 134:Core/Src/Mytouch.c ****     {
 632              		.loc 1 134 33 discriminator 3 view .LVU168
 633 005a 8842     		cmp	r0, r1
ARM GAS  /tmp/ccNZMix7.s 			page 15


 634 005c 12D3     		bcc	.L47
 134:Core/Src/Mytouch.c ****     {
 635              		.loc 1 134 46 discriminator 4 view .LVU169
 636 005e 3131     		adds	r1, r1, #49
 134:Core/Src/Mytouch.c ****     {
 637              		.loc 1 134 42 discriminator 4 view .LVU170
 638 0060 8142     		cmp	r1, r0
 639 0062 11DB     		blt	.L48
 640              	.L42:
 136:Core/Src/Mytouch.c ****         *y=(y1+y2)/2;
 641              		.loc 1 136 9 is_stmt 1 view .LVU171
 136:Core/Src/Mytouch.c ****         *y=(y1+y2)/2;
 642              		.loc 1 136 19 is_stmt 0 view .LVU172
 643 0064 1344     		add	r3, r3, r2
 644 0066 5B10     		asrs	r3, r3, #1
 136:Core/Src/Mytouch.c ****         *y=(y1+y2)/2;
 645              		.loc 1 136 11 view .LVU173
 646 0068 2B80     		strh	r3, [r5]	@ movhi
 137:Core/Src/Mytouch.c ****         return 1;
 647              		.loc 1 137 9 is_stmt 1 view .LVU174
 137:Core/Src/Mytouch.c ****         return 1;
 648              		.loc 1 137 15 is_stmt 0 view .LVU175
 649 006a BDF80430 		ldrh	r3, [sp, #4]
 650 006e BDF80020 		ldrh	r2, [sp]
 137:Core/Src/Mytouch.c ****         return 1;
 651              		.loc 1 137 19 view .LVU176
 652 0072 1344     		add	r3, r3, r2
 653 0074 5B10     		asrs	r3, r3, #1
 137:Core/Src/Mytouch.c ****         return 1;
 654              		.loc 1 137 11 view .LVU177
 655 0076 2380     		strh	r3, [r4]	@ movhi
 138:Core/Src/Mytouch.c ****     }else return 0;	  
 656              		.loc 1 138 9 is_stmt 1 view .LVU178
 138:Core/Src/Mytouch.c ****     }else return 0;	  
 657              		.loc 1 138 16 is_stmt 0 view .LVU179
 658 0078 0120     		movs	r0, #1
 659 007a CBE7     		b	.L38
 660              	.LVL77:
 661              	.L45:
 139:Core/Src/Mytouch.c **** }   
 662              		.loc 1 139 18 view .LVU180
 663 007c 0020     		movs	r0, #0
 664              	.LVL78:
 139:Core/Src/Mytouch.c **** }   
 665              		.loc 1 139 18 view .LVU181
 666 007e C9E7     		b	.L38
 667              	.LVL79:
 668              	.L46:
 139:Core/Src/Mytouch.c **** }   
 669              		.loc 1 139 18 view .LVU182
 670 0080 0020     		movs	r0, #0
 671              	.LVL80:
 139:Core/Src/Mytouch.c **** }   
 672              		.loc 1 139 18 view .LVU183
 673 0082 C7E7     		b	.L38
 674              	.L47:
 675 0084 0020     		movs	r0, #0
ARM GAS  /tmp/ccNZMix7.s 			page 16


 676 0086 C5E7     		b	.L38
 677              	.L48:
 678 0088 0020     		movs	r0, #0
 679 008a C3E7     		b	.L38
 680              		.cfi_endproc
 681              	.LFE151:
 683              		.section	.text.TP_Scan,"ax",%progbits
 684              		.align	1
 685              		.global	TP_Scan
 686              		.syntax unified
 687              		.thumb
 688              		.thumb_func
 689              		.fpu fpv5-d16
 691              	TP_Scan:
 692              	.LVL81:
 693              	.LFB154:
 141:Core/Src/Mytouch.c **** //////////////////////////////////////////////////////////////////////////////////		  
 142:Core/Src/Mytouch.c **** //与LCD部分有关的函数  
 143:Core/Src/Mytouch.c **** //画一个触摸点
 144:Core/Src/Mytouch.c **** //用来校准用的
 145:Core/Src/Mytouch.c **** //x,y:坐标
 146:Core/Src/Mytouch.c **** //color:颜色
 147:Core/Src/Mytouch.c **** void TP_Drow_Touch_Point(u16 x,u16 y,u16 color)
 148:Core/Src/Mytouch.c **** {
 149:Core/Src/Mytouch.c **** 	POINT_COLOR=color;
 150:Core/Src/Mytouch.c **** 	LCD_DrawLine(x-12,y,x+13,y);//横线
 151:Core/Src/Mytouch.c **** 	LCD_DrawLine(x,y-12,x,y+13);//竖线
 152:Core/Src/Mytouch.c **** 	LCD_DrawPoint(x+1,y+1);
 153:Core/Src/Mytouch.c **** 	LCD_DrawPoint(x-1,y+1);
 154:Core/Src/Mytouch.c **** 	LCD_DrawPoint(x+1,y-1);
 155:Core/Src/Mytouch.c **** 	LCD_DrawPoint(x-1,y-1);
 156:Core/Src/Mytouch.c **** 	LCD_Draw_Circle(x,y,6);//画中心圈
 157:Core/Src/Mytouch.c **** }	  
 158:Core/Src/Mytouch.c **** //画一个大点(2*2的点)		   
 159:Core/Src/Mytouch.c **** //x,y:坐标
 160:Core/Src/Mytouch.c **** //color:颜色
 161:Core/Src/Mytouch.c **** void TP_Draw_Big_Point(u16 x,u16 y,u16 color)
 162:Core/Src/Mytouch.c **** {	    
 163:Core/Src/Mytouch.c **** 	POINT_COLOR=color;
 164:Core/Src/Mytouch.c **** 	LCD_DrawPoint(x,y);//中心点 
 165:Core/Src/Mytouch.c **** 	LCD_DrawPoint(x+1,y);
 166:Core/Src/Mytouch.c **** 	LCD_DrawPoint(x,y+1);
 167:Core/Src/Mytouch.c **** 	LCD_DrawPoint(x+1,y+1);	 	  	
 168:Core/Src/Mytouch.c **** }							  
 169:Core/Src/Mytouch.c **** //////////////////////////////////////////////////////////////////////////////////		  
 170:Core/Src/Mytouch.c **** //触摸按键扫描
 171:Core/Src/Mytouch.c **** //tp:0,屏幕坐标;1,物理坐标(校准等特殊场合用)
 172:Core/Src/Mytouch.c **** //返回值:当前触屏状态.
 173:Core/Src/Mytouch.c **** //0,触屏无触摸;1,触屏有触摸
 174:Core/Src/Mytouch.c **** u8 TP_Scan(u8 tp)
 175:Core/Src/Mytouch.c **** {			   
 694              		.loc 1 175 1 is_stmt 1 view -0
 695              		.cfi_startproc
 696              		@ args = 0, pretend = 0, frame = 0
 697              		@ frame_needed = 0, uses_anonymous_args = 0
 698              		.loc 1 175 1 is_stmt 0 view .LVU185
 699 0000 10B5     		push	{r4, lr}
ARM GAS  /tmp/ccNZMix7.s 			page 17


 700              	.LCFI10:
 701              		.cfi_def_cfa_offset 8
 702              		.cfi_offset 4, -8
 703              		.cfi_offset 14, -4
 704 0002 0446     		mov	r4, r0
 176:Core/Src/Mytouch.c **** 	if(PEN==0)//有按键按下
 705              		.loc 1 176 2 is_stmt 1 view .LVU186
 706              		.loc 1 176 5 is_stmt 0 view .LVU187
 707 0004 8021     		movs	r1, #128
 708 0006 3548     		ldr	r0, .L59
 709              	.LVL82:
 710              		.loc 1 176 5 view .LVU188
 711 0008 FFF7FEFF 		bl	HAL_GPIO_ReadPin
 712              	.LVL83:
 713              		.loc 1 176 4 view .LVU189
 714 000c 0028     		cmp	r0, #0
 715 000e 4FD1     		bne	.L52
 177:Core/Src/Mytouch.c **** 	{
 178:Core/Src/Mytouch.c **** 		if(tp)TP_Read_XY2(&tp_dev.x[0],&tp_dev.y[0]);//读取物理坐标
 716              		.loc 1 178 3 is_stmt 1 view .LVU190
 717              		.loc 1 178 5 is_stmt 0 view .LVU191
 718 0010 C4B1     		cbz	r4, .L53
 719              		.loc 1 178 9 is_stmt 1 discriminator 1 view .LVU192
 720 0012 3348     		ldr	r0, .L59+4
 721 0014 00F11601 		add	r1, r0, #22
 722 0018 0C30     		adds	r0, r0, #12
 723 001a FFF7FEFF 		bl	TP_Read_XY2
 724              	.LVL84:
 725              	.L54:
 179:Core/Src/Mytouch.c **** 		else if(TP_Read_XY2(&tp_dev.x[0],&tp_dev.y[0]))//读取屏幕坐标
 180:Core/Src/Mytouch.c **** 		{
 181:Core/Src/Mytouch.c **** 	 		tp_dev.x[0]=tp_dev.xfac*tp_dev.x[0]+tp_dev.xoff;//将结果转换为屏幕坐标
 182:Core/Src/Mytouch.c **** 			tp_dev.y[0]=tp_dev.yfac*tp_dev.y[0]+tp_dev.yoff;  
 183:Core/Src/Mytouch.c **** 	 	} 
 184:Core/Src/Mytouch.c **** 		if((tp_dev.sta&TP_PRES_DOWN)==0)//之前没有被按下
 726              		.loc 1 184 3 view .LVU193
 727              		.loc 1 184 31 is_stmt 0 view .LVU194
 728 001e 304B     		ldr	r3, .L59+4
 729 0020 93F92030 		ldrsb	r3, [r3, #32]
 730              		.loc 1 184 5 view .LVU195
 731 0024 002B     		cmp	r3, #0
 732 0026 07DB     		blt	.L55
 185:Core/Src/Mytouch.c **** 		{		 
 186:Core/Src/Mytouch.c **** 			tp_dev.sta=TP_PRES_DOWN|TP_CATH_PRES;//按键按下  
 733              		.loc 1 186 4 is_stmt 1 view .LVU196
 734              		.loc 1 186 14 is_stmt 0 view .LVU197
 735 0028 2D4B     		ldr	r3, .L59+4
 736 002a C022     		movs	r2, #192
 737 002c 83F82020 		strb	r2, [r3, #32]
 187:Core/Src/Mytouch.c **** 			tp_dev.x[4]=tp_dev.x[0];//记录第一次按下时的坐标
 738              		.loc 1 187 4 is_stmt 1 view .LVU198
 739              		.loc 1 187 24 is_stmt 0 view .LVU199
 740 0030 9A89     		ldrh	r2, [r3, #12]
 741              		.loc 1 187 15 view .LVU200
 742 0032 9A82     		strh	r2, [r3, #20]	@ movhi
 188:Core/Src/Mytouch.c **** 			tp_dev.y[4]=tp_dev.y[0];  	   			 
 743              		.loc 1 188 4 is_stmt 1 view .LVU201
ARM GAS  /tmp/ccNZMix7.s 			page 18


 744              		.loc 1 188 24 is_stmt 0 view .LVU202
 745 0034 DA8A     		ldrh	r2, [r3, #22]
 746              		.loc 1 188 15 view .LVU203
 747 0036 DA83     		strh	r2, [r3, #30]	@ movhi
 748              	.L55:
 189:Core/Src/Mytouch.c **** 		}			   
 190:Core/Src/Mytouch.c **** 	}else
 191:Core/Src/Mytouch.c **** 	{
 192:Core/Src/Mytouch.c **** 		if(tp_dev.sta&TP_PRES_DOWN)//之前是被按下的
 193:Core/Src/Mytouch.c **** 		{
 194:Core/Src/Mytouch.c **** 			tp_dev.sta&=~(1<<7);//标记按键松开	
 195:Core/Src/Mytouch.c **** 		}else//之前就没有被按下
 196:Core/Src/Mytouch.c **** 		{
 197:Core/Src/Mytouch.c **** 			tp_dev.x[4]=0;
 198:Core/Src/Mytouch.c **** 			tp_dev.y[4]=0;
 199:Core/Src/Mytouch.c **** 			tp_dev.x[0]=0xffff;
 200:Core/Src/Mytouch.c **** 			tp_dev.y[0]=0xffff;
 201:Core/Src/Mytouch.c **** 		}	    
 202:Core/Src/Mytouch.c **** 	}
 203:Core/Src/Mytouch.c **** 	return tp_dev.sta&TP_PRES_DOWN;//返回当前的触屏状态
 749              		.loc 1 203 2 is_stmt 1 view .LVU204
 750              		.loc 1 203 15 is_stmt 0 view .LVU205
 751 0038 294B     		ldr	r3, .L59+4
 752 003a 93F82000 		ldrb	r0, [r3, #32]	@ zero_extendqisi2
 204:Core/Src/Mytouch.c **** }  
 753              		.loc 1 204 1 view .LVU206
 754 003e 00F08000 		and	r0, r0, #128
 755 0042 10BD     		pop	{r4, pc}
 756              	.L53:
 179:Core/Src/Mytouch.c **** 		{
 757              		.loc 1 179 8 is_stmt 1 view .LVU207
 179:Core/Src/Mytouch.c **** 		{
 758              		.loc 1 179 11 is_stmt 0 view .LVU208
 759 0044 2648     		ldr	r0, .L59+4
 760 0046 00F11601 		add	r1, r0, #22
 761 004a 0C30     		adds	r0, r0, #12
 762 004c FFF7FEFF 		bl	TP_Read_XY2
 763              	.LVL85:
 179:Core/Src/Mytouch.c **** 		{
 764              		.loc 1 179 10 view .LVU209
 765 0050 0028     		cmp	r0, #0
 766 0052 E4D0     		beq	.L54
 181:Core/Src/Mytouch.c **** 			tp_dev.y[0]=tp_dev.yfac*tp_dev.y[0]+tp_dev.yoff;  
 767              		.loc 1 181 5 is_stmt 1 view .LVU210
 181:Core/Src/Mytouch.c **** 			tp_dev.y[0]=tp_dev.yfac*tp_dev.y[0]+tp_dev.yoff;  
 768              		.loc 1 181 23 is_stmt 0 view .LVU211
 769 0054 224B     		ldr	r3, .L59+4
 770 0056 93ED097A 		vldr.32	s14, [r3, #36]
 181:Core/Src/Mytouch.c **** 			tp_dev.y[0]=tp_dev.yfac*tp_dev.y[0]+tp_dev.yoff;  
 771              		.loc 1 181 37 view .LVU212
 772 005a 9A89     		ldrh	r2, [r3, #12]
 773 005c 07EE902A 		vmov	s15, r2	@ int
 181:Core/Src/Mytouch.c **** 			tp_dev.y[0]=tp_dev.yfac*tp_dev.y[0]+tp_dev.yoff;  
 774              		.loc 1 181 28 view .LVU213
 775 0060 F8EEE77A 		vcvt.f32.s32	s15, s15
 776 0064 27EE877A 		vmul.f32	s14, s15, s14
 181:Core/Src/Mytouch.c **** 			tp_dev.y[0]=tp_dev.yfac*tp_dev.y[0]+tp_dev.yoff;  
ARM GAS  /tmp/ccNZMix7.s 			page 19


 777              		.loc 1 181 47 view .LVU214
 778 0068 B3F92C20 		ldrsh	r2, [r3, #44]
 779 006c 07EE902A 		vmov	s15, r2	@ int
 181:Core/Src/Mytouch.c **** 			tp_dev.y[0]=tp_dev.yfac*tp_dev.y[0]+tp_dev.yoff;  
 780              		.loc 1 181 40 view .LVU215
 781 0070 F8EEE77A 		vcvt.f32.s32	s15, s15
 782 0074 77EE877A 		vadd.f32	s15, s15, s14
 181:Core/Src/Mytouch.c **** 			tp_dev.y[0]=tp_dev.yfac*tp_dev.y[0]+tp_dev.yoff;  
 783              		.loc 1 181 16 view .LVU216
 784 0078 FCEEE77A 		vcvt.u32.f32	s15, s15
 785 007c 17EE902A 		vmov	r2, s15	@ int
 786 0080 9A81     		strh	r2, [r3, #12]	@ movhi
 182:Core/Src/Mytouch.c **** 	 	} 
 787              		.loc 1 182 4 is_stmt 1 view .LVU217
 182:Core/Src/Mytouch.c **** 	 	} 
 788              		.loc 1 182 22 is_stmt 0 view .LVU218
 789 0082 93ED0A7A 		vldr.32	s14, [r3, #40]
 182:Core/Src/Mytouch.c **** 	 	} 
 790              		.loc 1 182 36 view .LVU219
 791 0086 DA8A     		ldrh	r2, [r3, #22]
 792 0088 07EE902A 		vmov	s15, r2	@ int
 182:Core/Src/Mytouch.c **** 	 	} 
 793              		.loc 1 182 27 view .LVU220
 794 008c F8EEE77A 		vcvt.f32.s32	s15, s15
 795 0090 27EE877A 		vmul.f32	s14, s15, s14
 182:Core/Src/Mytouch.c **** 	 	} 
 796              		.loc 1 182 46 view .LVU221
 797 0094 B3F92E20 		ldrsh	r2, [r3, #46]
 798 0098 07EE902A 		vmov	s15, r2	@ int
 182:Core/Src/Mytouch.c **** 	 	} 
 799              		.loc 1 182 39 view .LVU222
 800 009c F8EEE77A 		vcvt.f32.s32	s15, s15
 801 00a0 77EE877A 		vadd.f32	s15, s15, s14
 182:Core/Src/Mytouch.c **** 	 	} 
 802              		.loc 1 182 15 view .LVU223
 803 00a4 FCEEE77A 		vcvt.u32.f32	s15, s15
 804 00a8 17EE902A 		vmov	r2, s15	@ int
 805 00ac DA82     		strh	r2, [r3, #22]	@ movhi
 806 00ae B6E7     		b	.L54
 807              	.L52:
 192:Core/Src/Mytouch.c **** 		{
 808              		.loc 1 192 3 is_stmt 1 view .LVU224
 192:Core/Src/Mytouch.c **** 		{
 809              		.loc 1 192 12 is_stmt 0 view .LVU225
 810 00b0 0B4B     		ldr	r3, .L59+4
 811 00b2 93F82020 		ldrb	r2, [r3, #32]	@ zero_extendqisi2
 192:Core/Src/Mytouch.c **** 		{
 812              		.loc 1 192 6 view .LVU226
 813 00b6 93F92030 		ldrsb	r3, [r3, #32]
 192:Core/Src/Mytouch.c **** 		{
 814              		.loc 1 192 5 view .LVU227
 815 00ba 002B     		cmp	r3, #0
 816 00bc 08DB     		blt	.L58
 197:Core/Src/Mytouch.c **** 			tp_dev.y[4]=0;
 817              		.loc 1 197 4 is_stmt 1 view .LVU228
 197:Core/Src/Mytouch.c **** 			tp_dev.y[4]=0;
 818              		.loc 1 197 15 is_stmt 0 view .LVU229
ARM GAS  /tmp/ccNZMix7.s 			page 20


 819 00be 084B     		ldr	r3, .L59+4
 820 00c0 0022     		movs	r2, #0
 821 00c2 9A82     		strh	r2, [r3, #20]	@ movhi
 198:Core/Src/Mytouch.c **** 			tp_dev.x[0]=0xffff;
 822              		.loc 1 198 4 is_stmt 1 view .LVU230
 198:Core/Src/Mytouch.c **** 			tp_dev.x[0]=0xffff;
 823              		.loc 1 198 15 is_stmt 0 view .LVU231
 824 00c4 DA83     		strh	r2, [r3, #30]	@ movhi
 199:Core/Src/Mytouch.c **** 			tp_dev.y[0]=0xffff;
 825              		.loc 1 199 4 is_stmt 1 view .LVU232
 199:Core/Src/Mytouch.c **** 			tp_dev.y[0]=0xffff;
 826              		.loc 1 199 15 is_stmt 0 view .LVU233
 827 00c6 4FF6FF72 		movw	r2, #65535
 828 00ca 9A81     		strh	r2, [r3, #12]	@ movhi
 200:Core/Src/Mytouch.c **** 		}	    
 829              		.loc 1 200 4 is_stmt 1 view .LVU234
 200:Core/Src/Mytouch.c **** 		}	    
 830              		.loc 1 200 15 is_stmt 0 view .LVU235
 831 00cc DA82     		strh	r2, [r3, #22]	@ movhi
 832 00ce B3E7     		b	.L55
 833              	.L58:
 194:Core/Src/Mytouch.c **** 		}else//之前就没有被按下
 834              		.loc 1 194 4 is_stmt 1 view .LVU236
 194:Core/Src/Mytouch.c **** 		}else//之前就没有被按下
 835              		.loc 1 194 14 is_stmt 0 view .LVU237
 836 00d0 02F07F02 		and	r2, r2, #127
 837 00d4 024B     		ldr	r3, .L59+4
 838 00d6 83F82020 		strb	r2, [r3, #32]
 839 00da ADE7     		b	.L55
 840              	.L60:
 841              		.align	2
 842              	.L59:
 843 00dc 001C0258 		.word	1476533248
 844 00e0 00000000 		.word	.LANCHOR2
 845              		.cfi_endproc
 846              	.LFE154:
 848              		.section	.text.TP_Drow_Touch_Point,"ax",%progbits
 849              		.align	1
 850              		.global	TP_Drow_Touch_Point
 851              		.syntax unified
 852              		.thumb
 853              		.thumb_func
 854              		.fpu fpv5-d16
 856              	TP_Drow_Touch_Point:
 857              	.LVL86:
 858              	.LFB152:
 148:Core/Src/Mytouch.c **** 	POINT_COLOR=color;
 859              		.loc 1 148 1 is_stmt 1 view -0
 860              		.cfi_startproc
 861              		@ args = 0, pretend = 0, frame = 0
 862              		@ frame_needed = 0, uses_anonymous_args = 0
 148:Core/Src/Mytouch.c **** 	POINT_COLOR=color;
 863              		.loc 1 148 1 is_stmt 0 view .LVU239
 864 0000 2DE9F041 		push	{r4, r5, r6, r7, r8, lr}
 865              	.LCFI11:
 866              		.cfi_def_cfa_offset 24
 867              		.cfi_offset 4, -24
ARM GAS  /tmp/ccNZMix7.s 			page 21


 868              		.cfi_offset 5, -20
 869              		.cfi_offset 6, -16
 870              		.cfi_offset 7, -12
 871              		.cfi_offset 8, -8
 872              		.cfi_offset 14, -4
 873 0004 0446     		mov	r4, r0
 874 0006 0D46     		mov	r5, r1
 149:Core/Src/Mytouch.c **** 	LCD_DrawLine(x-12,y,x+13,y);//横线
 875              		.loc 1 149 2 is_stmt 1 view .LVU240
 149:Core/Src/Mytouch.c **** 	LCD_DrawLine(x-12,y,x+13,y);//横线
 876              		.loc 1 149 13 is_stmt 0 view .LVU241
 877 0008 1A4B     		ldr	r3, .L63
 878 000a 1A60     		str	r2, [r3]
 150:Core/Src/Mytouch.c **** 	LCD_DrawLine(x,y-12,x,y+13);//竖线
 879              		.loc 1 150 2 is_stmt 1 view .LVU242
 880 000c 00F10D02 		add	r2, r0, #13
 881              	.LVL87:
 150:Core/Src/Mytouch.c **** 	LCD_DrawLine(x,y-12,x,y+13);//竖线
 882              		.loc 1 150 2 is_stmt 0 view .LVU243
 883 0010 0C38     		subs	r0, r0, #12
 884              	.LVL88:
 150:Core/Src/Mytouch.c **** 	LCD_DrawLine(x,y-12,x,y+13);//竖线
 885              		.loc 1 150 2 view .LVU244
 886 0012 0B46     		mov	r3, r1
 887 0014 92B2     		uxth	r2, r2
 888 0016 80B2     		uxth	r0, r0
 889 0018 FFF7FEFF 		bl	LCD_DrawLine
 890              	.LVL89:
 151:Core/Src/Mytouch.c **** 	LCD_DrawPoint(x+1,y+1);
 891              		.loc 1 151 2 is_stmt 1 view .LVU245
 892 001c 05F10D03 		add	r3, r5, #13
 893 0020 A5F10C01 		sub	r1, r5, #12
 894 0024 9BB2     		uxth	r3, r3
 895 0026 2246     		mov	r2, r4
 896 0028 89B2     		uxth	r1, r1
 897 002a 2046     		mov	r0, r4
 898 002c FFF7FEFF 		bl	LCD_DrawLine
 899              	.LVL90:
 152:Core/Src/Mytouch.c **** 	LCD_DrawPoint(x-1,y+1);
 900              		.loc 1 152 2 view .LVU246
 901 0030 04F10108 		add	r8, r4, #1
 902 0034 1FFA88F8 		uxth	r8, r8
 903 0038 6F1C     		adds	r7, r5, #1
 904 003a BFB2     		uxth	r7, r7
 905 003c 3946     		mov	r1, r7
 906 003e 4046     		mov	r0, r8
 907 0040 FFF7FEFF 		bl	LCD_DrawPoint
 908              	.LVL91:
 153:Core/Src/Mytouch.c **** 	LCD_DrawPoint(x+1,y-1);
 909              		.loc 1 153 2 view .LVU247
 910 0044 661E     		subs	r6, r4, #1
 911 0046 B6B2     		uxth	r6, r6
 912 0048 3946     		mov	r1, r7
 913 004a 3046     		mov	r0, r6
 914 004c FFF7FEFF 		bl	LCD_DrawPoint
 915              	.LVL92:
 154:Core/Src/Mytouch.c **** 	LCD_DrawPoint(x-1,y-1);
ARM GAS  /tmp/ccNZMix7.s 			page 22


 916              		.loc 1 154 2 view .LVU248
 917 0050 6F1E     		subs	r7, r5, #1
 918 0052 BFB2     		uxth	r7, r7
 919 0054 3946     		mov	r1, r7
 920 0056 4046     		mov	r0, r8
 921 0058 FFF7FEFF 		bl	LCD_DrawPoint
 922              	.LVL93:
 155:Core/Src/Mytouch.c **** 	LCD_Draw_Circle(x,y,6);//画中心圈
 923              		.loc 1 155 2 view .LVU249
 924 005c 3946     		mov	r1, r7
 925 005e 3046     		mov	r0, r6
 926 0060 FFF7FEFF 		bl	LCD_DrawPoint
 927              	.LVL94:
 156:Core/Src/Mytouch.c **** }	  
 928              		.loc 1 156 2 view .LVU250
 929 0064 0622     		movs	r2, #6
 930 0066 2946     		mov	r1, r5
 931 0068 2046     		mov	r0, r4
 932 006a FFF7FEFF 		bl	LCD_Draw_Circle
 933              	.LVL95:
 157:Core/Src/Mytouch.c **** //画一个大点(2*2的点)		   
 934              		.loc 1 157 1 is_stmt 0 view .LVU251
 935 006e BDE8F081 		pop	{r4, r5, r6, r7, r8, pc}
 936              	.L64:
 937 0072 00BF     		.align	2
 938              	.L63:
 939 0074 00000000 		.word	POINT_COLOR
 940              		.cfi_endproc
 941              	.LFE152:
 943              		.section	.text.TP_Draw_Big_Point,"ax",%progbits
 944              		.align	1
 945              		.global	TP_Draw_Big_Point
 946              		.syntax unified
 947              		.thumb
 948              		.thumb_func
 949              		.fpu fpv5-d16
 951              	TP_Draw_Big_Point:
 952              	.LVL96:
 953              	.LFB153:
 162:Core/Src/Mytouch.c **** 	POINT_COLOR=color;
 954              		.loc 1 162 1 is_stmt 1 view -0
 955              		.cfi_startproc
 956              		@ args = 0, pretend = 0, frame = 0
 957              		@ frame_needed = 0, uses_anonymous_args = 0
 162:Core/Src/Mytouch.c **** 	POINT_COLOR=color;
 958              		.loc 1 162 1 is_stmt 0 view .LVU253
 959 0000 70B5     		push	{r4, r5, r6, lr}
 960              	.LCFI12:
 961              		.cfi_def_cfa_offset 16
 962              		.cfi_offset 4, -16
 963              		.cfi_offset 5, -12
 964              		.cfi_offset 6, -8
 965              		.cfi_offset 14, -4
 966 0002 0646     		mov	r6, r0
 967 0004 0C46     		mov	r4, r1
 163:Core/Src/Mytouch.c **** 	LCD_DrawPoint(x,y);//中心点 
 968              		.loc 1 163 2 is_stmt 1 view .LVU254
ARM GAS  /tmp/ccNZMix7.s 			page 23


 163:Core/Src/Mytouch.c **** 	LCD_DrawPoint(x,y);//中心点 
 969              		.loc 1 163 13 is_stmt 0 view .LVU255
 970 0006 0A4B     		ldr	r3, .L67
 971 0008 1A60     		str	r2, [r3]
 164:Core/Src/Mytouch.c **** 	LCD_DrawPoint(x+1,y);
 972              		.loc 1 164 2 is_stmt 1 view .LVU256
 973 000a FFF7FEFF 		bl	LCD_DrawPoint
 974              	.LVL97:
 165:Core/Src/Mytouch.c **** 	LCD_DrawPoint(x,y+1);
 975              		.loc 1 165 2 view .LVU257
 976 000e 751C     		adds	r5, r6, #1
 977 0010 ADB2     		uxth	r5, r5
 978 0012 2146     		mov	r1, r4
 979 0014 2846     		mov	r0, r5
 980 0016 FFF7FEFF 		bl	LCD_DrawPoint
 981              	.LVL98:
 166:Core/Src/Mytouch.c **** 	LCD_DrawPoint(x+1,y+1);	 	  	
 982              		.loc 1 166 2 view .LVU258
 983 001a 0134     		adds	r4, r4, #1
 984 001c A4B2     		uxth	r4, r4
 985 001e 2146     		mov	r1, r4
 986 0020 3046     		mov	r0, r6
 987 0022 FFF7FEFF 		bl	LCD_DrawPoint
 988              	.LVL99:
 167:Core/Src/Mytouch.c **** }							  
 989              		.loc 1 167 2 view .LVU259
 990 0026 2146     		mov	r1, r4
 991 0028 2846     		mov	r0, r5
 992 002a FFF7FEFF 		bl	LCD_DrawPoint
 993              	.LVL100:
 168:Core/Src/Mytouch.c **** //////////////////////////////////////////////////////////////////////////////////		  
 994              		.loc 1 168 1 is_stmt 0 view .LVU260
 995 002e 70BD     		pop	{r4, r5, r6, pc}
 996              	.L68:
 997              		.align	2
 998              	.L67:
 999 0030 00000000 		.word	POINT_COLOR
 1000              		.cfi_endproc
 1001              	.LFE153:
 1003              		.section	.rodata.TP_Adj_Info_Show.str1.4,"aMS",%progbits,1
 1004              		.align	2
 1005              	.LC0:
 1006 0000 78313A00 		.ascii	"x1:\000"
 1007              		.align	2
 1008              	.LC1:
 1009 0004 79313A00 		.ascii	"y1:\000"
 1010              		.align	2
 1011              	.LC2:
 1012 0008 78323A00 		.ascii	"x2:\000"
 1013              		.align	2
 1014              	.LC3:
 1015 000c 79323A00 		.ascii	"y2:\000"
 1016              		.align	2
 1017              	.LC4:
 1018 0010 78333A00 		.ascii	"x3:\000"
 1019              		.align	2
 1020              	.LC5:
ARM GAS  /tmp/ccNZMix7.s 			page 24


 1021 0014 79333A00 		.ascii	"y3:\000"
 1022              		.align	2
 1023              	.LC6:
 1024 0018 78343A00 		.ascii	"x4:\000"
 1025              		.align	2
 1026              	.LC7:
 1027 001c 79343A00 		.ascii	"y4:\000"
 1028              		.align	2
 1029              	.LC8:
 1030 0020 66616320 		.ascii	"fac is:\000"
 1030      69733A00 
 1031              		.section	.text.TP_Adj_Info_Show,"ax",%progbits
 1032              		.align	1
 1033              		.global	TP_Adj_Info_Show
 1034              		.syntax unified
 1035              		.thumb
 1036              		.thumb_func
 1037              		.fpu fpv5-d16
 1039              	TP_Adj_Info_Show:
 1040              	.LVL101:
 1041              	.LFB157:
 205:Core/Src/Mytouch.c **** //////////////////////////////////////////////////////////////////////////	 
 206:Core/Src/Mytouch.c **** //保存在EEPROM里面的地址区间基址,占用13个字节(RANGE:SAVE_ADDR_BASE~SAVE_ADDR_BASE+
 207:Core/Src/Mytouch.c **** #define SAVE_ADDR_BASE 40
 208:Core/Src/Mytouch.c **** //保存校准参数										    
 209:Core/Src/Mytouch.c **** void TP_Save_Adjdata(void)
 210:Core/Src/Mytouch.c **** {
 211:Core/Src/Mytouch.c **** 	int temp;			 
 212:Core/Src/Mytouch.c **** 	//保存校正结果!		   							  
 213:Core/Src/Mytouch.c **** 	temp=tp_dev.xfac*100000000;//保存x校正因素      
 214:Core/Src/Mytouch.c ****     AT24CXX_WriteLenByte(SAVE_ADDR_BASE,temp,4);   
 215:Core/Src/Mytouch.c **** 	temp=tp_dev.yfac*100000000;//保存y校正因素    
 216:Core/Src/Mytouch.c ****     AT24CXX_WriteLenByte(SAVE_ADDR_BASE+4,temp,4);
 217:Core/Src/Mytouch.c **** 	//保存x偏移量
 218:Core/Src/Mytouch.c ****     AT24CXX_WriteLenByte(SAVE_ADDR_BASE+8,tp_dev.xoff,2);		    
 219:Core/Src/Mytouch.c **** 	//保存y偏移量
 220:Core/Src/Mytouch.c **** 	AT24CXX_WriteLenByte(SAVE_ADDR_BASE+10,tp_dev.yoff,2);	
 221:Core/Src/Mytouch.c **** 	//保存触屏类型
 222:Core/Src/Mytouch.c **** 	AT24CXX_WriteOneByte(SAVE_ADDR_BASE+12,tp_dev.touchtype);	
 223:Core/Src/Mytouch.c **** 	temp=0X0A;//标记校准过了
 224:Core/Src/Mytouch.c **** 	AT24CXX_WriteOneByte(SAVE_ADDR_BASE+13,temp); 
 225:Core/Src/Mytouch.c **** }
 226:Core/Src/Mytouch.c **** //得到保存在EEPROM里面的校准值
 227:Core/Src/Mytouch.c **** //返回值：1，成功获取数据
 228:Core/Src/Mytouch.c **** //        0，获取失败，要重新校准
 229:Core/Src/Mytouch.c **** u8 TP_Get_Adjdata(void)
 230:Core/Src/Mytouch.c **** {					  
 231:Core/Src/Mytouch.c **** 	int tempfac;
 232:Core/Src/Mytouch.c **** 	tempfac=AT24CXX_ReadOneByte(SAVE_ADDR_BASE+13);//读取标记字,看是否校准过！ 		 
 233:Core/Src/Mytouch.c **** 	if(tempfac==0X0A)//触摸屏已经校准过了			   
 234:Core/Src/Mytouch.c **** 	{    												 
 235:Core/Src/Mytouch.c **** 		tempfac=AT24CXX_ReadLenByte(SAVE_ADDR_BASE,4);		   
 236:Core/Src/Mytouch.c **** 		tp_dev.xfac=(float)tempfac/100000000;//得到x校准参数
 237:Core/Src/Mytouch.c **** 		tempfac=AT24CXX_ReadLenByte(SAVE_ADDR_BASE+4,4);			          
 238:Core/Src/Mytouch.c **** 		tp_dev.yfac=(float)tempfac/100000000;//得到y校准参数
 239:Core/Src/Mytouch.c **** 	    //得到x偏移量
 240:Core/Src/Mytouch.c **** 		tp_dev.xoff=AT24CXX_ReadLenByte(SAVE_ADDR_BASE+8,2);			   	  
ARM GAS  /tmp/ccNZMix7.s 			page 25


 241:Core/Src/Mytouch.c ****  	    //得到y偏移量
 242:Core/Src/Mytouch.c **** 		tp_dev.yoff=AT24CXX_ReadLenByte(SAVE_ADDR_BASE+10,2);				 	  
 243:Core/Src/Mytouch.c ****  		tp_dev.touchtype=AT24CXX_ReadOneByte(SAVE_ADDR_BASE+12);//读取触屏类型标记
 244:Core/Src/Mytouch.c **** 		if(tp_dev.touchtype)//X,Y方向与屏幕相反
 245:Core/Src/Mytouch.c **** 		{
 246:Core/Src/Mytouch.c **** 			CMD_RDX=0X90;
 247:Core/Src/Mytouch.c **** 			CMD_RDY=0XD0;	 
 248:Core/Src/Mytouch.c **** 		}else				   //X,Y方向与屏幕相同
 249:Core/Src/Mytouch.c **** 		{
 250:Core/Src/Mytouch.c **** 			CMD_RDX=0XD0;
 251:Core/Src/Mytouch.c **** 			CMD_RDY=0X90;	 
 252:Core/Src/Mytouch.c **** 		}		 
 253:Core/Src/Mytouch.c **** 		return 1;	 
 254:Core/Src/Mytouch.c **** 	}
 255:Core/Src/Mytouch.c **** 	return 0;
 256:Core/Src/Mytouch.c **** }	 
 257:Core/Src/Mytouch.c **** //提示字符串
 258:Core/Src/Mytouch.c **** u8* const TP_REMIND_MSG_TBL="Please use the stylus click the cross on the screen.The cross will alw
 259:Core/Src/Mytouch.c ****  					  
 260:Core/Src/Mytouch.c **** //提示校准结果(各个参数)
 261:Core/Src/Mytouch.c **** void TP_Adj_Info_Show(u16 x0,u16 y0,u16 x1,u16 y1,u16 x2,u16 y2,u16 x3,u16 y3,u16 fac)
 262:Core/Src/Mytouch.c **** {	  
 1042              		.loc 1 262 1 is_stmt 1 view -0
 1043              		.cfi_startproc
 1044              		@ args = 20, pretend = 0, frame = 0
 1045              		@ frame_needed = 0, uses_anonymous_args = 0
 1046              		.loc 1 262 1 is_stmt 0 view .LVU262
 1047 0000 2DE9F043 		push	{r4, r5, r6, r7, r8, r9, lr}
 1048              	.LCFI13:
 1049              		.cfi_def_cfa_offset 28
 1050              		.cfi_offset 4, -28
 1051              		.cfi_offset 5, -24
 1052              		.cfi_offset 6, -20
 1053              		.cfi_offset 7, -16
 1054              		.cfi_offset 8, -12
 1055              		.cfi_offset 9, -8
 1056              		.cfi_offset 14, -4
 1057 0004 83B0     		sub	sp, sp, #12
 1058              	.LCFI14:
 1059              		.cfi_def_cfa_offset 40
 1060 0006 8146     		mov	r9, r0
 1061 0008 8846     		mov	r8, r1
 1062 000a 1746     		mov	r7, r2
 1063 000c 1E46     		mov	r6, r3
 263:Core/Src/Mytouch.c **** 	POINT_COLOR=RED;
 1064              		.loc 1 263 2 is_stmt 1 view .LVU263
 1065              		.loc 1 263 13 is_stmt 0 view .LVU264
 1066 000e 4F4B     		ldr	r3, .L71
 1067              	.LVL102:
 1068              		.loc 1 263 13 view .LVU265
 1069 0010 4FF47842 		mov	r2, #63488
 1070              	.LVL103:
 1071              		.loc 1 263 13 view .LVU266
 1072 0014 1A60     		str	r2, [r3]
 264:Core/Src/Mytouch.c **** 	LCD_ShowString(40,160,lcddev.width,lcddev.height,16,"x1:");
 1073              		.loc 1 264 2 is_stmt 1 view .LVU267
 1074 0016 4E4D     		ldr	r5, .L71+4
ARM GAS  /tmp/ccNZMix7.s 			page 26


 1075 0018 4E4B     		ldr	r3, .L71+8
 1076 001a 0193     		str	r3, [sp, #4]
 1077 001c 1024     		movs	r4, #16
 1078 001e 0094     		str	r4, [sp]
 1079 0020 6B88     		ldrh	r3, [r5, #2]
 1080 0022 2A88     		ldrh	r2, [r5]
 1081 0024 A021     		movs	r1, #160
 1082              	.LVL104:
 1083              		.loc 1 264 2 is_stmt 0 view .LVU268
 1084 0026 2820     		movs	r0, #40
 1085              	.LVL105:
 1086              		.loc 1 264 2 view .LVU269
 1087 0028 FFF7FEFF 		bl	LCD_ShowString
 1088              	.LVL106:
 265:Core/Src/Mytouch.c ****  	LCD_ShowString(40+80,160,lcddev.width,lcddev.height,16,"y1:");
 1089              		.loc 1 265 3 is_stmt 1 view .LVU270
 1090 002c 4A4B     		ldr	r3, .L71+12
 1091 002e 0193     		str	r3, [sp, #4]
 1092 0030 0094     		str	r4, [sp]
 1093 0032 6B88     		ldrh	r3, [r5, #2]
 1094 0034 2A88     		ldrh	r2, [r5]
 1095 0036 A021     		movs	r1, #160
 1096 0038 7820     		movs	r0, #120
 1097 003a FFF7FEFF 		bl	LCD_ShowString
 1098              	.LVL107:
 266:Core/Src/Mytouch.c ****  	LCD_ShowString(40,180,lcddev.width,lcddev.height,16,"x2:");
 1099              		.loc 1 266 3 view .LVU271
 1100 003e 474B     		ldr	r3, .L71+16
 1101 0040 0193     		str	r3, [sp, #4]
 1102 0042 0094     		str	r4, [sp]
 1103 0044 6B88     		ldrh	r3, [r5, #2]
 1104 0046 2A88     		ldrh	r2, [r5]
 1105 0048 B421     		movs	r1, #180
 1106 004a 2820     		movs	r0, #40
 1107 004c FFF7FEFF 		bl	LCD_ShowString
 1108              	.LVL108:
 267:Core/Src/Mytouch.c ****  	LCD_ShowString(40+80,180,lcddev.width,lcddev.height,16,"y2:");
 1109              		.loc 1 267 3 view .LVU272
 1110 0050 434B     		ldr	r3, .L71+20
 1111 0052 0193     		str	r3, [sp, #4]
 1112 0054 0094     		str	r4, [sp]
 1113 0056 6B88     		ldrh	r3, [r5, #2]
 1114 0058 2A88     		ldrh	r2, [r5]
 1115 005a B421     		movs	r1, #180
 1116 005c 7820     		movs	r0, #120
 1117 005e FFF7FEFF 		bl	LCD_ShowString
 1118              	.LVL109:
 268:Core/Src/Mytouch.c **** 	LCD_ShowString(40,200,lcddev.width,lcddev.height,16,"x3:");
 1119              		.loc 1 268 2 view .LVU273
 1120 0062 404B     		ldr	r3, .L71+24
 1121 0064 0193     		str	r3, [sp, #4]
 1122 0066 0094     		str	r4, [sp]
 1123 0068 6B88     		ldrh	r3, [r5, #2]
 1124 006a 2A88     		ldrh	r2, [r5]
 1125 006c C821     		movs	r1, #200
 1126 006e 2820     		movs	r0, #40
 1127 0070 FFF7FEFF 		bl	LCD_ShowString
ARM GAS  /tmp/ccNZMix7.s 			page 27


 1128              	.LVL110:
 269:Core/Src/Mytouch.c ****  	LCD_ShowString(40+80,200,lcddev.width,lcddev.height,16,"y3:");
 1129              		.loc 1 269 3 view .LVU274
 1130 0074 3C4B     		ldr	r3, .L71+28
 1131 0076 0193     		str	r3, [sp, #4]
 1132 0078 0094     		str	r4, [sp]
 1133 007a 6B88     		ldrh	r3, [r5, #2]
 1134 007c 2A88     		ldrh	r2, [r5]
 1135 007e C821     		movs	r1, #200
 1136 0080 7820     		movs	r0, #120
 1137 0082 FFF7FEFF 		bl	LCD_ShowString
 1138              	.LVL111:
 270:Core/Src/Mytouch.c **** 	LCD_ShowString(40,220,lcddev.width,lcddev.height,16,"x4:");
 1139              		.loc 1 270 2 view .LVU275
 1140 0086 394B     		ldr	r3, .L71+32
 1141 0088 0193     		str	r3, [sp, #4]
 1142 008a 0094     		str	r4, [sp]
 1143 008c 6B88     		ldrh	r3, [r5, #2]
 1144 008e 2A88     		ldrh	r2, [r5]
 1145 0090 DC21     		movs	r1, #220
 1146 0092 2820     		movs	r0, #40
 1147 0094 FFF7FEFF 		bl	LCD_ShowString
 1148              	.LVL112:
 271:Core/Src/Mytouch.c ****  	LCD_ShowString(40+80,220,lcddev.width,lcddev.height,16,"y4:");  
 1149              		.loc 1 271 3 view .LVU276
 1150 0098 354B     		ldr	r3, .L71+36
 1151 009a 0193     		str	r3, [sp, #4]
 1152 009c 0094     		str	r4, [sp]
 1153 009e 6B88     		ldrh	r3, [r5, #2]
 1154 00a0 2A88     		ldrh	r2, [r5]
 1155 00a2 DC21     		movs	r1, #220
 1156 00a4 7820     		movs	r0, #120
 1157 00a6 FFF7FEFF 		bl	LCD_ShowString
 1158              	.LVL113:
 272:Core/Src/Mytouch.c ****  	LCD_ShowString(40,240,lcddev.width,lcddev.height,16,"fac is:");     
 1159              		.loc 1 272 3 view .LVU277
 1160 00aa 324B     		ldr	r3, .L71+40
 1161 00ac 0193     		str	r3, [sp, #4]
 1162 00ae 0094     		str	r4, [sp]
 1163 00b0 6B88     		ldrh	r3, [r5, #2]
 1164 00b2 2A88     		ldrh	r2, [r5]
 1165 00b4 F021     		movs	r1, #240
 1166 00b6 2820     		movs	r0, #40
 1167 00b8 FFF7FEFF 		bl	LCD_ShowString
 1168              	.LVL114:
 273:Core/Src/Mytouch.c **** 	LCD_ShowNum(40+24,160,x0,4,16);		//显示数值
 1169              		.loc 1 273 2 view .LVU278
 1170 00bc 0094     		str	r4, [sp]
 1171 00be 0423     		movs	r3, #4
 1172 00c0 4A46     		mov	r2, r9
 1173 00c2 A021     		movs	r1, #160
 1174 00c4 4020     		movs	r0, #64
 1175 00c6 FFF7FEFF 		bl	LCD_ShowNum
 1176              	.LVL115:
 274:Core/Src/Mytouch.c **** 	LCD_ShowNum(40+24+80,160,y0,4,16);	//显示数值
 1177              		.loc 1 274 2 view .LVU279
 1178 00ca 0094     		str	r4, [sp]
ARM GAS  /tmp/ccNZMix7.s 			page 28


 1179 00cc 0423     		movs	r3, #4
 1180 00ce 4246     		mov	r2, r8
 1181 00d0 A021     		movs	r1, #160
 1182 00d2 9020     		movs	r0, #144
 1183 00d4 FFF7FEFF 		bl	LCD_ShowNum
 1184              	.LVL116:
 275:Core/Src/Mytouch.c **** 	LCD_ShowNum(40+24,180,x1,4,16);		//显示数值
 1185              		.loc 1 275 2 view .LVU280
 1186 00d8 0094     		str	r4, [sp]
 1187 00da 0423     		movs	r3, #4
 1188 00dc 3A46     		mov	r2, r7
 1189 00de B421     		movs	r1, #180
 1190 00e0 4020     		movs	r0, #64
 1191 00e2 FFF7FEFF 		bl	LCD_ShowNum
 1192              	.LVL117:
 276:Core/Src/Mytouch.c **** 	LCD_ShowNum(40+24+80,180,y1,4,16);	//显示数值
 1193              		.loc 1 276 2 view .LVU281
 1194 00e6 0094     		str	r4, [sp]
 1195 00e8 0423     		movs	r3, #4
 1196 00ea 3246     		mov	r2, r6
 1197 00ec B421     		movs	r1, #180
 1198 00ee 9020     		movs	r0, #144
 1199 00f0 FFF7FEFF 		bl	LCD_ShowNum
 1200              	.LVL118:
 277:Core/Src/Mytouch.c **** 	LCD_ShowNum(40+24,200,x2,4,16);		//显示数值
 1201              		.loc 1 277 2 view .LVU282
 1202 00f4 0094     		str	r4, [sp]
 1203 00f6 0423     		movs	r3, #4
 1204 00f8 BDF82820 		ldrh	r2, [sp, #40]
 1205 00fc C821     		movs	r1, #200
 1206 00fe 4020     		movs	r0, #64
 1207 0100 FFF7FEFF 		bl	LCD_ShowNum
 1208              	.LVL119:
 278:Core/Src/Mytouch.c **** 	LCD_ShowNum(40+24+80,200,y2,4,16);	//显示数值
 1209              		.loc 1 278 2 view .LVU283
 1210 0104 0094     		str	r4, [sp]
 1211 0106 0423     		movs	r3, #4
 1212 0108 BDF82C20 		ldrh	r2, [sp, #44]
 1213 010c C821     		movs	r1, #200
 1214 010e 9020     		movs	r0, #144
 1215 0110 FFF7FEFF 		bl	LCD_ShowNum
 1216              	.LVL120:
 279:Core/Src/Mytouch.c **** 	LCD_ShowNum(40+24,220,x3,4,16);		//显示数值
 1217              		.loc 1 279 2 view .LVU284
 1218 0114 0094     		str	r4, [sp]
 1219 0116 0423     		movs	r3, #4
 1220 0118 BDF83020 		ldrh	r2, [sp, #48]
 1221 011c DC21     		movs	r1, #220
 1222 011e 4020     		movs	r0, #64
 1223 0120 FFF7FEFF 		bl	LCD_ShowNum
 1224              	.LVL121:
 280:Core/Src/Mytouch.c **** 	LCD_ShowNum(40+24+80,220,y3,4,16);	//显示数值
 1225              		.loc 1 280 2 view .LVU285
 1226 0124 0094     		str	r4, [sp]
 1227 0126 0423     		movs	r3, #4
 1228 0128 BDF83420 		ldrh	r2, [sp, #52]
 1229 012c DC21     		movs	r1, #220
ARM GAS  /tmp/ccNZMix7.s 			page 29


 1230 012e 9020     		movs	r0, #144
 1231 0130 FFF7FEFF 		bl	LCD_ShowNum
 1232              	.LVL122:
 281:Core/Src/Mytouch.c ****  	LCD_ShowNum(40+56,240,fac,3,16); 	//显示数值,该数值必须在95~105范围之内.
 1233              		.loc 1 281 3 view .LVU286
 1234 0134 0094     		str	r4, [sp]
 1235 0136 0323     		movs	r3, #3
 1236 0138 BDF83820 		ldrh	r2, [sp, #56]
 1237 013c F021     		movs	r1, #240
 1238 013e 6020     		movs	r0, #96
 1239 0140 FFF7FEFF 		bl	LCD_ShowNum
 1240              	.LVL123:
 282:Core/Src/Mytouch.c **** 
 283:Core/Src/Mytouch.c **** }
 1241              		.loc 1 283 1 is_stmt 0 view .LVU287
 1242 0144 03B0     		add	sp, sp, #12
 1243              	.LCFI15:
 1244              		.cfi_def_cfa_offset 28
 1245              		@ sp needed
 1246 0146 BDE8F083 		pop	{r4, r5, r6, r7, r8, r9, pc}
 1247              	.LVL124:
 1248              	.L72:
 1249              		.loc 1 283 1 view .LVU288
 1250 014a 00BF     		.align	2
 1251              	.L71:
 1252 014c 00000000 		.word	POINT_COLOR
 1253 0150 00000000 		.word	lcddev
 1254 0154 00000000 		.word	.LC0
 1255 0158 04000000 		.word	.LC1
 1256 015c 08000000 		.word	.LC2
 1257 0160 0C000000 		.word	.LC3
 1258 0164 10000000 		.word	.LC4
 1259 0168 14000000 		.word	.LC5
 1260 016c 18000000 		.word	.LC6
 1261 0170 1C000000 		.word	.LC7
 1262 0174 20000000 		.word	.LC8
 1263              		.cfi_endproc
 1264              	.LFE157:
 1266              		.section	.text.CT_Delay,"ax",%progbits
 1267              		.align	1
 1268              		.global	CT_Delay
 1269              		.syntax unified
 1270              		.thumb
 1271              		.thumb_func
 1272              		.fpu fpv5-d16
 1274              	CT_Delay:
 1275              	.LFB160:
 284:Core/Src/Mytouch.c **** 		 
 285:Core/Src/Mytouch.c **** //触摸屏校准代码
 286:Core/Src/Mytouch.c **** //得到四个校准参数
 287:Core/Src/Mytouch.c **** void TP_Adjust(void)
 288:Core/Src/Mytouch.c **** {								 
 289:Core/Src/Mytouch.c **** 	u16 pos_temp[4][2];//坐标缓存值
 290:Core/Src/Mytouch.c **** 	u8  cnt=0;	
 291:Core/Src/Mytouch.c **** 	u16 d1,d2;
 292:Core/Src/Mytouch.c **** 	u32 tem1,tem2;
 293:Core/Src/Mytouch.c **** 	double fac; 	
ARM GAS  /tmp/ccNZMix7.s 			page 30


 294:Core/Src/Mytouch.c **** 	u16 outtime=0;
 295:Core/Src/Mytouch.c ****  	cnt=0;				
 296:Core/Src/Mytouch.c **** 	POINT_COLOR=BLUE;
 297:Core/Src/Mytouch.c **** 	BACK_COLOR =WHITE;
 298:Core/Src/Mytouch.c **** 	LCD_Clear(WHITE);//清屏   
 299:Core/Src/Mytouch.c **** 	POINT_COLOR=RED;//红色 
 300:Core/Src/Mytouch.c **** 	LCD_Clear(WHITE);//清屏 	   
 301:Core/Src/Mytouch.c **** 	POINT_COLOR=BLACK;
 302:Core/Src/Mytouch.c **** 	LCD_ShowString(40,40,160,100,16,(u8*)TP_REMIND_MSG_TBL);//显示提示信息
 303:Core/Src/Mytouch.c **** 	TP_Drow_Touch_Point(20,20,RED);//画点1 
 304:Core/Src/Mytouch.c **** 	tp_dev.sta=0;//消除触发信号 
 305:Core/Src/Mytouch.c **** 	tp_dev.xfac=0;//xfac用来标记是否校准过,所以校准之前必须清掉!以免错误	 
 306:Core/Src/Mytouch.c **** 	while(1)//如果连续10秒钟没有按下,则自动退出
 307:Core/Src/Mytouch.c **** 	{
 308:Core/Src/Mytouch.c **** 		tp_dev.scan(1);//扫描物理坐标
 309:Core/Src/Mytouch.c **** 		if((tp_dev.sta&0xc0)==TP_CATH_PRES)//按键按下了一次(此时按键松开了.)
 310:Core/Src/Mytouch.c **** 		{	
 311:Core/Src/Mytouch.c **** 			outtime=0;		
 312:Core/Src/Mytouch.c **** 			tp_dev.sta&=~(1<<6);//标记按键已经被处理过了.
 313:Core/Src/Mytouch.c **** 						   			   
 314:Core/Src/Mytouch.c **** 			pos_temp[cnt][0]=tp_dev.x[0];
 315:Core/Src/Mytouch.c **** 			pos_temp[cnt][1]=tp_dev.y[0];
 316:Core/Src/Mytouch.c **** 			cnt++;	  
 317:Core/Src/Mytouch.c **** 			switch(cnt)
 318:Core/Src/Mytouch.c **** 			{			   
 319:Core/Src/Mytouch.c **** 				case 1:						 
 320:Core/Src/Mytouch.c **** 					TP_Drow_Touch_Point(20,20,WHITE);				//清除点1 
 321:Core/Src/Mytouch.c **** 					TP_Drow_Touch_Point(lcddev.width-20,20,RED);	//画点2
 322:Core/Src/Mytouch.c **** 					break;
 323:Core/Src/Mytouch.c **** 				case 2:
 324:Core/Src/Mytouch.c ****  					TP_Drow_Touch_Point(lcddev.width-20,20,WHITE);	//清除点2
 325:Core/Src/Mytouch.c **** 					TP_Drow_Touch_Point(20,lcddev.height-20,RED);	//画点3
 326:Core/Src/Mytouch.c **** 					break;
 327:Core/Src/Mytouch.c **** 				case 3:
 328:Core/Src/Mytouch.c ****  					TP_Drow_Touch_Point(20,lcddev.height-20,WHITE);			//清除点3
 329:Core/Src/Mytouch.c ****  					TP_Drow_Touch_Point(lcddev.width-20,lcddev.height-20,RED);	//画点4
 330:Core/Src/Mytouch.c **** 					break;
 331:Core/Src/Mytouch.c **** 				case 4:	 //全部四个点已经得到
 332:Core/Src/Mytouch.c **** 	    		    //对边相等
 333:Core/Src/Mytouch.c **** 					tem1=abs(pos_temp[0][0]-pos_temp[1][0]);//x1-x2
 334:Core/Src/Mytouch.c **** 					tem2=abs(pos_temp[0][1]-pos_temp[1][1]);//y1-y2
 335:Core/Src/Mytouch.c **** 					tem1*=tem1;
 336:Core/Src/Mytouch.c **** 					tem2*=tem2;
 337:Core/Src/Mytouch.c **** 					d1=sqrt(tem1+tem2);//得到1,2的距离
 338:Core/Src/Mytouch.c **** 					
 339:Core/Src/Mytouch.c **** 					tem1=abs(pos_temp[2][0]-pos_temp[3][0]);//x3-x4
 340:Core/Src/Mytouch.c **** 					tem2=abs(pos_temp[2][1]-pos_temp[3][1]);//y3-y4
 341:Core/Src/Mytouch.c **** 					tem1*=tem1;
 342:Core/Src/Mytouch.c **** 					tem2*=tem2;
 343:Core/Src/Mytouch.c **** 					d2=sqrt(tem1+tem2);//得到3,4的距离
 344:Core/Src/Mytouch.c **** 					fac=(float)d1/d2;
 345:Core/Src/Mytouch.c **** 					if(fac<0.95||fac>1.05||d1==0||d2==0)//不合格
 346:Core/Src/Mytouch.c **** 					{
 347:Core/Src/Mytouch.c **** 						cnt=0;
 348:Core/Src/Mytouch.c ****  				    	TP_Drow_Touch_Point(lcddev.width-20,lcddev.height-20,WHITE);	//清除点4
 349:Core/Src/Mytouch.c ****    	 					TP_Drow_Touch_Point(20,20,RED);								//画点1
 350:Core/Src/Mytouch.c ****  						TP_Adj_Info_Show(pos_temp[0][0],pos_temp[0][1],pos_temp[1][0],pos_temp[1][1],pos_temp[2][0],
ARM GAS  /tmp/ccNZMix7.s 			page 31


 351:Core/Src/Mytouch.c ****  						continue;
 352:Core/Src/Mytouch.c **** 					}
 353:Core/Src/Mytouch.c **** 					tem1=abs(pos_temp[0][0]-pos_temp[2][0]);//x1-x3
 354:Core/Src/Mytouch.c **** 					tem2=abs(pos_temp[0][1]-pos_temp[2][1]);//y1-y3
 355:Core/Src/Mytouch.c **** 					tem1*=tem1;
 356:Core/Src/Mytouch.c **** 					tem2*=tem2;
 357:Core/Src/Mytouch.c **** 					d1=sqrt(tem1+tem2);//得到1,3的距离
 358:Core/Src/Mytouch.c **** 					
 359:Core/Src/Mytouch.c **** 					tem1=abs(pos_temp[1][0]-pos_temp[3][0]);//x2-x4
 360:Core/Src/Mytouch.c **** 					tem2=abs(pos_temp[1][1]-pos_temp[3][1]);//y2-y4
 361:Core/Src/Mytouch.c **** 					tem1*=tem1;
 362:Core/Src/Mytouch.c **** 					tem2*=tem2;
 363:Core/Src/Mytouch.c **** 					d2=sqrt(tem1+tem2);//得到2,4的距离
 364:Core/Src/Mytouch.c **** 					fac=(float)d1/d2;
 365:Core/Src/Mytouch.c **** 					if(fac<0.95||fac>1.05)//不合格
 366:Core/Src/Mytouch.c **** 					{
 367:Core/Src/Mytouch.c **** 						cnt=0;
 368:Core/Src/Mytouch.c ****  				    	TP_Drow_Touch_Point(lcddev.width-20,lcddev.height-20,WHITE);	//清除点4
 369:Core/Src/Mytouch.c ****    	 					TP_Drow_Touch_Point(20,20,RED);								//画点1
 370:Core/Src/Mytouch.c ****  						TP_Adj_Info_Show(pos_temp[0][0],pos_temp[0][1],pos_temp[1][0],pos_temp[1][1],pos_temp[2][0],
 371:Core/Src/Mytouch.c **** 						continue;
 372:Core/Src/Mytouch.c **** 					}//正确了
 373:Core/Src/Mytouch.c **** 								   
 374:Core/Src/Mytouch.c **** 					//对角线相等
 375:Core/Src/Mytouch.c **** 					tem1=abs(pos_temp[1][0]-pos_temp[2][0]);//x1-x3
 376:Core/Src/Mytouch.c **** 					tem2=abs(pos_temp[1][1]-pos_temp[2][1]);//y1-y3
 377:Core/Src/Mytouch.c **** 					tem1*=tem1;
 378:Core/Src/Mytouch.c **** 					tem2*=tem2;
 379:Core/Src/Mytouch.c **** 					d1=sqrt(tem1+tem2);//得到1,4的距离
 380:Core/Src/Mytouch.c **** 	
 381:Core/Src/Mytouch.c **** 					tem1=abs(pos_temp[0][0]-pos_temp[3][0]);//x2-x4
 382:Core/Src/Mytouch.c **** 					tem2=abs(pos_temp[0][1]-pos_temp[3][1]);//y2-y4
 383:Core/Src/Mytouch.c **** 					tem1*=tem1;
 384:Core/Src/Mytouch.c **** 					tem2*=tem2;
 385:Core/Src/Mytouch.c **** 					d2=sqrt(tem1+tem2);//得到2,3的距离
 386:Core/Src/Mytouch.c **** 					fac=(float)d1/d2;
 387:Core/Src/Mytouch.c **** 					if(fac<0.95||fac>1.05)//不合格
 388:Core/Src/Mytouch.c **** 					{
 389:Core/Src/Mytouch.c **** 						cnt=0;
 390:Core/Src/Mytouch.c ****  				    	TP_Drow_Touch_Point(lcddev.width-20,lcddev.height-20,WHITE);	//清除点4
 391:Core/Src/Mytouch.c ****    	 					TP_Drow_Touch_Point(20,20,RED);								//画点1
 392:Core/Src/Mytouch.c ****  						TP_Adj_Info_Show(pos_temp[0][0],pos_temp[0][1],pos_temp[1][0],pos_temp[1][1],pos_temp[2][0],
 393:Core/Src/Mytouch.c **** 						continue;
 394:Core/Src/Mytouch.c **** 					}//正确了
 395:Core/Src/Mytouch.c **** 					//计算结果
 396:Core/Src/Mytouch.c **** 					tp_dev.xfac=(float)(lcddev.width-40)/(pos_temp[1][0]-pos_temp[0][0]);//得到xfac		 
 397:Core/Src/Mytouch.c **** 					tp_dev.xoff=(lcddev.width-tp_dev.xfac*(pos_temp[1][0]+pos_temp[0][0]))/2;//得到xoff
 398:Core/Src/Mytouch.c **** 						  
 399:Core/Src/Mytouch.c **** 					tp_dev.yfac=(float)(lcddev.height-40)/(pos_temp[2][1]-pos_temp[0][1]);//得到yfac
 400:Core/Src/Mytouch.c **** 					tp_dev.yoff=(lcddev.height-tp_dev.yfac*(pos_temp[2][1]+pos_temp[0][1]))/2;//得到yoff  
 401:Core/Src/Mytouch.c **** 					if(abs(tp_dev.xfac)>2||abs(tp_dev.yfac)>2)//触屏和预设的相反了.
 402:Core/Src/Mytouch.c **** 					{
 403:Core/Src/Mytouch.c **** 						cnt=0;
 404:Core/Src/Mytouch.c ****  				    	TP_Drow_Touch_Point(lcddev.width-20,lcddev.height-20,WHITE);	//清除点4
 405:Core/Src/Mytouch.c ****    	 					TP_Drow_Touch_Point(20,20,RED);								//画点1
 406:Core/Src/Mytouch.c **** 						LCD_ShowString(40,26,lcddev.width,lcddev.height,16,"TP Need readjust!");
 407:Core/Src/Mytouch.c **** 						tp_dev.touchtype=!tp_dev.touchtype;//修改触屏类型.
ARM GAS  /tmp/ccNZMix7.s 			page 32


 408:Core/Src/Mytouch.c **** 						if(tp_dev.touchtype)//X,Y方向与屏幕相反
 409:Core/Src/Mytouch.c **** 						{
 410:Core/Src/Mytouch.c **** 							CMD_RDX=0X90;
 411:Core/Src/Mytouch.c **** 							CMD_RDY=0XD0;	 
 412:Core/Src/Mytouch.c **** 						}else				   //X,Y方向与屏幕相同
 413:Core/Src/Mytouch.c **** 						{
 414:Core/Src/Mytouch.c **** 							CMD_RDX=0XD0;
 415:Core/Src/Mytouch.c **** 							CMD_RDY=0X90;	 
 416:Core/Src/Mytouch.c **** 						}			    
 417:Core/Src/Mytouch.c **** 						continue;
 418:Core/Src/Mytouch.c **** 					}		
 419:Core/Src/Mytouch.c **** 					POINT_COLOR=BLUE;
 420:Core/Src/Mytouch.c **** 					LCD_Clear(WHITE);//清屏
 421:Core/Src/Mytouch.c **** 					LCD_ShowString(35,110,lcddev.width,lcddev.height,16,"Touch Screen Adjust OK!");//校正完成
 422:Core/Src/Mytouch.c **** 					HAL_Delay(1000);
 423:Core/Src/Mytouch.c **** 					TP_Save_Adjdata();  
 424:Core/Src/Mytouch.c ****  					LCD_Clear(WHITE);//清屏   
 425:Core/Src/Mytouch.c **** 					return;//校正完成				 
 426:Core/Src/Mytouch.c **** 			}
 427:Core/Src/Mytouch.c **** 		}
 428:Core/Src/Mytouch.c **** 		HAL_Delay(10);
 429:Core/Src/Mytouch.c **** 		outtime++;
 430:Core/Src/Mytouch.c **** 		if(outtime>1000)
 431:Core/Src/Mytouch.c **** 		{
 432:Core/Src/Mytouch.c **** 			TP_Get_Adjdata();
 433:Core/Src/Mytouch.c **** 			break;
 434:Core/Src/Mytouch.c **** 	 	} 
 435:Core/Src/Mytouch.c ****  	}
 436:Core/Src/Mytouch.c **** }
 437:Core/Src/Mytouch.c **** //触摸屏初始化  		    
 438:Core/Src/Mytouch.c **** //返回值:0,没有进行校准
 439:Core/Src/Mytouch.c **** //       1,进行过校准
 440:Core/Src/Mytouch.c **** u8 TP_Init(void)
 441:Core/Src/Mytouch.c **** {	
 442:Core/Src/Mytouch.c ****     GPIO_InitTypeDef GPIO_Initure;
 443:Core/Src/Mytouch.c **** 	if(lcddev.id==0X5510||lcddev.id==0X4342||lcddev.id==0X4384) //4.3 800*40MCU电容触摸屏或者4.
 444:Core/Src/Mytouch.c **** 	{
 445:Core/Src/Mytouch.c **** 		if(GT9147_Init()==0)	//是GT9147
 446:Core/Src/Mytouch.c **** 		{ 
 447:Core/Src/Mytouch.c **** 			tp_dev.scan=GT9147_Scan;	//扫描函数指向GT9147触摸屏扫描
 448:Core/Src/Mytouch.c **** 		}else
 449:Core/Src/Mytouch.c **** 		{
 450:Core/Src/Mytouch.c **** 			OTT2001A_Init();
 451:Core/Src/Mytouch.c **** 			tp_dev.scan=OTT2001A_Scan;	//扫描函数指向OTT2001A触摸屏扫描
 452:Core/Src/Mytouch.c **** 		}
 453:Core/Src/Mytouch.c **** 		tp_dev.touchtype|=0X80;	//电容屏 
 454:Core/Src/Mytouch.c **** 		tp_dev.touchtype|=lcddev.dir&0X01;//横屏还是竖屏 
 455:Core/Src/Mytouch.c **** 		return 0;
 456:Core/Src/Mytouch.c **** 	}else if(lcddev.id==0X1963||lcddev.id==0X7084||lcddev.id==0X7016)//SSD1963 7寸屏或者 7寸800*4
 457:Core/Src/Mytouch.c **** 	{
 458:Core/Src/Mytouch.c **** 		FT5206_Init();
 459:Core/Src/Mytouch.c **** 		tp_dev.scan=FT5206_Scan;		//扫描函数指向GT9147触摸屏扫描		
 460:Core/Src/Mytouch.c **** 		tp_dev.touchtype|=0X80;			//电容屏 
 461:Core/Src/Mytouch.c **** 		tp_dev.touchtype|=lcddev.dir&0X01;//横屏还是竖屏 
 462:Core/Src/Mytouch.c **** 		return 0;
 463:Core/Src/Mytouch.c **** 	}else
 464:Core/Src/Mytouch.c **** 	{
ARM GAS  /tmp/ccNZMix7.s 			page 33


 465:Core/Src/Mytouch.c ****         
 466:Core/Src/Mytouch.c **** 		__HAL_RCC_GPIOH_CLK_ENABLE();			//开启GPIOH时钟
 467:Core/Src/Mytouch.c **** 		__HAL_RCC_GPIOI_CLK_ENABLE();			//开启GPIOI时钟
 468:Core/Src/Mytouch.c **** 		__HAL_RCC_GPIOG_CLK_ENABLE();			//开启GPIOG时钟
 469:Core/Src/Mytouch.c ****         
 470:Core/Src/Mytouch.c **** 		//PH6
 471:Core/Src/Mytouch.c **** 		GPIO_Initure.Pin=GPIO_PIN_6;            //PH6
 472:Core/Src/Mytouch.c **** 		GPIO_Initure.Mode=GPIO_MODE_OUTPUT_PP;  //推挽输出
 473:Core/Src/Mytouch.c **** 		GPIO_Initure.Pull=GPIO_PULLUP;          //上拉
 474:Core/Src/Mytouch.c **** 		GPIO_Initure.Speed=GPIO_SPEED_FREQ_VERY_HIGH;     //高速
 475:Core/Src/Mytouch.c **** 		HAL_GPIO_Init(GPIOH,&GPIO_Initure);     //初始化
 476:Core/Src/Mytouch.c ****         
 477:Core/Src/Mytouch.c **** 		//PI3,8
 478:Core/Src/Mytouch.c **** 		GPIO_Initure.Pin=GPIO_PIN_3|GPIO_PIN_8; //PI3,8
 479:Core/Src/Mytouch.c **** 		HAL_GPIO_Init(GPIOI,&GPIO_Initure);     //初始化
 480:Core/Src/Mytouch.c ****         
 481:Core/Src/Mytouch.c **** 		//PH7
 482:Core/Src/Mytouch.c **** 		GPIO_Initure.Pin=GPIO_PIN_7;            //PH7
 483:Core/Src/Mytouch.c **** 		GPIO_Initure.Mode=GPIO_MODE_INPUT;      //输入
 484:Core/Src/Mytouch.c **** 		HAL_GPIO_Init(GPIOH,&GPIO_Initure);     //初始化
 485:Core/Src/Mytouch.c ****         
 486:Core/Src/Mytouch.c **** 		//PG3
 487:Core/Src/Mytouch.c **** 		GPIO_Initure.Pin=GPIO_PIN_3;            //PG3
 488:Core/Src/Mytouch.c **** 		HAL_GPIO_Init(GPIOG,&GPIO_Initure);     //初始化
 489:Core/Src/Mytouch.c ****         
 490:Core/Src/Mytouch.c **** 		TP_Read_XY(&tp_dev.x[0],&tp_dev.y[0]);//第一次读取初始化	 
 491:Core/Src/Mytouch.c **** 		AT24CXX_Init();		//初始化24CXX
 492:Core/Src/Mytouch.c **** 		if(TP_Get_Adjdata())return 0;//已经校准
 493:Core/Src/Mytouch.c **** 		else			   //未校准?
 494:Core/Src/Mytouch.c **** 		{ 										    
 495:Core/Src/Mytouch.c **** 			LCD_Clear(WHITE);//清屏
 496:Core/Src/Mytouch.c **** 			TP_Adjust();  	//屏幕校准 
 497:Core/Src/Mytouch.c **** 			TP_Save_Adjdata();	 
 498:Core/Src/Mytouch.c **** 		}			
 499:Core/Src/Mytouch.c **** 		TP_Get_Adjdata();	
 500:Core/Src/Mytouch.c **** 	}
 501:Core/Src/Mytouch.c **** 	return 1; 									 
 502:Core/Src/Mytouch.c **** }
 503:Core/Src/Mytouch.c **** 
 504:Core/Src/Mytouch.c **** 
 505:Core/Src/Mytouch.c **** /* 触摸芯片IIC接口 */
 506:Core/Src/Mytouch.c **** 
 507:Core/Src/Mytouch.c ****  //控制I2C速度的延时
 508:Core/Src/Mytouch.c **** void CT_Delay(void)
 509:Core/Src/Mytouch.c **** {
 1276              		.loc 1 509 1 is_stmt 1 view -0
 1277              		.cfi_startproc
 1278              		@ args = 0, pretend = 0, frame = 0
 1279              		@ frame_needed = 0, uses_anonymous_args = 0
 1280 0000 08B5     		push	{r3, lr}
 1281              	.LCFI16:
 1282              		.cfi_def_cfa_offset 8
 1283              		.cfi_offset 3, -8
 1284              		.cfi_offset 14, -4
 510:Core/Src/Mytouch.c **** 	delay_us(2);
 1285              		.loc 1 510 2 view .LVU290
 1286 0002 0220     		movs	r0, #2
ARM GAS  /tmp/ccNZMix7.s 			page 34


 1287 0004 FFF7FEFF 		bl	delay_us
 1288              	.LVL125:
 511:Core/Src/Mytouch.c **** } 
 1289              		.loc 1 511 1 is_stmt 0 view .LVU291
 1290 0008 08BD     		pop	{r3, pc}
 1291              		.cfi_endproc
 1292              	.LFE160:
 1294              		.section	.text.CT_IIC_Init,"ax",%progbits
 1295              		.align	1
 1296              		.global	CT_IIC_Init
 1297              		.syntax unified
 1298              		.thumb
 1299              		.thumb_func
 1300              		.fpu fpv5-d16
 1302              	CT_IIC_Init:
 1303              	.LFB161:
 512:Core/Src/Mytouch.c **** 
 513:Core/Src/Mytouch.c **** //电容触摸芯片IIC接口初始化
 514:Core/Src/Mytouch.c **** void CT_IIC_Init(void)
 515:Core/Src/Mytouch.c **** {					     
 1304              		.loc 1 515 1 is_stmt 1 view -0
 1305              		.cfi_startproc
 1306              		@ args = 0, pretend = 0, frame = 32
 1307              		@ frame_needed = 0, uses_anonymous_args = 0
 1308 0000 00B5     		push	{lr}
 1309              	.LCFI17:
 1310              		.cfi_def_cfa_offset 4
 1311              		.cfi_offset 14, -4
 1312 0002 89B0     		sub	sp, sp, #36
 1313              	.LCFI18:
 1314              		.cfi_def_cfa_offset 40
 516:Core/Src/Mytouch.c ****     GPIO_InitTypeDef GPIO_Initure;
 1315              		.loc 1 516 5 view .LVU293
 517:Core/Src/Mytouch.c ****     __HAL_RCC_GPIOH_CLK_ENABLE();			//开启GPIOH时钟
 1316              		.loc 1 517 5 view .LVU294
 1317              	.LBB2:
 1318              		.loc 1 517 5 view .LVU295
 1319              		.loc 1 517 5 view .LVU296
 1320 0004 164B     		ldr	r3, .L77
 1321 0006 D3F8E020 		ldr	r2, [r3, #224]
 1322 000a 42F08002 		orr	r2, r2, #128
 1323 000e C3F8E020 		str	r2, [r3, #224]
 1324              		.loc 1 517 5 view .LVU297
 1325 0012 D3F8E020 		ldr	r2, [r3, #224]
 1326 0016 02F08002 		and	r2, r2, #128
 1327 001a 0192     		str	r2, [sp, #4]
 1328              		.loc 1 517 5 view .LVU298
 1329 001c 019A     		ldr	r2, [sp, #4]
 1330              	.LBE2:
 1331              		.loc 1 517 5 view .LVU299
 518:Core/Src/Mytouch.c **** 	__HAL_RCC_GPIOI_CLK_ENABLE();			//开启GPIOI时钟
 1332              		.loc 1 518 2 view .LVU300
 1333              	.LBB3:
 1334              		.loc 1 518 2 view .LVU301
 1335              		.loc 1 518 2 view .LVU302
 1336 001e D3F8E020 		ldr	r2, [r3, #224]
 1337 0022 42F48072 		orr	r2, r2, #256
ARM GAS  /tmp/ccNZMix7.s 			page 35


 1338 0026 C3F8E020 		str	r2, [r3, #224]
 1339              		.loc 1 518 2 view .LVU303
 1340 002a D3F8E030 		ldr	r3, [r3, #224]
 1341 002e 03F48073 		and	r3, r3, #256
 1342 0032 0293     		str	r3, [sp, #8]
 1343              		.loc 1 518 2 view .LVU304
 1344 0034 029B     		ldr	r3, [sp, #8]
 1345              	.LBE3:
 1346              		.loc 1 518 2 view .LVU305
 519:Core/Src/Mytouch.c ****     
 520:Core/Src/Mytouch.c ****     GPIO_Initure.Pin=GPIO_PIN_6;            //PH6
 1347              		.loc 1 520 5 view .LVU306
 1348              		.loc 1 520 21 is_stmt 0 view .LVU307
 1349 0036 4023     		movs	r3, #64
 1350 0038 0393     		str	r3, [sp, #12]
 521:Core/Src/Mytouch.c ****     GPIO_Initure.Mode=GPIO_MODE_OUTPUT_OD;  //开漏输出
 1351              		.loc 1 521 5 is_stmt 1 view .LVU308
 1352              		.loc 1 521 22 is_stmt 0 view .LVU309
 1353 003a 1123     		movs	r3, #17
 1354 003c 0493     		str	r3, [sp, #16]
 522:Core/Src/Mytouch.c ****     GPIO_Initure.Pull=GPIO_PULLUP;          //上拉
 1355              		.loc 1 522 5 is_stmt 1 view .LVU310
 1356              		.loc 1 522 22 is_stmt 0 view .LVU311
 1357 003e 0123     		movs	r3, #1
 1358 0040 0593     		str	r3, [sp, #20]
 523:Core/Src/Mytouch.c ****     GPIO_Initure.Speed=GPIO_SPEED_FREQ_VERY_HIGH;     //高速
 1359              		.loc 1 523 5 is_stmt 1 view .LVU312
 1360              		.loc 1 523 23 is_stmt 0 view .LVU313
 1361 0042 0323     		movs	r3, #3
 1362 0044 0693     		str	r3, [sp, #24]
 524:Core/Src/Mytouch.c ****     HAL_GPIO_Init(GPIOH,&GPIO_Initure);     //初始化
 1363              		.loc 1 524 5 is_stmt 1 view .LVU314
 1364 0046 03A9     		add	r1, sp, #12
 1365 0048 0648     		ldr	r0, .L77+4
 1366 004a FFF7FEFF 		bl	HAL_GPIO_Init
 1367              	.LVL126:
 525:Core/Src/Mytouch.c **** 	
 526:Core/Src/Mytouch.c ****     GPIO_Initure.Pin=GPIO_PIN_3;            //PI3
 1368              		.loc 1 526 5 view .LVU315
 1369              		.loc 1 526 21 is_stmt 0 view .LVU316
 1370 004e 0823     		movs	r3, #8
 1371 0050 0393     		str	r3, [sp, #12]
 527:Core/Src/Mytouch.c ****     HAL_GPIO_Init(GPIOI,&GPIO_Initure);     //初始化
 1372              		.loc 1 527 5 is_stmt 1 view .LVU317
 1373 0052 03A9     		add	r1, sp, #12
 1374 0054 0448     		ldr	r0, .L77+8
 1375 0056 FFF7FEFF 		bl	HAL_GPIO_Init
 1376              	.LVL127:
 528:Core/Src/Mytouch.c **** }
 1377              		.loc 1 528 1 is_stmt 0 view .LVU318
 1378 005a 09B0     		add	sp, sp, #36
 1379              	.LCFI19:
 1380              		.cfi_def_cfa_offset 4
 1381              		@ sp needed
 1382 005c 5DF804FB 		ldr	pc, [sp], #4
 1383              	.L78:
 1384              		.align	2
ARM GAS  /tmp/ccNZMix7.s 			page 36


 1385              	.L77:
 1386 0060 00440258 		.word	1476543488
 1387 0064 001C0258 		.word	1476533248
 1388 0068 00200258 		.word	1476534272
 1389              		.cfi_endproc
 1390              	.LFE161:
 1392              		.section	.text.CT_IIC_Start,"ax",%progbits
 1393              		.align	1
 1394              		.global	CT_IIC_Start
 1395              		.syntax unified
 1396              		.thumb
 1397              		.thumb_func
 1398              		.fpu fpv5-d16
 1400              	CT_IIC_Start:
 1401              	.LFB162:
 529:Core/Src/Mytouch.c **** 
 530:Core/Src/Mytouch.c **** //产生IIC起始信号
 531:Core/Src/Mytouch.c **** void CT_IIC_Start(void)
 532:Core/Src/Mytouch.c **** {
 1402              		.loc 1 532 1 is_stmt 1 view -0
 1403              		.cfi_startproc
 1404              		@ args = 0, pretend = 0, frame = 0
 1405              		@ frame_needed = 0, uses_anonymous_args = 0
 1406 0000 38B5     		push	{r3, r4, r5, lr}
 1407              	.LCFI20:
 1408              		.cfi_def_cfa_offset 16
 1409              		.cfi_offset 3, -16
 1410              		.cfi_offset 4, -12
 1411              		.cfi_offset 5, -8
 1412              		.cfi_offset 14, -4
 533:Core/Src/Mytouch.c **** 	CT_IIC_SDA(1);	  	  
 1413              		.loc 1 533 2 view .LVU320
 1414 0002 0E4D     		ldr	r5, .L81
 1415 0004 0122     		movs	r2, #1
 1416 0006 0821     		movs	r1, #8
 1417 0008 2846     		mov	r0, r5
 1418 000a FFF7FEFF 		bl	HAL_GPIO_WritePin
 1419              	.LVL128:
 534:Core/Src/Mytouch.c **** 	CT_IIC_SCL(1);
 1420              		.loc 1 534 2 view .LVU321
 1421 000e 0C4C     		ldr	r4, .L81+4
 1422 0010 0122     		movs	r2, #1
 1423 0012 4021     		movs	r1, #64
 1424 0014 2046     		mov	r0, r4
 1425 0016 FFF7FEFF 		bl	HAL_GPIO_WritePin
 1426              	.LVL129:
 535:Core/Src/Mytouch.c ****     CT_Delay();
 1427              		.loc 1 535 5 view .LVU322
 1428 001a FFF7FEFF 		bl	CT_Delay
 1429              	.LVL130:
 536:Core/Src/Mytouch.c ****  	CT_IIC_SDA(0);//START:when CLK is high,DATA change form high to low 
 1430              		.loc 1 536 3 view .LVU323
 1431 001e 0022     		movs	r2, #0
 1432 0020 0821     		movs	r1, #8
 1433 0022 2846     		mov	r0, r5
 1434 0024 FFF7FEFF 		bl	HAL_GPIO_WritePin
 1435              	.LVL131:
ARM GAS  /tmp/ccNZMix7.s 			page 37


 537:Core/Src/Mytouch.c ****     CT_Delay();
 1436              		.loc 1 537 5 view .LVU324
 1437 0028 FFF7FEFF 		bl	CT_Delay
 1438              	.LVL132:
 538:Core/Src/Mytouch.c **** 	CT_IIC_SCL(0);//钳住I2C总线，准备发送或接收数据 
 1439              		.loc 1 538 2 view .LVU325
 1440 002c 0022     		movs	r2, #0
 1441 002e 4021     		movs	r1, #64
 1442 0030 2046     		mov	r0, r4
 1443 0032 FFF7FEFF 		bl	HAL_GPIO_WritePin
 1444              	.LVL133:
 539:Core/Src/Mytouch.c ****     CT_Delay();
 1445              		.loc 1 539 5 view .LVU326
 1446 0036 FFF7FEFF 		bl	CT_Delay
 1447              	.LVL134:
 540:Core/Src/Mytouch.c **** }	 
 1448              		.loc 1 540 1 is_stmt 0 view .LVU327
 1449 003a 38BD     		pop	{r3, r4, r5, pc}
 1450              	.L82:
 1451              		.align	2
 1452              	.L81:
 1453 003c 00200258 		.word	1476534272
 1454 0040 001C0258 		.word	1476533248
 1455              		.cfi_endproc
 1456              	.LFE162:
 1458              		.section	.text.CT_IIC_Stop,"ax",%progbits
 1459              		.align	1
 1460              		.global	CT_IIC_Stop
 1461              		.syntax unified
 1462              		.thumb
 1463              		.thumb_func
 1464              		.fpu fpv5-d16
 1466              	CT_IIC_Stop:
 1467              	.LFB163:
 541:Core/Src/Mytouch.c **** 
 542:Core/Src/Mytouch.c **** //产生IIC停止信号
 543:Core/Src/Mytouch.c **** void CT_IIC_Stop(void)
 544:Core/Src/Mytouch.c **** {
 1468              		.loc 1 544 1 is_stmt 1 view -0
 1469              		.cfi_startproc
 1470              		@ args = 0, pretend = 0, frame = 0
 1471              		@ frame_needed = 0, uses_anonymous_args = 0
 1472 0000 10B5     		push	{r4, lr}
 1473              	.LCFI21:
 1474              		.cfi_def_cfa_offset 8
 1475              		.cfi_offset 4, -8
 1476              		.cfi_offset 14, -4
 545:Core/Src/Mytouch.c **** 	CT_IIC_SDA(0);
 1477              		.loc 1 545 2 view .LVU329
 1478 0002 0A4C     		ldr	r4, .L85
 1479 0004 0022     		movs	r2, #0
 1480 0006 0821     		movs	r1, #8
 1481 0008 2046     		mov	r0, r4
 1482 000a FFF7FEFF 		bl	HAL_GPIO_WritePin
 1483              	.LVL135:
 546:Core/Src/Mytouch.c ****     CT_Delay();
 1484              		.loc 1 546 5 view .LVU330
ARM GAS  /tmp/ccNZMix7.s 			page 38


 1485 000e FFF7FEFF 		bl	CT_Delay
 1486              	.LVL136:
 547:Core/Src/Mytouch.c **** 	CT_IIC_SCL(1);
 1487              		.loc 1 547 2 view .LVU331
 1488 0012 0122     		movs	r2, #1
 1489 0014 4021     		movs	r1, #64
 1490 0016 0648     		ldr	r0, .L85+4
 1491 0018 FFF7FEFF 		bl	HAL_GPIO_WritePin
 1492              	.LVL137:
 548:Core/Src/Mytouch.c **** 	CT_IIC_SDA(1);//STOP:when CLK is high DATA change form low to high
 1493              		.loc 1 548 2 view .LVU332
 1494 001c 0122     		movs	r2, #1
 1495 001e 0821     		movs	r1, #8
 1496 0020 2046     		mov	r0, r4
 1497 0022 FFF7FEFF 		bl	HAL_GPIO_WritePin
 1498              	.LVL138:
 549:Core/Src/Mytouch.c **** 	CT_Delay();
 1499              		.loc 1 549 2 view .LVU333
 1500 0026 FFF7FEFF 		bl	CT_Delay
 1501              	.LVL139:
 550:Core/Src/Mytouch.c **** }
 1502              		.loc 1 550 1 is_stmt 0 view .LVU334
 1503 002a 10BD     		pop	{r4, pc}
 1504              	.L86:
 1505              		.align	2
 1506              	.L85:
 1507 002c 00200258 		.word	1476534272
 1508 0030 001C0258 		.word	1476533248
 1509              		.cfi_endproc
 1510              	.LFE163:
 1512              		.section	.text.CT_IIC_Wait_Ack,"ax",%progbits
 1513              		.align	1
 1514              		.global	CT_IIC_Wait_Ack
 1515              		.syntax unified
 1516              		.thumb
 1517              		.thumb_func
 1518              		.fpu fpv5-d16
 1520              	CT_IIC_Wait_Ack:
 1521              	.LFB164:
 551:Core/Src/Mytouch.c **** //等待应答信号到来
 552:Core/Src/Mytouch.c **** //返回值：1，接收应答失败
 553:Core/Src/Mytouch.c **** //        0，接收应答成功
 554:Core/Src/Mytouch.c **** u8 CT_IIC_Wait_Ack(void)
 555:Core/Src/Mytouch.c **** {
 1522              		.loc 1 555 1 is_stmt 1 view -0
 1523              		.cfi_startproc
 1524              		@ args = 0, pretend = 0, frame = 0
 1525              		@ frame_needed = 0, uses_anonymous_args = 0
 1526 0000 38B5     		push	{r3, r4, r5, lr}
 1527              	.LCFI22:
 1528              		.cfi_def_cfa_offset 16
 1529              		.cfi_offset 3, -16
 1530              		.cfi_offset 4, -12
 1531              		.cfi_offset 5, -8
 1532              		.cfi_offset 14, -4
 556:Core/Src/Mytouch.c **** 	u8 ucErrTime=0;
 1533              		.loc 1 556 2 view .LVU336
ARM GAS  /tmp/ccNZMix7.s 			page 39


 1534              	.LVL140:
 557:Core/Src/Mytouch.c ****     u8 rack = 0;
 1535              		.loc 1 557 5 view .LVU337
 558:Core/Src/Mytouch.c **** 
 559:Core/Src/Mytouch.c **** 	CT_IIC_SDA(1);	
 1536              		.loc 1 559 2 view .LVU338
 1537 0002 0122     		movs	r2, #1
 1538 0004 0821     		movs	r1, #8
 1539 0006 1148     		ldr	r0, .L92
 1540 0008 FFF7FEFF 		bl	HAL_GPIO_WritePin
 1541              	.LVL141:
 560:Core/Src/Mytouch.c **** 	CT_Delay();
 1542              		.loc 1 560 2 view .LVU339
 1543 000c FFF7FEFF 		bl	CT_Delay
 1544              	.LVL142:
 561:Core/Src/Mytouch.c **** 	CT_IIC_SCL(1);
 1545              		.loc 1 561 2 view .LVU340
 1546 0010 0122     		movs	r2, #1
 1547 0012 4021     		movs	r1, #64
 1548 0014 0E48     		ldr	r0, .L92+4
 1549 0016 FFF7FEFF 		bl	HAL_GPIO_WritePin
 1550              	.LVL143:
 562:Core/Src/Mytouch.c **** 	CT_Delay();
 1551              		.loc 1 562 2 view .LVU341
 1552 001a FFF7FEFF 		bl	CT_Delay
 1553              	.LVL144:
 563:Core/Src/Mytouch.c ****     
 564:Core/Src/Mytouch.c **** 	while(CT_READ_SDA)
 1554              		.loc 1 564 2 view .LVU342
 556:Core/Src/Mytouch.c ****     u8 rack = 0;
 1555              		.loc 1 556 5 is_stmt 0 view .LVU343
 1556 001e 0024     		movs	r4, #0
 1557              	.LVL145:
 1558              	.L88:
 1559              		.loc 1 564 7 is_stmt 1 view .LVU344
 1560              		.loc 1 564 8 is_stmt 0 view .LVU345
 1561 0020 0821     		movs	r1, #8
 1562 0022 0A48     		ldr	r0, .L92
 1563 0024 FFF7FEFF 		bl	HAL_GPIO_ReadPin
 1564              	.LVL146:
 1565              		.loc 1 564 7 view .LVU346
 1566 0028 0546     		mov	r5, r0
 1567 002a 30B1     		cbz	r0, .L89
 565:Core/Src/Mytouch.c **** 	{
 566:Core/Src/Mytouch.c **** 		ucErrTime++;
 1568              		.loc 1 566 3 is_stmt 1 view .LVU347
 1569              		.loc 1 566 12 is_stmt 0 view .LVU348
 1570 002c 0134     		adds	r4, r4, #1
 1571              	.LVL147:
 1572              		.loc 1 566 12 view .LVU349
 1573 002e E4B2     		uxtb	r4, r4
 1574              	.LVL148:
 567:Core/Src/Mytouch.c ****         
 568:Core/Src/Mytouch.c **** 		if(ucErrTime>250)
 1575              		.loc 1 568 3 is_stmt 1 view .LVU350
 1576              		.loc 1 568 5 is_stmt 0 view .LVU351
 1577 0030 FA2C     		cmp	r4, #250
ARM GAS  /tmp/ccNZMix7.s 			page 40


 1578 0032 F5D9     		bls	.L88
 569:Core/Src/Mytouch.c **** 		{
 570:Core/Src/Mytouch.c **** 			CT_IIC_Stop();
 1579              		.loc 1 570 4 is_stmt 1 view .LVU352
 1580 0034 FFF7FEFF 		bl	CT_IIC_Stop
 1581              	.LVL149:
 571:Core/Src/Mytouch.c ****             rack = 1;
 1582              		.loc 1 571 13 view .LVU353
 572:Core/Src/Mytouch.c ****             break;
 1583              		.loc 1 572 13 view .LVU354
 571:Core/Src/Mytouch.c ****             rack = 1;
 1584              		.loc 1 571 18 is_stmt 0 view .LVU355
 1585 0038 0125     		movs	r5, #1
 1586              	.LVL150:
 1587              	.L89:
 573:Core/Src/Mytouch.c **** 		} 
 574:Core/Src/Mytouch.c **** 	}
 575:Core/Src/Mytouch.c ****     
 576:Core/Src/Mytouch.c **** 	CT_IIC_SCL(0);//时钟输出0 	
 1588              		.loc 1 576 2 is_stmt 1 view .LVU356
 1589 003a 0022     		movs	r2, #0
 1590 003c 4021     		movs	r1, #64
 1591 003e 0448     		ldr	r0, .L92+4
 1592 0040 FFF7FEFF 		bl	HAL_GPIO_WritePin
 1593              	.LVL151:
 577:Core/Src/Mytouch.c ****     CT_Delay(); 
 1594              		.loc 1 577 5 view .LVU357
 1595 0044 FFF7FEFF 		bl	CT_Delay
 1596              	.LVL152:
 578:Core/Src/Mytouch.c ****     return rack;
 1597              		.loc 1 578 5 view .LVU358
 579:Core/Src/Mytouch.c **** } 
 1598              		.loc 1 579 1 is_stmt 0 view .LVU359
 1599 0048 2846     		mov	r0, r5
 1600 004a 38BD     		pop	{r3, r4, r5, pc}
 1601              	.LVL153:
 1602              	.L93:
 1603              		.loc 1 579 1 view .LVU360
 1604              		.align	2
 1605              	.L92:
 1606 004c 00200258 		.word	1476534272
 1607 0050 001C0258 		.word	1476533248
 1608              		.cfi_endproc
 1609              	.LFE164:
 1611              		.section	.text.CT_IIC_Ack,"ax",%progbits
 1612              		.align	1
 1613              		.global	CT_IIC_Ack
 1614              		.syntax unified
 1615              		.thumb
 1616              		.thumb_func
 1617              		.fpu fpv5-d16
 1619              	CT_IIC_Ack:
 1620              	.LFB165:
 580:Core/Src/Mytouch.c **** 
 581:Core/Src/Mytouch.c **** //产生ACK应答
 582:Core/Src/Mytouch.c **** void CT_IIC_Ack(void)
 583:Core/Src/Mytouch.c **** {
ARM GAS  /tmp/ccNZMix7.s 			page 41


 1621              		.loc 1 583 1 is_stmt 1 view -0
 1622              		.cfi_startproc
 1623              		@ args = 0, pretend = 0, frame = 0
 1624              		@ frame_needed = 0, uses_anonymous_args = 0
 1625 0000 38B5     		push	{r3, r4, r5, lr}
 1626              	.LCFI23:
 1627              		.cfi_def_cfa_offset 16
 1628              		.cfi_offset 3, -16
 1629              		.cfi_offset 4, -12
 1630              		.cfi_offset 5, -8
 1631              		.cfi_offset 14, -4
 584:Core/Src/Mytouch.c **** 	CT_IIC_SDA(0);
 1632              		.loc 1 584 2 view .LVU362
 1633 0002 0F4C     		ldr	r4, .L96
 1634 0004 0022     		movs	r2, #0
 1635 0006 0821     		movs	r1, #8
 1636 0008 2046     		mov	r0, r4
 1637 000a FFF7FEFF 		bl	HAL_GPIO_WritePin
 1638              	.LVL154:
 585:Core/Src/Mytouch.c **** 	CT_Delay();
 1639              		.loc 1 585 2 view .LVU363
 1640 000e FFF7FEFF 		bl	CT_Delay
 1641              	.LVL155:
 586:Core/Src/Mytouch.c **** 	CT_IIC_SCL(1);
 1642              		.loc 1 586 2 view .LVU364
 1643 0012 0C4D     		ldr	r5, .L96+4
 1644 0014 0122     		movs	r2, #1
 1645 0016 4021     		movs	r1, #64
 1646 0018 2846     		mov	r0, r5
 1647 001a FFF7FEFF 		bl	HAL_GPIO_WritePin
 1648              	.LVL156:
 587:Core/Src/Mytouch.c **** 	CT_Delay();
 1649              		.loc 1 587 2 view .LVU365
 1650 001e FFF7FEFF 		bl	CT_Delay
 1651              	.LVL157:
 588:Core/Src/Mytouch.c **** 	CT_IIC_SCL(0);
 1652              		.loc 1 588 2 view .LVU366
 1653 0022 0022     		movs	r2, #0
 1654 0024 4021     		movs	r1, #64
 1655 0026 2846     		mov	r0, r5
 1656 0028 FFF7FEFF 		bl	HAL_GPIO_WritePin
 1657              	.LVL158:
 589:Core/Src/Mytouch.c **** 	CT_Delay();
 1658              		.loc 1 589 2 view .LVU367
 1659 002c FFF7FEFF 		bl	CT_Delay
 1660              	.LVL159:
 590:Core/Src/Mytouch.c **** 	CT_IIC_SDA(1);
 1661              		.loc 1 590 2 view .LVU368
 1662 0030 0122     		movs	r2, #1
 1663 0032 0821     		movs	r1, #8
 1664 0034 2046     		mov	r0, r4
 1665 0036 FFF7FEFF 		bl	HAL_GPIO_WritePin
 1666              	.LVL160:
 591:Core/Src/Mytouch.c **** 	CT_Delay();
 1667              		.loc 1 591 2 view .LVU369
 1668 003a FFF7FEFF 		bl	CT_Delay
 1669              	.LVL161:
ARM GAS  /tmp/ccNZMix7.s 			page 42


 592:Core/Src/Mytouch.c **** }
 1670              		.loc 1 592 1 is_stmt 0 view .LVU370
 1671 003e 38BD     		pop	{r3, r4, r5, pc}
 1672              	.L97:
 1673              		.align	2
 1674              	.L96:
 1675 0040 00200258 		.word	1476534272
 1676 0044 001C0258 		.word	1476533248
 1677              		.cfi_endproc
 1678              	.LFE165:
 1680              		.section	.text.CT_IIC_NAck,"ax",%progbits
 1681              		.align	1
 1682              		.global	CT_IIC_NAck
 1683              		.syntax unified
 1684              		.thumb
 1685              		.thumb_func
 1686              		.fpu fpv5-d16
 1688              	CT_IIC_NAck:
 1689              	.LFB166:
 593:Core/Src/Mytouch.c **** //不产生ACK应答		    
 594:Core/Src/Mytouch.c **** void CT_IIC_NAck(void)
 595:Core/Src/Mytouch.c **** {
 1690              		.loc 1 595 1 is_stmt 1 view -0
 1691              		.cfi_startproc
 1692              		@ args = 0, pretend = 0, frame = 0
 1693              		@ frame_needed = 0, uses_anonymous_args = 0
 1694 0000 10B5     		push	{r4, lr}
 1695              	.LCFI24:
 1696              		.cfi_def_cfa_offset 8
 1697              		.cfi_offset 4, -8
 1698              		.cfi_offset 14, -4
 596:Core/Src/Mytouch.c **** 	CT_IIC_SDA(1);
 1699              		.loc 1 596 2 view .LVU372
 1700 0002 0122     		movs	r2, #1
 1701 0004 0821     		movs	r1, #8
 1702 0006 0A48     		ldr	r0, .L100
 1703 0008 FFF7FEFF 		bl	HAL_GPIO_WritePin
 1704              	.LVL162:
 597:Core/Src/Mytouch.c **** 	CT_Delay();
 1705              		.loc 1 597 2 view .LVU373
 1706 000c FFF7FEFF 		bl	CT_Delay
 1707              	.LVL163:
 598:Core/Src/Mytouch.c **** 	CT_IIC_SCL(1);
 1708              		.loc 1 598 2 view .LVU374
 1709 0010 084C     		ldr	r4, .L100+4
 1710 0012 0122     		movs	r2, #1
 1711 0014 4021     		movs	r1, #64
 1712 0016 2046     		mov	r0, r4
 1713 0018 FFF7FEFF 		bl	HAL_GPIO_WritePin
 1714              	.LVL164:
 599:Core/Src/Mytouch.c **** 	CT_Delay();
 1715              		.loc 1 599 2 view .LVU375
 1716 001c FFF7FEFF 		bl	CT_Delay
 1717              	.LVL165:
 600:Core/Src/Mytouch.c **** 	CT_IIC_SCL(0);
 1718              		.loc 1 600 2 view .LVU376
 1719 0020 0022     		movs	r2, #0
ARM GAS  /tmp/ccNZMix7.s 			page 43


 1720 0022 4021     		movs	r1, #64
 1721 0024 2046     		mov	r0, r4
 1722 0026 FFF7FEFF 		bl	HAL_GPIO_WritePin
 1723              	.LVL166:
 601:Core/Src/Mytouch.c ****     CT_Delay();
 1724              		.loc 1 601 5 view .LVU377
 1725 002a FFF7FEFF 		bl	CT_Delay
 1726              	.LVL167:
 602:Core/Src/Mytouch.c **** }					 				     
 1727              		.loc 1 602 1 is_stmt 0 view .LVU378
 1728 002e 10BD     		pop	{r4, pc}
 1729              	.L101:
 1730              		.align	2
 1731              	.L100:
 1732 0030 00200258 		.word	1476534272
 1733 0034 001C0258 		.word	1476533248
 1734              		.cfi_endproc
 1735              	.LFE166:
 1737              		.section	.text.CT_IIC_Send_Byte,"ax",%progbits
 1738              		.align	1
 1739              		.global	CT_IIC_Send_Byte
 1740              		.syntax unified
 1741              		.thumb
 1742              		.thumb_func
 1743              		.fpu fpv5-d16
 1745              	CT_IIC_Send_Byte:
 1746              	.LVL168:
 1747              	.LFB167:
 603:Core/Src/Mytouch.c **** //IIC发送一个字节
 604:Core/Src/Mytouch.c **** //返回从机有无应答
 605:Core/Src/Mytouch.c **** //1，有应答
 606:Core/Src/Mytouch.c **** //0，无应答			  
 607:Core/Src/Mytouch.c **** void CT_IIC_Send_Byte(u8 txd)
 608:Core/Src/Mytouch.c **** {                        
 1748              		.loc 1 608 1 is_stmt 1 view -0
 1749              		.cfi_startproc
 1750              		@ args = 0, pretend = 0, frame = 0
 1751              		@ frame_needed = 0, uses_anonymous_args = 0
 1752              		.loc 1 608 1 is_stmt 0 view .LVU380
 1753 0000 70B5     		push	{r4, r5, r6, lr}
 1754              	.LCFI25:
 1755              		.cfi_def_cfa_offset 16
 1756              		.cfi_offset 4, -16
 1757              		.cfi_offset 5, -12
 1758              		.cfi_offset 6, -8
 1759              		.cfi_offset 14, -4
 1760 0002 0446     		mov	r4, r0
 609:Core/Src/Mytouch.c ****     u8 t;   
 1761              		.loc 1 609 5 is_stmt 1 view .LVU381
 610:Core/Src/Mytouch.c **** 
 611:Core/Src/Mytouch.c **** 	for(t=0;t<8;t++)
 1762              		.loc 1 611 2 view .LVU382
 1763              	.LVL169:
 1764              		.loc 1 611 7 is_stmt 0 view .LVU383
 1765 0004 0025     		movs	r5, #0
 1766              		.loc 1 611 2 view .LVU384
 1767 0006 17E0     		b	.L103
ARM GAS  /tmp/ccNZMix7.s 			page 44


 1768              	.LVL170:
 1769              	.L104:
 612:Core/Src/Mytouch.c ****     {              
 613:Core/Src/Mytouch.c ****         CT_IIC_SDA((txd&0x80)>>7); 
 1770              		.loc 1 613 9 discriminator 2 view .LVU385
 1771 0008 0022     		movs	r2, #0
 1772 000a 0821     		movs	r1, #8
 1773 000c 1348     		ldr	r0, .L109
 1774 000e FFF7FEFF 		bl	HAL_GPIO_WritePin
 1775              	.LVL171:
 1776              	.L105:
 614:Core/Src/Mytouch.c ****         CT_Delay();
 1777              		.loc 1 614 9 is_stmt 1 discriminator 2 view .LVU386
 1778 0012 FFF7FEFF 		bl	CT_Delay
 1779              	.LVL172:
 615:Core/Src/Mytouch.c **** 		CT_IIC_SCL(1); 
 1780              		.loc 1 615 3 discriminator 2 view .LVU387
 1781 0016 124E     		ldr	r6, .L109+4
 1782 0018 0122     		movs	r2, #1
 1783 001a 4021     		movs	r1, #64
 1784 001c 3046     		mov	r0, r6
 1785 001e FFF7FEFF 		bl	HAL_GPIO_WritePin
 1786              	.LVL173:
 616:Core/Src/Mytouch.c **** 		CT_Delay();
 1787              		.loc 1 616 3 discriminator 2 view .LVU388
 1788 0022 FFF7FEFF 		bl	CT_Delay
 1789              	.LVL174:
 617:Core/Src/Mytouch.c **** 		CT_IIC_SCL(0);	
 1790              		.loc 1 617 3 discriminator 2 view .LVU389
 1791 0026 0022     		movs	r2, #0
 1792 0028 4021     		movs	r1, #64
 1793 002a 3046     		mov	r0, r6
 1794 002c FFF7FEFF 		bl	HAL_GPIO_WritePin
 1795              	.LVL175:
 618:Core/Src/Mytouch.c ****         txd<<=1; 	      
 1796              		.loc 1 618 9 discriminator 2 view .LVU390
 1797              		.loc 1 618 12 is_stmt 0 discriminator 2 view .LVU391
 1798 0030 6400     		lsls	r4, r4, #1
 1799              	.LVL176:
 1800              		.loc 1 618 12 discriminator 2 view .LVU392
 1801 0032 E4B2     		uxtb	r4, r4
 1802              	.LVL177:
 611:Core/Src/Mytouch.c ****     {              
 1803              		.loc 1 611 14 is_stmt 1 discriminator 2 view .LVU393
 611:Core/Src/Mytouch.c ****     {              
 1804              		.loc 1 611 15 is_stmt 0 discriminator 2 view .LVU394
 1805 0034 0135     		adds	r5, r5, #1
 1806              	.LVL178:
 611:Core/Src/Mytouch.c ****     {              
 1807              		.loc 1 611 15 discriminator 2 view .LVU395
 1808 0036 EDB2     		uxtb	r5, r5
 1809              	.LVL179:
 1810              	.L103:
 611:Core/Src/Mytouch.c ****     {              
 1811              		.loc 1 611 10 is_stmt 1 discriminator 1 view .LVU396
 611:Core/Src/Mytouch.c ****     {              
 1812              		.loc 1 611 2 is_stmt 0 discriminator 1 view .LVU397
ARM GAS  /tmp/ccNZMix7.s 			page 45


 1813 0038 072D     		cmp	r5, #7
 1814 003a 08D8     		bhi	.L108
 613:Core/Src/Mytouch.c ****         CT_Delay();
 1815              		.loc 1 613 9 is_stmt 1 view .LVU398
 1816 003c 14F0800F 		tst	r4, #128
 1817 0040 E2D0     		beq	.L104
 613:Core/Src/Mytouch.c ****         CT_Delay();
 1818              		.loc 1 613 9 is_stmt 0 discriminator 1 view .LVU399
 1819 0042 0122     		movs	r2, #1
 1820 0044 0821     		movs	r1, #8
 1821 0046 0548     		ldr	r0, .L109
 1822 0048 FFF7FEFF 		bl	HAL_GPIO_WritePin
 1823              	.LVL180:
 1824 004c E1E7     		b	.L105
 1825              	.L108:
 619:Core/Src/Mytouch.c ****     }
 620:Core/Src/Mytouch.c ****     CT_IIC_SDA(1);
 1826              		.loc 1 620 5 is_stmt 1 view .LVU400
 1827 004e 0122     		movs	r2, #1
 1828 0050 0821     		movs	r1, #8
 1829 0052 0248     		ldr	r0, .L109
 1830 0054 FFF7FEFF 		bl	HAL_GPIO_WritePin
 1831              	.LVL181:
 621:Core/Src/Mytouch.c **** } 	    
 1832              		.loc 1 621 1 is_stmt 0 view .LVU401
 1833 0058 70BD     		pop	{r4, r5, r6, pc}
 1834              	.LVL182:
 1835              	.L110:
 1836              		.loc 1 621 1 view .LVU402
 1837 005a 00BF     		.align	2
 1838              	.L109:
 1839 005c 00200258 		.word	1476534272
 1840 0060 001C0258 		.word	1476533248
 1841              		.cfi_endproc
 1842              	.LFE167:
 1844              		.section	.text.CT_IIC_Read_Byte,"ax",%progbits
 1845              		.align	1
 1846              		.global	CT_IIC_Read_Byte
 1847              		.syntax unified
 1848              		.thumb
 1849              		.thumb_func
 1850              		.fpu fpv5-d16
 1852              	CT_IIC_Read_Byte:
 1853              	.LVL183:
 1854              	.LFB168:
 622:Core/Src/Mytouch.c **** //读1个字节，ack=1时，发送ACK，ack=0，发送nACK   
 623:Core/Src/Mytouch.c **** u8 CT_IIC_Read_Byte(unsigned char ack)
 624:Core/Src/Mytouch.c **** {
 1855              		.loc 1 624 1 is_stmt 1 view -0
 1856              		.cfi_startproc
 1857              		@ args = 0, pretend = 0, frame = 0
 1858              		@ frame_needed = 0, uses_anonymous_args = 0
 1859              		.loc 1 624 1 is_stmt 0 view .LVU404
 1860 0000 70B5     		push	{r4, r5, r6, lr}
 1861              	.LCFI26:
 1862              		.cfi_def_cfa_offset 16
 1863              		.cfi_offset 4, -16
ARM GAS  /tmp/ccNZMix7.s 			page 46


 1864              		.cfi_offset 5, -12
 1865              		.cfi_offset 6, -8
 1866              		.cfi_offset 14, -4
 1867 0002 0646     		mov	r6, r0
 625:Core/Src/Mytouch.c **** 	u8 i,receive=0;
 1868              		.loc 1 625 2 is_stmt 1 view .LVU405
 1869              	.LVL184:
 626:Core/Src/Mytouch.c **** 
 627:Core/Src/Mytouch.c **** 	for(i=0;i<8;i++ )
 1870              		.loc 1 627 2 view .LVU406
 625:Core/Src/Mytouch.c **** 	u8 i,receive=0;
 1871              		.loc 1 625 7 is_stmt 0 view .LVU407
 1872 0004 0024     		movs	r4, #0
 1873              		.loc 1 627 7 view .LVU408
 1874 0006 2546     		mov	r5, r4
 1875              		.loc 1 627 2 view .LVU409
 1876 0008 08E0     		b	.L112
 1877              	.LVL185:
 1878              	.L113:
 628:Core/Src/Mytouch.c **** 	{ 
 629:Core/Src/Mytouch.c ****         receive<<=1;
 630:Core/Src/Mytouch.c **** 		CT_IIC_SCL(1); 	    	   
 631:Core/Src/Mytouch.c **** 		CT_Delay();
 632:Core/Src/Mytouch.c ****         
 633:Core/Src/Mytouch.c **** 		if(CT_READ_SDA)receive++;   
 634:Core/Src/Mytouch.c **** 		CT_IIC_SCL(0);	
 1879              		.loc 1 634 3 is_stmt 1 discriminator 2 view .LVU410
 1880 000a 0022     		movs	r2, #0
 1881 000c 4021     		movs	r1, #64
 1882 000e 1148     		ldr	r0, .L119
 1883 0010 FFF7FEFF 		bl	HAL_GPIO_WritePin
 1884              	.LVL186:
 635:Core/Src/Mytouch.c **** 		CT_Delay();
 1885              		.loc 1 635 3 discriminator 2 view .LVU411
 1886 0014 FFF7FEFF 		bl	CT_Delay
 1887              	.LVL187:
 627:Core/Src/Mytouch.c **** 	{ 
 1888              		.loc 1 627 14 discriminator 2 view .LVU412
 627:Core/Src/Mytouch.c **** 	{ 
 1889              		.loc 1 627 15 is_stmt 0 discriminator 2 view .LVU413
 1890 0018 0135     		adds	r5, r5, #1
 1891              	.LVL188:
 627:Core/Src/Mytouch.c **** 	{ 
 1892              		.loc 1 627 15 discriminator 2 view .LVU414
 1893 001a EDB2     		uxtb	r5, r5
 1894              	.LVL189:
 1895              	.L112:
 627:Core/Src/Mytouch.c **** 	{ 
 1896              		.loc 1 627 10 is_stmt 1 discriminator 1 view .LVU415
 627:Core/Src/Mytouch.c **** 	{ 
 1897              		.loc 1 627 2 is_stmt 0 discriminator 1 view .LVU416
 1898 001c 072D     		cmp	r5, #7
 1899 001e 11D8     		bhi	.L118
 629:Core/Src/Mytouch.c **** 		CT_IIC_SCL(1); 	    	   
 1900              		.loc 1 629 9 is_stmt 1 view .LVU417
 629:Core/Src/Mytouch.c **** 		CT_IIC_SCL(1); 	    	   
 1901              		.loc 1 629 16 is_stmt 0 view .LVU418
ARM GAS  /tmp/ccNZMix7.s 			page 47


 1902 0020 6400     		lsls	r4, r4, #1
 1903              	.LVL190:
 629:Core/Src/Mytouch.c **** 		CT_IIC_SCL(1); 	    	   
 1904              		.loc 1 629 16 view .LVU419
 1905 0022 E4B2     		uxtb	r4, r4
 1906              	.LVL191:
 630:Core/Src/Mytouch.c **** 		CT_Delay();
 1907              		.loc 1 630 3 is_stmt 1 view .LVU420
 1908 0024 0122     		movs	r2, #1
 1909 0026 4021     		movs	r1, #64
 1910 0028 0A48     		ldr	r0, .L119
 1911 002a FFF7FEFF 		bl	HAL_GPIO_WritePin
 1912              	.LVL192:
 631:Core/Src/Mytouch.c ****         
 1913              		.loc 1 631 3 view .LVU421
 1914 002e FFF7FEFF 		bl	CT_Delay
 1915              	.LVL193:
 633:Core/Src/Mytouch.c **** 		CT_IIC_SCL(0);	
 1916              		.loc 1 633 3 view .LVU422
 633:Core/Src/Mytouch.c **** 		CT_IIC_SCL(0);	
 1917              		.loc 1 633 6 is_stmt 0 view .LVU423
 1918 0032 0821     		movs	r1, #8
 1919 0034 0848     		ldr	r0, .L119+4
 1920 0036 FFF7FEFF 		bl	HAL_GPIO_ReadPin
 1921              	.LVL194:
 633:Core/Src/Mytouch.c **** 		CT_IIC_SCL(0);	
 1922              		.loc 1 633 5 view .LVU424
 1923 003a 0028     		cmp	r0, #0
 1924 003c E5D0     		beq	.L113
 633:Core/Src/Mytouch.c **** 		CT_IIC_SCL(0);	
 1925              		.loc 1 633 18 is_stmt 1 discriminator 1 view .LVU425
 633:Core/Src/Mytouch.c **** 		CT_IIC_SCL(0);	
 1926              		.loc 1 633 25 is_stmt 0 discriminator 1 view .LVU426
 1927 003e 0134     		adds	r4, r4, #1
 1928              	.LVL195:
 633:Core/Src/Mytouch.c **** 		CT_IIC_SCL(0);	
 1929              		.loc 1 633 25 discriminator 1 view .LVU427
 1930 0040 E4B2     		uxtb	r4, r4
 1931              	.LVL196:
 633:Core/Src/Mytouch.c **** 		CT_IIC_SCL(0);	
 1932              		.loc 1 633 25 discriminator 1 view .LVU428
 1933 0042 E2E7     		b	.L113
 1934              	.L118:
 636:Core/Src/Mytouch.c ****         
 637:Core/Src/Mytouch.c **** 	}	  				 
 638:Core/Src/Mytouch.c **** 	if (!ack)
 1935              		.loc 1 638 2 is_stmt 1 view .LVU429
 1936              		.loc 1 638 5 is_stmt 0 view .LVU430
 1937 0044 1EB9     		cbnz	r6, .L115
 639:Core/Src/Mytouch.c ****         CT_IIC_NAck();//发送nACK
 1938              		.loc 1 639 9 is_stmt 1 view .LVU431
 1939 0046 FFF7FEFF 		bl	CT_IIC_NAck
 1940              	.LVL197:
 1941              	.L116:
 640:Core/Src/Mytouch.c **** 	else 
 641:Core/Src/Mytouch.c ****         CT_IIC_Ack(); //发送ACK   
 642:Core/Src/Mytouch.c ****  	return receive;
ARM GAS  /tmp/ccNZMix7.s 			page 48


 1942              		.loc 1 642 3 view .LVU432
 643:Core/Src/Mytouch.c **** }
 1943              		.loc 1 643 1 is_stmt 0 view .LVU433
 1944 004a 2046     		mov	r0, r4
 1945 004c 70BD     		pop	{r4, r5, r6, pc}
 1946              	.LVL198:
 1947              	.L115:
 641:Core/Src/Mytouch.c ****  	return receive;
 1948              		.loc 1 641 9 is_stmt 1 view .LVU434
 1949 004e FFF7FEFF 		bl	CT_IIC_Ack
 1950              	.LVL199:
 1951 0052 FAE7     		b	.L116
 1952              	.L120:
 1953              		.align	2
 1954              	.L119:
 1955 0054 001C0258 		.word	1476533248
 1956 0058 00200258 		.word	1476534272
 1957              		.cfi_endproc
 1958              	.LFE168:
 1960              		.section	.text.GT9147_WR_Reg,"ax",%progbits
 1961              		.align	1
 1962              		.global	GT9147_WR_Reg
 1963              		.syntax unified
 1964              		.thumb
 1965              		.thumb_func
 1966              		.fpu fpv5-d16
 1968              	GT9147_WR_Reg:
 1969              	.LVL200:
 1970              	.LFB170:
 644:Core/Src/Mytouch.c **** 
 645:Core/Src/Mytouch.c **** /* GT9147 */
 646:Core/Src/Mytouch.c **** 
 647:Core/Src/Mytouch.c **** 
 648:Core/Src/Mytouch.c **** const u8 GT9147_CFG_TBL[]=
 649:Core/Src/Mytouch.c **** { 
 650:Core/Src/Mytouch.c **** 	0X60,0XE0,0X01,0X20,0X03,0X05,0X35,0X00,0X02,0X08,
 651:Core/Src/Mytouch.c **** 	0X1E,0X08,0X50,0X3C,0X0F,0X05,0X00,0X00,0XFF,0X67,
 652:Core/Src/Mytouch.c **** 	0X50,0X00,0X00,0X18,0X1A,0X1E,0X14,0X89,0X28,0X0A,
 653:Core/Src/Mytouch.c **** 	0X30,0X2E,0XBB,0X0A,0X03,0X00,0X00,0X02,0X33,0X1D,
 654:Core/Src/Mytouch.c **** 	0X00,0X00,0X00,0X00,0X00,0X00,0X00,0X32,0X00,0X00,
 655:Core/Src/Mytouch.c **** 	0X2A,0X1C,0X5A,0X94,0XC5,0X02,0X07,0X00,0X00,0X00,
 656:Core/Src/Mytouch.c **** 	0XB5,0X1F,0X00,0X90,0X28,0X00,0X77,0X32,0X00,0X62,
 657:Core/Src/Mytouch.c **** 	0X3F,0X00,0X52,0X50,0X00,0X52,0X00,0X00,0X00,0X00,
 658:Core/Src/Mytouch.c **** 	0X00,0X00,0X00,0X00,0X00,0X00,0X00,0X00,0X00,0X00,
 659:Core/Src/Mytouch.c **** 	0X00,0X00,0X00,0X00,0X00,0X00,0X00,0X00,0X00,0X0F,
 660:Core/Src/Mytouch.c **** 	0X0F,0X03,0X06,0X10,0X42,0XF8,0X0F,0X14,0X00,0X00,
 661:Core/Src/Mytouch.c **** 	0X00,0X00,0X1A,0X18,0X16,0X14,0X12,0X10,0X0E,0X0C,
 662:Core/Src/Mytouch.c **** 	0X0A,0X08,0X00,0X00,0X00,0X00,0X00,0X00,0X00,0X00,
 663:Core/Src/Mytouch.c **** 	0X00,0X00,0X00,0X00,0X00,0X00,0X00,0X00,0X00,0X00,
 664:Core/Src/Mytouch.c **** 	0X00,0X00,0X29,0X28,0X24,0X22,0X20,0X1F,0X1E,0X1D,
 665:Core/Src/Mytouch.c **** 	0X0E,0X0C,0X0A,0X08,0X06,0X05,0X04,0X02,0X00,0XFF,
 666:Core/Src/Mytouch.c **** 	0X00,0X00,0X00,0X00,0X00,0X00,0X00,0X00,0X00,0X00,
 667:Core/Src/Mytouch.c **** 	0X00,0XFF,0XFF,0XFF,0XFF,0XFF,0XFF,0XFF,0XFF,0XFF,
 668:Core/Src/Mytouch.c **** 	0XFF,0XFF,0XFF,0XFF,
 669:Core/Src/Mytouch.c **** };  
 670:Core/Src/Mytouch.c **** //发送GT9147配置参数
 671:Core/Src/Mytouch.c **** //mode:0,参数不保存到flash
ARM GAS  /tmp/ccNZMix7.s 			page 49


 672:Core/Src/Mytouch.c **** //     1,参数保存到flash
 673:Core/Src/Mytouch.c **** u8 GT9147_Send_Cfg(u8 mode)
 674:Core/Src/Mytouch.c **** {
 675:Core/Src/Mytouch.c **** 	u8 buf[2];
 676:Core/Src/Mytouch.c **** 	u8 i=0;
 677:Core/Src/Mytouch.c **** 	buf[0]=0;
 678:Core/Src/Mytouch.c **** 	buf[1]=mode;	//是否写入到GT9147 FLASH?  即是否掉电保存
 679:Core/Src/Mytouch.c **** 	for(i=0;i<sizeof(GT9147_CFG_TBL);i++)buf[0]+=GT9147_CFG_TBL[i];//计算校验和
 680:Core/Src/Mytouch.c ****     buf[0]=(~buf[0])+1;
 681:Core/Src/Mytouch.c **** 	GT9147_WR_Reg(GT_CFGS_REG,(u8*)GT9147_CFG_TBL,sizeof(GT9147_CFG_TBL));//发送寄存器配置
 682:Core/Src/Mytouch.c **** 	GT9147_WR_Reg(GT_CHECK_REG,buf,2);//写入校验和,和配置更新标记
 683:Core/Src/Mytouch.c **** 	return 0;
 684:Core/Src/Mytouch.c **** } 
 685:Core/Src/Mytouch.c **** //向GT9147写入一次数据
 686:Core/Src/Mytouch.c **** //reg:起始寄存器地址
 687:Core/Src/Mytouch.c **** //buf:数据缓缓存区
 688:Core/Src/Mytouch.c **** //len:写数据长度
 689:Core/Src/Mytouch.c **** //返回值:0,成功;1,失败.
 690:Core/Src/Mytouch.c **** u8 GT9147_WR_Reg(u16 reg,u8 *buf,u8 len)
 691:Core/Src/Mytouch.c **** {
 1971              		.loc 1 691 1 view -0
 1972              		.cfi_startproc
 1973              		@ args = 0, pretend = 0, frame = 0
 1974              		@ frame_needed = 0, uses_anonymous_args = 0
 1975              		.loc 1 691 1 is_stmt 0 view .LVU436
 1976 0000 F8B5     		push	{r3, r4, r5, r6, r7, lr}
 1977              	.LCFI27:
 1978              		.cfi_def_cfa_offset 24
 1979              		.cfi_offset 3, -24
 1980              		.cfi_offset 4, -20
 1981              		.cfi_offset 5, -16
 1982              		.cfi_offset 6, -12
 1983              		.cfi_offset 7, -8
 1984              		.cfi_offset 14, -4
 1985 0002 0446     		mov	r4, r0
 1986 0004 0F46     		mov	r7, r1
 1987 0006 1546     		mov	r5, r2
 692:Core/Src/Mytouch.c **** 	u8 i;
 1988              		.loc 1 692 2 is_stmt 1 view .LVU437
 693:Core/Src/Mytouch.c **** 	u8 ret=0;
 1989              		.loc 1 693 2 view .LVU438
 1990              	.LVL201:
 694:Core/Src/Mytouch.c **** 	CT_IIC_Start();	
 1991              		.loc 1 694 2 view .LVU439
 1992 0008 FFF7FEFF 		bl	CT_IIC_Start
 1993              	.LVL202:
 695:Core/Src/Mytouch.c ****  	CT_IIC_Send_Byte(GT_CMD_WR);   	//发送写命令 	 
 1994              		.loc 1 695 3 view .LVU440
 1995 000c 2820     		movs	r0, #40
 1996 000e FFF7FEFF 		bl	CT_IIC_Send_Byte
 1997              	.LVL203:
 696:Core/Src/Mytouch.c **** 	CT_IIC_Wait_Ack();
 1998              		.loc 1 696 2 view .LVU441
 1999 0012 FFF7FEFF 		bl	CT_IIC_Wait_Ack
 2000              	.LVL204:
 697:Core/Src/Mytouch.c **** 	CT_IIC_Send_Byte(reg>>8);   	//发送高8位地址
 2001              		.loc 1 697 2 view .LVU442
ARM GAS  /tmp/ccNZMix7.s 			page 50


 2002 0016 200A     		lsrs	r0, r4, #8
 2003 0018 FFF7FEFF 		bl	CT_IIC_Send_Byte
 2004              	.LVL205:
 698:Core/Src/Mytouch.c **** 	CT_IIC_Wait_Ack(); 	 										  		   
 2005              		.loc 1 698 2 view .LVU443
 2006 001c FFF7FEFF 		bl	CT_IIC_Wait_Ack
 2007              	.LVL206:
 699:Core/Src/Mytouch.c **** 	CT_IIC_Send_Byte(reg&0XFF);   	//发送低8位地址
 2008              		.loc 1 699 2 view .LVU444
 2009 0020 E0B2     		uxtb	r0, r4
 2010 0022 FFF7FEFF 		bl	CT_IIC_Send_Byte
 2011              	.LVL207:
 700:Core/Src/Mytouch.c **** 	CT_IIC_Wait_Ack();  
 2012              		.loc 1 700 2 view .LVU445
 2013 0026 FFF7FEFF 		bl	CT_IIC_Wait_Ack
 2014              	.LVL208:
 701:Core/Src/Mytouch.c **** 	for(i=0;i<len;i++)
 2015              		.loc 1 701 2 view .LVU446
 693:Core/Src/Mytouch.c **** 	CT_IIC_Start();	
 2016              		.loc 1 693 5 is_stmt 0 view .LVU447
 2017 002a 0026     		movs	r6, #0
 2018              		.loc 1 701 7 view .LVU448
 2019 002c 3446     		mov	r4, r6
 2020              		.loc 1 701 2 view .LVU449
 2021 002e 01E0     		b	.L122
 2022              	.LVL209:
 2023              	.L126:
 2024              		.loc 1 701 16 is_stmt 1 discriminator 2 view .LVU450
 2025              		.loc 1 701 17 is_stmt 0 discriminator 2 view .LVU451
 2026 0030 0134     		adds	r4, r4, #1
 2027              	.LVL210:
 2028              		.loc 1 701 17 discriminator 2 view .LVU452
 2029 0032 E4B2     		uxtb	r4, r4
 2030              	.LVL211:
 2031              	.L122:
 2032              		.loc 1 701 10 is_stmt 1 discriminator 1 view .LVU453
 2033              		.loc 1 701 2 is_stmt 0 discriminator 1 view .LVU454
 2034 0034 AC42     		cmp	r4, r5
 2035 0036 07D2     		bcs	.L123
 702:Core/Src/Mytouch.c **** 	{	   
 703:Core/Src/Mytouch.c ****     	CT_IIC_Send_Byte(buf[i]);  	//发数据
 2036              		.loc 1 703 6 is_stmt 1 view .LVU455
 2037 0038 385D     		ldrb	r0, [r7, r4]	@ zero_extendqisi2
 2038 003a FFF7FEFF 		bl	CT_IIC_Send_Byte
 2039              	.LVL212:
 704:Core/Src/Mytouch.c **** 		ret=CT_IIC_Wait_Ack();
 2040              		.loc 1 704 3 view .LVU456
 2041              		.loc 1 704 7 is_stmt 0 view .LVU457
 2042 003e FFF7FEFF 		bl	CT_IIC_Wait_Ack
 2043              	.LVL213:
 705:Core/Src/Mytouch.c **** 		if(ret)break;  
 2044              		.loc 1 705 3 is_stmt 1 view .LVU458
 2045              		.loc 1 705 5 is_stmt 0 view .LVU459
 2046 0042 0646     		mov	r6, r0
 2047 0044 0028     		cmp	r0, #0
 2048 0046 F3D0     		beq	.L126
 2049              	.LVL214:
ARM GAS  /tmp/ccNZMix7.s 			page 51


 2050              	.L123:
 706:Core/Src/Mytouch.c **** 	}
 707:Core/Src/Mytouch.c ****     CT_IIC_Stop();					//产生一个停止条件	    
 2051              		.loc 1 707 5 is_stmt 1 view .LVU460
 2052 0048 FFF7FEFF 		bl	CT_IIC_Stop
 2053              	.LVL215:
 708:Core/Src/Mytouch.c **** 	return ret; 
 2054              		.loc 1 708 2 view .LVU461
 709:Core/Src/Mytouch.c **** }
 2055              		.loc 1 709 1 is_stmt 0 view .LVU462
 2056 004c 3046     		mov	r0, r6
 2057 004e F8BD     		pop	{r3, r4, r5, r6, r7, pc}
 2058              		.loc 1 709 1 view .LVU463
 2059              		.cfi_endproc
 2060              	.LFE170:
 2062              		.section	.text.GT9147_Send_Cfg,"ax",%progbits
 2063              		.align	1
 2064              		.global	GT9147_Send_Cfg
 2065              		.syntax unified
 2066              		.thumb
 2067              		.thumb_func
 2068              		.fpu fpv5-d16
 2070              	GT9147_Send_Cfg:
 2071              	.LVL216:
 2072              	.LFB169:
 674:Core/Src/Mytouch.c **** 	u8 buf[2];
 2073              		.loc 1 674 1 is_stmt 1 view -0
 2074              		.cfi_startproc
 2075              		@ args = 0, pretend = 0, frame = 8
 2076              		@ frame_needed = 0, uses_anonymous_args = 0
 674:Core/Src/Mytouch.c **** 	u8 buf[2];
 2077              		.loc 1 674 1 is_stmt 0 view .LVU465
 2078 0000 00B5     		push	{lr}
 2079              	.LCFI28:
 2080              		.cfi_def_cfa_offset 4
 2081              		.cfi_offset 14, -4
 2082 0002 83B0     		sub	sp, sp, #12
 2083              	.LCFI29:
 2084              		.cfi_def_cfa_offset 16
 675:Core/Src/Mytouch.c **** 	u8 i=0;
 2085              		.loc 1 675 2 is_stmt 1 view .LVU466
 676:Core/Src/Mytouch.c **** 	buf[0]=0;
 2086              		.loc 1 676 2 view .LVU467
 2087              	.LVL217:
 677:Core/Src/Mytouch.c **** 	buf[1]=mode;	//是否写入到GT9147 FLASH?  即是否掉电保存
 2088              		.loc 1 677 2 view .LVU468
 677:Core/Src/Mytouch.c **** 	buf[1]=mode;	//是否写入到GT9147 FLASH?  即是否掉电保存
 2089              		.loc 1 677 8 is_stmt 0 view .LVU469
 2090 0004 0023     		movs	r3, #0
 2091 0006 8DF80430 		strb	r3, [sp, #4]
 678:Core/Src/Mytouch.c **** 	for(i=0;i<sizeof(GT9147_CFG_TBL);i++)buf[0]+=GT9147_CFG_TBL[i];//计算校验和
 2092              		.loc 1 678 2 is_stmt 1 view .LVU470
 678:Core/Src/Mytouch.c **** 	for(i=0;i<sizeof(GT9147_CFG_TBL);i++)buf[0]+=GT9147_CFG_TBL[i];//计算校验和
 2093              		.loc 1 678 8 is_stmt 0 view .LVU471
 2094 000a 8DF80500 		strb	r0, [sp, #5]
 679:Core/Src/Mytouch.c ****     buf[0]=(~buf[0])+1;
 2095              		.loc 1 679 2 is_stmt 1 view .LVU472
ARM GAS  /tmp/ccNZMix7.s 			page 52


 679:Core/Src/Mytouch.c ****     buf[0]=(~buf[0])+1;
 2096              		.loc 1 679 2 is_stmt 0 view .LVU473
 2097 000e 08E0     		b	.L128
 2098              	.LVL218:
 2099              	.L129:
 679:Core/Src/Mytouch.c ****     buf[0]=(~buf[0])+1;
 2100              		.loc 1 679 39 is_stmt 1 discriminator 3 view .LVU474
 679:Core/Src/Mytouch.c ****     buf[0]=(~buf[0])+1;
 2101              		.loc 1 679 61 is_stmt 0 discriminator 3 view .LVU475
 2102 0010 0F4A     		ldr	r2, .L131
 2103 0012 D25C     		ldrb	r2, [r2, r3]	@ zero_extendqisi2
 679:Core/Src/Mytouch.c ****     buf[0]=(~buf[0])+1;
 2104              		.loc 1 679 45 discriminator 3 view .LVU476
 2105 0014 9DF80410 		ldrb	r1, [sp, #4]	@ zero_extendqisi2
 2106 0018 0A44     		add	r2, r2, r1
 2107 001a 8DF80420 		strb	r2, [sp, #4]
 679:Core/Src/Mytouch.c ****     buf[0]=(~buf[0])+1;
 2108              		.loc 1 679 35 is_stmt 1 discriminator 3 view .LVU477
 679:Core/Src/Mytouch.c ****     buf[0]=(~buf[0])+1;
 2109              		.loc 1 679 36 is_stmt 0 discriminator 3 view .LVU478
 2110 001e 0133     		adds	r3, r3, #1
 2111              	.LVL219:
 679:Core/Src/Mytouch.c ****     buf[0]=(~buf[0])+1;
 2112              		.loc 1 679 36 discriminator 3 view .LVU479
 2113 0020 DBB2     		uxtb	r3, r3
 2114              	.LVL220:
 2115              	.L128:
 679:Core/Src/Mytouch.c ****     buf[0]=(~buf[0])+1;
 2116              		.loc 1 679 10 is_stmt 1 discriminator 1 view .LVU480
 679:Core/Src/Mytouch.c ****     buf[0]=(~buf[0])+1;
 2117              		.loc 1 679 2 is_stmt 0 discriminator 1 view .LVU481
 2118 0022 B72B     		cmp	r3, #183
 2119 0024 F4D9     		bls	.L129
 680:Core/Src/Mytouch.c **** 	GT9147_WR_Reg(GT_CFGS_REG,(u8*)GT9147_CFG_TBL,sizeof(GT9147_CFG_TBL));//发送寄存器配置
 2120              		.loc 1 680 5 is_stmt 1 view .LVU482
 680:Core/Src/Mytouch.c **** 	GT9147_WR_Reg(GT_CFGS_REG,(u8*)GT9147_CFG_TBL,sizeof(GT9147_CFG_TBL));//发送寄存器配置
 2121              		.loc 1 680 17 is_stmt 0 view .LVU483
 2122 0026 9DF80430 		ldrb	r3, [sp, #4]	@ zero_extendqisi2
 2123              	.LVL221:
 680:Core/Src/Mytouch.c **** 	GT9147_WR_Reg(GT_CFGS_REG,(u8*)GT9147_CFG_TBL,sizeof(GT9147_CFG_TBL));//发送寄存器配置
 2124              		.loc 1 680 11 view .LVU484
 2125 002a 5B42     		rsbs	r3, r3, #0
 2126 002c 8DF80430 		strb	r3, [sp, #4]
 681:Core/Src/Mytouch.c **** 	GT9147_WR_Reg(GT_CHECK_REG,buf,2);//写入校验和,和配置更新标记
 2127              		.loc 1 681 2 is_stmt 1 view .LVU485
 2128 0030 B822     		movs	r2, #184
 2129 0032 0749     		ldr	r1, .L131
 2130 0034 48F24700 		movw	r0, #32839
 2131              	.LVL222:
 681:Core/Src/Mytouch.c **** 	GT9147_WR_Reg(GT_CHECK_REG,buf,2);//写入校验和,和配置更新标记
 2132              		.loc 1 681 2 is_stmt 0 view .LVU486
 2133 0038 FFF7FEFF 		bl	GT9147_WR_Reg
 2134              	.LVL223:
 682:Core/Src/Mytouch.c **** 	return 0;
 2135              		.loc 1 682 2 is_stmt 1 view .LVU487
 2136 003c 0222     		movs	r2, #2
 2137 003e 01A9     		add	r1, sp, #4
ARM GAS  /tmp/ccNZMix7.s 			page 53


 2138 0040 48F2FF00 		movw	r0, #33023
 2139 0044 FFF7FEFF 		bl	GT9147_WR_Reg
 2140              	.LVL224:
 683:Core/Src/Mytouch.c **** } 
 2141              		.loc 1 683 2 view .LVU488
 684:Core/Src/Mytouch.c **** //向GT9147写入一次数据
 2142              		.loc 1 684 1 is_stmt 0 view .LVU489
 2143 0048 0020     		movs	r0, #0
 2144 004a 03B0     		add	sp, sp, #12
 2145              	.LCFI30:
 2146              		.cfi_def_cfa_offset 4
 2147              		@ sp needed
 2148 004c 5DF804FB 		ldr	pc, [sp], #4
 2149              	.L132:
 2150              		.align	2
 2151              	.L131:
 2152 0050 00000000 		.word	.LANCHOR3
 2153              		.cfi_endproc
 2154              	.LFE169:
 2156              		.section	.text.GT9147_RD_Reg,"ax",%progbits
 2157              		.align	1
 2158              		.global	GT9147_RD_Reg
 2159              		.syntax unified
 2160              		.thumb
 2161              		.thumb_func
 2162              		.fpu fpv5-d16
 2164              	GT9147_RD_Reg:
 2165              	.LVL225:
 2166              	.LFB171:
 710:Core/Src/Mytouch.c **** //从GT9147读出一次数据
 711:Core/Src/Mytouch.c **** //reg:起始寄存器地址
 712:Core/Src/Mytouch.c **** //buf:数据缓缓存区
 713:Core/Src/Mytouch.c **** //len:读数据长度			  
 714:Core/Src/Mytouch.c **** void GT9147_RD_Reg(u16 reg,u8 *buf,u8 len)
 715:Core/Src/Mytouch.c **** {
 2167              		.loc 1 715 1 is_stmt 1 view -0
 2168              		.cfi_startproc
 2169              		@ args = 0, pretend = 0, frame = 0
 2170              		@ frame_needed = 0, uses_anonymous_args = 0
 2171              		.loc 1 715 1 is_stmt 0 view .LVU491
 2172 0000 70B5     		push	{r4, r5, r6, lr}
 2173              	.LCFI31:
 2174              		.cfi_def_cfa_offset 16
 2175              		.cfi_offset 4, -16
 2176              		.cfi_offset 5, -12
 2177              		.cfi_offset 6, -8
 2178              		.cfi_offset 14, -4
 2179 0002 0446     		mov	r4, r0
 2180 0004 0E46     		mov	r6, r1
 2181 0006 1546     		mov	r5, r2
 716:Core/Src/Mytouch.c **** 	u8 i; 
 2182              		.loc 1 716 2 is_stmt 1 view .LVU492
 717:Core/Src/Mytouch.c ****  	CT_IIC_Start();	
 2183              		.loc 1 717 3 view .LVU493
 2184 0008 FFF7FEFF 		bl	CT_IIC_Start
 2185              	.LVL226:
 718:Core/Src/Mytouch.c ****  	CT_IIC_Send_Byte(GT_CMD_WR);   //发送写命令 	 
ARM GAS  /tmp/ccNZMix7.s 			page 54


 2186              		.loc 1 718 3 view .LVU494
 2187 000c 2820     		movs	r0, #40
 2188 000e FFF7FEFF 		bl	CT_IIC_Send_Byte
 2189              	.LVL227:
 719:Core/Src/Mytouch.c **** 	CT_IIC_Wait_Ack();
 2190              		.loc 1 719 2 view .LVU495
 2191 0012 FFF7FEFF 		bl	CT_IIC_Wait_Ack
 2192              	.LVL228:
 720:Core/Src/Mytouch.c ****  	CT_IIC_Send_Byte(reg>>8);   	//发送高8位地址
 2193              		.loc 1 720 3 view .LVU496
 2194 0016 200A     		lsrs	r0, r4, #8
 2195 0018 FFF7FEFF 		bl	CT_IIC_Send_Byte
 2196              	.LVL229:
 721:Core/Src/Mytouch.c **** 	CT_IIC_Wait_Ack(); 	 										  		   
 2197              		.loc 1 721 2 view .LVU497
 2198 001c FFF7FEFF 		bl	CT_IIC_Wait_Ack
 2199              	.LVL230:
 722:Core/Src/Mytouch.c ****  	CT_IIC_Send_Byte(reg&0XFF);   	//发送低8位地址
 2200              		.loc 1 722 3 view .LVU498
 2201 0020 E0B2     		uxtb	r0, r4
 2202 0022 FFF7FEFF 		bl	CT_IIC_Send_Byte
 2203              	.LVL231:
 723:Core/Src/Mytouch.c **** 	CT_IIC_Wait_Ack();  
 2204              		.loc 1 723 2 view .LVU499
 2205 0026 FFF7FEFF 		bl	CT_IIC_Wait_Ack
 2206              	.LVL232:
 724:Core/Src/Mytouch.c ****  	CT_IIC_Start();  	 	   
 2207              		.loc 1 724 3 view .LVU500
 2208 002a FFF7FEFF 		bl	CT_IIC_Start
 2209              	.LVL233:
 725:Core/Src/Mytouch.c **** 	CT_IIC_Send_Byte(GT_CMD_RD);   //发送读命令		   
 2210              		.loc 1 725 2 view .LVU501
 2211 002e 2920     		movs	r0, #41
 2212 0030 FFF7FEFF 		bl	CT_IIC_Send_Byte
 2213              	.LVL234:
 726:Core/Src/Mytouch.c **** 	CT_IIC_Wait_Ack();	   
 2214              		.loc 1 726 2 view .LVU502
 2215 0034 FFF7FEFF 		bl	CT_IIC_Wait_Ack
 2216              	.LVL235:
 727:Core/Src/Mytouch.c **** 	for(i=0;i<len;i++)
 2217              		.loc 1 727 2 view .LVU503
 2218              		.loc 1 727 7 is_stmt 0 view .LVU504
 2219 0038 0024     		movs	r4, #0
 2220              		.loc 1 727 2 view .LVU505
 2221 003a 08E0     		b	.L134
 2222              	.LVL236:
 2223              	.L135:
 728:Core/Src/Mytouch.c **** 	{	   
 729:Core/Src/Mytouch.c ****     	buf[i]=CT_IIC_Read_Byte(i==(len-1)?0:1); //发数据	  
 2224              		.loc 1 729 6 is_stmt 1 discriminator 3 view .LVU506
 2225              		.loc 1 729 37 is_stmt 0 discriminator 3 view .LVU507
 2226 003c 681E     		subs	r0, r5, #1
 2227              		.loc 1 729 13 discriminator 3 view .LVU508
 2228 003e 201A     		subs	r0, r4, r0
 2229 0040 18BF     		it	ne
 2230 0042 0120     		movne	r0, #1
 2231 0044 FFF7FEFF 		bl	CT_IIC_Read_Byte
ARM GAS  /tmp/ccNZMix7.s 			page 55


 2232              	.LVL237:
 2233              		.loc 1 729 12 discriminator 3 view .LVU509
 2234 0048 3055     		strb	r0, [r6, r4]
 727:Core/Src/Mytouch.c **** 	for(i=0;i<len;i++)
 2235              		.loc 1 727 16 is_stmt 1 discriminator 3 view .LVU510
 727:Core/Src/Mytouch.c **** 	for(i=0;i<len;i++)
 2236              		.loc 1 727 17 is_stmt 0 discriminator 3 view .LVU511
 2237 004a 0134     		adds	r4, r4, #1
 2238              	.LVL238:
 727:Core/Src/Mytouch.c **** 	for(i=0;i<len;i++)
 2239              		.loc 1 727 17 discriminator 3 view .LVU512
 2240 004c E4B2     		uxtb	r4, r4
 2241              	.LVL239:
 2242              	.L134:
 727:Core/Src/Mytouch.c **** 	for(i=0;i<len;i++)
 2243              		.loc 1 727 10 is_stmt 1 discriminator 1 view .LVU513
 727:Core/Src/Mytouch.c **** 	for(i=0;i<len;i++)
 2244              		.loc 1 727 2 is_stmt 0 discriminator 1 view .LVU514
 2245 004e AC42     		cmp	r4, r5
 2246 0050 F4D3     		bcc	.L135
 730:Core/Src/Mytouch.c **** 	} 
 731:Core/Src/Mytouch.c ****     CT_IIC_Stop();//产生一个停止条件    
 2247              		.loc 1 731 5 is_stmt 1 view .LVU515
 2248 0052 FFF7FEFF 		bl	CT_IIC_Stop
 2249              	.LVL240:
 732:Core/Src/Mytouch.c **** } 
 2250              		.loc 1 732 1 is_stmt 0 view .LVU516
 2251 0056 70BD     		pop	{r4, r5, r6, pc}
 2252              		.loc 1 732 1 view .LVU517
 2253              		.cfi_endproc
 2254              	.LFE171:
 2256              		.section	.text.GT9147_Scan,"ax",%progbits
 2257              		.align	1
 2258              		.global	GT9147_Scan
 2259              		.syntax unified
 2260              		.thumb
 2261              		.thumb_func
 2262              		.fpu fpv5-d16
 2264              	GT9147_Scan:
 2265              	.LVL241:
 2266              	.LFB173:
 733:Core/Src/Mytouch.c **** //初始化GT9147触摸屏
 734:Core/Src/Mytouch.c **** //返回值:0,初始化成功;1,初始化失败 
 735:Core/Src/Mytouch.c **** u8 GT9147_Init(void)
 736:Core/Src/Mytouch.c **** {
 737:Core/Src/Mytouch.c **** 	u8 temp[5]; 
 738:Core/Src/Mytouch.c ****     GPIO_InitTypeDef GPIO_Initure;
 739:Core/Src/Mytouch.c ****     
 740:Core/Src/Mytouch.c ****     __HAL_RCC_GPIOH_CLK_ENABLE();			//开启GPIOH时钟
 741:Core/Src/Mytouch.c ****     __HAL_RCC_GPIOI_CLK_ENABLE();			//开启GPIOI时钟
 742:Core/Src/Mytouch.c ****                 
 743:Core/Src/Mytouch.c ****     //PH7
 744:Core/Src/Mytouch.c ****     GPIO_Initure.Pin=GPIO_PIN_7;            //PH7
 745:Core/Src/Mytouch.c ****     GPIO_Initure.Mode=GPIO_MODE_INPUT;      //输入
 746:Core/Src/Mytouch.c ****     GPIO_Initure.Pull=GPIO_PULLUP;          //上拉
 747:Core/Src/Mytouch.c ****     GPIO_Initure.Speed=GPIO_SPEED_FREQ_VERY_HIGH;     //高速
 748:Core/Src/Mytouch.c ****     HAL_GPIO_Init(GPIOH,&GPIO_Initure);     //初始化
ARM GAS  /tmp/ccNZMix7.s 			page 56


 749:Core/Src/Mytouch.c ****             
 750:Core/Src/Mytouch.c ****     //PI8
 751:Core/Src/Mytouch.c ****     GPIO_Initure.Pin=GPIO_PIN_8;            //PI8
 752:Core/Src/Mytouch.c ****     GPIO_Initure.Mode=GPIO_MODE_OUTPUT_PP;  //推挽输出
 753:Core/Src/Mytouch.c ****     HAL_GPIO_Init(GPIOI,&GPIO_Initure);     //初始化
 754:Core/Src/Mytouch.c **** 	CT_IIC_Init();      	//初始化电容屏的I2C总线  
 755:Core/Src/Mytouch.c **** 	GT_RST(0);				//复位
 756:Core/Src/Mytouch.c **** 	HAL_Delay(10);
 757:Core/Src/Mytouch.c ****  	GT_RST(1);				//释放复位		    
 758:Core/Src/Mytouch.c **** 	HAL_Delay(10); 
 759:Core/Src/Mytouch.c ****     GPIO_Initure.Pin=GPIO_PIN_7;            //PH7
 760:Core/Src/Mytouch.c ****     GPIO_Initure.Mode=GPIO_MODE_INPUT;      //输入
 761:Core/Src/Mytouch.c ****     GPIO_Initure.Pull=GPIO_NOPULL;          //不带上下拉，浮空输入
 762:Core/Src/Mytouch.c ****     GPIO_Initure.Speed=GPIO_SPEED_FREQ_VERY_HIGH;     //高速
 763:Core/Src/Mytouch.c ****     HAL_GPIO_Init(GPIOH,&GPIO_Initure);     //初始化
 764:Core/Src/Mytouch.c **** 	HAL_Delay(100);  
 765:Core/Src/Mytouch.c **** 	GT9147_RD_Reg(GT_PID_REG,temp,4);//读取产品ID
 766:Core/Src/Mytouch.c **** 	temp[4]=0;
 767:Core/Src/Mytouch.c **** 	printf("CTP ID:%s\r\n",temp);	//打印ID
 768:Core/Src/Mytouch.c **** 	if(strcmp((char*)temp,"9147")==0)//ID==9147
 769:Core/Src/Mytouch.c **** 	{
 770:Core/Src/Mytouch.c **** 		temp[0]=0X02;			
 771:Core/Src/Mytouch.c **** 		GT9147_WR_Reg(GT_CTRL_REG,temp,1);//软复位GT9147
 772:Core/Src/Mytouch.c **** 		GT9147_RD_Reg(GT_CFGS_REG,temp,1);//读取GT_CFGS_REG寄存器
 773:Core/Src/Mytouch.c **** 		if(temp[0]<0X60)//默认版本比较低,需要更新flash配置
 774:Core/Src/Mytouch.c **** 		{
 775:Core/Src/Mytouch.c **** 			printf("Default Ver:%d\r\n",temp[0]);
 776:Core/Src/Mytouch.c ****             if(lcddev.id==0X5510)GT9147_Send_Cfg(1);//更新并保存配置
 777:Core/Src/Mytouch.c **** 		}
 778:Core/Src/Mytouch.c **** 		HAL_Delay(10);
 779:Core/Src/Mytouch.c **** 		temp[0]=0X00;	 
 780:Core/Src/Mytouch.c **** 		GT9147_WR_Reg(GT_CTRL_REG,temp,1);//结束复位   
 781:Core/Src/Mytouch.c **** 		return 0;
 782:Core/Src/Mytouch.c **** 	} 
 783:Core/Src/Mytouch.c **** 	return 0;
 784:Core/Src/Mytouch.c **** }
 785:Core/Src/Mytouch.c **** const u16 GT9147_TPX_TBL[5]={GT_TP1_REG,GT_TP2_REG,GT_TP3_REG,GT_TP4_REG,GT_TP5_REG};
 786:Core/Src/Mytouch.c **** //扫描触摸屏(采用查询方式)
 787:Core/Src/Mytouch.c **** //mode:0,正常扫描.
 788:Core/Src/Mytouch.c **** //返回值:当前触屏状态.
 789:Core/Src/Mytouch.c **** //0,触屏无触摸;1,触屏有触摸
 790:Core/Src/Mytouch.c **** u8 GT9147_Scan(u8 mode)
 791:Core/Src/Mytouch.c **** {
 2267              		.loc 1 791 1 is_stmt 1 view -0
 2268              		.cfi_startproc
 2269              		@ args = 0, pretend = 0, frame = 16
 2270              		@ frame_needed = 0, uses_anonymous_args = 0
 2271              		.loc 1 791 1 is_stmt 0 view .LVU519
 2272 0000 70B5     		push	{r4, r5, r6, lr}
 2273              	.LCFI32:
 2274              		.cfi_def_cfa_offset 16
 2275              		.cfi_offset 4, -16
 2276              		.cfi_offset 5, -12
 2277              		.cfi_offset 6, -8
 2278              		.cfi_offset 14, -4
 2279 0002 84B0     		sub	sp, sp, #16
 2280              	.LCFI33:
ARM GAS  /tmp/ccNZMix7.s 			page 57


 2281              		.cfi_def_cfa_offset 32
 2282 0004 8DF80700 		strb	r0, [sp, #7]
 792:Core/Src/Mytouch.c **** 	u8 buf[4];
 2283              		.loc 1 792 2 is_stmt 1 view .LVU520
 793:Core/Src/Mytouch.c **** 	u8 i=0;
 2284              		.loc 1 793 2 view .LVU521
 2285              	.LVL242:
 794:Core/Src/Mytouch.c **** 	u8 res=0;
 2286              		.loc 1 794 2 view .LVU522
 795:Core/Src/Mytouch.c **** 	u8 temp;
 2287              		.loc 1 795 2 view .LVU523
 796:Core/Src/Mytouch.c **** 	u8 tempsta;
 2288              		.loc 1 796 2 view .LVU524
 797:Core/Src/Mytouch.c ****  	static u8 t=0;//控制查询间隔,从而降低CPU占用率   
 2289              		.loc 1 797 3 view .LVU525
 798:Core/Src/Mytouch.c **** 	t++;
 2290              		.loc 1 798 2 view .LVU526
 2291              		.loc 1 798 3 is_stmt 0 view .LVU527
 2292 0008 B44B     		ldr	r3, .L164
 2293 000a 1A78     		ldrb	r2, [r3]	@ zero_extendqisi2
 2294 000c 0132     		adds	r2, r2, #1
 2295 000e D2B2     		uxtb	r2, r2
 2296 0010 1A70     		strb	r2, [r3]
 799:Core/Src/Mytouch.c **** 	if((t%10)==0||t<10)//空闲时,每进入10次CTP_Scan函数才检测1次,从而节省CPU使用率
 2297              		.loc 1 799 2 is_stmt 1 view .LVU528
 2298              		.loc 1 799 11 is_stmt 0 view .LVU529
 2299 0012 B34B     		ldr	r3, .L164+4
 2300 0014 A3FB0213 		umull	r1, r3, r3, r2
 2301 0018 DB08     		lsrs	r3, r3, #3
 2302 001a 03EB8303 		add	r3, r3, r3, lsl #2
 2303 001e A2EB4303 		sub	r3, r2, r3, lsl #1
 2304              		.loc 1 799 4 view .LVU530
 2305 0022 13F0FF0F 		tst	r3, #255
 2306 0026 02D0     		beq	.L138
 2307              		.loc 1 799 14 discriminator 1 view .LVU531
 2308 0028 092A     		cmp	r2, #9
 2309 002a 00F22E81 		bhi	.L155
 2310              	.L138:
 800:Core/Src/Mytouch.c **** 	{
 801:Core/Src/Mytouch.c **** 		GT9147_RD_Reg(GT_GSTID_REG,&mode,1);	//读取触摸点的状态  
 2311              		.loc 1 801 3 is_stmt 1 view .LVU532
 2312 002e 0122     		movs	r2, #1
 2313 0030 0DF10701 		add	r1, sp, #7
 2314 0034 48F24E10 		movw	r0, #33102
 2315              	.LVL243:
 2316              		.loc 1 801 3 is_stmt 0 view .LVU533
 2317 0038 FFF7FEFF 		bl	GT9147_RD_Reg
 2318              	.LVL244:
 802:Core/Src/Mytouch.c ****  		if(mode&0X80&&((mode&0XF)<6))
 2319              		.loc 1 802 4 is_stmt 1 view .LVU534
 2320              		.loc 1 802 7 is_stmt 0 view .LVU535
 2321 003c 9DF80730 		ldrb	r3, [sp, #7]	@ zero_extendqisi2
 2322 0040 9DF90720 		ldrsb	r2, [sp, #7]
 2323              		.loc 1 802 6 view .LVU536
 2324 0044 002A     		cmp	r2, #0
 2325 0046 22DB     		blt	.L158
 2326              	.L140:
ARM GAS  /tmp/ccNZMix7.s 			page 58


 803:Core/Src/Mytouch.c **** 		{
 804:Core/Src/Mytouch.c **** 			temp=0;
 805:Core/Src/Mytouch.c **** 			GT9147_WR_Reg(GT_GSTID_REG,&temp,1);//清标志 		
 806:Core/Src/Mytouch.c **** 		}		
 807:Core/Src/Mytouch.c **** 		if((mode&0XF)&&((mode&0XF)<6))
 2327              		.loc 1 807 3 is_stmt 1 view .LVU537
 2328              		.loc 1 807 11 is_stmt 0 view .LVU538
 2329 0048 9DF80730 		ldrb	r3, [sp, #7]	@ zero_extendqisi2
 2330              		.loc 1 807 16 view .LVU539
 2331 004c 03F00F02 		and	r2, r3, #15
 2332 0050 13F00F03 		ands	r3, r3, #15
 2333 0054 18BF     		it	ne
 2334 0056 0123     		movne	r3, #1
 2335 0058 052A     		cmp	r2, #5
 2336 005a CCBF     		ite	gt
 2337 005c 0023     		movgt	r3, #0
 2338 005e 03F00103 		andle	r3, r3, #1
 2339              		.loc 1 807 5 view .LVU540
 2340 0062 002B     		cmp	r3, #0
 2341 0064 00F02181 		beq	.L156
 808:Core/Src/Mytouch.c **** 		{
 809:Core/Src/Mytouch.c **** 			temp=0XFF<<(mode&0XF);		//将点的个数转换为1的位数,匹配tp_dev.sta定义 
 2342              		.loc 1 809 4 is_stmt 1 view .LVU541
 2343              		.loc 1 809 13 is_stmt 0 view .LVU542
 2344 0068 FF23     		movs	r3, #255
 2345 006a 9340     		lsls	r3, r3, r2
 2346              		.loc 1 809 8 view .LVU543
 2347 006c DBB2     		uxtb	r3, r3
 2348 006e 8DF80B30 		strb	r3, [sp, #11]
 810:Core/Src/Mytouch.c **** 			tempsta=tp_dev.sta;			//保存当前的tp_dev.sta值
 2349              		.loc 1 810 4 is_stmt 1 view .LVU544
 2350              		.loc 1 810 11 is_stmt 0 view .LVU545
 2351 0072 9C4A     		ldr	r2, .L164+8
 2352 0074 92F82050 		ldrb	r5, [r2, #32]	@ zero_extendqisi2
 2353              	.LVL245:
 811:Core/Src/Mytouch.c **** 			tp_dev.sta=(~temp)|TP_PRES_DOWN|TP_CATH_PRES; 
 2354              		.loc 1 811 4 is_stmt 1 view .LVU546
 2355              		.loc 1 811 35 is_stmt 0 view .LVU547
 2356 0078 DB43     		mvns	r3, r3
 2357 007a 63F03F03 		orn	r3, r3, #63
 2358              		.loc 1 811 14 view .LVU548
 2359 007e 82F82030 		strb	r3, [r2, #32]
 812:Core/Src/Mytouch.c **** 			tp_dev.x[4]=tp_dev.x[0];	//保存触点0的数据
 2360              		.loc 1 812 4 is_stmt 1 view .LVU549
 2361              		.loc 1 812 24 is_stmt 0 view .LVU550
 2362 0082 9389     		ldrh	r3, [r2, #12]
 2363              		.loc 1 812 15 view .LVU551
 2364 0084 9382     		strh	r3, [r2, #20]	@ movhi
 813:Core/Src/Mytouch.c **** 			tp_dev.y[4]=tp_dev.y[0];
 2365              		.loc 1 813 4 is_stmt 1 view .LVU552
 2366              		.loc 1 813 24 is_stmt 0 view .LVU553
 2367 0086 D38A     		ldrh	r3, [r2, #22]
 2368              		.loc 1 813 15 view .LVU554
 2369 0088 D383     		strh	r3, [r2, #30]	@ movhi
 814:Core/Src/Mytouch.c **** 			for(i=0;i<5;i++)
 2370              		.loc 1 814 4 is_stmt 1 view .LVU555
 2371              		.loc 1 814 9 is_stmt 0 view .LVU556
ARM GAS  /tmp/ccNZMix7.s 			page 59


 2372 008a 0024     		movs	r4, #0
 2373              		.loc 1 814 4 view .LVU557
 2374 008c 2FE0     		b	.L141
 2375              	.LVL246:
 2376              	.L158:
 802:Core/Src/Mytouch.c **** 		{
 2377              		.loc 1 802 16 discriminator 1 view .LVU558
 2378 008e 03F00F03 		and	r3, r3, #15
 2379 0092 052B     		cmp	r3, #5
 2380 0094 D8D8     		bhi	.L140
 804:Core/Src/Mytouch.c **** 			GT9147_WR_Reg(GT_GSTID_REG,&temp,1);//清标志 		
 2381              		.loc 1 804 4 is_stmt 1 view .LVU559
 804:Core/Src/Mytouch.c **** 			GT9147_WR_Reg(GT_GSTID_REG,&temp,1);//清标志 		
 2382              		.loc 1 804 8 is_stmt 0 view .LVU560
 2383 0096 0023     		movs	r3, #0
 2384 0098 8DF80B30 		strb	r3, [sp, #11]
 805:Core/Src/Mytouch.c **** 		}		
 2385              		.loc 1 805 4 is_stmt 1 view .LVU561
 2386 009c 0122     		movs	r2, #1
 2387 009e 0DF10B01 		add	r1, sp, #11
 2388 00a2 48F24E10 		movw	r0, #33102
 2389 00a6 FFF7FEFF 		bl	GT9147_WR_Reg
 2390              	.LVL247:
 2391 00aa CDE7     		b	.L140
 2392              	.LVL248:
 2393              	.L160:
 815:Core/Src/Mytouch.c **** 			{
 816:Core/Src/Mytouch.c **** 				if(tp_dev.sta&(1<<i))	//触摸有效?
 817:Core/Src/Mytouch.c **** 				{
 818:Core/Src/Mytouch.c **** 					GT9147_RD_Reg(GT9147_TPX_TBL[i],buf,4);	//读取XY坐标值
 819:Core/Src/Mytouch.c ****                     if(lcddev.id==0X5510)   //4.3寸800*480 MCU屏
 820:Core/Src/Mytouch.c ****                     {
 821:Core/Src/Mytouch.c ****                         if(tp_dev.touchtype&0X01)//横屏
 2394              		.loc 1 821 25 view .LVU562
 2395              		.loc 1 821 34 is_stmt 0 view .LVU563
 2396 00ac 8D4B     		ldr	r3, .L164+8
 2397 00ae 93F83030 		ldrb	r3, [r3, #48]	@ zero_extendqisi2
 2398              		.loc 1 821 27 view .LVU564
 2399 00b2 13F0010F 		tst	r3, #1
 2400 00b6 56D0     		beq	.L144
 822:Core/Src/Mytouch.c ****                         {
 823:Core/Src/Mytouch.c ****                             tp_dev.y[i]=((u16)buf[1]<<8)+buf[0];
 2401              		.loc 1 823 29 is_stmt 1 view .LVU565
 2402              		.loc 1 823 50 is_stmt 0 view .LVU566
 2403 00b8 9DF80D30 		ldrb	r3, [sp, #13]	@ zero_extendqisi2
 2404              		.loc 1 823 61 view .LVU567
 2405 00bc 9DF80C10 		ldrb	r1, [sp, #12]	@ zero_extendqisi2
 2406              		.loc 1 823 57 view .LVU568
 2407 00c0 01EB0321 		add	r1, r1, r3, lsl #8
 2408              		.loc 1 823 40 view .LVU569
 2409 00c4 874A     		ldr	r2, .L164+8
 2410 00c6 04F10803 		add	r3, r4, #8
 2411 00ca 02EB4303 		add	r3, r2, r3, lsl #1
 2412 00ce D980     		strh	r1, [r3, #6]	@ movhi
 824:Core/Src/Mytouch.c ****                             tp_dev.x[i]=800-(((u16)buf[3]<<8)+buf[2]);
 2413              		.loc 1 824 29 is_stmt 1 view .LVU570
 2414              		.loc 1 824 55 is_stmt 0 view .LVU571
ARM GAS  /tmp/ccNZMix7.s 			page 60


 2415 00d0 9DF80F10 		ldrb	r1, [sp, #15]	@ zero_extendqisi2
 2416              		.loc 1 824 66 view .LVU572
 2417 00d4 9DF80E30 		ldrb	r3, [sp, #14]	@ zero_extendqisi2
 2418              		.loc 1 824 62 view .LVU573
 2419 00d8 03EB0123 		add	r3, r3, r1, lsl #8
 2420 00dc 9BB2     		uxth	r3, r3
 2421              		.loc 1 824 44 view .LVU574
 2422 00de C3F54873 		rsb	r3, r3, #800
 2423              		.loc 1 824 40 view .LVU575
 2424 00e2 0436     		adds	r6, r6, #4
 2425 00e4 02EB4602 		add	r2, r2, r6, lsl #1
 2426 00e8 9380     		strh	r3, [r2, #4]	@ movhi
 2427              	.L142:
 814:Core/Src/Mytouch.c **** 			{
 2428              		.loc 1 814 16 is_stmt 1 discriminator 2 view .LVU576
 814:Core/Src/Mytouch.c **** 			{
 2429              		.loc 1 814 17 is_stmt 0 discriminator 2 view .LVU577
 2430 00ea 0134     		adds	r4, r4, #1
 2431              	.LVL249:
 814:Core/Src/Mytouch.c **** 			{
 2432              		.loc 1 814 17 discriminator 2 view .LVU578
 2433 00ec E4B2     		uxtb	r4, r4
 2434              	.LVL250:
 2435              	.L141:
 814:Core/Src/Mytouch.c **** 			{
 2436              		.loc 1 814 12 is_stmt 1 discriminator 1 view .LVU579
 814:Core/Src/Mytouch.c **** 			{
 2437              		.loc 1 814 4 is_stmt 0 discriminator 1 view .LVU580
 2438 00ee 042C     		cmp	r4, #4
 2439 00f0 00F29F80 		bhi	.L159
 816:Core/Src/Mytouch.c **** 				{
 2440              		.loc 1 816 5 is_stmt 1 view .LVU581
 816:Core/Src/Mytouch.c **** 				{
 2441              		.loc 1 816 14 is_stmt 0 view .LVU582
 2442 00f4 7B4B     		ldr	r3, .L164+8
 2443 00f6 93F82030 		ldrb	r3, [r3, #32]	@ zero_extendqisi2
 816:Core/Src/Mytouch.c **** 				{
 2444              		.loc 1 816 8 view .LVU583
 2445 00fa 2646     		mov	r6, r4
 2446 00fc 2341     		asrs	r3, r3, r4
 816:Core/Src/Mytouch.c **** 				{
 2447              		.loc 1 816 7 view .LVU584
 2448 00fe 13F0010F 		tst	r3, #1
 2449 0102 F2D0     		beq	.L142
 818:Core/Src/Mytouch.c ****                     if(lcddev.id==0X5510)   //4.3寸800*480 MCU屏
 2450              		.loc 1 818 6 is_stmt 1 view .LVU585
 2451 0104 0422     		movs	r2, #4
 2452 0106 03A9     		add	r1, sp, #12
 2453 0108 774B     		ldr	r3, .L164+12
 2454 010a 33F81400 		ldrh	r0, [r3, r4, lsl #1]
 2455 010e FFF7FEFF 		bl	GT9147_RD_Reg
 2456              	.LVL251:
 819:Core/Src/Mytouch.c ****                     {
 2457              		.loc 1 819 21 view .LVU586
 819:Core/Src/Mytouch.c ****                     {
 2458              		.loc 1 819 30 is_stmt 0 view .LVU587
 2459 0112 764B     		ldr	r3, .L164+16
ARM GAS  /tmp/ccNZMix7.s 			page 61


 2460 0114 9B88     		ldrh	r3, [r3, #4]
 819:Core/Src/Mytouch.c ****                     {
 2461              		.loc 1 819 23 view .LVU588
 2462 0116 45F21052 		movw	r2, #21776
 2463 011a 9342     		cmp	r3, r2
 2464 011c C6D0     		beq	.L160
 825:Core/Src/Mytouch.c ****                         }else
 826:Core/Src/Mytouch.c ****                         {
 827:Core/Src/Mytouch.c ****                             tp_dev.x[i]=((u16)buf[1]<<8)+buf[0];
 828:Core/Src/Mytouch.c ****                             tp_dev.y[i]=((u16)buf[3]<<8)+buf[2];
 829:Core/Src/Mytouch.c ****                         }  
 830:Core/Src/Mytouch.c ****                     }else if(lcddev.id==0X4342) //4.3寸480*272 RGB屏
 2465              		.loc 1 830 27 is_stmt 1 view .LVU589
 2466              		.loc 1 830 29 is_stmt 0 view .LVU590
 2467 011e 44F24232 		movw	r2, #17218
 2468 0122 9342     		cmp	r3, r2
 2469 0124 35D0     		beq	.L161
 831:Core/Src/Mytouch.c ****                     {
 832:Core/Src/Mytouch.c ****                         if(tp_dev.touchtype&0X01)//横屏
 833:Core/Src/Mytouch.c ****                         {
 834:Core/Src/Mytouch.c ****                             tp_dev.x[i]=(((u16)buf[1]<<8)+buf[0]);
 835:Core/Src/Mytouch.c ****                             tp_dev.y[i]=(((u16)buf[3]<<8)+buf[2]);
 836:Core/Src/Mytouch.c ****                         }else
 837:Core/Src/Mytouch.c ****                         {
 838:Core/Src/Mytouch.c ****                             tp_dev.y[i]=((u16)buf[1]<<8)+buf[0];
 839:Core/Src/Mytouch.c ****                             tp_dev.x[i]=272-(((u16)buf[3]<<8)+buf[2]);
 840:Core/Src/Mytouch.c ****                         }
 841:Core/Src/Mytouch.c ****                     }else if(lcddev.id==0X4384) //4.3寸800*480 RGB屏
 2470              		.loc 1 841 27 is_stmt 1 view .LVU591
 2471              		.loc 1 841 29 is_stmt 0 view .LVU592
 2472 0126 44F28432 		movw	r2, #17284
 2473 012a 9342     		cmp	r3, r2
 2474 012c DDD1     		bne	.L142
 842:Core/Src/Mytouch.c ****                     {
 843:Core/Src/Mytouch.c ****                         if(tp_dev.touchtype&0X01)//横屏
 2475              		.loc 1 843 25 is_stmt 1 view .LVU593
 2476              		.loc 1 843 34 is_stmt 0 view .LVU594
 2477 012e 6D4B     		ldr	r3, .L164+8
 2478 0130 93F83030 		ldrb	r3, [r3, #48]	@ zero_extendqisi2
 2479              		.loc 1 843 27 view .LVU595
 2480 0134 13F0010F 		tst	r3, #1
 2481 0138 61D0     		beq	.L147
 844:Core/Src/Mytouch.c ****                         {
 845:Core/Src/Mytouch.c ****                             tp_dev.x[i]=(((u16)buf[1]<<8)+buf[0]);
 2482              		.loc 1 845 29 is_stmt 1 view .LVU596
 2483              		.loc 1 845 51 is_stmt 0 view .LVU597
 2484 013a 9DF80D30 		ldrb	r3, [sp, #13]	@ zero_extendqisi2
 2485              		.loc 1 845 62 view .LVU598
 2486 013e 9DF80C10 		ldrb	r1, [sp, #12]	@ zero_extendqisi2
 2487              		.loc 1 845 58 view .LVU599
 2488 0142 01EB0321 		add	r1, r1, r3, lsl #8
 2489              		.loc 1 845 40 view .LVU600
 2490 0146 674B     		ldr	r3, .L164+8
 2491 0148 221D     		adds	r2, r4, #4
 2492 014a 03EB4202 		add	r2, r3, r2, lsl #1
 2493 014e 9180     		strh	r1, [r2, #4]	@ movhi
 846:Core/Src/Mytouch.c ****                             tp_dev.y[i]=(((u16)buf[3]<<8)+buf[2]);
ARM GAS  /tmp/ccNZMix7.s 			page 62


 2494              		.loc 1 846 29 is_stmt 1 view .LVU601
 2495              		.loc 1 846 51 is_stmt 0 view .LVU602
 2496 0150 9DF80F10 		ldrb	r1, [sp, #15]	@ zero_extendqisi2
 2497              		.loc 1 846 62 view .LVU603
 2498 0154 9DF80E20 		ldrb	r2, [sp, #14]	@ zero_extendqisi2
 2499              		.loc 1 846 58 view .LVU604
 2500 0158 02EB0122 		add	r2, r2, r1, lsl #8
 2501              		.loc 1 846 40 view .LVU605
 2502 015c 0836     		adds	r6, r6, #8
 2503 015e 03EB4603 		add	r3, r3, r6, lsl #1
 2504 0162 DA80     		strh	r2, [r3, #6]	@ movhi
 2505 0164 C1E7     		b	.L142
 2506              	.L144:
 827:Core/Src/Mytouch.c ****                             tp_dev.y[i]=((u16)buf[3]<<8)+buf[2];
 2507              		.loc 1 827 29 is_stmt 1 view .LVU606
 827:Core/Src/Mytouch.c ****                             tp_dev.y[i]=((u16)buf[3]<<8)+buf[2];
 2508              		.loc 1 827 50 is_stmt 0 view .LVU607
 2509 0166 9DF80D30 		ldrb	r3, [sp, #13]	@ zero_extendqisi2
 827:Core/Src/Mytouch.c ****                             tp_dev.y[i]=((u16)buf[3]<<8)+buf[2];
 2510              		.loc 1 827 61 view .LVU608
 2511 016a 9DF80C10 		ldrb	r1, [sp, #12]	@ zero_extendqisi2
 827:Core/Src/Mytouch.c ****                             tp_dev.y[i]=((u16)buf[3]<<8)+buf[2];
 2512              		.loc 1 827 57 view .LVU609
 2513 016e 01EB0321 		add	r1, r1, r3, lsl #8
 827:Core/Src/Mytouch.c ****                             tp_dev.y[i]=((u16)buf[3]<<8)+buf[2];
 2514              		.loc 1 827 40 view .LVU610
 2515 0172 5C4B     		ldr	r3, .L164+8
 2516 0174 221D     		adds	r2, r4, #4
 2517 0176 03EB4202 		add	r2, r3, r2, lsl #1
 2518 017a 9180     		strh	r1, [r2, #4]	@ movhi
 828:Core/Src/Mytouch.c ****                         }  
 2519              		.loc 1 828 29 is_stmt 1 view .LVU611
 828:Core/Src/Mytouch.c ****                         }  
 2520              		.loc 1 828 50 is_stmt 0 view .LVU612
 2521 017c 9DF80F10 		ldrb	r1, [sp, #15]	@ zero_extendqisi2
 828:Core/Src/Mytouch.c ****                         }  
 2522              		.loc 1 828 61 view .LVU613
 2523 0180 9DF80E20 		ldrb	r2, [sp, #14]	@ zero_extendqisi2
 828:Core/Src/Mytouch.c ****                         }  
 2524              		.loc 1 828 57 view .LVU614
 2525 0184 02EB0122 		add	r2, r2, r1, lsl #8
 828:Core/Src/Mytouch.c ****                         }  
 2526              		.loc 1 828 40 view .LVU615
 2527 0188 0836     		adds	r6, r6, #8
 2528 018a 03EB4603 		add	r3, r3, r6, lsl #1
 2529 018e DA80     		strh	r2, [r3, #6]	@ movhi
 2530 0190 ABE7     		b	.L142
 2531              	.L161:
 832:Core/Src/Mytouch.c ****                         {
 2532              		.loc 1 832 25 is_stmt 1 view .LVU616
 832:Core/Src/Mytouch.c ****                         {
 2533              		.loc 1 832 34 is_stmt 0 view .LVU617
 2534 0192 544B     		ldr	r3, .L164+8
 2535 0194 93F83030 		ldrb	r3, [r3, #48]	@ zero_extendqisi2
 832:Core/Src/Mytouch.c ****                         {
 2536              		.loc 1 832 27 view .LVU618
 2537 0198 13F0010F 		tst	r3, #1
ARM GAS  /tmp/ccNZMix7.s 			page 63


 2538 019c 15D0     		beq	.L146
 834:Core/Src/Mytouch.c ****                             tp_dev.y[i]=(((u16)buf[3]<<8)+buf[2]);
 2539              		.loc 1 834 29 is_stmt 1 view .LVU619
 834:Core/Src/Mytouch.c ****                             tp_dev.y[i]=(((u16)buf[3]<<8)+buf[2]);
 2540              		.loc 1 834 51 is_stmt 0 view .LVU620
 2541 019e 9DF80D30 		ldrb	r3, [sp, #13]	@ zero_extendqisi2
 834:Core/Src/Mytouch.c ****                             tp_dev.y[i]=(((u16)buf[3]<<8)+buf[2]);
 2542              		.loc 1 834 62 view .LVU621
 2543 01a2 9DF80C10 		ldrb	r1, [sp, #12]	@ zero_extendqisi2
 834:Core/Src/Mytouch.c ****                             tp_dev.y[i]=(((u16)buf[3]<<8)+buf[2]);
 2544              		.loc 1 834 58 view .LVU622
 2545 01a6 01EB0321 		add	r1, r1, r3, lsl #8
 834:Core/Src/Mytouch.c ****                             tp_dev.y[i]=(((u16)buf[3]<<8)+buf[2]);
 2546              		.loc 1 834 40 view .LVU623
 2547 01aa 4E4B     		ldr	r3, .L164+8
 2548 01ac 221D     		adds	r2, r4, #4
 2549 01ae 03EB4202 		add	r2, r3, r2, lsl #1
 2550 01b2 9180     		strh	r1, [r2, #4]	@ movhi
 835:Core/Src/Mytouch.c ****                         }else
 2551              		.loc 1 835 29 is_stmt 1 view .LVU624
 835:Core/Src/Mytouch.c ****                         }else
 2552              		.loc 1 835 51 is_stmt 0 view .LVU625
 2553 01b4 9DF80F10 		ldrb	r1, [sp, #15]	@ zero_extendqisi2
 835:Core/Src/Mytouch.c ****                         }else
 2554              		.loc 1 835 62 view .LVU626
 2555 01b8 9DF80E20 		ldrb	r2, [sp, #14]	@ zero_extendqisi2
 835:Core/Src/Mytouch.c ****                         }else
 2556              		.loc 1 835 58 view .LVU627
 2557 01bc 02EB0122 		add	r2, r2, r1, lsl #8
 835:Core/Src/Mytouch.c ****                         }else
 2558              		.loc 1 835 40 view .LVU628
 2559 01c0 0836     		adds	r6, r6, #8
 2560 01c2 03EB4603 		add	r3, r3, r6, lsl #1
 2561 01c6 DA80     		strh	r2, [r3, #6]	@ movhi
 2562 01c8 8FE7     		b	.L142
 2563              	.L146:
 838:Core/Src/Mytouch.c ****                             tp_dev.x[i]=272-(((u16)buf[3]<<8)+buf[2]);
 2564              		.loc 1 838 29 is_stmt 1 view .LVU629
 838:Core/Src/Mytouch.c ****                             tp_dev.x[i]=272-(((u16)buf[3]<<8)+buf[2]);
 2565              		.loc 1 838 50 is_stmt 0 view .LVU630
 2566 01ca 9DF80D30 		ldrb	r3, [sp, #13]	@ zero_extendqisi2
 838:Core/Src/Mytouch.c ****                             tp_dev.x[i]=272-(((u16)buf[3]<<8)+buf[2]);
 2567              		.loc 1 838 61 view .LVU631
 2568 01ce 9DF80C10 		ldrb	r1, [sp, #12]	@ zero_extendqisi2
 838:Core/Src/Mytouch.c ****                             tp_dev.x[i]=272-(((u16)buf[3]<<8)+buf[2]);
 2569              		.loc 1 838 57 view .LVU632
 2570 01d2 01EB0321 		add	r1, r1, r3, lsl #8
 838:Core/Src/Mytouch.c ****                             tp_dev.x[i]=272-(((u16)buf[3]<<8)+buf[2]);
 2571              		.loc 1 838 40 view .LVU633
 2572 01d6 434A     		ldr	r2, .L164+8
 2573 01d8 04F10803 		add	r3, r4, #8
 2574 01dc 02EB4303 		add	r3, r2, r3, lsl #1
 2575 01e0 D980     		strh	r1, [r3, #6]	@ movhi
 839:Core/Src/Mytouch.c ****                         }
 2576              		.loc 1 839 29 is_stmt 1 view .LVU634
 839:Core/Src/Mytouch.c ****                         }
 2577              		.loc 1 839 55 is_stmt 0 view .LVU635
ARM GAS  /tmp/ccNZMix7.s 			page 64


 2578 01e2 9DF80F10 		ldrb	r1, [sp, #15]	@ zero_extendqisi2
 839:Core/Src/Mytouch.c ****                         }
 2579              		.loc 1 839 66 view .LVU636
 2580 01e6 9DF80E30 		ldrb	r3, [sp, #14]	@ zero_extendqisi2
 839:Core/Src/Mytouch.c ****                         }
 2581              		.loc 1 839 62 view .LVU637
 2582 01ea 03EB0123 		add	r3, r3, r1, lsl #8
 2583 01ee 9BB2     		uxth	r3, r3
 839:Core/Src/Mytouch.c ****                         }
 2584              		.loc 1 839 44 view .LVU638
 2585 01f0 C3F58873 		rsb	r3, r3, #272
 839:Core/Src/Mytouch.c ****                         }
 2586              		.loc 1 839 40 view .LVU639
 2587 01f4 0436     		adds	r6, r6, #4
 2588 01f6 02EB4602 		add	r2, r2, r6, lsl #1
 2589 01fa 9380     		strh	r3, [r2, #4]	@ movhi
 2590 01fc 75E7     		b	.L142
 2591              	.L147:
 847:Core/Src/Mytouch.c ****                         }else
 848:Core/Src/Mytouch.c ****                         {
 849:Core/Src/Mytouch.c ****                             tp_dev.y[i]=((u16)buf[1]<<8)+buf[0];
 2592              		.loc 1 849 29 is_stmt 1 view .LVU640
 2593              		.loc 1 849 50 is_stmt 0 view .LVU641
 2594 01fe 9DF80D30 		ldrb	r3, [sp, #13]	@ zero_extendqisi2
 2595              		.loc 1 849 61 view .LVU642
 2596 0202 9DF80C10 		ldrb	r1, [sp, #12]	@ zero_extendqisi2
 2597              		.loc 1 849 57 view .LVU643
 2598 0206 01EB0321 		add	r1, r1, r3, lsl #8
 2599              		.loc 1 849 40 view .LVU644
 2600 020a 364A     		ldr	r2, .L164+8
 2601 020c 04F10803 		add	r3, r4, #8
 2602 0210 02EB4303 		add	r3, r2, r3, lsl #1
 2603 0214 D980     		strh	r1, [r3, #6]	@ movhi
 850:Core/Src/Mytouch.c ****                             tp_dev.x[i]=480-(((u16)buf[3]<<8)+buf[2]);
 2604              		.loc 1 850 29 is_stmt 1 view .LVU645
 2605              		.loc 1 850 55 is_stmt 0 view .LVU646
 2606 0216 9DF80F10 		ldrb	r1, [sp, #15]	@ zero_extendqisi2
 2607              		.loc 1 850 66 view .LVU647
 2608 021a 9DF80E30 		ldrb	r3, [sp, #14]	@ zero_extendqisi2
 2609              		.loc 1 850 62 view .LVU648
 2610 021e 03EB0123 		add	r3, r3, r1, lsl #8
 2611 0222 9BB2     		uxth	r3, r3
 2612              		.loc 1 850 44 view .LVU649
 2613 0224 C3F5F073 		rsb	r3, r3, #480
 2614              		.loc 1 850 40 view .LVU650
 2615 0228 0436     		adds	r6, r6, #4
 2616 022a 02EB4606 		add	r6, r2, r6, lsl #1
 2617 022e B380     		strh	r3, [r6, #4]	@ movhi
 2618 0230 5BE7     		b	.L142
 2619              	.L159:
 851:Core/Src/Mytouch.c ****                         }
 852:Core/Src/Mytouch.c ****                     }
 853:Core/Src/Mytouch.c **** 				}
 854:Core/Src/Mytouch.c **** 			}  
 855:Core/Src/Mytouch.c **** 			res=1;
 2620              		.loc 1 855 4 is_stmt 1 view .LVU651
 2621              	.LVL252:
ARM GAS  /tmp/ccNZMix7.s 			page 65


 856:Core/Src/Mytouch.c **** 			if(tp_dev.x[0]>lcddev.width||tp_dev.y[0]>lcddev.height)//非法数据(坐标超出了)
 2622              		.loc 1 856 4 view .LVU652
 2623              		.loc 1 856 15 is_stmt 0 view .LVU653
 2624 0232 2C4B     		ldr	r3, .L164+8
 2625 0234 9A89     		ldrh	r2, [r3, #12]
 2626              		.loc 1 856 25 view .LVU654
 2627 0236 2D4B     		ldr	r3, .L164+16
 2628 0238 1B88     		ldrh	r3, [r3]
 2629              		.loc 1 856 6 view .LVU655
 2630 023a 9A42     		cmp	r2, r3
 2631 023c 05D8     		bhi	.L149
 2632              		.loc 1 856 41 discriminator 1 view .LVU656
 2633 023e 294B     		ldr	r3, .L164+8
 2634 0240 DA8A     		ldrh	r2, [r3, #22]
 2635              		.loc 1 856 51 discriminator 1 view .LVU657
 2636 0242 2A4B     		ldr	r3, .L164+16
 2637 0244 5B88     		ldrh	r3, [r3, #2]
 2638              		.loc 1 856 31 discriminator 1 view .LVU658
 2639 0246 9A42     		cmp	r2, r3
 2640 0248 1AD9     		bls	.L150
 2641              	.L149:
 857:Core/Src/Mytouch.c **** 			{ 
 858:Core/Src/Mytouch.c **** 				if((mode&0XF)>1)		//有其他点有数据,则复第二个触点的数据到第一个触点.
 2642              		.loc 1 858 5 is_stmt 1 view .LVU659
 2643              		.loc 1 858 18 is_stmt 0 view .LVU660
 2644 024a 9DF80730 		ldrb	r3, [sp, #7]	@ zero_extendqisi2
 2645              		.loc 1 858 7 view .LVU661
 2646 024e 13F00E0F 		tst	r3, #14
 2647 0252 09D0     		beq	.L151
 859:Core/Src/Mytouch.c **** 				{
 860:Core/Src/Mytouch.c **** 					tp_dev.x[0]=tp_dev.x[1];
 2648              		.loc 1 860 6 is_stmt 1 view .LVU662
 2649              		.loc 1 860 26 is_stmt 0 view .LVU663
 2650 0254 234B     		ldr	r3, .L164+8
 2651 0256 DA89     		ldrh	r2, [r3, #14]
 2652              		.loc 1 860 17 view .LVU664
 2653 0258 9A81     		strh	r2, [r3, #12]	@ movhi
 861:Core/Src/Mytouch.c **** 					tp_dev.y[0]=tp_dev.y[1];
 2654              		.loc 1 861 6 is_stmt 1 view .LVU665
 2655              		.loc 1 861 26 is_stmt 0 view .LVU666
 2656 025a 1A8B     		ldrh	r2, [r3, #24]
 2657              		.loc 1 861 17 view .LVU667
 2658 025c DA82     		strh	r2, [r3, #22]	@ movhi
 862:Core/Src/Mytouch.c **** 					t=0;				//触发一次,则会最少连续监测10次,从而提高命中率
 2659              		.loc 1 862 6 is_stmt 1 view .LVU668
 2660              		.loc 1 862 7 is_stmt 0 view .LVU669
 2661 025e 1F4B     		ldr	r3, .L164
 2662 0260 0022     		movs	r2, #0
 2663 0262 1A70     		strb	r2, [r3]
 855:Core/Src/Mytouch.c **** 			if(tp_dev.x[0]>lcddev.width||tp_dev.y[0]>lcddev.height)//非法数据(坐标超出了)
 2664              		.loc 1 855 7 view .LVU670
 2665 0264 0120     		movs	r0, #1
 2666 0266 11E0     		b	.L139
 2667              	.L151:
 863:Core/Src/Mytouch.c **** 				}else					//非法数据,则忽略此次数据(还原原来的)  
 864:Core/Src/Mytouch.c **** 				{
 865:Core/Src/Mytouch.c **** 					tp_dev.x[0]=tp_dev.x[4];
ARM GAS  /tmp/ccNZMix7.s 			page 66


 2668              		.loc 1 865 6 is_stmt 1 view .LVU671
 2669              		.loc 1 865 26 is_stmt 0 view .LVU672
 2670 0268 1E4B     		ldr	r3, .L164+8
 2671 026a 9A8A     		ldrh	r2, [r3, #20]
 2672              		.loc 1 865 17 view .LVU673
 2673 026c 9A81     		strh	r2, [r3, #12]	@ movhi
 866:Core/Src/Mytouch.c **** 					tp_dev.y[0]=tp_dev.y[4];
 2674              		.loc 1 866 6 is_stmt 1 view .LVU674
 2675              		.loc 1 866 26 is_stmt 0 view .LVU675
 2676 026e DA8B     		ldrh	r2, [r3, #30]
 2677              		.loc 1 866 17 view .LVU676
 2678 0270 DA82     		strh	r2, [r3, #22]	@ movhi
 867:Core/Src/Mytouch.c **** 					mode=0X80;		
 2679              		.loc 1 867 6 is_stmt 1 view .LVU677
 2680              		.loc 1 867 10 is_stmt 0 view .LVU678
 2681 0272 8022     		movs	r2, #128
 2682 0274 8DF80720 		strb	r2, [sp, #7]
 868:Core/Src/Mytouch.c **** 					tp_dev.sta=tempsta;	//恢复tp_dev.sta
 2683              		.loc 1 868 6 is_stmt 1 view .LVU679
 2684              		.loc 1 868 16 is_stmt 0 view .LVU680
 2685 0278 83F82050 		strb	r5, [r3, #32]
 855:Core/Src/Mytouch.c **** 			if(tp_dev.x[0]>lcddev.width||tp_dev.y[0]>lcddev.height)//非法数据(坐标超出了)
 2686              		.loc 1 855 7 view .LVU681
 2687 027c 0120     		movs	r0, #1
 2688 027e 05E0     		b	.L139
 2689              	.L150:
 869:Core/Src/Mytouch.c **** 				}
 870:Core/Src/Mytouch.c **** 			}else t=0;					//触发一次,则会最少连续监测10次,从而提高命中率
 2690              		.loc 1 870 10 is_stmt 1 view .LVU682
 2691              		.loc 1 870 11 is_stmt 0 view .LVU683
 2692 0280 164B     		ldr	r3, .L164
 2693 0282 0022     		movs	r2, #0
 2694 0284 1A70     		strb	r2, [r3]
 855:Core/Src/Mytouch.c **** 			if(tp_dev.x[0]>lcddev.width||tp_dev.y[0]>lcddev.height)//非法数据(坐标超出了)
 2695              		.loc 1 855 7 view .LVU684
 2696 0286 0120     		movs	r0, #1
 2697 0288 00E0     		b	.L139
 2698              	.LVL253:
 2699              	.L155:
 794:Core/Src/Mytouch.c **** 	u8 temp;
 2700              		.loc 1 794 5 view .LVU685
 2701 028a 0020     		movs	r0, #0
 2702              	.LVL254:
 2703              	.L139:
 871:Core/Src/Mytouch.c **** 		}
 872:Core/Src/Mytouch.c **** 	}
 873:Core/Src/Mytouch.c **** 	if((mode&0X8F)==0X80)//无触摸点按下
 2704              		.loc 1 873 2 is_stmt 1 view .LVU686
 2705              		.loc 1 873 10 is_stmt 0 view .LVU687
 2706 028c 9DF80730 		ldrb	r3, [sp, #7]	@ zero_extendqisi2
 2707              		.loc 1 873 4 view .LVU688
 2708 0290 03F08F03 		and	r3, r3, #143
 2709 0294 802B     		cmp	r3, #128
 2710 0296 0AD0     		beq	.L162
 2711              	.L152:
 874:Core/Src/Mytouch.c **** 	{ 
 875:Core/Src/Mytouch.c **** 		if(tp_dev.sta&TP_PRES_DOWN)	//之前是被按下的
ARM GAS  /tmp/ccNZMix7.s 			page 67


 876:Core/Src/Mytouch.c **** 		{
 877:Core/Src/Mytouch.c **** 			tp_dev.sta&=~(1<<7);	//标记按键松开
 878:Core/Src/Mytouch.c **** 		}else						//之前就没有被按下
 879:Core/Src/Mytouch.c **** 		{ 
 880:Core/Src/Mytouch.c **** 			tp_dev.x[0]=0xffff;
 881:Core/Src/Mytouch.c **** 			tp_dev.y[0]=0xffff;
 882:Core/Src/Mytouch.c **** 			tp_dev.sta&=0XE0;	//清除点有效标记	
 883:Core/Src/Mytouch.c **** 		}	 
 884:Core/Src/Mytouch.c **** 	} 	
 885:Core/Src/Mytouch.c **** 	if(t>240)t=10;//重新从10开始计数
 2712              		.loc 1 885 2 is_stmt 1 view .LVU689
 2713              		.loc 1 885 6 is_stmt 0 view .LVU690
 2714 0298 104B     		ldr	r3, .L164
 2715 029a 1B78     		ldrb	r3, [r3]	@ zero_extendqisi2
 2716              		.loc 1 885 4 view .LVU691
 2717 029c F02B     		cmp	r3, #240
 2718 029e 02D9     		bls	.L154
 2719              		.loc 1 885 11 is_stmt 1 discriminator 1 view .LVU692
 2720              		.loc 1 885 12 is_stmt 0 discriminator 1 view .LVU693
 2721 02a0 0E4B     		ldr	r3, .L164
 2722 02a2 0A22     		movs	r2, #10
 2723 02a4 1A70     		strb	r2, [r3]
 2724              	.L154:
 886:Core/Src/Mytouch.c **** 	return res;
 2725              		.loc 1 886 2 is_stmt 1 view .LVU694
 887:Core/Src/Mytouch.c **** }
 2726              		.loc 1 887 1 is_stmt 0 view .LVU695
 2727 02a6 04B0     		add	sp, sp, #16
 2728              	.LCFI34:
 2729              		.cfi_remember_state
 2730              		.cfi_def_cfa_offset 16
 2731              		@ sp needed
 2732 02a8 70BD     		pop	{r4, r5, r6, pc}
 2733              	.LVL255:
 2734              	.L156:
 2735              	.LCFI35:
 2736              		.cfi_restore_state
 794:Core/Src/Mytouch.c **** 	u8 temp;
 2737              		.loc 1 794 5 view .LVU696
 2738 02aa 0020     		movs	r0, #0
 2739 02ac EEE7     		b	.L139
 2740              	.LVL256:
 2741              	.L162:
 875:Core/Src/Mytouch.c **** 		{
 2742              		.loc 1 875 3 is_stmt 1 view .LVU697
 875:Core/Src/Mytouch.c **** 		{
 2743              		.loc 1 875 12 is_stmt 0 view .LVU698
 2744 02ae 0D4A     		ldr	r2, .L164+8
 2745 02b0 92F82030 		ldrb	r3, [r2, #32]	@ zero_extendqisi2
 875:Core/Src/Mytouch.c **** 		{
 2746              		.loc 1 875 6 view .LVU699
 2747 02b4 92F92020 		ldrsb	r2, [r2, #32]
 875:Core/Src/Mytouch.c **** 		{
 2748              		.loc 1 875 5 view .LVU700
 2749 02b8 002A     		cmp	r2, #0
 2750 02ba 09DB     		blt	.L163
 880:Core/Src/Mytouch.c **** 			tp_dev.y[0]=0xffff;
ARM GAS  /tmp/ccNZMix7.s 			page 68


 2751              		.loc 1 880 4 is_stmt 1 view .LVU701
 880:Core/Src/Mytouch.c **** 			tp_dev.y[0]=0xffff;
 2752              		.loc 1 880 15 is_stmt 0 view .LVU702
 2753 02bc 094A     		ldr	r2, .L164+8
 2754 02be 4FF6FF71 		movw	r1, #65535
 2755 02c2 9181     		strh	r1, [r2, #12]	@ movhi
 881:Core/Src/Mytouch.c **** 			tp_dev.sta&=0XE0;	//清除点有效标记	
 2756              		.loc 1 881 4 is_stmt 1 view .LVU703
 881:Core/Src/Mytouch.c **** 			tp_dev.sta&=0XE0;	//清除点有效标记	
 2757              		.loc 1 881 15 is_stmt 0 view .LVU704
 2758 02c4 D182     		strh	r1, [r2, #22]	@ movhi
 882:Core/Src/Mytouch.c **** 		}	 
 2759              		.loc 1 882 4 is_stmt 1 view .LVU705
 882:Core/Src/Mytouch.c **** 		}	 
 2760              		.loc 1 882 14 is_stmt 0 view .LVU706
 2761 02c6 23F01F03 		bic	r3, r3, #31
 2762 02ca 82F82030 		strb	r3, [r2, #32]
 2763 02ce E3E7     		b	.L152
 2764              	.L163:
 877:Core/Src/Mytouch.c **** 		}else						//之前就没有被按下
 2765              		.loc 1 877 4 is_stmt 1 view .LVU707
 877:Core/Src/Mytouch.c **** 		}else						//之前就没有被按下
 2766              		.loc 1 877 14 is_stmt 0 view .LVU708
 2767 02d0 03F07F03 		and	r3, r3, #127
 2768 02d4 034A     		ldr	r2, .L164+8
 2769 02d6 82F82030 		strb	r3, [r2, #32]
 2770 02da DDE7     		b	.L152
 2771              	.L165:
 2772              		.align	2
 2773              	.L164:
 2774 02dc 00000000 		.word	.LANCHOR4
 2775 02e0 CDCCCCCC 		.word	-858993459
 2776 02e4 00000000 		.word	.LANCHOR2
 2777 02e8 00000000 		.word	.LANCHOR5
 2778 02ec 00000000 		.word	lcddev
 2779              		.cfi_endproc
 2780              	.LFE173:
 2782              		.section	.rodata.GT9147_Init.str1.4,"aMS",%progbits,1
 2783              		.align	2
 2784              	.LC9:
 2785 0000 43545020 		.ascii	"CTP ID:%s\015\012\000"
 2785      49443A25 
 2785      730D0A00 
 2786              		.align	2
 2787              	.LC10:
 2788 000c 39313437 		.ascii	"9147\000"
 2788      00
 2789 0011 000000   		.align	2
 2790              	.LC11:
 2791 0014 44656661 		.ascii	"Default Ver:%d\015\012\000"
 2791      756C7420 
 2791      5665723A 
 2791      25640D0A 
 2791      00
 2792              		.section	.text.GT9147_Init,"ax",%progbits
 2793              		.align	1
 2794              		.global	GT9147_Init
ARM GAS  /tmp/ccNZMix7.s 			page 69


 2795              		.syntax unified
 2796              		.thumb
 2797              		.thumb_func
 2798              		.fpu fpv5-d16
 2800              	GT9147_Init:
 2801              	.LFB172:
 736:Core/Src/Mytouch.c **** 	u8 temp[5]; 
 2802              		.loc 1 736 1 is_stmt 1 view -0
 2803              		.cfi_startproc
 2804              		@ args = 0, pretend = 0, frame = 40
 2805              		@ frame_needed = 0, uses_anonymous_args = 0
 2806 0000 2DE9F047 		push	{r4, r5, r6, r7, r8, r9, r10, lr}
 2807              	.LCFI36:
 2808              		.cfi_def_cfa_offset 32
 2809              		.cfi_offset 4, -32
 2810              		.cfi_offset 5, -28
 2811              		.cfi_offset 6, -24
 2812              		.cfi_offset 7, -20
 2813              		.cfi_offset 8, -16
 2814              		.cfi_offset 9, -12
 2815              		.cfi_offset 10, -8
 2816              		.cfi_offset 14, -4
 2817 0004 8AB0     		sub	sp, sp, #40
 2818              	.LCFI37:
 2819              		.cfi_def_cfa_offset 72
 737:Core/Src/Mytouch.c ****     GPIO_InitTypeDef GPIO_Initure;
 2820              		.loc 1 737 2 view .LVU710
 738:Core/Src/Mytouch.c ****     
 2821              		.loc 1 738 5 view .LVU711
 740:Core/Src/Mytouch.c ****     __HAL_RCC_GPIOI_CLK_ENABLE();			//开启GPIOI时钟
 2822              		.loc 1 740 5 view .LVU712
 2823              	.LBB4:
 740:Core/Src/Mytouch.c ****     __HAL_RCC_GPIOI_CLK_ENABLE();			//开启GPIOI时钟
 2824              		.loc 1 740 5 view .LVU713
 740:Core/Src/Mytouch.c ****     __HAL_RCC_GPIOI_CLK_ENABLE();			//开启GPIOI时钟
 2825              		.loc 1 740 5 view .LVU714
 2826 0006 4A4B     		ldr	r3, .L172
 2827 0008 D3F8E020 		ldr	r2, [r3, #224]
 2828 000c 42F08002 		orr	r2, r2, #128
 2829 0010 C3F8E020 		str	r2, [r3, #224]
 740:Core/Src/Mytouch.c ****     __HAL_RCC_GPIOI_CLK_ENABLE();			//开启GPIOI时钟
 2830              		.loc 1 740 5 view .LVU715
 2831 0014 D3F8E020 		ldr	r2, [r3, #224]
 2832 0018 02F08002 		and	r2, r2, #128
 2833 001c 0192     		str	r2, [sp, #4]
 740:Core/Src/Mytouch.c ****     __HAL_RCC_GPIOI_CLK_ENABLE();			//开启GPIOI时钟
 2834              		.loc 1 740 5 view .LVU716
 2835 001e 019A     		ldr	r2, [sp, #4]
 2836              	.LBE4:
 740:Core/Src/Mytouch.c ****     __HAL_RCC_GPIOI_CLK_ENABLE();			//开启GPIOI时钟
 2837              		.loc 1 740 5 view .LVU717
 741:Core/Src/Mytouch.c ****                 
 2838              		.loc 1 741 5 view .LVU718
 2839              	.LBB5:
 741:Core/Src/Mytouch.c ****                 
 2840              		.loc 1 741 5 view .LVU719
 741:Core/Src/Mytouch.c ****                 
ARM GAS  /tmp/ccNZMix7.s 			page 70


 2841              		.loc 1 741 5 view .LVU720
 2842 0020 D3F8E020 		ldr	r2, [r3, #224]
 2843 0024 42F48072 		orr	r2, r2, #256
 2844 0028 C3F8E020 		str	r2, [r3, #224]
 741:Core/Src/Mytouch.c ****                 
 2845              		.loc 1 741 5 view .LVU721
 2846 002c D3F8E030 		ldr	r3, [r3, #224]
 2847 0030 03F48073 		and	r3, r3, #256
 2848 0034 0293     		str	r3, [sp, #8]
 741:Core/Src/Mytouch.c ****                 
 2849              		.loc 1 741 5 view .LVU722
 2850 0036 029B     		ldr	r3, [sp, #8]
 2851              	.LBE5:
 741:Core/Src/Mytouch.c ****                 
 2852              		.loc 1 741 5 view .LVU723
 744:Core/Src/Mytouch.c ****     GPIO_Initure.Mode=GPIO_MODE_INPUT;      //输入
 2853              		.loc 1 744 5 view .LVU724
 744:Core/Src/Mytouch.c ****     GPIO_Initure.Mode=GPIO_MODE_INPUT;      //输入
 2854              		.loc 1 744 21 is_stmt 0 view .LVU725
 2855 0038 4FF0800A 		mov	r10, #128
 2856 003c CDF80CA0 		str	r10, [sp, #12]
 745:Core/Src/Mytouch.c ****     GPIO_Initure.Pull=GPIO_PULLUP;          //上拉
 2857              		.loc 1 745 5 is_stmt 1 view .LVU726
 745:Core/Src/Mytouch.c ****     GPIO_Initure.Pull=GPIO_PULLUP;          //上拉
 2858              		.loc 1 745 22 is_stmt 0 view .LVU727
 2859 0040 0024     		movs	r4, #0
 2860 0042 0494     		str	r4, [sp, #16]
 746:Core/Src/Mytouch.c ****     GPIO_Initure.Speed=GPIO_SPEED_FREQ_VERY_HIGH;     //高速
 2861              		.loc 1 746 5 is_stmt 1 view .LVU728
 746:Core/Src/Mytouch.c ****     GPIO_Initure.Speed=GPIO_SPEED_FREQ_VERY_HIGH;     //高速
 2862              		.loc 1 746 22 is_stmt 0 view .LVU729
 2863 0044 0127     		movs	r7, #1
 2864 0046 0597     		str	r7, [sp, #20]
 747:Core/Src/Mytouch.c ****     HAL_GPIO_Init(GPIOH,&GPIO_Initure);     //初始化
 2865              		.loc 1 747 5 is_stmt 1 view .LVU730
 747:Core/Src/Mytouch.c ****     HAL_GPIO_Init(GPIOH,&GPIO_Initure);     //初始化
 2866              		.loc 1 747 23 is_stmt 0 view .LVU731
 2867 0048 4FF00309 		mov	r9, #3
 2868 004c CDF81890 		str	r9, [sp, #24]
 748:Core/Src/Mytouch.c ****             
 2869              		.loc 1 748 5 is_stmt 1 view .LVU732
 2870 0050 DFF8F480 		ldr	r8, .L172+24
 2871 0054 03A9     		add	r1, sp, #12
 2872 0056 4046     		mov	r0, r8
 2873 0058 FFF7FEFF 		bl	HAL_GPIO_Init
 2874              	.LVL257:
 751:Core/Src/Mytouch.c ****     GPIO_Initure.Mode=GPIO_MODE_OUTPUT_PP;  //推挽输出
 2875              		.loc 1 751 5 view .LVU733
 751:Core/Src/Mytouch.c ****     GPIO_Initure.Mode=GPIO_MODE_OUTPUT_PP;  //推挽输出
 2876              		.loc 1 751 21 is_stmt 0 view .LVU734
 2877 005c 4FF48076 		mov	r6, #256
 2878 0060 0396     		str	r6, [sp, #12]
 752:Core/Src/Mytouch.c ****     HAL_GPIO_Init(GPIOI,&GPIO_Initure);     //初始化
 2879              		.loc 1 752 5 is_stmt 1 view .LVU735
 752:Core/Src/Mytouch.c ****     HAL_GPIO_Init(GPIOI,&GPIO_Initure);     //初始化
 2880              		.loc 1 752 22 is_stmt 0 view .LVU736
 2881 0062 0497     		str	r7, [sp, #16]
ARM GAS  /tmp/ccNZMix7.s 			page 71


 753:Core/Src/Mytouch.c **** 	CT_IIC_Init();      	//初始化电容屏的I2C总线  
 2882              		.loc 1 753 5 is_stmt 1 view .LVU737
 2883 0064 334D     		ldr	r5, .L172+4
 2884 0066 03A9     		add	r1, sp, #12
 2885 0068 2846     		mov	r0, r5
 2886 006a FFF7FEFF 		bl	HAL_GPIO_Init
 2887              	.LVL258:
 754:Core/Src/Mytouch.c **** 	GT_RST(0);				//复位
 2888              		.loc 1 754 2 view .LVU738
 2889 006e FFF7FEFF 		bl	CT_IIC_Init
 2890              	.LVL259:
 755:Core/Src/Mytouch.c **** 	HAL_Delay(10);
 2891              		.loc 1 755 2 view .LVU739
 2892 0072 2246     		mov	r2, r4
 2893 0074 3146     		mov	r1, r6
 2894 0076 2846     		mov	r0, r5
 2895 0078 FFF7FEFF 		bl	HAL_GPIO_WritePin
 2896              	.LVL260:
 756:Core/Src/Mytouch.c ****  	GT_RST(1);				//释放复位		    
 2897              		.loc 1 756 2 view .LVU740
 2898 007c 0A20     		movs	r0, #10
 2899 007e FFF7FEFF 		bl	HAL_Delay
 2900              	.LVL261:
 757:Core/Src/Mytouch.c **** 	HAL_Delay(10); 
 2901              		.loc 1 757 3 view .LVU741
 2902 0082 3A46     		mov	r2, r7
 2903 0084 3146     		mov	r1, r6
 2904 0086 2846     		mov	r0, r5
 2905 0088 FFF7FEFF 		bl	HAL_GPIO_WritePin
 2906              	.LVL262:
 758:Core/Src/Mytouch.c ****     GPIO_Initure.Pin=GPIO_PIN_7;            //PH7
 2907              		.loc 1 758 2 view .LVU742
 2908 008c 0A20     		movs	r0, #10
 2909 008e FFF7FEFF 		bl	HAL_Delay
 2910              	.LVL263:
 759:Core/Src/Mytouch.c ****     GPIO_Initure.Mode=GPIO_MODE_INPUT;      //输入
 2911              		.loc 1 759 5 view .LVU743
 759:Core/Src/Mytouch.c ****     GPIO_Initure.Mode=GPIO_MODE_INPUT;      //输入
 2912              		.loc 1 759 21 is_stmt 0 view .LVU744
 2913 0092 CDF80CA0 		str	r10, [sp, #12]
 760:Core/Src/Mytouch.c ****     GPIO_Initure.Pull=GPIO_NOPULL;          //不带上下拉，浮空输入
 2914              		.loc 1 760 5 is_stmt 1 view .LVU745
 760:Core/Src/Mytouch.c ****     GPIO_Initure.Pull=GPIO_NOPULL;          //不带上下拉，浮空输入
 2915              		.loc 1 760 22 is_stmt 0 view .LVU746
 2916 0096 0494     		str	r4, [sp, #16]
 761:Core/Src/Mytouch.c ****     GPIO_Initure.Speed=GPIO_SPEED_FREQ_VERY_HIGH;     //高速
 2917              		.loc 1 761 5 is_stmt 1 view .LVU747
 761:Core/Src/Mytouch.c ****     GPIO_Initure.Speed=GPIO_SPEED_FREQ_VERY_HIGH;     //高速
 2918              		.loc 1 761 22 is_stmt 0 view .LVU748
 2919 0098 0594     		str	r4, [sp, #20]
 762:Core/Src/Mytouch.c ****     HAL_GPIO_Init(GPIOH,&GPIO_Initure);     //初始化
 2920              		.loc 1 762 5 is_stmt 1 view .LVU749
 762:Core/Src/Mytouch.c ****     HAL_GPIO_Init(GPIOH,&GPIO_Initure);     //初始化
 2921              		.loc 1 762 23 is_stmt 0 view .LVU750
 2922 009a CDF81890 		str	r9, [sp, #24]
 763:Core/Src/Mytouch.c **** 	HAL_Delay(100);  
 2923              		.loc 1 763 5 is_stmt 1 view .LVU751
ARM GAS  /tmp/ccNZMix7.s 			page 72


 2924 009e 03A9     		add	r1, sp, #12
 2925 00a0 4046     		mov	r0, r8
 2926 00a2 FFF7FEFF 		bl	HAL_GPIO_Init
 2927              	.LVL264:
 764:Core/Src/Mytouch.c **** 	GT9147_RD_Reg(GT_PID_REG,temp,4);//读取产品ID
 2928              		.loc 1 764 2 view .LVU752
 2929 00a6 6420     		movs	r0, #100
 2930 00a8 FFF7FEFF 		bl	HAL_Delay
 2931              	.LVL265:
 765:Core/Src/Mytouch.c **** 	temp[4]=0;
 2932              		.loc 1 765 2 view .LVU753
 2933 00ac 0422     		movs	r2, #4
 2934 00ae 08A9     		add	r1, sp, #32
 2935 00b0 48F24010 		movw	r0, #33088
 2936 00b4 FFF7FEFF 		bl	GT9147_RD_Reg
 2937              	.LVL266:
 766:Core/Src/Mytouch.c **** 	printf("CTP ID:%s\r\n",temp);	//打印ID
 2938              		.loc 1 766 2 view .LVU754
 766:Core/Src/Mytouch.c **** 	printf("CTP ID:%s\r\n",temp);	//打印ID
 2939              		.loc 1 766 9 is_stmt 0 view .LVU755
 2940 00b8 8DF82440 		strb	r4, [sp, #36]
 767:Core/Src/Mytouch.c **** 	if(strcmp((char*)temp,"9147")==0)//ID==9147
 2941              		.loc 1 767 2 is_stmt 1 view .LVU756
 2942 00bc 08A9     		add	r1, sp, #32
 2943 00be 1E48     		ldr	r0, .L172+8
 2944 00c0 FFF7FEFF 		bl	printf
 2945              	.LVL267:
 768:Core/Src/Mytouch.c **** 	{
 2946              		.loc 1 768 2 view .LVU757
 768:Core/Src/Mytouch.c **** 	{
 2947              		.loc 1 768 5 is_stmt 0 view .LVU758
 2948 00c4 1D49     		ldr	r1, .L172+12
 2949 00c6 08A8     		add	r0, sp, #32
 2950 00c8 FFF7FEFF 		bl	strcmp
 2951              	.LVL268:
 768:Core/Src/Mytouch.c **** 	{
 2952              		.loc 1 768 4 view .LVU759
 2953 00cc 18B1     		cbz	r0, .L170
 2954              	.L167:
 784:Core/Src/Mytouch.c **** const u16 GT9147_TPX_TBL[5]={GT_TP1_REG,GT_TP2_REG,GT_TP3_REG,GT_TP4_REG,GT_TP5_REG};
 2955              		.loc 1 784 1 view .LVU760
 2956 00ce 0020     		movs	r0, #0
 2957 00d0 0AB0     		add	sp, sp, #40
 2958              	.LCFI38:
 2959              		.cfi_remember_state
 2960              		.cfi_def_cfa_offset 32
 2961              		@ sp needed
 2962 00d2 BDE8F087 		pop	{r4, r5, r6, r7, r8, r9, r10, pc}
 2963              	.L170:
 2964              	.LCFI39:
 2965              		.cfi_restore_state
 770:Core/Src/Mytouch.c **** 		GT9147_WR_Reg(GT_CTRL_REG,temp,1);//软复位GT9147
 2966              		.loc 1 770 3 is_stmt 1 view .LVU761
 770:Core/Src/Mytouch.c **** 		GT9147_WR_Reg(GT_CTRL_REG,temp,1);//软复位GT9147
 2967              		.loc 1 770 10 is_stmt 0 view .LVU762
 2968 00d6 0223     		movs	r3, #2
 2969 00d8 8DF82030 		strb	r3, [sp, #32]
ARM GAS  /tmp/ccNZMix7.s 			page 73


 771:Core/Src/Mytouch.c **** 		GT9147_RD_Reg(GT_CFGS_REG,temp,1);//读取GT_CFGS_REG寄存器
 2970              		.loc 1 771 3 is_stmt 1 view .LVU763
 2971 00dc 3A46     		mov	r2, r7
 2972 00de 08A9     		add	r1, sp, #32
 2973 00e0 48F24000 		movw	r0, #32832
 2974 00e4 FFF7FEFF 		bl	GT9147_WR_Reg
 2975              	.LVL269:
 772:Core/Src/Mytouch.c **** 		if(temp[0]<0X60)//默认版本比较低,需要更新flash配置
 2976              		.loc 1 772 3 view .LVU764
 2977 00e8 3A46     		mov	r2, r7
 2978 00ea 08A9     		add	r1, sp, #32
 2979 00ec 48F24700 		movw	r0, #32839
 2980 00f0 FFF7FEFF 		bl	GT9147_RD_Reg
 2981              	.LVL270:
 773:Core/Src/Mytouch.c **** 		{
 2982              		.loc 1 773 3 view .LVU765
 773:Core/Src/Mytouch.c **** 		{
 2983              		.loc 1 773 10 is_stmt 0 view .LVU766
 2984 00f4 9DF82010 		ldrb	r1, [sp, #32]	@ zero_extendqisi2
 773:Core/Src/Mytouch.c **** 		{
 2985              		.loc 1 773 5 view .LVU767
 2986 00f8 5F29     		cmp	r1, #95
 2987 00fa 0CD9     		bls	.L171
 2988              	.L168:
 778:Core/Src/Mytouch.c **** 		temp[0]=0X00;	 
 2989              		.loc 1 778 3 is_stmt 1 view .LVU768
 2990 00fc 0A20     		movs	r0, #10
 2991 00fe FFF7FEFF 		bl	HAL_Delay
 2992              	.LVL271:
 779:Core/Src/Mytouch.c **** 		GT9147_WR_Reg(GT_CTRL_REG,temp,1);//结束复位   
 2993              		.loc 1 779 3 view .LVU769
 779:Core/Src/Mytouch.c **** 		GT9147_WR_Reg(GT_CTRL_REG,temp,1);//结束复位   
 2994              		.loc 1 779 10 is_stmt 0 view .LVU770
 2995 0102 0023     		movs	r3, #0
 2996 0104 8DF82030 		strb	r3, [sp, #32]
 780:Core/Src/Mytouch.c **** 		return 0;
 2997              		.loc 1 780 3 is_stmt 1 view .LVU771
 2998 0108 0122     		movs	r2, #1
 2999 010a 08A9     		add	r1, sp, #32
 3000 010c 48F24000 		movw	r0, #32832
 3001 0110 FFF7FEFF 		bl	GT9147_WR_Reg
 3002              	.LVL272:
 781:Core/Src/Mytouch.c **** 	} 
 3003              		.loc 1 781 3 view .LVU772
 781:Core/Src/Mytouch.c **** 	} 
 3004              		.loc 1 781 10 is_stmt 0 view .LVU773
 3005 0114 DBE7     		b	.L167
 3006              	.L171:
 775:Core/Src/Mytouch.c ****             if(lcddev.id==0X5510)GT9147_Send_Cfg(1);//更新并保存配置
 3007              		.loc 1 775 4 is_stmt 1 view .LVU774
 3008 0116 0A48     		ldr	r0, .L172+16
 3009 0118 FFF7FEFF 		bl	printf
 3010              	.LVL273:
 776:Core/Src/Mytouch.c **** 		}
 3011              		.loc 1 776 13 view .LVU775
 776:Core/Src/Mytouch.c **** 		}
 3012              		.loc 1 776 22 is_stmt 0 view .LVU776
ARM GAS  /tmp/ccNZMix7.s 			page 74


 3013 011c 094B     		ldr	r3, .L172+20
 3014 011e 9A88     		ldrh	r2, [r3, #4]
 776:Core/Src/Mytouch.c **** 		}
 3015              		.loc 1 776 15 view .LVU777
 3016 0120 45F21053 		movw	r3, #21776
 3017 0124 9A42     		cmp	r2, r3
 3018 0126 E9D1     		bne	.L168
 776:Core/Src/Mytouch.c **** 		}
 3019              		.loc 1 776 34 is_stmt 1 discriminator 1 view .LVU778
 3020 0128 3846     		mov	r0, r7
 3021 012a FFF7FEFF 		bl	GT9147_Send_Cfg
 3022              	.LVL274:
 3023 012e E5E7     		b	.L168
 3024              	.L173:
 3025              		.align	2
 3026              	.L172:
 3027 0130 00440258 		.word	1476543488
 3028 0134 00200258 		.word	1476534272
 3029 0138 00000000 		.word	.LC9
 3030 013c 0C000000 		.word	.LC10
 3031 0140 14000000 		.word	.LC11
 3032 0144 00000000 		.word	lcddev
 3033 0148 001C0258 		.word	1476533248
 3034              		.cfi_endproc
 3035              	.LFE172:
 3037              		.section	.text.OTT2001A_WR_Reg,"ax",%progbits
 3038              		.align	1
 3039              		.global	OTT2001A_WR_Reg
 3040              		.syntax unified
 3041              		.thumb
 3042              		.thumb_func
 3043              		.fpu fpv5-d16
 3045              	OTT2001A_WR_Reg:
 3046              	.LVL275:
 3047              	.LFB174:
 888:Core/Src/Mytouch.c **** 
 889:Core/Src/Mytouch.c **** /* OTT2001A */
 890:Core/Src/Mytouch.c **** 
 891:Core/Src/Mytouch.c **** 
 892:Core/Src/Mytouch.c **** //向OTT2001A写入一次数据
 893:Core/Src/Mytouch.c **** //reg:起始寄存器地址
 894:Core/Src/Mytouch.c **** //buf:数据缓缓存区
 895:Core/Src/Mytouch.c **** //len:写数据长度
 896:Core/Src/Mytouch.c **** //返回值:0,成功;1,失败.
 897:Core/Src/Mytouch.c **** u8 OTT2001A_WR_Reg(u16 reg,u8 *buf,u8 len)
 898:Core/Src/Mytouch.c **** {
 3048              		.loc 1 898 1 view -0
 3049              		.cfi_startproc
 3050              		@ args = 0, pretend = 0, frame = 0
 3051              		@ frame_needed = 0, uses_anonymous_args = 0
 3052              		.loc 1 898 1 is_stmt 0 view .LVU780
 3053 0000 F8B5     		push	{r3, r4, r5, r6, r7, lr}
 3054              	.LCFI40:
 3055              		.cfi_def_cfa_offset 24
 3056              		.cfi_offset 3, -24
 3057              		.cfi_offset 4, -20
 3058              		.cfi_offset 5, -16
ARM GAS  /tmp/ccNZMix7.s 			page 75


 3059              		.cfi_offset 6, -12
 3060              		.cfi_offset 7, -8
 3061              		.cfi_offset 14, -4
 3062 0002 0446     		mov	r4, r0
 3063 0004 0F46     		mov	r7, r1
 3064 0006 1546     		mov	r5, r2
 899:Core/Src/Mytouch.c **** 	u8 i;
 3065              		.loc 1 899 2 is_stmt 1 view .LVU781
 900:Core/Src/Mytouch.c **** 	u8 ret=0;
 3066              		.loc 1 900 2 view .LVU782
 3067              	.LVL276:
 901:Core/Src/Mytouch.c **** 	CT_IIC_Start();	
 3068              		.loc 1 901 2 view .LVU783
 3069 0008 FFF7FEFF 		bl	CT_IIC_Start
 3070              	.LVL277:
 902:Core/Src/Mytouch.c ****  	CT_IIC_Send_Byte(OTT_CMD_WR);   //发送写命令 	 
 3071              		.loc 1 902 3 view .LVU784
 3072 000c B220     		movs	r0, #178
 3073 000e FFF7FEFF 		bl	CT_IIC_Send_Byte
 3074              	.LVL278:
 903:Core/Src/Mytouch.c **** 	CT_IIC_Wait_Ack();
 3075              		.loc 1 903 2 view .LVU785
 3076 0012 FFF7FEFF 		bl	CT_IIC_Wait_Ack
 3077              	.LVL279:
 904:Core/Src/Mytouch.c **** 	CT_IIC_Send_Byte(reg>>8);   	//发送高8位地址
 3078              		.loc 1 904 2 view .LVU786
 3079 0016 200A     		lsrs	r0, r4, #8
 3080 0018 FFF7FEFF 		bl	CT_IIC_Send_Byte
 3081              	.LVL280:
 905:Core/Src/Mytouch.c **** 	CT_IIC_Wait_Ack(); 	 										  		   
 3082              		.loc 1 905 2 view .LVU787
 3083 001c FFF7FEFF 		bl	CT_IIC_Wait_Ack
 3084              	.LVL281:
 906:Core/Src/Mytouch.c **** 	CT_IIC_Send_Byte(reg&0XFF);   	//发送低8位地址
 3085              		.loc 1 906 2 view .LVU788
 3086 0020 E0B2     		uxtb	r0, r4
 3087 0022 FFF7FEFF 		bl	CT_IIC_Send_Byte
 3088              	.LVL282:
 907:Core/Src/Mytouch.c **** 	CT_IIC_Wait_Ack();  
 3089              		.loc 1 907 2 view .LVU789
 3090 0026 FFF7FEFF 		bl	CT_IIC_Wait_Ack
 3091              	.LVL283:
 908:Core/Src/Mytouch.c **** 	for(i=0;i<len;i++)
 3092              		.loc 1 908 2 view .LVU790
 900:Core/Src/Mytouch.c **** 	CT_IIC_Start();	
 3093              		.loc 1 900 5 is_stmt 0 view .LVU791
 3094 002a 0026     		movs	r6, #0
 3095              		.loc 1 908 7 view .LVU792
 3096 002c 3446     		mov	r4, r6
 3097              		.loc 1 908 2 view .LVU793
 3098 002e 01E0     		b	.L175
 3099              	.LVL284:
 3100              	.L179:
 3101              		.loc 1 908 16 is_stmt 1 discriminator 2 view .LVU794
 3102              		.loc 1 908 17 is_stmt 0 discriminator 2 view .LVU795
 3103 0030 0134     		adds	r4, r4, #1
 3104              	.LVL285:
ARM GAS  /tmp/ccNZMix7.s 			page 76


 3105              		.loc 1 908 17 discriminator 2 view .LVU796
 3106 0032 E4B2     		uxtb	r4, r4
 3107              	.LVL286:
 3108              	.L175:
 3109              		.loc 1 908 10 is_stmt 1 discriminator 1 view .LVU797
 3110              		.loc 1 908 2 is_stmt 0 discriminator 1 view .LVU798
 3111 0034 AC42     		cmp	r4, r5
 3112 0036 07D2     		bcs	.L176
 909:Core/Src/Mytouch.c **** 	{	   
 910:Core/Src/Mytouch.c ****     	CT_IIC_Send_Byte(buf[i]);  	//发数据
 3113              		.loc 1 910 6 is_stmt 1 view .LVU799
 3114 0038 385D     		ldrb	r0, [r7, r4]	@ zero_extendqisi2
 3115 003a FFF7FEFF 		bl	CT_IIC_Send_Byte
 3116              	.LVL287:
 911:Core/Src/Mytouch.c **** 		ret=CT_IIC_Wait_Ack();
 3117              		.loc 1 911 3 view .LVU800
 3118              		.loc 1 911 7 is_stmt 0 view .LVU801
 3119 003e FFF7FEFF 		bl	CT_IIC_Wait_Ack
 3120              	.LVL288:
 912:Core/Src/Mytouch.c **** 		if(ret)break;  
 3121              		.loc 1 912 3 is_stmt 1 view .LVU802
 3122              		.loc 1 912 5 is_stmt 0 view .LVU803
 3123 0042 0646     		mov	r6, r0
 3124 0044 0028     		cmp	r0, #0
 3125 0046 F3D0     		beq	.L179
 3126              	.LVL289:
 3127              	.L176:
 913:Core/Src/Mytouch.c **** 	}
 914:Core/Src/Mytouch.c ****     CT_IIC_Stop();					//产生一个停止条件	    
 3128              		.loc 1 914 5 is_stmt 1 view .LVU804
 3129 0048 FFF7FEFF 		bl	CT_IIC_Stop
 3130              	.LVL290:
 915:Core/Src/Mytouch.c **** 	return ret; 
 3131              		.loc 1 915 2 view .LVU805
 916:Core/Src/Mytouch.c **** }
 3132              		.loc 1 916 1 is_stmt 0 view .LVU806
 3133 004c 3046     		mov	r0, r6
 3134 004e F8BD     		pop	{r3, r4, r5, r6, r7, pc}
 3135              		.loc 1 916 1 view .LVU807
 3136              		.cfi_endproc
 3137              	.LFE174:
 3139              		.section	.text.OTT2001A_RD_Reg,"ax",%progbits
 3140              		.align	1
 3141              		.global	OTT2001A_RD_Reg
 3142              		.syntax unified
 3143              		.thumb
 3144              		.thumb_func
 3145              		.fpu fpv5-d16
 3147              	OTT2001A_RD_Reg:
 3148              	.LVL291:
 3149              	.LFB175:
 917:Core/Src/Mytouch.c **** //从OTT2001A读出一次数据
 918:Core/Src/Mytouch.c **** //reg:起始寄存器地址
 919:Core/Src/Mytouch.c **** //buf:数据缓缓存区
 920:Core/Src/Mytouch.c **** //len:读数据长度			  
 921:Core/Src/Mytouch.c **** void OTT2001A_RD_Reg(u16 reg,u8 *buf,u8 len)
 922:Core/Src/Mytouch.c **** {
ARM GAS  /tmp/ccNZMix7.s 			page 77


 3150              		.loc 1 922 1 is_stmt 1 view -0
 3151              		.cfi_startproc
 3152              		@ args = 0, pretend = 0, frame = 0
 3153              		@ frame_needed = 0, uses_anonymous_args = 0
 3154              		.loc 1 922 1 is_stmt 0 view .LVU809
 3155 0000 70B5     		push	{r4, r5, r6, lr}
 3156              	.LCFI41:
 3157              		.cfi_def_cfa_offset 16
 3158              		.cfi_offset 4, -16
 3159              		.cfi_offset 5, -12
 3160              		.cfi_offset 6, -8
 3161              		.cfi_offset 14, -4
 3162 0002 0446     		mov	r4, r0
 3163 0004 0E46     		mov	r6, r1
 3164 0006 1546     		mov	r5, r2
 923:Core/Src/Mytouch.c **** 	u8 i; 
 3165              		.loc 1 923 2 is_stmt 1 view .LVU810
 924:Core/Src/Mytouch.c ****  	CT_IIC_Start();	
 3166              		.loc 1 924 3 view .LVU811
 3167 0008 FFF7FEFF 		bl	CT_IIC_Start
 3168              	.LVL292:
 925:Core/Src/Mytouch.c ****  	CT_IIC_Send_Byte(OTT_CMD_WR);   //发送写命令 	 
 3169              		.loc 1 925 3 view .LVU812
 3170 000c B220     		movs	r0, #178
 3171 000e FFF7FEFF 		bl	CT_IIC_Send_Byte
 3172              	.LVL293:
 926:Core/Src/Mytouch.c **** 	CT_IIC_Wait_Ack();
 3173              		.loc 1 926 2 view .LVU813
 3174 0012 FFF7FEFF 		bl	CT_IIC_Wait_Ack
 3175              	.LVL294:
 927:Core/Src/Mytouch.c ****  	CT_IIC_Send_Byte(reg>>8);   	//发送高8位地址
 3176              		.loc 1 927 3 view .LVU814
 3177 0016 200A     		lsrs	r0, r4, #8
 3178 0018 FFF7FEFF 		bl	CT_IIC_Send_Byte
 3179              	.LVL295:
 928:Core/Src/Mytouch.c **** 	CT_IIC_Wait_Ack(); 	 										  		   
 3180              		.loc 1 928 2 view .LVU815
 3181 001c FFF7FEFF 		bl	CT_IIC_Wait_Ack
 3182              	.LVL296:
 929:Core/Src/Mytouch.c ****  	CT_IIC_Send_Byte(reg&0XFF);   	//发送低8位地址
 3183              		.loc 1 929 3 view .LVU816
 3184 0020 E0B2     		uxtb	r0, r4
 3185 0022 FFF7FEFF 		bl	CT_IIC_Send_Byte
 3186              	.LVL297:
 930:Core/Src/Mytouch.c **** 	CT_IIC_Wait_Ack();  
 3187              		.loc 1 930 2 view .LVU817
 3188 0026 FFF7FEFF 		bl	CT_IIC_Wait_Ack
 3189              	.LVL298:
 931:Core/Src/Mytouch.c ****  	CT_IIC_Start();  	 	   
 3190              		.loc 1 931 3 view .LVU818
 3191 002a FFF7FEFF 		bl	CT_IIC_Start
 3192              	.LVL299:
 932:Core/Src/Mytouch.c **** 	CT_IIC_Send_Byte(OTT_CMD_RD);   //发送读命令		   
 3193              		.loc 1 932 2 view .LVU819
 3194 002e B320     		movs	r0, #179
 3195 0030 FFF7FEFF 		bl	CT_IIC_Send_Byte
 3196              	.LVL300:
ARM GAS  /tmp/ccNZMix7.s 			page 78


 933:Core/Src/Mytouch.c **** 	CT_IIC_Wait_Ack();	   
 3197              		.loc 1 933 2 view .LVU820
 3198 0034 FFF7FEFF 		bl	CT_IIC_Wait_Ack
 3199              	.LVL301:
 934:Core/Src/Mytouch.c **** 	for(i=0;i<len;i++)
 3200              		.loc 1 934 2 view .LVU821
 3201              		.loc 1 934 7 is_stmt 0 view .LVU822
 3202 0038 0024     		movs	r4, #0
 3203              		.loc 1 934 2 view .LVU823
 3204 003a 08E0     		b	.L181
 3205              	.LVL302:
 3206              	.L182:
 935:Core/Src/Mytouch.c **** 	{	   
 936:Core/Src/Mytouch.c ****     	buf[i]=CT_IIC_Read_Byte(i==(len-1)?0:1); //发数据	  
 3207              		.loc 1 936 6 is_stmt 1 discriminator 3 view .LVU824
 3208              		.loc 1 936 37 is_stmt 0 discriminator 3 view .LVU825
 3209 003c 681E     		subs	r0, r5, #1
 3210              		.loc 1 936 13 discriminator 3 view .LVU826
 3211 003e 201A     		subs	r0, r4, r0
 3212 0040 18BF     		it	ne
 3213 0042 0120     		movne	r0, #1
 3214 0044 FFF7FEFF 		bl	CT_IIC_Read_Byte
 3215              	.LVL303:
 3216              		.loc 1 936 12 discriminator 3 view .LVU827
 3217 0048 3055     		strb	r0, [r6, r4]
 934:Core/Src/Mytouch.c **** 	for(i=0;i<len;i++)
 3218              		.loc 1 934 16 is_stmt 1 discriminator 3 view .LVU828
 934:Core/Src/Mytouch.c **** 	for(i=0;i<len;i++)
 3219              		.loc 1 934 17 is_stmt 0 discriminator 3 view .LVU829
 3220 004a 0134     		adds	r4, r4, #1
 3221              	.LVL304:
 934:Core/Src/Mytouch.c **** 	for(i=0;i<len;i++)
 3222              		.loc 1 934 17 discriminator 3 view .LVU830
 3223 004c E4B2     		uxtb	r4, r4
 3224              	.LVL305:
 3225              	.L181:
 934:Core/Src/Mytouch.c **** 	for(i=0;i<len;i++)
 3226              		.loc 1 934 10 is_stmt 1 discriminator 1 view .LVU831
 934:Core/Src/Mytouch.c **** 	for(i=0;i<len;i++)
 3227              		.loc 1 934 2 is_stmt 0 discriminator 1 view .LVU832
 3228 004e AC42     		cmp	r4, r5
 3229 0050 F4D3     		bcc	.L182
 937:Core/Src/Mytouch.c **** 	} 
 938:Core/Src/Mytouch.c ****     CT_IIC_Stop();//产生一个停止条件    
 3230              		.loc 1 938 5 is_stmt 1 view .LVU833
 3231 0052 FFF7FEFF 		bl	CT_IIC_Stop
 3232              	.LVL306:
 939:Core/Src/Mytouch.c **** }
 3233              		.loc 1 939 1 is_stmt 0 view .LVU834
 3234 0056 70BD     		pop	{r4, r5, r6, pc}
 3235              		.loc 1 939 1 view .LVU835
 3236              		.cfi_endproc
 3237              	.LFE175:
 3239              		.section	.text.OTT2001A_Scan,"ax",%progbits
 3240              		.align	1
 3241              		.global	OTT2001A_Scan
 3242              		.syntax unified
ARM GAS  /tmp/ccNZMix7.s 			page 79


 3243              		.thumb
 3244              		.thumb_func
 3245              		.fpu fpv5-d16
 3247              	OTT2001A_Scan:
 3248              	.LVL307:
 3249              	.LFB178:
 940:Core/Src/Mytouch.c **** //传感器打开/关闭操作
 941:Core/Src/Mytouch.c **** //cmd:1,打开传感器;0,关闭传感器
 942:Core/Src/Mytouch.c **** void OTT2001A_SensorControl(u8 cmd)
 943:Core/Src/Mytouch.c **** {
 944:Core/Src/Mytouch.c **** 	u8 regval=0X00;
 945:Core/Src/Mytouch.c **** 	if(cmd)regval=0X80;
 946:Core/Src/Mytouch.c **** 	OTT2001A_WR_Reg(OTT_CTRL_REG,&regval,1); 
 947:Core/Src/Mytouch.c **** } 
 948:Core/Src/Mytouch.c **** //初始化触摸屏
 949:Core/Src/Mytouch.c **** //返回值:0,初始化成功;1,初始化失败 
 950:Core/Src/Mytouch.c **** u8 OTT2001A_Init(void)
 951:Core/Src/Mytouch.c **** {
 952:Core/Src/Mytouch.c ****  	u8 regval=0; 
 953:Core/Src/Mytouch.c ****     GPIO_InitTypeDef GPIO_Initure;
 954:Core/Src/Mytouch.c ****  
 955:Core/Src/Mytouch.c ****     __HAL_RCC_GPIOH_CLK_ENABLE();			//开启GPIOH时钟
 956:Core/Src/Mytouch.c ****     __HAL_RCC_GPIOI_CLK_ENABLE();			//开启GPIOI时钟
 957:Core/Src/Mytouch.c ****                 
 958:Core/Src/Mytouch.c ****     //PH7
 959:Core/Src/Mytouch.c ****     GPIO_Initure.Pin=GPIO_PIN_7;            //PH7
 960:Core/Src/Mytouch.c ****     GPIO_Initure.Mode=GPIO_MODE_INPUT;      //输入
 961:Core/Src/Mytouch.c ****     GPIO_Initure.Pull=GPIO_PULLUP;          //上拉
 962:Core/Src/Mytouch.c ****     GPIO_Initure.Speed=GPIO_SPEED_FREQ_VERY_HIGH;     //高速
 963:Core/Src/Mytouch.c ****     HAL_GPIO_Init(GPIOH,&GPIO_Initure);     //初始化
 964:Core/Src/Mytouch.c ****             
 965:Core/Src/Mytouch.c ****     //PI8
 966:Core/Src/Mytouch.c ****     GPIO_Initure.Pin=GPIO_PIN_8;            //PI8
 967:Core/Src/Mytouch.c ****     GPIO_Initure.Mode=GPIO_MODE_OUTPUT_PP;  //推挽输出
 968:Core/Src/Mytouch.c ****     HAL_GPIO_Init(GPIOI,&GPIO_Initure);     //初始化
 969:Core/Src/Mytouch.c ****     
 970:Core/Src/Mytouch.c **** 	CT_IIC_Init();      	//初始化电容屏的I2C总线  
 971:Core/Src/Mytouch.c **** 	OTT_RST(0);				//复位
 972:Core/Src/Mytouch.c **** 	HAL_Delay(100);
 973:Core/Src/Mytouch.c ****  	OTT_RST(1);				//释放复位		    
 974:Core/Src/Mytouch.c **** 	HAL_Delay(100); 
 975:Core/Src/Mytouch.c **** 	OTT2001A_SensorControl(1);	//打开传感器 
 976:Core/Src/Mytouch.c **** 	OTT2001A_RD_Reg(OTT_CTRL_REG,&regval,1);//读取传感器运行寄存器的值来判断I2C通信
 977:Core/Src/Mytouch.c **** 	printf("CTP ID:%x\r\n",regval);
 978:Core/Src/Mytouch.c ****     if(regval==0x80)return 0;
 979:Core/Src/Mytouch.c **** 	return 1;
 980:Core/Src/Mytouch.c **** }
 981:Core/Src/Mytouch.c **** 
 982:Core/Src/Mytouch.c **** const u16 OTT_TPX_TBL[5]={OTT_TP1_REG,OTT_TP2_REG,OTT_TP3_REG,OTT_TP4_REG,OTT_TP5_REG};
 983:Core/Src/Mytouch.c **** //扫描触摸屏(采用查询方式)
 984:Core/Src/Mytouch.c **** //mode:0,正常扫描.
 985:Core/Src/Mytouch.c **** //返回值:当前触屏状态.
 986:Core/Src/Mytouch.c **** //0,触屏无触摸;1,触屏有触摸
 987:Core/Src/Mytouch.c **** u8 OTT2001A_Scan(u8 mode)
 988:Core/Src/Mytouch.c **** {
 3250              		.loc 1 988 1 is_stmt 1 view -0
 3251              		.cfi_startproc
ARM GAS  /tmp/ccNZMix7.s 			page 80


 3252              		@ args = 0, pretend = 0, frame = 16
 3253              		@ frame_needed = 0, uses_anonymous_args = 0
 3254              		.loc 1 988 1 is_stmt 0 view .LVU837
 3255 0000 30B5     		push	{r4, r5, lr}
 3256              	.LCFI42:
 3257              		.cfi_def_cfa_offset 12
 3258              		.cfi_offset 4, -12
 3259              		.cfi_offset 5, -8
 3260              		.cfi_offset 14, -4
 3261 0002 85B0     		sub	sp, sp, #20
 3262              	.LCFI43:
 3263              		.cfi_def_cfa_offset 32
 3264 0004 8DF80700 		strb	r0, [sp, #7]
 989:Core/Src/Mytouch.c **** 	u8 buf[4];
 3265              		.loc 1 989 2 is_stmt 1 view .LVU838
 990:Core/Src/Mytouch.c **** 	u8 i=0;
 3266              		.loc 1 990 2 view .LVU839
 3267              	.LVL308:
 991:Core/Src/Mytouch.c **** 	u8 res=0;
 3268              		.loc 1 991 2 view .LVU840
 992:Core/Src/Mytouch.c **** 	static u8 t=0;//控制查询间隔,从而降低CPU占用率   
 3269              		.loc 1 992 2 view .LVU841
 993:Core/Src/Mytouch.c **** 	t++;
 3270              		.loc 1 993 2 view .LVU842
 3271              		.loc 1 993 3 is_stmt 0 view .LVU843
 3272 0008 6D4B     		ldr	r3, .L199+24
 3273 000a 1A78     		ldrb	r2, [r3]	@ zero_extendqisi2
 3274 000c 0132     		adds	r2, r2, #1
 3275 000e D2B2     		uxtb	r2, r2
 3276 0010 1A70     		strb	r2, [r3]
 994:Core/Src/Mytouch.c **** 	if((t%10)==0||t<10)//空闲时,每进入10次CTP_Scan函数才检测1次,从而节省CPU使用率
 3277              		.loc 1 994 2 is_stmt 1 view .LVU844
 3278              		.loc 1 994 11 is_stmt 0 view .LVU845
 3279 0012 6C4B     		ldr	r3, .L199+28
 3280 0014 A3FB0213 		umull	r1, r3, r3, r2
 3281 0018 DB08     		lsrs	r3, r3, #3
 3282 001a 03EB8303 		add	r3, r3, r3, lsl #2
 3283 001e A2EB4303 		sub	r3, r2, r3, lsl #1
 3284              		.loc 1 994 4 view .LVU846
 3285 0022 13F0FF0F 		tst	r3, #255
 3286 0026 02D0     		beq	.L185
 3287              		.loc 1 994 14 discriminator 1 view .LVU847
 3288 0028 092A     		cmp	r2, #9
 3289 002a 00F29780 		bhi	.L195
 3290              	.L185:
 995:Core/Src/Mytouch.c **** 	{
 996:Core/Src/Mytouch.c **** 		OTT2001A_RD_Reg(OTT_GSTID_REG,&mode,1);//读取触摸点的状态  
 3291              		.loc 1 996 3 is_stmt 1 view .LVU848
 3292 002e 0122     		movs	r2, #1
 3293 0030 0DF10701 		add	r1, sp, #7
 3294 0034 0020     		movs	r0, #0
 3295              	.LVL309:
 3296              		.loc 1 996 3 is_stmt 0 view .LVU849
 3297 0036 FFF7FEFF 		bl	OTT2001A_RD_Reg
 3298              	.LVL310:
 997:Core/Src/Mytouch.c **** 		if(mode&0X1F)
 3299              		.loc 1 997 3 is_stmt 1 view .LVU850
ARM GAS  /tmp/ccNZMix7.s 			page 81


 3300              		.loc 1 997 10 is_stmt 0 view .LVU851
 3301 003a 9DF80730 		ldrb	r3, [sp, #7]	@ zero_extendqisi2
 3302              		.loc 1 997 5 view .LVU852
 3303 003e 13F01F00 		ands	r0, r3, #31
 3304 0042 00F08C80 		beq	.L186
 998:Core/Src/Mytouch.c **** 		{
 999:Core/Src/Mytouch.c **** 			tp_dev.sta=(mode&0X1F)|TP_PRES_DOWN|TP_CATH_PRES;
 3305              		.loc 1 999 4 is_stmt 1 view .LVU853
 3306              		.loc 1 999 39 is_stmt 0 view .LVU854
 3307 0046 40F0C003 		orr	r3, r0, #192
 3308              		.loc 1 999 14 view .LVU855
 3309 004a 5F4A     		ldr	r2, .L199+32
 3310 004c 82F82030 		strb	r3, [r2, #32]
1000:Core/Src/Mytouch.c **** 			for(i=0;i<5;i++)
 3311              		.loc 1 1000 4 is_stmt 1 view .LVU856
 3312              		.loc 1 1000 9 is_stmt 0 view .LVU857
 3313 0050 0024     		movs	r4, #0
 3314              		.loc 1 1000 4 view .LVU858
 3315 0052 2EE0     		b	.L187
 3316              	.LVL311:
 3317              	.L189:
1001:Core/Src/Mytouch.c **** 			{
1002:Core/Src/Mytouch.c **** 				if(tp_dev.sta&(1<<i))	//触摸有效?
1003:Core/Src/Mytouch.c **** 				{
1004:Core/Src/Mytouch.c **** 					OTT2001A_RD_Reg(OTT_TPX_TBL[i],buf,4);	//读取XY坐标值
1005:Core/Src/Mytouch.c **** 					if(tp_dev.touchtype&0X01)//横屏
1006:Core/Src/Mytouch.c **** 					{
1007:Core/Src/Mytouch.c **** 						tp_dev.y[i]=(((u16)buf[2]<<8)+buf[3])*OTT_SCAL_Y;
1008:Core/Src/Mytouch.c **** 						tp_dev.x[i]=800-((((u16)buf[0]<<8)+buf[1])*OTT_SCAL_X);
1009:Core/Src/Mytouch.c **** 					}else
1010:Core/Src/Mytouch.c **** 					{
1011:Core/Src/Mytouch.c **** 						tp_dev.x[i]=(((u16)buf[2]<<8)+buf[3])*OTT_SCAL_Y;
 3318              		.loc 1 1011 7 is_stmt 1 view .LVU859
 3319              		.loc 1 1011 29 is_stmt 0 view .LVU860
 3320 0054 9DF80E20 		ldrb	r2, [sp, #14]	@ zero_extendqisi2
 3321              		.loc 1 1011 40 view .LVU861
 3322 0058 9DF80F30 		ldrb	r3, [sp, #15]	@ zero_extendqisi2
 3323              		.loc 1 1011 36 view .LVU862
 3324 005c 03EB0223 		add	r3, r3, r2, lsl #8
 3325 0060 07EE103A 		vmov	s14, r3	@ int
 3326              		.loc 1 1011 44 view .LVU863
 3327 0064 B8EEC77B 		vcvt.f64.s32	d7, s14
 3328 0068 9FED4F6B 		vldr.64	d6, .L199
 3329 006c 27EE067B 		vmul.f64	d7, d7, d6
 3330              		.loc 1 1011 18 view .LVU864
 3331 0070 554A     		ldr	r2, .L199+32
 3332 0072 231D     		adds	r3, r4, #4
 3333 0074 02EB4303 		add	r3, r2, r3, lsl #1
 3334 0078 BCEEC77B 		vcvt.u32.f64	s14, d7
 3335 007c 17EE101A 		vmov	r1, s14	@ int
 3336 0080 9980     		strh	r1, [r3, #4]	@ movhi
1012:Core/Src/Mytouch.c **** 						tp_dev.y[i]=(((u16)buf[0]<<8)+buf[1])*OTT_SCAL_X;
 3337              		.loc 1 1012 7 is_stmt 1 view .LVU865
 3338              		.loc 1 1012 29 is_stmt 0 view .LVU866
 3339 0082 9DF80C10 		ldrb	r1, [sp, #12]	@ zero_extendqisi2
 3340              		.loc 1 1012 40 view .LVU867
 3341 0086 9DF80D30 		ldrb	r3, [sp, #13]	@ zero_extendqisi2
ARM GAS  /tmp/ccNZMix7.s 			page 82


 3342              		.loc 1 1012 36 view .LVU868
 3343 008a 03EB0123 		add	r3, r3, r1, lsl #8
 3344 008e 07EE103A 		vmov	s14, r3	@ int
 3345              		.loc 1 1012 44 view .LVU869
 3346 0092 B8EEC77B 		vcvt.f64.s32	d7, s14
 3347 0096 9FED466B 		vldr.64	d6, .L199+8
 3348 009a 27EE067B 		vmul.f64	d7, d7, d6
 3349              		.loc 1 1012 18 view .LVU870
 3350 009e 0835     		adds	r5, r5, #8
 3351 00a0 02EB4505 		add	r5, r2, r5, lsl #1
 3352 00a4 BCEEC77B 		vcvt.u32.f64	s14, d7
 3353 00a8 17EE103A 		vmov	r3, s14	@ int
 3354 00ac EB80     		strh	r3, [r5, #6]	@ movhi
 3355              	.L188:
1000:Core/Src/Mytouch.c **** 			for(i=0;i<5;i++)
 3356              		.loc 1 1000 16 is_stmt 1 discriminator 2 view .LVU871
1000:Core/Src/Mytouch.c **** 			for(i=0;i<5;i++)
 3357              		.loc 1 1000 17 is_stmt 0 discriminator 2 view .LVU872
 3358 00ae 0134     		adds	r4, r4, #1
 3359              	.LVL312:
1000:Core/Src/Mytouch.c **** 			for(i=0;i<5;i++)
 3360              		.loc 1 1000 17 discriminator 2 view .LVU873
 3361 00b0 E4B2     		uxtb	r4, r4
 3362              	.LVL313:
 3363              	.L187:
1000:Core/Src/Mytouch.c **** 			for(i=0;i<5;i++)
 3364              		.loc 1 1000 12 is_stmt 1 discriminator 1 view .LVU874
1000:Core/Src/Mytouch.c **** 			for(i=0;i<5;i++)
 3365              		.loc 1 1000 4 is_stmt 0 discriminator 1 view .LVU875
 3366 00b2 042C     		cmp	r4, #4
 3367 00b4 45D8     		bhi	.L197
1002:Core/Src/Mytouch.c **** 				{
 3368              		.loc 1 1002 5 is_stmt 1 view .LVU876
1002:Core/Src/Mytouch.c **** 				{
 3369              		.loc 1 1002 14 is_stmt 0 view .LVU877
 3370 00b6 444B     		ldr	r3, .L199+32
 3371 00b8 93F82030 		ldrb	r3, [r3, #32]	@ zero_extendqisi2
1002:Core/Src/Mytouch.c **** 				{
 3372              		.loc 1 1002 8 view .LVU878
 3373 00bc 2546     		mov	r5, r4
 3374 00be 2341     		asrs	r3, r3, r4
1002:Core/Src/Mytouch.c **** 				{
 3375              		.loc 1 1002 7 view .LVU879
 3376 00c0 13F0010F 		tst	r3, #1
 3377 00c4 F3D0     		beq	.L188
1004:Core/Src/Mytouch.c **** 					if(tp_dev.touchtype&0X01)//横屏
 3378              		.loc 1 1004 6 is_stmt 1 view .LVU880
 3379 00c6 0422     		movs	r2, #4
 3380 00c8 03A9     		add	r1, sp, #12
 3381 00ca 404B     		ldr	r3, .L199+36
 3382 00cc 33F81400 		ldrh	r0, [r3, r4, lsl #1]
 3383 00d0 FFF7FEFF 		bl	OTT2001A_RD_Reg
 3384              	.LVL314:
1005:Core/Src/Mytouch.c **** 					{
 3385              		.loc 1 1005 6 view .LVU881
1005:Core/Src/Mytouch.c **** 					{
 3386              		.loc 1 1005 15 is_stmt 0 view .LVU882
ARM GAS  /tmp/ccNZMix7.s 			page 83


 3387 00d4 3C4B     		ldr	r3, .L199+32
 3388 00d6 93F83030 		ldrb	r3, [r3, #48]	@ zero_extendqisi2
1005:Core/Src/Mytouch.c **** 					{
 3389              		.loc 1 1005 8 view .LVU883
 3390 00da 13F0010F 		tst	r3, #1
 3391 00de B9D0     		beq	.L189
1007:Core/Src/Mytouch.c **** 						tp_dev.x[i]=800-((((u16)buf[0]<<8)+buf[1])*OTT_SCAL_X);
 3392              		.loc 1 1007 7 is_stmt 1 view .LVU884
1007:Core/Src/Mytouch.c **** 						tp_dev.x[i]=800-((((u16)buf[0]<<8)+buf[1])*OTT_SCAL_X);
 3393              		.loc 1 1007 29 is_stmt 0 view .LVU885
 3394 00e0 9DF80E20 		ldrb	r2, [sp, #14]	@ zero_extendqisi2
1007:Core/Src/Mytouch.c **** 						tp_dev.x[i]=800-((((u16)buf[0]<<8)+buf[1])*OTT_SCAL_X);
 3395              		.loc 1 1007 40 view .LVU886
 3396 00e4 9DF80F30 		ldrb	r3, [sp, #15]	@ zero_extendqisi2
1007:Core/Src/Mytouch.c **** 						tp_dev.x[i]=800-((((u16)buf[0]<<8)+buf[1])*OTT_SCAL_X);
 3397              		.loc 1 1007 36 view .LVU887
 3398 00e8 03EB0223 		add	r3, r3, r2, lsl #8
 3399 00ec 07EE103A 		vmov	s14, r3	@ int
1007:Core/Src/Mytouch.c **** 						tp_dev.x[i]=800-((((u16)buf[0]<<8)+buf[1])*OTT_SCAL_X);
 3400              		.loc 1 1007 44 view .LVU888
 3401 00f0 B8EEC77B 		vcvt.f64.s32	d7, s14
 3402 00f4 9FED2C6B 		vldr.64	d6, .L199
 3403 00f8 27EE067B 		vmul.f64	d7, d7, d6
1007:Core/Src/Mytouch.c **** 						tp_dev.x[i]=800-((((u16)buf[0]<<8)+buf[1])*OTT_SCAL_X);
 3404              		.loc 1 1007 18 view .LVU889
 3405 00fc 324A     		ldr	r2, .L199+32
 3406 00fe 04F10803 		add	r3, r4, #8
 3407 0102 02EB4303 		add	r3, r2, r3, lsl #1
 3408 0106 BCEEC77B 		vcvt.u32.f64	s14, d7
 3409 010a 17EE101A 		vmov	r1, s14	@ int
 3410 010e D980     		strh	r1, [r3, #6]	@ movhi
1008:Core/Src/Mytouch.c **** 					}else
 3411              		.loc 1 1008 7 is_stmt 1 view .LVU890
1008:Core/Src/Mytouch.c **** 					}else
 3412              		.loc 1 1008 34 is_stmt 0 view .LVU891
 3413 0110 9DF80C10 		ldrb	r1, [sp, #12]	@ zero_extendqisi2
1008:Core/Src/Mytouch.c **** 					}else
 3414              		.loc 1 1008 45 view .LVU892
 3415 0114 9DF80D30 		ldrb	r3, [sp, #13]	@ zero_extendqisi2
1008:Core/Src/Mytouch.c **** 					}else
 3416              		.loc 1 1008 41 view .LVU893
 3417 0118 03EB0123 		add	r3, r3, r1, lsl #8
1008:Core/Src/Mytouch.c **** 					}else
 3418              		.loc 1 1008 49 view .LVU894
 3419 011c 07EE903A 		vmov	s15, r3	@ int
 3420 0120 B8EEE76B 		vcvt.f64.s32	d6, s15
1008:Core/Src/Mytouch.c **** 					}else
 3421              		.loc 1 1008 22 view .LVU895
 3422 0124 9FED225B 		vldr.64	d5, .L199+8
 3423 0128 9FED237B 		vldr.64	d7, .L199+16
 3424 012c 06EE457B 		vmls.f64	d7, d6, d5
1008:Core/Src/Mytouch.c **** 					}else
 3425              		.loc 1 1008 18 view .LVU896
 3426 0130 0435     		adds	r5, r5, #4
 3427 0132 02EB4502 		add	r2, r2, r5, lsl #1
 3428 0136 BCEEC77B 		vcvt.u32.f64	s14, d7
 3429 013a 17EE103A 		vmov	r3, s14	@ int
ARM GAS  /tmp/ccNZMix7.s 			page 84


 3430 013e 9380     		strh	r3, [r2, #4]	@ movhi
 3431 0140 B5E7     		b	.L188
 3432              	.L197:
1013:Core/Src/Mytouch.c **** 					}  
1014:Core/Src/Mytouch.c **** 					//printf("x[%d]:%d,y[%d]:%d\r\n",i,tp_dev.x[i],i,tp_dev.y[i]);
1015:Core/Src/Mytouch.c **** 				}			
1016:Core/Src/Mytouch.c **** 			} 
1017:Core/Src/Mytouch.c **** 			res=1;
 3433              		.loc 1 1017 4 is_stmt 1 view .LVU897
 3434              	.LVL315:
1018:Core/Src/Mytouch.c **** 			if(tp_dev.x[0]==0 && tp_dev.y[0]==0)mode=0;	//读到的数据都是0,则忽略此次数据
 3435              		.loc 1 1018 4 view .LVU898
 3436              		.loc 1 1018 15 is_stmt 0 view .LVU899
 3437 0142 214B     		ldr	r3, .L199+32
 3438 0144 9B89     		ldrh	r3, [r3, #12]
 3439              		.loc 1 1018 6 view .LVU900
 3440 0146 23B9     		cbnz	r3, .L191
 3441              		.loc 1 1018 33 discriminator 1 view .LVU901
 3442 0148 1F4B     		ldr	r3, .L199+32
 3443 014a DB8A     		ldrh	r3, [r3, #22]
 3444              		.loc 1 1018 22 discriminator 1 view .LVU902
 3445 014c 0BB9     		cbnz	r3, .L191
 3446              		.loc 1 1018 40 is_stmt 1 discriminator 2 view .LVU903
 3447              		.loc 1 1018 44 is_stmt 0 discriminator 2 view .LVU904
 3448 014e 8DF80730 		strb	r3, [sp, #7]
 3449              	.L191:
1019:Core/Src/Mytouch.c **** 			t=0;		//触发一次,则会最少连续监测10次,从而提高命中率
 3450              		.loc 1 1019 4 is_stmt 1 view .LVU905
 3451              		.loc 1 1019 5 is_stmt 0 view .LVU906
 3452 0152 1B4B     		ldr	r3, .L199+24
 3453 0154 0022     		movs	r2, #0
 3454 0156 1A70     		strb	r2, [r3]
1017:Core/Src/Mytouch.c **** 			if(tp_dev.x[0]==0 && tp_dev.y[0]==0)mode=0;	//读到的数据都是0,则忽略此次数据
 3455              		.loc 1 1017 7 view .LVU907
 3456 0158 0120     		movs	r0, #1
 3457 015a 00E0     		b	.L186
 3458              	.LVL316:
 3459              	.L195:
 991:Core/Src/Mytouch.c **** 	static u8 t=0;//控制查询间隔,从而降低CPU占用率   
 3460              		.loc 1 991 5 view .LVU908
 3461 015c 0020     		movs	r0, #0
 3462              	.LVL317:
 3463              	.L186:
1020:Core/Src/Mytouch.c **** 		}
1021:Core/Src/Mytouch.c **** 	}
1022:Core/Src/Mytouch.c **** 	if((mode&0X1F)==0)//无触摸点按下
 3464              		.loc 1 1022 2 is_stmt 1 view .LVU909
 3465              		.loc 1 1022 10 is_stmt 0 view .LVU910
 3466 015e 9DF80730 		ldrb	r3, [sp, #7]	@ zero_extendqisi2
 3467              		.loc 1 1022 4 view .LVU911
 3468 0162 13F01F0F 		tst	r3, #31
 3469 0166 0FD1     		bne	.L192
1023:Core/Src/Mytouch.c **** 	{ 
1024:Core/Src/Mytouch.c **** 		if(tp_dev.sta&TP_PRES_DOWN)	//之前是被按下的
 3470              		.loc 1 1024 3 is_stmt 1 view .LVU912
 3471              		.loc 1 1024 12 is_stmt 0 view .LVU913
 3472 0168 174A     		ldr	r2, .L199+32
ARM GAS  /tmp/ccNZMix7.s 			page 85


 3473 016a 92F82030 		ldrb	r3, [r2, #32]	@ zero_extendqisi2
 3474              		.loc 1 1024 6 view .LVU914
 3475 016e 92F92020 		ldrsb	r2, [r2, #32]
 3476              		.loc 1 1024 5 view .LVU915
 3477 0172 002A     		cmp	r2, #0
 3478 0174 11DB     		blt	.L198
1025:Core/Src/Mytouch.c **** 		{
1026:Core/Src/Mytouch.c **** 			tp_dev.sta&=~(1<<7);	//标记按键松开
1027:Core/Src/Mytouch.c **** 		}else						//之前就没有被按下
1028:Core/Src/Mytouch.c **** 		{ 
1029:Core/Src/Mytouch.c **** 			tp_dev.x[0]=0xffff;
 3479              		.loc 1 1029 4 is_stmt 1 view .LVU916
 3480              		.loc 1 1029 15 is_stmt 0 view .LVU917
 3481 0176 144A     		ldr	r2, .L199+32
 3482 0178 4FF6FF71 		movw	r1, #65535
 3483 017c 9181     		strh	r1, [r2, #12]	@ movhi
1030:Core/Src/Mytouch.c **** 			tp_dev.y[0]=0xffff;
 3484              		.loc 1 1030 4 is_stmt 1 view .LVU918
 3485              		.loc 1 1030 15 is_stmt 0 view .LVU919
 3486 017e D182     		strh	r1, [r2, #22]	@ movhi
1031:Core/Src/Mytouch.c **** 			tp_dev.sta&=0XE0;	//清除点有效标记	
 3487              		.loc 1 1031 4 is_stmt 1 view .LVU920
 3488              		.loc 1 1031 14 is_stmt 0 view .LVU921
 3489 0180 23F01F03 		bic	r3, r3, #31
 3490 0184 82F82030 		strb	r3, [r2, #32]
 3491              	.L192:
1032:Core/Src/Mytouch.c **** 		}	 
1033:Core/Src/Mytouch.c **** 	} 	
1034:Core/Src/Mytouch.c **** 	if(t>240)t=10;//重新从10开始计数
 3492              		.loc 1 1034 2 is_stmt 1 view .LVU922
 3493              		.loc 1 1034 6 is_stmt 0 view .LVU923
 3494 0188 0D4B     		ldr	r3, .L199+24
 3495 018a 1B78     		ldrb	r3, [r3]	@ zero_extendqisi2
 3496              		.loc 1 1034 4 view .LVU924
 3497 018c F02B     		cmp	r3, #240
 3498 018e 02D9     		bls	.L194
 3499              		.loc 1 1034 11 is_stmt 1 discriminator 1 view .LVU925
 3500              		.loc 1 1034 12 is_stmt 0 discriminator 1 view .LVU926
 3501 0190 0B4B     		ldr	r3, .L199+24
 3502 0192 0A22     		movs	r2, #10
 3503 0194 1A70     		strb	r2, [r3]
 3504              	.L194:
1035:Core/Src/Mytouch.c **** 	return res;
 3505              		.loc 1 1035 2 is_stmt 1 view .LVU927
1036:Core/Src/Mytouch.c **** }
 3506              		.loc 1 1036 1 is_stmt 0 view .LVU928
 3507 0196 05B0     		add	sp, sp, #20
 3508              	.LCFI44:
 3509              		.cfi_remember_state
 3510              		.cfi_def_cfa_offset 12
 3511              		@ sp needed
 3512 0198 30BD     		pop	{r4, r5, pc}
 3513              	.L198:
 3514              	.LCFI45:
 3515              		.cfi_restore_state
1026:Core/Src/Mytouch.c **** 		}else						//之前就没有被按下
 3516              		.loc 1 1026 4 is_stmt 1 view .LVU929
ARM GAS  /tmp/ccNZMix7.s 			page 86


1026:Core/Src/Mytouch.c **** 		}else						//之前就没有被按下
 3517              		.loc 1 1026 14 is_stmt 0 view .LVU930
 3518 019a 03F07F03 		and	r3, r3, #127
 3519 019e 0A4A     		ldr	r2, .L199+32
 3520 01a0 82F82030 		strb	r3, [r2, #32]
 3521 01a4 F0E7     		b	.L192
 3522              	.L200:
 3523 01a6 00BF     		.align	3
 3524              	.L199:
 3525 01a8 7B14AE47 		.word	1202590843
 3526 01ac E17AD43F 		.word	1070889697
 3527 01b0 D8817346 		.word	1181975000
 3528 01b4 94F6D23F 		.word	1070790292
 3529 01b8 00000000 		.word	0
 3530 01bc 00008940 		.word	1082720256
 3531 01c0 00000000 		.word	.LANCHOR6
 3532 01c4 CDCCCCCC 		.word	-858993459
 3533 01c8 00000000 		.word	.LANCHOR2
 3534 01cc 00000000 		.word	.LANCHOR7
 3535              		.cfi_endproc
 3536              	.LFE178:
 3538              		.section	.text.OTT2001A_SensorControl,"ax",%progbits
 3539              		.align	1
 3540              		.global	OTT2001A_SensorControl
 3541              		.syntax unified
 3542              		.thumb
 3543              		.thumb_func
 3544              		.fpu fpv5-d16
 3546              	OTT2001A_SensorControl:
 3547              	.LVL318:
 3548              	.LFB176:
 943:Core/Src/Mytouch.c **** 	u8 regval=0X00;
 3549              		.loc 1 943 1 is_stmt 1 view -0
 3550              		.cfi_startproc
 3551              		@ args = 0, pretend = 0, frame = 8
 3552              		@ frame_needed = 0, uses_anonymous_args = 0
 943:Core/Src/Mytouch.c **** 	u8 regval=0X00;
 3553              		.loc 1 943 1 is_stmt 0 view .LVU932
 3554 0000 00B5     		push	{lr}
 3555              	.LCFI46:
 3556              		.cfi_def_cfa_offset 4
 3557              		.cfi_offset 14, -4
 3558 0002 83B0     		sub	sp, sp, #12
 3559              	.LCFI47:
 3560              		.cfi_def_cfa_offset 16
 944:Core/Src/Mytouch.c **** 	if(cmd)regval=0X80;
 3561              		.loc 1 944 2 is_stmt 1 view .LVU933
 944:Core/Src/Mytouch.c **** 	if(cmd)regval=0X80;
 3562              		.loc 1 944 5 is_stmt 0 view .LVU934
 3563 0004 0023     		movs	r3, #0
 3564 0006 8DF80730 		strb	r3, [sp, #7]
 945:Core/Src/Mytouch.c **** 	OTT2001A_WR_Reg(OTT_CTRL_REG,&regval,1); 
 3565              		.loc 1 945 2 is_stmt 1 view .LVU935
 945:Core/Src/Mytouch.c **** 	OTT2001A_WR_Reg(OTT_CTRL_REG,&regval,1); 
 3566              		.loc 1 945 4 is_stmt 0 view .LVU936
 3567 000a 10B1     		cbz	r0, .L202
 945:Core/Src/Mytouch.c **** 	OTT2001A_WR_Reg(OTT_CTRL_REG,&regval,1); 
ARM GAS  /tmp/ccNZMix7.s 			page 87


 3568              		.loc 1 945 9 is_stmt 1 discriminator 1 view .LVU937
 945:Core/Src/Mytouch.c **** 	OTT2001A_WR_Reg(OTT_CTRL_REG,&regval,1); 
 3569              		.loc 1 945 15 is_stmt 0 discriminator 1 view .LVU938
 3570 000c 8023     		movs	r3, #128
 3571 000e 8DF80730 		strb	r3, [sp, #7]
 3572              	.L202:
 946:Core/Src/Mytouch.c **** } 
 3573              		.loc 1 946 2 is_stmt 1 view .LVU939
 3574 0012 0122     		movs	r2, #1
 3575 0014 0DF10701 		add	r1, sp, #7
 3576 0018 4FF45060 		mov	r0, #3328
 3577              	.LVL319:
 946:Core/Src/Mytouch.c **** } 
 3578              		.loc 1 946 2 is_stmt 0 view .LVU940
 3579 001c FFF7FEFF 		bl	OTT2001A_WR_Reg
 3580              	.LVL320:
 947:Core/Src/Mytouch.c **** //初始化触摸屏
 3581              		.loc 1 947 1 view .LVU941
 3582 0020 03B0     		add	sp, sp, #12
 3583              	.LCFI48:
 3584              		.cfi_def_cfa_offset 4
 3585              		@ sp needed
 3586 0022 5DF804FB 		ldr	pc, [sp], #4
 3587              		.cfi_endproc
 3588              	.LFE176:
 3590              		.section	.rodata.OTT2001A_Init.str1.4,"aMS",%progbits,1
 3591              		.align	2
 3592              	.LC12:
 3593 0000 43545020 		.ascii	"CTP ID:%x\015\012\000"
 3593      49443A25 
 3593      780D0A00 
 3594              		.section	.text.OTT2001A_Init,"ax",%progbits
 3595              		.align	1
 3596              		.global	OTT2001A_Init
 3597              		.syntax unified
 3598              		.thumb
 3599              		.thumb_func
 3600              		.fpu fpv5-d16
 3602              	OTT2001A_Init:
 3603              	.LFB177:
 951:Core/Src/Mytouch.c ****  	u8 regval=0; 
 3604              		.loc 1 951 1 is_stmt 1 view -0
 3605              		.cfi_startproc
 3606              		@ args = 0, pretend = 0, frame = 32
 3607              		@ frame_needed = 0, uses_anonymous_args = 0
 3608 0000 F0B5     		push	{r4, r5, r6, r7, lr}
 3609              	.LCFI49:
 3610              		.cfi_def_cfa_offset 20
 3611              		.cfi_offset 4, -20
 3612              		.cfi_offset 5, -16
 3613              		.cfi_offset 6, -12
 3614              		.cfi_offset 7, -8
 3615              		.cfi_offset 14, -4
 3616 0002 89B0     		sub	sp, sp, #36
 3617              	.LCFI50:
 3618              		.cfi_def_cfa_offset 56
 952:Core/Src/Mytouch.c ****     GPIO_InitTypeDef GPIO_Initure;
ARM GAS  /tmp/ccNZMix7.s 			page 88


 3619              		.loc 1 952 3 view .LVU943
 952:Core/Src/Mytouch.c ****     GPIO_InitTypeDef GPIO_Initure;
 3620              		.loc 1 952 6 is_stmt 0 view .LVU944
 3621 0004 0027     		movs	r7, #0
 3622 0006 8DF81F70 		strb	r7, [sp, #31]
 953:Core/Src/Mytouch.c ****  
 3623              		.loc 1 953 5 is_stmt 1 view .LVU945
 955:Core/Src/Mytouch.c ****     __HAL_RCC_GPIOI_CLK_ENABLE();			//开启GPIOI时钟
 3624              		.loc 1 955 5 view .LVU946
 3625              	.LBB6:
 955:Core/Src/Mytouch.c ****     __HAL_RCC_GPIOI_CLK_ENABLE();			//开启GPIOI时钟
 3626              		.loc 1 955 5 view .LVU947
 955:Core/Src/Mytouch.c ****     __HAL_RCC_GPIOI_CLK_ENABLE();			//开启GPIOI时钟
 3627              		.loc 1 955 5 view .LVU948
 3628 000a 2B4B     		ldr	r3, .L208
 3629 000c D3F8E020 		ldr	r2, [r3, #224]
 3630 0010 42F08002 		orr	r2, r2, #128
 3631 0014 C3F8E020 		str	r2, [r3, #224]
 955:Core/Src/Mytouch.c ****     __HAL_RCC_GPIOI_CLK_ENABLE();			//开启GPIOI时钟
 3632              		.loc 1 955 5 view .LVU949
 3633 0018 D3F8E020 		ldr	r2, [r3, #224]
 3634 001c 02F08002 		and	r2, r2, #128
 3635 0020 0092     		str	r2, [sp]
 955:Core/Src/Mytouch.c ****     __HAL_RCC_GPIOI_CLK_ENABLE();			//开启GPIOI时钟
 3636              		.loc 1 955 5 view .LVU950
 3637 0022 009A     		ldr	r2, [sp]
 3638              	.LBE6:
 955:Core/Src/Mytouch.c ****     __HAL_RCC_GPIOI_CLK_ENABLE();			//开启GPIOI时钟
 3639              		.loc 1 955 5 view .LVU951
 956:Core/Src/Mytouch.c ****                 
 3640              		.loc 1 956 5 view .LVU952
 3641              	.LBB7:
 956:Core/Src/Mytouch.c ****                 
 3642              		.loc 1 956 5 view .LVU953
 956:Core/Src/Mytouch.c ****                 
 3643              		.loc 1 956 5 view .LVU954
 3644 0024 D3F8E020 		ldr	r2, [r3, #224]
 3645 0028 42F48072 		orr	r2, r2, #256
 3646 002c C3F8E020 		str	r2, [r3, #224]
 956:Core/Src/Mytouch.c ****                 
 3647              		.loc 1 956 5 view .LVU955
 3648 0030 D3F8E030 		ldr	r3, [r3, #224]
 3649 0034 03F48073 		and	r3, r3, #256
 3650 0038 0193     		str	r3, [sp, #4]
 956:Core/Src/Mytouch.c ****                 
 3651              		.loc 1 956 5 view .LVU956
 3652 003a 019B     		ldr	r3, [sp, #4]
 3653              	.LBE7:
 956:Core/Src/Mytouch.c ****                 
 3654              		.loc 1 956 5 view .LVU957
 959:Core/Src/Mytouch.c ****     GPIO_Initure.Mode=GPIO_MODE_INPUT;      //输入
 3655              		.loc 1 959 5 view .LVU958
 959:Core/Src/Mytouch.c ****     GPIO_Initure.Mode=GPIO_MODE_INPUT;      //输入
 3656              		.loc 1 959 21 is_stmt 0 view .LVU959
 3657 003c 8023     		movs	r3, #128
 3658 003e 0293     		str	r3, [sp, #8]
 960:Core/Src/Mytouch.c ****     GPIO_Initure.Pull=GPIO_PULLUP;          //上拉
ARM GAS  /tmp/ccNZMix7.s 			page 89


 3659              		.loc 1 960 5 is_stmt 1 view .LVU960
 960:Core/Src/Mytouch.c ****     GPIO_Initure.Pull=GPIO_PULLUP;          //上拉
 3660              		.loc 1 960 22 is_stmt 0 view .LVU961
 3661 0040 0397     		str	r7, [sp, #12]
 961:Core/Src/Mytouch.c ****     GPIO_Initure.Speed=GPIO_SPEED_FREQ_VERY_HIGH;     //高速
 3662              		.loc 1 961 5 is_stmt 1 view .LVU962
 961:Core/Src/Mytouch.c ****     GPIO_Initure.Speed=GPIO_SPEED_FREQ_VERY_HIGH;     //高速
 3663              		.loc 1 961 22 is_stmt 0 view .LVU963
 3664 0042 0124     		movs	r4, #1
 3665 0044 0494     		str	r4, [sp, #16]
 962:Core/Src/Mytouch.c ****     HAL_GPIO_Init(GPIOH,&GPIO_Initure);     //初始化
 3666              		.loc 1 962 5 is_stmt 1 view .LVU964
 962:Core/Src/Mytouch.c ****     HAL_GPIO_Init(GPIOH,&GPIO_Initure);     //初始化
 3667              		.loc 1 962 23 is_stmt 0 view .LVU965
 3668 0046 0323     		movs	r3, #3
 3669 0048 0593     		str	r3, [sp, #20]
 963:Core/Src/Mytouch.c ****             
 3670              		.loc 1 963 5 is_stmt 1 view .LVU966
 3671 004a 02A9     		add	r1, sp, #8
 3672 004c 1B48     		ldr	r0, .L208+4
 3673 004e FFF7FEFF 		bl	HAL_GPIO_Init
 3674              	.LVL321:
 966:Core/Src/Mytouch.c ****     GPIO_Initure.Mode=GPIO_MODE_OUTPUT_PP;  //推挽输出
 3675              		.loc 1 966 5 view .LVU967
 966:Core/Src/Mytouch.c ****     GPIO_Initure.Mode=GPIO_MODE_OUTPUT_PP;  //推挽输出
 3676              		.loc 1 966 21 is_stmt 0 view .LVU968
 3677 0052 4FF48076 		mov	r6, #256
 3678 0056 0296     		str	r6, [sp, #8]
 967:Core/Src/Mytouch.c ****     HAL_GPIO_Init(GPIOI,&GPIO_Initure);     //初始化
 3679              		.loc 1 967 5 is_stmt 1 view .LVU969
 967:Core/Src/Mytouch.c ****     HAL_GPIO_Init(GPIOI,&GPIO_Initure);     //初始化
 3680              		.loc 1 967 22 is_stmt 0 view .LVU970
 3681 0058 0394     		str	r4, [sp, #12]
 968:Core/Src/Mytouch.c ****     
 3682              		.loc 1 968 5 is_stmt 1 view .LVU971
 3683 005a 194D     		ldr	r5, .L208+8
 3684 005c 02A9     		add	r1, sp, #8
 3685 005e 2846     		mov	r0, r5
 3686 0060 FFF7FEFF 		bl	HAL_GPIO_Init
 3687              	.LVL322:
 970:Core/Src/Mytouch.c **** 	OTT_RST(0);				//复位
 3688              		.loc 1 970 2 view .LVU972
 3689 0064 FFF7FEFF 		bl	CT_IIC_Init
 3690              	.LVL323:
 971:Core/Src/Mytouch.c **** 	HAL_Delay(100);
 3691              		.loc 1 971 2 view .LVU973
 3692 0068 3A46     		mov	r2, r7
 3693 006a 3146     		mov	r1, r6
 3694 006c 2846     		mov	r0, r5
 3695 006e FFF7FEFF 		bl	HAL_GPIO_WritePin
 3696              	.LVL324:
 972:Core/Src/Mytouch.c ****  	OTT_RST(1);				//释放复位		    
 3697              		.loc 1 972 2 view .LVU974
 3698 0072 6420     		movs	r0, #100
 3699 0074 FFF7FEFF 		bl	HAL_Delay
 3700              	.LVL325:
 973:Core/Src/Mytouch.c **** 	HAL_Delay(100); 
ARM GAS  /tmp/ccNZMix7.s 			page 90


 3701              		.loc 1 973 3 view .LVU975
 3702 0078 2246     		mov	r2, r4
 3703 007a 3146     		mov	r1, r6
 3704 007c 2846     		mov	r0, r5
 3705 007e FFF7FEFF 		bl	HAL_GPIO_WritePin
 3706              	.LVL326:
 974:Core/Src/Mytouch.c **** 	OTT2001A_SensorControl(1);	//打开传感器 
 3707              		.loc 1 974 2 view .LVU976
 3708 0082 6420     		movs	r0, #100
 3709 0084 FFF7FEFF 		bl	HAL_Delay
 3710              	.LVL327:
 975:Core/Src/Mytouch.c **** 	OTT2001A_RD_Reg(OTT_CTRL_REG,&regval,1);//读取传感器运行寄存器的值来判断I2C通信
 3711              		.loc 1 975 2 view .LVU977
 3712 0088 2046     		mov	r0, r4
 3713 008a FFF7FEFF 		bl	OTT2001A_SensorControl
 3714              	.LVL328:
 976:Core/Src/Mytouch.c **** 	printf("CTP ID:%x\r\n",regval);
 3715              		.loc 1 976 2 view .LVU978
 3716 008e 2246     		mov	r2, r4
 3717 0090 0DF11F01 		add	r1, sp, #31
 3718 0094 4FF45060 		mov	r0, #3328
 3719 0098 FFF7FEFF 		bl	OTT2001A_RD_Reg
 3720              	.LVL329:
 977:Core/Src/Mytouch.c ****     if(regval==0x80)return 0;
 3721              		.loc 1 977 2 view .LVU979
 3722 009c 9DF81F10 		ldrb	r1, [sp, #31]	@ zero_extendqisi2
 3723 00a0 0848     		ldr	r0, .L208+12
 3724 00a2 FFF7FEFF 		bl	printf
 3725              	.LVL330:
 978:Core/Src/Mytouch.c **** 	return 1;
 3726              		.loc 1 978 5 view .LVU980
 978:Core/Src/Mytouch.c **** 	return 1;
 3727              		.loc 1 978 14 is_stmt 0 view .LVU981
 3728 00a6 9DF81F30 		ldrb	r3, [sp, #31]	@ zero_extendqisi2
 978:Core/Src/Mytouch.c **** 	return 1;
 3729              		.loc 1 978 7 view .LVU982
 3730 00aa 802B     		cmp	r3, #128
 3731 00ac 02D0     		beq	.L206
 979:Core/Src/Mytouch.c **** }
 3732              		.loc 1 979 9 view .LVU983
 3733 00ae 2046     		mov	r0, r4
 3734              	.L205:
 980:Core/Src/Mytouch.c **** 
 3735              		.loc 1 980 1 view .LVU984
 3736 00b0 09B0     		add	sp, sp, #36
 3737              	.LCFI51:
 3738              		.cfi_remember_state
 3739              		.cfi_def_cfa_offset 20
 3740              		@ sp needed
 3741 00b2 F0BD     		pop	{r4, r5, r6, r7, pc}
 3742              	.L206:
 3743              	.LCFI52:
 3744              		.cfi_restore_state
 978:Core/Src/Mytouch.c **** 	return 1;
 3745              		.loc 1 978 28 view .LVU985
 3746 00b4 0020     		movs	r0, #0
 3747 00b6 FBE7     		b	.L205
ARM GAS  /tmp/ccNZMix7.s 			page 91


 3748              	.L209:
 3749              		.align	2
 3750              	.L208:
 3751 00b8 00440258 		.word	1476543488
 3752 00bc 001C0258 		.word	1476533248
 3753 00c0 00200258 		.word	1476534272
 3754 00c4 00000000 		.word	.LC12
 3755              		.cfi_endproc
 3756              	.LFE177:
 3758              		.section	.text.FT5206_WR_Reg,"ax",%progbits
 3759              		.align	1
 3760              		.global	FT5206_WR_Reg
 3761              		.syntax unified
 3762              		.thumb
 3763              		.thumb_func
 3764              		.fpu fpv5-d16
 3766              	FT5206_WR_Reg:
 3767              	.LVL331:
 3768              	.LFB179:
1037:Core/Src/Mytouch.c ****  
1038:Core/Src/Mytouch.c **** 
1039:Core/Src/Mytouch.c ****  /* FT5260 */
1040:Core/Src/Mytouch.c **** 
1041:Core/Src/Mytouch.c ****  //向FT5206写入一次数据
1042:Core/Src/Mytouch.c **** //reg:起始寄存器地址
1043:Core/Src/Mytouch.c **** //buf:数据缓缓存区
1044:Core/Src/Mytouch.c **** //len:写数据长度
1045:Core/Src/Mytouch.c **** //返回值:0,成功;1,失败.
1046:Core/Src/Mytouch.c **** u8 FT5206_WR_Reg(u16 reg,u8 *buf,u8 len)
1047:Core/Src/Mytouch.c **** {
 3769              		.loc 1 1047 1 is_stmt 1 view -0
 3770              		.cfi_startproc
 3771              		@ args = 0, pretend = 0, frame = 0
 3772              		@ frame_needed = 0, uses_anonymous_args = 0
 3773              		.loc 1 1047 1 is_stmt 0 view .LVU987
 3774 0000 F8B5     		push	{r3, r4, r5, r6, r7, lr}
 3775              	.LCFI53:
 3776              		.cfi_def_cfa_offset 24
 3777              		.cfi_offset 3, -24
 3778              		.cfi_offset 4, -20
 3779              		.cfi_offset 5, -16
 3780              		.cfi_offset 6, -12
 3781              		.cfi_offset 7, -8
 3782              		.cfi_offset 14, -4
 3783 0002 0446     		mov	r4, r0
 3784 0004 0F46     		mov	r7, r1
 3785 0006 1546     		mov	r5, r2
1048:Core/Src/Mytouch.c **** 	u8 i;
 3786              		.loc 1 1048 2 is_stmt 1 view .LVU988
1049:Core/Src/Mytouch.c **** 	u8 ret=0;
 3787              		.loc 1 1049 2 view .LVU989
 3788              	.LVL332:
1050:Core/Src/Mytouch.c **** 	CT_IIC_Start();	 
 3789              		.loc 1 1050 2 view .LVU990
 3790 0008 FFF7FEFF 		bl	CT_IIC_Start
 3791              	.LVL333:
1051:Core/Src/Mytouch.c **** 	CT_IIC_Send_Byte(FT_CMD_WR);	//发送写命令 	 
ARM GAS  /tmp/ccNZMix7.s 			page 92


 3792              		.loc 1 1051 2 view .LVU991
 3793 000c 7020     		movs	r0, #112
 3794 000e FFF7FEFF 		bl	CT_IIC_Send_Byte
 3795              	.LVL334:
1052:Core/Src/Mytouch.c **** 	CT_IIC_Wait_Ack(); 	 										  		   
 3796              		.loc 1 1052 2 view .LVU992
 3797 0012 FFF7FEFF 		bl	CT_IIC_Wait_Ack
 3798              	.LVL335:
1053:Core/Src/Mytouch.c **** 	CT_IIC_Send_Byte(reg&0XFF);   	//发送低8位地址
 3799              		.loc 1 1053 2 view .LVU993
 3800 0016 E0B2     		uxtb	r0, r4
 3801 0018 FFF7FEFF 		bl	CT_IIC_Send_Byte
 3802              	.LVL336:
1054:Core/Src/Mytouch.c **** 	CT_IIC_Wait_Ack();  
 3803              		.loc 1 1054 2 view .LVU994
 3804 001c FFF7FEFF 		bl	CT_IIC_Wait_Ack
 3805              	.LVL337:
1055:Core/Src/Mytouch.c **** 	for(i=0;i<len;i++)
 3806              		.loc 1 1055 2 view .LVU995
1049:Core/Src/Mytouch.c **** 	CT_IIC_Start();	 
 3807              		.loc 1 1049 5 is_stmt 0 view .LVU996
 3808 0020 0026     		movs	r6, #0
 3809              		.loc 1 1055 7 view .LVU997
 3810 0022 3446     		mov	r4, r6
 3811              		.loc 1 1055 2 view .LVU998
 3812 0024 01E0     		b	.L211
 3813              	.LVL338:
 3814              	.L215:
 3815              		.loc 1 1055 16 is_stmt 1 discriminator 2 view .LVU999
 3816              		.loc 1 1055 17 is_stmt 0 discriminator 2 view .LVU1000
 3817 0026 0134     		adds	r4, r4, #1
 3818              	.LVL339:
 3819              		.loc 1 1055 17 discriminator 2 view .LVU1001
 3820 0028 E4B2     		uxtb	r4, r4
 3821              	.LVL340:
 3822              	.L211:
 3823              		.loc 1 1055 10 is_stmt 1 discriminator 1 view .LVU1002
 3824              		.loc 1 1055 2 is_stmt 0 discriminator 1 view .LVU1003
 3825 002a AC42     		cmp	r4, r5
 3826 002c 07D2     		bcs	.L212
1056:Core/Src/Mytouch.c **** 	{	   
1057:Core/Src/Mytouch.c ****     	CT_IIC_Send_Byte(buf[i]);  	//发数据
 3827              		.loc 1 1057 6 is_stmt 1 view .LVU1004
 3828 002e 385D     		ldrb	r0, [r7, r4]	@ zero_extendqisi2
 3829 0030 FFF7FEFF 		bl	CT_IIC_Send_Byte
 3830              	.LVL341:
1058:Core/Src/Mytouch.c **** 		ret=CT_IIC_Wait_Ack();
 3831              		.loc 1 1058 3 view .LVU1005
 3832              		.loc 1 1058 7 is_stmt 0 view .LVU1006
 3833 0034 FFF7FEFF 		bl	CT_IIC_Wait_Ack
 3834              	.LVL342:
1059:Core/Src/Mytouch.c **** 		if(ret)break;  
 3835              		.loc 1 1059 3 is_stmt 1 view .LVU1007
 3836              		.loc 1 1059 5 is_stmt 0 view .LVU1008
 3837 0038 0646     		mov	r6, r0
 3838 003a 0028     		cmp	r0, #0
 3839 003c F3D0     		beq	.L215
ARM GAS  /tmp/ccNZMix7.s 			page 93


 3840              	.LVL343:
 3841              	.L212:
1060:Core/Src/Mytouch.c **** 	}
1061:Core/Src/Mytouch.c ****     CT_IIC_Stop();					//产生一个停止条件	    
 3842              		.loc 1 1061 5 is_stmt 1 view .LVU1009
 3843 003e FFF7FEFF 		bl	CT_IIC_Stop
 3844              	.LVL344:
1062:Core/Src/Mytouch.c **** 	return ret; 
 3845              		.loc 1 1062 2 view .LVU1010
1063:Core/Src/Mytouch.c **** }
 3846              		.loc 1 1063 1 is_stmt 0 view .LVU1011
 3847 0042 3046     		mov	r0, r6
 3848 0044 F8BD     		pop	{r3, r4, r5, r6, r7, pc}
 3849              		.loc 1 1063 1 view .LVU1012
 3850              		.cfi_endproc
 3851              	.LFE179:
 3853              		.section	.text.FT5206_RD_Reg,"ax",%progbits
 3854              		.align	1
 3855              		.global	FT5206_RD_Reg
 3856              		.syntax unified
 3857              		.thumb
 3858              		.thumb_func
 3859              		.fpu fpv5-d16
 3861              	FT5206_RD_Reg:
 3862              	.LVL345:
 3863              	.LFB180:
1064:Core/Src/Mytouch.c **** //从FT5206读出一次数据
1065:Core/Src/Mytouch.c **** //reg:起始寄存器地址
1066:Core/Src/Mytouch.c **** //buf:数据缓缓存区
1067:Core/Src/Mytouch.c **** //len:读数据长度			  
1068:Core/Src/Mytouch.c **** void FT5206_RD_Reg(u16 reg,u8 *buf,u8 len)
1069:Core/Src/Mytouch.c **** {
 3864              		.loc 1 1069 1 is_stmt 1 view -0
 3865              		.cfi_startproc
 3866              		@ args = 0, pretend = 0, frame = 0
 3867              		@ frame_needed = 0, uses_anonymous_args = 0
 3868              		.loc 1 1069 1 is_stmt 0 view .LVU1014
 3869 0000 70B5     		push	{r4, r5, r6, lr}
 3870              	.LCFI54:
 3871              		.cfi_def_cfa_offset 16
 3872              		.cfi_offset 4, -16
 3873              		.cfi_offset 5, -12
 3874              		.cfi_offset 6, -8
 3875              		.cfi_offset 14, -4
 3876 0002 0446     		mov	r4, r0
 3877 0004 0E46     		mov	r6, r1
 3878 0006 1546     		mov	r5, r2
1070:Core/Src/Mytouch.c **** 	u8 i; 
 3879              		.loc 1 1070 2 is_stmt 1 view .LVU1015
1071:Core/Src/Mytouch.c ****  	CT_IIC_Start();	
 3880              		.loc 1 1071 3 view .LVU1016
 3881 0008 FFF7FEFF 		bl	CT_IIC_Start
 3882              	.LVL346:
1072:Core/Src/Mytouch.c ****  	CT_IIC_Send_Byte(FT_CMD_WR);   	//发送写命令 	 
 3883              		.loc 1 1072 3 view .LVU1017
 3884 000c 7020     		movs	r0, #112
 3885 000e FFF7FEFF 		bl	CT_IIC_Send_Byte
ARM GAS  /tmp/ccNZMix7.s 			page 94


 3886              	.LVL347:
1073:Core/Src/Mytouch.c **** 	CT_IIC_Wait_Ack(); 	 										  		   
 3887              		.loc 1 1073 2 view .LVU1018
 3888 0012 FFF7FEFF 		bl	CT_IIC_Wait_Ack
 3889              	.LVL348:
1074:Core/Src/Mytouch.c ****  	CT_IIC_Send_Byte(reg&0XFF);   	//发送低8位地址
 3890              		.loc 1 1074 3 view .LVU1019
 3891 0016 E0B2     		uxtb	r0, r4
 3892 0018 FFF7FEFF 		bl	CT_IIC_Send_Byte
 3893              	.LVL349:
1075:Core/Src/Mytouch.c **** 	CT_IIC_Wait_Ack();  
 3894              		.loc 1 1075 2 view .LVU1020
 3895 001c FFF7FEFF 		bl	CT_IIC_Wait_Ack
 3896              	.LVL350:
1076:Core/Src/Mytouch.c ****  	CT_IIC_Start();  	 	   
 3897              		.loc 1 1076 3 view .LVU1021
 3898 0020 FFF7FEFF 		bl	CT_IIC_Start
 3899              	.LVL351:
1077:Core/Src/Mytouch.c **** 	CT_IIC_Send_Byte(FT_CMD_RD);   	//发送读命令		   
 3900              		.loc 1 1077 2 view .LVU1022
 3901 0024 7120     		movs	r0, #113
 3902 0026 FFF7FEFF 		bl	CT_IIC_Send_Byte
 3903              	.LVL352:
1078:Core/Src/Mytouch.c **** 	CT_IIC_Wait_Ack();	   
 3904              		.loc 1 1078 2 view .LVU1023
 3905 002a FFF7FEFF 		bl	CT_IIC_Wait_Ack
 3906              	.LVL353:
1079:Core/Src/Mytouch.c **** 	for(i=0;i<len;i++)
 3907              		.loc 1 1079 2 view .LVU1024
 3908              		.loc 1 1079 7 is_stmt 0 view .LVU1025
 3909 002e 0024     		movs	r4, #0
 3910              		.loc 1 1079 2 view .LVU1026
 3911 0030 08E0     		b	.L217
 3912              	.LVL354:
 3913              	.L218:
1080:Core/Src/Mytouch.c **** 	{	   
1081:Core/Src/Mytouch.c ****     	buf[i]=CT_IIC_Read_Byte(i==(len-1)?0:1); //发数据	  
 3914              		.loc 1 1081 6 is_stmt 1 discriminator 3 view .LVU1027
 3915              		.loc 1 1081 37 is_stmt 0 discriminator 3 view .LVU1028
 3916 0032 681E     		subs	r0, r5, #1
 3917              		.loc 1 1081 13 discriminator 3 view .LVU1029
 3918 0034 201A     		subs	r0, r4, r0
 3919 0036 18BF     		it	ne
 3920 0038 0120     		movne	r0, #1
 3921 003a FFF7FEFF 		bl	CT_IIC_Read_Byte
 3922              	.LVL355:
 3923              		.loc 1 1081 12 discriminator 3 view .LVU1030
 3924 003e 3055     		strb	r0, [r6, r4]
1079:Core/Src/Mytouch.c **** 	for(i=0;i<len;i++)
 3925              		.loc 1 1079 16 is_stmt 1 discriminator 3 view .LVU1031
1079:Core/Src/Mytouch.c **** 	for(i=0;i<len;i++)
 3926              		.loc 1 1079 17 is_stmt 0 discriminator 3 view .LVU1032
 3927 0040 0134     		adds	r4, r4, #1
 3928              	.LVL356:
1079:Core/Src/Mytouch.c **** 	for(i=0;i<len;i++)
 3929              		.loc 1 1079 17 discriminator 3 view .LVU1033
 3930 0042 E4B2     		uxtb	r4, r4
ARM GAS  /tmp/ccNZMix7.s 			page 95


 3931              	.LVL357:
 3932              	.L217:
1079:Core/Src/Mytouch.c **** 	for(i=0;i<len;i++)
 3933              		.loc 1 1079 10 is_stmt 1 discriminator 1 view .LVU1034
1079:Core/Src/Mytouch.c **** 	for(i=0;i<len;i++)
 3934              		.loc 1 1079 2 is_stmt 0 discriminator 1 view .LVU1035
 3935 0044 AC42     		cmp	r4, r5
 3936 0046 F4D3     		bcc	.L218
1082:Core/Src/Mytouch.c **** 	} 
1083:Core/Src/Mytouch.c ****     CT_IIC_Stop();//产生一个停止条件     
 3937              		.loc 1 1083 5 is_stmt 1 view .LVU1036
 3938 0048 FFF7FEFF 		bl	CT_IIC_Stop
 3939              	.LVL358:
1084:Core/Src/Mytouch.c **** } 
 3940              		.loc 1 1084 1 is_stmt 0 view .LVU1037
 3941 004c 70BD     		pop	{r4, r5, r6, pc}
 3942              		.loc 1 1084 1 view .LVU1038
 3943              		.cfi_endproc
 3944              	.LFE180:
 3946              		.section	.rodata.FT5206_Scan.str1.4,"aMS",%progbits,1
 3947              		.align	2
 3948              	.LC13:
 3949 0000 39313100 		.ascii	"911\000"
 3950              		.section	.text.FT5206_Scan,"ax",%progbits
 3951              		.align	1
 3952              		.global	FT5206_Scan
 3953              		.syntax unified
 3954              		.thumb
 3955              		.thumb_func
 3956              		.fpu fpv5-d16
 3958              	FT5206_Scan:
 3959              	.LVL359:
 3960              	.LFB182:
1085:Core/Src/Mytouch.c **** u8 CIP[5]; //用来存放触摸IC-GT911
1086:Core/Src/Mytouch.c **** //初始化FT5206触摸屏
1087:Core/Src/Mytouch.c **** //返回值:0,初始化成功;1,初始化失败 
1088:Core/Src/Mytouch.c **** u8 FT5206_Init(void)
1089:Core/Src/Mytouch.c **** {
1090:Core/Src/Mytouch.c ****     u8 temp[5];
1091:Core/Src/Mytouch.c ****     u8 res=1;
1092:Core/Src/Mytouch.c ****     GPIO_InitTypeDef GPIO_Initure;
1093:Core/Src/Mytouch.c ****  
1094:Core/Src/Mytouch.c ****     __HAL_RCC_GPIOH_CLK_ENABLE();			//开启GPIOH时钟
1095:Core/Src/Mytouch.c ****     __HAL_RCC_GPIOI_CLK_ENABLE();			//开启GPIOI时钟
1096:Core/Src/Mytouch.c ****                 
1097:Core/Src/Mytouch.c ****     //PH7
1098:Core/Src/Mytouch.c ****     GPIO_Initure.Pin=GPIO_PIN_7;            //PH7
1099:Core/Src/Mytouch.c ****     GPIO_Initure.Mode=GPIO_MODE_INPUT;      //输入
1100:Core/Src/Mytouch.c ****     GPIO_Initure.Pull=GPIO_PULLUP;          //上拉
1101:Core/Src/Mytouch.c ****     GPIO_Initure.Speed=GPIO_SPEED_FREQ_VERY_HIGH;     //高速
1102:Core/Src/Mytouch.c ****     HAL_GPIO_Init(GPIOH,&GPIO_Initure);     //初始化
1103:Core/Src/Mytouch.c ****             
1104:Core/Src/Mytouch.c ****     //PI8
1105:Core/Src/Mytouch.c ****     GPIO_Initure.Pin=GPIO_PIN_8;            //PI8
1106:Core/Src/Mytouch.c ****     GPIO_Initure.Mode=GPIO_MODE_OUTPUT_PP;  //推挽输出
1107:Core/Src/Mytouch.c ****     HAL_GPIO_Init(GPIOI,&GPIO_Initure);     //初始化
1108:Core/Src/Mytouch.c ****         
ARM GAS  /tmp/ccNZMix7.s 			page 96


1109:Core/Src/Mytouch.c **** 	CT_IIC_Init();      	//初始化电容屏的I2C总线  
1110:Core/Src/Mytouch.c **** 	FT_RST(0);				//复位
1111:Core/Src/Mytouch.c **** 	HAL_Delay(20);
1112:Core/Src/Mytouch.c ****  	FT_RST(1);				//释放复位		    
1113:Core/Src/Mytouch.c **** 	HAL_Delay(50);  	
1114:Core/Src/Mytouch.c **** 	temp[0]=0;
1115:Core/Src/Mytouch.c **** 	//读取版本号，参考值：0x3003
1116:Core/Src/Mytouch.c **** 	FT5206_RD_Reg(FT_ID_G_LIB_VERSION,&temp[0],2);  
1117:Core/Src/Mytouch.c **** 	if((temp[0]==0X30&&temp[1]==0X03)||temp[1]==0X01||temp[1]==0X02)//版本:0X3003/0X0001/0X0002
1118:Core/Src/Mytouch.c **** 	{
1119:Core/Src/Mytouch.c **** 		printf("CTP ID:%x\r\n",((u16)temp[0]<<8)+temp[1]);
1120:Core/Src/Mytouch.c ****         FT5206_WR_Reg(FT_DEVIDE_MODE,temp,1);	//进入正常操作模式 
1121:Core/Src/Mytouch.c ****         FT5206_WR_Reg(FT_ID_G_MODE,temp,1);		//查询模式 
1122:Core/Src/Mytouch.c ****         temp[0]=22;								//触摸有效值，22，越小越灵敏	
1123:Core/Src/Mytouch.c ****         FT5206_WR_Reg(FT_ID_G_THGROUP,temp,1);	//设置触摸有效值
1124:Core/Src/Mytouch.c ****         temp[0]=12;								//激活周期，不能小于12，最大14
1125:Core/Src/Mytouch.c ****         FT5206_WR_Reg(FT_ID_G_PERIODACTIVE,temp,1); 
1126:Core/Src/Mytouch.c **** 		res = 0;
1127:Core/Src/Mytouch.c **** 	} 
1128:Core/Src/Mytouch.c ****     else
1129:Core/Src/Mytouch.c ****     {
1130:Core/Src/Mytouch.c ****         GT9147_RD_Reg(GT_PID_REG,temp,4); //读取产品ID
1131:Core/Src/Mytouch.c ****         temp[4]=0;
1132:Core/Src/Mytouch.c ****         printf("CTP ID:%s\r\n", temp);  //打印ID
1133:Core/Src/Mytouch.c ****         memcpy(CIP,temp, sizeof(u8)*4);
1134:Core/Src/Mytouch.c ****         temp[0]=0X02;
1135:Core/Src/Mytouch.c ****         GT9147_WR_Reg(GT_CTRL_REG,temp,1);  //软复位GT9XXX 
1136:Core/Src/Mytouch.c ****         GT9147_RD_Reg(GT_CFGS_REG,temp,1);  //读取GT_CFGS_REG寄存器
1137:Core/Src/Mytouch.c ****         HAL_Delay(10);
1138:Core/Src/Mytouch.c ****         temp[0]=0X00;
1139:Core/Src/Mytouch.c ****         GT9147_WR_Reg(GT_CTRL_REG,temp,1); //结束复位, 进入读坐标状态
1140:Core/Src/Mytouch.c ****         res = 0;
1141:Core/Src/Mytouch.c ****     }
1142:Core/Src/Mytouch.c **** 	return res;
1143:Core/Src/Mytouch.c **** }
1144:Core/Src/Mytouch.c **** const u16 FT5206_TPX_TBL[5]={FT_TP1_REG,FT_TP2_REG,FT_TP3_REG,FT_TP4_REG,FT_TP5_REG};
1145:Core/Src/Mytouch.c **** //GT911属于GT9xx系列，所以直接调用gt9147的相关宏定义和调用相关函数
1146:Core/Src/Mytouch.c **** const u16 GT911_TPX_TBL[5]={GT_TP1_REG,GT_TP2_REG,GT_TP3_REG,GT_TP4_REG,GT_TP5_REG};
1147:Core/Src/Mytouch.c **** u8 g_gt_tnum=5;      //默认支持的触摸屏点数(5点触摸)
1148:Core/Src/Mytouch.c **** //扫描触摸屏(采用查询方式)
1149:Core/Src/Mytouch.c **** //mode:0,正常扫描.
1150:Core/Src/Mytouch.c **** //返回值:当前触屏状态.
1151:Core/Src/Mytouch.c **** //0,触屏无触摸;1,触屏有触摸
