ARM GAS  /tmp/ccBBH4Jd.s 			page 1


   1              		.cpu cortex-m7
   2              		.arch armv7e-m
   3              		.fpu fpv5-d16
   4              		.eabi_attribute 28, 1
   5              		.eabi_attribute 20, 1
   6              		.eabi_attribute 21, 1
   7              		.eabi_attribute 23, 3
   8              		.eabi_attribute 24, 1
   9              		.eabi_attribute 25, 1
  10              		.eabi_attribute 26, 1
  11              		.eabi_attribute 30, 1
  12              		.eabi_attribute 34, 1
  13              		.eabi_attribute 18, 4
  14              		.file	"stm32h7xx_ll_fmc.c"
  15              		.text
  16              	.Ltext0:
  17              		.cfi_sections	.debug_frame
  18              		.section	.text.FMC_NORSRAM_Init,"ax",%progbits
  19              		.align	1
  20              		.global	FMC_NORSRAM_Init
  21              		.syntax unified
  22              		.thumb
  23              		.thumb_func
  25              	FMC_NORSRAM_Init:
  26              	.LVL0:
  27              	.LFB144:
  28              		.file 1 "Drivers/STM32H7xx_HAL_Driver/Src/stm32h7xx_ll_fmc.c"
   1:Drivers/STM32H7xx_HAL_Driver/Src/stm32h7xx_ll_fmc.c **** /**
   2:Drivers/STM32H7xx_HAL_Driver/Src/stm32h7xx_ll_fmc.c ****   ******************************************************************************
   3:Drivers/STM32H7xx_HAL_Driver/Src/stm32h7xx_ll_fmc.c ****   * @file    stm32h7xx_ll_fmc.c
   4:Drivers/STM32H7xx_HAL_Driver/Src/stm32h7xx_ll_fmc.c ****   * @author  MCD Application Team
   5:Drivers/STM32H7xx_HAL_Driver/Src/stm32h7xx_ll_fmc.c ****   * @brief   FMC Low Layer HAL module driver.
   6:Drivers/STM32H7xx_HAL_Driver/Src/stm32h7xx_ll_fmc.c ****   *
   7:Drivers/STM32H7xx_HAL_Driver/Src/stm32h7xx_ll_fmc.c ****   *          This file provides firmware functions to manage the following
   8:Drivers/STM32H7xx_HAL_Driver/Src/stm32h7xx_ll_fmc.c ****   *          functionalities of the Flexible Memory Controller (FMC) peripheral memories:
   9:Drivers/STM32H7xx_HAL_Driver/Src/stm32h7xx_ll_fmc.c ****   *           + Initialization/de-initialization functions
  10:Drivers/STM32H7xx_HAL_Driver/Src/stm32h7xx_ll_fmc.c ****   *           + Peripheral Control functions
  11:Drivers/STM32H7xx_HAL_Driver/Src/stm32h7xx_ll_fmc.c ****   *           + Peripheral State functions
  12:Drivers/STM32H7xx_HAL_Driver/Src/stm32h7xx_ll_fmc.c ****   *
  13:Drivers/STM32H7xx_HAL_Driver/Src/stm32h7xx_ll_fmc.c ****   @verbatim
  14:Drivers/STM32H7xx_HAL_Driver/Src/stm32h7xx_ll_fmc.c ****   ==============================================================================
  15:Drivers/STM32H7xx_HAL_Driver/Src/stm32h7xx_ll_fmc.c ****                         ##### FMC peripheral features #####
  16:Drivers/STM32H7xx_HAL_Driver/Src/stm32h7xx_ll_fmc.c ****   ==============================================================================
  17:Drivers/STM32H7xx_HAL_Driver/Src/stm32h7xx_ll_fmc.c ****   [..] The Flexible memory controller (FMC) includes following memory controllers:
  18:Drivers/STM32H7xx_HAL_Driver/Src/stm32h7xx_ll_fmc.c ****        (+) The NOR/PSRAM memory controller
  19:Drivers/STM32H7xx_HAL_Driver/Src/stm32h7xx_ll_fmc.c ****      (+) The NAND memory controller
  20:Drivers/STM32H7xx_HAL_Driver/Src/stm32h7xx_ll_fmc.c ****        (+) The Synchronous DRAM (SDRAM) controller
  21:Drivers/STM32H7xx_HAL_Driver/Src/stm32h7xx_ll_fmc.c **** 
  22:Drivers/STM32H7xx_HAL_Driver/Src/stm32h7xx_ll_fmc.c ****   [..] The FMC functional block makes the interface with synchronous and asynchronous static
  23:Drivers/STM32H7xx_HAL_Driver/Src/stm32h7xx_ll_fmc.c ****        memories and SDRAM memories. Its main purposes are:
  24:Drivers/STM32H7xx_HAL_Driver/Src/stm32h7xx_ll_fmc.c ****        (+) to translate AHB transactions into the appropriate external device protocol
  25:Drivers/STM32H7xx_HAL_Driver/Src/stm32h7xx_ll_fmc.c ****        (+) to meet the access time requirements of the external memory devices
  26:Drivers/STM32H7xx_HAL_Driver/Src/stm32h7xx_ll_fmc.c **** 
  27:Drivers/STM32H7xx_HAL_Driver/Src/stm32h7xx_ll_fmc.c ****   [..] All external memories share the addresses, data and control signals with the controller.
  28:Drivers/STM32H7xx_HAL_Driver/Src/stm32h7xx_ll_fmc.c ****        Each external device is accessed by means of a unique Chip Select. The FMC performs
  29:Drivers/STM32H7xx_HAL_Driver/Src/stm32h7xx_ll_fmc.c ****        only one access at a time to an external device.
  30:Drivers/STM32H7xx_HAL_Driver/Src/stm32h7xx_ll_fmc.c ****        The main features of the FMC controller are the following:
ARM GAS  /tmp/ccBBH4Jd.s 			page 2


  31:Drivers/STM32H7xx_HAL_Driver/Src/stm32h7xx_ll_fmc.c ****         (+) Interface with static-memory mapped devices including:
  32:Drivers/STM32H7xx_HAL_Driver/Src/stm32h7xx_ll_fmc.c ****            (++) Static random access memory (SRAM)
  33:Drivers/STM32H7xx_HAL_Driver/Src/stm32h7xx_ll_fmc.c ****            (++) Read-only memory (ROM)
  34:Drivers/STM32H7xx_HAL_Driver/Src/stm32h7xx_ll_fmc.c ****            (++) NOR Flash memory/OneNAND Flash memory
  35:Drivers/STM32H7xx_HAL_Driver/Src/stm32h7xx_ll_fmc.c ****            (++) PSRAM (4 memory banks)
  36:Drivers/STM32H7xx_HAL_Driver/Src/stm32h7xx_ll_fmc.c ****            (++) Two banks of NAND Flash memory with ECC hardware to check up to 8 Kbytes of
  37:Drivers/STM32H7xx_HAL_Driver/Src/stm32h7xx_ll_fmc.c ****                 data
  38:Drivers/STM32H7xx_HAL_Driver/Src/stm32h7xx_ll_fmc.c ****         (+) Interface with synchronous DRAM (SDRAM) memories
  39:Drivers/STM32H7xx_HAL_Driver/Src/stm32h7xx_ll_fmc.c ****         (+) Independent Chip Select control for each memory bank
  40:Drivers/STM32H7xx_HAL_Driver/Src/stm32h7xx_ll_fmc.c ****         (+) Independent configuration for each memory bank
  41:Drivers/STM32H7xx_HAL_Driver/Src/stm32h7xx_ll_fmc.c **** 
  42:Drivers/STM32H7xx_HAL_Driver/Src/stm32h7xx_ll_fmc.c ****   @endverbatim
  43:Drivers/STM32H7xx_HAL_Driver/Src/stm32h7xx_ll_fmc.c ****   ******************************************************************************
  44:Drivers/STM32H7xx_HAL_Driver/Src/stm32h7xx_ll_fmc.c ****   * @attention
  45:Drivers/STM32H7xx_HAL_Driver/Src/stm32h7xx_ll_fmc.c ****   *
  46:Drivers/STM32H7xx_HAL_Driver/Src/stm32h7xx_ll_fmc.c ****   * <h2><center>&copy; Copyright (c) 2017 STMicroelectronics.
  47:Drivers/STM32H7xx_HAL_Driver/Src/stm32h7xx_ll_fmc.c ****   * All rights reserved.</center></h2>
  48:Drivers/STM32H7xx_HAL_Driver/Src/stm32h7xx_ll_fmc.c ****   *
  49:Drivers/STM32H7xx_HAL_Driver/Src/stm32h7xx_ll_fmc.c ****   * This software component is licensed by ST under BSD 3-Clause license,
  50:Drivers/STM32H7xx_HAL_Driver/Src/stm32h7xx_ll_fmc.c ****   * the "License"; You may not use this file except in compliance with the
  51:Drivers/STM32H7xx_HAL_Driver/Src/stm32h7xx_ll_fmc.c ****   * License. You may obtain a copy of the License at:
  52:Drivers/STM32H7xx_HAL_Driver/Src/stm32h7xx_ll_fmc.c ****   *                       opensource.org/licenses/BSD-3-Clause
  53:Drivers/STM32H7xx_HAL_Driver/Src/stm32h7xx_ll_fmc.c ****   *
  54:Drivers/STM32H7xx_HAL_Driver/Src/stm32h7xx_ll_fmc.c ****   ******************************************************************************
  55:Drivers/STM32H7xx_HAL_Driver/Src/stm32h7xx_ll_fmc.c ****   */
  56:Drivers/STM32H7xx_HAL_Driver/Src/stm32h7xx_ll_fmc.c **** 
  57:Drivers/STM32H7xx_HAL_Driver/Src/stm32h7xx_ll_fmc.c **** /* Includes ------------------------------------------------------------------*/
  58:Drivers/STM32H7xx_HAL_Driver/Src/stm32h7xx_ll_fmc.c **** #include "stm32h7xx_hal.h"
  59:Drivers/STM32H7xx_HAL_Driver/Src/stm32h7xx_ll_fmc.c **** 
  60:Drivers/STM32H7xx_HAL_Driver/Src/stm32h7xx_ll_fmc.c **** /** @addtogroup STM32H7xx_HAL_Driver
  61:Drivers/STM32H7xx_HAL_Driver/Src/stm32h7xx_ll_fmc.c ****   * @{
  62:Drivers/STM32H7xx_HAL_Driver/Src/stm32h7xx_ll_fmc.c ****   */
  63:Drivers/STM32H7xx_HAL_Driver/Src/stm32h7xx_ll_fmc.c **** #if defined(HAL_NOR_MODULE_ENABLED) || defined(HAL_SRAM_MODULE_ENABLED) || defined(HAL_NAND_MODULE_
  64:Drivers/STM32H7xx_HAL_Driver/Src/stm32h7xx_ll_fmc.c **** 
  65:Drivers/STM32H7xx_HAL_Driver/Src/stm32h7xx_ll_fmc.c **** /** @defgroup FMC_LL  FMC Low Layer
  66:Drivers/STM32H7xx_HAL_Driver/Src/stm32h7xx_ll_fmc.c ****   * @brief FMC driver modules
  67:Drivers/STM32H7xx_HAL_Driver/Src/stm32h7xx_ll_fmc.c ****   * @{
  68:Drivers/STM32H7xx_HAL_Driver/Src/stm32h7xx_ll_fmc.c ****   */
  69:Drivers/STM32H7xx_HAL_Driver/Src/stm32h7xx_ll_fmc.c **** 
  70:Drivers/STM32H7xx_HAL_Driver/Src/stm32h7xx_ll_fmc.c **** /* Private typedef -----------------------------------------------------------*/
  71:Drivers/STM32H7xx_HAL_Driver/Src/stm32h7xx_ll_fmc.c **** /* Private define ------------------------------------------------------------*/
  72:Drivers/STM32H7xx_HAL_Driver/Src/stm32h7xx_ll_fmc.c **** 
  73:Drivers/STM32H7xx_HAL_Driver/Src/stm32h7xx_ll_fmc.c **** /** @defgroup FMC_LL_Private_Constants FMC Low Layer Private Constants
  74:Drivers/STM32H7xx_HAL_Driver/Src/stm32h7xx_ll_fmc.c ****   * @{
  75:Drivers/STM32H7xx_HAL_Driver/Src/stm32h7xx_ll_fmc.c ****   */
  76:Drivers/STM32H7xx_HAL_Driver/Src/stm32h7xx_ll_fmc.c **** 
  77:Drivers/STM32H7xx_HAL_Driver/Src/stm32h7xx_ll_fmc.c **** /* ----------------------- FMC registers bit mask --------------------------- */
  78:Drivers/STM32H7xx_HAL_Driver/Src/stm32h7xx_ll_fmc.c **** 
  79:Drivers/STM32H7xx_HAL_Driver/Src/stm32h7xx_ll_fmc.c **** /* --- BCR Register ---*/
  80:Drivers/STM32H7xx_HAL_Driver/Src/stm32h7xx_ll_fmc.c **** /* BCR register clear mask */
  81:Drivers/STM32H7xx_HAL_Driver/Src/stm32h7xx_ll_fmc.c **** 
  82:Drivers/STM32H7xx_HAL_Driver/Src/stm32h7xx_ll_fmc.c **** /* --- BTR Register ---*/
  83:Drivers/STM32H7xx_HAL_Driver/Src/stm32h7xx_ll_fmc.c **** /* BTR register clear mask */
  84:Drivers/STM32H7xx_HAL_Driver/Src/stm32h7xx_ll_fmc.c **** #define BTR_CLEAR_MASK    ((uint32_t)(FMC_BTRx_ADDSET | FMC_BTRx_ADDHLD  |\
  85:Drivers/STM32H7xx_HAL_Driver/Src/stm32h7xx_ll_fmc.c ****                                       FMC_BTRx_DATAST | FMC_BTRx_BUSTURN |\
  86:Drivers/STM32H7xx_HAL_Driver/Src/stm32h7xx_ll_fmc.c ****                                       FMC_BTRx_CLKDIV | FMC_BTRx_DATLAT  |\
  87:Drivers/STM32H7xx_HAL_Driver/Src/stm32h7xx_ll_fmc.c ****                                       FMC_BTRx_ACCMOD))
ARM GAS  /tmp/ccBBH4Jd.s 			page 3


  88:Drivers/STM32H7xx_HAL_Driver/Src/stm32h7xx_ll_fmc.c **** 
  89:Drivers/STM32H7xx_HAL_Driver/Src/stm32h7xx_ll_fmc.c **** /* --- BWTR Register ---*/
  90:Drivers/STM32H7xx_HAL_Driver/Src/stm32h7xx_ll_fmc.c **** /* BWTR register clear mask */
  91:Drivers/STM32H7xx_HAL_Driver/Src/stm32h7xx_ll_fmc.c **** #define BWTR_CLEAR_MASK   ((uint32_t)(FMC_BWTRx_ADDSET | FMC_BWTRx_ADDHLD  |\
  92:Drivers/STM32H7xx_HAL_Driver/Src/stm32h7xx_ll_fmc.c ****                                       FMC_BWTRx_DATAST | FMC_BWTRx_BUSTURN |\
  93:Drivers/STM32H7xx_HAL_Driver/Src/stm32h7xx_ll_fmc.c ****                                       FMC_BWTRx_ACCMOD))
  94:Drivers/STM32H7xx_HAL_Driver/Src/stm32h7xx_ll_fmc.c **** 
  95:Drivers/STM32H7xx_HAL_Driver/Src/stm32h7xx_ll_fmc.c **** /* --- PCR Register ---*/
  96:Drivers/STM32H7xx_HAL_Driver/Src/stm32h7xx_ll_fmc.c **** /* PCR register clear mask */
  97:Drivers/STM32H7xx_HAL_Driver/Src/stm32h7xx_ll_fmc.c **** #define PCR_CLEAR_MASK    ((uint32_t)(FMC_PCR_PWAITEN | FMC_PCR_PBKEN  | \
  98:Drivers/STM32H7xx_HAL_Driver/Src/stm32h7xx_ll_fmc.c ****                                       FMC_PCR_PWID    | FMC_PCR_ECCEN  | \
  99:Drivers/STM32H7xx_HAL_Driver/Src/stm32h7xx_ll_fmc.c ****                                       FMC_PCR_TCLR    | FMC_PCR_TAR    | \
 100:Drivers/STM32H7xx_HAL_Driver/Src/stm32h7xx_ll_fmc.c ****                                       FMC_PCR_ECCPS))
 101:Drivers/STM32H7xx_HAL_Driver/Src/stm32h7xx_ll_fmc.c **** /* --- PMEM Register ---*/
 102:Drivers/STM32H7xx_HAL_Driver/Src/stm32h7xx_ll_fmc.c **** /* PMEM register clear mask */
 103:Drivers/STM32H7xx_HAL_Driver/Src/stm32h7xx_ll_fmc.c **** #define PMEM_CLEAR_MASK   ((uint32_t)(FMC_PMEM_MEMSET  | FMC_PMEM_MEMWAIT |\
 104:Drivers/STM32H7xx_HAL_Driver/Src/stm32h7xx_ll_fmc.c ****                                       FMC_PMEM_MEMHOLD | FMC_PMEM_MEMHIZ))
 105:Drivers/STM32H7xx_HAL_Driver/Src/stm32h7xx_ll_fmc.c **** 
 106:Drivers/STM32H7xx_HAL_Driver/Src/stm32h7xx_ll_fmc.c **** /* --- PATT Register ---*/
 107:Drivers/STM32H7xx_HAL_Driver/Src/stm32h7xx_ll_fmc.c **** /* PATT register clear mask */
 108:Drivers/STM32H7xx_HAL_Driver/Src/stm32h7xx_ll_fmc.c **** #define PATT_CLEAR_MASK   ((uint32_t)(FMC_PATT_ATTSET  | FMC_PATT_ATTWAIT |\
 109:Drivers/STM32H7xx_HAL_Driver/Src/stm32h7xx_ll_fmc.c ****                                       FMC_PATT_ATTHOLD | FMC_PATT_ATTHIZ))
 110:Drivers/STM32H7xx_HAL_Driver/Src/stm32h7xx_ll_fmc.c **** 
 111:Drivers/STM32H7xx_HAL_Driver/Src/stm32h7xx_ll_fmc.c **** 
 112:Drivers/STM32H7xx_HAL_Driver/Src/stm32h7xx_ll_fmc.c **** /* --- SDCR Register ---*/
 113:Drivers/STM32H7xx_HAL_Driver/Src/stm32h7xx_ll_fmc.c **** /* SDCR register clear mask */
 114:Drivers/STM32H7xx_HAL_Driver/Src/stm32h7xx_ll_fmc.c **** #define SDCR_CLEAR_MASK   ((uint32_t)(FMC_SDCRx_NC    | FMC_SDCRx_NR     | \
 115:Drivers/STM32H7xx_HAL_Driver/Src/stm32h7xx_ll_fmc.c ****                                       FMC_SDCRx_MWID  | FMC_SDCRx_NB     | \
 116:Drivers/STM32H7xx_HAL_Driver/Src/stm32h7xx_ll_fmc.c ****                                       FMC_SDCRx_CAS   | FMC_SDCRx_WP     | \
 117:Drivers/STM32H7xx_HAL_Driver/Src/stm32h7xx_ll_fmc.c ****                                       FMC_SDCRx_SDCLK | FMC_SDCRx_RBURST | \
 118:Drivers/STM32H7xx_HAL_Driver/Src/stm32h7xx_ll_fmc.c ****                                       FMC_SDCRx_RPIPE))
 119:Drivers/STM32H7xx_HAL_Driver/Src/stm32h7xx_ll_fmc.c **** 
 120:Drivers/STM32H7xx_HAL_Driver/Src/stm32h7xx_ll_fmc.c **** /* --- SDTR Register ---*/
 121:Drivers/STM32H7xx_HAL_Driver/Src/stm32h7xx_ll_fmc.c **** /* SDTR register clear mask */
 122:Drivers/STM32H7xx_HAL_Driver/Src/stm32h7xx_ll_fmc.c **** #define SDTR_CLEAR_MASK   ((uint32_t)(FMC_SDTRx_TMRD  | FMC_SDTRx_TXSR   | \
 123:Drivers/STM32H7xx_HAL_Driver/Src/stm32h7xx_ll_fmc.c ****                                       FMC_SDTRx_TRAS  | FMC_SDTRx_TRC    | \
 124:Drivers/STM32H7xx_HAL_Driver/Src/stm32h7xx_ll_fmc.c ****                                       FMC_SDTRx_TWR   | FMC_SDTRx_TRP    | \
 125:Drivers/STM32H7xx_HAL_Driver/Src/stm32h7xx_ll_fmc.c ****                                       FMC_SDTRx_TRCD))
 126:Drivers/STM32H7xx_HAL_Driver/Src/stm32h7xx_ll_fmc.c **** 
 127:Drivers/STM32H7xx_HAL_Driver/Src/stm32h7xx_ll_fmc.c **** /**
 128:Drivers/STM32H7xx_HAL_Driver/Src/stm32h7xx_ll_fmc.c ****   * @}
 129:Drivers/STM32H7xx_HAL_Driver/Src/stm32h7xx_ll_fmc.c ****   */
 130:Drivers/STM32H7xx_HAL_Driver/Src/stm32h7xx_ll_fmc.c **** 
 131:Drivers/STM32H7xx_HAL_Driver/Src/stm32h7xx_ll_fmc.c **** /* Private macro -------------------------------------------------------------*/
 132:Drivers/STM32H7xx_HAL_Driver/Src/stm32h7xx_ll_fmc.c **** /* Private variables ---------------------------------------------------------*/
 133:Drivers/STM32H7xx_HAL_Driver/Src/stm32h7xx_ll_fmc.c **** /* Private function prototypes -----------------------------------------------*/
 134:Drivers/STM32H7xx_HAL_Driver/Src/stm32h7xx_ll_fmc.c **** /* Exported functions --------------------------------------------------------*/
 135:Drivers/STM32H7xx_HAL_Driver/Src/stm32h7xx_ll_fmc.c **** 
 136:Drivers/STM32H7xx_HAL_Driver/Src/stm32h7xx_ll_fmc.c **** /** @defgroup FMC_LL_Exported_Functions FMC Low Layer Exported Functions
 137:Drivers/STM32H7xx_HAL_Driver/Src/stm32h7xx_ll_fmc.c ****   * @{
 138:Drivers/STM32H7xx_HAL_Driver/Src/stm32h7xx_ll_fmc.c ****   */
 139:Drivers/STM32H7xx_HAL_Driver/Src/stm32h7xx_ll_fmc.c **** 
 140:Drivers/STM32H7xx_HAL_Driver/Src/stm32h7xx_ll_fmc.c **** 
 141:Drivers/STM32H7xx_HAL_Driver/Src/stm32h7xx_ll_fmc.c **** /** @defgroup FMC_LL_Exported_Functions_NORSRAM FMC Low Layer NOR SRAM Exported Functions
 142:Drivers/STM32H7xx_HAL_Driver/Src/stm32h7xx_ll_fmc.c ****   * @brief  NORSRAM Controller functions
 143:Drivers/STM32H7xx_HAL_Driver/Src/stm32h7xx_ll_fmc.c ****   *
 144:Drivers/STM32H7xx_HAL_Driver/Src/stm32h7xx_ll_fmc.c ****   @verbatim
ARM GAS  /tmp/ccBBH4Jd.s 			page 4


 145:Drivers/STM32H7xx_HAL_Driver/Src/stm32h7xx_ll_fmc.c ****   ==============================================================================
 146:Drivers/STM32H7xx_HAL_Driver/Src/stm32h7xx_ll_fmc.c ****                    ##### How to use NORSRAM device driver #####
 147:Drivers/STM32H7xx_HAL_Driver/Src/stm32h7xx_ll_fmc.c ****   ==============================================================================
 148:Drivers/STM32H7xx_HAL_Driver/Src/stm32h7xx_ll_fmc.c **** 
 149:Drivers/STM32H7xx_HAL_Driver/Src/stm32h7xx_ll_fmc.c ****   [..]
 150:Drivers/STM32H7xx_HAL_Driver/Src/stm32h7xx_ll_fmc.c ****     This driver contains a set of APIs to interface with the FMC NORSRAM banks in order
 151:Drivers/STM32H7xx_HAL_Driver/Src/stm32h7xx_ll_fmc.c ****     to run the NORSRAM external devices.
 152:Drivers/STM32H7xx_HAL_Driver/Src/stm32h7xx_ll_fmc.c **** 
 153:Drivers/STM32H7xx_HAL_Driver/Src/stm32h7xx_ll_fmc.c ****     (+) FMC NORSRAM bank reset using the function FMC_NORSRAM_DeInit()
 154:Drivers/STM32H7xx_HAL_Driver/Src/stm32h7xx_ll_fmc.c ****     (+) FMC NORSRAM bank control configuration using the function FMC_NORSRAM_Init()
 155:Drivers/STM32H7xx_HAL_Driver/Src/stm32h7xx_ll_fmc.c ****     (+) FMC NORSRAM bank timing configuration using the function FMC_NORSRAM_Timing_Init()
 156:Drivers/STM32H7xx_HAL_Driver/Src/stm32h7xx_ll_fmc.c ****     (+) FMC NORSRAM bank extended timing configuration using the function
 157:Drivers/STM32H7xx_HAL_Driver/Src/stm32h7xx_ll_fmc.c ****         FMC_NORSRAM_Extended_Timing_Init()
 158:Drivers/STM32H7xx_HAL_Driver/Src/stm32h7xx_ll_fmc.c ****     (+) FMC NORSRAM bank enable/disable write operation using the functions
 159:Drivers/STM32H7xx_HAL_Driver/Src/stm32h7xx_ll_fmc.c ****         FMC_NORSRAM_WriteOperation_Enable()/FMC_NORSRAM_WriteOperation_Disable()
 160:Drivers/STM32H7xx_HAL_Driver/Src/stm32h7xx_ll_fmc.c **** 
 161:Drivers/STM32H7xx_HAL_Driver/Src/stm32h7xx_ll_fmc.c **** @endverbatim
 162:Drivers/STM32H7xx_HAL_Driver/Src/stm32h7xx_ll_fmc.c ****   * @{
 163:Drivers/STM32H7xx_HAL_Driver/Src/stm32h7xx_ll_fmc.c ****   */
 164:Drivers/STM32H7xx_HAL_Driver/Src/stm32h7xx_ll_fmc.c **** 
 165:Drivers/STM32H7xx_HAL_Driver/Src/stm32h7xx_ll_fmc.c **** /** @defgroup FMC_LL_NORSRAM_Exported_Functions_Group1 Initialization and de-initialization functio
 166:Drivers/STM32H7xx_HAL_Driver/Src/stm32h7xx_ll_fmc.c ****   * @brief    Initialization and Configuration functions
 167:Drivers/STM32H7xx_HAL_Driver/Src/stm32h7xx_ll_fmc.c ****   *
 168:Drivers/STM32H7xx_HAL_Driver/Src/stm32h7xx_ll_fmc.c ****   @verbatim
 169:Drivers/STM32H7xx_HAL_Driver/Src/stm32h7xx_ll_fmc.c ****   ==============================================================================
 170:Drivers/STM32H7xx_HAL_Driver/Src/stm32h7xx_ll_fmc.c ****               ##### Initialization and de_initialization functions #####
 171:Drivers/STM32H7xx_HAL_Driver/Src/stm32h7xx_ll_fmc.c ****   ==============================================================================
 172:Drivers/STM32H7xx_HAL_Driver/Src/stm32h7xx_ll_fmc.c ****   [..]
 173:Drivers/STM32H7xx_HAL_Driver/Src/stm32h7xx_ll_fmc.c ****     This section provides functions allowing to:
 174:Drivers/STM32H7xx_HAL_Driver/Src/stm32h7xx_ll_fmc.c ****     (+) Initialize and configure the FMC NORSRAM interface
 175:Drivers/STM32H7xx_HAL_Driver/Src/stm32h7xx_ll_fmc.c ****     (+) De-initialize the FMC NORSRAM interface
 176:Drivers/STM32H7xx_HAL_Driver/Src/stm32h7xx_ll_fmc.c ****     (+) Configure the FMC clock and associated GPIOs
 177:Drivers/STM32H7xx_HAL_Driver/Src/stm32h7xx_ll_fmc.c **** 
 178:Drivers/STM32H7xx_HAL_Driver/Src/stm32h7xx_ll_fmc.c **** @endverbatim
 179:Drivers/STM32H7xx_HAL_Driver/Src/stm32h7xx_ll_fmc.c ****   * @{
 180:Drivers/STM32H7xx_HAL_Driver/Src/stm32h7xx_ll_fmc.c ****   */
 181:Drivers/STM32H7xx_HAL_Driver/Src/stm32h7xx_ll_fmc.c **** 
 182:Drivers/STM32H7xx_HAL_Driver/Src/stm32h7xx_ll_fmc.c **** /**
 183:Drivers/STM32H7xx_HAL_Driver/Src/stm32h7xx_ll_fmc.c ****   * @brief  Initialize the FMC_NORSRAM device according to the specified
 184:Drivers/STM32H7xx_HAL_Driver/Src/stm32h7xx_ll_fmc.c ****   *         control parameters in the FMC_NORSRAM_InitTypeDef
 185:Drivers/STM32H7xx_HAL_Driver/Src/stm32h7xx_ll_fmc.c ****   * @param  Device Pointer to NORSRAM device instance
 186:Drivers/STM32H7xx_HAL_Driver/Src/stm32h7xx_ll_fmc.c ****   * @param  Init Pointer to NORSRAM Initialization structure
 187:Drivers/STM32H7xx_HAL_Driver/Src/stm32h7xx_ll_fmc.c ****   * @retval HAL status
 188:Drivers/STM32H7xx_HAL_Driver/Src/stm32h7xx_ll_fmc.c ****   */
 189:Drivers/STM32H7xx_HAL_Driver/Src/stm32h7xx_ll_fmc.c **** HAL_StatusTypeDef  FMC_NORSRAM_Init(FMC_NORSRAM_TypeDef *Device,
 190:Drivers/STM32H7xx_HAL_Driver/Src/stm32h7xx_ll_fmc.c ****                                     FMC_NORSRAM_InitTypeDef *Init)
 191:Drivers/STM32H7xx_HAL_Driver/Src/stm32h7xx_ll_fmc.c **** {
  29              		.loc 1 191 1 view -0
  30              		.cfi_startproc
  31              		@ args = 0, pretend = 0, frame = 0
  32              		@ frame_needed = 0, uses_anonymous_args = 0
  33              		@ link register save eliminated.
  34              		.loc 1 191 1 is_stmt 0 view .LVU1
  35 0000 30B4     		push	{r4, r5}
  36              	.LCFI0:
  37              		.cfi_def_cfa_offset 8
  38              		.cfi_offset 4, -8
ARM GAS  /tmp/ccBBH4Jd.s 			page 5


  39              		.cfi_offset 5, -4
 192:Drivers/STM32H7xx_HAL_Driver/Src/stm32h7xx_ll_fmc.c ****   uint32_t flashaccess;
  40              		.loc 1 192 3 is_stmt 1 view .LVU2
 193:Drivers/STM32H7xx_HAL_Driver/Src/stm32h7xx_ll_fmc.c ****   uint32_t btcr_reg;
  41              		.loc 1 193 3 view .LVU3
 194:Drivers/STM32H7xx_HAL_Driver/Src/stm32h7xx_ll_fmc.c ****   uint32_t mask;
  42              		.loc 1 194 3 view .LVU4
 195:Drivers/STM32H7xx_HAL_Driver/Src/stm32h7xx_ll_fmc.c **** 
 196:Drivers/STM32H7xx_HAL_Driver/Src/stm32h7xx_ll_fmc.c ****   /* Check the parameters */
 197:Drivers/STM32H7xx_HAL_Driver/Src/stm32h7xx_ll_fmc.c ****   assert_param(IS_FMC_NORSRAM_DEVICE(Device));
  43              		.loc 1 197 3 view .LVU5
 198:Drivers/STM32H7xx_HAL_Driver/Src/stm32h7xx_ll_fmc.c ****   assert_param(IS_FMC_NORSRAM_BANK(Init->NSBank));
  44              		.loc 1 198 3 view .LVU6
 199:Drivers/STM32H7xx_HAL_Driver/Src/stm32h7xx_ll_fmc.c ****   assert_param(IS_FMC_MUX(Init->DataAddressMux));
  45              		.loc 1 199 3 view .LVU7
 200:Drivers/STM32H7xx_HAL_Driver/Src/stm32h7xx_ll_fmc.c ****   assert_param(IS_FMC_MEMORY(Init->MemoryType));
  46              		.loc 1 200 3 view .LVU8
 201:Drivers/STM32H7xx_HAL_Driver/Src/stm32h7xx_ll_fmc.c ****   assert_param(IS_FMC_NORSRAM_MEMORY_WIDTH(Init->MemoryDataWidth));
  47              		.loc 1 201 3 view .LVU9
 202:Drivers/STM32H7xx_HAL_Driver/Src/stm32h7xx_ll_fmc.c ****   assert_param(IS_FMC_BURSTMODE(Init->BurstAccessMode));
  48              		.loc 1 202 3 view .LVU10
 203:Drivers/STM32H7xx_HAL_Driver/Src/stm32h7xx_ll_fmc.c ****   assert_param(IS_FMC_WAIT_POLARITY(Init->WaitSignalPolarity));
  49              		.loc 1 203 3 view .LVU11
 204:Drivers/STM32H7xx_HAL_Driver/Src/stm32h7xx_ll_fmc.c ****   assert_param(IS_FMC_WAIT_SIGNAL_ACTIVE(Init->WaitSignalActive));
  50              		.loc 1 204 3 view .LVU12
 205:Drivers/STM32H7xx_HAL_Driver/Src/stm32h7xx_ll_fmc.c ****   assert_param(IS_FMC_WRITE_OPERATION(Init->WriteOperation));
  51              		.loc 1 205 3 view .LVU13
 206:Drivers/STM32H7xx_HAL_Driver/Src/stm32h7xx_ll_fmc.c ****   assert_param(IS_FMC_WAITE_SIGNAL(Init->WaitSignal));
  52              		.loc 1 206 3 view .LVU14
 207:Drivers/STM32H7xx_HAL_Driver/Src/stm32h7xx_ll_fmc.c ****   assert_param(IS_FMC_EXTENDED_MODE(Init->ExtendedMode));
  53              		.loc 1 207 3 view .LVU15
 208:Drivers/STM32H7xx_HAL_Driver/Src/stm32h7xx_ll_fmc.c ****   assert_param(IS_FMC_ASYNWAIT(Init->AsynchronousWait));
  54              		.loc 1 208 3 view .LVU16
 209:Drivers/STM32H7xx_HAL_Driver/Src/stm32h7xx_ll_fmc.c ****   assert_param(IS_FMC_WRITE_BURST(Init->WriteBurst));
  55              		.loc 1 209 3 view .LVU17
 210:Drivers/STM32H7xx_HAL_Driver/Src/stm32h7xx_ll_fmc.c ****   assert_param(IS_FMC_CONTINOUS_CLOCK(Init->ContinuousClock));
  56              		.loc 1 210 3 view .LVU18
 211:Drivers/STM32H7xx_HAL_Driver/Src/stm32h7xx_ll_fmc.c ****   assert_param(IS_FMC_WRITE_FIFO(Init->WriteFifo));
  57              		.loc 1 211 3 view .LVU19
 212:Drivers/STM32H7xx_HAL_Driver/Src/stm32h7xx_ll_fmc.c ****   assert_param(IS_FMC_PAGESIZE(Init->PageSize));
  58              		.loc 1 212 3 view .LVU20
 213:Drivers/STM32H7xx_HAL_Driver/Src/stm32h7xx_ll_fmc.c **** 
 214:Drivers/STM32H7xx_HAL_Driver/Src/stm32h7xx_ll_fmc.c ****   /* Disable NORSRAM Device */
 215:Drivers/STM32H7xx_HAL_Driver/Src/stm32h7xx_ll_fmc.c ****   __FMC_NORSRAM_DISABLE(Device, Init->NSBank);
  59              		.loc 1 215 3 view .LVU21
  60 0002 0A68     		ldr	r2, [r1]
  61 0004 50F82230 		ldr	r3, [r0, r2, lsl #2]
  62 0008 23F00103 		bic	r3, r3, #1
  63 000c 40F82230 		str	r3, [r0, r2, lsl #2]
 216:Drivers/STM32H7xx_HAL_Driver/Src/stm32h7xx_ll_fmc.c **** 
 217:Drivers/STM32H7xx_HAL_Driver/Src/stm32h7xx_ll_fmc.c ****   /* Set NORSRAM device control parameters */
 218:Drivers/STM32H7xx_HAL_Driver/Src/stm32h7xx_ll_fmc.c ****   if (Init->MemoryType == FMC_MEMORY_TYPE_NOR)
  64              		.loc 1 218 3 view .LVU22
  65              		.loc 1 218 11 is_stmt 0 view .LVU23
  66 0010 8B68     		ldr	r3, [r1, #8]
  67              		.loc 1 218 6 view .LVU24
  68 0012 082B     		cmp	r3, #8
ARM GAS  /tmp/ccBBH4Jd.s 			page 6


  69 0014 30D0     		beq	.L7
 219:Drivers/STM32H7xx_HAL_Driver/Src/stm32h7xx_ll_fmc.c ****   {
 220:Drivers/STM32H7xx_HAL_Driver/Src/stm32h7xx_ll_fmc.c ****     flashaccess = FMC_NORSRAM_FLASH_ACCESS_ENABLE;
 221:Drivers/STM32H7xx_HAL_Driver/Src/stm32h7xx_ll_fmc.c ****   }
 222:Drivers/STM32H7xx_HAL_Driver/Src/stm32h7xx_ll_fmc.c ****   else
 223:Drivers/STM32H7xx_HAL_Driver/Src/stm32h7xx_ll_fmc.c ****   {
 224:Drivers/STM32H7xx_HAL_Driver/Src/stm32h7xx_ll_fmc.c ****     flashaccess = FMC_NORSRAM_FLASH_ACCESS_DISABLE;
  70              		.loc 1 224 17 view .LVU25
  71 0016 0024     		movs	r4, #0
  72              	.L2:
  73              	.LVL1:
 225:Drivers/STM32H7xx_HAL_Driver/Src/stm32h7xx_ll_fmc.c ****   }
 226:Drivers/STM32H7xx_HAL_Driver/Src/stm32h7xx_ll_fmc.c **** 
 227:Drivers/STM32H7xx_HAL_Driver/Src/stm32h7xx_ll_fmc.c ****   btcr_reg = (flashaccess                   | \
  74              		.loc 1 227 3 is_stmt 1 view .LVU26
 228:Drivers/STM32H7xx_HAL_Driver/Src/stm32h7xx_ll_fmc.c ****               Init->DataAddressMux          | \
  75              		.loc 1 228 19 is_stmt 0 view .LVU27
  76 0018 4A68     		ldr	r2, [r1, #4]
 227:Drivers/STM32H7xx_HAL_Driver/Src/stm32h7xx_ll_fmc.c ****               Init->DataAddressMux          | \
  77              		.loc 1 227 45 view .LVU28
  78 001a 2243     		orrs	r2, r2, r4
  79              		.loc 1 228 45 view .LVU29
  80 001c 1343     		orrs	r3, r3, r2
 229:Drivers/STM32H7xx_HAL_Driver/Src/stm32h7xx_ll_fmc.c ****               Init->MemoryType              | \
 230:Drivers/STM32H7xx_HAL_Driver/Src/stm32h7xx_ll_fmc.c ****               Init->MemoryDataWidth         | \
  81              		.loc 1 230 19 view .LVU30
  82 001e CA68     		ldr	r2, [r1, #12]
 229:Drivers/STM32H7xx_HAL_Driver/Src/stm32h7xx_ll_fmc.c ****               Init->MemoryType              | \
  83              		.loc 1 229 45 view .LVU31
  84 0020 1343     		orrs	r3, r3, r2
 231:Drivers/STM32H7xx_HAL_Driver/Src/stm32h7xx_ll_fmc.c ****               Init->BurstAccessMode         | \
  85              		.loc 1 231 19 view .LVU32
  86 0022 0A69     		ldr	r2, [r1, #16]
 230:Drivers/STM32H7xx_HAL_Driver/Src/stm32h7xx_ll_fmc.c ****               Init->BurstAccessMode         | \
  87              		.loc 1 230 45 view .LVU33
  88 0024 1343     		orrs	r3, r3, r2
 232:Drivers/STM32H7xx_HAL_Driver/Src/stm32h7xx_ll_fmc.c ****               Init->WaitSignalPolarity      | \
  89              		.loc 1 232 19 view .LVU34
  90 0026 4A69     		ldr	r2, [r1, #20]
 231:Drivers/STM32H7xx_HAL_Driver/Src/stm32h7xx_ll_fmc.c ****               Init->BurstAccessMode         | \
  91              		.loc 1 231 45 view .LVU35
  92 0028 1343     		orrs	r3, r3, r2
 233:Drivers/STM32H7xx_HAL_Driver/Src/stm32h7xx_ll_fmc.c ****               Init->WaitSignalActive        | \
  93              		.loc 1 233 19 view .LVU36
  94 002a 8A69     		ldr	r2, [r1, #24]
 232:Drivers/STM32H7xx_HAL_Driver/Src/stm32h7xx_ll_fmc.c ****               Init->WaitSignalPolarity      | \
  95              		.loc 1 232 45 view .LVU37
  96 002c 1343     		orrs	r3, r3, r2
 234:Drivers/STM32H7xx_HAL_Driver/Src/stm32h7xx_ll_fmc.c ****               Init->WriteOperation          | \
  97              		.loc 1 234 19 view .LVU38
  98 002e CA69     		ldr	r2, [r1, #28]
 233:Drivers/STM32H7xx_HAL_Driver/Src/stm32h7xx_ll_fmc.c ****               Init->WaitSignalActive        | \
  99              		.loc 1 233 45 view .LVU39
 100 0030 1343     		orrs	r3, r3, r2
 235:Drivers/STM32H7xx_HAL_Driver/Src/stm32h7xx_ll_fmc.c ****               Init->WaitSignal              | \
 101              		.loc 1 235 19 view .LVU40
 102 0032 0A6A     		ldr	r2, [r1, #32]
ARM GAS  /tmp/ccBBH4Jd.s 			page 7


 234:Drivers/STM32H7xx_HAL_Driver/Src/stm32h7xx_ll_fmc.c ****               Init->WriteOperation          | \
 103              		.loc 1 234 45 view .LVU41
 104 0034 1343     		orrs	r3, r3, r2
 236:Drivers/STM32H7xx_HAL_Driver/Src/stm32h7xx_ll_fmc.c ****               Init->ExtendedMode            | \
 105              		.loc 1 236 19 view .LVU42
 106 0036 4A6A     		ldr	r2, [r1, #36]
 235:Drivers/STM32H7xx_HAL_Driver/Src/stm32h7xx_ll_fmc.c ****               Init->WaitSignal              | \
 107              		.loc 1 235 45 view .LVU43
 108 0038 1343     		orrs	r3, r3, r2
 237:Drivers/STM32H7xx_HAL_Driver/Src/stm32h7xx_ll_fmc.c ****               Init->AsynchronousWait        | \
 109              		.loc 1 237 19 view .LVU44
 110 003a 8A6A     		ldr	r2, [r1, #40]
 236:Drivers/STM32H7xx_HAL_Driver/Src/stm32h7xx_ll_fmc.c ****               Init->ExtendedMode            | \
 111              		.loc 1 236 45 view .LVU45
 112 003c 1343     		orrs	r3, r3, r2
 238:Drivers/STM32H7xx_HAL_Driver/Src/stm32h7xx_ll_fmc.c ****               Init->WriteBurst);
 113              		.loc 1 238 19 view .LVU46
 114 003e CA6A     		ldr	r2, [r1, #44]
 227:Drivers/STM32H7xx_HAL_Driver/Src/stm32h7xx_ll_fmc.c ****               Init->DataAddressMux          | \
 115              		.loc 1 227 12 view .LVU47
 116 0040 1343     		orrs	r3, r3, r2
 117              	.LVL2:
 239:Drivers/STM32H7xx_HAL_Driver/Src/stm32h7xx_ll_fmc.c **** 
 240:Drivers/STM32H7xx_HAL_Driver/Src/stm32h7xx_ll_fmc.c ****   btcr_reg |= Init->ContinuousClock;
 118              		.loc 1 240 3 is_stmt 1 view .LVU48
 119              		.loc 1 240 19 is_stmt 0 view .LVU49
 120 0042 0A6B     		ldr	r2, [r1, #48]
 121              		.loc 1 240 12 view .LVU50
 122 0044 1343     		orrs	r3, r3, r2
 123              	.LVL3:
 241:Drivers/STM32H7xx_HAL_Driver/Src/stm32h7xx_ll_fmc.c ****   btcr_reg |= Init->WriteFifo;
 124              		.loc 1 241 3 is_stmt 1 view .LVU51
 125              		.loc 1 241 19 is_stmt 0 view .LVU52
 126 0046 4A6B     		ldr	r2, [r1, #52]
 127              		.loc 1 241 12 view .LVU53
 128 0048 1343     		orrs	r3, r3, r2
 129              	.LVL4:
 242:Drivers/STM32H7xx_HAL_Driver/Src/stm32h7xx_ll_fmc.c ****   btcr_reg |= Init->PageSize;
 130              		.loc 1 242 3 is_stmt 1 view .LVU54
 131              		.loc 1 242 19 is_stmt 0 view .LVU55
 132 004a 8A6B     		ldr	r2, [r1, #56]
 133              		.loc 1 242 12 view .LVU56
 134 004c 1343     		orrs	r3, r3, r2
 135              	.LVL5:
 243:Drivers/STM32H7xx_HAL_Driver/Src/stm32h7xx_ll_fmc.c **** 
 244:Drivers/STM32H7xx_HAL_Driver/Src/stm32h7xx_ll_fmc.c ****   mask = (FMC_BCRx_MBKEN                |
 136              		.loc 1 244 3 is_stmt 1 view .LVU57
 245:Drivers/STM32H7xx_HAL_Driver/Src/stm32h7xx_ll_fmc.c ****           FMC_BCRx_MUXEN                |
 246:Drivers/STM32H7xx_HAL_Driver/Src/stm32h7xx_ll_fmc.c ****           FMC_BCRx_MTYP                 |
 247:Drivers/STM32H7xx_HAL_Driver/Src/stm32h7xx_ll_fmc.c ****           FMC_BCRx_MWID                 |
 248:Drivers/STM32H7xx_HAL_Driver/Src/stm32h7xx_ll_fmc.c ****           FMC_BCRx_FACCEN               |
 249:Drivers/STM32H7xx_HAL_Driver/Src/stm32h7xx_ll_fmc.c ****           FMC_BCRx_BURSTEN              |
 250:Drivers/STM32H7xx_HAL_Driver/Src/stm32h7xx_ll_fmc.c ****           FMC_BCRx_WAITPOL              |
 251:Drivers/STM32H7xx_HAL_Driver/Src/stm32h7xx_ll_fmc.c ****           FMC_BCRx_WAITCFG              |
 252:Drivers/STM32H7xx_HAL_Driver/Src/stm32h7xx_ll_fmc.c ****           FMC_BCRx_WREN                 |
 253:Drivers/STM32H7xx_HAL_Driver/Src/stm32h7xx_ll_fmc.c ****           FMC_BCRx_WAITEN               |
 254:Drivers/STM32H7xx_HAL_Driver/Src/stm32h7xx_ll_fmc.c ****           FMC_BCRx_EXTMOD               |
ARM GAS  /tmp/ccBBH4Jd.s 			page 8


 255:Drivers/STM32H7xx_HAL_Driver/Src/stm32h7xx_ll_fmc.c ****           FMC_BCRx_ASYNCWAIT            |
 256:Drivers/STM32H7xx_HAL_Driver/Src/stm32h7xx_ll_fmc.c ****           FMC_BCRx_CBURSTRW);
 257:Drivers/STM32H7xx_HAL_Driver/Src/stm32h7xx_ll_fmc.c **** 
 258:Drivers/STM32H7xx_HAL_Driver/Src/stm32h7xx_ll_fmc.c ****   mask |= FMC_BCR1_CCLKEN;
 137              		.loc 1 258 3 view .LVU58
 259:Drivers/STM32H7xx_HAL_Driver/Src/stm32h7xx_ll_fmc.c ****   mask |= FMC_BCR1_WFDIS;
 138              		.loc 1 259 3 view .LVU59
 260:Drivers/STM32H7xx_HAL_Driver/Src/stm32h7xx_ll_fmc.c ****   mask |= FMC_BCRx_CPSIZE;
 139              		.loc 1 260 3 view .LVU60
 261:Drivers/STM32H7xx_HAL_Driver/Src/stm32h7xx_ll_fmc.c **** 
 262:Drivers/STM32H7xx_HAL_Driver/Src/stm32h7xx_ll_fmc.c ****   MODIFY_REG(Device->BTCR[Init->NSBank], mask, btcr_reg);
 140              		.loc 1 262 3 view .LVU61
 141 004e 0C68     		ldr	r4, [r1]
 142              	.LVL6:
 143              		.loc 1 262 3 is_stmt 0 view .LVU62
 144 0050 50F82450 		ldr	r5, [r0, r4, lsl #2]
 145 0054 0E4A     		ldr	r2, .L9
 146 0056 2A40     		ands	r2, r2, r5
 147 0058 1A43     		orrs	r2, r2, r3
 148 005a 40F82420 		str	r2, [r0, r4, lsl #2]
 263:Drivers/STM32H7xx_HAL_Driver/Src/stm32h7xx_ll_fmc.c **** 
 264:Drivers/STM32H7xx_HAL_Driver/Src/stm32h7xx_ll_fmc.c ****   /* Configure synchronous mode when Continuous clock is enabled for bank2..4 */
 265:Drivers/STM32H7xx_HAL_Driver/Src/stm32h7xx_ll_fmc.c ****   if ((Init->ContinuousClock == FMC_CONTINUOUS_CLOCK_SYNC_ASYNC) && (Init->NSBank != FMC_NORSRAM_BA
 149              		.loc 1 265 3 is_stmt 1 view .LVU63
 150              		.loc 1 265 12 is_stmt 0 view .LVU64
 151 005e 0B6B     		ldr	r3, [r1, #48]
 152              	.LVL7:
 153              		.loc 1 265 6 view .LVU65
 154 0060 B3F5801F 		cmp	r3, #1048576
 155 0064 0AD0     		beq	.L8
 156              	.L3:
 266:Drivers/STM32H7xx_HAL_Driver/Src/stm32h7xx_ll_fmc.c ****   {
 267:Drivers/STM32H7xx_HAL_Driver/Src/stm32h7xx_ll_fmc.c ****     MODIFY_REG(Device->BTCR[FMC_NORSRAM_BANK1], FMC_BCR1_CCLKEN, Init->ContinuousClock);
 268:Drivers/STM32H7xx_HAL_Driver/Src/stm32h7xx_ll_fmc.c ****   }
 269:Drivers/STM32H7xx_HAL_Driver/Src/stm32h7xx_ll_fmc.c **** 
 270:Drivers/STM32H7xx_HAL_Driver/Src/stm32h7xx_ll_fmc.c ****   if (Init->NSBank != FMC_NORSRAM_BANK1)
 157              		.loc 1 270 3 is_stmt 1 view .LVU66
 158              		.loc 1 270 11 is_stmt 0 view .LVU67
 159 0066 0B68     		ldr	r3, [r1]
 160              		.loc 1 270 6 view .LVU68
 161 0068 1BB1     		cbz	r3, .L4
 271:Drivers/STM32H7xx_HAL_Driver/Src/stm32h7xx_ll_fmc.c ****   {
 272:Drivers/STM32H7xx_HAL_Driver/Src/stm32h7xx_ll_fmc.c ****     /* Configure Write FIFO mode when Write Fifo is enabled for bank2..4 */
 273:Drivers/STM32H7xx_HAL_Driver/Src/stm32h7xx_ll_fmc.c ****     SET_BIT(Device->BTCR[FMC_NORSRAM_BANK1], (uint32_t)(Init->WriteFifo));
 162              		.loc 1 273 5 is_stmt 1 view .LVU69
 163 006a 0368     		ldr	r3, [r0]
 164 006c 4A6B     		ldr	r2, [r1, #52]
 165 006e 1343     		orrs	r3, r3, r2
 166 0070 0360     		str	r3, [r0]
 167              	.L4:
 274:Drivers/STM32H7xx_HAL_Driver/Src/stm32h7xx_ll_fmc.c ****   }
 275:Drivers/STM32H7xx_HAL_Driver/Src/stm32h7xx_ll_fmc.c **** 
 276:Drivers/STM32H7xx_HAL_Driver/Src/stm32h7xx_ll_fmc.c ****   return HAL_OK;
 168              		.loc 1 276 3 view .LVU70
 277:Drivers/STM32H7xx_HAL_Driver/Src/stm32h7xx_ll_fmc.c **** }
 169              		.loc 1 277 1 is_stmt 0 view .LVU71
 170 0072 0020     		movs	r0, #0
ARM GAS  /tmp/ccBBH4Jd.s 			page 9


 171              	.LVL8:
 172              		.loc 1 277 1 view .LVU72
 173 0074 30BC     		pop	{r4, r5}
 174              	.LCFI1:
 175              		.cfi_remember_state
 176              		.cfi_restore 5
 177              		.cfi_restore 4
 178              		.cfi_def_cfa_offset 0
 179 0076 7047     		bx	lr
 180              	.LVL9:
 181              	.L7:
 182              	.LCFI2:
 183              		.cfi_restore_state
 220:Drivers/STM32H7xx_HAL_Driver/Src/stm32h7xx_ll_fmc.c ****   }
 184              		.loc 1 220 17 view .LVU73
 185 0078 4024     		movs	r4, #64
 186 007a CDE7     		b	.L2
 187              	.LVL10:
 188              	.L8:
 265:Drivers/STM32H7xx_HAL_Driver/Src/stm32h7xx_ll_fmc.c ****   {
 189              		.loc 1 265 74 discriminator 1 view .LVU74
 190 007c 0A68     		ldr	r2, [r1]
 265:Drivers/STM32H7xx_HAL_Driver/Src/stm32h7xx_ll_fmc.c ****   {
 191              		.loc 1 265 66 discriminator 1 view .LVU75
 192 007e 002A     		cmp	r2, #0
 193 0080 F1D0     		beq	.L3
 267:Drivers/STM32H7xx_HAL_Driver/Src/stm32h7xx_ll_fmc.c ****   }
 194              		.loc 1 267 5 is_stmt 1 view .LVU76
 195 0082 0268     		ldr	r2, [r0]
 196 0084 22F48012 		bic	r2, r2, #1048576
 197 0088 1343     		orrs	r3, r3, r2
 198 008a 0360     		str	r3, [r0]
 199 008c EBE7     		b	.L3
 200              	.L10:
 201 008e 00BF     		.align	2
 202              	.L9:
 203 0090 8004C0FF 		.word	-4193152
 204              		.cfi_endproc
 205              	.LFE144:
 207              		.section	.text.FMC_NORSRAM_DeInit,"ax",%progbits
 208              		.align	1
 209              		.global	FMC_NORSRAM_DeInit
 210              		.syntax unified
 211              		.thumb
 212              		.thumb_func
 214              	FMC_NORSRAM_DeInit:
 215              	.LVL11:
 216              	.LFB145:
 278:Drivers/STM32H7xx_HAL_Driver/Src/stm32h7xx_ll_fmc.c **** 
 279:Drivers/STM32H7xx_HAL_Driver/Src/stm32h7xx_ll_fmc.c **** /**
 280:Drivers/STM32H7xx_HAL_Driver/Src/stm32h7xx_ll_fmc.c ****   * @brief  DeInitialize the FMC_NORSRAM peripheral
 281:Drivers/STM32H7xx_HAL_Driver/Src/stm32h7xx_ll_fmc.c ****   * @param  Device Pointer to NORSRAM device instance
 282:Drivers/STM32H7xx_HAL_Driver/Src/stm32h7xx_ll_fmc.c ****   * @param  ExDevice Pointer to NORSRAM extended mode device instance
 283:Drivers/STM32H7xx_HAL_Driver/Src/stm32h7xx_ll_fmc.c ****   * @param  Bank NORSRAM bank number
 284:Drivers/STM32H7xx_HAL_Driver/Src/stm32h7xx_ll_fmc.c ****   * @retval HAL status
 285:Drivers/STM32H7xx_HAL_Driver/Src/stm32h7xx_ll_fmc.c ****   */
 286:Drivers/STM32H7xx_HAL_Driver/Src/stm32h7xx_ll_fmc.c **** HAL_StatusTypeDef FMC_NORSRAM_DeInit(FMC_NORSRAM_TypeDef *Device,
ARM GAS  /tmp/ccBBH4Jd.s 			page 10


 287:Drivers/STM32H7xx_HAL_Driver/Src/stm32h7xx_ll_fmc.c ****                                      FMC_NORSRAM_EXTENDED_TypeDef *ExDevice, uint32_t Bank)
 288:Drivers/STM32H7xx_HAL_Driver/Src/stm32h7xx_ll_fmc.c **** {
 217              		.loc 1 288 1 view -0
 218              		.cfi_startproc
 219              		@ args = 0, pretend = 0, frame = 0
 220              		@ frame_needed = 0, uses_anonymous_args = 0
 221              		@ link register save eliminated.
 289:Drivers/STM32H7xx_HAL_Driver/Src/stm32h7xx_ll_fmc.c ****   /* Check the parameters */
 290:Drivers/STM32H7xx_HAL_Driver/Src/stm32h7xx_ll_fmc.c ****   assert_param(IS_FMC_NORSRAM_DEVICE(Device));
 222              		.loc 1 290 3 view .LVU78
 291:Drivers/STM32H7xx_HAL_Driver/Src/stm32h7xx_ll_fmc.c ****   assert_param(IS_FMC_NORSRAM_EXTENDED_DEVICE(ExDevice));
 223              		.loc 1 291 3 view .LVU79
 292:Drivers/STM32H7xx_HAL_Driver/Src/stm32h7xx_ll_fmc.c ****   assert_param(IS_FMC_NORSRAM_BANK(Bank));
 224              		.loc 1 292 3 view .LVU80
 293:Drivers/STM32H7xx_HAL_Driver/Src/stm32h7xx_ll_fmc.c **** 
 294:Drivers/STM32H7xx_HAL_Driver/Src/stm32h7xx_ll_fmc.c ****   /* Disable the FMC_NORSRAM device */
 295:Drivers/STM32H7xx_HAL_Driver/Src/stm32h7xx_ll_fmc.c ****   __FMC_NORSRAM_DISABLE(Device, Bank);
 225              		.loc 1 295 3 view .LVU81
 226 0000 50F82230 		ldr	r3, [r0, r2, lsl #2]
 227 0004 23F00103 		bic	r3, r3, #1
 228 0008 40F82230 		str	r3, [r0, r2, lsl #2]
 296:Drivers/STM32H7xx_HAL_Driver/Src/stm32h7xx_ll_fmc.c **** 
 297:Drivers/STM32H7xx_HAL_Driver/Src/stm32h7xx_ll_fmc.c ****   /* De-initialize the FMC_NORSRAM device */
 298:Drivers/STM32H7xx_HAL_Driver/Src/stm32h7xx_ll_fmc.c ****   /* FMC_NORSRAM_BANK1 */
 299:Drivers/STM32H7xx_HAL_Driver/Src/stm32h7xx_ll_fmc.c ****   if (Bank == FMC_NORSRAM_BANK1)
 229              		.loc 1 299 3 view .LVU82
 230              		.loc 1 299 6 is_stmt 0 view .LVU83
 231 000c 6AB9     		cbnz	r2, .L12
 300:Drivers/STM32H7xx_HAL_Driver/Src/stm32h7xx_ll_fmc.c ****   {
 301:Drivers/STM32H7xx_HAL_Driver/Src/stm32h7xx_ll_fmc.c ****     Device->BTCR[Bank] = 0x000030DBU;
 232              		.loc 1 301 5 is_stmt 1 view .LVU84
 233              		.loc 1 301 24 is_stmt 0 view .LVU85
 234 000e 43F2DB03 		movw	r3, #12507
 235 0012 40F82230 		str	r3, [r0, r2, lsl #2]
 236              	.L13:
 302:Drivers/STM32H7xx_HAL_Driver/Src/stm32h7xx_ll_fmc.c ****   }
 303:Drivers/STM32H7xx_HAL_Driver/Src/stm32h7xx_ll_fmc.c ****   /* FMC_NORSRAM_BANK2, FMC_NORSRAM_BANK3 or FMC_NORSRAM_BANK4 */
 304:Drivers/STM32H7xx_HAL_Driver/Src/stm32h7xx_ll_fmc.c ****   else
 305:Drivers/STM32H7xx_HAL_Driver/Src/stm32h7xx_ll_fmc.c ****   {
 306:Drivers/STM32H7xx_HAL_Driver/Src/stm32h7xx_ll_fmc.c ****     Device->BTCR[Bank] = 0x000030D2U;
 307:Drivers/STM32H7xx_HAL_Driver/Src/stm32h7xx_ll_fmc.c ****   }
 308:Drivers/STM32H7xx_HAL_Driver/Src/stm32h7xx_ll_fmc.c **** 
 309:Drivers/STM32H7xx_HAL_Driver/Src/stm32h7xx_ll_fmc.c ****   Device->BTCR[Bank + 1U] = 0x0FFFFFFFU;
 237              		.loc 1 309 3 is_stmt 1 view .LVU86
 238              		.loc 1 309 21 is_stmt 0 view .LVU87
 239 0016 02F1010C 		add	ip, r2, #1
 240              		.loc 1 309 27 view .LVU88
 241 001a 6FF07043 		mvn	r3, #-268435456
 242 001e 40F82C30 		str	r3, [r0, ip, lsl #2]
 310:Drivers/STM32H7xx_HAL_Driver/Src/stm32h7xx_ll_fmc.c ****   ExDevice->BWTR[Bank]   = 0x0FFFFFFFU;
 243              		.loc 1 310 3 is_stmt 1 view .LVU89
 244              		.loc 1 310 26 is_stmt 0 view .LVU90
 245 0022 41F82230 		str	r3, [r1, r2, lsl #2]
 311:Drivers/STM32H7xx_HAL_Driver/Src/stm32h7xx_ll_fmc.c **** 
 312:Drivers/STM32H7xx_HAL_Driver/Src/stm32h7xx_ll_fmc.c ****   return HAL_OK;
 246              		.loc 1 312 3 is_stmt 1 view .LVU91
 313:Drivers/STM32H7xx_HAL_Driver/Src/stm32h7xx_ll_fmc.c **** }
ARM GAS  /tmp/ccBBH4Jd.s 			page 11


 247              		.loc 1 313 1 is_stmt 0 view .LVU92
 248 0026 0020     		movs	r0, #0
 249              	.LVL12:
 250              		.loc 1 313 1 view .LVU93
 251 0028 7047     		bx	lr
 252              	.LVL13:
 253              	.L12:
 306:Drivers/STM32H7xx_HAL_Driver/Src/stm32h7xx_ll_fmc.c ****   }
 254              		.loc 1 306 5 is_stmt 1 view .LVU94
 306:Drivers/STM32H7xx_HAL_Driver/Src/stm32h7xx_ll_fmc.c ****   }
 255              		.loc 1 306 24 is_stmt 0 view .LVU95
 256 002a 43F2D203 		movw	r3, #12498
 257 002e 40F82230 		str	r3, [r0, r2, lsl #2]
 258 0032 F0E7     		b	.L13
 259              		.cfi_endproc
 260              	.LFE145:
 262              		.section	.text.FMC_NORSRAM_Timing_Init,"ax",%progbits
 263              		.align	1
 264              		.global	FMC_NORSRAM_Timing_Init
 265              		.syntax unified
 266              		.thumb
 267              		.thumb_func
 269              	FMC_NORSRAM_Timing_Init:
 270              	.LVL14:
 271              	.LFB146:
 314:Drivers/STM32H7xx_HAL_Driver/Src/stm32h7xx_ll_fmc.c **** 
 315:Drivers/STM32H7xx_HAL_Driver/Src/stm32h7xx_ll_fmc.c **** /**
 316:Drivers/STM32H7xx_HAL_Driver/Src/stm32h7xx_ll_fmc.c ****   * @brief  Initialize the FMC_NORSRAM Timing according to the specified
 317:Drivers/STM32H7xx_HAL_Driver/Src/stm32h7xx_ll_fmc.c ****   *         parameters in the FMC_NORSRAM_TimingTypeDef
 318:Drivers/STM32H7xx_HAL_Driver/Src/stm32h7xx_ll_fmc.c ****   * @param  Device Pointer to NORSRAM device instance
 319:Drivers/STM32H7xx_HAL_Driver/Src/stm32h7xx_ll_fmc.c ****   * @param  Timing Pointer to NORSRAM Timing structure
 320:Drivers/STM32H7xx_HAL_Driver/Src/stm32h7xx_ll_fmc.c ****   * @param  Bank NORSRAM bank number
 321:Drivers/STM32H7xx_HAL_Driver/Src/stm32h7xx_ll_fmc.c ****   * @retval HAL status
 322:Drivers/STM32H7xx_HAL_Driver/Src/stm32h7xx_ll_fmc.c ****   */
 323:Drivers/STM32H7xx_HAL_Driver/Src/stm32h7xx_ll_fmc.c **** HAL_StatusTypeDef FMC_NORSRAM_Timing_Init(FMC_NORSRAM_TypeDef *Device,
 324:Drivers/STM32H7xx_HAL_Driver/Src/stm32h7xx_ll_fmc.c ****                                           FMC_NORSRAM_TimingTypeDef *Timing, uint32_t Bank)
 325:Drivers/STM32H7xx_HAL_Driver/Src/stm32h7xx_ll_fmc.c **** {
 272              		.loc 1 325 1 is_stmt 1 view -0
 273              		.cfi_startproc
 274              		@ args = 0, pretend = 0, frame = 0
 275              		@ frame_needed = 0, uses_anonymous_args = 0
 276              		.loc 1 325 1 is_stmt 0 view .LVU97
 277 0000 10B5     		push	{r4, lr}
 278              	.LCFI3:
 279              		.cfi_def_cfa_offset 8
 280              		.cfi_offset 4, -8
 281              		.cfi_offset 14, -4
 326:Drivers/STM32H7xx_HAL_Driver/Src/stm32h7xx_ll_fmc.c ****   uint32_t tmpr;
 282              		.loc 1 326 3 is_stmt 1 view .LVU98
 327:Drivers/STM32H7xx_HAL_Driver/Src/stm32h7xx_ll_fmc.c **** 
 328:Drivers/STM32H7xx_HAL_Driver/Src/stm32h7xx_ll_fmc.c ****   /* Check the parameters */
 329:Drivers/STM32H7xx_HAL_Driver/Src/stm32h7xx_ll_fmc.c ****   assert_param(IS_FMC_NORSRAM_DEVICE(Device));
 283              		.loc 1 329 3 view .LVU99
 330:Drivers/STM32H7xx_HAL_Driver/Src/stm32h7xx_ll_fmc.c ****   assert_param(IS_FMC_ADDRESS_SETUP_TIME(Timing->AddressSetupTime));
 284              		.loc 1 330 3 view .LVU100
 331:Drivers/STM32H7xx_HAL_Driver/Src/stm32h7xx_ll_fmc.c ****   assert_param(IS_FMC_ADDRESS_HOLD_TIME(Timing->AddressHoldTime));
 285              		.loc 1 331 3 view .LVU101
ARM GAS  /tmp/ccBBH4Jd.s 			page 12


 332:Drivers/STM32H7xx_HAL_Driver/Src/stm32h7xx_ll_fmc.c ****   assert_param(IS_FMC_DATASETUP_TIME(Timing->DataSetupTime));
 286              		.loc 1 332 3 view .LVU102
 333:Drivers/STM32H7xx_HAL_Driver/Src/stm32h7xx_ll_fmc.c ****   assert_param(IS_FMC_TURNAROUND_TIME(Timing->BusTurnAroundDuration));
 287              		.loc 1 333 3 view .LVU103
 334:Drivers/STM32H7xx_HAL_Driver/Src/stm32h7xx_ll_fmc.c ****   assert_param(IS_FMC_CLK_DIV(Timing->CLKDivision));
 288              		.loc 1 334 3 view .LVU104
 335:Drivers/STM32H7xx_HAL_Driver/Src/stm32h7xx_ll_fmc.c ****   assert_param(IS_FMC_DATA_LATENCY(Timing->DataLatency));
 289              		.loc 1 335 3 view .LVU105
 336:Drivers/STM32H7xx_HAL_Driver/Src/stm32h7xx_ll_fmc.c ****   assert_param(IS_FMC_ACCESS_MODE(Timing->AccessMode));
 290              		.loc 1 336 3 view .LVU106
 337:Drivers/STM32H7xx_HAL_Driver/Src/stm32h7xx_ll_fmc.c ****   assert_param(IS_FMC_NORSRAM_BANK(Bank));
 291              		.loc 1 337 3 view .LVU107
 338:Drivers/STM32H7xx_HAL_Driver/Src/stm32h7xx_ll_fmc.c **** 
 339:Drivers/STM32H7xx_HAL_Driver/Src/stm32h7xx_ll_fmc.c ****   /* Set FMC_NORSRAM device timing parameters */
 340:Drivers/STM32H7xx_HAL_Driver/Src/stm32h7xx_ll_fmc.c ****   MODIFY_REG(Device->BTCR[Bank + 1U], BTR_CLEAR_MASK, (Timing->AddressSetupTime                    
 292              		.loc 1 340 3 view .LVU108
 293 0002 0132     		adds	r2, r2, #1
 294              	.LVL15:
 295              		.loc 1 340 3 is_stmt 0 view .LVU109
 296 0004 50F82230 		ldr	r3, [r0, r2, lsl #2]
 297 0008 03F0404C 		and	ip, r3, #-1073741824
 298 000c 0B68     		ldr	r3, [r1]
 299 000e 4C68     		ldr	r4, [r1, #4]
 300 0010 43EA0413 		orr	r3, r3, r4, lsl #4
 301 0014 8C68     		ldr	r4, [r1, #8]
 302 0016 43EA0423 		orr	r3, r3, r4, lsl #8
 303 001a CC68     		ldr	r4, [r1, #12]
 304 001c 43EA0443 		orr	r3, r3, r4, lsl #16
 305 0020 0C69     		ldr	r4, [r1, #16]
 306 0022 04F1FF3E 		add	lr, r4, #-1
 307 0026 43EA0E53 		orr	r3, r3, lr, lsl #20
 308 002a 4C69     		ldr	r4, [r1, #20]
 309 002c A4F1020E 		sub	lr, r4, #2
 310 0030 43EA0E63 		orr	r3, r3, lr, lsl #24
 311 0034 8C69     		ldr	r4, [r1, #24]
 312 0036 2343     		orrs	r3, r3, r4
 313 0038 4CEA0303 		orr	r3, ip, r3
 314 003c 40F82230 		str	r3, [r0, r2, lsl #2]
 341:Drivers/STM32H7xx_HAL_Driver/Src/stm32h7xx_ll_fmc.c ****                                                        ((Timing->AddressHoldTime)        << FMC_BTR
 342:Drivers/STM32H7xx_HAL_Driver/Src/stm32h7xx_ll_fmc.c ****                                                        ((Timing->DataSetupTime)          << FMC_BTR
 343:Drivers/STM32H7xx_HAL_Driver/Src/stm32h7xx_ll_fmc.c ****                                                        ((Timing->BusTurnAroundDuration)  << FMC_BTR
 344:Drivers/STM32H7xx_HAL_Driver/Src/stm32h7xx_ll_fmc.c ****                                                        (((Timing->CLKDivision) - 1U)     << FMC_BTR
 345:Drivers/STM32H7xx_HAL_Driver/Src/stm32h7xx_ll_fmc.c ****                                                        (((Timing->DataLatency) - 2U)     << FMC_BTR
 346:Drivers/STM32H7xx_HAL_Driver/Src/stm32h7xx_ll_fmc.c ****                                                        (Timing->AccessMode)));
 347:Drivers/STM32H7xx_HAL_Driver/Src/stm32h7xx_ll_fmc.c **** 
 348:Drivers/STM32H7xx_HAL_Driver/Src/stm32h7xx_ll_fmc.c ****   /* Configure Clock division value (in NORSRAM bank 1) when continuous clock is enabled */
 349:Drivers/STM32H7xx_HAL_Driver/Src/stm32h7xx_ll_fmc.c ****   if (HAL_IS_BIT_SET(Device->BTCR[FMC_NORSRAM_BANK1], FMC_BCR1_CCLKEN))
 315              		.loc 1 349 3 is_stmt 1 view .LVU110
 316              		.loc 1 349 7 is_stmt 0 view .LVU111
 317 0040 0368     		ldr	r3, [r0]
 318              		.loc 1 349 6 view .LVU112
 319 0042 13F4801F 		tst	r3, #1048576
 320 0046 0BD0     		beq	.L15
 350:Drivers/STM32H7xx_HAL_Driver/Src/stm32h7xx_ll_fmc.c ****   {
 351:Drivers/STM32H7xx_HAL_Driver/Src/stm32h7xx_ll_fmc.c ****     tmpr = (uint32_t)(Device->BTCR[FMC_NORSRAM_BANK1 + 1U] & ~((0x0FU) << FMC_BTRx_CLKDIV_Pos));
 321              		.loc 1 351 5 is_stmt 1 view .LVU113
 322              		.loc 1 351 35 is_stmt 0 view .LVU114
ARM GAS  /tmp/ccBBH4Jd.s 			page 13


 323 0048 4368     		ldr	r3, [r0, #4]
 324              		.loc 1 351 10 view .LVU115
 325 004a 23F47003 		bic	r3, r3, #15728640
 326              	.LVL16:
 352:Drivers/STM32H7xx_HAL_Driver/Src/stm32h7xx_ll_fmc.c ****     tmpr |= (uint32_t)(((Timing->CLKDivision) - 1U) << FMC_BTRx_CLKDIV_Pos);
 327              		.loc 1 352 5 is_stmt 1 view .LVU116
 328              		.loc 1 352 32 is_stmt 0 view .LVU117
 329 004e 0A69     		ldr	r2, [r1, #16]
 330              	.LVL17:
 331              		.loc 1 352 47 view .LVU118
 332 0050 013A     		subs	r2, r2, #1
 333              		.loc 1 352 10 view .LVU119
 334 0052 43EA0252 		orr	r2, r3, r2, lsl #20
 335              	.LVL18:
 353:Drivers/STM32H7xx_HAL_Driver/Src/stm32h7xx_ll_fmc.c ****     MODIFY_REG(Device->BTCR[FMC_NORSRAM_BANK1 + 1U], FMC_BTRx_CLKDIV, tmpr);
 336              		.loc 1 353 5 is_stmt 1 view .LVU120
 337 0056 4368     		ldr	r3, [r0, #4]
 338 0058 23F47003 		bic	r3, r3, #15728640
 339 005c 1343     		orrs	r3, r3, r2
 340 005e 4360     		str	r3, [r0, #4]
 341              	.LVL19:
 342              	.L15:
 354:Drivers/STM32H7xx_HAL_Driver/Src/stm32h7xx_ll_fmc.c ****   }
 355:Drivers/STM32H7xx_HAL_Driver/Src/stm32h7xx_ll_fmc.c **** 
 356:Drivers/STM32H7xx_HAL_Driver/Src/stm32h7xx_ll_fmc.c ****   return HAL_OK;
 343              		.loc 1 356 3 view .LVU121
 357:Drivers/STM32H7xx_HAL_Driver/Src/stm32h7xx_ll_fmc.c **** }
 344              		.loc 1 357 1 is_stmt 0 view .LVU122
 345 0060 0020     		movs	r0, #0
 346              	.LVL20:
 347              		.loc 1 357 1 view .LVU123
 348 0062 10BD     		pop	{r4, pc}
 349              		.cfi_endproc
 350              	.LFE146:
 352              		.section	.text.FMC_NORSRAM_Extended_Timing_Init,"ax",%progbits
 353              		.align	1
 354              		.global	FMC_NORSRAM_Extended_Timing_Init
 355              		.syntax unified
 356              		.thumb
 357              		.thumb_func
 359              	FMC_NORSRAM_Extended_Timing_Init:
 360              	.LVL21:
 361              	.LFB147:
 358:Drivers/STM32H7xx_HAL_Driver/Src/stm32h7xx_ll_fmc.c **** 
 359:Drivers/STM32H7xx_HAL_Driver/Src/stm32h7xx_ll_fmc.c **** /**
 360:Drivers/STM32H7xx_HAL_Driver/Src/stm32h7xx_ll_fmc.c ****   * @brief  Initialize the FMC_NORSRAM Extended mode Timing according to the specified
 361:Drivers/STM32H7xx_HAL_Driver/Src/stm32h7xx_ll_fmc.c ****   *         parameters in the FMC_NORSRAM_TimingTypeDef
 362:Drivers/STM32H7xx_HAL_Driver/Src/stm32h7xx_ll_fmc.c ****   * @param  Device Pointer to NORSRAM device instance
 363:Drivers/STM32H7xx_HAL_Driver/Src/stm32h7xx_ll_fmc.c ****   * @param  Timing Pointer to NORSRAM Timing structure
 364:Drivers/STM32H7xx_HAL_Driver/Src/stm32h7xx_ll_fmc.c ****   * @param  Bank NORSRAM bank number
 365:Drivers/STM32H7xx_HAL_Driver/Src/stm32h7xx_ll_fmc.c ****   * @param  ExtendedMode FMC Extended Mode
 366:Drivers/STM32H7xx_HAL_Driver/Src/stm32h7xx_ll_fmc.c ****   *          This parameter can be one of the following values:
 367:Drivers/STM32H7xx_HAL_Driver/Src/stm32h7xx_ll_fmc.c ****   *            @arg FMC_EXTENDED_MODE_DISABLE
 368:Drivers/STM32H7xx_HAL_Driver/Src/stm32h7xx_ll_fmc.c ****   *            @arg FMC_EXTENDED_MODE_ENABLE
 369:Drivers/STM32H7xx_HAL_Driver/Src/stm32h7xx_ll_fmc.c ****   * @retval HAL status
 370:Drivers/STM32H7xx_HAL_Driver/Src/stm32h7xx_ll_fmc.c ****   */
 371:Drivers/STM32H7xx_HAL_Driver/Src/stm32h7xx_ll_fmc.c **** HAL_StatusTypeDef FMC_NORSRAM_Extended_Timing_Init(FMC_NORSRAM_EXTENDED_TypeDef *Device,
ARM GAS  /tmp/ccBBH4Jd.s 			page 14


 372:Drivers/STM32H7xx_HAL_Driver/Src/stm32h7xx_ll_fmc.c ****                                                    FMC_NORSRAM_TimingTypeDef *Timing, uint32_t Bank
 373:Drivers/STM32H7xx_HAL_Driver/Src/stm32h7xx_ll_fmc.c ****                                                    uint32_t ExtendedMode)
 374:Drivers/STM32H7xx_HAL_Driver/Src/stm32h7xx_ll_fmc.c **** {
 362              		.loc 1 374 1 is_stmt 1 view -0
 363              		.cfi_startproc
 364              		@ args = 0, pretend = 0, frame = 0
 365              		@ frame_needed = 0, uses_anonymous_args = 0
 366              		@ link register save eliminated.
 375:Drivers/STM32H7xx_HAL_Driver/Src/stm32h7xx_ll_fmc.c ****   /* Check the parameters */
 376:Drivers/STM32H7xx_HAL_Driver/Src/stm32h7xx_ll_fmc.c ****   assert_param(IS_FMC_EXTENDED_MODE(ExtendedMode));
 367              		.loc 1 376 3 view .LVU125
 377:Drivers/STM32H7xx_HAL_Driver/Src/stm32h7xx_ll_fmc.c **** 
 378:Drivers/STM32H7xx_HAL_Driver/Src/stm32h7xx_ll_fmc.c ****   /* Set NORSRAM device timing register for write configuration, if extended mode is used */
 379:Drivers/STM32H7xx_HAL_Driver/Src/stm32h7xx_ll_fmc.c ****   if (ExtendedMode == FMC_EXTENDED_MODE_ENABLE)
 368              		.loc 1 379 3 view .LVU126
 369              		.loc 1 379 6 is_stmt 0 view .LVU127
 370 0000 B3F5804F 		cmp	r3, #16384
 371 0004 05D0     		beq	.L24
 380:Drivers/STM32H7xx_HAL_Driver/Src/stm32h7xx_ll_fmc.c ****   {
 381:Drivers/STM32H7xx_HAL_Driver/Src/stm32h7xx_ll_fmc.c ****     /* Check the parameters */
 382:Drivers/STM32H7xx_HAL_Driver/Src/stm32h7xx_ll_fmc.c ****     assert_param(IS_FMC_NORSRAM_EXTENDED_DEVICE(Device));
 383:Drivers/STM32H7xx_HAL_Driver/Src/stm32h7xx_ll_fmc.c ****     assert_param(IS_FMC_ADDRESS_SETUP_TIME(Timing->AddressSetupTime));
 384:Drivers/STM32H7xx_HAL_Driver/Src/stm32h7xx_ll_fmc.c ****     assert_param(IS_FMC_ADDRESS_HOLD_TIME(Timing->AddressHoldTime));
 385:Drivers/STM32H7xx_HAL_Driver/Src/stm32h7xx_ll_fmc.c ****     assert_param(IS_FMC_DATASETUP_TIME(Timing->DataSetupTime));
 386:Drivers/STM32H7xx_HAL_Driver/Src/stm32h7xx_ll_fmc.c ****     assert_param(IS_FMC_TURNAROUND_TIME(Timing->BusTurnAroundDuration));
 387:Drivers/STM32H7xx_HAL_Driver/Src/stm32h7xx_ll_fmc.c ****     assert_param(IS_FMC_ACCESS_MODE(Timing->AccessMode));
 388:Drivers/STM32H7xx_HAL_Driver/Src/stm32h7xx_ll_fmc.c ****     assert_param(IS_FMC_NORSRAM_BANK(Bank));
 389:Drivers/STM32H7xx_HAL_Driver/Src/stm32h7xx_ll_fmc.c **** 
 390:Drivers/STM32H7xx_HAL_Driver/Src/stm32h7xx_ll_fmc.c ****     /* Set NORSRAM device timing register for write configuration, if extended mode is used */
 391:Drivers/STM32H7xx_HAL_Driver/Src/stm32h7xx_ll_fmc.c ****     MODIFY_REG(Device->BWTR[Bank], BWTR_CLEAR_MASK, (Timing->AddressSetupTime                      
 392:Drivers/STM32H7xx_HAL_Driver/Src/stm32h7xx_ll_fmc.c ****                                                      ((Timing->AddressHoldTime)        << FMC_BWTRx
 393:Drivers/STM32H7xx_HAL_Driver/Src/stm32h7xx_ll_fmc.c ****                                                      ((Timing->DataSetupTime)          << FMC_BWTRx
 394:Drivers/STM32H7xx_HAL_Driver/Src/stm32h7xx_ll_fmc.c ****                                                      Timing->AccessMode                            
 395:Drivers/STM32H7xx_HAL_Driver/Src/stm32h7xx_ll_fmc.c ****                                                      ((Timing->BusTurnAroundDuration)  << FMC_BWTRx
 396:Drivers/STM32H7xx_HAL_Driver/Src/stm32h7xx_ll_fmc.c ****   }
 397:Drivers/STM32H7xx_HAL_Driver/Src/stm32h7xx_ll_fmc.c ****   else
 398:Drivers/STM32H7xx_HAL_Driver/Src/stm32h7xx_ll_fmc.c ****   {
 399:Drivers/STM32H7xx_HAL_Driver/Src/stm32h7xx_ll_fmc.c ****     Device->BWTR[Bank] = 0x0FFFFFFFU;
 372              		.loc 1 399 5 is_stmt 1 view .LVU128
 373              		.loc 1 399 24 is_stmt 0 view .LVU129
 374 0006 6FF07043 		mvn	r3, #-268435456
 375              	.LVL22:
 376              		.loc 1 399 24 view .LVU130
 377 000a 40F82230 		str	r3, [r0, r2, lsl #2]
 400:Drivers/STM32H7xx_HAL_Driver/Src/stm32h7xx_ll_fmc.c ****   }
 401:Drivers/STM32H7xx_HAL_Driver/Src/stm32h7xx_ll_fmc.c **** 
 402:Drivers/STM32H7xx_HAL_Driver/Src/stm32h7xx_ll_fmc.c ****   return HAL_OK;
 378              		.loc 1 402 3 is_stmt 1 view .LVU131
 403:Drivers/STM32H7xx_HAL_Driver/Src/stm32h7xx_ll_fmc.c **** }
 379              		.loc 1 403 1 is_stmt 0 view .LVU132
 380 000e 0020     		movs	r0, #0
 381              	.LVL23:
 382              		.loc 1 403 1 view .LVU133
 383 0010 7047     		bx	lr
 384              	.LVL24:
 385              	.L24:
 374:Drivers/STM32H7xx_HAL_Driver/Src/stm32h7xx_ll_fmc.c ****   /* Check the parameters */
ARM GAS  /tmp/ccBBH4Jd.s 			page 15


 386              		.loc 1 374 1 view .LVU134
 387 0012 30B4     		push	{r4, r5}
 388              	.LCFI4:
 389              		.cfi_def_cfa_offset 8
 390              		.cfi_offset 4, -8
 391              		.cfi_offset 5, -4
 382:Drivers/STM32H7xx_HAL_Driver/Src/stm32h7xx_ll_fmc.c ****     assert_param(IS_FMC_ADDRESS_SETUP_TIME(Timing->AddressSetupTime));
 392              		.loc 1 382 5 is_stmt 1 view .LVU135
 383:Drivers/STM32H7xx_HAL_Driver/Src/stm32h7xx_ll_fmc.c ****     assert_param(IS_FMC_ADDRESS_HOLD_TIME(Timing->AddressHoldTime));
 393              		.loc 1 383 5 view .LVU136
 384:Drivers/STM32H7xx_HAL_Driver/Src/stm32h7xx_ll_fmc.c ****     assert_param(IS_FMC_DATASETUP_TIME(Timing->DataSetupTime));
 394              		.loc 1 384 5 view .LVU137
 385:Drivers/STM32H7xx_HAL_Driver/Src/stm32h7xx_ll_fmc.c ****     assert_param(IS_FMC_TURNAROUND_TIME(Timing->BusTurnAroundDuration));
 395              		.loc 1 385 5 view .LVU138
 386:Drivers/STM32H7xx_HAL_Driver/Src/stm32h7xx_ll_fmc.c ****     assert_param(IS_FMC_ACCESS_MODE(Timing->AccessMode));
 396              		.loc 1 386 5 view .LVU139
 387:Drivers/STM32H7xx_HAL_Driver/Src/stm32h7xx_ll_fmc.c ****     assert_param(IS_FMC_NORSRAM_BANK(Bank));
 397              		.loc 1 387 5 view .LVU140
 388:Drivers/STM32H7xx_HAL_Driver/Src/stm32h7xx_ll_fmc.c **** 
 398              		.loc 1 388 5 view .LVU141
 391:Drivers/STM32H7xx_HAL_Driver/Src/stm32h7xx_ll_fmc.c ****                                                      ((Timing->AddressHoldTime)        << FMC_BWTRx
 399              		.loc 1 391 5 view .LVU142
 400 0014 50F82230 		ldr	r3, [r0, r2, lsl #2]
 401              	.LVL25:
 391:Drivers/STM32H7xx_HAL_Driver/Src/stm32h7xx_ll_fmc.c ****                                                      ((Timing->AddressHoldTime)        << FMC_BWTRx
 402              		.loc 1 391 5 is_stmt 0 view .LVU143
 403 0018 094C     		ldr	r4, .L25
 404 001a 1C40     		ands	r4, r4, r3
 405 001c 0B68     		ldr	r3, [r1]
 406 001e 4D68     		ldr	r5, [r1, #4]
 407 0020 43EA0513 		orr	r3, r3, r5, lsl #4
 408 0024 8D68     		ldr	r5, [r1, #8]
 409 0026 43EA0523 		orr	r3, r3, r5, lsl #8
 410 002a 8D69     		ldr	r5, [r1, #24]
 411 002c 2B43     		orrs	r3, r3, r5
 412 002e C968     		ldr	r1, [r1, #12]
 413              	.LVL26:
 391:Drivers/STM32H7xx_HAL_Driver/Src/stm32h7xx_ll_fmc.c ****                                                      ((Timing->AddressHoldTime)        << FMC_BWTRx
 414              		.loc 1 391 5 view .LVU144
 415 0030 43EA0143 		orr	r3, r3, r1, lsl #16
 416 0034 2343     		orrs	r3, r3, r4
 417 0036 40F82230 		str	r3, [r0, r2, lsl #2]
 402:Drivers/STM32H7xx_HAL_Driver/Src/stm32h7xx_ll_fmc.c **** }
 418              		.loc 1 402 3 is_stmt 1 view .LVU145
 419              		.loc 1 403 1 is_stmt 0 view .LVU146
 420 003a 0020     		movs	r0, #0
 421              	.LVL27:
 422              		.loc 1 403 1 view .LVU147
 423 003c 30BC     		pop	{r4, r5}
 424              	.LCFI5:
 425              		.cfi_restore 5
 426              		.cfi_restore 4
 427              		.cfi_def_cfa_offset 0
 428 003e 7047     		bx	lr
 429              	.L26:
 430              		.align	2
 431              	.L25:
ARM GAS  /tmp/ccBBH4Jd.s 			page 16


 432 0040 0000F0CF 		.word	-806354944
 433              		.cfi_endproc
 434              	.LFE147:
 436              		.section	.text.FMC_NORSRAM_WriteOperation_Enable,"ax",%progbits
 437              		.align	1
 438              		.global	FMC_NORSRAM_WriteOperation_Enable
 439              		.syntax unified
 440              		.thumb
 441              		.thumb_func
 443              	FMC_NORSRAM_WriteOperation_Enable:
 444              	.LVL28:
 445              	.LFB148:
 404:Drivers/STM32H7xx_HAL_Driver/Src/stm32h7xx_ll_fmc.c **** /**
 405:Drivers/STM32H7xx_HAL_Driver/Src/stm32h7xx_ll_fmc.c ****   * @}
 406:Drivers/STM32H7xx_HAL_Driver/Src/stm32h7xx_ll_fmc.c ****   */
 407:Drivers/STM32H7xx_HAL_Driver/Src/stm32h7xx_ll_fmc.c **** 
 408:Drivers/STM32H7xx_HAL_Driver/Src/stm32h7xx_ll_fmc.c **** /** @addtogroup FMC_LL_NORSRAM_Private_Functions_Group2
 409:Drivers/STM32H7xx_HAL_Driver/Src/stm32h7xx_ll_fmc.c ****   *  @brief   management functions
 410:Drivers/STM32H7xx_HAL_Driver/Src/stm32h7xx_ll_fmc.c ****   *
 411:Drivers/STM32H7xx_HAL_Driver/Src/stm32h7xx_ll_fmc.c **** @verbatim
 412:Drivers/STM32H7xx_HAL_Driver/Src/stm32h7xx_ll_fmc.c ****   ==============================================================================
 413:Drivers/STM32H7xx_HAL_Driver/Src/stm32h7xx_ll_fmc.c ****                       ##### FMC_NORSRAM Control functions #####
 414:Drivers/STM32H7xx_HAL_Driver/Src/stm32h7xx_ll_fmc.c ****   ==============================================================================
 415:Drivers/STM32H7xx_HAL_Driver/Src/stm32h7xx_ll_fmc.c ****   [..]
 416:Drivers/STM32H7xx_HAL_Driver/Src/stm32h7xx_ll_fmc.c ****     This subsection provides a set of functions allowing to control dynamically
 417:Drivers/STM32H7xx_HAL_Driver/Src/stm32h7xx_ll_fmc.c ****     the FMC NORSRAM interface.
 418:Drivers/STM32H7xx_HAL_Driver/Src/stm32h7xx_ll_fmc.c **** 
 419:Drivers/STM32H7xx_HAL_Driver/Src/stm32h7xx_ll_fmc.c **** @endverbatim
 420:Drivers/STM32H7xx_HAL_Driver/Src/stm32h7xx_ll_fmc.c ****   * @{
 421:Drivers/STM32H7xx_HAL_Driver/Src/stm32h7xx_ll_fmc.c ****   */
 422:Drivers/STM32H7xx_HAL_Driver/Src/stm32h7xx_ll_fmc.c **** 
 423:Drivers/STM32H7xx_HAL_Driver/Src/stm32h7xx_ll_fmc.c **** /**
 424:Drivers/STM32H7xx_HAL_Driver/Src/stm32h7xx_ll_fmc.c ****   * @brief  Enables dynamically FMC_NORSRAM write operation.
 425:Drivers/STM32H7xx_HAL_Driver/Src/stm32h7xx_ll_fmc.c ****   * @param  Device Pointer to NORSRAM device instance
 426:Drivers/STM32H7xx_HAL_Driver/Src/stm32h7xx_ll_fmc.c ****   * @param  Bank NORSRAM bank number
 427:Drivers/STM32H7xx_HAL_Driver/Src/stm32h7xx_ll_fmc.c ****   * @retval HAL status
 428:Drivers/STM32H7xx_HAL_Driver/Src/stm32h7xx_ll_fmc.c ****   */
 429:Drivers/STM32H7xx_HAL_Driver/Src/stm32h7xx_ll_fmc.c **** HAL_StatusTypeDef FMC_NORSRAM_WriteOperation_Enable(FMC_NORSRAM_TypeDef *Device, uint32_t Bank)
 430:Drivers/STM32H7xx_HAL_Driver/Src/stm32h7xx_ll_fmc.c **** {
 446              		.loc 1 430 1 is_stmt 1 view -0
 447              		.cfi_startproc
 448              		@ args = 0, pretend = 0, frame = 0
 449              		@ frame_needed = 0, uses_anonymous_args = 0
 450              		@ link register save eliminated.
 431:Drivers/STM32H7xx_HAL_Driver/Src/stm32h7xx_ll_fmc.c ****   /* Check the parameters */
 432:Drivers/STM32H7xx_HAL_Driver/Src/stm32h7xx_ll_fmc.c ****   assert_param(IS_FMC_NORSRAM_DEVICE(Device));
 451              		.loc 1 432 3 view .LVU149
 433:Drivers/STM32H7xx_HAL_Driver/Src/stm32h7xx_ll_fmc.c ****   assert_param(IS_FMC_NORSRAM_BANK(Bank));
 452              		.loc 1 433 3 view .LVU150
 434:Drivers/STM32H7xx_HAL_Driver/Src/stm32h7xx_ll_fmc.c **** 
 435:Drivers/STM32H7xx_HAL_Driver/Src/stm32h7xx_ll_fmc.c ****   /* Enable write operation */
 436:Drivers/STM32H7xx_HAL_Driver/Src/stm32h7xx_ll_fmc.c ****   SET_BIT(Device->BTCR[Bank], FMC_WRITE_OPERATION_ENABLE);
 453              		.loc 1 436 3 view .LVU151
 454 0000 50F82130 		ldr	r3, [r0, r1, lsl #2]
 455 0004 43F48053 		orr	r3, r3, #4096
 456 0008 40F82130 		str	r3, [r0, r1, lsl #2]
 437:Drivers/STM32H7xx_HAL_Driver/Src/stm32h7xx_ll_fmc.c **** 
ARM GAS  /tmp/ccBBH4Jd.s 			page 17


 438:Drivers/STM32H7xx_HAL_Driver/Src/stm32h7xx_ll_fmc.c ****   return HAL_OK;
 457              		.loc 1 438 3 view .LVU152
 439:Drivers/STM32H7xx_HAL_Driver/Src/stm32h7xx_ll_fmc.c **** }
 458              		.loc 1 439 1 is_stmt 0 view .LVU153
 459 000c 0020     		movs	r0, #0
 460              	.LVL29:
 461              		.loc 1 439 1 view .LVU154
 462 000e 7047     		bx	lr
 463              		.cfi_endproc
 464              	.LFE148:
 466              		.section	.text.FMC_NORSRAM_WriteOperation_Disable,"ax",%progbits
 467              		.align	1
 468              		.global	FMC_NORSRAM_WriteOperation_Disable
 469              		.syntax unified
 470              		.thumb
 471              		.thumb_func
 473              	FMC_NORSRAM_WriteOperation_Disable:
 474              	.LVL30:
 475              	.LFB149:
 440:Drivers/STM32H7xx_HAL_Driver/Src/stm32h7xx_ll_fmc.c **** 
 441:Drivers/STM32H7xx_HAL_Driver/Src/stm32h7xx_ll_fmc.c **** /**
 442:Drivers/STM32H7xx_HAL_Driver/Src/stm32h7xx_ll_fmc.c ****   * @brief  Disables dynamically FMC_NORSRAM write operation.
 443:Drivers/STM32H7xx_HAL_Driver/Src/stm32h7xx_ll_fmc.c ****   * @param  Device Pointer to NORSRAM device instance
 444:Drivers/STM32H7xx_HAL_Driver/Src/stm32h7xx_ll_fmc.c ****   * @param  Bank NORSRAM bank number
 445:Drivers/STM32H7xx_HAL_Driver/Src/stm32h7xx_ll_fmc.c ****   * @retval HAL status
 446:Drivers/STM32H7xx_HAL_Driver/Src/stm32h7xx_ll_fmc.c ****   */
 447:Drivers/STM32H7xx_HAL_Driver/Src/stm32h7xx_ll_fmc.c **** HAL_StatusTypeDef FMC_NORSRAM_WriteOperation_Disable(FMC_NORSRAM_TypeDef *Device, uint32_t Bank)
 448:Drivers/STM32H7xx_HAL_Driver/Src/stm32h7xx_ll_fmc.c **** {
 476              		.loc 1 448 1 is_stmt 1 view -0
 477              		.cfi_startproc
 478              		@ args = 0, pretend = 0, frame = 0
 479              		@ frame_needed = 0, uses_anonymous_args = 0
 480              		@ link register save eliminated.
 449:Drivers/STM32H7xx_HAL_Driver/Src/stm32h7xx_ll_fmc.c ****   /* Check the parameters */
 450:Drivers/STM32H7xx_HAL_Driver/Src/stm32h7xx_ll_fmc.c ****   assert_param(IS_FMC_NORSRAM_DEVICE(Device));
 481              		.loc 1 450 3 view .LVU156
 451:Drivers/STM32H7xx_HAL_Driver/Src/stm32h7xx_ll_fmc.c ****   assert_param(IS_FMC_NORSRAM_BANK(Bank));
 482              		.loc 1 451 3 view .LVU157
 452:Drivers/STM32H7xx_HAL_Driver/Src/stm32h7xx_ll_fmc.c **** 
 453:Drivers/STM32H7xx_HAL_Driver/Src/stm32h7xx_ll_fmc.c ****   /* Disable write operation */
 454:Drivers/STM32H7xx_HAL_Driver/Src/stm32h7xx_ll_fmc.c ****   CLEAR_BIT(Device->BTCR[Bank], FMC_WRITE_OPERATION_ENABLE);
 483              		.loc 1 454 3 view .LVU158
 484 0000 50F82130 		ldr	r3, [r0, r1, lsl #2]
 485 0004 23F48053 		bic	r3, r3, #4096
 486 0008 40F82130 		str	r3, [r0, r1, lsl #2]
 455:Drivers/STM32H7xx_HAL_Driver/Src/stm32h7xx_ll_fmc.c **** 
 456:Drivers/STM32H7xx_HAL_Driver/Src/stm32h7xx_ll_fmc.c ****   return HAL_OK;
 487              		.loc 1 456 3 view .LVU159
 457:Drivers/STM32H7xx_HAL_Driver/Src/stm32h7xx_ll_fmc.c **** }
 488              		.loc 1 457 1 is_stmt 0 view .LVU160
 489 000c 0020     		movs	r0, #0
 490              	.LVL31:
 491              		.loc 1 457 1 view .LVU161
 492 000e 7047     		bx	lr
 493              		.cfi_endproc
 494              	.LFE149:
 496              		.section	.text.FMC_NAND_Init,"ax",%progbits
ARM GAS  /tmp/ccBBH4Jd.s 			page 18


 497              		.align	1
 498              		.global	FMC_NAND_Init
 499              		.syntax unified
 500              		.thumb
 501              		.thumb_func
 503              	FMC_NAND_Init:
 504              	.LVL32:
 505              	.LFB150:
 458:Drivers/STM32H7xx_HAL_Driver/Src/stm32h7xx_ll_fmc.c **** 
 459:Drivers/STM32H7xx_HAL_Driver/Src/stm32h7xx_ll_fmc.c **** /**
 460:Drivers/STM32H7xx_HAL_Driver/Src/stm32h7xx_ll_fmc.c ****   * @}
 461:Drivers/STM32H7xx_HAL_Driver/Src/stm32h7xx_ll_fmc.c ****   */
 462:Drivers/STM32H7xx_HAL_Driver/Src/stm32h7xx_ll_fmc.c **** 
 463:Drivers/STM32H7xx_HAL_Driver/Src/stm32h7xx_ll_fmc.c **** /**
 464:Drivers/STM32H7xx_HAL_Driver/Src/stm32h7xx_ll_fmc.c ****   * @}
 465:Drivers/STM32H7xx_HAL_Driver/Src/stm32h7xx_ll_fmc.c ****   */
 466:Drivers/STM32H7xx_HAL_Driver/Src/stm32h7xx_ll_fmc.c **** 
 467:Drivers/STM32H7xx_HAL_Driver/Src/stm32h7xx_ll_fmc.c **** 
 468:Drivers/STM32H7xx_HAL_Driver/Src/stm32h7xx_ll_fmc.c **** /** @defgroup FMC_LL_Exported_Functions_NAND FMC Low Layer NAND Exported Functions
 469:Drivers/STM32H7xx_HAL_Driver/Src/stm32h7xx_ll_fmc.c ****   * @brief    NAND Controller functions
 470:Drivers/STM32H7xx_HAL_Driver/Src/stm32h7xx_ll_fmc.c ****   *
 471:Drivers/STM32H7xx_HAL_Driver/Src/stm32h7xx_ll_fmc.c ****   @verbatim
 472:Drivers/STM32H7xx_HAL_Driver/Src/stm32h7xx_ll_fmc.c ****   ==============================================================================
 473:Drivers/STM32H7xx_HAL_Driver/Src/stm32h7xx_ll_fmc.c ****                     ##### How to use NAND device driver #####
 474:Drivers/STM32H7xx_HAL_Driver/Src/stm32h7xx_ll_fmc.c ****   ==============================================================================
 475:Drivers/STM32H7xx_HAL_Driver/Src/stm32h7xx_ll_fmc.c ****   [..]
 476:Drivers/STM32H7xx_HAL_Driver/Src/stm32h7xx_ll_fmc.c ****     This driver contains a set of APIs to interface with the FMC NAND banks in order
 477:Drivers/STM32H7xx_HAL_Driver/Src/stm32h7xx_ll_fmc.c ****     to run the NAND external devices.
 478:Drivers/STM32H7xx_HAL_Driver/Src/stm32h7xx_ll_fmc.c **** 
 479:Drivers/STM32H7xx_HAL_Driver/Src/stm32h7xx_ll_fmc.c ****     (+) FMC NAND bank reset using the function FMC_NAND_DeInit()
 480:Drivers/STM32H7xx_HAL_Driver/Src/stm32h7xx_ll_fmc.c ****     (+) FMC NAND bank control configuration using the function FMC_NAND_Init()
 481:Drivers/STM32H7xx_HAL_Driver/Src/stm32h7xx_ll_fmc.c ****     (+) FMC NAND bank common space timing configuration using the function
 482:Drivers/STM32H7xx_HAL_Driver/Src/stm32h7xx_ll_fmc.c ****         FMC_NAND_CommonSpace_Timing_Init()
 483:Drivers/STM32H7xx_HAL_Driver/Src/stm32h7xx_ll_fmc.c ****     (+) FMC NAND bank attribute space timing configuration using the function
 484:Drivers/STM32H7xx_HAL_Driver/Src/stm32h7xx_ll_fmc.c ****         FMC_NAND_AttributeSpace_Timing_Init()
 485:Drivers/STM32H7xx_HAL_Driver/Src/stm32h7xx_ll_fmc.c ****     (+) FMC NAND bank enable/disable ECC correction feature using the functions
 486:Drivers/STM32H7xx_HAL_Driver/Src/stm32h7xx_ll_fmc.c ****         FMC_NAND_ECC_Enable()/FMC_NAND_ECC_Disable()
 487:Drivers/STM32H7xx_HAL_Driver/Src/stm32h7xx_ll_fmc.c ****     (+) FMC NAND bank get ECC correction code using the function FMC_NAND_GetECC()
 488:Drivers/STM32H7xx_HAL_Driver/Src/stm32h7xx_ll_fmc.c **** 
 489:Drivers/STM32H7xx_HAL_Driver/Src/stm32h7xx_ll_fmc.c **** @endverbatim
 490:Drivers/STM32H7xx_HAL_Driver/Src/stm32h7xx_ll_fmc.c ****   * @{
 491:Drivers/STM32H7xx_HAL_Driver/Src/stm32h7xx_ll_fmc.c ****   */
 492:Drivers/STM32H7xx_HAL_Driver/Src/stm32h7xx_ll_fmc.c **** 
 493:Drivers/STM32H7xx_HAL_Driver/Src/stm32h7xx_ll_fmc.c **** /** @defgroup FMC_LL_NAND_Exported_Functions_Group1 Initialization and de-initialization functions
 494:Drivers/STM32H7xx_HAL_Driver/Src/stm32h7xx_ll_fmc.c ****   *  @brief    Initialization and Configuration functions
 495:Drivers/STM32H7xx_HAL_Driver/Src/stm32h7xx_ll_fmc.c ****   *
 496:Drivers/STM32H7xx_HAL_Driver/Src/stm32h7xx_ll_fmc.c **** @verbatim
 497:Drivers/STM32H7xx_HAL_Driver/Src/stm32h7xx_ll_fmc.c ****   ==============================================================================
 498:Drivers/STM32H7xx_HAL_Driver/Src/stm32h7xx_ll_fmc.c ****               ##### Initialization and de_initialization functions #####
 499:Drivers/STM32H7xx_HAL_Driver/Src/stm32h7xx_ll_fmc.c ****   ==============================================================================
 500:Drivers/STM32H7xx_HAL_Driver/Src/stm32h7xx_ll_fmc.c ****   [..]
 501:Drivers/STM32H7xx_HAL_Driver/Src/stm32h7xx_ll_fmc.c ****     This section provides functions allowing to:
 502:Drivers/STM32H7xx_HAL_Driver/Src/stm32h7xx_ll_fmc.c ****     (+) Initialize and configure the FMC NAND interface
 503:Drivers/STM32H7xx_HAL_Driver/Src/stm32h7xx_ll_fmc.c ****     (+) De-initialize the FMC NAND interface
 504:Drivers/STM32H7xx_HAL_Driver/Src/stm32h7xx_ll_fmc.c ****     (+) Configure the FMC clock and associated GPIOs
 505:Drivers/STM32H7xx_HAL_Driver/Src/stm32h7xx_ll_fmc.c **** 
 506:Drivers/STM32H7xx_HAL_Driver/Src/stm32h7xx_ll_fmc.c **** @endverbatim
ARM GAS  /tmp/ccBBH4Jd.s 			page 19


 507:Drivers/STM32H7xx_HAL_Driver/Src/stm32h7xx_ll_fmc.c ****   * @{
 508:Drivers/STM32H7xx_HAL_Driver/Src/stm32h7xx_ll_fmc.c ****   */
 509:Drivers/STM32H7xx_HAL_Driver/Src/stm32h7xx_ll_fmc.c **** 
 510:Drivers/STM32H7xx_HAL_Driver/Src/stm32h7xx_ll_fmc.c **** /**
 511:Drivers/STM32H7xx_HAL_Driver/Src/stm32h7xx_ll_fmc.c ****   * @brief  Initializes the FMC_NAND device according to the specified
 512:Drivers/STM32H7xx_HAL_Driver/Src/stm32h7xx_ll_fmc.c ****   *         control parameters in the FMC_NAND_HandleTypeDef
 513:Drivers/STM32H7xx_HAL_Driver/Src/stm32h7xx_ll_fmc.c ****   * @param  Device Pointer to NAND device instance
 514:Drivers/STM32H7xx_HAL_Driver/Src/stm32h7xx_ll_fmc.c ****   * @param  Init Pointer to NAND Initialization structure
 515:Drivers/STM32H7xx_HAL_Driver/Src/stm32h7xx_ll_fmc.c ****   * @retval HAL status
 516:Drivers/STM32H7xx_HAL_Driver/Src/stm32h7xx_ll_fmc.c ****   */
 517:Drivers/STM32H7xx_HAL_Driver/Src/stm32h7xx_ll_fmc.c **** HAL_StatusTypeDef FMC_NAND_Init(FMC_NAND_TypeDef *Device, FMC_NAND_InitTypeDef *Init)
 518:Drivers/STM32H7xx_HAL_Driver/Src/stm32h7xx_ll_fmc.c **** {
 506              		.loc 1 518 1 is_stmt 1 view -0
 507              		.cfi_startproc
 508              		@ args = 0, pretend = 0, frame = 0
 509              		@ frame_needed = 0, uses_anonymous_args = 0
 510              		@ link register save eliminated.
 511              		.loc 1 518 1 is_stmt 0 view .LVU163
 512 0000 10B4     		push	{r4}
 513              	.LCFI6:
 514              		.cfi_def_cfa_offset 4
 515              		.cfi_offset 4, -4
 519:Drivers/STM32H7xx_HAL_Driver/Src/stm32h7xx_ll_fmc.c ****   /* Check the parameters */
 520:Drivers/STM32H7xx_HAL_Driver/Src/stm32h7xx_ll_fmc.c ****   assert_param(IS_FMC_NAND_DEVICE(Device));
 516              		.loc 1 520 3 is_stmt 1 view .LVU164
 521:Drivers/STM32H7xx_HAL_Driver/Src/stm32h7xx_ll_fmc.c ****   assert_param(IS_FMC_NAND_BANK(Init->NandBank));
 517              		.loc 1 521 3 view .LVU165
 522:Drivers/STM32H7xx_HAL_Driver/Src/stm32h7xx_ll_fmc.c ****   assert_param(IS_FMC_WAIT_FEATURE(Init->Waitfeature));
 518              		.loc 1 522 3 view .LVU166
 523:Drivers/STM32H7xx_HAL_Driver/Src/stm32h7xx_ll_fmc.c ****   assert_param(IS_FMC_NAND_MEMORY_WIDTH(Init->MemoryDataWidth));
 519              		.loc 1 523 3 view .LVU167
 524:Drivers/STM32H7xx_HAL_Driver/Src/stm32h7xx_ll_fmc.c ****   assert_param(IS_FMC_ECC_STATE(Init->EccComputation));
 520              		.loc 1 524 3 view .LVU168
 525:Drivers/STM32H7xx_HAL_Driver/Src/stm32h7xx_ll_fmc.c ****   assert_param(IS_FMC_ECCPAGE_SIZE(Init->ECCPageSize));
 521              		.loc 1 525 3 view .LVU169
 526:Drivers/STM32H7xx_HAL_Driver/Src/stm32h7xx_ll_fmc.c ****   assert_param(IS_FMC_TCLR_TIME(Init->TCLRSetupTime));
 522              		.loc 1 526 3 view .LVU170
 527:Drivers/STM32H7xx_HAL_Driver/Src/stm32h7xx_ll_fmc.c ****   assert_param(IS_FMC_TAR_TIME(Init->TARSetupTime));
 523              		.loc 1 527 3 view .LVU171
 528:Drivers/STM32H7xx_HAL_Driver/Src/stm32h7xx_ll_fmc.c **** 
 529:Drivers/STM32H7xx_HAL_Driver/Src/stm32h7xx_ll_fmc.c ****   /* NAND bank 3 registers configuration */
 530:Drivers/STM32H7xx_HAL_Driver/Src/stm32h7xx_ll_fmc.c ****   MODIFY_REG(Device->PCR, PCR_CLEAR_MASK, (Init->Waitfeature                            |
 524              		.loc 1 530 3 view .LVU172
 525 0002 0368     		ldr	r3, [r0]
 526 0004 0B4A     		ldr	r2, .L31
 527 0006 1A40     		ands	r2, r2, r3
 528 0008 4B68     		ldr	r3, [r1, #4]
 529 000a 8C68     		ldr	r4, [r1, #8]
 530 000c 2343     		orrs	r3, r3, r4
 531 000e CC68     		ldr	r4, [r1, #12]
 532 0010 2343     		orrs	r3, r3, r4
 533 0012 0C69     		ldr	r4, [r1, #16]
 534 0014 2343     		orrs	r3, r3, r4
 535 0016 4C69     		ldr	r4, [r1, #20]
 536 0018 43EA4423 		orr	r3, r3, r4, lsl #9
 537 001c 8969     		ldr	r1, [r1, #24]
 538              	.LVL33:
ARM GAS  /tmp/ccBBH4Jd.s 			page 20


 539              		.loc 1 530 3 is_stmt 0 view .LVU173
 540 001e 43EA4133 		orr	r3, r3, r1, lsl #13
 541 0022 1A43     		orrs	r2, r2, r3
 542 0024 42F00802 		orr	r2, r2, #8
 543 0028 0260     		str	r2, [r0]
 531:Drivers/STM32H7xx_HAL_Driver/Src/stm32h7xx_ll_fmc.c ****                                            FMC_PCR_MEMORY_TYPE_NAND                     |
 532:Drivers/STM32H7xx_HAL_Driver/Src/stm32h7xx_ll_fmc.c ****                                            Init->MemoryDataWidth                        |
 533:Drivers/STM32H7xx_HAL_Driver/Src/stm32h7xx_ll_fmc.c ****                                            Init->EccComputation                         |
 534:Drivers/STM32H7xx_HAL_Driver/Src/stm32h7xx_ll_fmc.c ****                                            Init->ECCPageSize                            |
 535:Drivers/STM32H7xx_HAL_Driver/Src/stm32h7xx_ll_fmc.c ****                                            ((Init->TCLRSetupTime) << FMC_PCR_TCLR_Pos)  |
 536:Drivers/STM32H7xx_HAL_Driver/Src/stm32h7xx_ll_fmc.c ****                                            ((Init->TARSetupTime)  << FMC_PCR_TAR_Pos)));
 537:Drivers/STM32H7xx_HAL_Driver/Src/stm32h7xx_ll_fmc.c **** 
 538:Drivers/STM32H7xx_HAL_Driver/Src/stm32h7xx_ll_fmc.c ****   return HAL_OK;
 544              		.loc 1 538 3 is_stmt 1 view .LVU174
 539:Drivers/STM32H7xx_HAL_Driver/Src/stm32h7xx_ll_fmc.c **** }
 545              		.loc 1 539 1 is_stmt 0 view .LVU175
 546 002a 0020     		movs	r0, #0
 547              	.LVL34:
 548              		.loc 1 539 1 view .LVU176
 549 002c 5DF8044B 		ldr	r4, [sp], #4
 550              	.LCFI7:
 551              		.cfi_restore 4
 552              		.cfi_def_cfa_offset 0
 553 0030 7047     		bx	lr
 554              	.L32:
 555 0032 00BF     		.align	2
 556              	.L31:
 557 0034 8901F0FF 		.word	-1048183
 558              		.cfi_endproc
 559              	.LFE150:
 561              		.section	.text.FMC_NAND_CommonSpace_Timing_Init,"ax",%progbits
 562              		.align	1
 563              		.global	FMC_NAND_CommonSpace_Timing_Init
 564              		.syntax unified
 565              		.thumb
 566              		.thumb_func
 568              	FMC_NAND_CommonSpace_Timing_Init:
 569              	.LVL35:
 570              	.LFB151:
 540:Drivers/STM32H7xx_HAL_Driver/Src/stm32h7xx_ll_fmc.c **** 
 541:Drivers/STM32H7xx_HAL_Driver/Src/stm32h7xx_ll_fmc.c **** /**
 542:Drivers/STM32H7xx_HAL_Driver/Src/stm32h7xx_ll_fmc.c ****   * @brief  Initializes the FMC_NAND Common space Timing according to the specified
 543:Drivers/STM32H7xx_HAL_Driver/Src/stm32h7xx_ll_fmc.c ****   *         parameters in the FMC_NAND_PCC_TimingTypeDef
 544:Drivers/STM32H7xx_HAL_Driver/Src/stm32h7xx_ll_fmc.c ****   * @param  Device Pointer to NAND device instance
 545:Drivers/STM32H7xx_HAL_Driver/Src/stm32h7xx_ll_fmc.c ****   * @param  Timing Pointer to NAND timing structure
 546:Drivers/STM32H7xx_HAL_Driver/Src/stm32h7xx_ll_fmc.c ****   * @param  Bank NAND bank number
 547:Drivers/STM32H7xx_HAL_Driver/Src/stm32h7xx_ll_fmc.c ****   * @retval HAL status
 548:Drivers/STM32H7xx_HAL_Driver/Src/stm32h7xx_ll_fmc.c ****   */
 549:Drivers/STM32H7xx_HAL_Driver/Src/stm32h7xx_ll_fmc.c **** HAL_StatusTypeDef FMC_NAND_CommonSpace_Timing_Init(FMC_NAND_TypeDef *Device,
 550:Drivers/STM32H7xx_HAL_Driver/Src/stm32h7xx_ll_fmc.c ****                                                    FMC_NAND_PCC_TimingTypeDef *Timing, uint32_t Ban
 551:Drivers/STM32H7xx_HAL_Driver/Src/stm32h7xx_ll_fmc.c **** {
 571              		.loc 1 551 1 is_stmt 1 view -0
 572              		.cfi_startproc
 573              		@ args = 0, pretend = 0, frame = 0
 574              		@ frame_needed = 0, uses_anonymous_args = 0
 575              		@ link register save eliminated.
 552:Drivers/STM32H7xx_HAL_Driver/Src/stm32h7xx_ll_fmc.c ****   /* Check the parameters */
ARM GAS  /tmp/ccBBH4Jd.s 			page 21


 553:Drivers/STM32H7xx_HAL_Driver/Src/stm32h7xx_ll_fmc.c ****   assert_param(IS_FMC_NAND_DEVICE(Device));
 576              		.loc 1 553 3 view .LVU178
 554:Drivers/STM32H7xx_HAL_Driver/Src/stm32h7xx_ll_fmc.c ****   assert_param(IS_FMC_SETUP_TIME(Timing->SetupTime));
 577              		.loc 1 554 3 view .LVU179
 555:Drivers/STM32H7xx_HAL_Driver/Src/stm32h7xx_ll_fmc.c ****   assert_param(IS_FMC_WAIT_TIME(Timing->WaitSetupTime));
 578              		.loc 1 555 3 view .LVU180
 556:Drivers/STM32H7xx_HAL_Driver/Src/stm32h7xx_ll_fmc.c ****   assert_param(IS_FMC_HOLD_TIME(Timing->HoldSetupTime));
 579              		.loc 1 556 3 view .LVU181
 557:Drivers/STM32H7xx_HAL_Driver/Src/stm32h7xx_ll_fmc.c ****   assert_param(IS_FMC_HIZ_TIME(Timing->HiZSetupTime));
 580              		.loc 1 557 3 view .LVU182
 558:Drivers/STM32H7xx_HAL_Driver/Src/stm32h7xx_ll_fmc.c ****   assert_param(IS_FMC_NAND_BANK(Bank));
 581              		.loc 1 558 3 view .LVU183
 559:Drivers/STM32H7xx_HAL_Driver/Src/stm32h7xx_ll_fmc.c **** 
 560:Drivers/STM32H7xx_HAL_Driver/Src/stm32h7xx_ll_fmc.c ****   /* Prevent unused argument(s) compilation warning if no assert_param check */
 561:Drivers/STM32H7xx_HAL_Driver/Src/stm32h7xx_ll_fmc.c ****   UNUSED(Bank);
 582              		.loc 1 561 3 view .LVU184
 562:Drivers/STM32H7xx_HAL_Driver/Src/stm32h7xx_ll_fmc.c **** 
 563:Drivers/STM32H7xx_HAL_Driver/Src/stm32h7xx_ll_fmc.c ****   /* NAND bank 3 registers configuration */
 564:Drivers/STM32H7xx_HAL_Driver/Src/stm32h7xx_ll_fmc.c ****   MODIFY_REG(Device->PMEM, PMEM_CLEAR_MASK, (Timing->SetupTime                                 |
 583              		.loc 1 564 3 view .LVU185
 584 0000 8368     		ldr	r3, [r0, #8]
 585 0002 0B68     		ldr	r3, [r1]
 586 0004 4A68     		ldr	r2, [r1, #4]
 587              	.LVL36:
 588              		.loc 1 564 3 is_stmt 0 view .LVU186
 589 0006 43EA0223 		orr	r3, r3, r2, lsl #8
 590 000a 8A68     		ldr	r2, [r1, #8]
 591 000c 43EA0243 		orr	r3, r3, r2, lsl #16
 592 0010 CA68     		ldr	r2, [r1, #12]
 593 0012 43EA0263 		orr	r3, r3, r2, lsl #24
 594 0016 8360     		str	r3, [r0, #8]
 565:Drivers/STM32H7xx_HAL_Driver/Src/stm32h7xx_ll_fmc.c ****                                              ((Timing->WaitSetupTime) << FMC_PMEM_MEMWAIT_Pos) |
 566:Drivers/STM32H7xx_HAL_Driver/Src/stm32h7xx_ll_fmc.c ****                                              ((Timing->HoldSetupTime) << FMC_PMEM_MEMHOLD_Pos) |
 567:Drivers/STM32H7xx_HAL_Driver/Src/stm32h7xx_ll_fmc.c ****                                              ((Timing->HiZSetupTime)  << FMC_PMEM_MEMHIZ_Pos)));
 568:Drivers/STM32H7xx_HAL_Driver/Src/stm32h7xx_ll_fmc.c **** 
 569:Drivers/STM32H7xx_HAL_Driver/Src/stm32h7xx_ll_fmc.c ****   return HAL_OK;
 595              		.loc 1 569 3 is_stmt 1 view .LVU187
 570:Drivers/STM32H7xx_HAL_Driver/Src/stm32h7xx_ll_fmc.c **** }
 596              		.loc 1 570 1 is_stmt 0 view .LVU188
 597 0018 0020     		movs	r0, #0
 598              	.LVL37:
 599              		.loc 1 570 1 view .LVU189
 600 001a 7047     		bx	lr
 601              		.cfi_endproc
 602              	.LFE151:
 604              		.section	.text.FMC_NAND_AttributeSpace_Timing_Init,"ax",%progbits
 605              		.align	1
 606              		.global	FMC_NAND_AttributeSpace_Timing_Init
 607              		.syntax unified
 608              		.thumb
 609              		.thumb_func
 611              	FMC_NAND_AttributeSpace_Timing_Init:
 612              	.LVL38:
 613              	.LFB152:
 571:Drivers/STM32H7xx_HAL_Driver/Src/stm32h7xx_ll_fmc.c **** 
 572:Drivers/STM32H7xx_HAL_Driver/Src/stm32h7xx_ll_fmc.c **** /**
 573:Drivers/STM32H7xx_HAL_Driver/Src/stm32h7xx_ll_fmc.c ****   * @brief  Initializes the FMC_NAND Attribute space Timing according to the specified
ARM GAS  /tmp/ccBBH4Jd.s 			page 22


 574:Drivers/STM32H7xx_HAL_Driver/Src/stm32h7xx_ll_fmc.c ****   *         parameters in the FMC_NAND_PCC_TimingTypeDef
 575:Drivers/STM32H7xx_HAL_Driver/Src/stm32h7xx_ll_fmc.c ****   * @param  Device Pointer to NAND device instance
 576:Drivers/STM32H7xx_HAL_Driver/Src/stm32h7xx_ll_fmc.c ****   * @param  Timing Pointer to NAND timing structure
 577:Drivers/STM32H7xx_HAL_Driver/Src/stm32h7xx_ll_fmc.c ****   * @param  Bank NAND bank number
 578:Drivers/STM32H7xx_HAL_Driver/Src/stm32h7xx_ll_fmc.c ****   * @retval HAL status
 579:Drivers/STM32H7xx_HAL_Driver/Src/stm32h7xx_ll_fmc.c ****   */
 580:Drivers/STM32H7xx_HAL_Driver/Src/stm32h7xx_ll_fmc.c **** HAL_StatusTypeDef FMC_NAND_AttributeSpace_Timing_Init(FMC_NAND_TypeDef *Device,
 581:Drivers/STM32H7xx_HAL_Driver/Src/stm32h7xx_ll_fmc.c ****                                                       FMC_NAND_PCC_TimingTypeDef *Timing, uint32_t 
 582:Drivers/STM32H7xx_HAL_Driver/Src/stm32h7xx_ll_fmc.c **** {
 614              		.loc 1 582 1 is_stmt 1 view -0
 615              		.cfi_startproc
 616              		@ args = 0, pretend = 0, frame = 0
 617              		@ frame_needed = 0, uses_anonymous_args = 0
 618              		@ link register save eliminated.
 583:Drivers/STM32H7xx_HAL_Driver/Src/stm32h7xx_ll_fmc.c ****   /* Check the parameters */
 584:Drivers/STM32H7xx_HAL_Driver/Src/stm32h7xx_ll_fmc.c ****   assert_param(IS_FMC_NAND_DEVICE(Device));
 619              		.loc 1 584 3 view .LVU191
 585:Drivers/STM32H7xx_HAL_Driver/Src/stm32h7xx_ll_fmc.c ****   assert_param(IS_FMC_SETUP_TIME(Timing->SetupTime));
 620              		.loc 1 585 3 view .LVU192
 586:Drivers/STM32H7xx_HAL_Driver/Src/stm32h7xx_ll_fmc.c ****   assert_param(IS_FMC_WAIT_TIME(Timing->WaitSetupTime));
 621              		.loc 1 586 3 view .LVU193
 587:Drivers/STM32H7xx_HAL_Driver/Src/stm32h7xx_ll_fmc.c ****   assert_param(IS_FMC_HOLD_TIME(Timing->HoldSetupTime));
 622              		.loc 1 587 3 view .LVU194
 588:Drivers/STM32H7xx_HAL_Driver/Src/stm32h7xx_ll_fmc.c ****   assert_param(IS_FMC_HIZ_TIME(Timing->HiZSetupTime));
 623              		.loc 1 588 3 view .LVU195
 589:Drivers/STM32H7xx_HAL_Driver/Src/stm32h7xx_ll_fmc.c ****   assert_param(IS_FMC_NAND_BANK(Bank));
 624              		.loc 1 589 3 view .LVU196
 590:Drivers/STM32H7xx_HAL_Driver/Src/stm32h7xx_ll_fmc.c **** 
 591:Drivers/STM32H7xx_HAL_Driver/Src/stm32h7xx_ll_fmc.c ****   /* Prevent unused argument(s) compilation warning if no assert_param check */
 592:Drivers/STM32H7xx_HAL_Driver/Src/stm32h7xx_ll_fmc.c ****   UNUSED(Bank);
 625              		.loc 1 592 3 view .LVU197
 593:Drivers/STM32H7xx_HAL_Driver/Src/stm32h7xx_ll_fmc.c **** 
 594:Drivers/STM32H7xx_HAL_Driver/Src/stm32h7xx_ll_fmc.c ****   /* NAND bank 3 registers configuration */
 595:Drivers/STM32H7xx_HAL_Driver/Src/stm32h7xx_ll_fmc.c ****   MODIFY_REG(Device->PATT, PATT_CLEAR_MASK, (Timing->SetupTime                                 |
 626              		.loc 1 595 3 view .LVU198
 627 0000 C368     		ldr	r3, [r0, #12]
 628 0002 0B68     		ldr	r3, [r1]
 629 0004 4A68     		ldr	r2, [r1, #4]
 630              	.LVL39:
 631              		.loc 1 595 3 is_stmt 0 view .LVU199
 632 0006 43EA0223 		orr	r3, r3, r2, lsl #8
 633 000a 8A68     		ldr	r2, [r1, #8]
 634 000c 43EA0243 		orr	r3, r3, r2, lsl #16
 635 0010 CA68     		ldr	r2, [r1, #12]
 636 0012 43EA0263 		orr	r3, r3, r2, lsl #24
 637 0016 C360     		str	r3, [r0, #12]
 596:Drivers/STM32H7xx_HAL_Driver/Src/stm32h7xx_ll_fmc.c ****                                              ((Timing->WaitSetupTime) << FMC_PATT_ATTWAIT_Pos) |
 597:Drivers/STM32H7xx_HAL_Driver/Src/stm32h7xx_ll_fmc.c ****                                              ((Timing->HoldSetupTime) << FMC_PATT_ATTHOLD_Pos) |
 598:Drivers/STM32H7xx_HAL_Driver/Src/stm32h7xx_ll_fmc.c ****                                              ((Timing->HiZSetupTime)  << FMC_PATT_ATTHIZ_Pos)));
 599:Drivers/STM32H7xx_HAL_Driver/Src/stm32h7xx_ll_fmc.c **** 
 600:Drivers/STM32H7xx_HAL_Driver/Src/stm32h7xx_ll_fmc.c ****   return HAL_OK;
 638              		.loc 1 600 3 is_stmt 1 view .LVU200
 601:Drivers/STM32H7xx_HAL_Driver/Src/stm32h7xx_ll_fmc.c **** }
 639              		.loc 1 601 1 is_stmt 0 view .LVU201
 640 0018 0020     		movs	r0, #0
 641              	.LVL40:
 642              		.loc 1 601 1 view .LVU202
ARM GAS  /tmp/ccBBH4Jd.s 			page 23


 643 001a 7047     		bx	lr
 644              		.cfi_endproc
 645              	.LFE152:
 647              		.section	.text.FMC_NAND_DeInit,"ax",%progbits
 648              		.align	1
 649              		.global	FMC_NAND_DeInit
 650              		.syntax unified
 651              		.thumb
 652              		.thumb_func
 654              	FMC_NAND_DeInit:
 655              	.LVL41:
 656              	.LFB153:
 602:Drivers/STM32H7xx_HAL_Driver/Src/stm32h7xx_ll_fmc.c **** 
 603:Drivers/STM32H7xx_HAL_Driver/Src/stm32h7xx_ll_fmc.c **** /**
 604:Drivers/STM32H7xx_HAL_Driver/Src/stm32h7xx_ll_fmc.c ****   * @brief  DeInitializes the FMC_NAND device
 605:Drivers/STM32H7xx_HAL_Driver/Src/stm32h7xx_ll_fmc.c ****   * @param  Device Pointer to NAND device instance
 606:Drivers/STM32H7xx_HAL_Driver/Src/stm32h7xx_ll_fmc.c ****   * @param  Bank NAND bank number
 607:Drivers/STM32H7xx_HAL_Driver/Src/stm32h7xx_ll_fmc.c ****   * @retval HAL status
 608:Drivers/STM32H7xx_HAL_Driver/Src/stm32h7xx_ll_fmc.c ****   */
 609:Drivers/STM32H7xx_HAL_Driver/Src/stm32h7xx_ll_fmc.c **** HAL_StatusTypeDef FMC_NAND_DeInit(FMC_NAND_TypeDef *Device, uint32_t Bank)
 610:Drivers/STM32H7xx_HAL_Driver/Src/stm32h7xx_ll_fmc.c **** {
 657              		.loc 1 610 1 is_stmt 1 view -0
 658              		.cfi_startproc
 659              		@ args = 0, pretend = 0, frame = 0
 660              		@ frame_needed = 0, uses_anonymous_args = 0
 661              		@ link register save eliminated.
 611:Drivers/STM32H7xx_HAL_Driver/Src/stm32h7xx_ll_fmc.c ****   /* Check the parameters */
 612:Drivers/STM32H7xx_HAL_Driver/Src/stm32h7xx_ll_fmc.c ****   assert_param(IS_FMC_NAND_DEVICE(Device));
 662              		.loc 1 612 3 view .LVU204
 613:Drivers/STM32H7xx_HAL_Driver/Src/stm32h7xx_ll_fmc.c ****   assert_param(IS_FMC_NAND_BANK(Bank));
 663              		.loc 1 613 3 view .LVU205
 614:Drivers/STM32H7xx_HAL_Driver/Src/stm32h7xx_ll_fmc.c **** 
 615:Drivers/STM32H7xx_HAL_Driver/Src/stm32h7xx_ll_fmc.c ****   /* Disable the NAND Bank */
 616:Drivers/STM32H7xx_HAL_Driver/Src/stm32h7xx_ll_fmc.c ****   __FMC_NAND_DISABLE(Device, Bank);
 664              		.loc 1 616 3 view .LVU206
 665 0000 0368     		ldr	r3, [r0]
 666 0002 23F00403 		bic	r3, r3, #4
 667 0006 0360     		str	r3, [r0]
 617:Drivers/STM32H7xx_HAL_Driver/Src/stm32h7xx_ll_fmc.c **** 
 618:Drivers/STM32H7xx_HAL_Driver/Src/stm32h7xx_ll_fmc.c ****   /* De-initialize the NAND Bank */
 619:Drivers/STM32H7xx_HAL_Driver/Src/stm32h7xx_ll_fmc.c ****   /* Prevent unused argument(s) compilation warning if no assert_param check */
 620:Drivers/STM32H7xx_HAL_Driver/Src/stm32h7xx_ll_fmc.c ****   UNUSED(Bank);
 668              		.loc 1 620 3 view .LVU207
 621:Drivers/STM32H7xx_HAL_Driver/Src/stm32h7xx_ll_fmc.c **** 
 622:Drivers/STM32H7xx_HAL_Driver/Src/stm32h7xx_ll_fmc.c ****   /* Set the FMC_NAND_BANK3 registers to their reset values */
 623:Drivers/STM32H7xx_HAL_Driver/Src/stm32h7xx_ll_fmc.c ****   WRITE_REG(Device->PCR,  0x00000018U);
 669              		.loc 1 623 3 view .LVU208
 670 0008 1823     		movs	r3, #24
 671 000a 0360     		str	r3, [r0]
 624:Drivers/STM32H7xx_HAL_Driver/Src/stm32h7xx_ll_fmc.c ****   WRITE_REG(Device->SR,   0x00000040U);
 672              		.loc 1 624 3 view .LVU209
 673 000c 4023     		movs	r3, #64
 674 000e 4360     		str	r3, [r0, #4]
 625:Drivers/STM32H7xx_HAL_Driver/Src/stm32h7xx_ll_fmc.c ****   WRITE_REG(Device->PMEM, 0xFCFCFCFCU);
 675              		.loc 1 625 3 view .LVU210
 676 0010 4FF0FC33 		mov	r3, #-50529028
 677 0014 8360     		str	r3, [r0, #8]
ARM GAS  /tmp/ccBBH4Jd.s 			page 24


 626:Drivers/STM32H7xx_HAL_Driver/Src/stm32h7xx_ll_fmc.c ****   WRITE_REG(Device->PATT, 0xFCFCFCFCU);
 678              		.loc 1 626 3 view .LVU211
 679 0016 C360     		str	r3, [r0, #12]
 627:Drivers/STM32H7xx_HAL_Driver/Src/stm32h7xx_ll_fmc.c **** 
 628:Drivers/STM32H7xx_HAL_Driver/Src/stm32h7xx_ll_fmc.c ****   return HAL_OK;
 680              		.loc 1 628 3 view .LVU212
 629:Drivers/STM32H7xx_HAL_Driver/Src/stm32h7xx_ll_fmc.c **** }
 681              		.loc 1 629 1 is_stmt 0 view .LVU213
 682 0018 0020     		movs	r0, #0
 683              	.LVL42:
 684              		.loc 1 629 1 view .LVU214
 685 001a 7047     		bx	lr
 686              		.cfi_endproc
 687              	.LFE153:
 689              		.section	.text.FMC_NAND_ECC_Enable,"ax",%progbits
 690              		.align	1
 691              		.global	FMC_NAND_ECC_Enable
 692              		.syntax unified
 693              		.thumb
 694              		.thumb_func
 696              	FMC_NAND_ECC_Enable:
 697              	.LVL43:
 698              	.LFB154:
 630:Drivers/STM32H7xx_HAL_Driver/Src/stm32h7xx_ll_fmc.c **** 
 631:Drivers/STM32H7xx_HAL_Driver/Src/stm32h7xx_ll_fmc.c **** /**
 632:Drivers/STM32H7xx_HAL_Driver/Src/stm32h7xx_ll_fmc.c ****   * @}
 633:Drivers/STM32H7xx_HAL_Driver/Src/stm32h7xx_ll_fmc.c ****   */
 634:Drivers/STM32H7xx_HAL_Driver/Src/stm32h7xx_ll_fmc.c **** 
 635:Drivers/STM32H7xx_HAL_Driver/Src/stm32h7xx_ll_fmc.c **** /** @defgroup HAL_FMC_NAND_Group2 Peripheral Control functions
 636:Drivers/STM32H7xx_HAL_Driver/Src/stm32h7xx_ll_fmc.c ****   *  @brief   management functions
 637:Drivers/STM32H7xx_HAL_Driver/Src/stm32h7xx_ll_fmc.c ****   *
 638:Drivers/STM32H7xx_HAL_Driver/Src/stm32h7xx_ll_fmc.c **** @verbatim
 639:Drivers/STM32H7xx_HAL_Driver/Src/stm32h7xx_ll_fmc.c ****   ==============================================================================
 640:Drivers/STM32H7xx_HAL_Driver/Src/stm32h7xx_ll_fmc.c ****                        ##### FMC_NAND Control functions #####
 641:Drivers/STM32H7xx_HAL_Driver/Src/stm32h7xx_ll_fmc.c ****   ==============================================================================
 642:Drivers/STM32H7xx_HAL_Driver/Src/stm32h7xx_ll_fmc.c ****   [..]
 643:Drivers/STM32H7xx_HAL_Driver/Src/stm32h7xx_ll_fmc.c ****     This subsection provides a set of functions allowing to control dynamically
 644:Drivers/STM32H7xx_HAL_Driver/Src/stm32h7xx_ll_fmc.c ****     the FMC NAND interface.
 645:Drivers/STM32H7xx_HAL_Driver/Src/stm32h7xx_ll_fmc.c **** 
 646:Drivers/STM32H7xx_HAL_Driver/Src/stm32h7xx_ll_fmc.c **** @endverbatim
 647:Drivers/STM32H7xx_HAL_Driver/Src/stm32h7xx_ll_fmc.c ****   * @{
 648:Drivers/STM32H7xx_HAL_Driver/Src/stm32h7xx_ll_fmc.c ****   */
 649:Drivers/STM32H7xx_HAL_Driver/Src/stm32h7xx_ll_fmc.c **** 
 650:Drivers/STM32H7xx_HAL_Driver/Src/stm32h7xx_ll_fmc.c **** 
 651:Drivers/STM32H7xx_HAL_Driver/Src/stm32h7xx_ll_fmc.c **** /**
 652:Drivers/STM32H7xx_HAL_Driver/Src/stm32h7xx_ll_fmc.c ****   * @brief  Enables dynamically FMC_NAND ECC feature.
 653:Drivers/STM32H7xx_HAL_Driver/Src/stm32h7xx_ll_fmc.c ****   * @param  Device Pointer to NAND device instance
 654:Drivers/STM32H7xx_HAL_Driver/Src/stm32h7xx_ll_fmc.c ****   * @param  Bank NAND bank number
 655:Drivers/STM32H7xx_HAL_Driver/Src/stm32h7xx_ll_fmc.c ****   * @retval HAL status
 656:Drivers/STM32H7xx_HAL_Driver/Src/stm32h7xx_ll_fmc.c ****   */
 657:Drivers/STM32H7xx_HAL_Driver/Src/stm32h7xx_ll_fmc.c **** HAL_StatusTypeDef FMC_NAND_ECC_Enable(FMC_NAND_TypeDef *Device, uint32_t Bank)
 658:Drivers/STM32H7xx_HAL_Driver/Src/stm32h7xx_ll_fmc.c **** {
 699              		.loc 1 658 1 is_stmt 1 view -0
 700              		.cfi_startproc
 701              		@ args = 0, pretend = 0, frame = 0
 702              		@ frame_needed = 0, uses_anonymous_args = 0
 703              		@ link register save eliminated.
ARM GAS  /tmp/ccBBH4Jd.s 			page 25


 659:Drivers/STM32H7xx_HAL_Driver/Src/stm32h7xx_ll_fmc.c ****   /* Check the parameters */
 660:Drivers/STM32H7xx_HAL_Driver/Src/stm32h7xx_ll_fmc.c ****   assert_param(IS_FMC_NAND_DEVICE(Device));
 704              		.loc 1 660 3 view .LVU216
 661:Drivers/STM32H7xx_HAL_Driver/Src/stm32h7xx_ll_fmc.c ****   assert_param(IS_FMC_NAND_BANK(Bank));
 705              		.loc 1 661 3 view .LVU217
 662:Drivers/STM32H7xx_HAL_Driver/Src/stm32h7xx_ll_fmc.c **** 
 663:Drivers/STM32H7xx_HAL_Driver/Src/stm32h7xx_ll_fmc.c ****   /* Enable ECC feature */
 664:Drivers/STM32H7xx_HAL_Driver/Src/stm32h7xx_ll_fmc.c ****   /* Prevent unused argument(s) compilation warning if no assert_param check */
 665:Drivers/STM32H7xx_HAL_Driver/Src/stm32h7xx_ll_fmc.c ****   UNUSED(Bank);
 706              		.loc 1 665 3 view .LVU218
 666:Drivers/STM32H7xx_HAL_Driver/Src/stm32h7xx_ll_fmc.c **** 
 667:Drivers/STM32H7xx_HAL_Driver/Src/stm32h7xx_ll_fmc.c ****   SET_BIT(Device->PCR, FMC_PCR_ECCEN);
 707              		.loc 1 667 3 view .LVU219
 708 0000 0368     		ldr	r3, [r0]
 709 0002 43F04003 		orr	r3, r3, #64
 710 0006 0360     		str	r3, [r0]
 668:Drivers/STM32H7xx_HAL_Driver/Src/stm32h7xx_ll_fmc.c **** 
 669:Drivers/STM32H7xx_HAL_Driver/Src/stm32h7xx_ll_fmc.c ****   return HAL_OK;
 711              		.loc 1 669 3 view .LVU220
 670:Drivers/STM32H7xx_HAL_Driver/Src/stm32h7xx_ll_fmc.c **** }
 712              		.loc 1 670 1 is_stmt 0 view .LVU221
 713 0008 0020     		movs	r0, #0
 714              	.LVL44:
 715              		.loc 1 670 1 view .LVU222
 716 000a 7047     		bx	lr
 717              		.cfi_endproc
 718              	.LFE154:
 720              		.section	.text.FMC_NAND_ECC_Disable,"ax",%progbits
 721              		.align	1
 722              		.global	FMC_NAND_ECC_Disable
 723              		.syntax unified
 724              		.thumb
 725              		.thumb_func
 727              	FMC_NAND_ECC_Disable:
 728              	.LVL45:
 729              	.LFB155:
 671:Drivers/STM32H7xx_HAL_Driver/Src/stm32h7xx_ll_fmc.c **** 
 672:Drivers/STM32H7xx_HAL_Driver/Src/stm32h7xx_ll_fmc.c **** 
 673:Drivers/STM32H7xx_HAL_Driver/Src/stm32h7xx_ll_fmc.c **** /**
 674:Drivers/STM32H7xx_HAL_Driver/Src/stm32h7xx_ll_fmc.c ****   * @brief  Disables dynamically FMC_NAND ECC feature.
 675:Drivers/STM32H7xx_HAL_Driver/Src/stm32h7xx_ll_fmc.c ****   * @param  Device Pointer to NAND device instance
 676:Drivers/STM32H7xx_HAL_Driver/Src/stm32h7xx_ll_fmc.c ****   * @param  Bank NAND bank number
 677:Drivers/STM32H7xx_HAL_Driver/Src/stm32h7xx_ll_fmc.c ****   * @retval HAL status
 678:Drivers/STM32H7xx_HAL_Driver/Src/stm32h7xx_ll_fmc.c ****   */
 679:Drivers/STM32H7xx_HAL_Driver/Src/stm32h7xx_ll_fmc.c **** HAL_StatusTypeDef FMC_NAND_ECC_Disable(FMC_NAND_TypeDef *Device, uint32_t Bank)
 680:Drivers/STM32H7xx_HAL_Driver/Src/stm32h7xx_ll_fmc.c **** {
 730              		.loc 1 680 1 is_stmt 1 view -0
 731              		.cfi_startproc
 732              		@ args = 0, pretend = 0, frame = 0
 733              		@ frame_needed = 0, uses_anonymous_args = 0
 734              		@ link register save eliminated.
 681:Drivers/STM32H7xx_HAL_Driver/Src/stm32h7xx_ll_fmc.c ****   /* Check the parameters */
 682:Drivers/STM32H7xx_HAL_Driver/Src/stm32h7xx_ll_fmc.c ****   assert_param(IS_FMC_NAND_DEVICE(Device));
 735              		.loc 1 682 3 view .LVU224
 683:Drivers/STM32H7xx_HAL_Driver/Src/stm32h7xx_ll_fmc.c ****   assert_param(IS_FMC_NAND_BANK(Bank));
 736              		.loc 1 683 3 view .LVU225
 684:Drivers/STM32H7xx_HAL_Driver/Src/stm32h7xx_ll_fmc.c **** 
ARM GAS  /tmp/ccBBH4Jd.s 			page 26


 685:Drivers/STM32H7xx_HAL_Driver/Src/stm32h7xx_ll_fmc.c ****   /* Disable ECC feature */
 686:Drivers/STM32H7xx_HAL_Driver/Src/stm32h7xx_ll_fmc.c ****   /* Prevent unused argument(s) compilation warning if no assert_param check */
 687:Drivers/STM32H7xx_HAL_Driver/Src/stm32h7xx_ll_fmc.c ****   UNUSED(Bank);
 737              		.loc 1 687 3 view .LVU226
 688:Drivers/STM32H7xx_HAL_Driver/Src/stm32h7xx_ll_fmc.c **** 
 689:Drivers/STM32H7xx_HAL_Driver/Src/stm32h7xx_ll_fmc.c ****   CLEAR_BIT(Device->PCR, FMC_PCR_ECCEN);
 738              		.loc 1 689 3 view .LVU227
 739 0000 0368     		ldr	r3, [r0]
 740 0002 23F04003 		bic	r3, r3, #64
 741 0006 0360     		str	r3, [r0]
 690:Drivers/STM32H7xx_HAL_Driver/Src/stm32h7xx_ll_fmc.c **** 
 691:Drivers/STM32H7xx_HAL_Driver/Src/stm32h7xx_ll_fmc.c ****   return HAL_OK;
 742              		.loc 1 691 3 view .LVU228
 692:Drivers/STM32H7xx_HAL_Driver/Src/stm32h7xx_ll_fmc.c **** }
 743              		.loc 1 692 1 is_stmt 0 view .LVU229
 744 0008 0020     		movs	r0, #0
 745              	.LVL46:
 746              		.loc 1 692 1 view .LVU230
 747 000a 7047     		bx	lr
 748              		.cfi_endproc
 749              	.LFE155:
 751              		.section	.text.FMC_NAND_GetECC,"ax",%progbits
 752              		.align	1
 753              		.global	FMC_NAND_GetECC
 754              		.syntax unified
 755              		.thumb
 756              		.thumb_func
 758              	FMC_NAND_GetECC:
 759              	.LVL47:
 760              	.LFB156:
 693:Drivers/STM32H7xx_HAL_Driver/Src/stm32h7xx_ll_fmc.c **** 
 694:Drivers/STM32H7xx_HAL_Driver/Src/stm32h7xx_ll_fmc.c **** /**
 695:Drivers/STM32H7xx_HAL_Driver/Src/stm32h7xx_ll_fmc.c ****   * @brief  Disables dynamically FMC_NAND ECC feature.
 696:Drivers/STM32H7xx_HAL_Driver/Src/stm32h7xx_ll_fmc.c ****   * @param  Device Pointer to NAND device instance
 697:Drivers/STM32H7xx_HAL_Driver/Src/stm32h7xx_ll_fmc.c ****   * @param  ECCval Pointer to ECC value
 698:Drivers/STM32H7xx_HAL_Driver/Src/stm32h7xx_ll_fmc.c ****   * @param  Bank NAND bank number
 699:Drivers/STM32H7xx_HAL_Driver/Src/stm32h7xx_ll_fmc.c ****   * @param  Timeout Timeout wait value
 700:Drivers/STM32H7xx_HAL_Driver/Src/stm32h7xx_ll_fmc.c ****   * @retval HAL status
 701:Drivers/STM32H7xx_HAL_Driver/Src/stm32h7xx_ll_fmc.c ****   */
 702:Drivers/STM32H7xx_HAL_Driver/Src/stm32h7xx_ll_fmc.c **** HAL_StatusTypeDef FMC_NAND_GetECC(FMC_NAND_TypeDef *Device, uint32_t *ECCval, uint32_t Bank,
 703:Drivers/STM32H7xx_HAL_Driver/Src/stm32h7xx_ll_fmc.c ****                                   uint32_t Timeout)
 704:Drivers/STM32H7xx_HAL_Driver/Src/stm32h7xx_ll_fmc.c **** {
 761              		.loc 1 704 1 is_stmt 1 view -0
 762              		.cfi_startproc
 763              		@ args = 0, pretend = 0, frame = 0
 764              		@ frame_needed = 0, uses_anonymous_args = 0
 765              		.loc 1 704 1 is_stmt 0 view .LVU232
 766 0000 F8B5     		push	{r3, r4, r5, r6, r7, lr}
 767              	.LCFI8:
 768              		.cfi_def_cfa_offset 24
 769              		.cfi_offset 3, -24
 770              		.cfi_offset 4, -20
 771              		.cfi_offset 5, -16
 772              		.cfi_offset 6, -12
 773              		.cfi_offset 7, -8
 774              		.cfi_offset 14, -4
 775 0002 0446     		mov	r4, r0
ARM GAS  /tmp/ccBBH4Jd.s 			page 27


 776 0004 0E46     		mov	r6, r1
 777 0006 1D46     		mov	r5, r3
 705:Drivers/STM32H7xx_HAL_Driver/Src/stm32h7xx_ll_fmc.c ****   uint32_t tickstart;
 778              		.loc 1 705 3 is_stmt 1 view .LVU233
 706:Drivers/STM32H7xx_HAL_Driver/Src/stm32h7xx_ll_fmc.c **** 
 707:Drivers/STM32H7xx_HAL_Driver/Src/stm32h7xx_ll_fmc.c ****   /* Check the parameters */
 708:Drivers/STM32H7xx_HAL_Driver/Src/stm32h7xx_ll_fmc.c ****   assert_param(IS_FMC_NAND_DEVICE(Device));
 779              		.loc 1 708 3 view .LVU234
 709:Drivers/STM32H7xx_HAL_Driver/Src/stm32h7xx_ll_fmc.c ****   assert_param(IS_FMC_NAND_BANK(Bank));
 780              		.loc 1 709 3 view .LVU235
 710:Drivers/STM32H7xx_HAL_Driver/Src/stm32h7xx_ll_fmc.c **** 
 711:Drivers/STM32H7xx_HAL_Driver/Src/stm32h7xx_ll_fmc.c ****   /* Get tick */
 712:Drivers/STM32H7xx_HAL_Driver/Src/stm32h7xx_ll_fmc.c ****   tickstart = HAL_GetTick();
 781              		.loc 1 712 3 view .LVU236
 782              		.loc 1 712 15 is_stmt 0 view .LVU237
 783 0008 FFF7FEFF 		bl	HAL_GetTick
 784              	.LVL48:
 785              		.loc 1 712 15 view .LVU238
 786 000c 0746     		mov	r7, r0
 787              	.LVL49:
 713:Drivers/STM32H7xx_HAL_Driver/Src/stm32h7xx_ll_fmc.c **** 
 714:Drivers/STM32H7xx_HAL_Driver/Src/stm32h7xx_ll_fmc.c ****   /* Wait until FIFO is empty */
 715:Drivers/STM32H7xx_HAL_Driver/Src/stm32h7xx_ll_fmc.c ****   while (__FMC_NAND_GET_FLAG(Device, Bank, FMC_FLAG_FEMPT) == RESET)
 788              		.loc 1 715 3 is_stmt 1 view .LVU239
 789              	.L40:
 790              		.loc 1 715 9 view .LVU240
 791              		.loc 1 715 10 is_stmt 0 view .LVU241
 792 000e 6268     		ldr	r2, [r4, #4]
 793              		.loc 1 715 9 view .LVU242
 794 0010 12F0400F 		tst	r2, #64
 795 0014 0BD1     		bne	.L46
 716:Drivers/STM32H7xx_HAL_Driver/Src/stm32h7xx_ll_fmc.c ****   {
 717:Drivers/STM32H7xx_HAL_Driver/Src/stm32h7xx_ll_fmc.c ****     /* Check for the Timeout */
 718:Drivers/STM32H7xx_HAL_Driver/Src/stm32h7xx_ll_fmc.c ****     if (Timeout != HAL_MAX_DELAY)
 796              		.loc 1 718 5 is_stmt 1 view .LVU243
 797              		.loc 1 718 8 is_stmt 0 view .LVU244
 798 0016 B5F1FF3F 		cmp	r5, #-1
 799 001a F8D0     		beq	.L40
 719:Drivers/STM32H7xx_HAL_Driver/Src/stm32h7xx_ll_fmc.c ****     {
 720:Drivers/STM32H7xx_HAL_Driver/Src/stm32h7xx_ll_fmc.c ****       if (((HAL_GetTick() - tickstart) > Timeout) || (Timeout == 0U))
 800              		.loc 1 720 7 is_stmt 1 view .LVU245
 801              		.loc 1 720 13 is_stmt 0 view .LVU246
 802 001c FFF7FEFF 		bl	HAL_GetTick
 803              	.LVL50:
 804              		.loc 1 720 27 view .LVU247
 805 0020 C01B     		subs	r0, r0, r7
 806              		.loc 1 720 10 view .LVU248
 807 0022 A842     		cmp	r0, r5
 808 0024 07D8     		bhi	.L43
 809              		.loc 1 720 51 discriminator 1 view .LVU249
 810 0026 002D     		cmp	r5, #0
 811 0028 F1D1     		bne	.L40
 721:Drivers/STM32H7xx_HAL_Driver/Src/stm32h7xx_ll_fmc.c ****       {
 722:Drivers/STM32H7xx_HAL_Driver/Src/stm32h7xx_ll_fmc.c ****         return HAL_TIMEOUT;
 812              		.loc 1 722 16 view .LVU250
 813 002a 0320     		movs	r0, #3
 814 002c 02E0     		b	.L41
ARM GAS  /tmp/ccBBH4Jd.s 			page 28


 815              	.L46:
 723:Drivers/STM32H7xx_HAL_Driver/Src/stm32h7xx_ll_fmc.c ****       }
 724:Drivers/STM32H7xx_HAL_Driver/Src/stm32h7xx_ll_fmc.c ****     }
 725:Drivers/STM32H7xx_HAL_Driver/Src/stm32h7xx_ll_fmc.c ****   }
 726:Drivers/STM32H7xx_HAL_Driver/Src/stm32h7xx_ll_fmc.c **** 
 727:Drivers/STM32H7xx_HAL_Driver/Src/stm32h7xx_ll_fmc.c ****   /* Prevent unused argument(s) compilation warning if no assert_param check */
 728:Drivers/STM32H7xx_HAL_Driver/Src/stm32h7xx_ll_fmc.c ****   UNUSED(Bank);
 816              		.loc 1 728 3 is_stmt 1 view .LVU251
 729:Drivers/STM32H7xx_HAL_Driver/Src/stm32h7xx_ll_fmc.c **** 
 730:Drivers/STM32H7xx_HAL_Driver/Src/stm32h7xx_ll_fmc.c ****   /* Get the ECCR register value */
 731:Drivers/STM32H7xx_HAL_Driver/Src/stm32h7xx_ll_fmc.c ****   *ECCval = (uint32_t)Device->ECCR;
 817              		.loc 1 731 3 view .LVU252
 818              		.loc 1 731 29 is_stmt 0 view .LVU253
 819 002e 6369     		ldr	r3, [r4, #20]
 820              		.loc 1 731 11 view .LVU254
 821 0030 3360     		str	r3, [r6]
 732:Drivers/STM32H7xx_HAL_Driver/Src/stm32h7xx_ll_fmc.c **** 
 733:Drivers/STM32H7xx_HAL_Driver/Src/stm32h7xx_ll_fmc.c ****   return HAL_OK;
 822              		.loc 1 733 3 is_stmt 1 view .LVU255
 823              		.loc 1 733 10 is_stmt 0 view .LVU256
 824 0032 0020     		movs	r0, #0
 825              	.L41:
 734:Drivers/STM32H7xx_HAL_Driver/Src/stm32h7xx_ll_fmc.c **** }
 826              		.loc 1 734 1 view .LVU257
 827 0034 F8BD     		pop	{r3, r4, r5, r6, r7, pc}
 828              	.LVL51:
 829              	.L43:
 722:Drivers/STM32H7xx_HAL_Driver/Src/stm32h7xx_ll_fmc.c ****       }
 830              		.loc 1 722 16 view .LVU258
 831 0036 0320     		movs	r0, #3
 832 0038 FCE7     		b	.L41
 833              		.cfi_endproc
 834              	.LFE156:
 836              		.section	.text.FMC_SDRAM_Init,"ax",%progbits
 837              		.align	1
 838              		.global	FMC_SDRAM_Init
 839              		.syntax unified
 840              		.thumb
 841              		.thumb_func
 843              	FMC_SDRAM_Init:
 844              	.LVL52:
 845              	.LFB157:
 735:Drivers/STM32H7xx_HAL_Driver/Src/stm32h7xx_ll_fmc.c **** 
 736:Drivers/STM32H7xx_HAL_Driver/Src/stm32h7xx_ll_fmc.c **** /**
 737:Drivers/STM32H7xx_HAL_Driver/Src/stm32h7xx_ll_fmc.c ****   * @}
 738:Drivers/STM32H7xx_HAL_Driver/Src/stm32h7xx_ll_fmc.c ****   */
 739:Drivers/STM32H7xx_HAL_Driver/Src/stm32h7xx_ll_fmc.c **** 
 740:Drivers/STM32H7xx_HAL_Driver/Src/stm32h7xx_ll_fmc.c **** 
 741:Drivers/STM32H7xx_HAL_Driver/Src/stm32h7xx_ll_fmc.c **** 
 742:Drivers/STM32H7xx_HAL_Driver/Src/stm32h7xx_ll_fmc.c **** /** @defgroup FMC_LL_SDRAM
 743:Drivers/STM32H7xx_HAL_Driver/Src/stm32h7xx_ll_fmc.c ****   * @brief    SDRAM Controller functions
 744:Drivers/STM32H7xx_HAL_Driver/Src/stm32h7xx_ll_fmc.c ****   *
 745:Drivers/STM32H7xx_HAL_Driver/Src/stm32h7xx_ll_fmc.c ****   @verbatim
 746:Drivers/STM32H7xx_HAL_Driver/Src/stm32h7xx_ll_fmc.c ****   ==============================================================================
 747:Drivers/STM32H7xx_HAL_Driver/Src/stm32h7xx_ll_fmc.c ****                      ##### How to use SDRAM device driver #####
 748:Drivers/STM32H7xx_HAL_Driver/Src/stm32h7xx_ll_fmc.c ****   ==============================================================================
 749:Drivers/STM32H7xx_HAL_Driver/Src/stm32h7xx_ll_fmc.c ****   [..]
ARM GAS  /tmp/ccBBH4Jd.s 			page 29


 750:Drivers/STM32H7xx_HAL_Driver/Src/stm32h7xx_ll_fmc.c ****     This driver contains a set of APIs to interface with the FMC SDRAM banks in order
 751:Drivers/STM32H7xx_HAL_Driver/Src/stm32h7xx_ll_fmc.c ****     to run the SDRAM external devices.
 752:Drivers/STM32H7xx_HAL_Driver/Src/stm32h7xx_ll_fmc.c **** 
 753:Drivers/STM32H7xx_HAL_Driver/Src/stm32h7xx_ll_fmc.c ****     (+) FMC SDRAM bank reset using the function FMC_SDRAM_DeInit()
 754:Drivers/STM32H7xx_HAL_Driver/Src/stm32h7xx_ll_fmc.c ****     (+) FMC SDRAM bank control configuration using the function FMC_SDRAM_Init()
 755:Drivers/STM32H7xx_HAL_Driver/Src/stm32h7xx_ll_fmc.c ****     (+) FMC SDRAM bank timing configuration using the function FMC_SDRAM_Timing_Init()
 756:Drivers/STM32H7xx_HAL_Driver/Src/stm32h7xx_ll_fmc.c ****     (+) FMC SDRAM bank enable/disable write operation using the functions
 757:Drivers/STM32H7xx_HAL_Driver/Src/stm32h7xx_ll_fmc.c ****         FMC_SDRAM_WriteOperation_Enable()/FMC_SDRAM_WriteOperation_Disable()
 758:Drivers/STM32H7xx_HAL_Driver/Src/stm32h7xx_ll_fmc.c ****     (+) FMC SDRAM bank send command using the function FMC_SDRAM_SendCommand()
 759:Drivers/STM32H7xx_HAL_Driver/Src/stm32h7xx_ll_fmc.c **** 
 760:Drivers/STM32H7xx_HAL_Driver/Src/stm32h7xx_ll_fmc.c **** @endverbatim
 761:Drivers/STM32H7xx_HAL_Driver/Src/stm32h7xx_ll_fmc.c ****   * @{
 762:Drivers/STM32H7xx_HAL_Driver/Src/stm32h7xx_ll_fmc.c ****   */
 763:Drivers/STM32H7xx_HAL_Driver/Src/stm32h7xx_ll_fmc.c **** 
 764:Drivers/STM32H7xx_HAL_Driver/Src/stm32h7xx_ll_fmc.c **** /** @addtogroup FMC_LL_SDRAM_Private_Functions_Group1
 765:Drivers/STM32H7xx_HAL_Driver/Src/stm32h7xx_ll_fmc.c ****   *  @brief    Initialization and Configuration functions
 766:Drivers/STM32H7xx_HAL_Driver/Src/stm32h7xx_ll_fmc.c ****   *
 767:Drivers/STM32H7xx_HAL_Driver/Src/stm32h7xx_ll_fmc.c **** @verbatim
 768:Drivers/STM32H7xx_HAL_Driver/Src/stm32h7xx_ll_fmc.c ****   ==============================================================================
 769:Drivers/STM32H7xx_HAL_Driver/Src/stm32h7xx_ll_fmc.c ****               ##### Initialization and de_initialization functions #####
 770:Drivers/STM32H7xx_HAL_Driver/Src/stm32h7xx_ll_fmc.c ****   ==============================================================================
 771:Drivers/STM32H7xx_HAL_Driver/Src/stm32h7xx_ll_fmc.c ****   [..]
 772:Drivers/STM32H7xx_HAL_Driver/Src/stm32h7xx_ll_fmc.c ****     This section provides functions allowing to:
 773:Drivers/STM32H7xx_HAL_Driver/Src/stm32h7xx_ll_fmc.c ****     (+) Initialize and configure the FMC SDRAM interface
 774:Drivers/STM32H7xx_HAL_Driver/Src/stm32h7xx_ll_fmc.c ****     (+) De-initialize the FMC SDRAM interface
 775:Drivers/STM32H7xx_HAL_Driver/Src/stm32h7xx_ll_fmc.c ****     (+) Configure the FMC clock and associated GPIOs
 776:Drivers/STM32H7xx_HAL_Driver/Src/stm32h7xx_ll_fmc.c **** 
 777:Drivers/STM32H7xx_HAL_Driver/Src/stm32h7xx_ll_fmc.c **** @endverbatim
 778:Drivers/STM32H7xx_HAL_Driver/Src/stm32h7xx_ll_fmc.c ****   * @{
 779:Drivers/STM32H7xx_HAL_Driver/Src/stm32h7xx_ll_fmc.c ****   */
 780:Drivers/STM32H7xx_HAL_Driver/Src/stm32h7xx_ll_fmc.c **** 
 781:Drivers/STM32H7xx_HAL_Driver/Src/stm32h7xx_ll_fmc.c **** /**
 782:Drivers/STM32H7xx_HAL_Driver/Src/stm32h7xx_ll_fmc.c ****   * @brief  Initializes the FMC_SDRAM device according to the specified
 783:Drivers/STM32H7xx_HAL_Driver/Src/stm32h7xx_ll_fmc.c ****   *         control parameters in the FMC_SDRAM_InitTypeDef
 784:Drivers/STM32H7xx_HAL_Driver/Src/stm32h7xx_ll_fmc.c ****   * @param  Device Pointer to SDRAM device instance
 785:Drivers/STM32H7xx_HAL_Driver/Src/stm32h7xx_ll_fmc.c ****   * @param  Init Pointer to SDRAM Initialization structure
 786:Drivers/STM32H7xx_HAL_Driver/Src/stm32h7xx_ll_fmc.c ****   * @retval HAL status
 787:Drivers/STM32H7xx_HAL_Driver/Src/stm32h7xx_ll_fmc.c ****   */
 788:Drivers/STM32H7xx_HAL_Driver/Src/stm32h7xx_ll_fmc.c **** HAL_StatusTypeDef FMC_SDRAM_Init(FMC_SDRAM_TypeDef *Device, FMC_SDRAM_InitTypeDef *Init)
 789:Drivers/STM32H7xx_HAL_Driver/Src/stm32h7xx_ll_fmc.c **** {
 846              		.loc 1 789 1 is_stmt 1 view -0
 847              		.cfi_startproc
 848              		@ args = 0, pretend = 0, frame = 0
 849              		@ frame_needed = 0, uses_anonymous_args = 0
 850              		@ link register save eliminated.
 851              		.loc 1 789 1 is_stmt 0 view .LVU260
 852 0000 10B4     		push	{r4}
 853              	.LCFI9:
 854              		.cfi_def_cfa_offset 4
 855              		.cfi_offset 4, -4
 790:Drivers/STM32H7xx_HAL_Driver/Src/stm32h7xx_ll_fmc.c ****   /* Check the parameters */
 791:Drivers/STM32H7xx_HAL_Driver/Src/stm32h7xx_ll_fmc.c ****   assert_param(IS_FMC_SDRAM_DEVICE(Device));
 856              		.loc 1 791 3 is_stmt 1 view .LVU261
 792:Drivers/STM32H7xx_HAL_Driver/Src/stm32h7xx_ll_fmc.c ****   assert_param(IS_FMC_SDRAM_BANK(Init->SDBank));
 857              		.loc 1 792 3 view .LVU262
 793:Drivers/STM32H7xx_HAL_Driver/Src/stm32h7xx_ll_fmc.c ****   assert_param(IS_FMC_COLUMNBITS_NUMBER(Init->ColumnBitsNumber));
 858              		.loc 1 793 3 view .LVU263
ARM GAS  /tmp/ccBBH4Jd.s 			page 30


 794:Drivers/STM32H7xx_HAL_Driver/Src/stm32h7xx_ll_fmc.c ****   assert_param(IS_FMC_ROWBITS_NUMBER(Init->RowBitsNumber));
 859              		.loc 1 794 3 view .LVU264
 795:Drivers/STM32H7xx_HAL_Driver/Src/stm32h7xx_ll_fmc.c ****   assert_param(IS_FMC_SDMEMORY_WIDTH(Init->MemoryDataWidth));
 860              		.loc 1 795 3 view .LVU265
 796:Drivers/STM32H7xx_HAL_Driver/Src/stm32h7xx_ll_fmc.c ****   assert_param(IS_FMC_INTERNALBANK_NUMBER(Init->InternalBankNumber));
 861              		.loc 1 796 3 view .LVU266
 797:Drivers/STM32H7xx_HAL_Driver/Src/stm32h7xx_ll_fmc.c ****   assert_param(IS_FMC_CAS_LATENCY(Init->CASLatency));
 862              		.loc 1 797 3 view .LVU267
 798:Drivers/STM32H7xx_HAL_Driver/Src/stm32h7xx_ll_fmc.c ****   assert_param(IS_FMC_WRITE_PROTECTION(Init->WriteProtection));
 863              		.loc 1 798 3 view .LVU268
 799:Drivers/STM32H7xx_HAL_Driver/Src/stm32h7xx_ll_fmc.c ****   assert_param(IS_FMC_SDCLOCK_PERIOD(Init->SDClockPeriod));
 864              		.loc 1 799 3 view .LVU269
 800:Drivers/STM32H7xx_HAL_Driver/Src/stm32h7xx_ll_fmc.c ****   assert_param(IS_FMC_READ_BURST(Init->ReadBurst));
 865              		.loc 1 800 3 view .LVU270
 801:Drivers/STM32H7xx_HAL_Driver/Src/stm32h7xx_ll_fmc.c ****   assert_param(IS_FMC_READPIPE_DELAY(Init->ReadPipeDelay));
 866              		.loc 1 801 3 view .LVU271
 802:Drivers/STM32H7xx_HAL_Driver/Src/stm32h7xx_ll_fmc.c **** 
 803:Drivers/STM32H7xx_HAL_Driver/Src/stm32h7xx_ll_fmc.c ****   /* Set SDRAM bank configuration parameters */
 804:Drivers/STM32H7xx_HAL_Driver/Src/stm32h7xx_ll_fmc.c ****   if (Init->SDBank == FMC_SDRAM_BANK1)
 867              		.loc 1 804 3 view .LVU272
 868              		.loc 1 804 11 is_stmt 0 view .LVU273
 869 0002 0B68     		ldr	r3, [r1]
 870              		.loc 1 804 6 view .LVU274
 871 0004 CBB9     		cbnz	r3, .L48
 805:Drivers/STM32H7xx_HAL_Driver/Src/stm32h7xx_ll_fmc.c ****   {
 806:Drivers/STM32H7xx_HAL_Driver/Src/stm32h7xx_ll_fmc.c ****     MODIFY_REG(Device->SDCR[FMC_SDRAM_BANK1],
 872              		.loc 1 806 5 is_stmt 1 view .LVU275
 873 0006 0368     		ldr	r3, [r0]
 874 0008 194A     		ldr	r2, .L51
 875 000a 1A40     		ands	r2, r2, r3
 876 000c 4B68     		ldr	r3, [r1, #4]
 877 000e 8C68     		ldr	r4, [r1, #8]
 878 0010 2343     		orrs	r3, r3, r4
 879 0012 CC68     		ldr	r4, [r1, #12]
 880 0014 2343     		orrs	r3, r3, r4
 881 0016 0C69     		ldr	r4, [r1, #16]
 882 0018 2343     		orrs	r3, r3, r4
 883 001a 4C69     		ldr	r4, [r1, #20]
 884 001c 2343     		orrs	r3, r3, r4
 885 001e 8C69     		ldr	r4, [r1, #24]
 886 0020 2343     		orrs	r3, r3, r4
 887 0022 CC69     		ldr	r4, [r1, #28]
 888 0024 2343     		orrs	r3, r3, r4
 889 0026 0C6A     		ldr	r4, [r1, #32]
 890 0028 2343     		orrs	r3, r3, r4
 891 002a 496A     		ldr	r1, [r1, #36]
 892              	.LVL53:
 893              		.loc 1 806 5 is_stmt 0 view .LVU276
 894 002c 0B43     		orrs	r3, r3, r1
 895 002e 1343     		orrs	r3, r3, r2
 896 0030 0360     		str	r3, [r0]
 897              	.L49:
 807:Drivers/STM32H7xx_HAL_Driver/Src/stm32h7xx_ll_fmc.c ****                SDCR_CLEAR_MASK,
 808:Drivers/STM32H7xx_HAL_Driver/Src/stm32h7xx_ll_fmc.c ****                (Init->ColumnBitsNumber   |
 809:Drivers/STM32H7xx_HAL_Driver/Src/stm32h7xx_ll_fmc.c ****                 Init->RowBitsNumber      |
 810:Drivers/STM32H7xx_HAL_Driver/Src/stm32h7xx_ll_fmc.c ****                 Init->MemoryDataWidth    |
 811:Drivers/STM32H7xx_HAL_Driver/Src/stm32h7xx_ll_fmc.c ****                 Init->InternalBankNumber |
ARM GAS  /tmp/ccBBH4Jd.s 			page 31


 812:Drivers/STM32H7xx_HAL_Driver/Src/stm32h7xx_ll_fmc.c ****                 Init->CASLatency         |
 813:Drivers/STM32H7xx_HAL_Driver/Src/stm32h7xx_ll_fmc.c ****                 Init->WriteProtection    |
 814:Drivers/STM32H7xx_HAL_Driver/Src/stm32h7xx_ll_fmc.c ****                 Init->SDClockPeriod      |
 815:Drivers/STM32H7xx_HAL_Driver/Src/stm32h7xx_ll_fmc.c ****                 Init->ReadBurst          |
 816:Drivers/STM32H7xx_HAL_Driver/Src/stm32h7xx_ll_fmc.c ****                 Init->ReadPipeDelay));
 817:Drivers/STM32H7xx_HAL_Driver/Src/stm32h7xx_ll_fmc.c ****   }
 818:Drivers/STM32H7xx_HAL_Driver/Src/stm32h7xx_ll_fmc.c ****   else /* FMC_Bank2_SDRAM */
 819:Drivers/STM32H7xx_HAL_Driver/Src/stm32h7xx_ll_fmc.c ****   {
 820:Drivers/STM32H7xx_HAL_Driver/Src/stm32h7xx_ll_fmc.c ****     MODIFY_REG(Device->SDCR[FMC_SDRAM_BANK1],
 821:Drivers/STM32H7xx_HAL_Driver/Src/stm32h7xx_ll_fmc.c ****                FMC_SDCRx_SDCLK           |
 822:Drivers/STM32H7xx_HAL_Driver/Src/stm32h7xx_ll_fmc.c ****                FMC_SDCRx_RBURST          |
 823:Drivers/STM32H7xx_HAL_Driver/Src/stm32h7xx_ll_fmc.c ****                FMC_SDCRx_RPIPE,
 824:Drivers/STM32H7xx_HAL_Driver/Src/stm32h7xx_ll_fmc.c ****                (Init->SDClockPeriod      |
 825:Drivers/STM32H7xx_HAL_Driver/Src/stm32h7xx_ll_fmc.c ****                 Init->ReadBurst          |
 826:Drivers/STM32H7xx_HAL_Driver/Src/stm32h7xx_ll_fmc.c ****                 Init->ReadPipeDelay));
 827:Drivers/STM32H7xx_HAL_Driver/Src/stm32h7xx_ll_fmc.c **** 
 828:Drivers/STM32H7xx_HAL_Driver/Src/stm32h7xx_ll_fmc.c ****     MODIFY_REG(Device->SDCR[FMC_SDRAM_BANK2],
 829:Drivers/STM32H7xx_HAL_Driver/Src/stm32h7xx_ll_fmc.c ****                SDCR_CLEAR_MASK,
 830:Drivers/STM32H7xx_HAL_Driver/Src/stm32h7xx_ll_fmc.c ****                (Init->ColumnBitsNumber   |
 831:Drivers/STM32H7xx_HAL_Driver/Src/stm32h7xx_ll_fmc.c ****                 Init->RowBitsNumber      |
 832:Drivers/STM32H7xx_HAL_Driver/Src/stm32h7xx_ll_fmc.c ****                 Init->MemoryDataWidth    |
 833:Drivers/STM32H7xx_HAL_Driver/Src/stm32h7xx_ll_fmc.c ****                 Init->InternalBankNumber |
 834:Drivers/STM32H7xx_HAL_Driver/Src/stm32h7xx_ll_fmc.c ****                 Init->CASLatency         |
 835:Drivers/STM32H7xx_HAL_Driver/Src/stm32h7xx_ll_fmc.c ****                 Init->WriteProtection));
 836:Drivers/STM32H7xx_HAL_Driver/Src/stm32h7xx_ll_fmc.c ****   }
 837:Drivers/STM32H7xx_HAL_Driver/Src/stm32h7xx_ll_fmc.c **** 
 838:Drivers/STM32H7xx_HAL_Driver/Src/stm32h7xx_ll_fmc.c ****   return HAL_OK;
 898              		.loc 1 838 3 is_stmt 1 view .LVU277
 839:Drivers/STM32H7xx_HAL_Driver/Src/stm32h7xx_ll_fmc.c **** }
 899              		.loc 1 839 1 is_stmt 0 view .LVU278
 900 0032 0020     		movs	r0, #0
 901              	.LVL54:
 902              		.loc 1 839 1 view .LVU279
 903 0034 5DF8044B 		ldr	r4, [sp], #4
 904              	.LCFI10:
 905              		.cfi_remember_state
 906              		.cfi_restore 4
 907              		.cfi_def_cfa_offset 0
 908 0038 7047     		bx	lr
 909              	.LVL55:
 910              	.L48:
 911              	.LCFI11:
 912              		.cfi_restore_state
 820:Drivers/STM32H7xx_HAL_Driver/Src/stm32h7xx_ll_fmc.c ****                FMC_SDCRx_SDCLK           |
 913              		.loc 1 820 5 is_stmt 1 view .LVU280
 914 003a 0368     		ldr	r3, [r0]
 915 003c 23F4F843 		bic	r3, r3, #31744
 916 0040 CA69     		ldr	r2, [r1, #28]
 917 0042 0C6A     		ldr	r4, [r1, #32]
 918 0044 2243     		orrs	r2, r2, r4
 919 0046 4C6A     		ldr	r4, [r1, #36]
 920 0048 2243     		orrs	r2, r2, r4
 921 004a 1343     		orrs	r3, r3, r2
 922 004c 0360     		str	r3, [r0]
 828:Drivers/STM32H7xx_HAL_Driver/Src/stm32h7xx_ll_fmc.c ****                SDCR_CLEAR_MASK,
 923              		.loc 1 828 5 view .LVU281
 924 004e 4368     		ldr	r3, [r0, #4]
ARM GAS  /tmp/ccBBH4Jd.s 			page 32


 925 0050 074A     		ldr	r2, .L51
 926 0052 1A40     		ands	r2, r2, r3
 927 0054 4B68     		ldr	r3, [r1, #4]
 928 0056 8C68     		ldr	r4, [r1, #8]
 929 0058 2343     		orrs	r3, r3, r4
 930 005a CC68     		ldr	r4, [r1, #12]
 931 005c 2343     		orrs	r3, r3, r4
 932 005e 0C69     		ldr	r4, [r1, #16]
 933 0060 2343     		orrs	r3, r3, r4
 934 0062 4C69     		ldr	r4, [r1, #20]
 935 0064 2343     		orrs	r3, r3, r4
 936 0066 8969     		ldr	r1, [r1, #24]
 937              	.LVL56:
 828:Drivers/STM32H7xx_HAL_Driver/Src/stm32h7xx_ll_fmc.c ****                SDCR_CLEAR_MASK,
 938              		.loc 1 828 5 is_stmt 0 view .LVU282
 939 0068 0B43     		orrs	r3, r3, r1
 940 006a 1343     		orrs	r3, r3, r2
 941 006c 4360     		str	r3, [r0, #4]
 942 006e E0E7     		b	.L49
 943              	.L52:
 944              		.align	2
 945              	.L51:
 946 0070 0080FFFF 		.word	-32768
 947              		.cfi_endproc
 948              	.LFE157:
 950              		.section	.text.FMC_SDRAM_Timing_Init,"ax",%progbits
 951              		.align	1
 952              		.global	FMC_SDRAM_Timing_Init
 953              		.syntax unified
 954              		.thumb
 955              		.thumb_func
 957              	FMC_SDRAM_Timing_Init:
 958              	.LVL57:
 959              	.LFB158:
 840:Drivers/STM32H7xx_HAL_Driver/Src/stm32h7xx_ll_fmc.c **** 
 841:Drivers/STM32H7xx_HAL_Driver/Src/stm32h7xx_ll_fmc.c **** 
 842:Drivers/STM32H7xx_HAL_Driver/Src/stm32h7xx_ll_fmc.c **** /**
 843:Drivers/STM32H7xx_HAL_Driver/Src/stm32h7xx_ll_fmc.c ****   * @brief  Initializes the FMC_SDRAM device timing according to the specified
 844:Drivers/STM32H7xx_HAL_Driver/Src/stm32h7xx_ll_fmc.c ****   *         parameters in the FMC_SDRAM_TimingTypeDef
 845:Drivers/STM32H7xx_HAL_Driver/Src/stm32h7xx_ll_fmc.c ****   * @param  Device Pointer to SDRAM device instance
 846:Drivers/STM32H7xx_HAL_Driver/Src/stm32h7xx_ll_fmc.c ****   * @param  Timing Pointer to SDRAM Timing structure
 847:Drivers/STM32H7xx_HAL_Driver/Src/stm32h7xx_ll_fmc.c ****   * @param  Bank SDRAM bank number
 848:Drivers/STM32H7xx_HAL_Driver/Src/stm32h7xx_ll_fmc.c ****   * @retval HAL status
 849:Drivers/STM32H7xx_HAL_Driver/Src/stm32h7xx_ll_fmc.c ****   */
 850:Drivers/STM32H7xx_HAL_Driver/Src/stm32h7xx_ll_fmc.c **** HAL_StatusTypeDef FMC_SDRAM_Timing_Init(FMC_SDRAM_TypeDef *Device,
 851:Drivers/STM32H7xx_HAL_Driver/Src/stm32h7xx_ll_fmc.c ****                                         FMC_SDRAM_TimingTypeDef *Timing, uint32_t Bank)
 852:Drivers/STM32H7xx_HAL_Driver/Src/stm32h7xx_ll_fmc.c **** {
 960              		.loc 1 852 1 is_stmt 1 view -0
 961              		.cfi_startproc
 962              		@ args = 0, pretend = 0, frame = 0
 963              		@ frame_needed = 0, uses_anonymous_args = 0
 964              		@ link register save eliminated.
 965              		.loc 1 852 1 is_stmt 0 view .LVU284
 966 0000 10B4     		push	{r4}
 967              	.LCFI12:
 968              		.cfi_def_cfa_offset 4
 969              		.cfi_offset 4, -4
ARM GAS  /tmp/ccBBH4Jd.s 			page 33


 853:Drivers/STM32H7xx_HAL_Driver/Src/stm32h7xx_ll_fmc.c ****   /* Check the parameters */
 854:Drivers/STM32H7xx_HAL_Driver/Src/stm32h7xx_ll_fmc.c ****   assert_param(IS_FMC_SDRAM_DEVICE(Device));
 970              		.loc 1 854 3 is_stmt 1 view .LVU285
 855:Drivers/STM32H7xx_HAL_Driver/Src/stm32h7xx_ll_fmc.c ****   assert_param(IS_FMC_LOADTOACTIVE_DELAY(Timing->LoadToActiveDelay));
 971              		.loc 1 855 3 view .LVU286
 856:Drivers/STM32H7xx_HAL_Driver/Src/stm32h7xx_ll_fmc.c ****   assert_param(IS_FMC_EXITSELFREFRESH_DELAY(Timing->ExitSelfRefreshDelay));
 972              		.loc 1 856 3 view .LVU287
 857:Drivers/STM32H7xx_HAL_Driver/Src/stm32h7xx_ll_fmc.c ****   assert_param(IS_FMC_SELFREFRESH_TIME(Timing->SelfRefreshTime));
 973              		.loc 1 857 3 view .LVU288
 858:Drivers/STM32H7xx_HAL_Driver/Src/stm32h7xx_ll_fmc.c ****   assert_param(IS_FMC_ROWCYCLE_DELAY(Timing->RowCycleDelay));
 974              		.loc 1 858 3 view .LVU289
 859:Drivers/STM32H7xx_HAL_Driver/Src/stm32h7xx_ll_fmc.c ****   assert_param(IS_FMC_WRITE_RECOVERY_TIME(Timing->WriteRecoveryTime));
 975              		.loc 1 859 3 view .LVU290
 860:Drivers/STM32H7xx_HAL_Driver/Src/stm32h7xx_ll_fmc.c ****   assert_param(IS_FMC_RP_DELAY(Timing->RPDelay));
 976              		.loc 1 860 3 view .LVU291
 861:Drivers/STM32H7xx_HAL_Driver/Src/stm32h7xx_ll_fmc.c ****   assert_param(IS_FMC_RCD_DELAY(Timing->RCDDelay));
 977              		.loc 1 861 3 view .LVU292
 862:Drivers/STM32H7xx_HAL_Driver/Src/stm32h7xx_ll_fmc.c ****   assert_param(IS_FMC_SDRAM_BANK(Bank));
 978              		.loc 1 862 3 view .LVU293
 863:Drivers/STM32H7xx_HAL_Driver/Src/stm32h7xx_ll_fmc.c **** 
 864:Drivers/STM32H7xx_HAL_Driver/Src/stm32h7xx_ll_fmc.c ****   /* Set SDRAM device timing parameters */
 865:Drivers/STM32H7xx_HAL_Driver/Src/stm32h7xx_ll_fmc.c ****   if (Bank == FMC_SDRAM_BANK1)
 979              		.loc 1 865 3 view .LVU294
 980              		.loc 1 865 6 is_stmt 0 view .LVU295
 981 0002 3ABB     		cbnz	r2, .L54
 866:Drivers/STM32H7xx_HAL_Driver/Src/stm32h7xx_ll_fmc.c ****   {
 867:Drivers/STM32H7xx_HAL_Driver/Src/stm32h7xx_ll_fmc.c ****     MODIFY_REG(Device->SDTR[FMC_SDRAM_BANK1],
 982              		.loc 1 867 5 is_stmt 1 view .LVU296
 983 0004 8268     		ldr	r2, [r0, #8]
 984              	.LVL58:
 985              		.loc 1 867 5 is_stmt 0 view .LVU297
 986 0006 02F07042 		and	r2, r2, #-268435456
 987 000a 0B68     		ldr	r3, [r1]
 988 000c 013B     		subs	r3, r3, #1
 989 000e 4C68     		ldr	r4, [r1, #4]
 990 0010 04F1FF3C 		add	ip, r4, #-1
 991 0014 43EA0C13 		orr	r3, r3, ip, lsl #4
 992 0018 8C68     		ldr	r4, [r1, #8]
 993 001a 04F1FF3C 		add	ip, r4, #-1
 994 001e 43EA0C23 		orr	r3, r3, ip, lsl #8
 995 0022 CC68     		ldr	r4, [r1, #12]
 996 0024 04F1FF3C 		add	ip, r4, #-1
 997 0028 43EA0C33 		orr	r3, r3, ip, lsl #12
 998 002c 0C69     		ldr	r4, [r1, #16]
 999 002e 04F1FF3C 		add	ip, r4, #-1
 1000 0032 43EA0C43 		orr	r3, r3, ip, lsl #16
 1001 0036 4C69     		ldr	r4, [r1, #20]
 1002 0038 04F1FF3C 		add	ip, r4, #-1
 1003 003c 43EA0C53 		orr	r3, r3, ip, lsl #20
 1004 0040 8969     		ldr	r1, [r1, #24]
 1005              	.LVL59:
 1006              		.loc 1 867 5 view .LVU298
 1007 0042 0139     		subs	r1, r1, #1
 1008 0044 43EA0163 		orr	r3, r3, r1, lsl #24
 1009 0048 1343     		orrs	r3, r3, r2
 1010 004a 8360     		str	r3, [r0, #8]
 1011              	.L55:
ARM GAS  /tmp/ccBBH4Jd.s 			page 34


 868:Drivers/STM32H7xx_HAL_Driver/Src/stm32h7xx_ll_fmc.c ****                SDTR_CLEAR_MASK,
 869:Drivers/STM32H7xx_HAL_Driver/Src/stm32h7xx_ll_fmc.c ****                (((Timing->LoadToActiveDelay) - 1U)                                      |
 870:Drivers/STM32H7xx_HAL_Driver/Src/stm32h7xx_ll_fmc.c ****                 (((Timing->ExitSelfRefreshDelay) - 1U) << FMC_SDTRx_TXSR_Pos) |
 871:Drivers/STM32H7xx_HAL_Driver/Src/stm32h7xx_ll_fmc.c ****                 (((Timing->SelfRefreshTime) - 1U)      << FMC_SDTRx_TRAS_Pos) |
 872:Drivers/STM32H7xx_HAL_Driver/Src/stm32h7xx_ll_fmc.c ****                 (((Timing->RowCycleDelay) - 1U)        << FMC_SDTRx_TRC_Pos)  |
 873:Drivers/STM32H7xx_HAL_Driver/Src/stm32h7xx_ll_fmc.c ****                 (((Timing->WriteRecoveryTime) - 1U)    << FMC_SDTRx_TWR_Pos)  |
 874:Drivers/STM32H7xx_HAL_Driver/Src/stm32h7xx_ll_fmc.c ****                 (((Timing->RPDelay) - 1U)              << FMC_SDTRx_TRP_Pos)  |
 875:Drivers/STM32H7xx_HAL_Driver/Src/stm32h7xx_ll_fmc.c ****                 (((Timing->RCDDelay) - 1U)             << FMC_SDTRx_TRCD_Pos)));
 876:Drivers/STM32H7xx_HAL_Driver/Src/stm32h7xx_ll_fmc.c ****   }
 877:Drivers/STM32H7xx_HAL_Driver/Src/stm32h7xx_ll_fmc.c ****   else /* FMC_Bank2_SDRAM */
 878:Drivers/STM32H7xx_HAL_Driver/Src/stm32h7xx_ll_fmc.c ****   {
 879:Drivers/STM32H7xx_HAL_Driver/Src/stm32h7xx_ll_fmc.c ****     MODIFY_REG(Device->SDTR[FMC_SDRAM_BANK1],
 880:Drivers/STM32H7xx_HAL_Driver/Src/stm32h7xx_ll_fmc.c ****                FMC_SDTRx_TRC |
 881:Drivers/STM32H7xx_HAL_Driver/Src/stm32h7xx_ll_fmc.c ****                FMC_SDTRx_TRP,
 882:Drivers/STM32H7xx_HAL_Driver/Src/stm32h7xx_ll_fmc.c ****                (((Timing->RowCycleDelay) - 1U)         << FMC_SDTRx_TRC_Pos)  |
 883:Drivers/STM32H7xx_HAL_Driver/Src/stm32h7xx_ll_fmc.c ****                (((Timing->RPDelay) - 1U)               << FMC_SDTRx_TRP_Pos));
 884:Drivers/STM32H7xx_HAL_Driver/Src/stm32h7xx_ll_fmc.c **** 
 885:Drivers/STM32H7xx_HAL_Driver/Src/stm32h7xx_ll_fmc.c ****     MODIFY_REG(Device->SDTR[FMC_SDRAM_BANK2],
 886:Drivers/STM32H7xx_HAL_Driver/Src/stm32h7xx_ll_fmc.c ****                SDTR_CLEAR_MASK,
 887:Drivers/STM32H7xx_HAL_Driver/Src/stm32h7xx_ll_fmc.c ****                (((Timing->LoadToActiveDelay) - 1U)                                      |
 888:Drivers/STM32H7xx_HAL_Driver/Src/stm32h7xx_ll_fmc.c ****                 (((Timing->ExitSelfRefreshDelay) - 1U) << FMC_SDTRx_TXSR_Pos) |
 889:Drivers/STM32H7xx_HAL_Driver/Src/stm32h7xx_ll_fmc.c ****                 (((Timing->SelfRefreshTime) - 1U)      << FMC_SDTRx_TRAS_Pos) |
 890:Drivers/STM32H7xx_HAL_Driver/Src/stm32h7xx_ll_fmc.c ****                 (((Timing->WriteRecoveryTime) - 1U)    << FMC_SDTRx_TWR_Pos)  |
 891:Drivers/STM32H7xx_HAL_Driver/Src/stm32h7xx_ll_fmc.c ****                 (((Timing->RCDDelay) - 1U)             << FMC_SDTRx_TRCD_Pos)));
 892:Drivers/STM32H7xx_HAL_Driver/Src/stm32h7xx_ll_fmc.c ****   }
 893:Drivers/STM32H7xx_HAL_Driver/Src/stm32h7xx_ll_fmc.c **** 
 894:Drivers/STM32H7xx_HAL_Driver/Src/stm32h7xx_ll_fmc.c ****   return HAL_OK;
 1012              		.loc 1 894 3 is_stmt 1 view .LVU299
 895:Drivers/STM32H7xx_HAL_Driver/Src/stm32h7xx_ll_fmc.c **** }
 1013              		.loc 1 895 1 is_stmt 0 view .LVU300
 1014 004c 0020     		movs	r0, #0
 1015              	.LVL60:
 1016              		.loc 1 895 1 view .LVU301
 1017 004e 5DF8044B 		ldr	r4, [sp], #4
 1018              	.LCFI13:
 1019              		.cfi_remember_state
 1020              		.cfi_restore 4
 1021              		.cfi_def_cfa_offset 0
 1022 0052 7047     		bx	lr
 1023              	.LVL61:
 1024              	.L54:
 1025              	.LCFI14:
 1026              		.cfi_restore_state
 879:Drivers/STM32H7xx_HAL_Driver/Src/stm32h7xx_ll_fmc.c ****                FMC_SDTRx_TRC |
 1027              		.loc 1 879 5 is_stmt 1 view .LVU302
 1028 0054 8368     		ldr	r3, [r0, #8]
 1029 0056 134A     		ldr	r2, .L57
 1030              	.LVL62:
 879:Drivers/STM32H7xx_HAL_Driver/Src/stm32h7xx_ll_fmc.c ****                FMC_SDTRx_TRC |
 1031              		.loc 1 879 5 is_stmt 0 view .LVU303
 1032 0058 1A40     		ands	r2, r2, r3
 1033 005a CB68     		ldr	r3, [r1, #12]
 1034 005c 03F1FF3C 		add	ip, r3, #-1
 1035 0060 4B69     		ldr	r3, [r1, #20]
 1036 0062 013B     		subs	r3, r3, #1
 1037 0064 1B05     		lsls	r3, r3, #20
 1038 0066 43EA0C33 		orr	r3, r3, ip, lsl #12
ARM GAS  /tmp/ccBBH4Jd.s 			page 35


 1039 006a 1343     		orrs	r3, r3, r2
 1040 006c 8360     		str	r3, [r0, #8]
 885:Drivers/STM32H7xx_HAL_Driver/Src/stm32h7xx_ll_fmc.c ****                SDTR_CLEAR_MASK,
 1041              		.loc 1 885 5 is_stmt 1 view .LVU304
 1042 006e C268     		ldr	r2, [r0, #12]
 1043 0070 02F07042 		and	r2, r2, #-268435456
 1044 0074 0B68     		ldr	r3, [r1]
 1045 0076 013B     		subs	r3, r3, #1
 1046 0078 4C68     		ldr	r4, [r1, #4]
 1047 007a 04F1FF3C 		add	ip, r4, #-1
 1048 007e 43EA0C13 		orr	r3, r3, ip, lsl #4
 1049 0082 8C68     		ldr	r4, [r1, #8]
 1050 0084 04F1FF3C 		add	ip, r4, #-1
 1051 0088 43EA0C23 		orr	r3, r3, ip, lsl #8
 1052 008c 0C69     		ldr	r4, [r1, #16]
 1053 008e 04F1FF3C 		add	ip, r4, #-1
 1054 0092 43EA0C43 		orr	r3, r3, ip, lsl #16
 1055 0096 8969     		ldr	r1, [r1, #24]
 1056              	.LVL63:
 885:Drivers/STM32H7xx_HAL_Driver/Src/stm32h7xx_ll_fmc.c ****                SDTR_CLEAR_MASK,
 1057              		.loc 1 885 5 is_stmt 0 view .LVU305
 1058 0098 0139     		subs	r1, r1, #1
 1059 009a 43EA0163 		orr	r3, r3, r1, lsl #24
 1060 009e 1343     		orrs	r3, r3, r2
 1061 00a0 C360     		str	r3, [r0, #12]
 1062 00a2 D3E7     		b	.L55
 1063              	.L58:
 1064              		.align	2
 1065              	.L57:
 1066 00a4 FF0F0FFF 		.word	-15790081
 1067              		.cfi_endproc
 1068              	.LFE158:
 1070              		.section	.text.FMC_SDRAM_DeInit,"ax",%progbits
 1071              		.align	1
 1072              		.global	FMC_SDRAM_DeInit
 1073              		.syntax unified
 1074              		.thumb
 1075              		.thumb_func
 1077              	FMC_SDRAM_DeInit:
 1078              	.LVL64:
 1079              	.LFB159:
 896:Drivers/STM32H7xx_HAL_Driver/Src/stm32h7xx_ll_fmc.c **** 
 897:Drivers/STM32H7xx_HAL_Driver/Src/stm32h7xx_ll_fmc.c **** /**
 898:Drivers/STM32H7xx_HAL_Driver/Src/stm32h7xx_ll_fmc.c ****   * @brief  DeInitializes the FMC_SDRAM peripheral
 899:Drivers/STM32H7xx_HAL_Driver/Src/stm32h7xx_ll_fmc.c ****   * @param  Device Pointer to SDRAM device instance
 900:Drivers/STM32H7xx_HAL_Driver/Src/stm32h7xx_ll_fmc.c ****   * @retval HAL status
 901:Drivers/STM32H7xx_HAL_Driver/Src/stm32h7xx_ll_fmc.c ****   */
 902:Drivers/STM32H7xx_HAL_Driver/Src/stm32h7xx_ll_fmc.c **** HAL_StatusTypeDef FMC_SDRAM_DeInit(FMC_SDRAM_TypeDef *Device, uint32_t Bank)
 903:Drivers/STM32H7xx_HAL_Driver/Src/stm32h7xx_ll_fmc.c **** {
 1080              		.loc 1 903 1 is_stmt 1 view -0
 1081              		.cfi_startproc
 1082              		@ args = 0, pretend = 0, frame = 0
 1083              		@ frame_needed = 0, uses_anonymous_args = 0
 1084              		@ link register save eliminated.
 1085              		.loc 1 903 1 is_stmt 0 view .LVU307
 1086 0000 0346     		mov	r3, r0
 904:Drivers/STM32H7xx_HAL_Driver/Src/stm32h7xx_ll_fmc.c ****   /* Check the parameters */
ARM GAS  /tmp/ccBBH4Jd.s 			page 36


 905:Drivers/STM32H7xx_HAL_Driver/Src/stm32h7xx_ll_fmc.c ****   assert_param(IS_FMC_SDRAM_DEVICE(Device));
 1087              		.loc 1 905 3 is_stmt 1 view .LVU308
 906:Drivers/STM32H7xx_HAL_Driver/Src/stm32h7xx_ll_fmc.c ****   assert_param(IS_FMC_SDRAM_BANK(Bank));
 1088              		.loc 1 906 3 view .LVU309
 907:Drivers/STM32H7xx_HAL_Driver/Src/stm32h7xx_ll_fmc.c **** 
 908:Drivers/STM32H7xx_HAL_Driver/Src/stm32h7xx_ll_fmc.c ****   /* De-initialize the SDRAM device */
 909:Drivers/STM32H7xx_HAL_Driver/Src/stm32h7xx_ll_fmc.c ****   Device->SDCR[Bank] = 0x000002D0U;
 1089              		.loc 1 909 3 view .LVU310
 1090              		.loc 1 909 22 is_stmt 0 view .LVU311
 1091 0002 4FF43472 		mov	r2, #720
 1092 0006 40F82120 		str	r2, [r0, r1, lsl #2]
 910:Drivers/STM32H7xx_HAL_Driver/Src/stm32h7xx_ll_fmc.c ****   Device->SDTR[Bank] = 0x0FFFFFFFU;
 1093              		.loc 1 910 3 is_stmt 1 view .LVU312
 1094              		.loc 1 910 22 is_stmt 0 view .LVU313
 1095 000a 0231     		adds	r1, r1, #2
 1096              	.LVL65:
 1097              		.loc 1 910 22 view .LVU314
 1098 000c 6FF07042 		mvn	r2, #-268435456
 1099 0010 40F82120 		str	r2, [r0, r1, lsl #2]
 911:Drivers/STM32H7xx_HAL_Driver/Src/stm32h7xx_ll_fmc.c ****   Device->SDCMR      = 0x00000000U;
 1100              		.loc 1 911 3 is_stmt 1 view .LVU315
 1101              		.loc 1 911 22 is_stmt 0 view .LVU316
 1102 0014 0020     		movs	r0, #0
 1103              	.LVL66:
 1104              		.loc 1 911 22 view .LVU317
 1105 0016 1861     		str	r0, [r3, #16]
 912:Drivers/STM32H7xx_HAL_Driver/Src/stm32h7xx_ll_fmc.c ****   Device->SDRTR      = 0x00000000U;
 1106              		.loc 1 912 3 is_stmt 1 view .LVU318
 1107              		.loc 1 912 22 is_stmt 0 view .LVU319
 1108 0018 5861     		str	r0, [r3, #20]
 913:Drivers/STM32H7xx_HAL_Driver/Src/stm32h7xx_ll_fmc.c ****   Device->SDSR       = 0x00000000U;
 1109              		.loc 1 913 3 is_stmt 1 view .LVU320
 1110              		.loc 1 913 22 is_stmt 0 view .LVU321
 1111 001a 9861     		str	r0, [r3, #24]
 914:Drivers/STM32H7xx_HAL_Driver/Src/stm32h7xx_ll_fmc.c **** 
 915:Drivers/STM32H7xx_HAL_Driver/Src/stm32h7xx_ll_fmc.c ****   return HAL_OK;
 1112              		.loc 1 915 3 is_stmt 1 view .LVU322
 916:Drivers/STM32H7xx_HAL_Driver/Src/stm32h7xx_ll_fmc.c **** }
 1113              		.loc 1 916 1 is_stmt 0 view .LVU323
 1114 001c 7047     		bx	lr
 1115              		.cfi_endproc
 1116              	.LFE159:
 1118              		.section	.text.FMC_SDRAM_WriteProtection_Enable,"ax",%progbits
 1119              		.align	1
 1120              		.global	FMC_SDRAM_WriteProtection_Enable
 1121              		.syntax unified
 1122              		.thumb
 1123              		.thumb_func
 1125              	FMC_SDRAM_WriteProtection_Enable:
 1126              	.LVL67:
 1127              	.LFB160:
 917:Drivers/STM32H7xx_HAL_Driver/Src/stm32h7xx_ll_fmc.c **** 
 918:Drivers/STM32H7xx_HAL_Driver/Src/stm32h7xx_ll_fmc.c **** /**
 919:Drivers/STM32H7xx_HAL_Driver/Src/stm32h7xx_ll_fmc.c ****   * @}
 920:Drivers/STM32H7xx_HAL_Driver/Src/stm32h7xx_ll_fmc.c ****   */
 921:Drivers/STM32H7xx_HAL_Driver/Src/stm32h7xx_ll_fmc.c **** 
 922:Drivers/STM32H7xx_HAL_Driver/Src/stm32h7xx_ll_fmc.c **** /** @addtogroup FMC_LL_SDRAMPrivate_Functions_Group2
ARM GAS  /tmp/ccBBH4Jd.s 			page 37


 923:Drivers/STM32H7xx_HAL_Driver/Src/stm32h7xx_ll_fmc.c ****   *  @brief   management functions
 924:Drivers/STM32H7xx_HAL_Driver/Src/stm32h7xx_ll_fmc.c ****   *
 925:Drivers/STM32H7xx_HAL_Driver/Src/stm32h7xx_ll_fmc.c **** @verbatim
 926:Drivers/STM32H7xx_HAL_Driver/Src/stm32h7xx_ll_fmc.c ****   ==============================================================================
 927:Drivers/STM32H7xx_HAL_Driver/Src/stm32h7xx_ll_fmc.c ****                       ##### FMC_SDRAM Control functions #####
 928:Drivers/STM32H7xx_HAL_Driver/Src/stm32h7xx_ll_fmc.c ****   ==============================================================================
 929:Drivers/STM32H7xx_HAL_Driver/Src/stm32h7xx_ll_fmc.c ****   [..]
 930:Drivers/STM32H7xx_HAL_Driver/Src/stm32h7xx_ll_fmc.c ****     This subsection provides a set of functions allowing to control dynamically
 931:Drivers/STM32H7xx_HAL_Driver/Src/stm32h7xx_ll_fmc.c ****     the FMC SDRAM interface.
 932:Drivers/STM32H7xx_HAL_Driver/Src/stm32h7xx_ll_fmc.c **** 
 933:Drivers/STM32H7xx_HAL_Driver/Src/stm32h7xx_ll_fmc.c **** @endverbatim
 934:Drivers/STM32H7xx_HAL_Driver/Src/stm32h7xx_ll_fmc.c ****   * @{
 935:Drivers/STM32H7xx_HAL_Driver/Src/stm32h7xx_ll_fmc.c ****   */
 936:Drivers/STM32H7xx_HAL_Driver/Src/stm32h7xx_ll_fmc.c **** 
 937:Drivers/STM32H7xx_HAL_Driver/Src/stm32h7xx_ll_fmc.c **** /**
 938:Drivers/STM32H7xx_HAL_Driver/Src/stm32h7xx_ll_fmc.c ****   * @brief  Enables dynamically FMC_SDRAM write protection.
 939:Drivers/STM32H7xx_HAL_Driver/Src/stm32h7xx_ll_fmc.c ****   * @param  Device Pointer to SDRAM device instance
 940:Drivers/STM32H7xx_HAL_Driver/Src/stm32h7xx_ll_fmc.c ****   * @param  Bank SDRAM bank number
 941:Drivers/STM32H7xx_HAL_Driver/Src/stm32h7xx_ll_fmc.c ****   * @retval HAL status
 942:Drivers/STM32H7xx_HAL_Driver/Src/stm32h7xx_ll_fmc.c ****   */
 943:Drivers/STM32H7xx_HAL_Driver/Src/stm32h7xx_ll_fmc.c **** HAL_StatusTypeDef FMC_SDRAM_WriteProtection_Enable(FMC_SDRAM_TypeDef *Device, uint32_t Bank)
 944:Drivers/STM32H7xx_HAL_Driver/Src/stm32h7xx_ll_fmc.c **** {
 1128              		.loc 1 944 1 is_stmt 1 view -0
 1129              		.cfi_startproc
 1130              		@ args = 0, pretend = 0, frame = 0
 1131              		@ frame_needed = 0, uses_anonymous_args = 0
 1132              		@ link register save eliminated.
 945:Drivers/STM32H7xx_HAL_Driver/Src/stm32h7xx_ll_fmc.c ****   /* Check the parameters */
 946:Drivers/STM32H7xx_HAL_Driver/Src/stm32h7xx_ll_fmc.c ****   assert_param(IS_FMC_SDRAM_DEVICE(Device));
 1133              		.loc 1 946 3 view .LVU325
 947:Drivers/STM32H7xx_HAL_Driver/Src/stm32h7xx_ll_fmc.c ****   assert_param(IS_FMC_SDRAM_BANK(Bank));
 1134              		.loc 1 947 3 view .LVU326
 948:Drivers/STM32H7xx_HAL_Driver/Src/stm32h7xx_ll_fmc.c **** 
 949:Drivers/STM32H7xx_HAL_Driver/Src/stm32h7xx_ll_fmc.c ****   /* Enable write protection */
 950:Drivers/STM32H7xx_HAL_Driver/Src/stm32h7xx_ll_fmc.c ****   SET_BIT(Device->SDCR[Bank], FMC_SDRAM_WRITE_PROTECTION_ENABLE);
 1135              		.loc 1 950 3 view .LVU327
 1136 0000 50F82130 		ldr	r3, [r0, r1, lsl #2]
 1137 0004 43F40073 		orr	r3, r3, #512
 1138 0008 40F82130 		str	r3, [r0, r1, lsl #2]
 951:Drivers/STM32H7xx_HAL_Driver/Src/stm32h7xx_ll_fmc.c **** 
 952:Drivers/STM32H7xx_HAL_Driver/Src/stm32h7xx_ll_fmc.c ****   return HAL_OK;
 1139              		.loc 1 952 3 view .LVU328
 953:Drivers/STM32H7xx_HAL_Driver/Src/stm32h7xx_ll_fmc.c **** }
 1140              		.loc 1 953 1 is_stmt 0 view .LVU329
 1141 000c 0020     		movs	r0, #0
 1142              	.LVL68:
 1143              		.loc 1 953 1 view .LVU330
 1144 000e 7047     		bx	lr
 1145              		.cfi_endproc
 1146              	.LFE160:
 1148              		.section	.text.FMC_SDRAM_WriteProtection_Disable,"ax",%progbits
 1149              		.align	1
 1150              		.global	FMC_SDRAM_WriteProtection_Disable
 1151              		.syntax unified
 1152              		.thumb
 1153              		.thumb_func
 1155              	FMC_SDRAM_WriteProtection_Disable:
ARM GAS  /tmp/ccBBH4Jd.s 			page 38


 1156              	.LVL69:
 1157              	.LFB161:
 954:Drivers/STM32H7xx_HAL_Driver/Src/stm32h7xx_ll_fmc.c **** 
 955:Drivers/STM32H7xx_HAL_Driver/Src/stm32h7xx_ll_fmc.c **** /**
 956:Drivers/STM32H7xx_HAL_Driver/Src/stm32h7xx_ll_fmc.c ****   * @brief  Disables dynamically FMC_SDRAM write protection.
 957:Drivers/STM32H7xx_HAL_Driver/Src/stm32h7xx_ll_fmc.c ****   * @param  hsdram FMC_SDRAM handle
 958:Drivers/STM32H7xx_HAL_Driver/Src/stm32h7xx_ll_fmc.c ****   * @retval HAL status
 959:Drivers/STM32H7xx_HAL_Driver/Src/stm32h7xx_ll_fmc.c ****   */
 960:Drivers/STM32H7xx_HAL_Driver/Src/stm32h7xx_ll_fmc.c **** HAL_StatusTypeDef FMC_SDRAM_WriteProtection_Disable(FMC_SDRAM_TypeDef *Device, uint32_t Bank)
 961:Drivers/STM32H7xx_HAL_Driver/Src/stm32h7xx_ll_fmc.c **** {
 1158              		.loc 1 961 1 is_stmt 1 view -0
 1159              		.cfi_startproc
 1160              		@ args = 0, pretend = 0, frame = 0
 1161              		@ frame_needed = 0, uses_anonymous_args = 0
 1162              		@ link register save eliminated.
 962:Drivers/STM32H7xx_HAL_Driver/Src/stm32h7xx_ll_fmc.c ****   /* Check the parameters */
 963:Drivers/STM32H7xx_HAL_Driver/Src/stm32h7xx_ll_fmc.c ****   assert_param(IS_FMC_SDRAM_DEVICE(Device));
 1163              		.loc 1 963 3 view .LVU332
 964:Drivers/STM32H7xx_HAL_Driver/Src/stm32h7xx_ll_fmc.c ****   assert_param(IS_FMC_SDRAM_BANK(Bank));
 1164              		.loc 1 964 3 view .LVU333
 965:Drivers/STM32H7xx_HAL_Driver/Src/stm32h7xx_ll_fmc.c **** 
 966:Drivers/STM32H7xx_HAL_Driver/Src/stm32h7xx_ll_fmc.c ****   /* Disable write protection */
 967:Drivers/STM32H7xx_HAL_Driver/Src/stm32h7xx_ll_fmc.c ****   CLEAR_BIT(Device->SDCR[Bank], FMC_SDRAM_WRITE_PROTECTION_ENABLE);
 1165              		.loc 1 967 3 view .LVU334
 1166 0000 50F82130 		ldr	r3, [r0, r1, lsl #2]
 1167 0004 23F40073 		bic	r3, r3, #512
 1168 0008 40F82130 		str	r3, [r0, r1, lsl #2]
 968:Drivers/STM32H7xx_HAL_Driver/Src/stm32h7xx_ll_fmc.c **** 
 969:Drivers/STM32H7xx_HAL_Driver/Src/stm32h7xx_ll_fmc.c ****   return HAL_OK;
 1169              		.loc 1 969 3 view .LVU335
 970:Drivers/STM32H7xx_HAL_Driver/Src/stm32h7xx_ll_fmc.c **** }
 1170              		.loc 1 970 1 is_stmt 0 view .LVU336
 1171 000c 0020     		movs	r0, #0
 1172              	.LVL70:
 1173              		.loc 1 970 1 view .LVU337
 1174 000e 7047     		bx	lr
 1175              		.cfi_endproc
 1176              	.LFE161:
 1178              		.section	.text.FMC_SDRAM_SendCommand,"ax",%progbits
 1179              		.align	1
 1180              		.global	FMC_SDRAM_SendCommand
 1181              		.syntax unified
 1182              		.thumb
 1183              		.thumb_func
 1185              	FMC_SDRAM_SendCommand:
 1186              	.LVL71:
 1187              	.LFB162:
 971:Drivers/STM32H7xx_HAL_Driver/Src/stm32h7xx_ll_fmc.c **** 
 972:Drivers/STM32H7xx_HAL_Driver/Src/stm32h7xx_ll_fmc.c **** /**
 973:Drivers/STM32H7xx_HAL_Driver/Src/stm32h7xx_ll_fmc.c ****   * @brief  Send Command to the FMC SDRAM bank
 974:Drivers/STM32H7xx_HAL_Driver/Src/stm32h7xx_ll_fmc.c ****   * @param  Device Pointer to SDRAM device instance
 975:Drivers/STM32H7xx_HAL_Driver/Src/stm32h7xx_ll_fmc.c ****   * @param  Command Pointer to SDRAM command structure
 976:Drivers/STM32H7xx_HAL_Driver/Src/stm32h7xx_ll_fmc.c ****   * @param  Timing Pointer to SDRAM Timing structure
 977:Drivers/STM32H7xx_HAL_Driver/Src/stm32h7xx_ll_fmc.c ****   * @param  Timeout Timeout wait value
 978:Drivers/STM32H7xx_HAL_Driver/Src/stm32h7xx_ll_fmc.c ****   * @retval HAL state
 979:Drivers/STM32H7xx_HAL_Driver/Src/stm32h7xx_ll_fmc.c ****   */
 980:Drivers/STM32H7xx_HAL_Driver/Src/stm32h7xx_ll_fmc.c **** HAL_StatusTypeDef FMC_SDRAM_SendCommand(FMC_SDRAM_TypeDef *Device,
ARM GAS  /tmp/ccBBH4Jd.s 			page 39


 981:Drivers/STM32H7xx_HAL_Driver/Src/stm32h7xx_ll_fmc.c ****                                         FMC_SDRAM_CommandTypeDef *Command, uint32_t Timeout)
 982:Drivers/STM32H7xx_HAL_Driver/Src/stm32h7xx_ll_fmc.c **** {
 1188              		.loc 1 982 1 is_stmt 1 view -0
 1189              		.cfi_startproc
 1190              		@ args = 0, pretend = 0, frame = 0
 1191              		@ frame_needed = 0, uses_anonymous_args = 0
 1192              		@ link register save eliminated.
 1193              		.loc 1 982 1 is_stmt 0 view .LVU339
 1194 0000 10B4     		push	{r4}
 1195              	.LCFI15:
 1196              		.cfi_def_cfa_offset 4
 1197              		.cfi_offset 4, -4
 983:Drivers/STM32H7xx_HAL_Driver/Src/stm32h7xx_ll_fmc.c ****   /* Check the parameters */
 984:Drivers/STM32H7xx_HAL_Driver/Src/stm32h7xx_ll_fmc.c ****   assert_param(IS_FMC_SDRAM_DEVICE(Device));
 1198              		.loc 1 984 3 is_stmt 1 view .LVU340
 985:Drivers/STM32H7xx_HAL_Driver/Src/stm32h7xx_ll_fmc.c ****   assert_param(IS_FMC_COMMAND_MODE(Command->CommandMode));
 1199              		.loc 1 985 3 view .LVU341
 986:Drivers/STM32H7xx_HAL_Driver/Src/stm32h7xx_ll_fmc.c ****   assert_param(IS_FMC_COMMAND_TARGET(Command->CommandTarget));
 1200              		.loc 1 986 3 view .LVU342
 987:Drivers/STM32H7xx_HAL_Driver/Src/stm32h7xx_ll_fmc.c ****   assert_param(IS_FMC_AUTOREFRESH_NUMBER(Command->AutoRefreshNumber));
 1201              		.loc 1 987 3 view .LVU343
 988:Drivers/STM32H7xx_HAL_Driver/Src/stm32h7xx_ll_fmc.c ****   assert_param(IS_FMC_MODE_REGISTER(Command->ModeRegisterDefinition));
 1202              		.loc 1 988 3 view .LVU344
 989:Drivers/STM32H7xx_HAL_Driver/Src/stm32h7xx_ll_fmc.c **** 
 990:Drivers/STM32H7xx_HAL_Driver/Src/stm32h7xx_ll_fmc.c ****   /* Set command register */
 991:Drivers/STM32H7xx_HAL_Driver/Src/stm32h7xx_ll_fmc.c ****   MODIFY_REG(Device->SDCMR, (FMC_SDCMR_MODE | FMC_SDCMR_CTB2 | FMC_SDCMR_CTB1 | 
 1203              		.loc 1 991 3 view .LVU345
 1204 0002 0369     		ldr	r3, [r0, #16]
 1205 0004 094A     		ldr	r2, .L64
 1206              	.LVL72:
 1207              		.loc 1 991 3 is_stmt 0 view .LVU346
 1208 0006 1A40     		ands	r2, r2, r3
 1209 0008 0B68     		ldr	r3, [r1]
 1210 000a 4C68     		ldr	r4, [r1, #4]
 1211 000c 2343     		orrs	r3, r3, r4
 1212 000e 8C68     		ldr	r4, [r1, #8]
 1213 0010 04F1FF3C 		add	ip, r4, #-1
 1214 0014 43EA4C13 		orr	r3, r3, ip, lsl #5
 1215 0018 C968     		ldr	r1, [r1, #12]
 1216              	.LVL73:
 1217              		.loc 1 991 3 view .LVU347
 1218 001a 43EA4123 		orr	r3, r3, r1, lsl #9
 1219 001e 1343     		orrs	r3, r3, r2
 1220 0020 0361     		str	r3, [r0, #16]
 992:Drivers/STM32H7xx_HAL_Driver/Src/stm32h7xx_ll_fmc.c ****              FMC_SDCMR_NRFS | FMC_SDCMR_MRD), ((Command->CommandMode) | 
 993:Drivers/STM32H7xx_HAL_Driver/Src/stm32h7xx_ll_fmc.c ****              (Command->CommandTarget) | (((Command->AutoRefreshNumber) - 1U) << FMC_SDCMR_NRFS_Pos)
 994:Drivers/STM32H7xx_HAL_Driver/Src/stm32h7xx_ll_fmc.c ****              ((Command->ModeRegisterDefinition) << FMC_SDCMR_MRD_Pos)));
 995:Drivers/STM32H7xx_HAL_Driver/Src/stm32h7xx_ll_fmc.c ****   /* Prevent unused argument(s) compilation warning */
 996:Drivers/STM32H7xx_HAL_Driver/Src/stm32h7xx_ll_fmc.c ****   UNUSED(Timeout);
 1221              		.loc 1 996 3 is_stmt 1 view .LVU348
 997:Drivers/STM32H7xx_HAL_Driver/Src/stm32h7xx_ll_fmc.c ****   return HAL_OK;
 1222              		.loc 1 997 3 view .LVU349
 998:Drivers/STM32H7xx_HAL_Driver/Src/stm32h7xx_ll_fmc.c **** }
 1223              		.loc 1 998 1 is_stmt 0 view .LVU350
 1224 0022 0020     		movs	r0, #0
 1225              	.LVL74:
 1226              		.loc 1 998 1 view .LVU351
ARM GAS  /tmp/ccBBH4Jd.s 			page 40


 1227 0024 5DF8044B 		ldr	r4, [sp], #4
 1228              	.LCFI16:
 1229              		.cfi_restore 4
 1230              		.cfi_def_cfa_offset 0
 1231 0028 7047     		bx	lr
 1232              	.L65:
 1233 002a 00BF     		.align	2
 1234              	.L64:
 1235 002c 0000C0FF 		.word	-4194304
 1236              		.cfi_endproc
 1237              	.LFE162:
 1239              		.section	.text.FMC_SDRAM_ProgramRefreshRate,"ax",%progbits
 1240              		.align	1
 1241              		.global	FMC_SDRAM_ProgramRefreshRate
 1242              		.syntax unified
 1243              		.thumb
 1244              		.thumb_func
 1246              	FMC_SDRAM_ProgramRefreshRate:
 1247              	.LVL75:
 1248              	.LFB163:
 999:Drivers/STM32H7xx_HAL_Driver/Src/stm32h7xx_ll_fmc.c **** 
1000:Drivers/STM32H7xx_HAL_Driver/Src/stm32h7xx_ll_fmc.c **** /**
1001:Drivers/STM32H7xx_HAL_Driver/Src/stm32h7xx_ll_fmc.c ****   * @brief  Program the SDRAM Memory Refresh rate.
1002:Drivers/STM32H7xx_HAL_Driver/Src/stm32h7xx_ll_fmc.c ****   * @param  Device Pointer to SDRAM device instance
1003:Drivers/STM32H7xx_HAL_Driver/Src/stm32h7xx_ll_fmc.c ****   * @param  RefreshRate The SDRAM refresh rate value.
1004:Drivers/STM32H7xx_HAL_Driver/Src/stm32h7xx_ll_fmc.c ****   * @retval HAL state
1005:Drivers/STM32H7xx_HAL_Driver/Src/stm32h7xx_ll_fmc.c ****   */
1006:Drivers/STM32H7xx_HAL_Driver/Src/stm32h7xx_ll_fmc.c **** HAL_StatusTypeDef FMC_SDRAM_ProgramRefreshRate(FMC_SDRAM_TypeDef *Device, uint32_t RefreshRate)
1007:Drivers/STM32H7xx_HAL_Driver/Src/stm32h7xx_ll_fmc.c **** {
 1249              		.loc 1 1007 1 is_stmt 1 view -0
 1250              		.cfi_startproc
 1251              		@ args = 0, pretend = 0, frame = 0
 1252              		@ frame_needed = 0, uses_anonymous_args = 0
 1253              		@ link register save eliminated.
1008:Drivers/STM32H7xx_HAL_Driver/Src/stm32h7xx_ll_fmc.c ****   /* Check the parameters */
1009:Drivers/STM32H7xx_HAL_Driver/Src/stm32h7xx_ll_fmc.c ****   assert_param(IS_FMC_SDRAM_DEVICE(Device));
 1254              		.loc 1 1009 3 view .LVU353
1010:Drivers/STM32H7xx_HAL_Driver/Src/stm32h7xx_ll_fmc.c ****   assert_param(IS_FMC_REFRESH_RATE(RefreshRate));
 1255              		.loc 1 1010 3 view .LVU354
1011:Drivers/STM32H7xx_HAL_Driver/Src/stm32h7xx_ll_fmc.c **** 
1012:Drivers/STM32H7xx_HAL_Driver/Src/stm32h7xx_ll_fmc.c ****   /* Set the refresh rate in command register */
1013:Drivers/STM32H7xx_HAL_Driver/Src/stm32h7xx_ll_fmc.c ****   MODIFY_REG(Device->SDRTR, FMC_SDRTR_COUNT, (RefreshRate << FMC_SDRTR_COUNT_Pos));
 1256              		.loc 1 1013 3 view .LVU355
 1257 0000 4269     		ldr	r2, [r0, #20]
 1258 0002 034B     		ldr	r3, .L67
 1259 0004 1340     		ands	r3, r3, r2
 1260 0006 43EA4103 		orr	r3, r3, r1, lsl #1
 1261 000a 4361     		str	r3, [r0, #20]
1014:Drivers/STM32H7xx_HAL_Driver/Src/stm32h7xx_ll_fmc.c **** 
1015:Drivers/STM32H7xx_HAL_Driver/Src/stm32h7xx_ll_fmc.c ****   return HAL_OK;
 1262              		.loc 1 1015 3 view .LVU356
1016:Drivers/STM32H7xx_HAL_Driver/Src/stm32h7xx_ll_fmc.c **** }
 1263              		.loc 1 1016 1 is_stmt 0 view .LVU357
 1264 000c 0020     		movs	r0, #0
 1265              	.LVL76:
 1266              		.loc 1 1016 1 view .LVU358
 1267 000e 7047     		bx	lr
ARM GAS  /tmp/ccBBH4Jd.s 			page 41


 1268              	.L68:
 1269              		.align	2
 1270              	.L67:
 1271 0010 01C0FFFF 		.word	-16383
 1272              		.cfi_endproc
 1273              	.LFE163:
 1275              		.section	.text.FMC_SDRAM_SetAutoRefreshNumber,"ax",%progbits
 1276              		.align	1
 1277              		.global	FMC_SDRAM_SetAutoRefreshNumber
 1278              		.syntax unified
 1279              		.thumb
 1280              		.thumb_func
 1282              	FMC_SDRAM_SetAutoRefreshNumber:
 1283              	.LVL77:
 1284              	.LFB164:
1017:Drivers/STM32H7xx_HAL_Driver/Src/stm32h7xx_ll_fmc.c **** 
1018:Drivers/STM32H7xx_HAL_Driver/Src/stm32h7xx_ll_fmc.c **** /**
1019:Drivers/STM32H7xx_HAL_Driver/Src/stm32h7xx_ll_fmc.c ****   * @brief  Set the Number of consecutive SDRAM Memory auto Refresh commands.
1020:Drivers/STM32H7xx_HAL_Driver/Src/stm32h7xx_ll_fmc.c ****   * @param  Device Pointer to SDRAM device instance
1021:Drivers/STM32H7xx_HAL_Driver/Src/stm32h7xx_ll_fmc.c ****   * @param  AutoRefreshNumber Specifies the auto Refresh number.
1022:Drivers/STM32H7xx_HAL_Driver/Src/stm32h7xx_ll_fmc.c ****   * @retval None
1023:Drivers/STM32H7xx_HAL_Driver/Src/stm32h7xx_ll_fmc.c ****   */
1024:Drivers/STM32H7xx_HAL_Driver/Src/stm32h7xx_ll_fmc.c **** HAL_StatusTypeDef FMC_SDRAM_SetAutoRefreshNumber(FMC_SDRAM_TypeDef *Device,
1025:Drivers/STM32H7xx_HAL_Driver/Src/stm32h7xx_ll_fmc.c ****                                                  uint32_t AutoRefreshNumber)
1026:Drivers/STM32H7xx_HAL_Driver/Src/stm32h7xx_ll_fmc.c **** {
 1285              		.loc 1 1026 1 is_stmt 1 view -0
 1286              		.cfi_startproc
 1287              		@ args = 0, pretend = 0, frame = 0
 1288              		@ frame_needed = 0, uses_anonymous_args = 0
 1289              		@ link register save eliminated.
1027:Drivers/STM32H7xx_HAL_Driver/Src/stm32h7xx_ll_fmc.c ****   /* Check the parameters */
1028:Drivers/STM32H7xx_HAL_Driver/Src/stm32h7xx_ll_fmc.c ****   assert_param(IS_FMC_SDRAM_DEVICE(Device));
 1290              		.loc 1 1028 3 view .LVU360
1029:Drivers/STM32H7xx_HAL_Driver/Src/stm32h7xx_ll_fmc.c ****   assert_param(IS_FMC_AUTOREFRESH_NUMBER(AutoRefreshNumber));
 1291              		.loc 1 1029 3 view .LVU361
1030:Drivers/STM32H7xx_HAL_Driver/Src/stm32h7xx_ll_fmc.c **** 
1031:Drivers/STM32H7xx_HAL_Driver/Src/stm32h7xx_ll_fmc.c ****   /* Set the Auto-refresh number in command register */
1032:Drivers/STM32H7xx_HAL_Driver/Src/stm32h7xx_ll_fmc.c ****   MODIFY_REG(Device->SDCMR, FMC_SDCMR_NRFS, ((AutoRefreshNumber - 1U) << FMC_SDCMR_NRFS_Pos));
 1292              		.loc 1 1032 3 view .LVU362
 1293 0000 0369     		ldr	r3, [r0, #16]
 1294 0002 23F4F073 		bic	r3, r3, #480
 1295 0006 0139     		subs	r1, r1, #1
 1296              	.LVL78:
 1297              		.loc 1 1032 3 is_stmt 0 view .LVU363
 1298 0008 43EA4113 		orr	r3, r3, r1, lsl #5
 1299 000c 0361     		str	r3, [r0, #16]
1033:Drivers/STM32H7xx_HAL_Driver/Src/stm32h7xx_ll_fmc.c **** 
1034:Drivers/STM32H7xx_HAL_Driver/Src/stm32h7xx_ll_fmc.c ****   return HAL_OK;
 1300              		.loc 1 1034 3 is_stmt 1 view .LVU364
1035:Drivers/STM32H7xx_HAL_Driver/Src/stm32h7xx_ll_fmc.c **** }
 1301              		.loc 1 1035 1 is_stmt 0 view .LVU365
 1302 000e 0020     		movs	r0, #0
 1303              	.LVL79:
 1304              		.loc 1 1035 1 view .LVU366
 1305 0010 7047     		bx	lr
 1306              		.cfi_endproc
 1307              	.LFE164:
ARM GAS  /tmp/ccBBH4Jd.s 			page 42


 1309              		.section	.text.FMC_SDRAM_GetModeStatus,"ax",%progbits
 1310              		.align	1
 1311              		.global	FMC_SDRAM_GetModeStatus
 1312              		.syntax unified
 1313              		.thumb
 1314              		.thumb_func
 1316              	FMC_SDRAM_GetModeStatus:
 1317              	.LVL80:
 1318              	.LFB165:
1036:Drivers/STM32H7xx_HAL_Driver/Src/stm32h7xx_ll_fmc.c **** 
1037:Drivers/STM32H7xx_HAL_Driver/Src/stm32h7xx_ll_fmc.c **** /**
1038:Drivers/STM32H7xx_HAL_Driver/Src/stm32h7xx_ll_fmc.c ****   * @brief  Returns the indicated FMC SDRAM bank mode status.
1039:Drivers/STM32H7xx_HAL_Driver/Src/stm32h7xx_ll_fmc.c ****   * @param  Device Pointer to SDRAM device instance
1040:Drivers/STM32H7xx_HAL_Driver/Src/stm32h7xx_ll_fmc.c ****   * @param  Bank Defines the FMC SDRAM bank. This parameter can be
1041:Drivers/STM32H7xx_HAL_Driver/Src/stm32h7xx_ll_fmc.c ****   *                     FMC_Bank1_SDRAM or FMC_Bank2_SDRAM.
1042:Drivers/STM32H7xx_HAL_Driver/Src/stm32h7xx_ll_fmc.c ****   * @retval The FMC SDRAM bank mode status, could be on of the following values:
1043:Drivers/STM32H7xx_HAL_Driver/Src/stm32h7xx_ll_fmc.c ****   *         FMC_SDRAM_NORMAL_MODE, FMC_SDRAM_SELF_REFRESH_MODE or
1044:Drivers/STM32H7xx_HAL_Driver/Src/stm32h7xx_ll_fmc.c ****   *         FMC_SDRAM_POWER_DOWN_MODE.
1045:Drivers/STM32H7xx_HAL_Driver/Src/stm32h7xx_ll_fmc.c ****   */
1046:Drivers/STM32H7xx_HAL_Driver/Src/stm32h7xx_ll_fmc.c **** uint32_t FMC_SDRAM_GetModeStatus(FMC_SDRAM_TypeDef *Device, uint32_t Bank)
1047:Drivers/STM32H7xx_HAL_Driver/Src/stm32h7xx_ll_fmc.c **** {
 1319              		.loc 1 1047 1 is_stmt 1 view -0
 1320              		.cfi_startproc
 1321              		@ args = 0, pretend = 0, frame = 0
 1322              		@ frame_needed = 0, uses_anonymous_args = 0
 1323              		@ link register save eliminated.
1048:Drivers/STM32H7xx_HAL_Driver/Src/stm32h7xx_ll_fmc.c ****   uint32_t tmpreg;
 1324              		.loc 1 1048 3 view .LVU368
1049:Drivers/STM32H7xx_HAL_Driver/Src/stm32h7xx_ll_fmc.c **** 
1050:Drivers/STM32H7xx_HAL_Driver/Src/stm32h7xx_ll_fmc.c ****   /* Check the parameters */
1051:Drivers/STM32H7xx_HAL_Driver/Src/stm32h7xx_ll_fmc.c ****   assert_param(IS_FMC_SDRAM_DEVICE(Device));
 1325              		.loc 1 1051 3 view .LVU369
1052:Drivers/STM32H7xx_HAL_Driver/Src/stm32h7xx_ll_fmc.c ****   assert_param(IS_FMC_SDRAM_BANK(Bank));
 1326              		.loc 1 1052 3 view .LVU370
1053:Drivers/STM32H7xx_HAL_Driver/Src/stm32h7xx_ll_fmc.c **** 
1054:Drivers/STM32H7xx_HAL_Driver/Src/stm32h7xx_ll_fmc.c ****   /* Get the corresponding bank mode */
1055:Drivers/STM32H7xx_HAL_Driver/Src/stm32h7xx_ll_fmc.c ****   if (Bank == FMC_SDRAM_BANK1)
 1327              		.loc 1 1055 3 view .LVU371
 1328              		.loc 1 1055 6 is_stmt 0 view .LVU372
 1329 0000 19B9     		cbnz	r1, .L71
1056:Drivers/STM32H7xx_HAL_Driver/Src/stm32h7xx_ll_fmc.c ****   {
1057:Drivers/STM32H7xx_HAL_Driver/Src/stm32h7xx_ll_fmc.c ****     tmpreg = (uint32_t)(Device->SDSR & FMC_SDSR_MODES1);
 1330              		.loc 1 1057 5 is_stmt 1 view .LVU373
 1331              		.loc 1 1057 31 is_stmt 0 view .LVU374
 1332 0002 8069     		ldr	r0, [r0, #24]
 1333              	.LVL81:
 1334              		.loc 1 1057 12 view .LVU375
 1335 0004 00F00600 		and	r0, r0, #6
 1336              	.LVL82:
 1337              		.loc 1 1057 12 view .LVU376
 1338 0008 7047     		bx	lr
 1339              	.LVL83:
 1340              	.L71:
1058:Drivers/STM32H7xx_HAL_Driver/Src/stm32h7xx_ll_fmc.c ****   }
1059:Drivers/STM32H7xx_HAL_Driver/Src/stm32h7xx_ll_fmc.c ****   else
1060:Drivers/STM32H7xx_HAL_Driver/Src/stm32h7xx_ll_fmc.c ****   {
1061:Drivers/STM32H7xx_HAL_Driver/Src/stm32h7xx_ll_fmc.c ****     tmpreg = ((uint32_t)(Device->SDSR & FMC_SDSR_MODES2) >> 2U);
ARM GAS  /tmp/ccBBH4Jd.s 			page 43


 1341              		.loc 1 1061 5 is_stmt 1 view .LVU377
 1342              		.loc 1 1061 32 is_stmt 0 view .LVU378
 1343 000a 8069     		ldr	r0, [r0, #24]
 1344              	.LVL84:
 1345              		.loc 1 1061 58 view .LVU379
 1346 000c 8008     		lsrs	r0, r0, #2
 1347              		.loc 1 1061 12 view .LVU380
 1348 000e 00F00600 		and	r0, r0, #6
 1349              	.LVL85:
1062:Drivers/STM32H7xx_HAL_Driver/Src/stm32h7xx_ll_fmc.c ****   }
1063:Drivers/STM32H7xx_HAL_Driver/Src/stm32h7xx_ll_fmc.c **** 
1064:Drivers/STM32H7xx_HAL_Driver/Src/stm32h7xx_ll_fmc.c ****   /* Return the mode status */
1065:Drivers/STM32H7xx_HAL_Driver/Src/stm32h7xx_ll_fmc.c ****   return tmpreg;
 1350              		.loc 1 1065 3 is_stmt 1 view .LVU381
1066:Drivers/STM32H7xx_HAL_Driver/Src/stm32h7xx_ll_fmc.c **** }
 1351              		.loc 1 1066 1 is_stmt 0 view .LVU382
 1352 0012 7047     		bx	lr
 1353              		.cfi_endproc
 1354              	.LFE165:
 1356              		.text
 1357              	.Letext0:
 1358              		.file 2 "/home/akinya/gcc-arm-none-eabi/arm-none-eabi/include/machine/_default_types.h"
 1359              		.file 3 "/home/akinya/gcc-arm-none-eabi/arm-none-eabi/include/sys/_stdint.h"
 1360              		.file 4 "Drivers/CMSIS/Device/ST/STM32H7xx/Include/stm32h743xx.h"
 1361              		.file 5 "Drivers/CMSIS/Device/ST/STM32H7xx/Include/stm32h7xx.h"
 1362              		.file 6 "Drivers/STM32H7xx_HAL_Driver/Inc/stm32h7xx_hal_def.h"
 1363              		.file 7 "Drivers/STM32H7xx_HAL_Driver/Inc/stm32h7xx_ll_fmc.h"
 1364              		.file 8 "Drivers/STM32H7xx_HAL_Driver/Inc/stm32h7xx_hal.h"
ARM GAS  /tmp/ccBBH4Jd.s 			page 44

