ARM GAS  /tmp/ccc750si.s 			page 1


   1              		.cpu cortex-m7
   2              		.eabi_attribute 28, 1
   3              		.eabi_attribute 20, 1
   4              		.eabi_attribute 21, 1
   5              		.eabi_attribute 23, 3
   6              		.eabi_attribute 24, 1
   7              		.eabi_attribute 25, 1
   8              		.eabi_attribute 26, 1
   9              		.eabi_attribute 30, 1
  10              		.eabi_attribute 34, 1
  11              		.eabi_attribute 18, 4
  12              		.file	"stm32h7xx_hal_sram.c"
  13              		.text
  14              	.Ltext0:
  15              		.cfi_sections	.debug_frame
  16              		.section	.text.HAL_SRAM_MspInit,"ax",%progbits
  17              		.align	1
  18              		.weak	HAL_SRAM_MspInit
  19              		.arch armv7e-m
  20              		.syntax unified
  21              		.thumb
  22              		.thumb_func
  23              		.fpu fpv5-d16
  25              	HAL_SRAM_MspInit:
  26              	.LVL0:
  27              	.LFB146:
  28              		.file 1 "Drivers/STM32H7xx_HAL_Driver/Src/stm32h7xx_hal_sram.c"
   1:Drivers/STM32H7xx_HAL_Driver/Src/stm32h7xx_hal_sram.c **** /**
   2:Drivers/STM32H7xx_HAL_Driver/Src/stm32h7xx_hal_sram.c ****   ******************************************************************************
   3:Drivers/STM32H7xx_HAL_Driver/Src/stm32h7xx_hal_sram.c ****   * @file    stm32h7xx_hal_sram.c
   4:Drivers/STM32H7xx_HAL_Driver/Src/stm32h7xx_hal_sram.c ****   * @author  MCD Application Team
   5:Drivers/STM32H7xx_HAL_Driver/Src/stm32h7xx_hal_sram.c ****   * @brief   SRAM HAL module driver.
   6:Drivers/STM32H7xx_HAL_Driver/Src/stm32h7xx_hal_sram.c ****   *          This file provides a generic firmware to drive SRAM memories
   7:Drivers/STM32H7xx_HAL_Driver/Src/stm32h7xx_hal_sram.c ****   *          mounted as external device.
   8:Drivers/STM32H7xx_HAL_Driver/Src/stm32h7xx_hal_sram.c ****   *
   9:Drivers/STM32H7xx_HAL_Driver/Src/stm32h7xx_hal_sram.c ****   @verbatim
  10:Drivers/STM32H7xx_HAL_Driver/Src/stm32h7xx_hal_sram.c ****   ==============================================================================
  11:Drivers/STM32H7xx_HAL_Driver/Src/stm32h7xx_hal_sram.c ****                           ##### How to use this driver #####
  12:Drivers/STM32H7xx_HAL_Driver/Src/stm32h7xx_hal_sram.c ****   ==============================================================================
  13:Drivers/STM32H7xx_HAL_Driver/Src/stm32h7xx_hal_sram.c ****   [..]
  14:Drivers/STM32H7xx_HAL_Driver/Src/stm32h7xx_hal_sram.c ****     This driver is a generic layered driver which contains a set of APIs used to
  15:Drivers/STM32H7xx_HAL_Driver/Src/stm32h7xx_hal_sram.c ****     control SRAM memories. It uses the FMC layer functions to interface
  16:Drivers/STM32H7xx_HAL_Driver/Src/stm32h7xx_hal_sram.c ****     with SRAM devices.
  17:Drivers/STM32H7xx_HAL_Driver/Src/stm32h7xx_hal_sram.c ****     The following sequence should be followed to configure the FMC to interface
  18:Drivers/STM32H7xx_HAL_Driver/Src/stm32h7xx_hal_sram.c ****     with SRAM/PSRAM memories:
  19:Drivers/STM32H7xx_HAL_Driver/Src/stm32h7xx_hal_sram.c **** 
  20:Drivers/STM32H7xx_HAL_Driver/Src/stm32h7xx_hal_sram.c ****    (#) Declare a SRAM_HandleTypeDef handle structure, for example:
  21:Drivers/STM32H7xx_HAL_Driver/Src/stm32h7xx_hal_sram.c ****           SRAM_HandleTypeDef  hsram; and:
  22:Drivers/STM32H7xx_HAL_Driver/Src/stm32h7xx_hal_sram.c **** 
  23:Drivers/STM32H7xx_HAL_Driver/Src/stm32h7xx_hal_sram.c ****        (++) Fill the SRAM_HandleTypeDef handle "Init" field with the allowed
  24:Drivers/STM32H7xx_HAL_Driver/Src/stm32h7xx_hal_sram.c ****             values of the structure member.
  25:Drivers/STM32H7xx_HAL_Driver/Src/stm32h7xx_hal_sram.c **** 
  26:Drivers/STM32H7xx_HAL_Driver/Src/stm32h7xx_hal_sram.c ****        (++) Fill the SRAM_HandleTypeDef handle "Instance" field with a predefined
  27:Drivers/STM32H7xx_HAL_Driver/Src/stm32h7xx_hal_sram.c ****             base register instance for NOR or SRAM device
  28:Drivers/STM32H7xx_HAL_Driver/Src/stm32h7xx_hal_sram.c **** 
  29:Drivers/STM32H7xx_HAL_Driver/Src/stm32h7xx_hal_sram.c ****        (++) Fill the SRAM_HandleTypeDef handle "Extended" field with a predefined
  30:Drivers/STM32H7xx_HAL_Driver/Src/stm32h7xx_hal_sram.c ****             base register instance for NOR or SRAM extended mode
ARM GAS  /tmp/ccc750si.s 			page 2


  31:Drivers/STM32H7xx_HAL_Driver/Src/stm32h7xx_hal_sram.c **** 
  32:Drivers/STM32H7xx_HAL_Driver/Src/stm32h7xx_hal_sram.c ****    (#) Declare two FMC_NORSRAM_TimingTypeDef structures, for both normal and extended
  33:Drivers/STM32H7xx_HAL_Driver/Src/stm32h7xx_hal_sram.c ****        mode timings; for example:
  34:Drivers/STM32H7xx_HAL_Driver/Src/stm32h7xx_hal_sram.c ****           FMC_NORSRAM_TimingTypeDef  Timing and FMC_NORSRAM_TimingTypeDef  ExTiming;
  35:Drivers/STM32H7xx_HAL_Driver/Src/stm32h7xx_hal_sram.c ****       and fill its fields with the allowed values of the structure member.
  36:Drivers/STM32H7xx_HAL_Driver/Src/stm32h7xx_hal_sram.c **** 
  37:Drivers/STM32H7xx_HAL_Driver/Src/stm32h7xx_hal_sram.c ****    (#) Initialize the SRAM Controller by calling the function HAL_SRAM_Init(). This function
  38:Drivers/STM32H7xx_HAL_Driver/Src/stm32h7xx_hal_sram.c ****        performs the following sequence:
  39:Drivers/STM32H7xx_HAL_Driver/Src/stm32h7xx_hal_sram.c **** 
  40:Drivers/STM32H7xx_HAL_Driver/Src/stm32h7xx_hal_sram.c ****        (##) MSP hardware layer configuration using the function HAL_SRAM_MspInit()
  41:Drivers/STM32H7xx_HAL_Driver/Src/stm32h7xx_hal_sram.c ****        (##) Control register configuration using the FMC NORSRAM interface function
  42:Drivers/STM32H7xx_HAL_Driver/Src/stm32h7xx_hal_sram.c ****             FMC_NORSRAM_Init()
  43:Drivers/STM32H7xx_HAL_Driver/Src/stm32h7xx_hal_sram.c ****        (##) Timing register configuration using the FMC NORSRAM interface function
  44:Drivers/STM32H7xx_HAL_Driver/Src/stm32h7xx_hal_sram.c ****             FMC_NORSRAM_Timing_Init()
  45:Drivers/STM32H7xx_HAL_Driver/Src/stm32h7xx_hal_sram.c ****        (##) Extended mode Timing register configuration using the FMC NORSRAM interface function
  46:Drivers/STM32H7xx_HAL_Driver/Src/stm32h7xx_hal_sram.c ****             FMC_NORSRAM_Extended_Timing_Init()
  47:Drivers/STM32H7xx_HAL_Driver/Src/stm32h7xx_hal_sram.c ****        (##) Enable the SRAM device using the macro __FMC_NORSRAM_ENABLE()
  48:Drivers/STM32H7xx_HAL_Driver/Src/stm32h7xx_hal_sram.c **** 
  49:Drivers/STM32H7xx_HAL_Driver/Src/stm32h7xx_hal_sram.c ****    (#) At this stage you can perform read/write accesses from/to the memory connected
  50:Drivers/STM32H7xx_HAL_Driver/Src/stm32h7xx_hal_sram.c ****        to the NOR/SRAM Bank. You can perform either polling or DMA transfer using the
  51:Drivers/STM32H7xx_HAL_Driver/Src/stm32h7xx_hal_sram.c ****        following APIs:
  52:Drivers/STM32H7xx_HAL_Driver/Src/stm32h7xx_hal_sram.c ****        (++) HAL_SRAM_Read()/HAL_SRAM_Write() for polling read/write access
  53:Drivers/STM32H7xx_HAL_Driver/Src/stm32h7xx_hal_sram.c ****        (++) HAL_SRAM_Read_DMA()/HAL_SRAM_Write_DMA() for DMA read/write transfer
  54:Drivers/STM32H7xx_HAL_Driver/Src/stm32h7xx_hal_sram.c **** 
  55:Drivers/STM32H7xx_HAL_Driver/Src/stm32h7xx_hal_sram.c ****    (#) You can also control the SRAM device by calling the control APIs HAL_SRAM_WriteOperation_Ena
  56:Drivers/STM32H7xx_HAL_Driver/Src/stm32h7xx_hal_sram.c ****        HAL_SRAM_WriteOperation_Disable() to respectively enable/disable the SRAM write operation
  57:Drivers/STM32H7xx_HAL_Driver/Src/stm32h7xx_hal_sram.c **** 
  58:Drivers/STM32H7xx_HAL_Driver/Src/stm32h7xx_hal_sram.c ****    (#) You can continuously monitor the SRAM device HAL state by calling the function
  59:Drivers/STM32H7xx_HAL_Driver/Src/stm32h7xx_hal_sram.c ****        HAL_SRAM_GetState()
  60:Drivers/STM32H7xx_HAL_Driver/Src/stm32h7xx_hal_sram.c **** 
  61:Drivers/STM32H7xx_HAL_Driver/Src/stm32h7xx_hal_sram.c ****        *** Callback registration ***
  62:Drivers/STM32H7xx_HAL_Driver/Src/stm32h7xx_hal_sram.c ****     =============================================
  63:Drivers/STM32H7xx_HAL_Driver/Src/stm32h7xx_hal_sram.c ****     [..]
  64:Drivers/STM32H7xx_HAL_Driver/Src/stm32h7xx_hal_sram.c ****       The compilation define  USE_HAL_SRAM_REGISTER_CALLBACKS when set to 1
  65:Drivers/STM32H7xx_HAL_Driver/Src/stm32h7xx_hal_sram.c ****       allows the user to configure dynamically the driver callbacks.
  66:Drivers/STM32H7xx_HAL_Driver/Src/stm32h7xx_hal_sram.c **** 
  67:Drivers/STM32H7xx_HAL_Driver/Src/stm32h7xx_hal_sram.c ****       Use Functions @ref HAL_SRAM_RegisterCallback() to register a user callback,
  68:Drivers/STM32H7xx_HAL_Driver/Src/stm32h7xx_hal_sram.c ****       it allows to register following callbacks:
  69:Drivers/STM32H7xx_HAL_Driver/Src/stm32h7xx_hal_sram.c ****         (+) MspInitCallback    : SRAM MspInit.
  70:Drivers/STM32H7xx_HAL_Driver/Src/stm32h7xx_hal_sram.c ****         (+) MspDeInitCallback  : SRAM MspDeInit.
  71:Drivers/STM32H7xx_HAL_Driver/Src/stm32h7xx_hal_sram.c ****       This function takes as parameters the HAL peripheral handle, the Callback ID
  72:Drivers/STM32H7xx_HAL_Driver/Src/stm32h7xx_hal_sram.c ****       and a pointer to the user callback function.
  73:Drivers/STM32H7xx_HAL_Driver/Src/stm32h7xx_hal_sram.c **** 
  74:Drivers/STM32H7xx_HAL_Driver/Src/stm32h7xx_hal_sram.c ****       Use function @ref HAL_SRAM_UnRegisterCallback() to reset a callback to the default
  75:Drivers/STM32H7xx_HAL_Driver/Src/stm32h7xx_hal_sram.c ****       weak (surcharged) function. It allows to reset following callbacks:
  76:Drivers/STM32H7xx_HAL_Driver/Src/stm32h7xx_hal_sram.c ****         (+) MspInitCallback    : SRAM MspInit.
  77:Drivers/STM32H7xx_HAL_Driver/Src/stm32h7xx_hal_sram.c ****         (+) MspDeInitCallback  : SRAM MspDeInit.
  78:Drivers/STM32H7xx_HAL_Driver/Src/stm32h7xx_hal_sram.c ****       This function) takes as parameters the HAL peripheral handle and the Callback ID.
  79:Drivers/STM32H7xx_HAL_Driver/Src/stm32h7xx_hal_sram.c **** 
  80:Drivers/STM32H7xx_HAL_Driver/Src/stm32h7xx_hal_sram.c ****       By default, after the @ref HAL_SRAM_Init and if the state is HAL_SRAM_STATE_RESET
  81:Drivers/STM32H7xx_HAL_Driver/Src/stm32h7xx_hal_sram.c ****       all callbacks are reset to the corresponding legacy weak (surcharged) functions.
  82:Drivers/STM32H7xx_HAL_Driver/Src/stm32h7xx_hal_sram.c ****       Exception done for MspInit and MspDeInit callbacks that are respectively
  83:Drivers/STM32H7xx_HAL_Driver/Src/stm32h7xx_hal_sram.c ****       reset to the legacy weak (surcharged) functions in the @ref HAL_SRAM_Init
  84:Drivers/STM32H7xx_HAL_Driver/Src/stm32h7xx_hal_sram.c ****       and @ref  HAL_SRAM_DeInit only when these callbacks are null (not registered beforehand).
  85:Drivers/STM32H7xx_HAL_Driver/Src/stm32h7xx_hal_sram.c ****       If not, MspInit or MspDeInit are not null, the @ref HAL_SRAM_Init and @ref HAL_SRAM_DeInit
  86:Drivers/STM32H7xx_HAL_Driver/Src/stm32h7xx_hal_sram.c ****       keep and use the user MspInit/MspDeInit callbacks (registered beforehand)
  87:Drivers/STM32H7xx_HAL_Driver/Src/stm32h7xx_hal_sram.c **** 
ARM GAS  /tmp/ccc750si.s 			page 3


  88:Drivers/STM32H7xx_HAL_Driver/Src/stm32h7xx_hal_sram.c ****       Callbacks can be registered/unregistered in READY state only.
  89:Drivers/STM32H7xx_HAL_Driver/Src/stm32h7xx_hal_sram.c ****       Exception done for MspInit/MspDeInit callbacks that can be registered/unregistered
  90:Drivers/STM32H7xx_HAL_Driver/Src/stm32h7xx_hal_sram.c ****       in READY or RESET state, thus registered (user) MspInit/DeInit callbacks can be used
  91:Drivers/STM32H7xx_HAL_Driver/Src/stm32h7xx_hal_sram.c ****       during the Init/DeInit.
  92:Drivers/STM32H7xx_HAL_Driver/Src/stm32h7xx_hal_sram.c ****       In that case first register the MspInit/MspDeInit user callbacks
  93:Drivers/STM32H7xx_HAL_Driver/Src/stm32h7xx_hal_sram.c ****       using @ref HAL_SRAM_RegisterCallback before calling @ref HAL_SRAM_DeInit
  94:Drivers/STM32H7xx_HAL_Driver/Src/stm32h7xx_hal_sram.c ****       or @ref HAL_SRAM_Init function.
  95:Drivers/STM32H7xx_HAL_Driver/Src/stm32h7xx_hal_sram.c **** 
  96:Drivers/STM32H7xx_HAL_Driver/Src/stm32h7xx_hal_sram.c ****       When The compilation define USE_HAL_SRAM_REGISTER_CALLBACKS is set to 0 or
  97:Drivers/STM32H7xx_HAL_Driver/Src/stm32h7xx_hal_sram.c ****       not defined, the callback registering feature is not available
  98:Drivers/STM32H7xx_HAL_Driver/Src/stm32h7xx_hal_sram.c ****       and weak (surcharged) callbacks are used.
  99:Drivers/STM32H7xx_HAL_Driver/Src/stm32h7xx_hal_sram.c **** 
 100:Drivers/STM32H7xx_HAL_Driver/Src/stm32h7xx_hal_sram.c ****   @endverbatim
 101:Drivers/STM32H7xx_HAL_Driver/Src/stm32h7xx_hal_sram.c ****   ******************************************************************************
 102:Drivers/STM32H7xx_HAL_Driver/Src/stm32h7xx_hal_sram.c ****   * @attention
 103:Drivers/STM32H7xx_HAL_Driver/Src/stm32h7xx_hal_sram.c ****   *
 104:Drivers/STM32H7xx_HAL_Driver/Src/stm32h7xx_hal_sram.c ****   * <h2><center>&copy; Copyright (c) 2017 STMicroelectronics.
 105:Drivers/STM32H7xx_HAL_Driver/Src/stm32h7xx_hal_sram.c ****   * All rights reserved.</center></h2>
 106:Drivers/STM32H7xx_HAL_Driver/Src/stm32h7xx_hal_sram.c ****   *
 107:Drivers/STM32H7xx_HAL_Driver/Src/stm32h7xx_hal_sram.c ****   * This software component is licensed by ST under BSD 3-Clause license,
 108:Drivers/STM32H7xx_HAL_Driver/Src/stm32h7xx_hal_sram.c ****   * the "License"; You may not use this file except in compliance with the
 109:Drivers/STM32H7xx_HAL_Driver/Src/stm32h7xx_hal_sram.c ****   * License. You may obtain a copy of the License at:
 110:Drivers/STM32H7xx_HAL_Driver/Src/stm32h7xx_hal_sram.c ****   *                       opensource.org/licenses/BSD-3-Clause
 111:Drivers/STM32H7xx_HAL_Driver/Src/stm32h7xx_hal_sram.c ****   *
 112:Drivers/STM32H7xx_HAL_Driver/Src/stm32h7xx_hal_sram.c ****   ******************************************************************************
 113:Drivers/STM32H7xx_HAL_Driver/Src/stm32h7xx_hal_sram.c ****   */
 114:Drivers/STM32H7xx_HAL_Driver/Src/stm32h7xx_hal_sram.c **** 
 115:Drivers/STM32H7xx_HAL_Driver/Src/stm32h7xx_hal_sram.c **** /* Includes ------------------------------------------------------------------*/
 116:Drivers/STM32H7xx_HAL_Driver/Src/stm32h7xx_hal_sram.c **** #include "stm32h7xx_hal.h"
 117:Drivers/STM32H7xx_HAL_Driver/Src/stm32h7xx_hal_sram.c **** 
 118:Drivers/STM32H7xx_HAL_Driver/Src/stm32h7xx_hal_sram.c **** 
 119:Drivers/STM32H7xx_HAL_Driver/Src/stm32h7xx_hal_sram.c **** /** @addtogroup STM32H7xx_HAL_Driver
 120:Drivers/STM32H7xx_HAL_Driver/Src/stm32h7xx_hal_sram.c ****   * @{
 121:Drivers/STM32H7xx_HAL_Driver/Src/stm32h7xx_hal_sram.c ****   */
 122:Drivers/STM32H7xx_HAL_Driver/Src/stm32h7xx_hal_sram.c **** 
 123:Drivers/STM32H7xx_HAL_Driver/Src/stm32h7xx_hal_sram.c **** #ifdef HAL_SRAM_MODULE_ENABLED
 124:Drivers/STM32H7xx_HAL_Driver/Src/stm32h7xx_hal_sram.c **** 
 125:Drivers/STM32H7xx_HAL_Driver/Src/stm32h7xx_hal_sram.c **** /** @defgroup SRAM SRAM
 126:Drivers/STM32H7xx_HAL_Driver/Src/stm32h7xx_hal_sram.c ****   * @brief SRAM driver modules
 127:Drivers/STM32H7xx_HAL_Driver/Src/stm32h7xx_hal_sram.c ****   * @{
 128:Drivers/STM32H7xx_HAL_Driver/Src/stm32h7xx_hal_sram.c ****   */
 129:Drivers/STM32H7xx_HAL_Driver/Src/stm32h7xx_hal_sram.c **** 
 130:Drivers/STM32H7xx_HAL_Driver/Src/stm32h7xx_hal_sram.c **** /* Private typedef -----------------------------------------------------------*/
 131:Drivers/STM32H7xx_HAL_Driver/Src/stm32h7xx_hal_sram.c **** /* Private define ------------------------------------------------------------*/
 132:Drivers/STM32H7xx_HAL_Driver/Src/stm32h7xx_hal_sram.c **** /* Private macro -------------------------------------------------------------*/
 133:Drivers/STM32H7xx_HAL_Driver/Src/stm32h7xx_hal_sram.c **** /* Private variables ---------------------------------------------------------*/
 134:Drivers/STM32H7xx_HAL_Driver/Src/stm32h7xx_hal_sram.c **** /* Private function prototypes -----------------------------------------------*/
 135:Drivers/STM32H7xx_HAL_Driver/Src/stm32h7xx_hal_sram.c **** static void SRAM_DMACplt(MDMA_HandleTypeDef *hmdma);
 136:Drivers/STM32H7xx_HAL_Driver/Src/stm32h7xx_hal_sram.c **** static void SRAM_DMACpltProt(MDMA_HandleTypeDef *hmdma);
 137:Drivers/STM32H7xx_HAL_Driver/Src/stm32h7xx_hal_sram.c **** static void SRAM_DMAError(MDMA_HandleTypeDef *hmdma);
 138:Drivers/STM32H7xx_HAL_Driver/Src/stm32h7xx_hal_sram.c **** 
 139:Drivers/STM32H7xx_HAL_Driver/Src/stm32h7xx_hal_sram.c **** /* Exported functions --------------------------------------------------------*/
 140:Drivers/STM32H7xx_HAL_Driver/Src/stm32h7xx_hal_sram.c **** 
 141:Drivers/STM32H7xx_HAL_Driver/Src/stm32h7xx_hal_sram.c **** /** @defgroup SRAM_Exported_Functions SRAM Exported Functions
 142:Drivers/STM32H7xx_HAL_Driver/Src/stm32h7xx_hal_sram.c ****   * @{
 143:Drivers/STM32H7xx_HAL_Driver/Src/stm32h7xx_hal_sram.c ****   */
 144:Drivers/STM32H7xx_HAL_Driver/Src/stm32h7xx_hal_sram.c **** 
ARM GAS  /tmp/ccc750si.s 			page 4


 145:Drivers/STM32H7xx_HAL_Driver/Src/stm32h7xx_hal_sram.c **** /** @defgroup SRAM_Exported_Functions_Group1 Initialization and de-initialization functions
 146:Drivers/STM32H7xx_HAL_Driver/Src/stm32h7xx_hal_sram.c ****   * @brief    Initialization and Configuration functions.
 147:Drivers/STM32H7xx_HAL_Driver/Src/stm32h7xx_hal_sram.c ****   *
 148:Drivers/STM32H7xx_HAL_Driver/Src/stm32h7xx_hal_sram.c ****   @verbatim
 149:Drivers/STM32H7xx_HAL_Driver/Src/stm32h7xx_hal_sram.c ****   ==============================================================================
 150:Drivers/STM32H7xx_HAL_Driver/Src/stm32h7xx_hal_sram.c ****            ##### SRAM Initialization and de_initialization functions #####
 151:Drivers/STM32H7xx_HAL_Driver/Src/stm32h7xx_hal_sram.c ****   ==============================================================================
 152:Drivers/STM32H7xx_HAL_Driver/Src/stm32h7xx_hal_sram.c ****     [..]  This section provides functions allowing to initialize/de-initialize
 153:Drivers/STM32H7xx_HAL_Driver/Src/stm32h7xx_hal_sram.c ****           the SRAM memory
 154:Drivers/STM32H7xx_HAL_Driver/Src/stm32h7xx_hal_sram.c **** 
 155:Drivers/STM32H7xx_HAL_Driver/Src/stm32h7xx_hal_sram.c **** @endverbatim
 156:Drivers/STM32H7xx_HAL_Driver/Src/stm32h7xx_hal_sram.c ****   * @{
 157:Drivers/STM32H7xx_HAL_Driver/Src/stm32h7xx_hal_sram.c ****   */
 158:Drivers/STM32H7xx_HAL_Driver/Src/stm32h7xx_hal_sram.c **** 
 159:Drivers/STM32H7xx_HAL_Driver/Src/stm32h7xx_hal_sram.c **** /**
 160:Drivers/STM32H7xx_HAL_Driver/Src/stm32h7xx_hal_sram.c ****   * @brief  Performs the SRAM device initialization sequence
 161:Drivers/STM32H7xx_HAL_Driver/Src/stm32h7xx_hal_sram.c ****   * @param  hsram pointer to a SRAM_HandleTypeDef structure that contains
 162:Drivers/STM32H7xx_HAL_Driver/Src/stm32h7xx_hal_sram.c ****   *                the configuration information for SRAM module.
 163:Drivers/STM32H7xx_HAL_Driver/Src/stm32h7xx_hal_sram.c ****   * @param  Timing Pointer to SRAM control timing structure
 164:Drivers/STM32H7xx_HAL_Driver/Src/stm32h7xx_hal_sram.c ****   * @param  ExtTiming Pointer to SRAM extended mode timing structure
 165:Drivers/STM32H7xx_HAL_Driver/Src/stm32h7xx_hal_sram.c ****   * @retval HAL status
 166:Drivers/STM32H7xx_HAL_Driver/Src/stm32h7xx_hal_sram.c ****   */
 167:Drivers/STM32H7xx_HAL_Driver/Src/stm32h7xx_hal_sram.c **** HAL_StatusTypeDef HAL_SRAM_Init(SRAM_HandleTypeDef *hsram, FMC_NORSRAM_TimingTypeDef *Timing,
 168:Drivers/STM32H7xx_HAL_Driver/Src/stm32h7xx_hal_sram.c ****                                 FMC_NORSRAM_TimingTypeDef *ExtTiming)
 169:Drivers/STM32H7xx_HAL_Driver/Src/stm32h7xx_hal_sram.c **** {
 170:Drivers/STM32H7xx_HAL_Driver/Src/stm32h7xx_hal_sram.c ****   /* Check the SRAM handle parameter */
 171:Drivers/STM32H7xx_HAL_Driver/Src/stm32h7xx_hal_sram.c ****   if (hsram == NULL)
 172:Drivers/STM32H7xx_HAL_Driver/Src/stm32h7xx_hal_sram.c ****   {
 173:Drivers/STM32H7xx_HAL_Driver/Src/stm32h7xx_hal_sram.c ****     return HAL_ERROR;
 174:Drivers/STM32H7xx_HAL_Driver/Src/stm32h7xx_hal_sram.c ****   }
 175:Drivers/STM32H7xx_HAL_Driver/Src/stm32h7xx_hal_sram.c **** 
 176:Drivers/STM32H7xx_HAL_Driver/Src/stm32h7xx_hal_sram.c ****   if (hsram->State == HAL_SRAM_STATE_RESET)
 177:Drivers/STM32H7xx_HAL_Driver/Src/stm32h7xx_hal_sram.c ****   {
 178:Drivers/STM32H7xx_HAL_Driver/Src/stm32h7xx_hal_sram.c ****     /* Allocate lock resource and initialize it */
 179:Drivers/STM32H7xx_HAL_Driver/Src/stm32h7xx_hal_sram.c ****     hsram->Lock = HAL_UNLOCKED;
 180:Drivers/STM32H7xx_HAL_Driver/Src/stm32h7xx_hal_sram.c **** 
 181:Drivers/STM32H7xx_HAL_Driver/Src/stm32h7xx_hal_sram.c **** #if (USE_HAL_SRAM_REGISTER_CALLBACKS == 1)
 182:Drivers/STM32H7xx_HAL_Driver/Src/stm32h7xx_hal_sram.c ****     if (hsram->MspInitCallback == NULL)
 183:Drivers/STM32H7xx_HAL_Driver/Src/stm32h7xx_hal_sram.c ****     {
 184:Drivers/STM32H7xx_HAL_Driver/Src/stm32h7xx_hal_sram.c ****       hsram->MspInitCallback = HAL_SRAM_MspInit;
 185:Drivers/STM32H7xx_HAL_Driver/Src/stm32h7xx_hal_sram.c ****     }
 186:Drivers/STM32H7xx_HAL_Driver/Src/stm32h7xx_hal_sram.c ****     hsram->DmaXferCpltCallback = HAL_SRAM_DMA_XferCpltCallback;
 187:Drivers/STM32H7xx_HAL_Driver/Src/stm32h7xx_hal_sram.c ****     hsram->DmaXferErrorCallback = HAL_SRAM_DMA_XferErrorCallback;
 188:Drivers/STM32H7xx_HAL_Driver/Src/stm32h7xx_hal_sram.c **** 
 189:Drivers/STM32H7xx_HAL_Driver/Src/stm32h7xx_hal_sram.c ****     /* Init the low level hardware */
 190:Drivers/STM32H7xx_HAL_Driver/Src/stm32h7xx_hal_sram.c ****     hsram->MspInitCallback(hsram);
 191:Drivers/STM32H7xx_HAL_Driver/Src/stm32h7xx_hal_sram.c **** #else
 192:Drivers/STM32H7xx_HAL_Driver/Src/stm32h7xx_hal_sram.c ****     /* Initialize the low level hardware (MSP) */
 193:Drivers/STM32H7xx_HAL_Driver/Src/stm32h7xx_hal_sram.c ****     HAL_SRAM_MspInit(hsram);
 194:Drivers/STM32H7xx_HAL_Driver/Src/stm32h7xx_hal_sram.c **** #endif /* USE_HAL_SRAM_REGISTER_CALLBACKS */
 195:Drivers/STM32H7xx_HAL_Driver/Src/stm32h7xx_hal_sram.c ****   }
 196:Drivers/STM32H7xx_HAL_Driver/Src/stm32h7xx_hal_sram.c **** 
 197:Drivers/STM32H7xx_HAL_Driver/Src/stm32h7xx_hal_sram.c ****   /* Initialize SRAM control Interface */
 198:Drivers/STM32H7xx_HAL_Driver/Src/stm32h7xx_hal_sram.c ****   (void)FMC_NORSRAM_Init(hsram->Instance, &(hsram->Init));
 199:Drivers/STM32H7xx_HAL_Driver/Src/stm32h7xx_hal_sram.c **** 
 200:Drivers/STM32H7xx_HAL_Driver/Src/stm32h7xx_hal_sram.c ****   /* Initialize SRAM timing Interface */
 201:Drivers/STM32H7xx_HAL_Driver/Src/stm32h7xx_hal_sram.c ****   (void)FMC_NORSRAM_Timing_Init(hsram->Instance, Timing, hsram->Init.NSBank);
ARM GAS  /tmp/ccc750si.s 			page 5


 202:Drivers/STM32H7xx_HAL_Driver/Src/stm32h7xx_hal_sram.c **** 
 203:Drivers/STM32H7xx_HAL_Driver/Src/stm32h7xx_hal_sram.c ****   /* Initialize SRAM extended mode timing Interface */
 204:Drivers/STM32H7xx_HAL_Driver/Src/stm32h7xx_hal_sram.c ****   (void)FMC_NORSRAM_Extended_Timing_Init(hsram->Extended, ExtTiming, hsram->Init.NSBank,
 205:Drivers/STM32H7xx_HAL_Driver/Src/stm32h7xx_hal_sram.c ****                                          hsram->Init.ExtendedMode);
 206:Drivers/STM32H7xx_HAL_Driver/Src/stm32h7xx_hal_sram.c **** 
 207:Drivers/STM32H7xx_HAL_Driver/Src/stm32h7xx_hal_sram.c ****   /* Enable the NORSRAM device */
 208:Drivers/STM32H7xx_HAL_Driver/Src/stm32h7xx_hal_sram.c ****   __FMC_NORSRAM_ENABLE(hsram->Instance, hsram->Init.NSBank);
 209:Drivers/STM32H7xx_HAL_Driver/Src/stm32h7xx_hal_sram.c **** 
 210:Drivers/STM32H7xx_HAL_Driver/Src/stm32h7xx_hal_sram.c ****   /* Enable FMC Peripheral */
 211:Drivers/STM32H7xx_HAL_Driver/Src/stm32h7xx_hal_sram.c ****   __FMC_ENABLE();
 212:Drivers/STM32H7xx_HAL_Driver/Src/stm32h7xx_hal_sram.c **** 
 213:Drivers/STM32H7xx_HAL_Driver/Src/stm32h7xx_hal_sram.c ****   /* Initialize the SRAM controller state */
 214:Drivers/STM32H7xx_HAL_Driver/Src/stm32h7xx_hal_sram.c ****   hsram->State = HAL_SRAM_STATE_READY;
 215:Drivers/STM32H7xx_HAL_Driver/Src/stm32h7xx_hal_sram.c **** 
 216:Drivers/STM32H7xx_HAL_Driver/Src/stm32h7xx_hal_sram.c ****   return HAL_OK;
 217:Drivers/STM32H7xx_HAL_Driver/Src/stm32h7xx_hal_sram.c **** }
 218:Drivers/STM32H7xx_HAL_Driver/Src/stm32h7xx_hal_sram.c **** 
 219:Drivers/STM32H7xx_HAL_Driver/Src/stm32h7xx_hal_sram.c **** /**
 220:Drivers/STM32H7xx_HAL_Driver/Src/stm32h7xx_hal_sram.c ****   * @brief  Performs the SRAM device De-initialization sequence.
 221:Drivers/STM32H7xx_HAL_Driver/Src/stm32h7xx_hal_sram.c ****   * @param  hsram pointer to a SRAM_HandleTypeDef structure that contains
 222:Drivers/STM32H7xx_HAL_Driver/Src/stm32h7xx_hal_sram.c ****   *                the configuration information for SRAM module.
 223:Drivers/STM32H7xx_HAL_Driver/Src/stm32h7xx_hal_sram.c ****   * @retval HAL status
 224:Drivers/STM32H7xx_HAL_Driver/Src/stm32h7xx_hal_sram.c ****   */
 225:Drivers/STM32H7xx_HAL_Driver/Src/stm32h7xx_hal_sram.c **** HAL_StatusTypeDef HAL_SRAM_DeInit(SRAM_HandleTypeDef *hsram)
 226:Drivers/STM32H7xx_HAL_Driver/Src/stm32h7xx_hal_sram.c **** {
 227:Drivers/STM32H7xx_HAL_Driver/Src/stm32h7xx_hal_sram.c **** #if (USE_HAL_SRAM_REGISTER_CALLBACKS == 1)
 228:Drivers/STM32H7xx_HAL_Driver/Src/stm32h7xx_hal_sram.c ****   if (hsram->MspDeInitCallback == NULL)
 229:Drivers/STM32H7xx_HAL_Driver/Src/stm32h7xx_hal_sram.c ****   {
 230:Drivers/STM32H7xx_HAL_Driver/Src/stm32h7xx_hal_sram.c ****     hsram->MspDeInitCallback = HAL_SRAM_MspDeInit;
 231:Drivers/STM32H7xx_HAL_Driver/Src/stm32h7xx_hal_sram.c ****   }
 232:Drivers/STM32H7xx_HAL_Driver/Src/stm32h7xx_hal_sram.c **** 
 233:Drivers/STM32H7xx_HAL_Driver/Src/stm32h7xx_hal_sram.c ****   /* DeInit the low level hardware */
 234:Drivers/STM32H7xx_HAL_Driver/Src/stm32h7xx_hal_sram.c ****   hsram->MspDeInitCallback(hsram);
 235:Drivers/STM32H7xx_HAL_Driver/Src/stm32h7xx_hal_sram.c **** #else
 236:Drivers/STM32H7xx_HAL_Driver/Src/stm32h7xx_hal_sram.c ****   /* De-Initialize the low level hardware (MSP) */
 237:Drivers/STM32H7xx_HAL_Driver/Src/stm32h7xx_hal_sram.c ****   HAL_SRAM_MspDeInit(hsram);
 238:Drivers/STM32H7xx_HAL_Driver/Src/stm32h7xx_hal_sram.c **** #endif /* USE_HAL_SRAM_REGISTER_CALLBACKS */
 239:Drivers/STM32H7xx_HAL_Driver/Src/stm32h7xx_hal_sram.c **** 
 240:Drivers/STM32H7xx_HAL_Driver/Src/stm32h7xx_hal_sram.c ****   /* Configure the SRAM registers with their reset values */
 241:Drivers/STM32H7xx_HAL_Driver/Src/stm32h7xx_hal_sram.c ****   (void)FMC_NORSRAM_DeInit(hsram->Instance, hsram->Extended, hsram->Init.NSBank);
 242:Drivers/STM32H7xx_HAL_Driver/Src/stm32h7xx_hal_sram.c **** 
 243:Drivers/STM32H7xx_HAL_Driver/Src/stm32h7xx_hal_sram.c ****   /* Reset the SRAM controller state */
 244:Drivers/STM32H7xx_HAL_Driver/Src/stm32h7xx_hal_sram.c ****   hsram->State = HAL_SRAM_STATE_RESET;
 245:Drivers/STM32H7xx_HAL_Driver/Src/stm32h7xx_hal_sram.c **** 
 246:Drivers/STM32H7xx_HAL_Driver/Src/stm32h7xx_hal_sram.c ****   /* Release Lock */
 247:Drivers/STM32H7xx_HAL_Driver/Src/stm32h7xx_hal_sram.c ****   __HAL_UNLOCK(hsram);
 248:Drivers/STM32H7xx_HAL_Driver/Src/stm32h7xx_hal_sram.c **** 
 249:Drivers/STM32H7xx_HAL_Driver/Src/stm32h7xx_hal_sram.c ****   return HAL_OK;
 250:Drivers/STM32H7xx_HAL_Driver/Src/stm32h7xx_hal_sram.c **** }
 251:Drivers/STM32H7xx_HAL_Driver/Src/stm32h7xx_hal_sram.c **** 
 252:Drivers/STM32H7xx_HAL_Driver/Src/stm32h7xx_hal_sram.c **** /**
 253:Drivers/STM32H7xx_HAL_Driver/Src/stm32h7xx_hal_sram.c ****   * @brief  SRAM MSP Init.
 254:Drivers/STM32H7xx_HAL_Driver/Src/stm32h7xx_hal_sram.c ****   * @param  hsram pointer to a SRAM_HandleTypeDef structure that contains
 255:Drivers/STM32H7xx_HAL_Driver/Src/stm32h7xx_hal_sram.c ****   *                the configuration information for SRAM module.
 256:Drivers/STM32H7xx_HAL_Driver/Src/stm32h7xx_hal_sram.c ****   * @retval None
 257:Drivers/STM32H7xx_HAL_Driver/Src/stm32h7xx_hal_sram.c ****   */
 258:Drivers/STM32H7xx_HAL_Driver/Src/stm32h7xx_hal_sram.c **** __weak void HAL_SRAM_MspInit(SRAM_HandleTypeDef *hsram)
ARM GAS  /tmp/ccc750si.s 			page 6


 259:Drivers/STM32H7xx_HAL_Driver/Src/stm32h7xx_hal_sram.c **** {
  29              		.loc 1 259 1 view -0
  30              		.cfi_startproc
  31              		@ args = 0, pretend = 0, frame = 0
  32              		@ frame_needed = 0, uses_anonymous_args = 0
  33              		@ link register save eliminated.
 260:Drivers/STM32H7xx_HAL_Driver/Src/stm32h7xx_hal_sram.c ****   /* Prevent unused argument(s) compilation warning */
 261:Drivers/STM32H7xx_HAL_Driver/Src/stm32h7xx_hal_sram.c ****   UNUSED(hsram);
  34              		.loc 1 261 3 view .LVU1
 262:Drivers/STM32H7xx_HAL_Driver/Src/stm32h7xx_hal_sram.c **** 
 263:Drivers/STM32H7xx_HAL_Driver/Src/stm32h7xx_hal_sram.c ****   /* NOTE : This function Should not be modified, when the callback is needed,
 264:Drivers/STM32H7xx_HAL_Driver/Src/stm32h7xx_hal_sram.c ****             the HAL_SRAM_MspInit could be implemented in the user file
 265:Drivers/STM32H7xx_HAL_Driver/Src/stm32h7xx_hal_sram.c ****    */
 266:Drivers/STM32H7xx_HAL_Driver/Src/stm32h7xx_hal_sram.c **** }
  35              		.loc 1 266 1 is_stmt 0 view .LVU2
  36 0000 7047     		bx	lr
  37              		.cfi_endproc
  38              	.LFE146:
  40              		.section	.text.HAL_SRAM_Init,"ax",%progbits
  41              		.align	1
  42              		.global	HAL_SRAM_Init
  43              		.syntax unified
  44              		.thumb
  45              		.thumb_func
  46              		.fpu fpv5-d16
  48              	HAL_SRAM_Init:
  49              	.LVL1:
  50              	.LFB144:
 169:Drivers/STM32H7xx_HAL_Driver/Src/stm32h7xx_hal_sram.c ****   /* Check the SRAM handle parameter */
  51              		.loc 1 169 1 is_stmt 1 view -0
  52              		.cfi_startproc
  53              		@ args = 0, pretend = 0, frame = 0
  54              		@ frame_needed = 0, uses_anonymous_args = 0
 171:Drivers/STM32H7xx_HAL_Driver/Src/stm32h7xx_hal_sram.c ****   {
  55              		.loc 1 171 3 view .LVU4
 171:Drivers/STM32H7xx_HAL_Driver/Src/stm32h7xx_hal_sram.c ****   {
  56              		.loc 1 171 6 is_stmt 0 view .LVU5
  57 0000 68B3     		cbz	r0, .L5
 169:Drivers/STM32H7xx_HAL_Driver/Src/stm32h7xx_hal_sram.c ****   /* Check the SRAM handle parameter */
  58              		.loc 1 169 1 view .LVU6
  59 0002 70B5     		push	{r4, r5, r6, lr}
  60              	.LCFI0:
  61              		.cfi_def_cfa_offset 16
  62              		.cfi_offset 4, -16
  63              		.cfi_offset 5, -12
  64              		.cfi_offset 6, -8
  65              		.cfi_offset 14, -4
  66 0004 0E46     		mov	r6, r1
  67 0006 1546     		mov	r5, r2
  68 0008 0446     		mov	r4, r0
 176:Drivers/STM32H7xx_HAL_Driver/Src/stm32h7xx_hal_sram.c ****   {
  69              		.loc 1 176 3 is_stmt 1 view .LVU7
 176:Drivers/STM32H7xx_HAL_Driver/Src/stm32h7xx_hal_sram.c ****   {
  70              		.loc 1 176 12 is_stmt 0 view .LVU8
  71 000a 90F84530 		ldrb	r3, [r0, #69]	@ zero_extendqisi2
 176:Drivers/STM32H7xx_HAL_Driver/Src/stm32h7xx_hal_sram.c ****   {
  72              		.loc 1 176 6 view .LVU9
ARM GAS  /tmp/ccc750si.s 			page 7


  73 000e 0BB3     		cbz	r3, .L10
  74              	.LVL2:
  75              	.L4:
 198:Drivers/STM32H7xx_HAL_Driver/Src/stm32h7xx_hal_sram.c **** 
  76              		.loc 1 198 3 is_stmt 1 view .LVU10
 198:Drivers/STM32H7xx_HAL_Driver/Src/stm32h7xx_hal_sram.c **** 
  77              		.loc 1 198 9 is_stmt 0 view .LVU11
  78 0010 2146     		mov	r1, r4
  79 0012 51F8080B 		ldr	r0, [r1], #8
  80 0016 FFF7FEFF 		bl	FMC_NORSRAM_Init
  81              	.LVL3:
 201:Drivers/STM32H7xx_HAL_Driver/Src/stm32h7xx_hal_sram.c **** 
  82              		.loc 1 201 3 is_stmt 1 view .LVU12
 201:Drivers/STM32H7xx_HAL_Driver/Src/stm32h7xx_hal_sram.c **** 
  83              		.loc 1 201 9 is_stmt 0 view .LVU13
  84 001a A268     		ldr	r2, [r4, #8]
  85 001c 3146     		mov	r1, r6
  86 001e 2068     		ldr	r0, [r4]
  87 0020 FFF7FEFF 		bl	FMC_NORSRAM_Timing_Init
  88              	.LVL4:
 204:Drivers/STM32H7xx_HAL_Driver/Src/stm32h7xx_hal_sram.c ****                                          hsram->Init.ExtendedMode);
  89              		.loc 1 204 3 is_stmt 1 view .LVU14
 204:Drivers/STM32H7xx_HAL_Driver/Src/stm32h7xx_hal_sram.c ****                                          hsram->Init.ExtendedMode);
  90              		.loc 1 204 9 is_stmt 0 view .LVU15
  91 0024 E36A     		ldr	r3, [r4, #44]
  92 0026 A268     		ldr	r2, [r4, #8]
  93 0028 2946     		mov	r1, r5
  94 002a 6068     		ldr	r0, [r4, #4]
  95 002c FFF7FEFF 		bl	FMC_NORSRAM_Extended_Timing_Init
  96              	.LVL5:
 208:Drivers/STM32H7xx_HAL_Driver/Src/stm32h7xx_hal_sram.c **** 
  97              		.loc 1 208 3 is_stmt 1 view .LVU16
  98 0030 2268     		ldr	r2, [r4]
  99 0032 A168     		ldr	r1, [r4, #8]
 100 0034 52F82130 		ldr	r3, [r2, r1, lsl #2]
 101 0038 43F00103 		orr	r3, r3, #1
 102 003c 42F82130 		str	r3, [r2, r1, lsl #2]
 211:Drivers/STM32H7xx_HAL_Driver/Src/stm32h7xx_hal_sram.c **** 
 103              		.loc 1 211 3 view .LVU17
 104 0040 084A     		ldr	r2, .L11
 105 0042 1368     		ldr	r3, [r2]
 106 0044 43F00043 		orr	r3, r3, #-2147483648
 107 0048 1360     		str	r3, [r2]
 214:Drivers/STM32H7xx_HAL_Driver/Src/stm32h7xx_hal_sram.c **** 
 108              		.loc 1 214 3 view .LVU18
 214:Drivers/STM32H7xx_HAL_Driver/Src/stm32h7xx_hal_sram.c **** 
 109              		.loc 1 214 16 is_stmt 0 view .LVU19
 110 004a 0123     		movs	r3, #1
 111 004c 84F84530 		strb	r3, [r4, #69]
 216:Drivers/STM32H7xx_HAL_Driver/Src/stm32h7xx_hal_sram.c **** }
 112              		.loc 1 216 3 is_stmt 1 view .LVU20
 216:Drivers/STM32H7xx_HAL_Driver/Src/stm32h7xx_hal_sram.c **** }
 113              		.loc 1 216 10 is_stmt 0 view .LVU21
 114 0050 0020     		movs	r0, #0
 217:Drivers/STM32H7xx_HAL_Driver/Src/stm32h7xx_hal_sram.c **** 
 115              		.loc 1 217 1 view .LVU22
 116 0052 70BD     		pop	{r4, r5, r6, pc}
ARM GAS  /tmp/ccc750si.s 			page 8


 117              	.LVL6:
 118              	.L10:
 179:Drivers/STM32H7xx_HAL_Driver/Src/stm32h7xx_hal_sram.c **** 
 119              		.loc 1 179 5 is_stmt 1 view .LVU23
 179:Drivers/STM32H7xx_HAL_Driver/Src/stm32h7xx_hal_sram.c **** 
 120              		.loc 1 179 17 is_stmt 0 view .LVU24
 121 0054 80F84430 		strb	r3, [r0, #68]
 193:Drivers/STM32H7xx_HAL_Driver/Src/stm32h7xx_hal_sram.c **** #endif /* USE_HAL_SRAM_REGISTER_CALLBACKS */
 122              		.loc 1 193 5 is_stmt 1 view .LVU25
 123 0058 FFF7FEFF 		bl	HAL_SRAM_MspInit
 124              	.LVL7:
 193:Drivers/STM32H7xx_HAL_Driver/Src/stm32h7xx_hal_sram.c **** #endif /* USE_HAL_SRAM_REGISTER_CALLBACKS */
 125              		.loc 1 193 5 is_stmt 0 view .LVU26
 126 005c D8E7     		b	.L4
 127              	.LVL8:
 128              	.L5:
 129              	.LCFI1:
 130              		.cfi_def_cfa_offset 0
 131              		.cfi_restore 4
 132              		.cfi_restore 5
 133              		.cfi_restore 6
 134              		.cfi_restore 14
 173:Drivers/STM32H7xx_HAL_Driver/Src/stm32h7xx_hal_sram.c ****   }
 135              		.loc 1 173 12 view .LVU27
 136 005e 0120     		movs	r0, #1
 137              	.LVL9:
 217:Drivers/STM32H7xx_HAL_Driver/Src/stm32h7xx_hal_sram.c **** 
 138              		.loc 1 217 1 view .LVU28
 139 0060 7047     		bx	lr
 140              	.L12:
 141 0062 00BF     		.align	2
 142              	.L11:
 143 0064 00400052 		.word	1375748096
 144              		.cfi_endproc
 145              	.LFE144:
 147              		.section	.text.HAL_SRAM_MspDeInit,"ax",%progbits
 148              		.align	1
 149              		.weak	HAL_SRAM_MspDeInit
 150              		.syntax unified
 151              		.thumb
 152              		.thumb_func
 153              		.fpu fpv5-d16
 155              	HAL_SRAM_MspDeInit:
 156              	.LVL10:
 157              	.LFB147:
 267:Drivers/STM32H7xx_HAL_Driver/Src/stm32h7xx_hal_sram.c **** 
 268:Drivers/STM32H7xx_HAL_Driver/Src/stm32h7xx_hal_sram.c **** /**
 269:Drivers/STM32H7xx_HAL_Driver/Src/stm32h7xx_hal_sram.c ****   * @brief  SRAM MSP DeInit.
 270:Drivers/STM32H7xx_HAL_Driver/Src/stm32h7xx_hal_sram.c ****   * @param  hsram pointer to a SRAM_HandleTypeDef structure that contains
 271:Drivers/STM32H7xx_HAL_Driver/Src/stm32h7xx_hal_sram.c ****   *                the configuration information for SRAM module.
 272:Drivers/STM32H7xx_HAL_Driver/Src/stm32h7xx_hal_sram.c ****   * @retval None
 273:Drivers/STM32H7xx_HAL_Driver/Src/stm32h7xx_hal_sram.c ****   */
 274:Drivers/STM32H7xx_HAL_Driver/Src/stm32h7xx_hal_sram.c **** __weak void HAL_SRAM_MspDeInit(SRAM_HandleTypeDef *hsram)
 275:Drivers/STM32H7xx_HAL_Driver/Src/stm32h7xx_hal_sram.c **** {
 158              		.loc 1 275 1 is_stmt 1 view -0
 159              		.cfi_startproc
 160              		@ args = 0, pretend = 0, frame = 0
ARM GAS  /tmp/ccc750si.s 			page 9


 161              		@ frame_needed = 0, uses_anonymous_args = 0
 162              		@ link register save eliminated.
 276:Drivers/STM32H7xx_HAL_Driver/Src/stm32h7xx_hal_sram.c ****   /* Prevent unused argument(s) compilation warning */
 277:Drivers/STM32H7xx_HAL_Driver/Src/stm32h7xx_hal_sram.c ****   UNUSED(hsram);
 163              		.loc 1 277 3 view .LVU30
 278:Drivers/STM32H7xx_HAL_Driver/Src/stm32h7xx_hal_sram.c **** 
 279:Drivers/STM32H7xx_HAL_Driver/Src/stm32h7xx_hal_sram.c ****   /* NOTE : This function Should not be modified, when the callback is needed,
 280:Drivers/STM32H7xx_HAL_Driver/Src/stm32h7xx_hal_sram.c ****             the HAL_SRAM_MspDeInit could be implemented in the user file
 281:Drivers/STM32H7xx_HAL_Driver/Src/stm32h7xx_hal_sram.c ****    */
 282:Drivers/STM32H7xx_HAL_Driver/Src/stm32h7xx_hal_sram.c **** }
 164              		.loc 1 282 1 is_stmt 0 view .LVU31
 165 0000 7047     		bx	lr
 166              		.cfi_endproc
 167              	.LFE147:
 169              		.section	.text.HAL_SRAM_DeInit,"ax",%progbits
 170              		.align	1
 171              		.global	HAL_SRAM_DeInit
 172              		.syntax unified
 173              		.thumb
 174              		.thumb_func
 175              		.fpu fpv5-d16
 177              	HAL_SRAM_DeInit:
 178              	.LVL11:
 179              	.LFB145:
 226:Drivers/STM32H7xx_HAL_Driver/Src/stm32h7xx_hal_sram.c **** #if (USE_HAL_SRAM_REGISTER_CALLBACKS == 1)
 180              		.loc 1 226 1 is_stmt 1 view -0
 181              		.cfi_startproc
 182              		@ args = 0, pretend = 0, frame = 0
 183              		@ frame_needed = 0, uses_anonymous_args = 0
 226:Drivers/STM32H7xx_HAL_Driver/Src/stm32h7xx_hal_sram.c **** #if (USE_HAL_SRAM_REGISTER_CALLBACKS == 1)
 184              		.loc 1 226 1 is_stmt 0 view .LVU33
 185 0000 10B5     		push	{r4, lr}
 186              	.LCFI2:
 187              		.cfi_def_cfa_offset 8
 188              		.cfi_offset 4, -8
 189              		.cfi_offset 14, -4
 190 0002 0446     		mov	r4, r0
 237:Drivers/STM32H7xx_HAL_Driver/Src/stm32h7xx_hal_sram.c **** #endif /* USE_HAL_SRAM_REGISTER_CALLBACKS */
 191              		.loc 1 237 3 is_stmt 1 view .LVU34
 192 0004 FFF7FEFF 		bl	HAL_SRAM_MspDeInit
 193              	.LVL12:
 241:Drivers/STM32H7xx_HAL_Driver/Src/stm32h7xx_hal_sram.c **** 
 194              		.loc 1 241 3 view .LVU35
 241:Drivers/STM32H7xx_HAL_Driver/Src/stm32h7xx_hal_sram.c **** 
 195              		.loc 1 241 9 is_stmt 0 view .LVU36
 196 0008 A268     		ldr	r2, [r4, #8]
 197 000a 6168     		ldr	r1, [r4, #4]
 198 000c 2068     		ldr	r0, [r4]
 199 000e FFF7FEFF 		bl	FMC_NORSRAM_DeInit
 200              	.LVL13:
 244:Drivers/STM32H7xx_HAL_Driver/Src/stm32h7xx_hal_sram.c **** 
 201              		.loc 1 244 3 is_stmt 1 view .LVU37
 244:Drivers/STM32H7xx_HAL_Driver/Src/stm32h7xx_hal_sram.c **** 
 202              		.loc 1 244 16 is_stmt 0 view .LVU38
 203 0012 0020     		movs	r0, #0
 204 0014 84F84500 		strb	r0, [r4, #69]
 247:Drivers/STM32H7xx_HAL_Driver/Src/stm32h7xx_hal_sram.c **** 
ARM GAS  /tmp/ccc750si.s 			page 10


 205              		.loc 1 247 3 is_stmt 1 view .LVU39
 247:Drivers/STM32H7xx_HAL_Driver/Src/stm32h7xx_hal_sram.c **** 
 206              		.loc 1 247 3 view .LVU40
 207 0018 84F84400 		strb	r0, [r4, #68]
 247:Drivers/STM32H7xx_HAL_Driver/Src/stm32h7xx_hal_sram.c **** 
 208              		.loc 1 247 3 view .LVU41
 249:Drivers/STM32H7xx_HAL_Driver/Src/stm32h7xx_hal_sram.c **** }
 209              		.loc 1 249 3 view .LVU42
 250:Drivers/STM32H7xx_HAL_Driver/Src/stm32h7xx_hal_sram.c **** 
 210              		.loc 1 250 1 is_stmt 0 view .LVU43
 211 001c 10BD     		pop	{r4, pc}
 250:Drivers/STM32H7xx_HAL_Driver/Src/stm32h7xx_hal_sram.c **** 
 212              		.loc 1 250 1 view .LVU44
 213              		.cfi_endproc
 214              	.LFE145:
 216              		.section	.text.HAL_SRAM_DMA_XferCpltCallback,"ax",%progbits
 217              		.align	1
 218              		.weak	HAL_SRAM_DMA_XferCpltCallback
 219              		.syntax unified
 220              		.thumb
 221              		.thumb_func
 222              		.fpu fpv5-d16
 224              	HAL_SRAM_DMA_XferCpltCallback:
 225              	.LVL14:
 226              	.LFB148:
 283:Drivers/STM32H7xx_HAL_Driver/Src/stm32h7xx_hal_sram.c **** 
 284:Drivers/STM32H7xx_HAL_Driver/Src/stm32h7xx_hal_sram.c **** /**
 285:Drivers/STM32H7xx_HAL_Driver/Src/stm32h7xx_hal_sram.c ****   * @brief  DMA transfer complete callback.
 286:Drivers/STM32H7xx_HAL_Driver/Src/stm32h7xx_hal_sram.c ****   * @param  hmdma pointer to a SRAM_HandleTypeDef structure that contains
 287:Drivers/STM32H7xx_HAL_Driver/Src/stm32h7xx_hal_sram.c ****   *                the configuration information for SRAM module.
 288:Drivers/STM32H7xx_HAL_Driver/Src/stm32h7xx_hal_sram.c ****   * @retval None
 289:Drivers/STM32H7xx_HAL_Driver/Src/stm32h7xx_hal_sram.c ****   */
 290:Drivers/STM32H7xx_HAL_Driver/Src/stm32h7xx_hal_sram.c **** __weak void HAL_SRAM_DMA_XferCpltCallback(MDMA_HandleTypeDef *hmdma)
 291:Drivers/STM32H7xx_HAL_Driver/Src/stm32h7xx_hal_sram.c **** {
 227              		.loc 1 291 1 is_stmt 1 view -0
 228              		.cfi_startproc
 229              		@ args = 0, pretend = 0, frame = 0
 230              		@ frame_needed = 0, uses_anonymous_args = 0
 231              		@ link register save eliminated.
 292:Drivers/STM32H7xx_HAL_Driver/Src/stm32h7xx_hal_sram.c ****   /* Prevent unused argument(s) compilation warning */
 293:Drivers/STM32H7xx_HAL_Driver/Src/stm32h7xx_hal_sram.c ****   UNUSED(hmdma);
 232              		.loc 1 293 3 view .LVU46
 294:Drivers/STM32H7xx_HAL_Driver/Src/stm32h7xx_hal_sram.c **** 
 295:Drivers/STM32H7xx_HAL_Driver/Src/stm32h7xx_hal_sram.c ****   /* NOTE : This function Should not be modified, when the callback is needed,
 296:Drivers/STM32H7xx_HAL_Driver/Src/stm32h7xx_hal_sram.c ****             the HAL_SRAM_DMA_XferCpltCallback could be implemented in the user file
 297:Drivers/STM32H7xx_HAL_Driver/Src/stm32h7xx_hal_sram.c ****    */
 298:Drivers/STM32H7xx_HAL_Driver/Src/stm32h7xx_hal_sram.c **** }
 233              		.loc 1 298 1 is_stmt 0 view .LVU47
 234 0000 7047     		bx	lr
 235              		.cfi_endproc
 236              	.LFE148:
 238              		.section	.text.SRAM_DMACpltProt,"ax",%progbits
 239              		.align	1
 240              		.syntax unified
 241              		.thumb
 242              		.thumb_func
 243              		.fpu fpv5-d16
ARM GAS  /tmp/ccc750si.s 			page 11


 245              	SRAM_DMACpltProt:
 246              	.LVL15:
 247              	.LFB162:
 299:Drivers/STM32H7xx_HAL_Driver/Src/stm32h7xx_hal_sram.c **** 
 300:Drivers/STM32H7xx_HAL_Driver/Src/stm32h7xx_hal_sram.c **** /**
 301:Drivers/STM32H7xx_HAL_Driver/Src/stm32h7xx_hal_sram.c ****   * @brief  DMA transfer complete error callback.
 302:Drivers/STM32H7xx_HAL_Driver/Src/stm32h7xx_hal_sram.c ****   * @param  hmdma pointer to a SRAM_HandleTypeDef structure that contains
 303:Drivers/STM32H7xx_HAL_Driver/Src/stm32h7xx_hal_sram.c ****   *                the configuration information for SRAM module.
 304:Drivers/STM32H7xx_HAL_Driver/Src/stm32h7xx_hal_sram.c ****   * @retval None
 305:Drivers/STM32H7xx_HAL_Driver/Src/stm32h7xx_hal_sram.c ****   */
 306:Drivers/STM32H7xx_HAL_Driver/Src/stm32h7xx_hal_sram.c **** __weak void HAL_SRAM_DMA_XferErrorCallback(MDMA_HandleTypeDef *hmdma)
 307:Drivers/STM32H7xx_HAL_Driver/Src/stm32h7xx_hal_sram.c **** {
 308:Drivers/STM32H7xx_HAL_Driver/Src/stm32h7xx_hal_sram.c ****   /* Prevent unused argument(s) compilation warning */
 309:Drivers/STM32H7xx_HAL_Driver/Src/stm32h7xx_hal_sram.c ****   UNUSED(hmdma);
 310:Drivers/STM32H7xx_HAL_Driver/Src/stm32h7xx_hal_sram.c **** 
 311:Drivers/STM32H7xx_HAL_Driver/Src/stm32h7xx_hal_sram.c ****   /* NOTE : This function Should not be modified, when the callback is needed,
 312:Drivers/STM32H7xx_HAL_Driver/Src/stm32h7xx_hal_sram.c ****             the HAL_SRAM_DMA_XferErrorCallback could be implemented in the user file
 313:Drivers/STM32H7xx_HAL_Driver/Src/stm32h7xx_hal_sram.c ****    */
 314:Drivers/STM32H7xx_HAL_Driver/Src/stm32h7xx_hal_sram.c **** }
 315:Drivers/STM32H7xx_HAL_Driver/Src/stm32h7xx_hal_sram.c **** 
 316:Drivers/STM32H7xx_HAL_Driver/Src/stm32h7xx_hal_sram.c **** /**
 317:Drivers/STM32H7xx_HAL_Driver/Src/stm32h7xx_hal_sram.c ****   * @}
 318:Drivers/STM32H7xx_HAL_Driver/Src/stm32h7xx_hal_sram.c ****   */
 319:Drivers/STM32H7xx_HAL_Driver/Src/stm32h7xx_hal_sram.c **** 
 320:Drivers/STM32H7xx_HAL_Driver/Src/stm32h7xx_hal_sram.c **** /** @defgroup SRAM_Exported_Functions_Group2 Input Output and memory control functions
 321:Drivers/STM32H7xx_HAL_Driver/Src/stm32h7xx_hal_sram.c ****   * @brief    Input Output and memory control functions
 322:Drivers/STM32H7xx_HAL_Driver/Src/stm32h7xx_hal_sram.c ****   *
 323:Drivers/STM32H7xx_HAL_Driver/Src/stm32h7xx_hal_sram.c ****   @verbatim
 324:Drivers/STM32H7xx_HAL_Driver/Src/stm32h7xx_hal_sram.c ****   ==============================================================================
 325:Drivers/STM32H7xx_HAL_Driver/Src/stm32h7xx_hal_sram.c ****                   ##### SRAM Input and Output functions #####
 326:Drivers/STM32H7xx_HAL_Driver/Src/stm32h7xx_hal_sram.c ****   ==============================================================================
 327:Drivers/STM32H7xx_HAL_Driver/Src/stm32h7xx_hal_sram.c ****   [..]
 328:Drivers/STM32H7xx_HAL_Driver/Src/stm32h7xx_hal_sram.c ****     This section provides functions allowing to use and control the SRAM memory
 329:Drivers/STM32H7xx_HAL_Driver/Src/stm32h7xx_hal_sram.c **** 
 330:Drivers/STM32H7xx_HAL_Driver/Src/stm32h7xx_hal_sram.c **** @endverbatim
 331:Drivers/STM32H7xx_HAL_Driver/Src/stm32h7xx_hal_sram.c ****   * @{
 332:Drivers/STM32H7xx_HAL_Driver/Src/stm32h7xx_hal_sram.c ****   */
 333:Drivers/STM32H7xx_HAL_Driver/Src/stm32h7xx_hal_sram.c **** 
 334:Drivers/STM32H7xx_HAL_Driver/Src/stm32h7xx_hal_sram.c **** /**
 335:Drivers/STM32H7xx_HAL_Driver/Src/stm32h7xx_hal_sram.c ****   * @brief  Reads 8-bit buffer from SRAM memory.
 336:Drivers/STM32H7xx_HAL_Driver/Src/stm32h7xx_hal_sram.c ****   * @param  hsram pointer to a SRAM_HandleTypeDef structure that contains
 337:Drivers/STM32H7xx_HAL_Driver/Src/stm32h7xx_hal_sram.c ****   *                the configuration information for SRAM module.
 338:Drivers/STM32H7xx_HAL_Driver/Src/stm32h7xx_hal_sram.c ****   * @param  pAddress Pointer to read start address
 339:Drivers/STM32H7xx_HAL_Driver/Src/stm32h7xx_hal_sram.c ****   * @param  pDstBuffer Pointer to destination buffer
 340:Drivers/STM32H7xx_HAL_Driver/Src/stm32h7xx_hal_sram.c ****   * @param  BufferSize Size of the buffer to read from memory
 341:Drivers/STM32H7xx_HAL_Driver/Src/stm32h7xx_hal_sram.c ****   * @retval HAL status
 342:Drivers/STM32H7xx_HAL_Driver/Src/stm32h7xx_hal_sram.c ****   */
 343:Drivers/STM32H7xx_HAL_Driver/Src/stm32h7xx_hal_sram.c **** HAL_StatusTypeDef HAL_SRAM_Read_8b(SRAM_HandleTypeDef *hsram, uint32_t *pAddress, uint8_t *pDstBuff
 344:Drivers/STM32H7xx_HAL_Driver/Src/stm32h7xx_hal_sram.c ****                                    uint32_t BufferSize)
 345:Drivers/STM32H7xx_HAL_Driver/Src/stm32h7xx_hal_sram.c **** {
 346:Drivers/STM32H7xx_HAL_Driver/Src/stm32h7xx_hal_sram.c ****   uint32_t size;
 347:Drivers/STM32H7xx_HAL_Driver/Src/stm32h7xx_hal_sram.c ****   __IO uint8_t *psramaddress = (uint8_t *)pAddress;
 348:Drivers/STM32H7xx_HAL_Driver/Src/stm32h7xx_hal_sram.c ****   uint8_t *pdestbuff = pDstBuffer;
 349:Drivers/STM32H7xx_HAL_Driver/Src/stm32h7xx_hal_sram.c ****   HAL_SRAM_StateTypeDef state = hsram->State;
 350:Drivers/STM32H7xx_HAL_Driver/Src/stm32h7xx_hal_sram.c **** 
 351:Drivers/STM32H7xx_HAL_Driver/Src/stm32h7xx_hal_sram.c ****   /* Check the SRAM controller state */
 352:Drivers/STM32H7xx_HAL_Driver/Src/stm32h7xx_hal_sram.c ****   if ((state == HAL_SRAM_STATE_READY) || (state == HAL_SRAM_STATE_PROTECTED))
ARM GAS  /tmp/ccc750si.s 			page 12


 353:Drivers/STM32H7xx_HAL_Driver/Src/stm32h7xx_hal_sram.c ****   {
 354:Drivers/STM32H7xx_HAL_Driver/Src/stm32h7xx_hal_sram.c ****     /* Process Locked */
 355:Drivers/STM32H7xx_HAL_Driver/Src/stm32h7xx_hal_sram.c ****     __HAL_LOCK(hsram);
 356:Drivers/STM32H7xx_HAL_Driver/Src/stm32h7xx_hal_sram.c **** 
 357:Drivers/STM32H7xx_HAL_Driver/Src/stm32h7xx_hal_sram.c ****     /* Update the SRAM controller state */
 358:Drivers/STM32H7xx_HAL_Driver/Src/stm32h7xx_hal_sram.c ****     hsram->State = HAL_SRAM_STATE_BUSY;
 359:Drivers/STM32H7xx_HAL_Driver/Src/stm32h7xx_hal_sram.c **** 
 360:Drivers/STM32H7xx_HAL_Driver/Src/stm32h7xx_hal_sram.c ****     /* Read data from memory */
 361:Drivers/STM32H7xx_HAL_Driver/Src/stm32h7xx_hal_sram.c ****     for (size = BufferSize; size != 0U; size--)
 362:Drivers/STM32H7xx_HAL_Driver/Src/stm32h7xx_hal_sram.c ****     {
 363:Drivers/STM32H7xx_HAL_Driver/Src/stm32h7xx_hal_sram.c ****       *pdestbuff = *psramaddress;
 364:Drivers/STM32H7xx_HAL_Driver/Src/stm32h7xx_hal_sram.c ****       pdestbuff++;
 365:Drivers/STM32H7xx_HAL_Driver/Src/stm32h7xx_hal_sram.c ****       psramaddress++;
 366:Drivers/STM32H7xx_HAL_Driver/Src/stm32h7xx_hal_sram.c ****     }
 367:Drivers/STM32H7xx_HAL_Driver/Src/stm32h7xx_hal_sram.c **** 
 368:Drivers/STM32H7xx_HAL_Driver/Src/stm32h7xx_hal_sram.c ****     /* Update the SRAM controller state */
 369:Drivers/STM32H7xx_HAL_Driver/Src/stm32h7xx_hal_sram.c ****     hsram->State = state;
 370:Drivers/STM32H7xx_HAL_Driver/Src/stm32h7xx_hal_sram.c **** 
 371:Drivers/STM32H7xx_HAL_Driver/Src/stm32h7xx_hal_sram.c ****     /* Process unlocked */
 372:Drivers/STM32H7xx_HAL_Driver/Src/stm32h7xx_hal_sram.c ****     __HAL_UNLOCK(hsram);
 373:Drivers/STM32H7xx_HAL_Driver/Src/stm32h7xx_hal_sram.c ****   }
 374:Drivers/STM32H7xx_HAL_Driver/Src/stm32h7xx_hal_sram.c ****   else
 375:Drivers/STM32H7xx_HAL_Driver/Src/stm32h7xx_hal_sram.c ****   {
 376:Drivers/STM32H7xx_HAL_Driver/Src/stm32h7xx_hal_sram.c ****     return HAL_ERROR;
 377:Drivers/STM32H7xx_HAL_Driver/Src/stm32h7xx_hal_sram.c ****   }
 378:Drivers/STM32H7xx_HAL_Driver/Src/stm32h7xx_hal_sram.c **** 
 379:Drivers/STM32H7xx_HAL_Driver/Src/stm32h7xx_hal_sram.c ****   return HAL_OK;
 380:Drivers/STM32H7xx_HAL_Driver/Src/stm32h7xx_hal_sram.c **** }
 381:Drivers/STM32H7xx_HAL_Driver/Src/stm32h7xx_hal_sram.c **** 
 382:Drivers/STM32H7xx_HAL_Driver/Src/stm32h7xx_hal_sram.c **** /**
 383:Drivers/STM32H7xx_HAL_Driver/Src/stm32h7xx_hal_sram.c ****   * @brief  Writes 8-bit buffer to SRAM memory.
 384:Drivers/STM32H7xx_HAL_Driver/Src/stm32h7xx_hal_sram.c ****   * @param  hsram pointer to a SRAM_HandleTypeDef structure that contains
 385:Drivers/STM32H7xx_HAL_Driver/Src/stm32h7xx_hal_sram.c ****   *                the configuration information for SRAM module.
 386:Drivers/STM32H7xx_HAL_Driver/Src/stm32h7xx_hal_sram.c ****   * @param  pAddress Pointer to write start address
 387:Drivers/STM32H7xx_HAL_Driver/Src/stm32h7xx_hal_sram.c ****   * @param  pSrcBuffer Pointer to source buffer to write
 388:Drivers/STM32H7xx_HAL_Driver/Src/stm32h7xx_hal_sram.c ****   * @param  BufferSize Size of the buffer to write to memory
 389:Drivers/STM32H7xx_HAL_Driver/Src/stm32h7xx_hal_sram.c ****   * @retval HAL status
 390:Drivers/STM32H7xx_HAL_Driver/Src/stm32h7xx_hal_sram.c ****   */
 391:Drivers/STM32H7xx_HAL_Driver/Src/stm32h7xx_hal_sram.c **** HAL_StatusTypeDef HAL_SRAM_Write_8b(SRAM_HandleTypeDef *hsram, uint32_t *pAddress, uint8_t *pSrcBuf
 392:Drivers/STM32H7xx_HAL_Driver/Src/stm32h7xx_hal_sram.c ****                                     uint32_t BufferSize)
 393:Drivers/STM32H7xx_HAL_Driver/Src/stm32h7xx_hal_sram.c **** {
 394:Drivers/STM32H7xx_HAL_Driver/Src/stm32h7xx_hal_sram.c ****   uint32_t size;
 395:Drivers/STM32H7xx_HAL_Driver/Src/stm32h7xx_hal_sram.c ****   __IO uint8_t *psramaddress = (uint8_t *)pAddress;
 396:Drivers/STM32H7xx_HAL_Driver/Src/stm32h7xx_hal_sram.c ****   uint8_t *psrcbuff = pSrcBuffer;
 397:Drivers/STM32H7xx_HAL_Driver/Src/stm32h7xx_hal_sram.c **** 
 398:Drivers/STM32H7xx_HAL_Driver/Src/stm32h7xx_hal_sram.c ****   /* Check the SRAM controller state */
 399:Drivers/STM32H7xx_HAL_Driver/Src/stm32h7xx_hal_sram.c ****   if (hsram->State == HAL_SRAM_STATE_READY)
 400:Drivers/STM32H7xx_HAL_Driver/Src/stm32h7xx_hal_sram.c ****   {
 401:Drivers/STM32H7xx_HAL_Driver/Src/stm32h7xx_hal_sram.c ****     /* Process Locked */
 402:Drivers/STM32H7xx_HAL_Driver/Src/stm32h7xx_hal_sram.c ****     __HAL_LOCK(hsram);
 403:Drivers/STM32H7xx_HAL_Driver/Src/stm32h7xx_hal_sram.c **** 
 404:Drivers/STM32H7xx_HAL_Driver/Src/stm32h7xx_hal_sram.c ****     /* Update the SRAM controller state */
 405:Drivers/STM32H7xx_HAL_Driver/Src/stm32h7xx_hal_sram.c ****     hsram->State = HAL_SRAM_STATE_BUSY;
 406:Drivers/STM32H7xx_HAL_Driver/Src/stm32h7xx_hal_sram.c **** 
 407:Drivers/STM32H7xx_HAL_Driver/Src/stm32h7xx_hal_sram.c ****     /* Write data to memory */
 408:Drivers/STM32H7xx_HAL_Driver/Src/stm32h7xx_hal_sram.c ****     for (size = BufferSize; size != 0U; size--)
 409:Drivers/STM32H7xx_HAL_Driver/Src/stm32h7xx_hal_sram.c ****     {
ARM GAS  /tmp/ccc750si.s 			page 13


 410:Drivers/STM32H7xx_HAL_Driver/Src/stm32h7xx_hal_sram.c ****       *psramaddress = *psrcbuff;
 411:Drivers/STM32H7xx_HAL_Driver/Src/stm32h7xx_hal_sram.c ****       psrcbuff++;
 412:Drivers/STM32H7xx_HAL_Driver/Src/stm32h7xx_hal_sram.c ****       psramaddress++;
 413:Drivers/STM32H7xx_HAL_Driver/Src/stm32h7xx_hal_sram.c ****     }
 414:Drivers/STM32H7xx_HAL_Driver/Src/stm32h7xx_hal_sram.c **** 
 415:Drivers/STM32H7xx_HAL_Driver/Src/stm32h7xx_hal_sram.c ****     /* Update the SRAM controller state */
 416:Drivers/STM32H7xx_HAL_Driver/Src/stm32h7xx_hal_sram.c ****     hsram->State = HAL_SRAM_STATE_READY;
 417:Drivers/STM32H7xx_HAL_Driver/Src/stm32h7xx_hal_sram.c **** 
 418:Drivers/STM32H7xx_HAL_Driver/Src/stm32h7xx_hal_sram.c ****     /* Process unlocked */
 419:Drivers/STM32H7xx_HAL_Driver/Src/stm32h7xx_hal_sram.c ****     __HAL_UNLOCK(hsram);
 420:Drivers/STM32H7xx_HAL_Driver/Src/stm32h7xx_hal_sram.c ****   }
 421:Drivers/STM32H7xx_HAL_Driver/Src/stm32h7xx_hal_sram.c ****   else
 422:Drivers/STM32H7xx_HAL_Driver/Src/stm32h7xx_hal_sram.c ****   {
 423:Drivers/STM32H7xx_HAL_Driver/Src/stm32h7xx_hal_sram.c ****     return HAL_ERROR;
 424:Drivers/STM32H7xx_HAL_Driver/Src/stm32h7xx_hal_sram.c ****   }
 425:Drivers/STM32H7xx_HAL_Driver/Src/stm32h7xx_hal_sram.c **** 
 426:Drivers/STM32H7xx_HAL_Driver/Src/stm32h7xx_hal_sram.c ****   return HAL_OK;
 427:Drivers/STM32H7xx_HAL_Driver/Src/stm32h7xx_hal_sram.c **** }
 428:Drivers/STM32H7xx_HAL_Driver/Src/stm32h7xx_hal_sram.c **** 
 429:Drivers/STM32H7xx_HAL_Driver/Src/stm32h7xx_hal_sram.c **** /**
 430:Drivers/STM32H7xx_HAL_Driver/Src/stm32h7xx_hal_sram.c ****   * @brief  Reads 16-bit buffer from SRAM memory.
 431:Drivers/STM32H7xx_HAL_Driver/Src/stm32h7xx_hal_sram.c ****   * @param  hsram pointer to a SRAM_HandleTypeDef structure that contains
 432:Drivers/STM32H7xx_HAL_Driver/Src/stm32h7xx_hal_sram.c ****   *                the configuration information for SRAM module.
 433:Drivers/STM32H7xx_HAL_Driver/Src/stm32h7xx_hal_sram.c ****   * @param  pAddress Pointer to read start address
 434:Drivers/STM32H7xx_HAL_Driver/Src/stm32h7xx_hal_sram.c ****   * @param  pDstBuffer Pointer to destination buffer
 435:Drivers/STM32H7xx_HAL_Driver/Src/stm32h7xx_hal_sram.c ****   * @param  BufferSize Size of the buffer to read from memory
 436:Drivers/STM32H7xx_HAL_Driver/Src/stm32h7xx_hal_sram.c ****   * @retval HAL status
 437:Drivers/STM32H7xx_HAL_Driver/Src/stm32h7xx_hal_sram.c ****   */
 438:Drivers/STM32H7xx_HAL_Driver/Src/stm32h7xx_hal_sram.c **** HAL_StatusTypeDef HAL_SRAM_Read_16b(SRAM_HandleTypeDef *hsram, uint32_t *pAddress, uint16_t *pDstBu
 439:Drivers/STM32H7xx_HAL_Driver/Src/stm32h7xx_hal_sram.c ****                                     uint32_t BufferSize)
 440:Drivers/STM32H7xx_HAL_Driver/Src/stm32h7xx_hal_sram.c **** {
 441:Drivers/STM32H7xx_HAL_Driver/Src/stm32h7xx_hal_sram.c ****   uint32_t size;
 442:Drivers/STM32H7xx_HAL_Driver/Src/stm32h7xx_hal_sram.c ****   __IO uint32_t *psramaddress = pAddress;
 443:Drivers/STM32H7xx_HAL_Driver/Src/stm32h7xx_hal_sram.c ****   uint16_t *pdestbuff = pDstBuffer;
 444:Drivers/STM32H7xx_HAL_Driver/Src/stm32h7xx_hal_sram.c ****   uint8_t limit;
 445:Drivers/STM32H7xx_HAL_Driver/Src/stm32h7xx_hal_sram.c ****   HAL_SRAM_StateTypeDef state = hsram->State;
 446:Drivers/STM32H7xx_HAL_Driver/Src/stm32h7xx_hal_sram.c **** 
 447:Drivers/STM32H7xx_HAL_Driver/Src/stm32h7xx_hal_sram.c ****   /* Check the SRAM controller state */
 448:Drivers/STM32H7xx_HAL_Driver/Src/stm32h7xx_hal_sram.c ****   if ((state == HAL_SRAM_STATE_READY) || (state == HAL_SRAM_STATE_PROTECTED))
 449:Drivers/STM32H7xx_HAL_Driver/Src/stm32h7xx_hal_sram.c ****   {
 450:Drivers/STM32H7xx_HAL_Driver/Src/stm32h7xx_hal_sram.c ****     /* Process Locked */
 451:Drivers/STM32H7xx_HAL_Driver/Src/stm32h7xx_hal_sram.c ****     __HAL_LOCK(hsram);
 452:Drivers/STM32H7xx_HAL_Driver/Src/stm32h7xx_hal_sram.c **** 
 453:Drivers/STM32H7xx_HAL_Driver/Src/stm32h7xx_hal_sram.c ****     /* Update the SRAM controller state */
 454:Drivers/STM32H7xx_HAL_Driver/Src/stm32h7xx_hal_sram.c ****     hsram->State = HAL_SRAM_STATE_BUSY;
 455:Drivers/STM32H7xx_HAL_Driver/Src/stm32h7xx_hal_sram.c **** 
 456:Drivers/STM32H7xx_HAL_Driver/Src/stm32h7xx_hal_sram.c ****     /* Check if the size is a 32-bits multiple */
 457:Drivers/STM32H7xx_HAL_Driver/Src/stm32h7xx_hal_sram.c ****     limit = (((BufferSize % 2U) != 0U) ? 1U : 0U);
 458:Drivers/STM32H7xx_HAL_Driver/Src/stm32h7xx_hal_sram.c **** 
 459:Drivers/STM32H7xx_HAL_Driver/Src/stm32h7xx_hal_sram.c ****     /* Read data from memory */
 460:Drivers/STM32H7xx_HAL_Driver/Src/stm32h7xx_hal_sram.c ****     for (size = BufferSize; size != limit; size -= 2U)
 461:Drivers/STM32H7xx_HAL_Driver/Src/stm32h7xx_hal_sram.c ****     {
 462:Drivers/STM32H7xx_HAL_Driver/Src/stm32h7xx_hal_sram.c ****       *pdestbuff = (uint16_t)((*psramaddress) & 0x0000FFFFU);
 463:Drivers/STM32H7xx_HAL_Driver/Src/stm32h7xx_hal_sram.c ****       pdestbuff++;
 464:Drivers/STM32H7xx_HAL_Driver/Src/stm32h7xx_hal_sram.c ****       *pdestbuff = (uint16_t)(((*psramaddress) & 0xFFFF0000U) >> 16U);
 465:Drivers/STM32H7xx_HAL_Driver/Src/stm32h7xx_hal_sram.c ****       pdestbuff++;
 466:Drivers/STM32H7xx_HAL_Driver/Src/stm32h7xx_hal_sram.c ****       psramaddress++;
ARM GAS  /tmp/ccc750si.s 			page 14


 467:Drivers/STM32H7xx_HAL_Driver/Src/stm32h7xx_hal_sram.c ****     }
 468:Drivers/STM32H7xx_HAL_Driver/Src/stm32h7xx_hal_sram.c **** 
 469:Drivers/STM32H7xx_HAL_Driver/Src/stm32h7xx_hal_sram.c ****     /* Read last 16-bits if size is not 32-bits multiple */
 470:Drivers/STM32H7xx_HAL_Driver/Src/stm32h7xx_hal_sram.c ****     if (limit != 0U)
 471:Drivers/STM32H7xx_HAL_Driver/Src/stm32h7xx_hal_sram.c ****     {
 472:Drivers/STM32H7xx_HAL_Driver/Src/stm32h7xx_hal_sram.c ****       *pdestbuff = (uint16_t)((*psramaddress) & 0x0000FFFFU);
 473:Drivers/STM32H7xx_HAL_Driver/Src/stm32h7xx_hal_sram.c ****     }
 474:Drivers/STM32H7xx_HAL_Driver/Src/stm32h7xx_hal_sram.c **** 
 475:Drivers/STM32H7xx_HAL_Driver/Src/stm32h7xx_hal_sram.c ****     /* Update the SRAM controller state */
 476:Drivers/STM32H7xx_HAL_Driver/Src/stm32h7xx_hal_sram.c ****     hsram->State = state;
 477:Drivers/STM32H7xx_HAL_Driver/Src/stm32h7xx_hal_sram.c **** 
 478:Drivers/STM32H7xx_HAL_Driver/Src/stm32h7xx_hal_sram.c ****     /* Process unlocked */
 479:Drivers/STM32H7xx_HAL_Driver/Src/stm32h7xx_hal_sram.c ****     __HAL_UNLOCK(hsram);
 480:Drivers/STM32H7xx_HAL_Driver/Src/stm32h7xx_hal_sram.c ****   }
 481:Drivers/STM32H7xx_HAL_Driver/Src/stm32h7xx_hal_sram.c ****   else
 482:Drivers/STM32H7xx_HAL_Driver/Src/stm32h7xx_hal_sram.c ****   {
 483:Drivers/STM32H7xx_HAL_Driver/Src/stm32h7xx_hal_sram.c ****     return HAL_ERROR;
 484:Drivers/STM32H7xx_HAL_Driver/Src/stm32h7xx_hal_sram.c ****   }
 485:Drivers/STM32H7xx_HAL_Driver/Src/stm32h7xx_hal_sram.c **** 
 486:Drivers/STM32H7xx_HAL_Driver/Src/stm32h7xx_hal_sram.c ****   return HAL_OK;
 487:Drivers/STM32H7xx_HAL_Driver/Src/stm32h7xx_hal_sram.c **** }
 488:Drivers/STM32H7xx_HAL_Driver/Src/stm32h7xx_hal_sram.c **** 
 489:Drivers/STM32H7xx_HAL_Driver/Src/stm32h7xx_hal_sram.c **** /**
 490:Drivers/STM32H7xx_HAL_Driver/Src/stm32h7xx_hal_sram.c ****   * @brief  Writes 16-bit buffer to SRAM memory.
 491:Drivers/STM32H7xx_HAL_Driver/Src/stm32h7xx_hal_sram.c ****   * @param  hsram pointer to a SRAM_HandleTypeDef structure that contains
 492:Drivers/STM32H7xx_HAL_Driver/Src/stm32h7xx_hal_sram.c ****   *                the configuration information for SRAM module.
 493:Drivers/STM32H7xx_HAL_Driver/Src/stm32h7xx_hal_sram.c ****   * @param  pAddress Pointer to write start address
 494:Drivers/STM32H7xx_HAL_Driver/Src/stm32h7xx_hal_sram.c ****   * @param  pSrcBuffer Pointer to source buffer to write
 495:Drivers/STM32H7xx_HAL_Driver/Src/stm32h7xx_hal_sram.c ****   * @param  BufferSize Size of the buffer to write to memory
 496:Drivers/STM32H7xx_HAL_Driver/Src/stm32h7xx_hal_sram.c ****   * @retval HAL status
 497:Drivers/STM32H7xx_HAL_Driver/Src/stm32h7xx_hal_sram.c ****   */
 498:Drivers/STM32H7xx_HAL_Driver/Src/stm32h7xx_hal_sram.c **** HAL_StatusTypeDef HAL_SRAM_Write_16b(SRAM_HandleTypeDef *hsram, uint32_t *pAddress, uint16_t *pSrcB
 499:Drivers/STM32H7xx_HAL_Driver/Src/stm32h7xx_hal_sram.c ****                                      uint32_t BufferSize)
 500:Drivers/STM32H7xx_HAL_Driver/Src/stm32h7xx_hal_sram.c **** {
 501:Drivers/STM32H7xx_HAL_Driver/Src/stm32h7xx_hal_sram.c ****   uint32_t size;
 502:Drivers/STM32H7xx_HAL_Driver/Src/stm32h7xx_hal_sram.c ****   __IO uint32_t *psramaddress = pAddress;
 503:Drivers/STM32H7xx_HAL_Driver/Src/stm32h7xx_hal_sram.c ****   uint16_t *psrcbuff = pSrcBuffer;
 504:Drivers/STM32H7xx_HAL_Driver/Src/stm32h7xx_hal_sram.c ****   uint8_t limit;
 505:Drivers/STM32H7xx_HAL_Driver/Src/stm32h7xx_hal_sram.c **** 
 506:Drivers/STM32H7xx_HAL_Driver/Src/stm32h7xx_hal_sram.c ****   /* Check the SRAM controller state */
 507:Drivers/STM32H7xx_HAL_Driver/Src/stm32h7xx_hal_sram.c ****   if (hsram->State == HAL_SRAM_STATE_READY)
 508:Drivers/STM32H7xx_HAL_Driver/Src/stm32h7xx_hal_sram.c ****   {
 509:Drivers/STM32H7xx_HAL_Driver/Src/stm32h7xx_hal_sram.c ****     /* Process Locked */
 510:Drivers/STM32H7xx_HAL_Driver/Src/stm32h7xx_hal_sram.c ****     __HAL_LOCK(hsram);
 511:Drivers/STM32H7xx_HAL_Driver/Src/stm32h7xx_hal_sram.c **** 
 512:Drivers/STM32H7xx_HAL_Driver/Src/stm32h7xx_hal_sram.c ****     /* Update the SRAM controller state */
 513:Drivers/STM32H7xx_HAL_Driver/Src/stm32h7xx_hal_sram.c ****     hsram->State = HAL_SRAM_STATE_BUSY;
 514:Drivers/STM32H7xx_HAL_Driver/Src/stm32h7xx_hal_sram.c **** 
 515:Drivers/STM32H7xx_HAL_Driver/Src/stm32h7xx_hal_sram.c ****     /* Check if the size is a 32-bits multiple */
 516:Drivers/STM32H7xx_HAL_Driver/Src/stm32h7xx_hal_sram.c ****     limit = (((BufferSize % 2U) != 0U) ? 1U : 0U);
 517:Drivers/STM32H7xx_HAL_Driver/Src/stm32h7xx_hal_sram.c **** 
 518:Drivers/STM32H7xx_HAL_Driver/Src/stm32h7xx_hal_sram.c ****     /* Write data to memory */
 519:Drivers/STM32H7xx_HAL_Driver/Src/stm32h7xx_hal_sram.c ****     for (size = BufferSize; size != limit; size -= 2U)
 520:Drivers/STM32H7xx_HAL_Driver/Src/stm32h7xx_hal_sram.c ****     {
 521:Drivers/STM32H7xx_HAL_Driver/Src/stm32h7xx_hal_sram.c ****       *psramaddress = (uint32_t)(*psrcbuff);
 522:Drivers/STM32H7xx_HAL_Driver/Src/stm32h7xx_hal_sram.c ****       psrcbuff++;
 523:Drivers/STM32H7xx_HAL_Driver/Src/stm32h7xx_hal_sram.c ****       *psramaddress |= ((uint32_t)(*psrcbuff) << 16U);
ARM GAS  /tmp/ccc750si.s 			page 15


 524:Drivers/STM32H7xx_HAL_Driver/Src/stm32h7xx_hal_sram.c ****       psrcbuff++;
 525:Drivers/STM32H7xx_HAL_Driver/Src/stm32h7xx_hal_sram.c ****       psramaddress++;
 526:Drivers/STM32H7xx_HAL_Driver/Src/stm32h7xx_hal_sram.c ****     }
 527:Drivers/STM32H7xx_HAL_Driver/Src/stm32h7xx_hal_sram.c **** 
 528:Drivers/STM32H7xx_HAL_Driver/Src/stm32h7xx_hal_sram.c ****     /* Write last 16-bits if size is not 32-bits multiple */
 529:Drivers/STM32H7xx_HAL_Driver/Src/stm32h7xx_hal_sram.c ****     if (limit != 0U)
 530:Drivers/STM32H7xx_HAL_Driver/Src/stm32h7xx_hal_sram.c ****     {
 531:Drivers/STM32H7xx_HAL_Driver/Src/stm32h7xx_hal_sram.c ****       *psramaddress = ((uint32_t)(*psrcbuff) & 0x0000FFFFU) | ((*psramaddress) & 0xFFFF0000U);
 532:Drivers/STM32H7xx_HAL_Driver/Src/stm32h7xx_hal_sram.c ****     }
 533:Drivers/STM32H7xx_HAL_Driver/Src/stm32h7xx_hal_sram.c **** 
 534:Drivers/STM32H7xx_HAL_Driver/Src/stm32h7xx_hal_sram.c ****     /* Update the SRAM controller state */
 535:Drivers/STM32H7xx_HAL_Driver/Src/stm32h7xx_hal_sram.c ****     hsram->State = HAL_SRAM_STATE_READY;
 536:Drivers/STM32H7xx_HAL_Driver/Src/stm32h7xx_hal_sram.c **** 
 537:Drivers/STM32H7xx_HAL_Driver/Src/stm32h7xx_hal_sram.c ****     /* Process unlocked */
 538:Drivers/STM32H7xx_HAL_Driver/Src/stm32h7xx_hal_sram.c ****     __HAL_UNLOCK(hsram);
 539:Drivers/STM32H7xx_HAL_Driver/Src/stm32h7xx_hal_sram.c ****   }
 540:Drivers/STM32H7xx_HAL_Driver/Src/stm32h7xx_hal_sram.c ****   else
 541:Drivers/STM32H7xx_HAL_Driver/Src/stm32h7xx_hal_sram.c ****   {
 542:Drivers/STM32H7xx_HAL_Driver/Src/stm32h7xx_hal_sram.c ****     return HAL_ERROR;
 543:Drivers/STM32H7xx_HAL_Driver/Src/stm32h7xx_hal_sram.c ****   }
 544:Drivers/STM32H7xx_HAL_Driver/Src/stm32h7xx_hal_sram.c **** 
 545:Drivers/STM32H7xx_HAL_Driver/Src/stm32h7xx_hal_sram.c ****   return HAL_OK;
 546:Drivers/STM32H7xx_HAL_Driver/Src/stm32h7xx_hal_sram.c **** }
 547:Drivers/STM32H7xx_HAL_Driver/Src/stm32h7xx_hal_sram.c **** 
 548:Drivers/STM32H7xx_HAL_Driver/Src/stm32h7xx_hal_sram.c **** /**
 549:Drivers/STM32H7xx_HAL_Driver/Src/stm32h7xx_hal_sram.c ****   * @brief  Reads 32-bit buffer from SRAM memory.
 550:Drivers/STM32H7xx_HAL_Driver/Src/stm32h7xx_hal_sram.c ****   * @param  hsram pointer to a SRAM_HandleTypeDef structure that contains
 551:Drivers/STM32H7xx_HAL_Driver/Src/stm32h7xx_hal_sram.c ****   *                the configuration information for SRAM module.
 552:Drivers/STM32H7xx_HAL_Driver/Src/stm32h7xx_hal_sram.c ****   * @param  pAddress Pointer to read start address
 553:Drivers/STM32H7xx_HAL_Driver/Src/stm32h7xx_hal_sram.c ****   * @param  pDstBuffer Pointer to destination buffer
 554:Drivers/STM32H7xx_HAL_Driver/Src/stm32h7xx_hal_sram.c ****   * @param  BufferSize Size of the buffer to read from memory
 555:Drivers/STM32H7xx_HAL_Driver/Src/stm32h7xx_hal_sram.c ****   * @retval HAL status
 556:Drivers/STM32H7xx_HAL_Driver/Src/stm32h7xx_hal_sram.c ****   */
 557:Drivers/STM32H7xx_HAL_Driver/Src/stm32h7xx_hal_sram.c **** HAL_StatusTypeDef HAL_SRAM_Read_32b(SRAM_HandleTypeDef *hsram, uint32_t *pAddress, uint32_t *pDstBu
 558:Drivers/STM32H7xx_HAL_Driver/Src/stm32h7xx_hal_sram.c ****                                     uint32_t BufferSize)
 559:Drivers/STM32H7xx_HAL_Driver/Src/stm32h7xx_hal_sram.c **** {
 560:Drivers/STM32H7xx_HAL_Driver/Src/stm32h7xx_hal_sram.c ****   uint32_t size;
 561:Drivers/STM32H7xx_HAL_Driver/Src/stm32h7xx_hal_sram.c ****   __IO uint32_t *psramaddress = pAddress;
 562:Drivers/STM32H7xx_HAL_Driver/Src/stm32h7xx_hal_sram.c ****   uint32_t *pdestbuff = pDstBuffer;
 563:Drivers/STM32H7xx_HAL_Driver/Src/stm32h7xx_hal_sram.c ****   HAL_SRAM_StateTypeDef state = hsram->State;
 564:Drivers/STM32H7xx_HAL_Driver/Src/stm32h7xx_hal_sram.c **** 
 565:Drivers/STM32H7xx_HAL_Driver/Src/stm32h7xx_hal_sram.c ****   /* Check the SRAM controller state */
 566:Drivers/STM32H7xx_HAL_Driver/Src/stm32h7xx_hal_sram.c ****   if ((state == HAL_SRAM_STATE_READY) || (state == HAL_SRAM_STATE_PROTECTED))
 567:Drivers/STM32H7xx_HAL_Driver/Src/stm32h7xx_hal_sram.c ****   {
 568:Drivers/STM32H7xx_HAL_Driver/Src/stm32h7xx_hal_sram.c ****     /* Process Locked */
 569:Drivers/STM32H7xx_HAL_Driver/Src/stm32h7xx_hal_sram.c ****     __HAL_LOCK(hsram);
 570:Drivers/STM32H7xx_HAL_Driver/Src/stm32h7xx_hal_sram.c **** 
 571:Drivers/STM32H7xx_HAL_Driver/Src/stm32h7xx_hal_sram.c ****     /* Update the SRAM controller state */
 572:Drivers/STM32H7xx_HAL_Driver/Src/stm32h7xx_hal_sram.c ****     hsram->State = HAL_SRAM_STATE_BUSY;
 573:Drivers/STM32H7xx_HAL_Driver/Src/stm32h7xx_hal_sram.c **** 
 574:Drivers/STM32H7xx_HAL_Driver/Src/stm32h7xx_hal_sram.c ****     /* Read data from memory */
 575:Drivers/STM32H7xx_HAL_Driver/Src/stm32h7xx_hal_sram.c ****     for (size = BufferSize; size != 0U; size--)
 576:Drivers/STM32H7xx_HAL_Driver/Src/stm32h7xx_hal_sram.c ****     {
 577:Drivers/STM32H7xx_HAL_Driver/Src/stm32h7xx_hal_sram.c ****       *pdestbuff = *psramaddress;
 578:Drivers/STM32H7xx_HAL_Driver/Src/stm32h7xx_hal_sram.c ****       pdestbuff++;
 579:Drivers/STM32H7xx_HAL_Driver/Src/stm32h7xx_hal_sram.c ****       psramaddress++;
 580:Drivers/STM32H7xx_HAL_Driver/Src/stm32h7xx_hal_sram.c ****     }
ARM GAS  /tmp/ccc750si.s 			page 16


 581:Drivers/STM32H7xx_HAL_Driver/Src/stm32h7xx_hal_sram.c **** 
 582:Drivers/STM32H7xx_HAL_Driver/Src/stm32h7xx_hal_sram.c ****     /* Update the SRAM controller state */
 583:Drivers/STM32H7xx_HAL_Driver/Src/stm32h7xx_hal_sram.c ****     hsram->State = state;
 584:Drivers/STM32H7xx_HAL_Driver/Src/stm32h7xx_hal_sram.c **** 
 585:Drivers/STM32H7xx_HAL_Driver/Src/stm32h7xx_hal_sram.c ****     /* Process unlocked */
 586:Drivers/STM32H7xx_HAL_Driver/Src/stm32h7xx_hal_sram.c ****     __HAL_UNLOCK(hsram);
 587:Drivers/STM32H7xx_HAL_Driver/Src/stm32h7xx_hal_sram.c ****   }
 588:Drivers/STM32H7xx_HAL_Driver/Src/stm32h7xx_hal_sram.c ****   else
 589:Drivers/STM32H7xx_HAL_Driver/Src/stm32h7xx_hal_sram.c ****   {
 590:Drivers/STM32H7xx_HAL_Driver/Src/stm32h7xx_hal_sram.c ****     return HAL_ERROR;
 591:Drivers/STM32H7xx_HAL_Driver/Src/stm32h7xx_hal_sram.c ****   }
 592:Drivers/STM32H7xx_HAL_Driver/Src/stm32h7xx_hal_sram.c **** 
 593:Drivers/STM32H7xx_HAL_Driver/Src/stm32h7xx_hal_sram.c ****   return HAL_OK;
 594:Drivers/STM32H7xx_HAL_Driver/Src/stm32h7xx_hal_sram.c **** }
 595:Drivers/STM32H7xx_HAL_Driver/Src/stm32h7xx_hal_sram.c **** 
 596:Drivers/STM32H7xx_HAL_Driver/Src/stm32h7xx_hal_sram.c **** /**
 597:Drivers/STM32H7xx_HAL_Driver/Src/stm32h7xx_hal_sram.c ****   * @brief  Writes 32-bit buffer to SRAM memory.
 598:Drivers/STM32H7xx_HAL_Driver/Src/stm32h7xx_hal_sram.c ****   * @param  hsram pointer to a SRAM_HandleTypeDef structure that contains
 599:Drivers/STM32H7xx_HAL_Driver/Src/stm32h7xx_hal_sram.c ****   *                the configuration information for SRAM module.
 600:Drivers/STM32H7xx_HAL_Driver/Src/stm32h7xx_hal_sram.c ****   * @param  pAddress Pointer to write start address
 601:Drivers/STM32H7xx_HAL_Driver/Src/stm32h7xx_hal_sram.c ****   * @param  pSrcBuffer Pointer to source buffer to write
 602:Drivers/STM32H7xx_HAL_Driver/Src/stm32h7xx_hal_sram.c ****   * @param  BufferSize Size of the buffer to write to memory
 603:Drivers/STM32H7xx_HAL_Driver/Src/stm32h7xx_hal_sram.c ****   * @retval HAL status
 604:Drivers/STM32H7xx_HAL_Driver/Src/stm32h7xx_hal_sram.c ****   */
 605:Drivers/STM32H7xx_HAL_Driver/Src/stm32h7xx_hal_sram.c **** HAL_StatusTypeDef HAL_SRAM_Write_32b(SRAM_HandleTypeDef *hsram, uint32_t *pAddress, uint32_t *pSrcB
 606:Drivers/STM32H7xx_HAL_Driver/Src/stm32h7xx_hal_sram.c ****                                      uint32_t BufferSize)
 607:Drivers/STM32H7xx_HAL_Driver/Src/stm32h7xx_hal_sram.c **** {
 608:Drivers/STM32H7xx_HAL_Driver/Src/stm32h7xx_hal_sram.c ****   uint32_t size;
 609:Drivers/STM32H7xx_HAL_Driver/Src/stm32h7xx_hal_sram.c ****   __IO uint32_t *psramaddress = pAddress;
 610:Drivers/STM32H7xx_HAL_Driver/Src/stm32h7xx_hal_sram.c ****   uint32_t *psrcbuff = pSrcBuffer;
 611:Drivers/STM32H7xx_HAL_Driver/Src/stm32h7xx_hal_sram.c **** 
 612:Drivers/STM32H7xx_HAL_Driver/Src/stm32h7xx_hal_sram.c ****   /* Check the SRAM controller state */
 613:Drivers/STM32H7xx_HAL_Driver/Src/stm32h7xx_hal_sram.c ****   if (hsram->State == HAL_SRAM_STATE_READY)
 614:Drivers/STM32H7xx_HAL_Driver/Src/stm32h7xx_hal_sram.c ****   {
 615:Drivers/STM32H7xx_HAL_Driver/Src/stm32h7xx_hal_sram.c ****     /* Process Locked */
 616:Drivers/STM32H7xx_HAL_Driver/Src/stm32h7xx_hal_sram.c ****     __HAL_LOCK(hsram);
 617:Drivers/STM32H7xx_HAL_Driver/Src/stm32h7xx_hal_sram.c **** 
 618:Drivers/STM32H7xx_HAL_Driver/Src/stm32h7xx_hal_sram.c ****     /* Update the SRAM controller state */
 619:Drivers/STM32H7xx_HAL_Driver/Src/stm32h7xx_hal_sram.c ****     hsram->State = HAL_SRAM_STATE_BUSY;
 620:Drivers/STM32H7xx_HAL_Driver/Src/stm32h7xx_hal_sram.c **** 
 621:Drivers/STM32H7xx_HAL_Driver/Src/stm32h7xx_hal_sram.c ****     /* Write data to memory */
 622:Drivers/STM32H7xx_HAL_Driver/Src/stm32h7xx_hal_sram.c ****     for (size = BufferSize; size != 0U; size--)
 623:Drivers/STM32H7xx_HAL_Driver/Src/stm32h7xx_hal_sram.c ****     {
 624:Drivers/STM32H7xx_HAL_Driver/Src/stm32h7xx_hal_sram.c ****       *psramaddress = *psrcbuff;
 625:Drivers/STM32H7xx_HAL_Driver/Src/stm32h7xx_hal_sram.c ****       psrcbuff++;
 626:Drivers/STM32H7xx_HAL_Driver/Src/stm32h7xx_hal_sram.c ****       psramaddress++;
 627:Drivers/STM32H7xx_HAL_Driver/Src/stm32h7xx_hal_sram.c ****     }
 628:Drivers/STM32H7xx_HAL_Driver/Src/stm32h7xx_hal_sram.c **** 
 629:Drivers/STM32H7xx_HAL_Driver/Src/stm32h7xx_hal_sram.c ****     /* Update the SRAM controller state */
 630:Drivers/STM32H7xx_HAL_Driver/Src/stm32h7xx_hal_sram.c ****     hsram->State = HAL_SRAM_STATE_READY;
 631:Drivers/STM32H7xx_HAL_Driver/Src/stm32h7xx_hal_sram.c **** 
 632:Drivers/STM32H7xx_HAL_Driver/Src/stm32h7xx_hal_sram.c ****     /* Process unlocked */
 633:Drivers/STM32H7xx_HAL_Driver/Src/stm32h7xx_hal_sram.c ****     __HAL_UNLOCK(hsram);
 634:Drivers/STM32H7xx_HAL_Driver/Src/stm32h7xx_hal_sram.c ****   }
 635:Drivers/STM32H7xx_HAL_Driver/Src/stm32h7xx_hal_sram.c ****   else
 636:Drivers/STM32H7xx_HAL_Driver/Src/stm32h7xx_hal_sram.c ****   {
 637:Drivers/STM32H7xx_HAL_Driver/Src/stm32h7xx_hal_sram.c ****     return HAL_ERROR;
ARM GAS  /tmp/ccc750si.s 			page 17


 638:Drivers/STM32H7xx_HAL_Driver/Src/stm32h7xx_hal_sram.c ****   }
 639:Drivers/STM32H7xx_HAL_Driver/Src/stm32h7xx_hal_sram.c **** 
 640:Drivers/STM32H7xx_HAL_Driver/Src/stm32h7xx_hal_sram.c ****   return HAL_OK;
 641:Drivers/STM32H7xx_HAL_Driver/Src/stm32h7xx_hal_sram.c **** }
 642:Drivers/STM32H7xx_HAL_Driver/Src/stm32h7xx_hal_sram.c **** 
 643:Drivers/STM32H7xx_HAL_Driver/Src/stm32h7xx_hal_sram.c **** /**
 644:Drivers/STM32H7xx_HAL_Driver/Src/stm32h7xx_hal_sram.c ****   * @brief  Reads a Words data from the SRAM memory using DMA transfer.
 645:Drivers/STM32H7xx_HAL_Driver/Src/stm32h7xx_hal_sram.c ****   * @param  hsram pointer to a SRAM_HandleTypeDef structure that contains
 646:Drivers/STM32H7xx_HAL_Driver/Src/stm32h7xx_hal_sram.c ****   *                the configuration information for SRAM module.
 647:Drivers/STM32H7xx_HAL_Driver/Src/stm32h7xx_hal_sram.c ****   * @param  pAddress Pointer to read start address
 648:Drivers/STM32H7xx_HAL_Driver/Src/stm32h7xx_hal_sram.c ****   * @param  pDstBuffer Pointer to destination buffer
 649:Drivers/STM32H7xx_HAL_Driver/Src/stm32h7xx_hal_sram.c ****   * @param  BufferSize Size of the buffer to read from memory
 650:Drivers/STM32H7xx_HAL_Driver/Src/stm32h7xx_hal_sram.c ****   * @retval HAL status
 651:Drivers/STM32H7xx_HAL_Driver/Src/stm32h7xx_hal_sram.c ****   */
 652:Drivers/STM32H7xx_HAL_Driver/Src/stm32h7xx_hal_sram.c **** HAL_StatusTypeDef HAL_SRAM_Read_DMA(SRAM_HandleTypeDef *hsram, uint32_t *pAddress, uint32_t *pDstBu
 653:Drivers/STM32H7xx_HAL_Driver/Src/stm32h7xx_hal_sram.c ****                                     uint32_t BufferSize)
 654:Drivers/STM32H7xx_HAL_Driver/Src/stm32h7xx_hal_sram.c **** {
 655:Drivers/STM32H7xx_HAL_Driver/Src/stm32h7xx_hal_sram.c ****   HAL_StatusTypeDef status;
 656:Drivers/STM32H7xx_HAL_Driver/Src/stm32h7xx_hal_sram.c ****   HAL_SRAM_StateTypeDef state = hsram->State;
 657:Drivers/STM32H7xx_HAL_Driver/Src/stm32h7xx_hal_sram.c **** 
 658:Drivers/STM32H7xx_HAL_Driver/Src/stm32h7xx_hal_sram.c ****   /* Check the SRAM controller state */
 659:Drivers/STM32H7xx_HAL_Driver/Src/stm32h7xx_hal_sram.c ****   if ((state == HAL_SRAM_STATE_READY) || (state == HAL_SRAM_STATE_PROTECTED))
 660:Drivers/STM32H7xx_HAL_Driver/Src/stm32h7xx_hal_sram.c ****   {
 661:Drivers/STM32H7xx_HAL_Driver/Src/stm32h7xx_hal_sram.c ****     /* Process Locked */
 662:Drivers/STM32H7xx_HAL_Driver/Src/stm32h7xx_hal_sram.c ****     __HAL_LOCK(hsram);
 663:Drivers/STM32H7xx_HAL_Driver/Src/stm32h7xx_hal_sram.c **** 
 664:Drivers/STM32H7xx_HAL_Driver/Src/stm32h7xx_hal_sram.c ****     /* Update the SRAM controller state */
 665:Drivers/STM32H7xx_HAL_Driver/Src/stm32h7xx_hal_sram.c ****     hsram->State = HAL_SRAM_STATE_BUSY;
 666:Drivers/STM32H7xx_HAL_Driver/Src/stm32h7xx_hal_sram.c **** 
 667:Drivers/STM32H7xx_HAL_Driver/Src/stm32h7xx_hal_sram.c ****     /* Configure DMA user callbacks */
 668:Drivers/STM32H7xx_HAL_Driver/Src/stm32h7xx_hal_sram.c ****     if (state == HAL_SRAM_STATE_READY)
 669:Drivers/STM32H7xx_HAL_Driver/Src/stm32h7xx_hal_sram.c ****     {
 670:Drivers/STM32H7xx_HAL_Driver/Src/stm32h7xx_hal_sram.c ****       hsram->hmdma->XferCpltCallback = SRAM_DMACplt;
 671:Drivers/STM32H7xx_HAL_Driver/Src/stm32h7xx_hal_sram.c ****     }
 672:Drivers/STM32H7xx_HAL_Driver/Src/stm32h7xx_hal_sram.c ****     else
 673:Drivers/STM32H7xx_HAL_Driver/Src/stm32h7xx_hal_sram.c ****     {
 674:Drivers/STM32H7xx_HAL_Driver/Src/stm32h7xx_hal_sram.c ****       hsram->hmdma->XferCpltCallback = SRAM_DMACpltProt;
 675:Drivers/STM32H7xx_HAL_Driver/Src/stm32h7xx_hal_sram.c ****     }
 676:Drivers/STM32H7xx_HAL_Driver/Src/stm32h7xx_hal_sram.c ****     hsram->hmdma->XferErrorCallback = SRAM_DMAError;
 677:Drivers/STM32H7xx_HAL_Driver/Src/stm32h7xx_hal_sram.c **** 
 678:Drivers/STM32H7xx_HAL_Driver/Src/stm32h7xx_hal_sram.c ****     /* Enable the DMA Stream */
 679:Drivers/STM32H7xx_HAL_Driver/Src/stm32h7xx_hal_sram.c ****     status = HAL_MDMA_Start_IT(hsram->hmdma, (uint32_t)pAddress, (uint32_t)pDstBuffer, (uint32_t)(B
 680:Drivers/STM32H7xx_HAL_Driver/Src/stm32h7xx_hal_sram.c **** 
 681:Drivers/STM32H7xx_HAL_Driver/Src/stm32h7xx_hal_sram.c ****     /* Process unlocked */
 682:Drivers/STM32H7xx_HAL_Driver/Src/stm32h7xx_hal_sram.c ****     __HAL_UNLOCK(hsram);
 683:Drivers/STM32H7xx_HAL_Driver/Src/stm32h7xx_hal_sram.c ****   }
 684:Drivers/STM32H7xx_HAL_Driver/Src/stm32h7xx_hal_sram.c ****   else
 685:Drivers/STM32H7xx_HAL_Driver/Src/stm32h7xx_hal_sram.c ****   {
 686:Drivers/STM32H7xx_HAL_Driver/Src/stm32h7xx_hal_sram.c ****     status = HAL_ERROR;
 687:Drivers/STM32H7xx_HAL_Driver/Src/stm32h7xx_hal_sram.c ****   }
 688:Drivers/STM32H7xx_HAL_Driver/Src/stm32h7xx_hal_sram.c **** 
 689:Drivers/STM32H7xx_HAL_Driver/Src/stm32h7xx_hal_sram.c ****   return status;
 690:Drivers/STM32H7xx_HAL_Driver/Src/stm32h7xx_hal_sram.c **** }
 691:Drivers/STM32H7xx_HAL_Driver/Src/stm32h7xx_hal_sram.c **** 
 692:Drivers/STM32H7xx_HAL_Driver/Src/stm32h7xx_hal_sram.c **** /**
 693:Drivers/STM32H7xx_HAL_Driver/Src/stm32h7xx_hal_sram.c ****   * @brief  Writes a Words data buffer to SRAM memory using DMA transfer.
 694:Drivers/STM32H7xx_HAL_Driver/Src/stm32h7xx_hal_sram.c ****   * @param  hsram pointer to a SRAM_HandleTypeDef structure that contains
ARM GAS  /tmp/ccc750si.s 			page 18


 695:Drivers/STM32H7xx_HAL_Driver/Src/stm32h7xx_hal_sram.c ****   *                the configuration information for SRAM module.
 696:Drivers/STM32H7xx_HAL_Driver/Src/stm32h7xx_hal_sram.c ****   * @param  pAddress Pointer to write start address
 697:Drivers/STM32H7xx_HAL_Driver/Src/stm32h7xx_hal_sram.c ****   * @param  pSrcBuffer Pointer to source buffer to write
 698:Drivers/STM32H7xx_HAL_Driver/Src/stm32h7xx_hal_sram.c ****   * @param  BufferSize Size of the buffer to write to memory
 699:Drivers/STM32H7xx_HAL_Driver/Src/stm32h7xx_hal_sram.c ****   * @retval HAL status
 700:Drivers/STM32H7xx_HAL_Driver/Src/stm32h7xx_hal_sram.c ****   */
 701:Drivers/STM32H7xx_HAL_Driver/Src/stm32h7xx_hal_sram.c **** HAL_StatusTypeDef HAL_SRAM_Write_DMA(SRAM_HandleTypeDef *hsram, uint32_t *pAddress, uint32_t *pSrcB
 702:Drivers/STM32H7xx_HAL_Driver/Src/stm32h7xx_hal_sram.c ****                                      uint32_t BufferSize)
 703:Drivers/STM32H7xx_HAL_Driver/Src/stm32h7xx_hal_sram.c **** {
 704:Drivers/STM32H7xx_HAL_Driver/Src/stm32h7xx_hal_sram.c ****   HAL_StatusTypeDef status;
 705:Drivers/STM32H7xx_HAL_Driver/Src/stm32h7xx_hal_sram.c **** 
 706:Drivers/STM32H7xx_HAL_Driver/Src/stm32h7xx_hal_sram.c ****   /* Check the SRAM controller state */
 707:Drivers/STM32H7xx_HAL_Driver/Src/stm32h7xx_hal_sram.c ****   if (hsram->State == HAL_SRAM_STATE_READY)
 708:Drivers/STM32H7xx_HAL_Driver/Src/stm32h7xx_hal_sram.c ****   {
 709:Drivers/STM32H7xx_HAL_Driver/Src/stm32h7xx_hal_sram.c ****     /* Process Locked */
 710:Drivers/STM32H7xx_HAL_Driver/Src/stm32h7xx_hal_sram.c ****     __HAL_LOCK(hsram);
 711:Drivers/STM32H7xx_HAL_Driver/Src/stm32h7xx_hal_sram.c **** 
 712:Drivers/STM32H7xx_HAL_Driver/Src/stm32h7xx_hal_sram.c ****     /* Update the SRAM controller state */
 713:Drivers/STM32H7xx_HAL_Driver/Src/stm32h7xx_hal_sram.c ****     hsram->State = HAL_SRAM_STATE_BUSY;
 714:Drivers/STM32H7xx_HAL_Driver/Src/stm32h7xx_hal_sram.c **** 
 715:Drivers/STM32H7xx_HAL_Driver/Src/stm32h7xx_hal_sram.c ****     /* Configure DMA user callbacks */
 716:Drivers/STM32H7xx_HAL_Driver/Src/stm32h7xx_hal_sram.c ****     hsram->hmdma->XferCpltCallback = SRAM_DMACplt;
 717:Drivers/STM32H7xx_HAL_Driver/Src/stm32h7xx_hal_sram.c ****     hsram->hmdma->XferErrorCallback = SRAM_DMAError;
 718:Drivers/STM32H7xx_HAL_Driver/Src/stm32h7xx_hal_sram.c **** 
 719:Drivers/STM32H7xx_HAL_Driver/Src/stm32h7xx_hal_sram.c ****     /* Enable the DMA Stream */
 720:Drivers/STM32H7xx_HAL_Driver/Src/stm32h7xx_hal_sram.c ****     status = HAL_MDMA_Start_IT(hsram->hmdma, (uint32_t)pSrcBuffer, (uint32_t)pAddress, (uint32_t)(B
 721:Drivers/STM32H7xx_HAL_Driver/Src/stm32h7xx_hal_sram.c **** 
 722:Drivers/STM32H7xx_HAL_Driver/Src/stm32h7xx_hal_sram.c ****     /* Process unlocked */
 723:Drivers/STM32H7xx_HAL_Driver/Src/stm32h7xx_hal_sram.c ****     __HAL_UNLOCK(hsram);
 724:Drivers/STM32H7xx_HAL_Driver/Src/stm32h7xx_hal_sram.c ****   }
 725:Drivers/STM32H7xx_HAL_Driver/Src/stm32h7xx_hal_sram.c ****   else
 726:Drivers/STM32H7xx_HAL_Driver/Src/stm32h7xx_hal_sram.c ****   {
 727:Drivers/STM32H7xx_HAL_Driver/Src/stm32h7xx_hal_sram.c ****     status = HAL_ERROR;
 728:Drivers/STM32H7xx_HAL_Driver/Src/stm32h7xx_hal_sram.c ****   }
 729:Drivers/STM32H7xx_HAL_Driver/Src/stm32h7xx_hal_sram.c **** 
 730:Drivers/STM32H7xx_HAL_Driver/Src/stm32h7xx_hal_sram.c ****   return status;
 731:Drivers/STM32H7xx_HAL_Driver/Src/stm32h7xx_hal_sram.c **** }
 732:Drivers/STM32H7xx_HAL_Driver/Src/stm32h7xx_hal_sram.c **** 
 733:Drivers/STM32H7xx_HAL_Driver/Src/stm32h7xx_hal_sram.c **** #if (USE_HAL_SRAM_REGISTER_CALLBACKS == 1)
 734:Drivers/STM32H7xx_HAL_Driver/Src/stm32h7xx_hal_sram.c **** /**
 735:Drivers/STM32H7xx_HAL_Driver/Src/stm32h7xx_hal_sram.c ****   * @brief  Register a User SRAM Callback
 736:Drivers/STM32H7xx_HAL_Driver/Src/stm32h7xx_hal_sram.c ****   *         To be used instead of the weak (surcharged) predefined callback
 737:Drivers/STM32H7xx_HAL_Driver/Src/stm32h7xx_hal_sram.c ****   * @param hsram : SRAM handle
 738:Drivers/STM32H7xx_HAL_Driver/Src/stm32h7xx_hal_sram.c ****   * @param CallbackId : ID of the callback to be registered
 739:Drivers/STM32H7xx_HAL_Driver/Src/stm32h7xx_hal_sram.c ****   *        This parameter can be one of the following values:
 740:Drivers/STM32H7xx_HAL_Driver/Src/stm32h7xx_hal_sram.c ****   *          @arg @ref HAL_SRAM_MSP_INIT_CB_ID       SRAM MspInit callback ID
 741:Drivers/STM32H7xx_HAL_Driver/Src/stm32h7xx_hal_sram.c ****   *          @arg @ref HAL_SRAM_MSP_DEINIT_CB_ID     SRAM MspDeInit callback ID
 742:Drivers/STM32H7xx_HAL_Driver/Src/stm32h7xx_hal_sram.c ****   * @param pCallback : pointer to the Callback function
 743:Drivers/STM32H7xx_HAL_Driver/Src/stm32h7xx_hal_sram.c ****   * @retval status
 744:Drivers/STM32H7xx_HAL_Driver/Src/stm32h7xx_hal_sram.c ****   */
 745:Drivers/STM32H7xx_HAL_Driver/Src/stm32h7xx_hal_sram.c **** HAL_StatusTypeDef HAL_SRAM_RegisterCallback(SRAM_HandleTypeDef *hsram, HAL_SRAM_CallbackIDTypeDef C
 746:Drivers/STM32H7xx_HAL_Driver/Src/stm32h7xx_hal_sram.c ****                                             pSRAM_CallbackTypeDef pCallback)
 747:Drivers/STM32H7xx_HAL_Driver/Src/stm32h7xx_hal_sram.c **** {
 748:Drivers/STM32H7xx_HAL_Driver/Src/stm32h7xx_hal_sram.c ****   HAL_StatusTypeDef status = HAL_OK;
 749:Drivers/STM32H7xx_HAL_Driver/Src/stm32h7xx_hal_sram.c ****   HAL_SRAM_StateTypeDef state;
 750:Drivers/STM32H7xx_HAL_Driver/Src/stm32h7xx_hal_sram.c **** 
 751:Drivers/STM32H7xx_HAL_Driver/Src/stm32h7xx_hal_sram.c ****   if (pCallback == NULL)
ARM GAS  /tmp/ccc750si.s 			page 19


 752:Drivers/STM32H7xx_HAL_Driver/Src/stm32h7xx_hal_sram.c ****   {
 753:Drivers/STM32H7xx_HAL_Driver/Src/stm32h7xx_hal_sram.c ****     return HAL_ERROR;
 754:Drivers/STM32H7xx_HAL_Driver/Src/stm32h7xx_hal_sram.c ****   }
 755:Drivers/STM32H7xx_HAL_Driver/Src/stm32h7xx_hal_sram.c **** 
 756:Drivers/STM32H7xx_HAL_Driver/Src/stm32h7xx_hal_sram.c ****   /* Process locked */
 757:Drivers/STM32H7xx_HAL_Driver/Src/stm32h7xx_hal_sram.c ****   __HAL_LOCK(hsram);
 758:Drivers/STM32H7xx_HAL_Driver/Src/stm32h7xx_hal_sram.c **** 
 759:Drivers/STM32H7xx_HAL_Driver/Src/stm32h7xx_hal_sram.c ****   state = hsram->State;
 760:Drivers/STM32H7xx_HAL_Driver/Src/stm32h7xx_hal_sram.c ****   if ((state == HAL_SRAM_STATE_READY) || (state == HAL_SRAM_STATE_RESET) || (state == HAL_SRAM_STAT
 761:Drivers/STM32H7xx_HAL_Driver/Src/stm32h7xx_hal_sram.c ****   {
 762:Drivers/STM32H7xx_HAL_Driver/Src/stm32h7xx_hal_sram.c ****     switch (CallbackId)
 763:Drivers/STM32H7xx_HAL_Driver/Src/stm32h7xx_hal_sram.c ****     {
 764:Drivers/STM32H7xx_HAL_Driver/Src/stm32h7xx_hal_sram.c ****       case HAL_SRAM_MSP_INIT_CB_ID :
 765:Drivers/STM32H7xx_HAL_Driver/Src/stm32h7xx_hal_sram.c ****         hsram->MspInitCallback = pCallback;
 766:Drivers/STM32H7xx_HAL_Driver/Src/stm32h7xx_hal_sram.c ****         break;
 767:Drivers/STM32H7xx_HAL_Driver/Src/stm32h7xx_hal_sram.c ****       case HAL_SRAM_MSP_DEINIT_CB_ID :
 768:Drivers/STM32H7xx_HAL_Driver/Src/stm32h7xx_hal_sram.c ****         hsram->MspDeInitCallback = pCallback;
 769:Drivers/STM32H7xx_HAL_Driver/Src/stm32h7xx_hal_sram.c ****         break;
 770:Drivers/STM32H7xx_HAL_Driver/Src/stm32h7xx_hal_sram.c ****       default :
 771:Drivers/STM32H7xx_HAL_Driver/Src/stm32h7xx_hal_sram.c ****         /* update return status */
 772:Drivers/STM32H7xx_HAL_Driver/Src/stm32h7xx_hal_sram.c ****         status =  HAL_ERROR;
 773:Drivers/STM32H7xx_HAL_Driver/Src/stm32h7xx_hal_sram.c ****         break;
 774:Drivers/STM32H7xx_HAL_Driver/Src/stm32h7xx_hal_sram.c ****     }
 775:Drivers/STM32H7xx_HAL_Driver/Src/stm32h7xx_hal_sram.c ****   }
 776:Drivers/STM32H7xx_HAL_Driver/Src/stm32h7xx_hal_sram.c ****   else
 777:Drivers/STM32H7xx_HAL_Driver/Src/stm32h7xx_hal_sram.c ****   {
 778:Drivers/STM32H7xx_HAL_Driver/Src/stm32h7xx_hal_sram.c ****     /* update return status */
 779:Drivers/STM32H7xx_HAL_Driver/Src/stm32h7xx_hal_sram.c ****     status =  HAL_ERROR;
 780:Drivers/STM32H7xx_HAL_Driver/Src/stm32h7xx_hal_sram.c ****   }
 781:Drivers/STM32H7xx_HAL_Driver/Src/stm32h7xx_hal_sram.c **** 
 782:Drivers/STM32H7xx_HAL_Driver/Src/stm32h7xx_hal_sram.c ****   /* Release Lock */
 783:Drivers/STM32H7xx_HAL_Driver/Src/stm32h7xx_hal_sram.c ****   __HAL_UNLOCK(hsram);
 784:Drivers/STM32H7xx_HAL_Driver/Src/stm32h7xx_hal_sram.c ****   return status;
 785:Drivers/STM32H7xx_HAL_Driver/Src/stm32h7xx_hal_sram.c **** }
 786:Drivers/STM32H7xx_HAL_Driver/Src/stm32h7xx_hal_sram.c **** 
 787:Drivers/STM32H7xx_HAL_Driver/Src/stm32h7xx_hal_sram.c **** /**
 788:Drivers/STM32H7xx_HAL_Driver/Src/stm32h7xx_hal_sram.c ****   * @brief  Unregister a User SRAM Callback
 789:Drivers/STM32H7xx_HAL_Driver/Src/stm32h7xx_hal_sram.c ****   *         SRAM Callback is redirected to the weak (surcharged) predefined callback
 790:Drivers/STM32H7xx_HAL_Driver/Src/stm32h7xx_hal_sram.c ****   * @param hsram : SRAM handle
 791:Drivers/STM32H7xx_HAL_Driver/Src/stm32h7xx_hal_sram.c ****   * @param CallbackId : ID of the callback to be unregistered
 792:Drivers/STM32H7xx_HAL_Driver/Src/stm32h7xx_hal_sram.c ****   *        This parameter can be one of the following values:
 793:Drivers/STM32H7xx_HAL_Driver/Src/stm32h7xx_hal_sram.c ****   *          @arg @ref HAL_SRAM_MSP_INIT_CB_ID       SRAM MspInit callback ID
 794:Drivers/STM32H7xx_HAL_Driver/Src/stm32h7xx_hal_sram.c ****   *          @arg @ref HAL_SRAM_MSP_DEINIT_CB_ID     SRAM MspDeInit callback ID
 795:Drivers/STM32H7xx_HAL_Driver/Src/stm32h7xx_hal_sram.c ****   *          @arg @ref HAL_SRAM_DMA_XFER_CPLT_CB_ID  SRAM DMA Xfer Complete callback ID
 796:Drivers/STM32H7xx_HAL_Driver/Src/stm32h7xx_hal_sram.c ****   *          @arg @ref HAL_SRAM_DMA_XFER_ERR_CB_ID   SRAM DMA Xfer Error callback ID
 797:Drivers/STM32H7xx_HAL_Driver/Src/stm32h7xx_hal_sram.c ****   * @retval status
 798:Drivers/STM32H7xx_HAL_Driver/Src/stm32h7xx_hal_sram.c ****   */
 799:Drivers/STM32H7xx_HAL_Driver/Src/stm32h7xx_hal_sram.c **** HAL_StatusTypeDef HAL_SRAM_UnRegisterCallback(SRAM_HandleTypeDef *hsram, HAL_SRAM_CallbackIDTypeDef
 800:Drivers/STM32H7xx_HAL_Driver/Src/stm32h7xx_hal_sram.c **** {
 801:Drivers/STM32H7xx_HAL_Driver/Src/stm32h7xx_hal_sram.c ****   HAL_StatusTypeDef status = HAL_OK;
 802:Drivers/STM32H7xx_HAL_Driver/Src/stm32h7xx_hal_sram.c ****   HAL_SRAM_StateTypeDef state;
 803:Drivers/STM32H7xx_HAL_Driver/Src/stm32h7xx_hal_sram.c **** 
 804:Drivers/STM32H7xx_HAL_Driver/Src/stm32h7xx_hal_sram.c ****   /* Process locked */
 805:Drivers/STM32H7xx_HAL_Driver/Src/stm32h7xx_hal_sram.c ****   __HAL_LOCK(hsram);
 806:Drivers/STM32H7xx_HAL_Driver/Src/stm32h7xx_hal_sram.c **** 
 807:Drivers/STM32H7xx_HAL_Driver/Src/stm32h7xx_hal_sram.c ****   state = hsram->State;
 808:Drivers/STM32H7xx_HAL_Driver/Src/stm32h7xx_hal_sram.c ****   if ((state == HAL_SRAM_STATE_READY) || (state == HAL_SRAM_STATE_PROTECTED))
ARM GAS  /tmp/ccc750si.s 			page 20


 809:Drivers/STM32H7xx_HAL_Driver/Src/stm32h7xx_hal_sram.c ****   {
 810:Drivers/STM32H7xx_HAL_Driver/Src/stm32h7xx_hal_sram.c ****     switch (CallbackId)
 811:Drivers/STM32H7xx_HAL_Driver/Src/stm32h7xx_hal_sram.c ****     {
 812:Drivers/STM32H7xx_HAL_Driver/Src/stm32h7xx_hal_sram.c ****       case HAL_SRAM_MSP_INIT_CB_ID :
 813:Drivers/STM32H7xx_HAL_Driver/Src/stm32h7xx_hal_sram.c ****         hsram->MspInitCallback = HAL_SRAM_MspInit;
 814:Drivers/STM32H7xx_HAL_Driver/Src/stm32h7xx_hal_sram.c ****         break;
 815:Drivers/STM32H7xx_HAL_Driver/Src/stm32h7xx_hal_sram.c ****       case HAL_SRAM_MSP_DEINIT_CB_ID :
 816:Drivers/STM32H7xx_HAL_Driver/Src/stm32h7xx_hal_sram.c ****         hsram->MspDeInitCallback = HAL_SRAM_MspDeInit;
 817:Drivers/STM32H7xx_HAL_Driver/Src/stm32h7xx_hal_sram.c ****         break;
 818:Drivers/STM32H7xx_HAL_Driver/Src/stm32h7xx_hal_sram.c ****       case HAL_SRAM_DMA_XFER_CPLT_CB_ID :
 819:Drivers/STM32H7xx_HAL_Driver/Src/stm32h7xx_hal_sram.c ****         hsram->DmaXferCpltCallback = HAL_SRAM_DMA_XferCpltCallback;
 820:Drivers/STM32H7xx_HAL_Driver/Src/stm32h7xx_hal_sram.c ****         break;
 821:Drivers/STM32H7xx_HAL_Driver/Src/stm32h7xx_hal_sram.c ****       case HAL_SRAM_DMA_XFER_ERR_CB_ID :
 822:Drivers/STM32H7xx_HAL_Driver/Src/stm32h7xx_hal_sram.c ****         hsram->DmaXferErrorCallback = HAL_SRAM_DMA_XferErrorCallback;
 823:Drivers/STM32H7xx_HAL_Driver/Src/stm32h7xx_hal_sram.c ****         break;
 824:Drivers/STM32H7xx_HAL_Driver/Src/stm32h7xx_hal_sram.c ****       default :
 825:Drivers/STM32H7xx_HAL_Driver/Src/stm32h7xx_hal_sram.c ****         /* update return status */
 826:Drivers/STM32H7xx_HAL_Driver/Src/stm32h7xx_hal_sram.c ****         status =  HAL_ERROR;
 827:Drivers/STM32H7xx_HAL_Driver/Src/stm32h7xx_hal_sram.c ****         break;
 828:Drivers/STM32H7xx_HAL_Driver/Src/stm32h7xx_hal_sram.c ****     }
 829:Drivers/STM32H7xx_HAL_Driver/Src/stm32h7xx_hal_sram.c ****   }
 830:Drivers/STM32H7xx_HAL_Driver/Src/stm32h7xx_hal_sram.c ****   else if (state == HAL_SRAM_STATE_RESET)
 831:Drivers/STM32H7xx_HAL_Driver/Src/stm32h7xx_hal_sram.c ****   {
 832:Drivers/STM32H7xx_HAL_Driver/Src/stm32h7xx_hal_sram.c ****     switch (CallbackId)
 833:Drivers/STM32H7xx_HAL_Driver/Src/stm32h7xx_hal_sram.c ****     {
 834:Drivers/STM32H7xx_HAL_Driver/Src/stm32h7xx_hal_sram.c ****       case HAL_SRAM_MSP_INIT_CB_ID :
 835:Drivers/STM32H7xx_HAL_Driver/Src/stm32h7xx_hal_sram.c ****         hsram->MspInitCallback = HAL_SRAM_MspInit;
 836:Drivers/STM32H7xx_HAL_Driver/Src/stm32h7xx_hal_sram.c ****         break;
 837:Drivers/STM32H7xx_HAL_Driver/Src/stm32h7xx_hal_sram.c ****       case HAL_SRAM_MSP_DEINIT_CB_ID :
 838:Drivers/STM32H7xx_HAL_Driver/Src/stm32h7xx_hal_sram.c ****         hsram->MspDeInitCallback = HAL_SRAM_MspDeInit;
 839:Drivers/STM32H7xx_HAL_Driver/Src/stm32h7xx_hal_sram.c ****         break;
 840:Drivers/STM32H7xx_HAL_Driver/Src/stm32h7xx_hal_sram.c ****       default :
 841:Drivers/STM32H7xx_HAL_Driver/Src/stm32h7xx_hal_sram.c ****         /* update return status */
 842:Drivers/STM32H7xx_HAL_Driver/Src/stm32h7xx_hal_sram.c ****         status =  HAL_ERROR;
 843:Drivers/STM32H7xx_HAL_Driver/Src/stm32h7xx_hal_sram.c ****         break;
 844:Drivers/STM32H7xx_HAL_Driver/Src/stm32h7xx_hal_sram.c ****     }
 845:Drivers/STM32H7xx_HAL_Driver/Src/stm32h7xx_hal_sram.c ****   }
 846:Drivers/STM32H7xx_HAL_Driver/Src/stm32h7xx_hal_sram.c ****   else
 847:Drivers/STM32H7xx_HAL_Driver/Src/stm32h7xx_hal_sram.c ****   {
 848:Drivers/STM32H7xx_HAL_Driver/Src/stm32h7xx_hal_sram.c ****     /* update return status */
 849:Drivers/STM32H7xx_HAL_Driver/Src/stm32h7xx_hal_sram.c ****     status =  HAL_ERROR;
 850:Drivers/STM32H7xx_HAL_Driver/Src/stm32h7xx_hal_sram.c ****   }
 851:Drivers/STM32H7xx_HAL_Driver/Src/stm32h7xx_hal_sram.c **** 
 852:Drivers/STM32H7xx_HAL_Driver/Src/stm32h7xx_hal_sram.c ****   /* Release Lock */
 853:Drivers/STM32H7xx_HAL_Driver/Src/stm32h7xx_hal_sram.c ****   __HAL_UNLOCK(hsram);
 854:Drivers/STM32H7xx_HAL_Driver/Src/stm32h7xx_hal_sram.c ****   return status;
 855:Drivers/STM32H7xx_HAL_Driver/Src/stm32h7xx_hal_sram.c **** }
 856:Drivers/STM32H7xx_HAL_Driver/Src/stm32h7xx_hal_sram.c **** 
 857:Drivers/STM32H7xx_HAL_Driver/Src/stm32h7xx_hal_sram.c **** /**
 858:Drivers/STM32H7xx_HAL_Driver/Src/stm32h7xx_hal_sram.c ****   * @brief  Register a User SRAM Callback for DMA transfers
 859:Drivers/STM32H7xx_HAL_Driver/Src/stm32h7xx_hal_sram.c ****   *         To be used instead of the weak (surcharged) predefined callback
 860:Drivers/STM32H7xx_HAL_Driver/Src/stm32h7xx_hal_sram.c ****   * @param hsram : SRAM handle
 861:Drivers/STM32H7xx_HAL_Driver/Src/stm32h7xx_hal_sram.c ****   * @param CallbackId : ID of the callback to be registered
 862:Drivers/STM32H7xx_HAL_Driver/Src/stm32h7xx_hal_sram.c ****   *        This parameter can be one of the following values:
 863:Drivers/STM32H7xx_HAL_Driver/Src/stm32h7xx_hal_sram.c ****   *          @arg @ref HAL_SRAM_DMA_XFER_CPLT_CB_ID  SRAM DMA Xfer Complete callback ID
 864:Drivers/STM32H7xx_HAL_Driver/Src/stm32h7xx_hal_sram.c ****   *          @arg @ref HAL_SRAM_DMA_XFER_ERR_CB_ID   SRAM DMA Xfer Error callback ID
 865:Drivers/STM32H7xx_HAL_Driver/Src/stm32h7xx_hal_sram.c ****   * @param pCallback : pointer to the Callback function
ARM GAS  /tmp/ccc750si.s 			page 21


 866:Drivers/STM32H7xx_HAL_Driver/Src/stm32h7xx_hal_sram.c ****   * @retval status
 867:Drivers/STM32H7xx_HAL_Driver/Src/stm32h7xx_hal_sram.c ****   */
 868:Drivers/STM32H7xx_HAL_Driver/Src/stm32h7xx_hal_sram.c **** HAL_StatusTypeDef HAL_SRAM_RegisterDmaCallback(SRAM_HandleTypeDef *hsram, HAL_SRAM_CallbackIDTypeDe
 869:Drivers/STM32H7xx_HAL_Driver/Src/stm32h7xx_hal_sram.c ****                                                pSRAM_DmaCallbackTypeDef pCallback)
 870:Drivers/STM32H7xx_HAL_Driver/Src/stm32h7xx_hal_sram.c **** {
 871:Drivers/STM32H7xx_HAL_Driver/Src/stm32h7xx_hal_sram.c ****   HAL_StatusTypeDef status = HAL_OK;
 872:Drivers/STM32H7xx_HAL_Driver/Src/stm32h7xx_hal_sram.c ****   HAL_SRAM_StateTypeDef state;
 873:Drivers/STM32H7xx_HAL_Driver/Src/stm32h7xx_hal_sram.c **** 
 874:Drivers/STM32H7xx_HAL_Driver/Src/stm32h7xx_hal_sram.c ****   if (pCallback == NULL)
 875:Drivers/STM32H7xx_HAL_Driver/Src/stm32h7xx_hal_sram.c ****   {
 876:Drivers/STM32H7xx_HAL_Driver/Src/stm32h7xx_hal_sram.c ****     return HAL_ERROR;
 877:Drivers/STM32H7xx_HAL_Driver/Src/stm32h7xx_hal_sram.c ****   }
 878:Drivers/STM32H7xx_HAL_Driver/Src/stm32h7xx_hal_sram.c **** 
 879:Drivers/STM32H7xx_HAL_Driver/Src/stm32h7xx_hal_sram.c ****   /* Process locked */
 880:Drivers/STM32H7xx_HAL_Driver/Src/stm32h7xx_hal_sram.c ****   __HAL_LOCK(hsram);
 881:Drivers/STM32H7xx_HAL_Driver/Src/stm32h7xx_hal_sram.c **** 
 882:Drivers/STM32H7xx_HAL_Driver/Src/stm32h7xx_hal_sram.c ****   state = hsram->State;
 883:Drivers/STM32H7xx_HAL_Driver/Src/stm32h7xx_hal_sram.c ****   if ((state == HAL_SRAM_STATE_READY) || (state == HAL_SRAM_STATE_PROTECTED))
 884:Drivers/STM32H7xx_HAL_Driver/Src/stm32h7xx_hal_sram.c ****   {
 885:Drivers/STM32H7xx_HAL_Driver/Src/stm32h7xx_hal_sram.c ****     switch (CallbackId)
 886:Drivers/STM32H7xx_HAL_Driver/Src/stm32h7xx_hal_sram.c ****     {
 887:Drivers/STM32H7xx_HAL_Driver/Src/stm32h7xx_hal_sram.c ****       case HAL_SRAM_DMA_XFER_CPLT_CB_ID :
 888:Drivers/STM32H7xx_HAL_Driver/Src/stm32h7xx_hal_sram.c ****         hsram->DmaXferCpltCallback = pCallback;
 889:Drivers/STM32H7xx_HAL_Driver/Src/stm32h7xx_hal_sram.c ****         break;
 890:Drivers/STM32H7xx_HAL_Driver/Src/stm32h7xx_hal_sram.c ****       case HAL_SRAM_DMA_XFER_ERR_CB_ID :
 891:Drivers/STM32H7xx_HAL_Driver/Src/stm32h7xx_hal_sram.c ****         hsram->DmaXferErrorCallback = pCallback;
 892:Drivers/STM32H7xx_HAL_Driver/Src/stm32h7xx_hal_sram.c ****         break;
 893:Drivers/STM32H7xx_HAL_Driver/Src/stm32h7xx_hal_sram.c ****       default :
 894:Drivers/STM32H7xx_HAL_Driver/Src/stm32h7xx_hal_sram.c ****         /* update return status */
 895:Drivers/STM32H7xx_HAL_Driver/Src/stm32h7xx_hal_sram.c ****         status =  HAL_ERROR;
 896:Drivers/STM32H7xx_HAL_Driver/Src/stm32h7xx_hal_sram.c ****         break;
 897:Drivers/STM32H7xx_HAL_Driver/Src/stm32h7xx_hal_sram.c ****     }
 898:Drivers/STM32H7xx_HAL_Driver/Src/stm32h7xx_hal_sram.c ****   }
 899:Drivers/STM32H7xx_HAL_Driver/Src/stm32h7xx_hal_sram.c ****   else
 900:Drivers/STM32H7xx_HAL_Driver/Src/stm32h7xx_hal_sram.c ****   {
 901:Drivers/STM32H7xx_HAL_Driver/Src/stm32h7xx_hal_sram.c ****     /* update return status */
 902:Drivers/STM32H7xx_HAL_Driver/Src/stm32h7xx_hal_sram.c ****     status =  HAL_ERROR;
 903:Drivers/STM32H7xx_HAL_Driver/Src/stm32h7xx_hal_sram.c ****   }
 904:Drivers/STM32H7xx_HAL_Driver/Src/stm32h7xx_hal_sram.c **** 
 905:Drivers/STM32H7xx_HAL_Driver/Src/stm32h7xx_hal_sram.c ****   /* Release Lock */
 906:Drivers/STM32H7xx_HAL_Driver/Src/stm32h7xx_hal_sram.c ****   __HAL_UNLOCK(hsram);
 907:Drivers/STM32H7xx_HAL_Driver/Src/stm32h7xx_hal_sram.c ****   return status;
 908:Drivers/STM32H7xx_HAL_Driver/Src/stm32h7xx_hal_sram.c **** }
 909:Drivers/STM32H7xx_HAL_Driver/Src/stm32h7xx_hal_sram.c **** #endif /* USE_HAL_SRAM_REGISTER_CALLBACKS */
 910:Drivers/STM32H7xx_HAL_Driver/Src/stm32h7xx_hal_sram.c **** 
 911:Drivers/STM32H7xx_HAL_Driver/Src/stm32h7xx_hal_sram.c **** /**
 912:Drivers/STM32H7xx_HAL_Driver/Src/stm32h7xx_hal_sram.c ****   * @}
 913:Drivers/STM32H7xx_HAL_Driver/Src/stm32h7xx_hal_sram.c ****   */
 914:Drivers/STM32H7xx_HAL_Driver/Src/stm32h7xx_hal_sram.c **** 
 915:Drivers/STM32H7xx_HAL_Driver/Src/stm32h7xx_hal_sram.c **** /** @defgroup SRAM_Exported_Functions_Group3 Control functions
 916:Drivers/STM32H7xx_HAL_Driver/Src/stm32h7xx_hal_sram.c ****   *  @brief   Control functions
 917:Drivers/STM32H7xx_HAL_Driver/Src/stm32h7xx_hal_sram.c ****   *
 918:Drivers/STM32H7xx_HAL_Driver/Src/stm32h7xx_hal_sram.c **** @verbatim
 919:Drivers/STM32H7xx_HAL_Driver/Src/stm32h7xx_hal_sram.c ****   ==============================================================================
 920:Drivers/STM32H7xx_HAL_Driver/Src/stm32h7xx_hal_sram.c ****                         ##### SRAM Control functions #####
 921:Drivers/STM32H7xx_HAL_Driver/Src/stm32h7xx_hal_sram.c ****   ==============================================================================
 922:Drivers/STM32H7xx_HAL_Driver/Src/stm32h7xx_hal_sram.c ****   [..]
ARM GAS  /tmp/ccc750si.s 			page 22


 923:Drivers/STM32H7xx_HAL_Driver/Src/stm32h7xx_hal_sram.c ****     This subsection provides a set of functions allowing to control dynamically
 924:Drivers/STM32H7xx_HAL_Driver/Src/stm32h7xx_hal_sram.c ****     the SRAM interface.
 925:Drivers/STM32H7xx_HAL_Driver/Src/stm32h7xx_hal_sram.c **** 
 926:Drivers/STM32H7xx_HAL_Driver/Src/stm32h7xx_hal_sram.c **** @endverbatim
 927:Drivers/STM32H7xx_HAL_Driver/Src/stm32h7xx_hal_sram.c ****   * @{
 928:Drivers/STM32H7xx_HAL_Driver/Src/stm32h7xx_hal_sram.c ****   */
 929:Drivers/STM32H7xx_HAL_Driver/Src/stm32h7xx_hal_sram.c **** 
 930:Drivers/STM32H7xx_HAL_Driver/Src/stm32h7xx_hal_sram.c **** /**
 931:Drivers/STM32H7xx_HAL_Driver/Src/stm32h7xx_hal_sram.c ****   * @brief  Enables dynamically SRAM write operation.
 932:Drivers/STM32H7xx_HAL_Driver/Src/stm32h7xx_hal_sram.c ****   * @param  hsram pointer to a SRAM_HandleTypeDef structure that contains
 933:Drivers/STM32H7xx_HAL_Driver/Src/stm32h7xx_hal_sram.c ****   *                the configuration information for SRAM module.
 934:Drivers/STM32H7xx_HAL_Driver/Src/stm32h7xx_hal_sram.c ****   * @retval HAL status
 935:Drivers/STM32H7xx_HAL_Driver/Src/stm32h7xx_hal_sram.c ****   */
 936:Drivers/STM32H7xx_HAL_Driver/Src/stm32h7xx_hal_sram.c **** HAL_StatusTypeDef HAL_SRAM_WriteOperation_Enable(SRAM_HandleTypeDef *hsram)
 937:Drivers/STM32H7xx_HAL_Driver/Src/stm32h7xx_hal_sram.c **** {
 938:Drivers/STM32H7xx_HAL_Driver/Src/stm32h7xx_hal_sram.c ****   /* Check the SRAM controller state */
 939:Drivers/STM32H7xx_HAL_Driver/Src/stm32h7xx_hal_sram.c ****   if (hsram->State == HAL_SRAM_STATE_PROTECTED)
 940:Drivers/STM32H7xx_HAL_Driver/Src/stm32h7xx_hal_sram.c ****   {
 941:Drivers/STM32H7xx_HAL_Driver/Src/stm32h7xx_hal_sram.c ****     /* Process Locked */
 942:Drivers/STM32H7xx_HAL_Driver/Src/stm32h7xx_hal_sram.c ****     __HAL_LOCK(hsram);
 943:Drivers/STM32H7xx_HAL_Driver/Src/stm32h7xx_hal_sram.c **** 
 944:Drivers/STM32H7xx_HAL_Driver/Src/stm32h7xx_hal_sram.c ****     /* Update the SRAM controller state */
 945:Drivers/STM32H7xx_HAL_Driver/Src/stm32h7xx_hal_sram.c ****     hsram->State = HAL_SRAM_STATE_BUSY;
 946:Drivers/STM32H7xx_HAL_Driver/Src/stm32h7xx_hal_sram.c **** 
 947:Drivers/STM32H7xx_HAL_Driver/Src/stm32h7xx_hal_sram.c ****     /* Enable write operation */
 948:Drivers/STM32H7xx_HAL_Driver/Src/stm32h7xx_hal_sram.c ****     (void)FMC_NORSRAM_WriteOperation_Enable(hsram->Instance, hsram->Init.NSBank);
 949:Drivers/STM32H7xx_HAL_Driver/Src/stm32h7xx_hal_sram.c **** 
 950:Drivers/STM32H7xx_HAL_Driver/Src/stm32h7xx_hal_sram.c ****     /* Update the SRAM controller state */
 951:Drivers/STM32H7xx_HAL_Driver/Src/stm32h7xx_hal_sram.c ****     hsram->State = HAL_SRAM_STATE_READY;
 952:Drivers/STM32H7xx_HAL_Driver/Src/stm32h7xx_hal_sram.c **** 
 953:Drivers/STM32H7xx_HAL_Driver/Src/stm32h7xx_hal_sram.c ****     /* Process unlocked */
 954:Drivers/STM32H7xx_HAL_Driver/Src/stm32h7xx_hal_sram.c ****     __HAL_UNLOCK(hsram);
 955:Drivers/STM32H7xx_HAL_Driver/Src/stm32h7xx_hal_sram.c ****   }
 956:Drivers/STM32H7xx_HAL_Driver/Src/stm32h7xx_hal_sram.c ****   else
 957:Drivers/STM32H7xx_HAL_Driver/Src/stm32h7xx_hal_sram.c ****   {
 958:Drivers/STM32H7xx_HAL_Driver/Src/stm32h7xx_hal_sram.c ****     return HAL_ERROR;
 959:Drivers/STM32H7xx_HAL_Driver/Src/stm32h7xx_hal_sram.c ****   }
 960:Drivers/STM32H7xx_HAL_Driver/Src/stm32h7xx_hal_sram.c **** 
 961:Drivers/STM32H7xx_HAL_Driver/Src/stm32h7xx_hal_sram.c ****   return HAL_OK;
 962:Drivers/STM32H7xx_HAL_Driver/Src/stm32h7xx_hal_sram.c **** }
 963:Drivers/STM32H7xx_HAL_Driver/Src/stm32h7xx_hal_sram.c **** 
 964:Drivers/STM32H7xx_HAL_Driver/Src/stm32h7xx_hal_sram.c **** /**
 965:Drivers/STM32H7xx_HAL_Driver/Src/stm32h7xx_hal_sram.c ****   * @brief  Disables dynamically SRAM write operation.
 966:Drivers/STM32H7xx_HAL_Driver/Src/stm32h7xx_hal_sram.c ****   * @param  hsram pointer to a SRAM_HandleTypeDef structure that contains
 967:Drivers/STM32H7xx_HAL_Driver/Src/stm32h7xx_hal_sram.c ****   *                the configuration information for SRAM module.
 968:Drivers/STM32H7xx_HAL_Driver/Src/stm32h7xx_hal_sram.c ****   * @retval HAL status
 969:Drivers/STM32H7xx_HAL_Driver/Src/stm32h7xx_hal_sram.c ****   */
 970:Drivers/STM32H7xx_HAL_Driver/Src/stm32h7xx_hal_sram.c **** HAL_StatusTypeDef HAL_SRAM_WriteOperation_Disable(SRAM_HandleTypeDef *hsram)
 971:Drivers/STM32H7xx_HAL_Driver/Src/stm32h7xx_hal_sram.c **** {
 972:Drivers/STM32H7xx_HAL_Driver/Src/stm32h7xx_hal_sram.c ****   /* Check the SRAM controller state */
 973:Drivers/STM32H7xx_HAL_Driver/Src/stm32h7xx_hal_sram.c ****   if (hsram->State == HAL_SRAM_STATE_READY)
 974:Drivers/STM32H7xx_HAL_Driver/Src/stm32h7xx_hal_sram.c ****   {
 975:Drivers/STM32H7xx_HAL_Driver/Src/stm32h7xx_hal_sram.c ****     /* Process Locked */
 976:Drivers/STM32H7xx_HAL_Driver/Src/stm32h7xx_hal_sram.c ****     __HAL_LOCK(hsram);
 977:Drivers/STM32H7xx_HAL_Driver/Src/stm32h7xx_hal_sram.c **** 
 978:Drivers/STM32H7xx_HAL_Driver/Src/stm32h7xx_hal_sram.c ****     /* Update the SRAM controller state */
 979:Drivers/STM32H7xx_HAL_Driver/Src/stm32h7xx_hal_sram.c ****     hsram->State = HAL_SRAM_STATE_BUSY;
ARM GAS  /tmp/ccc750si.s 			page 23


 980:Drivers/STM32H7xx_HAL_Driver/Src/stm32h7xx_hal_sram.c **** 
 981:Drivers/STM32H7xx_HAL_Driver/Src/stm32h7xx_hal_sram.c ****     /* Disable write operation */
 982:Drivers/STM32H7xx_HAL_Driver/Src/stm32h7xx_hal_sram.c ****     (void)FMC_NORSRAM_WriteOperation_Disable(hsram->Instance, hsram->Init.NSBank);
 983:Drivers/STM32H7xx_HAL_Driver/Src/stm32h7xx_hal_sram.c **** 
 984:Drivers/STM32H7xx_HAL_Driver/Src/stm32h7xx_hal_sram.c ****     /* Update the SRAM controller state */
 985:Drivers/STM32H7xx_HAL_Driver/Src/stm32h7xx_hal_sram.c ****     hsram->State = HAL_SRAM_STATE_PROTECTED;
 986:Drivers/STM32H7xx_HAL_Driver/Src/stm32h7xx_hal_sram.c **** 
 987:Drivers/STM32H7xx_HAL_Driver/Src/stm32h7xx_hal_sram.c ****     /* Process unlocked */
 988:Drivers/STM32H7xx_HAL_Driver/Src/stm32h7xx_hal_sram.c ****     __HAL_UNLOCK(hsram);
 989:Drivers/STM32H7xx_HAL_Driver/Src/stm32h7xx_hal_sram.c ****   }
 990:Drivers/STM32H7xx_HAL_Driver/Src/stm32h7xx_hal_sram.c ****   else
 991:Drivers/STM32H7xx_HAL_Driver/Src/stm32h7xx_hal_sram.c ****   {
 992:Drivers/STM32H7xx_HAL_Driver/Src/stm32h7xx_hal_sram.c ****     return HAL_ERROR;
 993:Drivers/STM32H7xx_HAL_Driver/Src/stm32h7xx_hal_sram.c ****   }
 994:Drivers/STM32H7xx_HAL_Driver/Src/stm32h7xx_hal_sram.c **** 
 995:Drivers/STM32H7xx_HAL_Driver/Src/stm32h7xx_hal_sram.c ****   return HAL_OK;
 996:Drivers/STM32H7xx_HAL_Driver/Src/stm32h7xx_hal_sram.c **** }
 997:Drivers/STM32H7xx_HAL_Driver/Src/stm32h7xx_hal_sram.c **** 
 998:Drivers/STM32H7xx_HAL_Driver/Src/stm32h7xx_hal_sram.c **** /**
 999:Drivers/STM32H7xx_HAL_Driver/Src/stm32h7xx_hal_sram.c ****   * @}
1000:Drivers/STM32H7xx_HAL_Driver/Src/stm32h7xx_hal_sram.c ****   */
1001:Drivers/STM32H7xx_HAL_Driver/Src/stm32h7xx_hal_sram.c **** 
1002:Drivers/STM32H7xx_HAL_Driver/Src/stm32h7xx_hal_sram.c **** /** @defgroup SRAM_Exported_Functions_Group4 Peripheral State functions
1003:Drivers/STM32H7xx_HAL_Driver/Src/stm32h7xx_hal_sram.c ****   *  @brief   Peripheral State functions
1004:Drivers/STM32H7xx_HAL_Driver/Src/stm32h7xx_hal_sram.c ****   *
1005:Drivers/STM32H7xx_HAL_Driver/Src/stm32h7xx_hal_sram.c **** @verbatim
1006:Drivers/STM32H7xx_HAL_Driver/Src/stm32h7xx_hal_sram.c ****   ==============================================================================
1007:Drivers/STM32H7xx_HAL_Driver/Src/stm32h7xx_hal_sram.c ****                       ##### SRAM State functions #####
1008:Drivers/STM32H7xx_HAL_Driver/Src/stm32h7xx_hal_sram.c ****   ==============================================================================
1009:Drivers/STM32H7xx_HAL_Driver/Src/stm32h7xx_hal_sram.c ****   [..]
1010:Drivers/STM32H7xx_HAL_Driver/Src/stm32h7xx_hal_sram.c ****     This subsection permits to get in run-time the status of the SRAM controller
1011:Drivers/STM32H7xx_HAL_Driver/Src/stm32h7xx_hal_sram.c ****     and the data flow.
1012:Drivers/STM32H7xx_HAL_Driver/Src/stm32h7xx_hal_sram.c **** 
1013:Drivers/STM32H7xx_HAL_Driver/Src/stm32h7xx_hal_sram.c **** @endverbatim
1014:Drivers/STM32H7xx_HAL_Driver/Src/stm32h7xx_hal_sram.c ****   * @{
1015:Drivers/STM32H7xx_HAL_Driver/Src/stm32h7xx_hal_sram.c ****   */
1016:Drivers/STM32H7xx_HAL_Driver/Src/stm32h7xx_hal_sram.c **** 
1017:Drivers/STM32H7xx_HAL_Driver/Src/stm32h7xx_hal_sram.c **** /**
1018:Drivers/STM32H7xx_HAL_Driver/Src/stm32h7xx_hal_sram.c ****   * @brief  Returns the SRAM controller state
1019:Drivers/STM32H7xx_HAL_Driver/Src/stm32h7xx_hal_sram.c ****   * @param  hsram pointer to a SRAM_HandleTypeDef structure that contains
1020:Drivers/STM32H7xx_HAL_Driver/Src/stm32h7xx_hal_sram.c ****   *                the configuration information for SRAM module.
1021:Drivers/STM32H7xx_HAL_Driver/Src/stm32h7xx_hal_sram.c ****   * @retval HAL state
1022:Drivers/STM32H7xx_HAL_Driver/Src/stm32h7xx_hal_sram.c ****   */
1023:Drivers/STM32H7xx_HAL_Driver/Src/stm32h7xx_hal_sram.c **** HAL_SRAM_StateTypeDef HAL_SRAM_GetState(SRAM_HandleTypeDef *hsram)
1024:Drivers/STM32H7xx_HAL_Driver/Src/stm32h7xx_hal_sram.c **** {
1025:Drivers/STM32H7xx_HAL_Driver/Src/stm32h7xx_hal_sram.c ****   return hsram->State;
1026:Drivers/STM32H7xx_HAL_Driver/Src/stm32h7xx_hal_sram.c **** }
1027:Drivers/STM32H7xx_HAL_Driver/Src/stm32h7xx_hal_sram.c **** 
1028:Drivers/STM32H7xx_HAL_Driver/Src/stm32h7xx_hal_sram.c **** /**
1029:Drivers/STM32H7xx_HAL_Driver/Src/stm32h7xx_hal_sram.c ****   * @}
1030:Drivers/STM32H7xx_HAL_Driver/Src/stm32h7xx_hal_sram.c ****   */
1031:Drivers/STM32H7xx_HAL_Driver/Src/stm32h7xx_hal_sram.c **** 
1032:Drivers/STM32H7xx_HAL_Driver/Src/stm32h7xx_hal_sram.c **** /**
1033:Drivers/STM32H7xx_HAL_Driver/Src/stm32h7xx_hal_sram.c ****   * @}
1034:Drivers/STM32H7xx_HAL_Driver/Src/stm32h7xx_hal_sram.c ****   */
1035:Drivers/STM32H7xx_HAL_Driver/Src/stm32h7xx_hal_sram.c **** 
1036:Drivers/STM32H7xx_HAL_Driver/Src/stm32h7xx_hal_sram.c **** /**
ARM GAS  /tmp/ccc750si.s 			page 24


1037:Drivers/STM32H7xx_HAL_Driver/Src/stm32h7xx_hal_sram.c ****   * @brief  MDMA SRAM process complete callback.
1038:Drivers/STM32H7xx_HAL_Driver/Src/stm32h7xx_hal_sram.c ****   * @param  hmdma : MDMA handle
1039:Drivers/STM32H7xx_HAL_Driver/Src/stm32h7xx_hal_sram.c ****   * @retval None
1040:Drivers/STM32H7xx_HAL_Driver/Src/stm32h7xx_hal_sram.c ****   */
1041:Drivers/STM32H7xx_HAL_Driver/Src/stm32h7xx_hal_sram.c **** static void SRAM_DMACplt(MDMA_HandleTypeDef *hmdma)
1042:Drivers/STM32H7xx_HAL_Driver/Src/stm32h7xx_hal_sram.c **** {
1043:Drivers/STM32H7xx_HAL_Driver/Src/stm32h7xx_hal_sram.c ****   SRAM_HandleTypeDef *hsram = (SRAM_HandleTypeDef *)(hmdma->Parent);
1044:Drivers/STM32H7xx_HAL_Driver/Src/stm32h7xx_hal_sram.c **** 
1045:Drivers/STM32H7xx_HAL_Driver/Src/stm32h7xx_hal_sram.c ****   /* Disable the MDMA channel */
1046:Drivers/STM32H7xx_HAL_Driver/Src/stm32h7xx_hal_sram.c ****   __HAL_MDMA_DISABLE(hmdma);
1047:Drivers/STM32H7xx_HAL_Driver/Src/stm32h7xx_hal_sram.c **** 
1048:Drivers/STM32H7xx_HAL_Driver/Src/stm32h7xx_hal_sram.c ****   /* Update the SRAM controller state */
1049:Drivers/STM32H7xx_HAL_Driver/Src/stm32h7xx_hal_sram.c ****   hsram->State = HAL_SRAM_STATE_READY;
1050:Drivers/STM32H7xx_HAL_Driver/Src/stm32h7xx_hal_sram.c **** 
1051:Drivers/STM32H7xx_HAL_Driver/Src/stm32h7xx_hal_sram.c **** #if (USE_HAL_SRAM_REGISTER_CALLBACKS == 1)
1052:Drivers/STM32H7xx_HAL_Driver/Src/stm32h7xx_hal_sram.c ****   hsram->DmaXferCpltCallback(hmdma);
1053:Drivers/STM32H7xx_HAL_Driver/Src/stm32h7xx_hal_sram.c **** #else
1054:Drivers/STM32H7xx_HAL_Driver/Src/stm32h7xx_hal_sram.c ****   HAL_SRAM_DMA_XferCpltCallback(hmdma);
1055:Drivers/STM32H7xx_HAL_Driver/Src/stm32h7xx_hal_sram.c **** #endif /* USE_HAL_SRAM_REGISTER_CALLBACKS */
1056:Drivers/STM32H7xx_HAL_Driver/Src/stm32h7xx_hal_sram.c **** }
1057:Drivers/STM32H7xx_HAL_Driver/Src/stm32h7xx_hal_sram.c **** 
1058:Drivers/STM32H7xx_HAL_Driver/Src/stm32h7xx_hal_sram.c **** /**
1059:Drivers/STM32H7xx_HAL_Driver/Src/stm32h7xx_hal_sram.c ****   * @brief  MDMA SRAM process complete callback.
1060:Drivers/STM32H7xx_HAL_Driver/Src/stm32h7xx_hal_sram.c ****   * @param  hmdma : MDMA handle
1061:Drivers/STM32H7xx_HAL_Driver/Src/stm32h7xx_hal_sram.c ****   * @retval None
1062:Drivers/STM32H7xx_HAL_Driver/Src/stm32h7xx_hal_sram.c ****   */
1063:Drivers/STM32H7xx_HAL_Driver/Src/stm32h7xx_hal_sram.c **** static void SRAM_DMACpltProt(MDMA_HandleTypeDef *hmdma)
1064:Drivers/STM32H7xx_HAL_Driver/Src/stm32h7xx_hal_sram.c **** {
 248              		.loc 1 1064 1 is_stmt 1 view -0
 249              		.cfi_startproc
 250              		@ args = 0, pretend = 0, frame = 0
 251              		@ frame_needed = 0, uses_anonymous_args = 0
 252              		.loc 1 1064 1 is_stmt 0 view .LVU49
 253 0000 08B5     		push	{r3, lr}
 254              	.LCFI3:
 255              		.cfi_def_cfa_offset 8
 256              		.cfi_offset 3, -8
 257              		.cfi_offset 14, -4
1065:Drivers/STM32H7xx_HAL_Driver/Src/stm32h7xx_hal_sram.c ****   SRAM_HandleTypeDef *hsram = (SRAM_HandleTypeDef *)(hmdma->Parent);
 258              		.loc 1 1065 3 is_stmt 1 view .LVU50
 259              		.loc 1 1065 23 is_stmt 0 view .LVU51
 260 0002 016C     		ldr	r1, [r0, #64]
 261              	.LVL16:
1066:Drivers/STM32H7xx_HAL_Driver/Src/stm32h7xx_hal_sram.c **** 
1067:Drivers/STM32H7xx_HAL_Driver/Src/stm32h7xx_hal_sram.c ****   /* Disable the MDMA channel */
1068:Drivers/STM32H7xx_HAL_Driver/Src/stm32h7xx_hal_sram.c ****   __HAL_MDMA_DISABLE(hmdma);
 262              		.loc 1 1068 3 is_stmt 1 view .LVU52
 263 0004 0268     		ldr	r2, [r0]
 264 0006 D368     		ldr	r3, [r2, #12]
 265 0008 23F00103 		bic	r3, r3, #1
 266 000c D360     		str	r3, [r2, #12]
1069:Drivers/STM32H7xx_HAL_Driver/Src/stm32h7xx_hal_sram.c **** 
1070:Drivers/STM32H7xx_HAL_Driver/Src/stm32h7xx_hal_sram.c ****   /* Update the SRAM controller state */
1071:Drivers/STM32H7xx_HAL_Driver/Src/stm32h7xx_hal_sram.c ****   hsram->State = HAL_SRAM_STATE_PROTECTED;
 267              		.loc 1 1071 3 view .LVU53
 268              		.loc 1 1071 16 is_stmt 0 view .LVU54
 269 000e 0423     		movs	r3, #4
ARM GAS  /tmp/ccc750si.s 			page 25


 270 0010 81F84530 		strb	r3, [r1, #69]
1072:Drivers/STM32H7xx_HAL_Driver/Src/stm32h7xx_hal_sram.c **** 
1073:Drivers/STM32H7xx_HAL_Driver/Src/stm32h7xx_hal_sram.c **** #if (USE_HAL_SRAM_REGISTER_CALLBACKS == 1)
1074:Drivers/STM32H7xx_HAL_Driver/Src/stm32h7xx_hal_sram.c ****   hsram->DmaXferCpltCallback(hmdma);
1075:Drivers/STM32H7xx_HAL_Driver/Src/stm32h7xx_hal_sram.c **** #else
1076:Drivers/STM32H7xx_HAL_Driver/Src/stm32h7xx_hal_sram.c ****   HAL_SRAM_DMA_XferCpltCallback(hmdma);
 271              		.loc 1 1076 3 is_stmt 1 view .LVU55
 272 0014 FFF7FEFF 		bl	HAL_SRAM_DMA_XferCpltCallback
 273              	.LVL17:
1077:Drivers/STM32H7xx_HAL_Driver/Src/stm32h7xx_hal_sram.c **** #endif /* USE_HAL_SRAM_REGISTER_CALLBACKS */
1078:Drivers/STM32H7xx_HAL_Driver/Src/stm32h7xx_hal_sram.c **** }
 274              		.loc 1 1078 1 is_stmt 0 view .LVU56
 275 0018 08BD     		pop	{r3, pc}
 276              		.cfi_endproc
 277              	.LFE162:
 279              		.section	.text.SRAM_DMACplt,"ax",%progbits
 280              		.align	1
 281              		.syntax unified
 282              		.thumb
 283              		.thumb_func
 284              		.fpu fpv5-d16
 286              	SRAM_DMACplt:
 287              	.LVL18:
 288              	.LFB161:
1042:Drivers/STM32H7xx_HAL_Driver/Src/stm32h7xx_hal_sram.c ****   SRAM_HandleTypeDef *hsram = (SRAM_HandleTypeDef *)(hmdma->Parent);
 289              		.loc 1 1042 1 is_stmt 1 view -0
 290              		.cfi_startproc
 291              		@ args = 0, pretend = 0, frame = 0
 292              		@ frame_needed = 0, uses_anonymous_args = 0
1042:Drivers/STM32H7xx_HAL_Driver/Src/stm32h7xx_hal_sram.c ****   SRAM_HandleTypeDef *hsram = (SRAM_HandleTypeDef *)(hmdma->Parent);
 293              		.loc 1 1042 1 is_stmt 0 view .LVU58
 294 0000 08B5     		push	{r3, lr}
 295              	.LCFI4:
 296              		.cfi_def_cfa_offset 8
 297              		.cfi_offset 3, -8
 298              		.cfi_offset 14, -4
1043:Drivers/STM32H7xx_HAL_Driver/Src/stm32h7xx_hal_sram.c **** 
 299              		.loc 1 1043 3 is_stmt 1 view .LVU59
1043:Drivers/STM32H7xx_HAL_Driver/Src/stm32h7xx_hal_sram.c **** 
 300              		.loc 1 1043 23 is_stmt 0 view .LVU60
 301 0002 016C     		ldr	r1, [r0, #64]
 302              	.LVL19:
1046:Drivers/STM32H7xx_HAL_Driver/Src/stm32h7xx_hal_sram.c **** 
 303              		.loc 1 1046 3 is_stmt 1 view .LVU61
 304 0004 0268     		ldr	r2, [r0]
 305 0006 D368     		ldr	r3, [r2, #12]
 306 0008 23F00103 		bic	r3, r3, #1
 307 000c D360     		str	r3, [r2, #12]
1049:Drivers/STM32H7xx_HAL_Driver/Src/stm32h7xx_hal_sram.c **** 
 308              		.loc 1 1049 3 view .LVU62
1049:Drivers/STM32H7xx_HAL_Driver/Src/stm32h7xx_hal_sram.c **** 
 309              		.loc 1 1049 16 is_stmt 0 view .LVU63
 310 000e 0123     		movs	r3, #1
 311 0010 81F84530 		strb	r3, [r1, #69]
1054:Drivers/STM32H7xx_HAL_Driver/Src/stm32h7xx_hal_sram.c **** #endif /* USE_HAL_SRAM_REGISTER_CALLBACKS */
 312              		.loc 1 1054 3 is_stmt 1 view .LVU64
 313 0014 FFF7FEFF 		bl	HAL_SRAM_DMA_XferCpltCallback
ARM GAS  /tmp/ccc750si.s 			page 26


 314              	.LVL20:
1056:Drivers/STM32H7xx_HAL_Driver/Src/stm32h7xx_hal_sram.c **** 
 315              		.loc 1 1056 1 is_stmt 0 view .LVU65
 316 0018 08BD     		pop	{r3, pc}
 317              		.cfi_endproc
 318              	.LFE161:
 320              		.section	.text.HAL_SRAM_DMA_XferErrorCallback,"ax",%progbits
 321              		.align	1
 322              		.weak	HAL_SRAM_DMA_XferErrorCallback
 323              		.syntax unified
 324              		.thumb
 325              		.thumb_func
 326              		.fpu fpv5-d16
 328              	HAL_SRAM_DMA_XferErrorCallback:
 329              	.LVL21:
 330              	.LFB149:
 307:Drivers/STM32H7xx_HAL_Driver/Src/stm32h7xx_hal_sram.c ****   /* Prevent unused argument(s) compilation warning */
 331              		.loc 1 307 1 is_stmt 1 view -0
 332              		.cfi_startproc
 333              		@ args = 0, pretend = 0, frame = 0
 334              		@ frame_needed = 0, uses_anonymous_args = 0
 335              		@ link register save eliminated.
 309:Drivers/STM32H7xx_HAL_Driver/Src/stm32h7xx_hal_sram.c **** 
 336              		.loc 1 309 3 view .LVU67
 314:Drivers/STM32H7xx_HAL_Driver/Src/stm32h7xx_hal_sram.c **** 
 337              		.loc 1 314 1 is_stmt 0 view .LVU68
 338 0000 7047     		bx	lr
 339              		.cfi_endproc
 340              	.LFE149:
 342              		.section	.text.SRAM_DMAError,"ax",%progbits
 343              		.align	1
 344              		.syntax unified
 345              		.thumb
 346              		.thumb_func
 347              		.fpu fpv5-d16
 349              	SRAM_DMAError:
 350              	.LVL22:
 351              	.LFB163:
1079:Drivers/STM32H7xx_HAL_Driver/Src/stm32h7xx_hal_sram.c **** 
1080:Drivers/STM32H7xx_HAL_Driver/Src/stm32h7xx_hal_sram.c **** /**
1081:Drivers/STM32H7xx_HAL_Driver/Src/stm32h7xx_hal_sram.c ****   * @brief  MDMA SRAM error callback.
1082:Drivers/STM32H7xx_HAL_Driver/Src/stm32h7xx_hal_sram.c ****   * @param  hmdma : MDMA handle
1083:Drivers/STM32H7xx_HAL_Driver/Src/stm32h7xx_hal_sram.c ****   * @retval None
1084:Drivers/STM32H7xx_HAL_Driver/Src/stm32h7xx_hal_sram.c ****   */
1085:Drivers/STM32H7xx_HAL_Driver/Src/stm32h7xx_hal_sram.c **** static void SRAM_DMAError(MDMA_HandleTypeDef *hmdma)
1086:Drivers/STM32H7xx_HAL_Driver/Src/stm32h7xx_hal_sram.c **** {
 352              		.loc 1 1086 1 is_stmt 1 view -0
 353              		.cfi_startproc
 354              		@ args = 0, pretend = 0, frame = 0
 355              		@ frame_needed = 0, uses_anonymous_args = 0
 356              		.loc 1 1086 1 is_stmt 0 view .LVU70
 357 0000 08B5     		push	{r3, lr}
 358              	.LCFI5:
 359              		.cfi_def_cfa_offset 8
 360              		.cfi_offset 3, -8
 361              		.cfi_offset 14, -4
1087:Drivers/STM32H7xx_HAL_Driver/Src/stm32h7xx_hal_sram.c ****   SRAM_HandleTypeDef *hsram = (SRAM_HandleTypeDef *)(hmdma->Parent);
ARM GAS  /tmp/ccc750si.s 			page 27


 362              		.loc 1 1087 3 is_stmt 1 view .LVU71
 363              		.loc 1 1087 23 is_stmt 0 view .LVU72
 364 0002 016C     		ldr	r1, [r0, #64]
 365              	.LVL23:
1088:Drivers/STM32H7xx_HAL_Driver/Src/stm32h7xx_hal_sram.c **** 
1089:Drivers/STM32H7xx_HAL_Driver/Src/stm32h7xx_hal_sram.c ****   /* Disable the MDMA channel */
1090:Drivers/STM32H7xx_HAL_Driver/Src/stm32h7xx_hal_sram.c ****   __HAL_MDMA_DISABLE(hmdma);
 366              		.loc 1 1090 3 is_stmt 1 view .LVU73
 367 0004 0268     		ldr	r2, [r0]
 368 0006 D368     		ldr	r3, [r2, #12]
 369 0008 23F00103 		bic	r3, r3, #1
 370 000c D360     		str	r3, [r2, #12]
1091:Drivers/STM32H7xx_HAL_Driver/Src/stm32h7xx_hal_sram.c **** 
1092:Drivers/STM32H7xx_HAL_Driver/Src/stm32h7xx_hal_sram.c ****   /* Update the SRAM controller state */
1093:Drivers/STM32H7xx_HAL_Driver/Src/stm32h7xx_hal_sram.c ****   hsram->State = HAL_SRAM_STATE_ERROR;
 371              		.loc 1 1093 3 view .LVU74
 372              		.loc 1 1093 16 is_stmt 0 view .LVU75
 373 000e 0323     		movs	r3, #3
 374 0010 81F84530 		strb	r3, [r1, #69]
1094:Drivers/STM32H7xx_HAL_Driver/Src/stm32h7xx_hal_sram.c **** 
1095:Drivers/STM32H7xx_HAL_Driver/Src/stm32h7xx_hal_sram.c **** #if (USE_HAL_SRAM_REGISTER_CALLBACKS == 1)
1096:Drivers/STM32H7xx_HAL_Driver/Src/stm32h7xx_hal_sram.c ****   hsram->DmaXferErrorCallback(hmdma);
1097:Drivers/STM32H7xx_HAL_Driver/Src/stm32h7xx_hal_sram.c **** #else
1098:Drivers/STM32H7xx_HAL_Driver/Src/stm32h7xx_hal_sram.c ****   HAL_SRAM_DMA_XferErrorCallback(hmdma);
 375              		.loc 1 1098 3 is_stmt 1 view .LVU76
 376 0014 FFF7FEFF 		bl	HAL_SRAM_DMA_XferErrorCallback
 377              	.LVL24:
1099:Drivers/STM32H7xx_HAL_Driver/Src/stm32h7xx_hal_sram.c **** #endif /* USE_HAL_SRAM_REGISTER_CALLBACKS */
1100:Drivers/STM32H7xx_HAL_Driver/Src/stm32h7xx_hal_sram.c **** }
 378              		.loc 1 1100 1 is_stmt 0 view .LVU77
 379 0018 08BD     		pop	{r3, pc}
 380              		.cfi_endproc
 381              	.LFE163:
 383              		.section	.text.HAL_SRAM_Read_8b,"ax",%progbits
 384              		.align	1
 385              		.global	HAL_SRAM_Read_8b
 386              		.syntax unified
 387              		.thumb
 388              		.thumb_func
 389              		.fpu fpv5-d16
 391              	HAL_SRAM_Read_8b:
 392              	.LVL25:
 393              	.LFB150:
 345:Drivers/STM32H7xx_HAL_Driver/Src/stm32h7xx_hal_sram.c ****   uint32_t size;
 394              		.loc 1 345 1 is_stmt 1 view -0
 395              		.cfi_startproc
 396              		@ args = 0, pretend = 0, frame = 0
 397              		@ frame_needed = 0, uses_anonymous_args = 0
 345:Drivers/STM32H7xx_HAL_Driver/Src/stm32h7xx_hal_sram.c ****   uint32_t size;
 398              		.loc 1 345 1 is_stmt 0 view .LVU79
 399 0000 00B5     		push	{lr}
 400              	.LCFI6:
 401              		.cfi_def_cfa_offset 4
 402              		.cfi_offset 14, -4
 346:Drivers/STM32H7xx_HAL_Driver/Src/stm32h7xx_hal_sram.c ****   __IO uint8_t *psramaddress = (uint8_t *)pAddress;
 403              		.loc 1 346 3 is_stmt 1 view .LVU80
 347:Drivers/STM32H7xx_HAL_Driver/Src/stm32h7xx_hal_sram.c ****   uint8_t *pdestbuff = pDstBuffer;
ARM GAS  /tmp/ccc750si.s 			page 28


 404              		.loc 1 347 3 view .LVU81
 405              	.LVL26:
 348:Drivers/STM32H7xx_HAL_Driver/Src/stm32h7xx_hal_sram.c ****   HAL_SRAM_StateTypeDef state = hsram->State;
 406              		.loc 1 348 3 view .LVU82
 349:Drivers/STM32H7xx_HAL_Driver/Src/stm32h7xx_hal_sram.c **** 
 407              		.loc 1 349 3 view .LVU83
 349:Drivers/STM32H7xx_HAL_Driver/Src/stm32h7xx_hal_sram.c **** 
 408              		.loc 1 349 25 is_stmt 0 view .LVU84
 409 0002 90F845E0 		ldrb	lr, [r0, #69]	@ zero_extendqisi2
 410 0006 5FFA8EFE 		uxtb	lr, lr
 411              	.LVL27:
 352:Drivers/STM32H7xx_HAL_Driver/Src/stm32h7xx_hal_sram.c ****   {
 412              		.loc 1 352 3 is_stmt 1 view .LVU85
 352:Drivers/STM32H7xx_HAL_Driver/Src/stm32h7xx_hal_sram.c ****   {
 413              		.loc 1 352 6 is_stmt 0 view .LVU86
 414 000a BEF1040F 		cmp	lr, #4
 415 000e 18BF     		it	ne
 416 0010 BEF1010F 		cmpne	lr, #1
 417 0014 1BD1     		bne	.L28
 355:Drivers/STM32H7xx_HAL_Driver/Src/stm32h7xx_hal_sram.c **** 
 418              		.loc 1 355 5 is_stmt 1 view .LVU87
 355:Drivers/STM32H7xx_HAL_Driver/Src/stm32h7xx_hal_sram.c **** 
 419              		.loc 1 355 5 view .LVU88
 420 0016 90F844C0 		ldrb	ip, [r0, #68]	@ zero_extendqisi2
 421 001a BCF1010F 		cmp	ip, #1
 422 001e 18D0     		beq	.L29
 355:Drivers/STM32H7xx_HAL_Driver/Src/stm32h7xx_hal_sram.c **** 
 423              		.loc 1 355 5 discriminator 2 view .LVU89
 424 0020 4FF0010C 		mov	ip, #1
 425 0024 80F844C0 		strb	ip, [r0, #68]
 355:Drivers/STM32H7xx_HAL_Driver/Src/stm32h7xx_hal_sram.c **** 
 426              		.loc 1 355 5 discriminator 2 view .LVU90
 358:Drivers/STM32H7xx_HAL_Driver/Src/stm32h7xx_hal_sram.c **** 
 427              		.loc 1 358 5 discriminator 2 view .LVU91
 358:Drivers/STM32H7xx_HAL_Driver/Src/stm32h7xx_hal_sram.c **** 
 428              		.loc 1 358 18 is_stmt 0 discriminator 2 view .LVU92
 429 0028 4FF0020C 		mov	ip, #2
 430 002c 80F845C0 		strb	ip, [r0, #69]
 361:Drivers/STM32H7xx_HAL_Driver/Src/stm32h7xx_hal_sram.c ****     {
 431              		.loc 1 361 5 is_stmt 1 discriminator 2 view .LVU93
 432              	.LVL28:
 361:Drivers/STM32H7xx_HAL_Driver/Src/stm32h7xx_hal_sram.c ****     {
 433              		.loc 1 361 5 is_stmt 0 discriminator 2 view .LVU94
 434 0030 04E0     		b	.L26
 435              	.LVL29:
 436              	.L27:
 363:Drivers/STM32H7xx_HAL_Driver/Src/stm32h7xx_hal_sram.c ****       pdestbuff++;
 437              		.loc 1 363 7 is_stmt 1 discriminator 3 view .LVU95
 363:Drivers/STM32H7xx_HAL_Driver/Src/stm32h7xx_hal_sram.c ****       pdestbuff++;
 438              		.loc 1 363 20 is_stmt 0 discriminator 3 view .LVU96
 439 0032 11F801CB 		ldrb	ip, [r1], #1	@ zero_extendqisi2
 440              	.LVL30:
 363:Drivers/STM32H7xx_HAL_Driver/Src/stm32h7xx_hal_sram.c ****       pdestbuff++;
 441              		.loc 1 363 18 discriminator 3 view .LVU97
 442 0036 02F801CB 		strb	ip, [r2], #1
 443              	.LVL31:
 364:Drivers/STM32H7xx_HAL_Driver/Src/stm32h7xx_hal_sram.c ****       psramaddress++;
ARM GAS  /tmp/ccc750si.s 			page 29


 444              		.loc 1 364 7 is_stmt 1 discriminator 3 view .LVU98
 365:Drivers/STM32H7xx_HAL_Driver/Src/stm32h7xx_hal_sram.c ****     }
 445              		.loc 1 365 7 discriminator 3 view .LVU99
 361:Drivers/STM32H7xx_HAL_Driver/Src/stm32h7xx_hal_sram.c ****     {
 446              		.loc 1 361 41 discriminator 3 view .LVU100
 361:Drivers/STM32H7xx_HAL_Driver/Src/stm32h7xx_hal_sram.c ****     {
 447              		.loc 1 361 45 is_stmt 0 discriminator 3 view .LVU101
 448 003a 013B     		subs	r3, r3, #1
 449              	.LVL32:
 450              	.L26:
 361:Drivers/STM32H7xx_HAL_Driver/Src/stm32h7xx_hal_sram.c ****     {
 451              		.loc 1 361 29 is_stmt 1 discriminator 1 view .LVU102
 361:Drivers/STM32H7xx_HAL_Driver/Src/stm32h7xx_hal_sram.c ****     {
 452              		.loc 1 361 5 is_stmt 0 discriminator 1 view .LVU103
 453 003c 002B     		cmp	r3, #0
 454 003e F8D1     		bne	.L27
 369:Drivers/STM32H7xx_HAL_Driver/Src/stm32h7xx_hal_sram.c **** 
 455              		.loc 1 369 5 is_stmt 1 view .LVU104
 369:Drivers/STM32H7xx_HAL_Driver/Src/stm32h7xx_hal_sram.c **** 
 456              		.loc 1 369 18 is_stmt 0 view .LVU105
 457 0040 80F845E0 		strb	lr, [r0, #69]
 372:Drivers/STM32H7xx_HAL_Driver/Src/stm32h7xx_hal_sram.c ****   }
 458              		.loc 1 372 5 is_stmt 1 view .LVU106
 372:Drivers/STM32H7xx_HAL_Driver/Src/stm32h7xx_hal_sram.c ****   }
 459              		.loc 1 372 5 view .LVU107
 460 0044 80F84430 		strb	r3, [r0, #68]
 372:Drivers/STM32H7xx_HAL_Driver/Src/stm32h7xx_hal_sram.c ****   }
 461              		.loc 1 372 5 view .LVU108
 379:Drivers/STM32H7xx_HAL_Driver/Src/stm32h7xx_hal_sram.c **** }
 462              		.loc 1 379 3 view .LVU109
 379:Drivers/STM32H7xx_HAL_Driver/Src/stm32h7xx_hal_sram.c **** }
 463              		.loc 1 379 10 is_stmt 0 view .LVU110
 464 0048 1846     		mov	r0, r3
 465              	.LVL33:
 466              	.L25:
 380:Drivers/STM32H7xx_HAL_Driver/Src/stm32h7xx_hal_sram.c **** 
 467              		.loc 1 380 1 view .LVU111
 468 004a 5DF804FB 		ldr	pc, [sp], #4
 469              	.LVL34:
 470              	.L28:
 376:Drivers/STM32H7xx_HAL_Driver/Src/stm32h7xx_hal_sram.c ****   }
 471              		.loc 1 376 12 view .LVU112
 472 004e 0120     		movs	r0, #1
 473              	.LVL35:
 376:Drivers/STM32H7xx_HAL_Driver/Src/stm32h7xx_hal_sram.c ****   }
 474              		.loc 1 376 12 view .LVU113
 475 0050 FBE7     		b	.L25
 476              	.LVL36:
 477              	.L29:
 355:Drivers/STM32H7xx_HAL_Driver/Src/stm32h7xx_hal_sram.c **** 
 478              		.loc 1 355 5 view .LVU114
 479 0052 0220     		movs	r0, #2
 480              	.LVL37:
 355:Drivers/STM32H7xx_HAL_Driver/Src/stm32h7xx_hal_sram.c **** 
 481              		.loc 1 355 5 view .LVU115
 482 0054 F9E7     		b	.L25
 483              		.cfi_endproc
ARM GAS  /tmp/ccc750si.s 			page 30


 484              	.LFE150:
 486              		.section	.text.HAL_SRAM_Write_8b,"ax",%progbits
 487              		.align	1
 488              		.global	HAL_SRAM_Write_8b
 489              		.syntax unified
 490              		.thumb
 491              		.thumb_func
 492              		.fpu fpv5-d16
 494              	HAL_SRAM_Write_8b:
 495              	.LVL38:
 496              	.LFB151:
 393:Drivers/STM32H7xx_HAL_Driver/Src/stm32h7xx_hal_sram.c ****   uint32_t size;
 497              		.loc 1 393 1 is_stmt 1 view -0
 498              		.cfi_startproc
 499              		@ args = 0, pretend = 0, frame = 0
 500              		@ frame_needed = 0, uses_anonymous_args = 0
 501              		@ link register save eliminated.
 394:Drivers/STM32H7xx_HAL_Driver/Src/stm32h7xx_hal_sram.c ****   __IO uint8_t *psramaddress = (uint8_t *)pAddress;
 502              		.loc 1 394 3 view .LVU117
 395:Drivers/STM32H7xx_HAL_Driver/Src/stm32h7xx_hal_sram.c ****   uint8_t *psrcbuff = pSrcBuffer;
 503              		.loc 1 395 3 view .LVU118
 396:Drivers/STM32H7xx_HAL_Driver/Src/stm32h7xx_hal_sram.c **** 
 504              		.loc 1 396 3 view .LVU119
 399:Drivers/STM32H7xx_HAL_Driver/Src/stm32h7xx_hal_sram.c ****   {
 505              		.loc 1 399 3 view .LVU120
 399:Drivers/STM32H7xx_HAL_Driver/Src/stm32h7xx_hal_sram.c ****   {
 506              		.loc 1 399 12 is_stmt 0 view .LVU121
 507 0000 90F845C0 		ldrb	ip, [r0, #69]	@ zero_extendqisi2
 508 0004 5FFA8CFC 		uxtb	ip, ip
 399:Drivers/STM32H7xx_HAL_Driver/Src/stm32h7xx_hal_sram.c ****   {
 509              		.loc 1 399 6 view .LVU122
 510 0008 BCF1010F 		cmp	ip, #1
 511 000c 1CD1     		bne	.L35
 402:Drivers/STM32H7xx_HAL_Driver/Src/stm32h7xx_hal_sram.c **** 
 512              		.loc 1 402 5 is_stmt 1 view .LVU123
 402:Drivers/STM32H7xx_HAL_Driver/Src/stm32h7xx_hal_sram.c **** 
 513              		.loc 1 402 5 view .LVU124
 514 000e 90F844C0 		ldrb	ip, [r0, #68]	@ zero_extendqisi2
 515 0012 BCF1010F 		cmp	ip, #1
 516 0016 19D0     		beq	.L36
 402:Drivers/STM32H7xx_HAL_Driver/Src/stm32h7xx_hal_sram.c **** 
 517              		.loc 1 402 5 discriminator 2 view .LVU125
 518 0018 4FF0010C 		mov	ip, #1
 519 001c 80F844C0 		strb	ip, [r0, #68]
 402:Drivers/STM32H7xx_HAL_Driver/Src/stm32h7xx_hal_sram.c **** 
 520              		.loc 1 402 5 discriminator 2 view .LVU126
 405:Drivers/STM32H7xx_HAL_Driver/Src/stm32h7xx_hal_sram.c **** 
 521              		.loc 1 405 5 discriminator 2 view .LVU127
 405:Drivers/STM32H7xx_HAL_Driver/Src/stm32h7xx_hal_sram.c **** 
 522              		.loc 1 405 18 is_stmt 0 discriminator 2 view .LVU128
 523 0020 4FF0020C 		mov	ip, #2
 524 0024 80F845C0 		strb	ip, [r0, #69]
 408:Drivers/STM32H7xx_HAL_Driver/Src/stm32h7xx_hal_sram.c ****     {
 525              		.loc 1 408 5 is_stmt 1 discriminator 2 view .LVU129
 526              	.LVL39:
 408:Drivers/STM32H7xx_HAL_Driver/Src/stm32h7xx_hal_sram.c ****     {
 527              		.loc 1 408 5 is_stmt 0 discriminator 2 view .LVU130
ARM GAS  /tmp/ccc750si.s 			page 31


 528 0028 04E0     		b	.L33
 529              	.LVL40:
 530              	.L34:
 410:Drivers/STM32H7xx_HAL_Driver/Src/stm32h7xx_hal_sram.c ****       psrcbuff++;
 531              		.loc 1 410 7 is_stmt 1 discriminator 3 view .LVU131
 410:Drivers/STM32H7xx_HAL_Driver/Src/stm32h7xx_hal_sram.c ****       psrcbuff++;
 532              		.loc 1 410 23 is_stmt 0 discriminator 3 view .LVU132
 533 002a 12F801CB 		ldrb	ip, [r2], #1	@ zero_extendqisi2
 534              	.LVL41:
 410:Drivers/STM32H7xx_HAL_Driver/Src/stm32h7xx_hal_sram.c ****       psrcbuff++;
 535              		.loc 1 410 21 discriminator 3 view .LVU133
 536 002e 01F801CB 		strb	ip, [r1], #1
 537              	.LVL42:
 411:Drivers/STM32H7xx_HAL_Driver/Src/stm32h7xx_hal_sram.c ****       psramaddress++;
 538              		.loc 1 411 7 is_stmt 1 discriminator 3 view .LVU134
 412:Drivers/STM32H7xx_HAL_Driver/Src/stm32h7xx_hal_sram.c ****     }
 539              		.loc 1 412 7 discriminator 3 view .LVU135
 408:Drivers/STM32H7xx_HAL_Driver/Src/stm32h7xx_hal_sram.c ****     {
 540              		.loc 1 408 41 discriminator 3 view .LVU136
 408:Drivers/STM32H7xx_HAL_Driver/Src/stm32h7xx_hal_sram.c ****     {
 541              		.loc 1 408 45 is_stmt 0 discriminator 3 view .LVU137
 542 0032 013B     		subs	r3, r3, #1
 543              	.LVL43:
 544              	.L33:
 408:Drivers/STM32H7xx_HAL_Driver/Src/stm32h7xx_hal_sram.c ****     {
 545              		.loc 1 408 29 is_stmt 1 discriminator 1 view .LVU138
 408:Drivers/STM32H7xx_HAL_Driver/Src/stm32h7xx_hal_sram.c ****     {
 546              		.loc 1 408 5 is_stmt 0 discriminator 1 view .LVU139
 547 0034 002B     		cmp	r3, #0
 548 0036 F8D1     		bne	.L34
 416:Drivers/STM32H7xx_HAL_Driver/Src/stm32h7xx_hal_sram.c **** 
 549              		.loc 1 416 5 is_stmt 1 view .LVU140
 416:Drivers/STM32H7xx_HAL_Driver/Src/stm32h7xx_hal_sram.c **** 
 550              		.loc 1 416 18 is_stmt 0 view .LVU141
 551 0038 0123     		movs	r3, #1
 552              	.LVL44:
 416:Drivers/STM32H7xx_HAL_Driver/Src/stm32h7xx_hal_sram.c **** 
 553              		.loc 1 416 18 view .LVU142
 554 003a 80F84530 		strb	r3, [r0, #69]
 419:Drivers/STM32H7xx_HAL_Driver/Src/stm32h7xx_hal_sram.c ****   }
 555              		.loc 1 419 5 is_stmt 1 view .LVU143
 419:Drivers/STM32H7xx_HAL_Driver/Src/stm32h7xx_hal_sram.c ****   }
 556              		.loc 1 419 5 view .LVU144
 557 003e 0023     		movs	r3, #0
 558 0040 80F84430 		strb	r3, [r0, #68]
 419:Drivers/STM32H7xx_HAL_Driver/Src/stm32h7xx_hal_sram.c ****   }
 559              		.loc 1 419 5 view .LVU145
 426:Drivers/STM32H7xx_HAL_Driver/Src/stm32h7xx_hal_sram.c **** }
 560              		.loc 1 426 3 view .LVU146
 426:Drivers/STM32H7xx_HAL_Driver/Src/stm32h7xx_hal_sram.c **** }
 561              		.loc 1 426 10 is_stmt 0 view .LVU147
 562 0044 1846     		mov	r0, r3
 563              	.LVL45:
 426:Drivers/STM32H7xx_HAL_Driver/Src/stm32h7xx_hal_sram.c **** }
 564              		.loc 1 426 10 view .LVU148
 565 0046 7047     		bx	lr
 566              	.LVL46:
ARM GAS  /tmp/ccc750si.s 			page 32


 567              	.L35:
 423:Drivers/STM32H7xx_HAL_Driver/Src/stm32h7xx_hal_sram.c ****   }
 568              		.loc 1 423 12 view .LVU149
 569 0048 0120     		movs	r0, #1
 570              	.LVL47:
 423:Drivers/STM32H7xx_HAL_Driver/Src/stm32h7xx_hal_sram.c ****   }
 571              		.loc 1 423 12 view .LVU150
 572 004a 7047     		bx	lr
 573              	.LVL48:
 574              	.L36:
 402:Drivers/STM32H7xx_HAL_Driver/Src/stm32h7xx_hal_sram.c **** 
 575              		.loc 1 402 5 view .LVU151
 576 004c 0220     		movs	r0, #2
 577              	.LVL49:
 427:Drivers/STM32H7xx_HAL_Driver/Src/stm32h7xx_hal_sram.c **** 
 578              		.loc 1 427 1 view .LVU152
 579 004e 7047     		bx	lr
 580              		.cfi_endproc
 581              	.LFE151:
 583              		.section	.text.HAL_SRAM_Read_16b,"ax",%progbits
 584              		.align	1
 585              		.global	HAL_SRAM_Read_16b
 586              		.syntax unified
 587              		.thumb
 588              		.thumb_func
 589              		.fpu fpv5-d16
 591              	HAL_SRAM_Read_16b:
 592              	.LVL50:
 593              	.LFB152:
 440:Drivers/STM32H7xx_HAL_Driver/Src/stm32h7xx_hal_sram.c ****   uint32_t size;
 594              		.loc 1 440 1 is_stmt 1 view -0
 595              		.cfi_startproc
 596              		@ args = 0, pretend = 0, frame = 0
 597              		@ frame_needed = 0, uses_anonymous_args = 0
 440:Drivers/STM32H7xx_HAL_Driver/Src/stm32h7xx_hal_sram.c ****   uint32_t size;
 598              		.loc 1 440 1 is_stmt 0 view .LVU154
 599 0000 30B5     		push	{r4, r5, lr}
 600              	.LCFI7:
 601              		.cfi_def_cfa_offset 12
 602              		.cfi_offset 4, -12
 603              		.cfi_offset 5, -8
 604              		.cfi_offset 14, -4
 441:Drivers/STM32H7xx_HAL_Driver/Src/stm32h7xx_hal_sram.c ****   __IO uint32_t *psramaddress = pAddress;
 605              		.loc 1 441 3 is_stmt 1 view .LVU155
 442:Drivers/STM32H7xx_HAL_Driver/Src/stm32h7xx_hal_sram.c ****   uint16_t *pdestbuff = pDstBuffer;
 606              		.loc 1 442 3 view .LVU156
 607              	.LVL51:
 443:Drivers/STM32H7xx_HAL_Driver/Src/stm32h7xx_hal_sram.c ****   uint8_t limit;
 608              		.loc 1 443 3 view .LVU157
 444:Drivers/STM32H7xx_HAL_Driver/Src/stm32h7xx_hal_sram.c ****   HAL_SRAM_StateTypeDef state = hsram->State;
 609              		.loc 1 444 3 view .LVU158
 445:Drivers/STM32H7xx_HAL_Driver/Src/stm32h7xx_hal_sram.c **** 
 610              		.loc 1 445 3 view .LVU159
 445:Drivers/STM32H7xx_HAL_Driver/Src/stm32h7xx_hal_sram.c **** 
 611              		.loc 1 445 25 is_stmt 0 view .LVU160
 612 0002 90F845E0 		ldrb	lr, [r0, #69]	@ zero_extendqisi2
 613 0006 5FFA8EFE 		uxtb	lr, lr
ARM GAS  /tmp/ccc750si.s 			page 33


 614              	.LVL52:
 448:Drivers/STM32H7xx_HAL_Driver/Src/stm32h7xx_hal_sram.c ****   {
 615              		.loc 1 448 3 is_stmt 1 view .LVU161
 448:Drivers/STM32H7xx_HAL_Driver/Src/stm32h7xx_hal_sram.c ****   {
 616              		.loc 1 448 6 is_stmt 0 view .LVU162
 617 000a BEF1040F 		cmp	lr, #4
 618 000e 18BF     		it	ne
 619 0010 BEF1010F 		cmpne	lr, #1
 620 0014 22D1     		bne	.L42
 451:Drivers/STM32H7xx_HAL_Driver/Src/stm32h7xx_hal_sram.c **** 
 621              		.loc 1 451 5 is_stmt 1 view .LVU163
 451:Drivers/STM32H7xx_HAL_Driver/Src/stm32h7xx_hal_sram.c **** 
 622              		.loc 1 451 5 view .LVU164
 623 0016 90F84440 		ldrb	r4, [r0, #68]	@ zero_extendqisi2
 624 001a 012C     		cmp	r4, #1
 625 001c 20D0     		beq	.L43
 451:Drivers/STM32H7xx_HAL_Driver/Src/stm32h7xx_hal_sram.c **** 
 626              		.loc 1 451 5 discriminator 2 view .LVU165
 627 001e 0124     		movs	r4, #1
 628 0020 80F84440 		strb	r4, [r0, #68]
 451:Drivers/STM32H7xx_HAL_Driver/Src/stm32h7xx_hal_sram.c **** 
 629              		.loc 1 451 5 discriminator 2 view .LVU166
 454:Drivers/STM32H7xx_HAL_Driver/Src/stm32h7xx_hal_sram.c **** 
 630              		.loc 1 454 5 discriminator 2 view .LVU167
 454:Drivers/STM32H7xx_HAL_Driver/Src/stm32h7xx_hal_sram.c **** 
 631              		.loc 1 454 18 is_stmt 0 discriminator 2 view .LVU168
 632 0024 0224     		movs	r4, #2
 633 0026 80F84540 		strb	r4, [r0, #69]
 457:Drivers/STM32H7xx_HAL_Driver/Src/stm32h7xx_hal_sram.c **** 
 634              		.loc 1 457 5 is_stmt 1 discriminator 2 view .LVU169
 457:Drivers/STM32H7xx_HAL_Driver/Src/stm32h7xx_hal_sram.c **** 
 635              		.loc 1 457 11 is_stmt 0 discriminator 2 view .LVU170
 636 002a 03F00105 		and	r5, r3, #1
 637              	.LVL53:
 460:Drivers/STM32H7xx_HAL_Driver/Src/stm32h7xx_hal_sram.c ****     {
 638              		.loc 1 460 5 is_stmt 1 discriminator 2 view .LVU171
 460:Drivers/STM32H7xx_HAL_Driver/Src/stm32h7xx_hal_sram.c ****     {
 639              		.loc 1 460 5 is_stmt 0 discriminator 2 view .LVU172
 640 002e 09E0     		b	.L39
 641              	.LVL54:
 642              	.L40:
 462:Drivers/STM32H7xx_HAL_Driver/Src/stm32h7xx_hal_sram.c ****       pdestbuff++;
 643              		.loc 1 462 7 is_stmt 1 discriminator 3 view .LVU173
 462:Drivers/STM32H7xx_HAL_Driver/Src/stm32h7xx_hal_sram.c ****       pdestbuff++;
 644              		.loc 1 462 32 is_stmt 0 discriminator 3 view .LVU174
 645 0030 0C68     		ldr	r4, [r1]
 462:Drivers/STM32H7xx_HAL_Driver/Src/stm32h7xx_hal_sram.c ****       pdestbuff++;
 646              		.loc 1 462 18 discriminator 3 view .LVU175
 647 0032 1480     		strh	r4, [r2]	@ movhi
 463:Drivers/STM32H7xx_HAL_Driver/Src/stm32h7xx_hal_sram.c ****       *pdestbuff = (uint16_t)(((*psramaddress) & 0xFFFF0000U) >> 16U);
 648              		.loc 1 463 7 is_stmt 1 discriminator 3 view .LVU176
 649              	.LVL55:
 464:Drivers/STM32H7xx_HAL_Driver/Src/stm32h7xx_hal_sram.c ****       pdestbuff++;
 650              		.loc 1 464 7 discriminator 3 view .LVU177
 464:Drivers/STM32H7xx_HAL_Driver/Src/stm32h7xx_hal_sram.c ****       pdestbuff++;
 651              		.loc 1 464 33 is_stmt 0 discriminator 3 view .LVU178
 652 0034 51F8044B 		ldr	r4, [r1], #4
ARM GAS  /tmp/ccc750si.s 			page 34


 653              	.LVL56:
 464:Drivers/STM32H7xx_HAL_Driver/Src/stm32h7xx_hal_sram.c ****       pdestbuff++;
 654              		.loc 1 464 20 discriminator 3 view .LVU179
 655 0038 4FEA144C 		lsr	ip, r4, #16
 464:Drivers/STM32H7xx_HAL_Driver/Src/stm32h7xx_hal_sram.c ****       pdestbuff++;
 656              		.loc 1 464 18 discriminator 3 view .LVU180
 657 003c A2F802C0 		strh	ip, [r2, #2]	@ movhi
 465:Drivers/STM32H7xx_HAL_Driver/Src/stm32h7xx_hal_sram.c ****       psramaddress++;
 658              		.loc 1 465 7 is_stmt 1 discriminator 3 view .LVU181
 465:Drivers/STM32H7xx_HAL_Driver/Src/stm32h7xx_hal_sram.c ****       psramaddress++;
 659              		.loc 1 465 16 is_stmt 0 discriminator 3 view .LVU182
 660 0040 0432     		adds	r2, r2, #4
 661              	.LVL57:
 466:Drivers/STM32H7xx_HAL_Driver/Src/stm32h7xx_hal_sram.c ****     }
 662              		.loc 1 466 7 is_stmt 1 discriminator 3 view .LVU183
 460:Drivers/STM32H7xx_HAL_Driver/Src/stm32h7xx_hal_sram.c ****     {
 663              		.loc 1 460 44 discriminator 3 view .LVU184
 460:Drivers/STM32H7xx_HAL_Driver/Src/stm32h7xx_hal_sram.c ****     {
 664              		.loc 1 460 49 is_stmt 0 discriminator 3 view .LVU185
 665 0042 023B     		subs	r3, r3, #2
 666              	.LVL58:
 667              	.L39:
 460:Drivers/STM32H7xx_HAL_Driver/Src/stm32h7xx_hal_sram.c ****     {
 668              		.loc 1 460 29 is_stmt 1 discriminator 1 view .LVU186
 460:Drivers/STM32H7xx_HAL_Driver/Src/stm32h7xx_hal_sram.c ****     {
 669              		.loc 1 460 5 is_stmt 0 discriminator 1 view .LVU187
 670 0044 9D42     		cmp	r5, r3
 671 0046 F3D1     		bne	.L40
 470:Drivers/STM32H7xx_HAL_Driver/Src/stm32h7xx_hal_sram.c ****     {
 672              		.loc 1 470 5 is_stmt 1 view .LVU188
 470:Drivers/STM32H7xx_HAL_Driver/Src/stm32h7xx_hal_sram.c ****     {
 673              		.loc 1 470 8 is_stmt 0 view .LVU189
 674 0048 0DB1     		cbz	r5, .L41
 472:Drivers/STM32H7xx_HAL_Driver/Src/stm32h7xx_hal_sram.c ****     }
 675              		.loc 1 472 7 is_stmt 1 view .LVU190
 472:Drivers/STM32H7xx_HAL_Driver/Src/stm32h7xx_hal_sram.c ****     }
 676              		.loc 1 472 32 is_stmt 0 view .LVU191
 677 004a 0B68     		ldr	r3, [r1]
 678              	.LVL59:
 472:Drivers/STM32H7xx_HAL_Driver/Src/stm32h7xx_hal_sram.c ****     }
 679              		.loc 1 472 18 view .LVU192
 680 004c 1380     		strh	r3, [r2]	@ movhi
 681              	.L41:
 476:Drivers/STM32H7xx_HAL_Driver/Src/stm32h7xx_hal_sram.c **** 
 682              		.loc 1 476 5 is_stmt 1 view .LVU193
 476:Drivers/STM32H7xx_HAL_Driver/Src/stm32h7xx_hal_sram.c **** 
 683              		.loc 1 476 18 is_stmt 0 view .LVU194
 684 004e 80F845E0 		strb	lr, [r0, #69]
 479:Drivers/STM32H7xx_HAL_Driver/Src/stm32h7xx_hal_sram.c ****   }
 685              		.loc 1 479 5 is_stmt 1 view .LVU195
 479:Drivers/STM32H7xx_HAL_Driver/Src/stm32h7xx_hal_sram.c ****   }
 686              		.loc 1 479 5 view .LVU196
 687 0052 0023     		movs	r3, #0
 688 0054 80F84430 		strb	r3, [r0, #68]
 479:Drivers/STM32H7xx_HAL_Driver/Src/stm32h7xx_hal_sram.c ****   }
 689              		.loc 1 479 5 view .LVU197
 486:Drivers/STM32H7xx_HAL_Driver/Src/stm32h7xx_hal_sram.c **** }
ARM GAS  /tmp/ccc750si.s 			page 35


 690              		.loc 1 486 3 view .LVU198
 486:Drivers/STM32H7xx_HAL_Driver/Src/stm32h7xx_hal_sram.c **** }
 691              		.loc 1 486 10 is_stmt 0 view .LVU199
 692 0058 1846     		mov	r0, r3
 693              	.LVL60:
 694              	.L38:
 487:Drivers/STM32H7xx_HAL_Driver/Src/stm32h7xx_hal_sram.c **** 
 695              		.loc 1 487 1 view .LVU200
 696 005a 30BD     		pop	{r4, r5, pc}
 697              	.LVL61:
 698              	.L42:
 483:Drivers/STM32H7xx_HAL_Driver/Src/stm32h7xx_hal_sram.c ****   }
 699              		.loc 1 483 12 view .LVU201
 700 005c 0120     		movs	r0, #1
 701              	.LVL62:
 483:Drivers/STM32H7xx_HAL_Driver/Src/stm32h7xx_hal_sram.c ****   }
 702              		.loc 1 483 12 view .LVU202
 703 005e FCE7     		b	.L38
 704              	.LVL63:
 705              	.L43:
 451:Drivers/STM32H7xx_HAL_Driver/Src/stm32h7xx_hal_sram.c **** 
 706              		.loc 1 451 5 view .LVU203
 707 0060 0220     		movs	r0, #2
 708              	.LVL64:
 451:Drivers/STM32H7xx_HAL_Driver/Src/stm32h7xx_hal_sram.c **** 
 709              		.loc 1 451 5 view .LVU204
 710 0062 FAE7     		b	.L38
 711              		.cfi_endproc
 712              	.LFE152:
 714              		.section	.text.HAL_SRAM_Write_16b,"ax",%progbits
 715              		.align	1
 716              		.global	HAL_SRAM_Write_16b
 717              		.syntax unified
 718              		.thumb
 719              		.thumb_func
 720              		.fpu fpv5-d16
 722              	HAL_SRAM_Write_16b:
 723              	.LVL65:
 724              	.LFB153:
 500:Drivers/STM32H7xx_HAL_Driver/Src/stm32h7xx_hal_sram.c ****   uint32_t size;
 725              		.loc 1 500 1 is_stmt 1 view -0
 726              		.cfi_startproc
 727              		@ args = 0, pretend = 0, frame = 0
 728              		@ frame_needed = 0, uses_anonymous_args = 0
 729              		@ link register save eliminated.
 500:Drivers/STM32H7xx_HAL_Driver/Src/stm32h7xx_hal_sram.c ****   uint32_t size;
 730              		.loc 1 500 1 is_stmt 0 view .LVU206
 731 0000 30B4     		push	{r4, r5}
 732              	.LCFI8:
 733              		.cfi_def_cfa_offset 8
 734              		.cfi_offset 4, -8
 735              		.cfi_offset 5, -4
 501:Drivers/STM32H7xx_HAL_Driver/Src/stm32h7xx_hal_sram.c ****   __IO uint32_t *psramaddress = pAddress;
 736              		.loc 1 501 3 is_stmt 1 view .LVU207
 502:Drivers/STM32H7xx_HAL_Driver/Src/stm32h7xx_hal_sram.c ****   uint16_t *psrcbuff = pSrcBuffer;
 737              		.loc 1 502 3 view .LVU208
 738              	.LVL66:
ARM GAS  /tmp/ccc750si.s 			page 36


 503:Drivers/STM32H7xx_HAL_Driver/Src/stm32h7xx_hal_sram.c ****   uint8_t limit;
 739              		.loc 1 503 3 view .LVU209
 504:Drivers/STM32H7xx_HAL_Driver/Src/stm32h7xx_hal_sram.c **** 
 740              		.loc 1 504 3 view .LVU210
 507:Drivers/STM32H7xx_HAL_Driver/Src/stm32h7xx_hal_sram.c ****   {
 741              		.loc 1 507 3 view .LVU211
 507:Drivers/STM32H7xx_HAL_Driver/Src/stm32h7xx_hal_sram.c ****   {
 742              		.loc 1 507 12 is_stmt 0 view .LVU212
 743 0002 90F84540 		ldrb	r4, [r0, #69]	@ zero_extendqisi2
 744 0006 E4B2     		uxtb	r4, r4
 507:Drivers/STM32H7xx_HAL_Driver/Src/stm32h7xx_hal_sram.c ****   {
 745              		.loc 1 507 6 view .LVU213
 746 0008 012C     		cmp	r4, #1
 747 000a 28D1     		bne	.L50
 510:Drivers/STM32H7xx_HAL_Driver/Src/stm32h7xx_hal_sram.c **** 
 748              		.loc 1 510 5 is_stmt 1 view .LVU214
 510:Drivers/STM32H7xx_HAL_Driver/Src/stm32h7xx_hal_sram.c **** 
 749              		.loc 1 510 5 view .LVU215
 750 000c 90F84440 		ldrb	r4, [r0, #68]	@ zero_extendqisi2
 751 0010 012C     		cmp	r4, #1
 752 0012 27D0     		beq	.L51
 510:Drivers/STM32H7xx_HAL_Driver/Src/stm32h7xx_hal_sram.c **** 
 753              		.loc 1 510 5 discriminator 2 view .LVU216
 754 0014 0124     		movs	r4, #1
 755 0016 80F84440 		strb	r4, [r0, #68]
 510:Drivers/STM32H7xx_HAL_Driver/Src/stm32h7xx_hal_sram.c **** 
 756              		.loc 1 510 5 discriminator 2 view .LVU217
 513:Drivers/STM32H7xx_HAL_Driver/Src/stm32h7xx_hal_sram.c **** 
 757              		.loc 1 513 5 discriminator 2 view .LVU218
 513:Drivers/STM32H7xx_HAL_Driver/Src/stm32h7xx_hal_sram.c **** 
 758              		.loc 1 513 18 is_stmt 0 discriminator 2 view .LVU219
 759 001a 0224     		movs	r4, #2
 760 001c 80F84540 		strb	r4, [r0, #69]
 516:Drivers/STM32H7xx_HAL_Driver/Src/stm32h7xx_hal_sram.c **** 
 761              		.loc 1 516 5 is_stmt 1 discriminator 2 view .LVU220
 516:Drivers/STM32H7xx_HAL_Driver/Src/stm32h7xx_hal_sram.c **** 
 762              		.loc 1 516 11 is_stmt 0 discriminator 2 view .LVU221
 763 0020 03F00105 		and	r5, r3, #1
 764              	.LVL67:
 519:Drivers/STM32H7xx_HAL_Driver/Src/stm32h7xx_hal_sram.c ****     {
 765              		.loc 1 519 5 is_stmt 1 discriminator 2 view .LVU222
 519:Drivers/STM32H7xx_HAL_Driver/Src/stm32h7xx_hal_sram.c ****     {
 766              		.loc 1 519 5 is_stmt 0 discriminator 2 view .LVU223
 767 0024 0AE0     		b	.L47
 768              	.LVL68:
 769              	.L48:
 521:Drivers/STM32H7xx_HAL_Driver/Src/stm32h7xx_hal_sram.c ****       psrcbuff++;
 770              		.loc 1 521 7 is_stmt 1 discriminator 3 view .LVU224
 521:Drivers/STM32H7xx_HAL_Driver/Src/stm32h7xx_hal_sram.c ****       psrcbuff++;
 771              		.loc 1 521 34 is_stmt 0 discriminator 3 view .LVU225
 772 0026 1488     		ldrh	r4, [r2]
 521:Drivers/STM32H7xx_HAL_Driver/Src/stm32h7xx_hal_sram.c ****       psrcbuff++;
 773              		.loc 1 521 21 discriminator 3 view .LVU226
 774 0028 0C60     		str	r4, [r1]
 522:Drivers/STM32H7xx_HAL_Driver/Src/stm32h7xx_hal_sram.c ****       *psramaddress |= ((uint32_t)(*psrcbuff) << 16U);
 775              		.loc 1 522 7 is_stmt 1 discriminator 3 view .LVU227
 776              	.LVL69:
ARM GAS  /tmp/ccc750si.s 			page 37


 523:Drivers/STM32H7xx_HAL_Driver/Src/stm32h7xx_hal_sram.c ****       psrcbuff++;
 777              		.loc 1 523 7 discriminator 3 view .LVU228
 523:Drivers/STM32H7xx_HAL_Driver/Src/stm32h7xx_hal_sram.c ****       psrcbuff++;
 778              		.loc 1 523 21 is_stmt 0 discriminator 3 view .LVU229
 779 002a 0C68     		ldr	r4, [r1]
 523:Drivers/STM32H7xx_HAL_Driver/Src/stm32h7xx_hal_sram.c ****       psrcbuff++;
 780              		.loc 1 523 36 discriminator 3 view .LVU230
 781 002c B2F802C0 		ldrh	ip, [r2, #2]
 523:Drivers/STM32H7xx_HAL_Driver/Src/stm32h7xx_hal_sram.c ****       psrcbuff++;
 782              		.loc 1 523 21 discriminator 3 view .LVU231
 783 0030 44EA0C44 		orr	r4, r4, ip, lsl #16
 784 0034 41F8044B 		str	r4, [r1], #4
 785              	.LVL70:
 524:Drivers/STM32H7xx_HAL_Driver/Src/stm32h7xx_hal_sram.c ****       psramaddress++;
 786              		.loc 1 524 7 is_stmt 1 discriminator 3 view .LVU232
 524:Drivers/STM32H7xx_HAL_Driver/Src/stm32h7xx_hal_sram.c ****       psramaddress++;
 787              		.loc 1 524 15 is_stmt 0 discriminator 3 view .LVU233
 788 0038 0432     		adds	r2, r2, #4
 789              	.LVL71:
 525:Drivers/STM32H7xx_HAL_Driver/Src/stm32h7xx_hal_sram.c ****     }
 790              		.loc 1 525 7 is_stmt 1 discriminator 3 view .LVU234
 519:Drivers/STM32H7xx_HAL_Driver/Src/stm32h7xx_hal_sram.c ****     {
 791              		.loc 1 519 44 discriminator 3 view .LVU235
 519:Drivers/STM32H7xx_HAL_Driver/Src/stm32h7xx_hal_sram.c ****     {
 792              		.loc 1 519 49 is_stmt 0 discriminator 3 view .LVU236
 793 003a 023B     		subs	r3, r3, #2
 794              	.LVL72:
 795              	.L47:
 519:Drivers/STM32H7xx_HAL_Driver/Src/stm32h7xx_hal_sram.c ****     {
 796              		.loc 1 519 29 is_stmt 1 discriminator 1 view .LVU237
 519:Drivers/STM32H7xx_HAL_Driver/Src/stm32h7xx_hal_sram.c ****     {
 797              		.loc 1 519 5 is_stmt 0 discriminator 1 view .LVU238
 798 003c 9D42     		cmp	r5, r3
 799 003e F2D1     		bne	.L48
 529:Drivers/STM32H7xx_HAL_Driver/Src/stm32h7xx_hal_sram.c ****     {
 800              		.loc 1 529 5 is_stmt 1 view .LVU239
 529:Drivers/STM32H7xx_HAL_Driver/Src/stm32h7xx_hal_sram.c ****     {
 801              		.loc 1 529 8 is_stmt 0 view .LVU240
 802 0040 2DB1     		cbz	r5, .L49
 531:Drivers/STM32H7xx_HAL_Driver/Src/stm32h7xx_hal_sram.c ****     }
 803              		.loc 1 531 7 is_stmt 1 view .LVU241
 531:Drivers/STM32H7xx_HAL_Driver/Src/stm32h7xx_hal_sram.c ****     }
 804              		.loc 1 531 35 is_stmt 0 view .LVU242
 805 0042 1388     		ldrh	r3, [r2]
 806              	.LVL73:
 531:Drivers/STM32H7xx_HAL_Driver/Src/stm32h7xx_hal_sram.c ****     }
 807              		.loc 1 531 65 view .LVU243
 808 0044 0C68     		ldr	r4, [r1]
 531:Drivers/STM32H7xx_HAL_Driver/Src/stm32h7xx_hal_sram.c ****     }
 809              		.loc 1 531 80 view .LVU244
 810 0046 084A     		ldr	r2, .L53
 811              	.LVL74:
 531:Drivers/STM32H7xx_HAL_Driver/Src/stm32h7xx_hal_sram.c ****     }
 812              		.loc 1 531 80 view .LVU245
 813 0048 2240     		ands	r2, r2, r4
 531:Drivers/STM32H7xx_HAL_Driver/Src/stm32h7xx_hal_sram.c ****     }
 814              		.loc 1 531 61 view .LVU246
ARM GAS  /tmp/ccc750si.s 			page 38


 815 004a 1343     		orrs	r3, r3, r2
 531:Drivers/STM32H7xx_HAL_Driver/Src/stm32h7xx_hal_sram.c ****     }
 816              		.loc 1 531 21 view .LVU247
 817 004c 0B60     		str	r3, [r1]
 818              	.L49:
 535:Drivers/STM32H7xx_HAL_Driver/Src/stm32h7xx_hal_sram.c **** 
 819              		.loc 1 535 5 is_stmt 1 view .LVU248
 535:Drivers/STM32H7xx_HAL_Driver/Src/stm32h7xx_hal_sram.c **** 
 820              		.loc 1 535 18 is_stmt 0 view .LVU249
 821 004e 0123     		movs	r3, #1
 822 0050 80F84530 		strb	r3, [r0, #69]
 538:Drivers/STM32H7xx_HAL_Driver/Src/stm32h7xx_hal_sram.c ****   }
 823              		.loc 1 538 5 is_stmt 1 view .LVU250
 538:Drivers/STM32H7xx_HAL_Driver/Src/stm32h7xx_hal_sram.c ****   }
 824              		.loc 1 538 5 view .LVU251
 825 0054 0023     		movs	r3, #0
 826 0056 80F84430 		strb	r3, [r0, #68]
 538:Drivers/STM32H7xx_HAL_Driver/Src/stm32h7xx_hal_sram.c ****   }
 827              		.loc 1 538 5 view .LVU252
 545:Drivers/STM32H7xx_HAL_Driver/Src/stm32h7xx_hal_sram.c **** }
 828              		.loc 1 545 3 view .LVU253
 545:Drivers/STM32H7xx_HAL_Driver/Src/stm32h7xx_hal_sram.c **** }
 829              		.loc 1 545 10 is_stmt 0 view .LVU254
 830 005a 1846     		mov	r0, r3
 831              	.LVL75:
 545:Drivers/STM32H7xx_HAL_Driver/Src/stm32h7xx_hal_sram.c **** }
 832              		.loc 1 545 10 view .LVU255
 833 005c 00E0     		b	.L46
 834              	.LVL76:
 835              	.L50:
 542:Drivers/STM32H7xx_HAL_Driver/Src/stm32h7xx_hal_sram.c ****   }
 836              		.loc 1 542 12 view .LVU256
 837 005e 0120     		movs	r0, #1
 838              	.LVL77:
 839              	.L46:
 546:Drivers/STM32H7xx_HAL_Driver/Src/stm32h7xx_hal_sram.c **** 
 840              		.loc 1 546 1 view .LVU257
 841 0060 30BC     		pop	{r4, r5}
 842              	.LCFI9:
 843              		.cfi_remember_state
 844              		.cfi_restore 5
 845              		.cfi_restore 4
 846              		.cfi_def_cfa_offset 0
 847 0062 7047     		bx	lr
 848              	.LVL78:
 849              	.L51:
 850              	.LCFI10:
 851              		.cfi_restore_state
 510:Drivers/STM32H7xx_HAL_Driver/Src/stm32h7xx_hal_sram.c **** 
 852              		.loc 1 510 5 view .LVU258
 853 0064 0220     		movs	r0, #2
 854              	.LVL79:
 510:Drivers/STM32H7xx_HAL_Driver/Src/stm32h7xx_hal_sram.c **** 
 855              		.loc 1 510 5 view .LVU259
 856 0066 FBE7     		b	.L46
 857              	.L54:
 858              		.align	2
ARM GAS  /tmp/ccc750si.s 			page 39


 859              	.L53:
 860 0068 0000FFFF 		.word	-65536
 861              		.cfi_endproc
 862              	.LFE153:
 864              		.section	.text.HAL_SRAM_Read_32b,"ax",%progbits
 865              		.align	1
 866              		.global	HAL_SRAM_Read_32b
 867              		.syntax unified
 868              		.thumb
 869              		.thumb_func
 870              		.fpu fpv5-d16
 872              	HAL_SRAM_Read_32b:
 873              	.LVL80:
 874              	.LFB154:
 559:Drivers/STM32H7xx_HAL_Driver/Src/stm32h7xx_hal_sram.c ****   uint32_t size;
 875              		.loc 1 559 1 is_stmt 1 view -0
 876              		.cfi_startproc
 877              		@ args = 0, pretend = 0, frame = 0
 878              		@ frame_needed = 0, uses_anonymous_args = 0
 879              		@ link register save eliminated.
 560:Drivers/STM32H7xx_HAL_Driver/Src/stm32h7xx_hal_sram.c ****   __IO uint32_t *psramaddress = pAddress;
 880              		.loc 1 560 3 view .LVU261
 561:Drivers/STM32H7xx_HAL_Driver/Src/stm32h7xx_hal_sram.c ****   uint32_t *pdestbuff = pDstBuffer;
 881              		.loc 1 561 3 view .LVU262
 562:Drivers/STM32H7xx_HAL_Driver/Src/stm32h7xx_hal_sram.c ****   HAL_SRAM_StateTypeDef state = hsram->State;
 882              		.loc 1 562 3 view .LVU263
 563:Drivers/STM32H7xx_HAL_Driver/Src/stm32h7xx_hal_sram.c **** 
 883              		.loc 1 563 3 view .LVU264
 563:Drivers/STM32H7xx_HAL_Driver/Src/stm32h7xx_hal_sram.c **** 
 884              		.loc 1 563 25 is_stmt 0 view .LVU265
 885 0000 90F845C0 		ldrb	ip, [r0, #69]	@ zero_extendqisi2
 886 0004 5FFA8CFC 		uxtb	ip, ip
 887              	.LVL81:
 566:Drivers/STM32H7xx_HAL_Driver/Src/stm32h7xx_hal_sram.c ****   {
 888              		.loc 1 566 3 is_stmt 1 view .LVU266
 566:Drivers/STM32H7xx_HAL_Driver/Src/stm32h7xx_hal_sram.c ****   {
 889              		.loc 1 566 6 is_stmt 0 view .LVU267
 890 0008 BCF1040F 		cmp	ip, #4
 891 000c 18BF     		it	ne
 892 000e BCF1010F 		cmpne	ip, #1
 893 0012 1AD1     		bne	.L59
 559:Drivers/STM32H7xx_HAL_Driver/Src/stm32h7xx_hal_sram.c ****   uint32_t size;
 894              		.loc 1 559 1 view .LVU268
 895 0014 10B4     		push	{r4}
 896              	.LCFI11:
 897              		.cfi_def_cfa_offset 4
 898              		.cfi_offset 4, -4
 569:Drivers/STM32H7xx_HAL_Driver/Src/stm32h7xx_hal_sram.c **** 
 899              		.loc 1 569 5 is_stmt 1 view .LVU269
 569:Drivers/STM32H7xx_HAL_Driver/Src/stm32h7xx_hal_sram.c **** 
 900              		.loc 1 569 5 view .LVU270
 901 0016 90F84440 		ldrb	r4, [r0, #68]	@ zero_extendqisi2
 902 001a 012C     		cmp	r4, #1
 903 001c 17D0     		beq	.L60
 569:Drivers/STM32H7xx_HAL_Driver/Src/stm32h7xx_hal_sram.c **** 
 904              		.loc 1 569 5 discriminator 2 view .LVU271
 905 001e 0124     		movs	r4, #1
ARM GAS  /tmp/ccc750si.s 			page 40


 906 0020 80F84440 		strb	r4, [r0, #68]
 569:Drivers/STM32H7xx_HAL_Driver/Src/stm32h7xx_hal_sram.c **** 
 907              		.loc 1 569 5 discriminator 2 view .LVU272
 572:Drivers/STM32H7xx_HAL_Driver/Src/stm32h7xx_hal_sram.c **** 
 908              		.loc 1 572 5 discriminator 2 view .LVU273
 572:Drivers/STM32H7xx_HAL_Driver/Src/stm32h7xx_hal_sram.c **** 
 909              		.loc 1 572 18 is_stmt 0 discriminator 2 view .LVU274
 910 0024 0224     		movs	r4, #2
 911 0026 80F84540 		strb	r4, [r0, #69]
 575:Drivers/STM32H7xx_HAL_Driver/Src/stm32h7xx_hal_sram.c ****     {
 912              		.loc 1 575 5 is_stmt 1 discriminator 2 view .LVU275
 913              	.LVL82:
 575:Drivers/STM32H7xx_HAL_Driver/Src/stm32h7xx_hal_sram.c ****     {
 914              		.loc 1 575 5 is_stmt 0 discriminator 2 view .LVU276
 915 002a 04E0     		b	.L57
 916              	.LVL83:
 917              	.L58:
 577:Drivers/STM32H7xx_HAL_Driver/Src/stm32h7xx_hal_sram.c ****       pdestbuff++;
 918              		.loc 1 577 7 is_stmt 1 discriminator 3 view .LVU277
 577:Drivers/STM32H7xx_HAL_Driver/Src/stm32h7xx_hal_sram.c ****       pdestbuff++;
 919              		.loc 1 577 20 is_stmt 0 discriminator 3 view .LVU278
 920 002c 51F8044B 		ldr	r4, [r1], #4
 921              	.LVL84:
 577:Drivers/STM32H7xx_HAL_Driver/Src/stm32h7xx_hal_sram.c ****       pdestbuff++;
 922              		.loc 1 577 18 discriminator 3 view .LVU279
 923 0030 42F8044B 		str	r4, [r2], #4
 924              	.LVL85:
 578:Drivers/STM32H7xx_HAL_Driver/Src/stm32h7xx_hal_sram.c ****       psramaddress++;
 925              		.loc 1 578 7 is_stmt 1 discriminator 3 view .LVU280
 579:Drivers/STM32H7xx_HAL_Driver/Src/stm32h7xx_hal_sram.c ****     }
 926              		.loc 1 579 7 discriminator 3 view .LVU281
 575:Drivers/STM32H7xx_HAL_Driver/Src/stm32h7xx_hal_sram.c ****     {
 927              		.loc 1 575 41 discriminator 3 view .LVU282
 575:Drivers/STM32H7xx_HAL_Driver/Src/stm32h7xx_hal_sram.c ****     {
 928              		.loc 1 575 45 is_stmt 0 discriminator 3 view .LVU283
 929 0034 013B     		subs	r3, r3, #1
 930              	.LVL86:
 931              	.L57:
 575:Drivers/STM32H7xx_HAL_Driver/Src/stm32h7xx_hal_sram.c ****     {
 932              		.loc 1 575 29 is_stmt 1 discriminator 1 view .LVU284
 575:Drivers/STM32H7xx_HAL_Driver/Src/stm32h7xx_hal_sram.c ****     {
 933              		.loc 1 575 5 is_stmt 0 discriminator 1 view .LVU285
 934 0036 002B     		cmp	r3, #0
 935 0038 F8D1     		bne	.L58
 583:Drivers/STM32H7xx_HAL_Driver/Src/stm32h7xx_hal_sram.c **** 
 936              		.loc 1 583 5 is_stmt 1 view .LVU286
 583:Drivers/STM32H7xx_HAL_Driver/Src/stm32h7xx_hal_sram.c **** 
 937              		.loc 1 583 18 is_stmt 0 view .LVU287
 938 003a 80F845C0 		strb	ip, [r0, #69]
 586:Drivers/STM32H7xx_HAL_Driver/Src/stm32h7xx_hal_sram.c ****   }
 939              		.loc 1 586 5 is_stmt 1 view .LVU288
 586:Drivers/STM32H7xx_HAL_Driver/Src/stm32h7xx_hal_sram.c ****   }
 940              		.loc 1 586 5 view .LVU289
 941 003e 80F84430 		strb	r3, [r0, #68]
 586:Drivers/STM32H7xx_HAL_Driver/Src/stm32h7xx_hal_sram.c ****   }
 942              		.loc 1 586 5 view .LVU290
 593:Drivers/STM32H7xx_HAL_Driver/Src/stm32h7xx_hal_sram.c **** }
ARM GAS  /tmp/ccc750si.s 			page 41


 943              		.loc 1 593 3 view .LVU291
 593:Drivers/STM32H7xx_HAL_Driver/Src/stm32h7xx_hal_sram.c **** }
 944              		.loc 1 593 10 is_stmt 0 view .LVU292
 945 0042 1846     		mov	r0, r3
 946              	.LVL87:
 947              	.L56:
 594:Drivers/STM32H7xx_HAL_Driver/Src/stm32h7xx_hal_sram.c **** 
 948              		.loc 1 594 1 view .LVU293
 949 0044 5DF8044B 		ldr	r4, [sp], #4
 950              	.LCFI12:
 951              		.cfi_restore 4
 952              		.cfi_def_cfa_offset 0
 953 0048 7047     		bx	lr
 954              	.LVL88:
 955              	.L59:
 590:Drivers/STM32H7xx_HAL_Driver/Src/stm32h7xx_hal_sram.c ****   }
 956              		.loc 1 590 12 view .LVU294
 957 004a 0120     		movs	r0, #1
 958              	.LVL89:
 594:Drivers/STM32H7xx_HAL_Driver/Src/stm32h7xx_hal_sram.c **** 
 959              		.loc 1 594 1 view .LVU295
 960 004c 7047     		bx	lr
 961              	.LVL90:
 962              	.L60:
 963              	.LCFI13:
 964              		.cfi_def_cfa_offset 4
 965              		.cfi_offset 4, -4
 569:Drivers/STM32H7xx_HAL_Driver/Src/stm32h7xx_hal_sram.c **** 
 966              		.loc 1 569 5 view .LVU296
 967 004e 0220     		movs	r0, #2
 968              	.LVL91:
 569:Drivers/STM32H7xx_HAL_Driver/Src/stm32h7xx_hal_sram.c **** 
 969              		.loc 1 569 5 view .LVU297
 970 0050 F8E7     		b	.L56
 971              		.cfi_endproc
 972              	.LFE154:
 974              		.section	.text.HAL_SRAM_Write_32b,"ax",%progbits
 975              		.align	1
 976              		.global	HAL_SRAM_Write_32b
 977              		.syntax unified
 978              		.thumb
 979              		.thumb_func
 980              		.fpu fpv5-d16
 982              	HAL_SRAM_Write_32b:
 983              	.LVL92:
 984              	.LFB155:
 607:Drivers/STM32H7xx_HAL_Driver/Src/stm32h7xx_hal_sram.c ****   uint32_t size;
 985              		.loc 1 607 1 is_stmt 1 view -0
 986              		.cfi_startproc
 987              		@ args = 0, pretend = 0, frame = 0
 988              		@ frame_needed = 0, uses_anonymous_args = 0
 989              		@ link register save eliminated.
 607:Drivers/STM32H7xx_HAL_Driver/Src/stm32h7xx_hal_sram.c ****   uint32_t size;
 990              		.loc 1 607 1 is_stmt 0 view .LVU299
 991 0000 10B4     		push	{r4}
 992              	.LCFI14:
 993              		.cfi_def_cfa_offset 4
ARM GAS  /tmp/ccc750si.s 			page 42


 994              		.cfi_offset 4, -4
 608:Drivers/STM32H7xx_HAL_Driver/Src/stm32h7xx_hal_sram.c ****   __IO uint32_t *psramaddress = pAddress;
 995              		.loc 1 608 3 is_stmt 1 view .LVU300
 609:Drivers/STM32H7xx_HAL_Driver/Src/stm32h7xx_hal_sram.c ****   uint32_t *psrcbuff = pSrcBuffer;
 996              		.loc 1 609 3 view .LVU301
 997              	.LVL93:
 610:Drivers/STM32H7xx_HAL_Driver/Src/stm32h7xx_hal_sram.c **** 
 998              		.loc 1 610 3 view .LVU302
 613:Drivers/STM32H7xx_HAL_Driver/Src/stm32h7xx_hal_sram.c ****   {
 999              		.loc 1 613 3 view .LVU303
 613:Drivers/STM32H7xx_HAL_Driver/Src/stm32h7xx_hal_sram.c ****   {
 1000              		.loc 1 613 12 is_stmt 0 view .LVU304
 1001 0002 90F84540 		ldrb	r4, [r0, #69]	@ zero_extendqisi2
 1002 0006 E4B2     		uxtb	r4, r4
 613:Drivers/STM32H7xx_HAL_Driver/Src/stm32h7xx_hal_sram.c ****   {
 1003              		.loc 1 613 6 view .LVU305
 1004 0008 012C     		cmp	r4, #1
 1005 000a 19D1     		bne	.L69
 616:Drivers/STM32H7xx_HAL_Driver/Src/stm32h7xx_hal_sram.c **** 
 1006              		.loc 1 616 5 is_stmt 1 view .LVU306
 616:Drivers/STM32H7xx_HAL_Driver/Src/stm32h7xx_hal_sram.c **** 
 1007              		.loc 1 616 5 view .LVU307
 1008 000c 90F84440 		ldrb	r4, [r0, #68]	@ zero_extendqisi2
 1009 0010 012C     		cmp	r4, #1
 1010 0012 19D0     		beq	.L70
 616:Drivers/STM32H7xx_HAL_Driver/Src/stm32h7xx_hal_sram.c **** 
 1011              		.loc 1 616 5 discriminator 2 view .LVU308
 1012 0014 0124     		movs	r4, #1
 1013 0016 80F84440 		strb	r4, [r0, #68]
 616:Drivers/STM32H7xx_HAL_Driver/Src/stm32h7xx_hal_sram.c **** 
 1014              		.loc 1 616 5 discriminator 2 view .LVU309
 619:Drivers/STM32H7xx_HAL_Driver/Src/stm32h7xx_hal_sram.c **** 
 1015              		.loc 1 619 5 discriminator 2 view .LVU310
 619:Drivers/STM32H7xx_HAL_Driver/Src/stm32h7xx_hal_sram.c **** 
 1016              		.loc 1 619 18 is_stmt 0 discriminator 2 view .LVU311
 1017 001a 0224     		movs	r4, #2
 1018 001c 80F84540 		strb	r4, [r0, #69]
 622:Drivers/STM32H7xx_HAL_Driver/Src/stm32h7xx_hal_sram.c ****     {
 1019              		.loc 1 622 5 is_stmt 1 discriminator 2 view .LVU312
 1020              	.LVL94:
 622:Drivers/STM32H7xx_HAL_Driver/Src/stm32h7xx_hal_sram.c ****     {
 1021              		.loc 1 622 5 is_stmt 0 discriminator 2 view .LVU313
 1022 0020 04E0     		b	.L67
 1023              	.LVL95:
 1024              	.L68:
 624:Drivers/STM32H7xx_HAL_Driver/Src/stm32h7xx_hal_sram.c ****       psrcbuff++;
 1025              		.loc 1 624 7 is_stmt 1 discriminator 3 view .LVU314
 624:Drivers/STM32H7xx_HAL_Driver/Src/stm32h7xx_hal_sram.c ****       psrcbuff++;
 1026              		.loc 1 624 23 is_stmt 0 discriminator 3 view .LVU315
 1027 0022 52F8044B 		ldr	r4, [r2], #4
 1028              	.LVL96:
 624:Drivers/STM32H7xx_HAL_Driver/Src/stm32h7xx_hal_sram.c ****       psrcbuff++;
 1029              		.loc 1 624 21 discriminator 3 view .LVU316
 1030 0026 41F8044B 		str	r4, [r1], #4
 1031              	.LVL97:
 625:Drivers/STM32H7xx_HAL_Driver/Src/stm32h7xx_hal_sram.c ****       psramaddress++;
 1032              		.loc 1 625 7 is_stmt 1 discriminator 3 view .LVU317
ARM GAS  /tmp/ccc750si.s 			page 43


 626:Drivers/STM32H7xx_HAL_Driver/Src/stm32h7xx_hal_sram.c ****     }
 1033              		.loc 1 626 7 discriminator 3 view .LVU318
 622:Drivers/STM32H7xx_HAL_Driver/Src/stm32h7xx_hal_sram.c ****     {
 1034              		.loc 1 622 41 discriminator 3 view .LVU319
 622:Drivers/STM32H7xx_HAL_Driver/Src/stm32h7xx_hal_sram.c ****     {
 1035              		.loc 1 622 45 is_stmt 0 discriminator 3 view .LVU320
 1036 002a 013B     		subs	r3, r3, #1
 1037              	.LVL98:
 1038              	.L67:
 622:Drivers/STM32H7xx_HAL_Driver/Src/stm32h7xx_hal_sram.c ****     {
 1039              		.loc 1 622 29 is_stmt 1 discriminator 1 view .LVU321
 622:Drivers/STM32H7xx_HAL_Driver/Src/stm32h7xx_hal_sram.c ****     {
 1040              		.loc 1 622 5 is_stmt 0 discriminator 1 view .LVU322
 1041 002c 002B     		cmp	r3, #0
 1042 002e F8D1     		bne	.L68
 630:Drivers/STM32H7xx_HAL_Driver/Src/stm32h7xx_hal_sram.c **** 
 1043              		.loc 1 630 5 is_stmt 1 view .LVU323
 630:Drivers/STM32H7xx_HAL_Driver/Src/stm32h7xx_hal_sram.c **** 
 1044              		.loc 1 630 18 is_stmt 0 view .LVU324
 1045 0030 0123     		movs	r3, #1
 1046              	.LVL99:
 630:Drivers/STM32H7xx_HAL_Driver/Src/stm32h7xx_hal_sram.c **** 
 1047              		.loc 1 630 18 view .LVU325
 1048 0032 80F84530 		strb	r3, [r0, #69]
 633:Drivers/STM32H7xx_HAL_Driver/Src/stm32h7xx_hal_sram.c ****   }
 1049              		.loc 1 633 5 is_stmt 1 view .LVU326
 633:Drivers/STM32H7xx_HAL_Driver/Src/stm32h7xx_hal_sram.c ****   }
 1050              		.loc 1 633 5 view .LVU327
 1051 0036 0023     		movs	r3, #0
 1052 0038 80F84430 		strb	r3, [r0, #68]
 633:Drivers/STM32H7xx_HAL_Driver/Src/stm32h7xx_hal_sram.c ****   }
 1053              		.loc 1 633 5 view .LVU328
 640:Drivers/STM32H7xx_HAL_Driver/Src/stm32h7xx_hal_sram.c **** }
 1054              		.loc 1 640 3 view .LVU329
 640:Drivers/STM32H7xx_HAL_Driver/Src/stm32h7xx_hal_sram.c **** }
 1055              		.loc 1 640 10 is_stmt 0 view .LVU330
 1056 003c 1846     		mov	r0, r3
 1057              	.LVL100:
 640:Drivers/STM32H7xx_HAL_Driver/Src/stm32h7xx_hal_sram.c **** }
 1058              		.loc 1 640 10 view .LVU331
 1059 003e 00E0     		b	.L66
 1060              	.LVL101:
 1061              	.L69:
 637:Drivers/STM32H7xx_HAL_Driver/Src/stm32h7xx_hal_sram.c ****   }
 1062              		.loc 1 637 12 view .LVU332
 1063 0040 0120     		movs	r0, #1
 1064              	.LVL102:
 1065              	.L66:
 641:Drivers/STM32H7xx_HAL_Driver/Src/stm32h7xx_hal_sram.c **** 
 1066              		.loc 1 641 1 view .LVU333
 1067 0042 5DF8044B 		ldr	r4, [sp], #4
 1068              	.LCFI15:
 1069              		.cfi_remember_state
 1070              		.cfi_restore 4
 1071              		.cfi_def_cfa_offset 0
 1072 0046 7047     		bx	lr
 1073              	.LVL103:
ARM GAS  /tmp/ccc750si.s 			page 44


 1074              	.L70:
 1075              	.LCFI16:
 1076              		.cfi_restore_state
 616:Drivers/STM32H7xx_HAL_Driver/Src/stm32h7xx_hal_sram.c **** 
 1077              		.loc 1 616 5 view .LVU334
 1078 0048 0220     		movs	r0, #2
 1079              	.LVL104:
 616:Drivers/STM32H7xx_HAL_Driver/Src/stm32h7xx_hal_sram.c **** 
 1080              		.loc 1 616 5 view .LVU335
 1081 004a FAE7     		b	.L66
 1082              		.cfi_endproc
 1083              	.LFE155:
 1085              		.section	.text.HAL_SRAM_Read_DMA,"ax",%progbits
 1086              		.align	1
 1087              		.global	HAL_SRAM_Read_DMA
 1088              		.syntax unified
 1089              		.thumb
 1090              		.thumb_func
 1091              		.fpu fpv5-d16
 1093              	HAL_SRAM_Read_DMA:
 1094              	.LVL105:
 1095              	.LFB156:
 654:Drivers/STM32H7xx_HAL_Driver/Src/stm32h7xx_hal_sram.c ****   HAL_StatusTypeDef status;
 1096              		.loc 1 654 1 is_stmt 1 view -0
 1097              		.cfi_startproc
 1098              		@ args = 0, pretend = 0, frame = 0
 1099              		@ frame_needed = 0, uses_anonymous_args = 0
 654:Drivers/STM32H7xx_HAL_Driver/Src/stm32h7xx_hal_sram.c ****   HAL_StatusTypeDef status;
 1100              		.loc 1 654 1 is_stmt 0 view .LVU337
 1101 0000 30B5     		push	{r4, r5, lr}
 1102              	.LCFI17:
 1103              		.cfi_def_cfa_offset 12
 1104              		.cfi_offset 4, -12
 1105              		.cfi_offset 5, -8
 1106              		.cfi_offset 14, -4
 1107 0002 83B0     		sub	sp, sp, #12
 1108              	.LCFI18:
 1109              		.cfi_def_cfa_offset 24
 1110 0004 0446     		mov	r4, r0
 655:Drivers/STM32H7xx_HAL_Driver/Src/stm32h7xx_hal_sram.c ****   HAL_SRAM_StateTypeDef state = hsram->State;
 1111              		.loc 1 655 3 is_stmt 1 view .LVU338
 656:Drivers/STM32H7xx_HAL_Driver/Src/stm32h7xx_hal_sram.c **** 
 1112              		.loc 1 656 3 view .LVU339
 656:Drivers/STM32H7xx_HAL_Driver/Src/stm32h7xx_hal_sram.c **** 
 1113              		.loc 1 656 25 is_stmt 0 view .LVU340
 1114 0006 90F84500 		ldrb	r0, [r0, #69]	@ zero_extendqisi2
 1115              	.LVL106:
 656:Drivers/STM32H7xx_HAL_Driver/Src/stm32h7xx_hal_sram.c **** 
 1116              		.loc 1 656 25 view .LVU341
 1117 000a C0B2     		uxtb	r0, r0
 1118              	.LVL107:
 659:Drivers/STM32H7xx_HAL_Driver/Src/stm32h7xx_hal_sram.c ****   {
 1119              		.loc 1 659 3 is_stmt 1 view .LVU342
 659:Drivers/STM32H7xx_HAL_Driver/Src/stm32h7xx_hal_sram.c ****   {
 1120              		.loc 1 659 6 is_stmt 0 view .LVU343
 1121 000c 0428     		cmp	r0, #4
 1122 000e 18BF     		it	ne
ARM GAS  /tmp/ccc750si.s 			page 45


 1123 0010 0128     		cmpne	r0, #1
 1124 0012 20D1     		bne	.L76
 662:Drivers/STM32H7xx_HAL_Driver/Src/stm32h7xx_hal_sram.c **** 
 1125              		.loc 1 662 5 is_stmt 1 view .LVU344
 662:Drivers/STM32H7xx_HAL_Driver/Src/stm32h7xx_hal_sram.c **** 
 1126              		.loc 1 662 5 view .LVU345
 1127 0014 94F844C0 		ldrb	ip, [r4, #68]	@ zero_extendqisi2
 1128 0018 BCF1010F 		cmp	ip, #1
 1129 001c 1ED0     		beq	.L77
 662:Drivers/STM32H7xx_HAL_Driver/Src/stm32h7xx_hal_sram.c **** 
 1130              		.loc 1 662 5 discriminator 2 view .LVU346
 1131 001e 0125     		movs	r5, #1
 1132 0020 84F84450 		strb	r5, [r4, #68]
 662:Drivers/STM32H7xx_HAL_Driver/Src/stm32h7xx_hal_sram.c **** 
 1133              		.loc 1 662 5 discriminator 2 view .LVU347
 665:Drivers/STM32H7xx_HAL_Driver/Src/stm32h7xx_hal_sram.c **** 
 1134              		.loc 1 665 5 discriminator 2 view .LVU348
 665:Drivers/STM32H7xx_HAL_Driver/Src/stm32h7xx_hal_sram.c **** 
 1135              		.loc 1 665 18 is_stmt 0 discriminator 2 view .LVU349
 1136 0024 0225     		movs	r5, #2
 1137 0026 84F84550 		strb	r5, [r4, #69]
 668:Drivers/STM32H7xx_HAL_Driver/Src/stm32h7xx_hal_sram.c ****     {
 1138              		.loc 1 668 5 is_stmt 1 discriminator 2 view .LVU350
 668:Drivers/STM32H7xx_HAL_Driver/Src/stm32h7xx_hal_sram.c ****     {
 1139              		.loc 1 668 8 is_stmt 0 discriminator 2 view .LVU351
 1140 002a 0128     		cmp	r0, #1
 1141 002c 0FD0     		beq	.L79
 674:Drivers/STM32H7xx_HAL_Driver/Src/stm32h7xx_hal_sram.c ****     }
 1142              		.loc 1 674 7 is_stmt 1 view .LVU352
 674:Drivers/STM32H7xx_HAL_Driver/Src/stm32h7xx_hal_sram.c ****     }
 1143              		.loc 1 674 12 is_stmt 0 view .LVU353
 1144 002e A06C     		ldr	r0, [r4, #72]
 1145              	.LVL108:
 674:Drivers/STM32H7xx_HAL_Driver/Src/stm32h7xx_hal_sram.c ****     }
 1146              		.loc 1 674 38 view .LVU354
 1147 0030 0B4D     		ldr	r5, .L80
 1148 0032 4564     		str	r5, [r0, #68]
 1149              	.L75:
 676:Drivers/STM32H7xx_HAL_Driver/Src/stm32h7xx_hal_sram.c **** 
 1150              		.loc 1 676 5 is_stmt 1 view .LVU355
 676:Drivers/STM32H7xx_HAL_Driver/Src/stm32h7xx_hal_sram.c **** 
 1151              		.loc 1 676 10 is_stmt 0 view .LVU356
 1152 0034 A06C     		ldr	r0, [r4, #72]
 676:Drivers/STM32H7xx_HAL_Driver/Src/stm32h7xx_hal_sram.c **** 
 1153              		.loc 1 676 37 view .LVU357
 1154 0036 0B4D     		ldr	r5, .L80+4
 1155 0038 4565     		str	r5, [r0, #84]
 679:Drivers/STM32H7xx_HAL_Driver/Src/stm32h7xx_hal_sram.c **** 
 1156              		.loc 1 679 5 is_stmt 1 view .LVU358
 679:Drivers/STM32H7xx_HAL_Driver/Src/stm32h7xx_hal_sram.c **** 
 1157              		.loc 1 679 14 is_stmt 0 view .LVU359
 1158 003a 0120     		movs	r0, #1
 1159 003c 0090     		str	r0, [sp]
 1160 003e 9B00     		lsls	r3, r3, #2
 1161              	.LVL109:
 679:Drivers/STM32H7xx_HAL_Driver/Src/stm32h7xx_hal_sram.c **** 
 1162              		.loc 1 679 14 view .LVU360
ARM GAS  /tmp/ccc750si.s 			page 46


 1163 0040 A06C     		ldr	r0, [r4, #72]
 1164 0042 FFF7FEFF 		bl	HAL_MDMA_Start_IT
 1165              	.LVL110:
 682:Drivers/STM32H7xx_HAL_Driver/Src/stm32h7xx_hal_sram.c ****   }
 1166              		.loc 1 682 5 is_stmt 1 view .LVU361
 682:Drivers/STM32H7xx_HAL_Driver/Src/stm32h7xx_hal_sram.c ****   }
 1167              		.loc 1 682 5 view .LVU362
 1168 0046 0023     		movs	r3, #0
 1169 0048 84F84430 		strb	r3, [r4, #68]
 682:Drivers/STM32H7xx_HAL_Driver/Src/stm32h7xx_hal_sram.c ****   }
 1170              		.loc 1 682 5 view .LVU363
 1171 004c 04E0     		b	.L73
 1172              	.LVL111:
 1173              	.L79:
 670:Drivers/STM32H7xx_HAL_Driver/Src/stm32h7xx_hal_sram.c ****     }
 1174              		.loc 1 670 7 view .LVU364
 670:Drivers/STM32H7xx_HAL_Driver/Src/stm32h7xx_hal_sram.c ****     }
 1175              		.loc 1 670 12 is_stmt 0 view .LVU365
 1176 004e A06C     		ldr	r0, [r4, #72]
 1177              	.LVL112:
 670:Drivers/STM32H7xx_HAL_Driver/Src/stm32h7xx_hal_sram.c ****     }
 1178              		.loc 1 670 38 view .LVU366
 1179 0050 054D     		ldr	r5, .L80+8
 1180 0052 4564     		str	r5, [r0, #68]
 1181 0054 EEE7     		b	.L75
 1182              	.LVL113:
 1183              	.L76:
 686:Drivers/STM32H7xx_HAL_Driver/Src/stm32h7xx_hal_sram.c ****   }
 1184              		.loc 1 686 12 view .LVU367
 1185 0056 0120     		movs	r0, #1
 1186              	.LVL114:
 1187              	.L73:
 690:Drivers/STM32H7xx_HAL_Driver/Src/stm32h7xx_hal_sram.c **** 
 1188              		.loc 1 690 1 view .LVU368
 1189 0058 03B0     		add	sp, sp, #12
 1190              	.LCFI19:
 1191              		.cfi_remember_state
 1192              		.cfi_def_cfa_offset 12
 1193              		@ sp needed
 1194 005a 30BD     		pop	{r4, r5, pc}
 1195              	.LVL115:
 1196              	.L77:
 1197              	.LCFI20:
 1198              		.cfi_restore_state
 662:Drivers/STM32H7xx_HAL_Driver/Src/stm32h7xx_hal_sram.c **** 
 1199              		.loc 1 662 5 view .LVU369
 1200 005c 0220     		movs	r0, #2
 1201              	.LVL116:
 662:Drivers/STM32H7xx_HAL_Driver/Src/stm32h7xx_hal_sram.c **** 
 1202              		.loc 1 662 5 view .LVU370
 1203 005e FBE7     		b	.L73
 1204              	.L81:
 1205              		.align	2
 1206              	.L80:
 1207 0060 00000000 		.word	SRAM_DMACpltProt
 1208 0064 00000000 		.word	SRAM_DMAError
 1209 0068 00000000 		.word	SRAM_DMACplt
ARM GAS  /tmp/ccc750si.s 			page 47


 1210              		.cfi_endproc
 1211              	.LFE156:
 1213              		.section	.text.HAL_SRAM_Write_DMA,"ax",%progbits
 1214              		.align	1
 1215              		.global	HAL_SRAM_Write_DMA
 1216              		.syntax unified
 1217              		.thumb
 1218              		.thumb_func
 1219              		.fpu fpv5-d16
 1221              	HAL_SRAM_Write_DMA:
 1222              	.LVL117:
 1223              	.LFB157:
 703:Drivers/STM32H7xx_HAL_Driver/Src/stm32h7xx_hal_sram.c ****   HAL_StatusTypeDef status;
 1224              		.loc 1 703 1 is_stmt 1 view -0
 1225              		.cfi_startproc
 1226              		@ args = 0, pretend = 0, frame = 0
 1227              		@ frame_needed = 0, uses_anonymous_args = 0
 703:Drivers/STM32H7xx_HAL_Driver/Src/stm32h7xx_hal_sram.c ****   HAL_StatusTypeDef status;
 1228              		.loc 1 703 1 is_stmt 0 view .LVU372
 1229 0000 30B5     		push	{r4, r5, lr}
 1230              	.LCFI21:
 1231              		.cfi_def_cfa_offset 12
 1232              		.cfi_offset 4, -12
 1233              		.cfi_offset 5, -8
 1234              		.cfi_offset 14, -4
 1235 0002 83B0     		sub	sp, sp, #12
 1236              	.LCFI22:
 1237              		.cfi_def_cfa_offset 24
 1238 0004 0446     		mov	r4, r0
 704:Drivers/STM32H7xx_HAL_Driver/Src/stm32h7xx_hal_sram.c **** 
 1239              		.loc 1 704 3 is_stmt 1 view .LVU373
 707:Drivers/STM32H7xx_HAL_Driver/Src/stm32h7xx_hal_sram.c ****   {
 1240              		.loc 1 707 3 view .LVU374
 707:Drivers/STM32H7xx_HAL_Driver/Src/stm32h7xx_hal_sram.c ****   {
 1241              		.loc 1 707 12 is_stmt 0 view .LVU375
 1242 0006 90F84500 		ldrb	r0, [r0, #69]	@ zero_extendqisi2
 1243              	.LVL118:
 707:Drivers/STM32H7xx_HAL_Driver/Src/stm32h7xx_hal_sram.c ****   {
 1244              		.loc 1 707 12 view .LVU376
 1245 000a C0B2     		uxtb	r0, r0
 707:Drivers/STM32H7xx_HAL_Driver/Src/stm32h7xx_hal_sram.c ****   {
 1246              		.loc 1 707 6 view .LVU377
 1247 000c 0128     		cmp	r0, #1
 1248 000e 02D0     		beq	.L87
 727:Drivers/STM32H7xx_HAL_Driver/Src/stm32h7xx_hal_sram.c ****   }
 1249              		.loc 1 727 12 view .LVU378
 1250 0010 0120     		movs	r0, #1
 1251              	.LVL119:
 1252              	.L83:
 731:Drivers/STM32H7xx_HAL_Driver/Src/stm32h7xx_hal_sram.c **** 
 1253              		.loc 1 731 1 view .LVU379
 1254 0012 03B0     		add	sp, sp, #12
 1255              	.LCFI23:
 1256              		.cfi_remember_state
 1257              		.cfi_def_cfa_offset 12
 1258              		@ sp needed
 1259 0014 30BD     		pop	{r4, r5, pc}
ARM GAS  /tmp/ccc750si.s 			page 48


 1260              	.LVL120:
 1261              	.L87:
 1262              	.LCFI24:
 1263              		.cfi_restore_state
 731:Drivers/STM32H7xx_HAL_Driver/Src/stm32h7xx_hal_sram.c **** 
 1264              		.loc 1 731 1 view .LVU380
 1265 0016 8C46     		mov	ip, r1
 1266 0018 1146     		mov	r1, r2
 1267              	.LVL121:
 710:Drivers/STM32H7xx_HAL_Driver/Src/stm32h7xx_hal_sram.c **** 
 1268              		.loc 1 710 5 is_stmt 1 view .LVU381
 710:Drivers/STM32H7xx_HAL_Driver/Src/stm32h7xx_hal_sram.c **** 
 1269              		.loc 1 710 5 view .LVU382
 1270 001a 94F84420 		ldrb	r2, [r4, #68]	@ zero_extendqisi2
 1271              	.LVL122:
 710:Drivers/STM32H7xx_HAL_Driver/Src/stm32h7xx_hal_sram.c **** 
 1272              		.loc 1 710 5 is_stmt 0 view .LVU383
 1273 001e 012A     		cmp	r2, #1
 1274 0020 15D0     		beq	.L85
 710:Drivers/STM32H7xx_HAL_Driver/Src/stm32h7xx_hal_sram.c **** 
 1275              		.loc 1 710 5 is_stmt 1 discriminator 2 view .LVU384
 1276 0022 0122     		movs	r2, #1
 1277 0024 84F84420 		strb	r2, [r4, #68]
 710:Drivers/STM32H7xx_HAL_Driver/Src/stm32h7xx_hal_sram.c **** 
 1278              		.loc 1 710 5 discriminator 2 view .LVU385
 713:Drivers/STM32H7xx_HAL_Driver/Src/stm32h7xx_hal_sram.c **** 
 1279              		.loc 1 713 5 discriminator 2 view .LVU386
 713:Drivers/STM32H7xx_HAL_Driver/Src/stm32h7xx_hal_sram.c **** 
 1280              		.loc 1 713 18 is_stmt 0 discriminator 2 view .LVU387
 1281 0028 0220     		movs	r0, #2
 1282 002a 84F84500 		strb	r0, [r4, #69]
 716:Drivers/STM32H7xx_HAL_Driver/Src/stm32h7xx_hal_sram.c ****     hsram->hmdma->XferErrorCallback = SRAM_DMAError;
 1283              		.loc 1 716 5 is_stmt 1 discriminator 2 view .LVU388
 716:Drivers/STM32H7xx_HAL_Driver/Src/stm32h7xx_hal_sram.c ****     hsram->hmdma->XferErrorCallback = SRAM_DMAError;
 1284              		.loc 1 716 10 is_stmt 0 discriminator 2 view .LVU389
 1285 002e A06C     		ldr	r0, [r4, #72]
 716:Drivers/STM32H7xx_HAL_Driver/Src/stm32h7xx_hal_sram.c ****     hsram->hmdma->XferErrorCallback = SRAM_DMAError;
 1286              		.loc 1 716 36 discriminator 2 view .LVU390
 1287 0030 084D     		ldr	r5, .L88
 1288 0032 4564     		str	r5, [r0, #68]
 717:Drivers/STM32H7xx_HAL_Driver/Src/stm32h7xx_hal_sram.c **** 
 1289              		.loc 1 717 5 is_stmt 1 discriminator 2 view .LVU391
 717:Drivers/STM32H7xx_HAL_Driver/Src/stm32h7xx_hal_sram.c **** 
 1290              		.loc 1 717 10 is_stmt 0 discriminator 2 view .LVU392
 1291 0034 A06C     		ldr	r0, [r4, #72]
 717:Drivers/STM32H7xx_HAL_Driver/Src/stm32h7xx_hal_sram.c **** 
 1292              		.loc 1 717 37 discriminator 2 view .LVU393
 1293 0036 084D     		ldr	r5, .L88+4
 1294 0038 4565     		str	r5, [r0, #84]
 720:Drivers/STM32H7xx_HAL_Driver/Src/stm32h7xx_hal_sram.c **** 
 1295              		.loc 1 720 5 is_stmt 1 discriminator 2 view .LVU394
 720:Drivers/STM32H7xx_HAL_Driver/Src/stm32h7xx_hal_sram.c **** 
 1296              		.loc 1 720 14 is_stmt 0 discriminator 2 view .LVU395
 1297 003a 0092     		str	r2, [sp]
 1298 003c 9B00     		lsls	r3, r3, #2
 1299              	.LVL123:
 720:Drivers/STM32H7xx_HAL_Driver/Src/stm32h7xx_hal_sram.c **** 
ARM GAS  /tmp/ccc750si.s 			page 49


 1300              		.loc 1 720 14 discriminator 2 view .LVU396
 1301 003e 6246     		mov	r2, ip
 1302 0040 A06C     		ldr	r0, [r4, #72]
 1303 0042 FFF7FEFF 		bl	HAL_MDMA_Start_IT
 1304              	.LVL124:
 723:Drivers/STM32H7xx_HAL_Driver/Src/stm32h7xx_hal_sram.c ****   }
 1305              		.loc 1 723 5 is_stmt 1 discriminator 2 view .LVU397
 723:Drivers/STM32H7xx_HAL_Driver/Src/stm32h7xx_hal_sram.c ****   }
 1306              		.loc 1 723 5 discriminator 2 view .LVU398
 1307 0046 0023     		movs	r3, #0
 1308 0048 84F84430 		strb	r3, [r4, #68]
 723:Drivers/STM32H7xx_HAL_Driver/Src/stm32h7xx_hal_sram.c ****   }
 1309              		.loc 1 723 5 discriminator 2 view .LVU399
 1310 004c E1E7     		b	.L83
 1311              	.LVL125:
 1312              	.L85:
 710:Drivers/STM32H7xx_HAL_Driver/Src/stm32h7xx_hal_sram.c **** 
 1313              		.loc 1 710 5 is_stmt 0 view .LVU400
 1314 004e 0220     		movs	r0, #2
 1315 0050 DFE7     		b	.L83
 1316              	.L89:
 1317 0052 00BF     		.align	2
 1318              	.L88:
 1319 0054 00000000 		.word	SRAM_DMACplt
 1320 0058 00000000 		.word	SRAM_DMAError
 1321              		.cfi_endproc
 1322              	.LFE157:
 1324              		.section	.text.HAL_SRAM_WriteOperation_Enable,"ax",%progbits
 1325              		.align	1
 1326              		.global	HAL_SRAM_WriteOperation_Enable
 1327              		.syntax unified
 1328              		.thumb
 1329              		.thumb_func
 1330              		.fpu fpv5-d16
 1332              	HAL_SRAM_WriteOperation_Enable:
 1333              	.LVL126:
 1334              	.LFB158:
 937:Drivers/STM32H7xx_HAL_Driver/Src/stm32h7xx_hal_sram.c ****   /* Check the SRAM controller state */
 1335              		.loc 1 937 1 is_stmt 1 view -0
 1336              		.cfi_startproc
 1337              		@ args = 0, pretend = 0, frame = 0
 1338              		@ frame_needed = 0, uses_anonymous_args = 0
 937:Drivers/STM32H7xx_HAL_Driver/Src/stm32h7xx_hal_sram.c ****   /* Check the SRAM controller state */
 1339              		.loc 1 937 1 is_stmt 0 view .LVU402
 1340 0000 38B5     		push	{r3, r4, r5, lr}
 1341              	.LCFI25:
 1342              		.cfi_def_cfa_offset 16
 1343              		.cfi_offset 3, -16
 1344              		.cfi_offset 4, -12
 1345              		.cfi_offset 5, -8
 1346              		.cfi_offset 14, -4
 939:Drivers/STM32H7xx_HAL_Driver/Src/stm32h7xx_hal_sram.c ****   {
 1347              		.loc 1 939 3 is_stmt 1 view .LVU403
 939:Drivers/STM32H7xx_HAL_Driver/Src/stm32h7xx_hal_sram.c ****   {
 1348              		.loc 1 939 12 is_stmt 0 view .LVU404
 1349 0002 90F84530 		ldrb	r3, [r0, #69]	@ zero_extendqisi2
 1350 0006 DBB2     		uxtb	r3, r3
ARM GAS  /tmp/ccc750si.s 			page 50


 939:Drivers/STM32H7xx_HAL_Driver/Src/stm32h7xx_hal_sram.c ****   {
 1351              		.loc 1 939 6 view .LVU405
 1352 0008 042B     		cmp	r3, #4
 1353 000a 14D1     		bne	.L92
 1354 000c 0446     		mov	r4, r0
 942:Drivers/STM32H7xx_HAL_Driver/Src/stm32h7xx_hal_sram.c **** 
 1355              		.loc 1 942 5 is_stmt 1 view .LVU406
 942:Drivers/STM32H7xx_HAL_Driver/Src/stm32h7xx_hal_sram.c **** 
 1356              		.loc 1 942 5 view .LVU407
 1357 000e 90F84430 		ldrb	r3, [r0, #68]	@ zero_extendqisi2
 1358 0012 012B     		cmp	r3, #1
 1359 0014 11D0     		beq	.L93
 942:Drivers/STM32H7xx_HAL_Driver/Src/stm32h7xx_hal_sram.c **** 
 1360              		.loc 1 942 5 discriminator 2 view .LVU408
 1361 0016 0125     		movs	r5, #1
 1362 0018 80F84450 		strb	r5, [r0, #68]
 942:Drivers/STM32H7xx_HAL_Driver/Src/stm32h7xx_hal_sram.c **** 
 1363              		.loc 1 942 5 discriminator 2 view .LVU409
 945:Drivers/STM32H7xx_HAL_Driver/Src/stm32h7xx_hal_sram.c **** 
 1364              		.loc 1 945 5 discriminator 2 view .LVU410
 945:Drivers/STM32H7xx_HAL_Driver/Src/stm32h7xx_hal_sram.c **** 
 1365              		.loc 1 945 18 is_stmt 0 discriminator 2 view .LVU411
 1366 001c 0223     		movs	r3, #2
 1367 001e 80F84530 		strb	r3, [r0, #69]
 948:Drivers/STM32H7xx_HAL_Driver/Src/stm32h7xx_hal_sram.c **** 
 1368              		.loc 1 948 5 is_stmt 1 discriminator 2 view .LVU412
 948:Drivers/STM32H7xx_HAL_Driver/Src/stm32h7xx_hal_sram.c **** 
 1369              		.loc 1 948 11 is_stmt 0 discriminator 2 view .LVU413
 1370 0022 8168     		ldr	r1, [r0, #8]
 1371 0024 0068     		ldr	r0, [r0]
 1372              	.LVL127:
 948:Drivers/STM32H7xx_HAL_Driver/Src/stm32h7xx_hal_sram.c **** 
 1373              		.loc 1 948 11 discriminator 2 view .LVU414
 1374 0026 FFF7FEFF 		bl	FMC_NORSRAM_WriteOperation_Enable
 1375              	.LVL128:
 951:Drivers/STM32H7xx_HAL_Driver/Src/stm32h7xx_hal_sram.c **** 
 1376              		.loc 1 951 5 is_stmt 1 discriminator 2 view .LVU415
 951:Drivers/STM32H7xx_HAL_Driver/Src/stm32h7xx_hal_sram.c **** 
 1377              		.loc 1 951 18 is_stmt 0 discriminator 2 view .LVU416
 1378 002a 84F84550 		strb	r5, [r4, #69]
 954:Drivers/STM32H7xx_HAL_Driver/Src/stm32h7xx_hal_sram.c ****   }
 1379              		.loc 1 954 5 is_stmt 1 discriminator 2 view .LVU417
 954:Drivers/STM32H7xx_HAL_Driver/Src/stm32h7xx_hal_sram.c ****   }
 1380              		.loc 1 954 5 discriminator 2 view .LVU418
 1381 002e 0020     		movs	r0, #0
 1382 0030 84F84400 		strb	r0, [r4, #68]
 954:Drivers/STM32H7xx_HAL_Driver/Src/stm32h7xx_hal_sram.c ****   }
 1383              		.loc 1 954 5 discriminator 2 view .LVU419
 961:Drivers/STM32H7xx_HAL_Driver/Src/stm32h7xx_hal_sram.c **** }
 1384              		.loc 1 961 3 discriminator 2 view .LVU420
 961:Drivers/STM32H7xx_HAL_Driver/Src/stm32h7xx_hal_sram.c **** }
 1385              		.loc 1 961 10 is_stmt 0 discriminator 2 view .LVU421
 1386 0034 00E0     		b	.L91
 1387              	.LVL129:
 1388              	.L92:
 958:Drivers/STM32H7xx_HAL_Driver/Src/stm32h7xx_hal_sram.c ****   }
 1389              		.loc 1 958 12 view .LVU422
ARM GAS  /tmp/ccc750si.s 			page 51


 1390 0036 0120     		movs	r0, #1
 1391              	.LVL130:
 1392              	.L91:
 962:Drivers/STM32H7xx_HAL_Driver/Src/stm32h7xx_hal_sram.c **** 
 1393              		.loc 1 962 1 view .LVU423
 1394 0038 38BD     		pop	{r3, r4, r5, pc}
 1395              	.LVL131:
 1396              	.L93:
 942:Drivers/STM32H7xx_HAL_Driver/Src/stm32h7xx_hal_sram.c **** 
 1397              		.loc 1 942 5 view .LVU424
 1398 003a 0220     		movs	r0, #2
 1399              	.LVL132:
 942:Drivers/STM32H7xx_HAL_Driver/Src/stm32h7xx_hal_sram.c **** 
 1400              		.loc 1 942 5 view .LVU425
 1401 003c FCE7     		b	.L91
 1402              		.cfi_endproc
 1403              	.LFE158:
 1405              		.section	.text.HAL_SRAM_WriteOperation_Disable,"ax",%progbits
 1406              		.align	1
 1407              		.global	HAL_SRAM_WriteOperation_Disable
 1408              		.syntax unified
 1409              		.thumb
 1410              		.thumb_func
 1411              		.fpu fpv5-d16
 1413              	HAL_SRAM_WriteOperation_Disable:
 1414              	.LVL133:
 1415              	.LFB159:
 971:Drivers/STM32H7xx_HAL_Driver/Src/stm32h7xx_hal_sram.c ****   /* Check the SRAM controller state */
 1416              		.loc 1 971 1 is_stmt 1 view -0
 1417              		.cfi_startproc
 1418              		@ args = 0, pretend = 0, frame = 0
 1419              		@ frame_needed = 0, uses_anonymous_args = 0
 973:Drivers/STM32H7xx_HAL_Driver/Src/stm32h7xx_hal_sram.c ****   {
 1420              		.loc 1 973 3 view .LVU427
 973:Drivers/STM32H7xx_HAL_Driver/Src/stm32h7xx_hal_sram.c ****   {
 1421              		.loc 1 973 12 is_stmt 0 view .LVU428
 1422 0000 90F84530 		ldrb	r3, [r0, #69]	@ zero_extendqisi2
 1423 0004 DBB2     		uxtb	r3, r3
 973:Drivers/STM32H7xx_HAL_Driver/Src/stm32h7xx_hal_sram.c ****   {
 1424              		.loc 1 973 6 view .LVU429
 1425 0006 012B     		cmp	r3, #1
 1426 0008 16D1     		bne	.L97
 971:Drivers/STM32H7xx_HAL_Driver/Src/stm32h7xx_hal_sram.c ****   /* Check the SRAM controller state */
 1427              		.loc 1 971 1 view .LVU430
 1428 000a 10B5     		push	{r4, lr}
 1429              	.LCFI26:
 1430              		.cfi_def_cfa_offset 8
 1431              		.cfi_offset 4, -8
 1432              		.cfi_offset 14, -4
 1433 000c 0446     		mov	r4, r0
 976:Drivers/STM32H7xx_HAL_Driver/Src/stm32h7xx_hal_sram.c **** 
 1434              		.loc 1 976 5 is_stmt 1 view .LVU431
 976:Drivers/STM32H7xx_HAL_Driver/Src/stm32h7xx_hal_sram.c **** 
 1435              		.loc 1 976 5 view .LVU432
 1436 000e 90F84430 		ldrb	r3, [r0, #68]	@ zero_extendqisi2
 1437 0012 012B     		cmp	r3, #1
 1438 0014 12D0     		beq	.L98
ARM GAS  /tmp/ccc750si.s 			page 52


 976:Drivers/STM32H7xx_HAL_Driver/Src/stm32h7xx_hal_sram.c **** 
 1439              		.loc 1 976 5 discriminator 2 view .LVU433
 1440 0016 0123     		movs	r3, #1
 1441 0018 80F84430 		strb	r3, [r0, #68]
 976:Drivers/STM32H7xx_HAL_Driver/Src/stm32h7xx_hal_sram.c **** 
 1442              		.loc 1 976 5 discriminator 2 view .LVU434
 979:Drivers/STM32H7xx_HAL_Driver/Src/stm32h7xx_hal_sram.c **** 
 1443              		.loc 1 979 5 discriminator 2 view .LVU435
 979:Drivers/STM32H7xx_HAL_Driver/Src/stm32h7xx_hal_sram.c **** 
 1444              		.loc 1 979 18 is_stmt 0 discriminator 2 view .LVU436
 1445 001c 0223     		movs	r3, #2
 1446 001e 80F84530 		strb	r3, [r0, #69]
 982:Drivers/STM32H7xx_HAL_Driver/Src/stm32h7xx_hal_sram.c **** 
 1447              		.loc 1 982 5 is_stmt 1 discriminator 2 view .LVU437
 982:Drivers/STM32H7xx_HAL_Driver/Src/stm32h7xx_hal_sram.c **** 
 1448              		.loc 1 982 11 is_stmt 0 discriminator 2 view .LVU438
 1449 0022 8168     		ldr	r1, [r0, #8]
 1450 0024 0068     		ldr	r0, [r0]
 1451              	.LVL134:
 982:Drivers/STM32H7xx_HAL_Driver/Src/stm32h7xx_hal_sram.c **** 
 1452              		.loc 1 982 11 discriminator 2 view .LVU439
 1453 0026 FFF7FEFF 		bl	FMC_NORSRAM_WriteOperation_Disable
 1454              	.LVL135:
 985:Drivers/STM32H7xx_HAL_Driver/Src/stm32h7xx_hal_sram.c **** 
 1455              		.loc 1 985 5 is_stmt 1 discriminator 2 view .LVU440
 985:Drivers/STM32H7xx_HAL_Driver/Src/stm32h7xx_hal_sram.c **** 
 1456              		.loc 1 985 18 is_stmt 0 discriminator 2 view .LVU441
 1457 002a 0423     		movs	r3, #4
 1458 002c 84F84530 		strb	r3, [r4, #69]
 988:Drivers/STM32H7xx_HAL_Driver/Src/stm32h7xx_hal_sram.c ****   }
 1459              		.loc 1 988 5 is_stmt 1 discriminator 2 view .LVU442
 988:Drivers/STM32H7xx_HAL_Driver/Src/stm32h7xx_hal_sram.c ****   }
 1460              		.loc 1 988 5 discriminator 2 view .LVU443
 1461 0030 0020     		movs	r0, #0
 1462 0032 84F84400 		strb	r0, [r4, #68]
 988:Drivers/STM32H7xx_HAL_Driver/Src/stm32h7xx_hal_sram.c ****   }
 1463              		.loc 1 988 5 discriminator 2 view .LVU444
 995:Drivers/STM32H7xx_HAL_Driver/Src/stm32h7xx_hal_sram.c **** }
 1464              		.loc 1 995 3 discriminator 2 view .LVU445
 1465              	.L96:
 996:Drivers/STM32H7xx_HAL_Driver/Src/stm32h7xx_hal_sram.c **** 
 1466              		.loc 1 996 1 is_stmt 0 view .LVU446
 1467 0036 10BD     		pop	{r4, pc}
 1468              	.LVL136:
 1469              	.L97:
 1470              	.LCFI27:
 1471              		.cfi_def_cfa_offset 0
 1472              		.cfi_restore 4
 1473              		.cfi_restore 14
 992:Drivers/STM32H7xx_HAL_Driver/Src/stm32h7xx_hal_sram.c ****   }
 1474              		.loc 1 992 12 view .LVU447
 1475 0038 0120     		movs	r0, #1
 1476              	.LVL137:
 996:Drivers/STM32H7xx_HAL_Driver/Src/stm32h7xx_hal_sram.c **** 
 1477              		.loc 1 996 1 view .LVU448
 1478 003a 7047     		bx	lr
 1479              	.LVL138:
ARM GAS  /tmp/ccc750si.s 			page 53


 1480              	.L98:
 1481              	.LCFI28:
 1482              		.cfi_def_cfa_offset 8
 1483              		.cfi_offset 4, -8
 1484              		.cfi_offset 14, -4
 976:Drivers/STM32H7xx_HAL_Driver/Src/stm32h7xx_hal_sram.c **** 
 1485              		.loc 1 976 5 view .LVU449
 1486 003c 0220     		movs	r0, #2
 1487              	.LVL139:
 976:Drivers/STM32H7xx_HAL_Driver/Src/stm32h7xx_hal_sram.c **** 
 1488              		.loc 1 976 5 view .LVU450
 1489 003e FAE7     		b	.L96
 1490              		.cfi_endproc
 1491              	.LFE159:
 1493              		.section	.text.HAL_SRAM_GetState,"ax",%progbits
 1494              		.align	1
 1495              		.global	HAL_SRAM_GetState
 1496              		.syntax unified
 1497              		.thumb
 1498              		.thumb_func
 1499              		.fpu fpv5-d16
 1501              	HAL_SRAM_GetState:
 1502              	.LVL140:
 1503              	.LFB160:
1024:Drivers/STM32H7xx_HAL_Driver/Src/stm32h7xx_hal_sram.c ****   return hsram->State;
 1504              		.loc 1 1024 1 is_stmt 1 view -0
 1505              		.cfi_startproc
 1506              		@ args = 0, pretend = 0, frame = 0
 1507              		@ frame_needed = 0, uses_anonymous_args = 0
 1508              		@ link register save eliminated.
1025:Drivers/STM32H7xx_HAL_Driver/Src/stm32h7xx_hal_sram.c **** }
 1509              		.loc 1 1025 3 view .LVU452
1025:Drivers/STM32H7xx_HAL_Driver/Src/stm32h7xx_hal_sram.c **** }
 1510              		.loc 1 1025 15 is_stmt 0 view .LVU453
 1511 0000 90F84500 		ldrb	r0, [r0, #69]	@ zero_extendqisi2
 1512              	.LVL141:
1026:Drivers/STM32H7xx_HAL_Driver/Src/stm32h7xx_hal_sram.c **** 
 1513              		.loc 1 1026 1 view .LVU454
 1514 0004 7047     		bx	lr
 1515              		.cfi_endproc
 1516              	.LFE160:
 1518              		.text
 1519              	.Letext0:
 1520              		.file 2 "/home/akinya/gcc-arm-none-eabi/arm-none-eabi/include/machine/_default_types.h"
 1521              		.file 3 "/home/akinya/gcc-arm-none-eabi/arm-none-eabi/include/sys/_stdint.h"
 1522              		.file 4 "Drivers/CMSIS/Device/ST/STM32H7xx/Include/stm32h743xx.h"
 1523              		.file 5 "Drivers/STM32H7xx_HAL_Driver/Inc/stm32h7xx_hal_def.h"
 1524              		.file 6 "Drivers/STM32H7xx_HAL_Driver/Inc/stm32h7xx_hal_mdma.h"
 1525              		.file 7 "Drivers/STM32H7xx_HAL_Driver/Inc/stm32h7xx_ll_fmc.h"
 1526              		.file 8 "Drivers/STM32H7xx_HAL_Driver/Inc/stm32h7xx_hal_sram.h"
ARM GAS  /tmp/ccc750si.s 			page 54

