ARM GAS  /tmp/ccG8QyXt.s 			page 1


   1              		.cpu cortex-m3
   2              		.eabi_attribute 20, 1
   3              		.eabi_attribute 21, 1
   4              		.eabi_attribute 23, 3
   5              		.eabi_attribute 24, 1
   6              		.eabi_attribute 25, 1
   7              		.eabi_attribute 26, 1
   8              		.eabi_attribute 30, 1
   9              		.eabi_attribute 34, 1
  10              		.eabi_attribute 18, 4
  11              		.file	"sk6812.c"
  12              		.text
  13              	.Ltext0:
  14              		.cfi_sections	.debug_frame
  15              		.section	.text.Delay_us,"ax",%progbits
  16              		.align	1
  17              		.global	Delay_us
  18              		.arch armv7-m
  19              		.syntax unified
  20              		.thumb
  21              		.thumb_func
  22              		.fpu softvfp
  24              	Delay_us:
  25              	.LVL0:
  26              	.LFB65:
  27              		.file 1 "Core/Src/sk6812.c"
   1:Core/Src/sk6812.c **** #include <math.h>
   2:Core/Src/sk6812.c **** #include "main.h"
   3:Core/Src/sk6812.c **** #include "tim.h"
   4:Core/Src/sk6812.c **** #include "sk6812.h"
   5:Core/Src/sk6812.c **** 
   6:Core/Src/sk6812.c **** 
   7:Core/Src/sk6812.c **** uint16_t send_Buf[NUM];
   8:Core/Src/sk6812.c **** 
   9:Core/Src/sk6812.c **** void Delay_us(uint32_t t) {
  28              		.loc 1 9 27 view -0
  29              		.cfi_startproc
  30              		@ args = 0, pretend = 0, frame = 0
  31              		@ frame_needed = 0, uses_anonymous_args = 0
  32              		.loc 1 9 27 is_stmt 0 view .LVU1
  33 0000 10B5     		push	{r4, lr}
  34              	.LCFI0:
  35              		.cfi_def_cfa_offset 8
  36              		.cfi_offset 4, -8
  37              		.cfi_offset 14, -4
  38 0002 0446     		mov	r4, r0
  10:Core/Src/sk6812.c ****     HAL_SYSTICK_Config(HAL_RCC_GetHCLKFreq() / 1000000);
  39              		.loc 1 10 5 is_stmt 1 view .LVU2
  40              		.loc 1 10 24 is_stmt 0 view .LVU3
  41 0004 FFF7FEFF 		bl	HAL_RCC_GetHCLKFreq
  42              	.LVL1:
  43              		.loc 1 10 5 view .LVU4
  44 0008 084B     		ldr	r3, .L3
  45 000a A3FB0030 		umull	r3, r0, r3, r0
  46 000e 800C     		lsrs	r0, r0, #18
  47 0010 FFF7FEFF 		bl	HAL_SYSTICK_Config
  48              	.LVL2:
ARM GAS  /tmp/ccG8QyXt.s 			page 2


  11:Core/Src/sk6812.c ****     HAL_Delay(t - 1);
  49              		.loc 1 11 5 is_stmt 1 view .LVU5
  50 0014 601E     		subs	r0, r4, #1
  51 0016 FFF7FEFF 		bl	HAL_Delay
  52              	.LVL3:
  12:Core/Src/sk6812.c ****     HAL_SYSTICK_Config(HAL_RCC_GetHCLKFreq() / 1000);
  53              		.loc 1 12 5 view .LVU6
  54              		.loc 1 12 24 is_stmt 0 view .LVU7
  55 001a FFF7FEFF 		bl	HAL_RCC_GetHCLKFreq
  56              	.LVL4:
  57              		.loc 1 12 5 view .LVU8
  58 001e 044B     		ldr	r3, .L3+4
  59 0020 A3FB0030 		umull	r3, r0, r3, r0
  60 0024 8009     		lsrs	r0, r0, #6
  61 0026 FFF7FEFF 		bl	HAL_SYSTICK_Config
  62              	.LVL5:
  13:Core/Src/sk6812.c **** }
  63              		.loc 1 13 1 view .LVU9
  64 002a 10BD     		pop	{r4, pc}
  65              	.LVL6:
  66              	.L4:
  67              		.loc 1 13 1 view .LVU10
  68              		.align	2
  69              	.L3:
  70 002c 83DE1B43 		.word	1125899907
  71 0030 D34D6210 		.word	274877907
  72              		.cfi_endproc
  73              	.LFE65:
  75              		.section	.text.SK_Load,"ax",%progbits
  76              		.align	1
  77              		.global	SK_Load
  78              		.syntax unified
  79              		.thumb
  80              		.thumb_func
  81              		.fpu softvfp
  83              	SK_Load:
  84              	.LFB66:
  14:Core/Src/sk6812.c **** 
  15:Core/Src/sk6812.c **** void SK_Load(void)
  16:Core/Src/sk6812.c **** {
  85              		.loc 1 16 1 is_stmt 1 view -0
  86              		.cfi_startproc
  87              		@ args = 0, pretend = 0, frame = 0
  88              		@ frame_needed = 0, uses_anonymous_args = 0
  89 0000 08B5     		push	{r3, lr}
  90              	.LCFI1:
  91              		.cfi_def_cfa_offset 8
  92              		.cfi_offset 3, -8
  93              		.cfi_offset 14, -4
  17:Core/Src/sk6812.c **** 	HAL_TIM_PWM_Start_DMA(&htim2, TIM_CHANNEL_1, (uint32_t *)send_Buf, NUM);
  94              		.loc 1 17 2 view .LVU12
  95 0002 40F22623 		movw	r3, #550
  96 0006 034A     		ldr	r2, .L7
  97 0008 0021     		movs	r1, #0
  98 000a 0348     		ldr	r0, .L7+4
  99 000c FFF7FEFF 		bl	HAL_TIM_PWM_Start_DMA
 100              	.LVL7:
ARM GAS  /tmp/ccG8QyXt.s 			page 3


  18:Core/Src/sk6812.c **** }
 101              		.loc 1 18 1 is_stmt 0 view .LVU13
 102 0010 08BD     		pop	{r3, pc}
 103              	.L8:
 104 0012 00BF     		.align	2
 105              	.L7:
 106 0014 00000000 		.word	.LANCHOR0
 107 0018 00000000 		.word	htim2
 108              		.cfi_endproc
 109              	.LFE66:
 111              		.section	.text.SK_CloseAll,"ax",%progbits
 112              		.align	1
 113              		.global	SK_CloseAll
 114              		.syntax unified
 115              		.thumb
 116              		.thumb_func
 117              		.fpu softvfp
 119              	SK_CloseAll:
 120              	.LFB67:
  19:Core/Src/sk6812.c **** 
  20:Core/Src/sk6812.c **** 
  21:Core/Src/sk6812.c **** void SK_CloseAll(void)
  22:Core/Src/sk6812.c **** {
 121              		.loc 1 22 1 is_stmt 1 view -0
 122              		.cfi_startproc
 123              		@ args = 0, pretend = 0, frame = 0
 124              		@ frame_needed = 0, uses_anonymous_args = 0
 125 0000 08B5     		push	{r3, lr}
 126              	.LCFI2:
 127              		.cfi_def_cfa_offset 8
 128              		.cfi_offset 3, -8
 129              		.cfi_offset 14, -4
  23:Core/Src/sk6812.c **** 	uint16_t i;
 130              		.loc 1 23 2 view .LVU15
  24:Core/Src/sk6812.c **** 	for (i = 0; i < PIXEL_NUM * 24; i++)
 131              		.loc 1 24 2 view .LVU16
 132              	.LVL8:
 133              		.loc 1 24 9 is_stmt 0 view .LVU17
 134 0002 0023     		movs	r3, #0
 135              		.loc 1 24 2 view .LVU18
 136 0004 05E0     		b	.L10
 137              	.LVL9:
 138              	.L11:
  25:Core/Src/sk6812.c **** 		send_Buf[i] = WS0; // 写入逻辑0的占空比
 139              		.loc 1 25 3 is_stmt 1 discriminator 3 view .LVU19
 140              		.loc 1 25 15 is_stmt 0 discriminator 3 view .LVU20
 141 0006 0C4A     		ldr	r2, .L15
 142 0008 0121     		movs	r1, #1
 143 000a 22F81310 		strh	r1, [r2, r3, lsl #1]	@ movhi
  24:Core/Src/sk6812.c **** 	for (i = 0; i < PIXEL_NUM * 24; i++)
 144              		.loc 1 24 34 is_stmt 1 discriminator 3 view .LVU21
  24:Core/Src/sk6812.c **** 	for (i = 0; i < PIXEL_NUM * 24; i++)
 145              		.loc 1 24 35 is_stmt 0 discriminator 3 view .LVU22
 146 000e 0B44     		add	r3, r3, r1
 147              	.LVL10:
  24:Core/Src/sk6812.c **** 	for (i = 0; i < PIXEL_NUM * 24; i++)
 148              		.loc 1 24 35 discriminator 3 view .LVU23
ARM GAS  /tmp/ccG8QyXt.s 			page 4


 149 0010 9BB2     		uxth	r3, r3
 150              	.LVL11:
 151              	.L10:
  24:Core/Src/sk6812.c **** 	for (i = 0; i < PIXEL_NUM * 24; i++)
 152              		.loc 1 24 14 is_stmt 1 discriminator 1 view .LVU24
  24:Core/Src/sk6812.c **** 	for (i = 0; i < PIXEL_NUM * 24; i++)
 153              		.loc 1 24 2 is_stmt 0 discriminator 1 view .LVU25
 154 0012 B3F5F07F 		cmp	r3, #480
 155 0016 F6D3     		bcc	.L11
  26:Core/Src/sk6812.c **** 	for (i = PIXEL_NUM * 24; i < NUM; i++)
 156              		.loc 1 26 9 view .LVU26
 157 0018 4FF4F073 		mov	r3, #480
 158              	.LVL12:
 159              		.loc 1 26 9 view .LVU27
 160 001c 05E0     		b	.L12
 161              	.LVL13:
 162              	.L13:
  27:Core/Src/sk6812.c **** 		send_Buf[i] = 0; // 占空比比为0，全为低电平
 163              		.loc 1 27 3 is_stmt 1 discriminator 3 view .LVU28
 164              		.loc 1 27 15 is_stmt 0 discriminator 3 view .LVU29
 165 001e 064A     		ldr	r2, .L15
 166 0020 0021     		movs	r1, #0
 167 0022 22F81310 		strh	r1, [r2, r3, lsl #1]	@ movhi
  26:Core/Src/sk6812.c **** 	for (i = PIXEL_NUM * 24; i < NUM; i++)
 168              		.loc 1 26 36 is_stmt 1 discriminator 3 view .LVU30
  26:Core/Src/sk6812.c **** 	for (i = PIXEL_NUM * 24; i < NUM; i++)
 169              		.loc 1 26 37 is_stmt 0 discriminator 3 view .LVU31
 170 0026 0133     		adds	r3, r3, #1
 171              	.LVL14:
  26:Core/Src/sk6812.c **** 	for (i = PIXEL_NUM * 24; i < NUM; i++)
 172              		.loc 1 26 37 discriminator 3 view .LVU32
 173 0028 9BB2     		uxth	r3, r3
 174              	.LVL15:
 175              	.L12:
  26:Core/Src/sk6812.c **** 	for (i = PIXEL_NUM * 24; i < NUM; i++)
 176              		.loc 1 26 27 is_stmt 1 discriminator 1 view .LVU33
  26:Core/Src/sk6812.c **** 	for (i = PIXEL_NUM * 24; i < NUM; i++)
 177              		.loc 1 26 2 is_stmt 0 discriminator 1 view .LVU34
 178 002a 40F22522 		movw	r2, #549
 179 002e 9342     		cmp	r3, r2
 180 0030 F5D9     		bls	.L13
  28:Core/Src/sk6812.c **** 	SK_Load();
 181              		.loc 1 28 2 is_stmt 1 view .LVU35
 182 0032 FFF7FEFF 		bl	SK_Load
 183              	.LVL16:
  29:Core/Src/sk6812.c **** }
 184              		.loc 1 29 1 is_stmt 0 view .LVU36
 185 0036 08BD     		pop	{r3, pc}
 186              	.L16:
 187              		.align	2
 188              	.L15:
 189 0038 00000000 		.word	.LANCHOR0
 190              		.cfi_endproc
 191              	.LFE67:
 193              		.section	.text.SK_ReturnColor,"ax",%progbits
 194              		.align	1
 195              		.global	SK_ReturnColor
ARM GAS  /tmp/ccG8QyXt.s 			page 5


 196              		.syntax unified
 197              		.thumb
 198              		.thumb_func
 199              		.fpu softvfp
 201              	SK_ReturnColor:
 202              	.LVL17:
 203              	.LFB68:
  30:Core/Src/sk6812.c **** void SK_ReturnColor(uint8_t red,uint8_t green,uint8_t blue,uint8_t * data){
 204              		.loc 1 30 75 is_stmt 1 view -0
 205              		.cfi_startproc
 206              		@ args = 0, pretend = 0, frame = 0
 207              		@ frame_needed = 0, uses_anonymous_args = 0
 208              		.loc 1 30 75 is_stmt 0 view .LVU38
 209 0000 00B5     		push	{lr}
 210              	.LCFI3:
 211              		.cfi_def_cfa_offset 4
 212              		.cfi_offset 14, -4
  31:Core/Src/sk6812.c **** 	uint16_t i;
 213              		.loc 1 31 2 is_stmt 1 view .LVU39
  32:Core/Src/sk6812.c **** 	for (i = 0; i < 8; i++)
 214              		.loc 1 32 2 view .LVU40
 215              	.LVL18:
 216              		.loc 1 32 9 is_stmt 0 view .LVU41
 217 0002 4FF0000C 		mov	ip, #0
 218              		.loc 1 32 2 view .LVU42
 219 0006 09E0     		b	.L18
 220              	.LVL19:
 221              	.L32:
  33:Core/Src/sk6812.c **** 	{
  34:Core/Src/sk6812.c **** 		data[i] = ((green & 0x80) ? WS1 : WS0);
 222              		.loc 1 34 11 view .LVU43
 223 0008 4FF0040E 		mov	lr, #4
 224              	.L19:
 225              		.loc 1 34 11 discriminator 4 view .LVU44
 226 000c 03F80CE0 		strb	lr, [r3, ip]
  35:Core/Src/sk6812.c **** 		green <<= 1;
 227              		.loc 1 35 3 is_stmt 1 discriminator 4 view .LVU45
 228              		.loc 1 35 9 is_stmt 0 discriminator 4 view .LVU46
 229 0010 4900     		lsls	r1, r1, #1
 230              	.LVL20:
 231              		.loc 1 35 9 discriminator 4 view .LVU47
 232 0012 C9B2     		uxtb	r1, r1
 233              	.LVL21:
  32:Core/Src/sk6812.c **** 	for (i = 0; i < 8; i++)
 234              		.loc 1 32 21 is_stmt 1 discriminator 4 view .LVU48
  32:Core/Src/sk6812.c **** 	for (i = 0; i < 8; i++)
 235              		.loc 1 32 22 is_stmt 0 discriminator 4 view .LVU49
 236 0014 0CF1010C 		add	ip, ip, #1
 237              	.LVL22:
  32:Core/Src/sk6812.c **** 	for (i = 0; i < 8; i++)
 238              		.loc 1 32 22 discriminator 4 view .LVU50
 239 0018 1FFA8CFC 		uxth	ip, ip
 240              	.LVL23:
 241              	.L18:
  32:Core/Src/sk6812.c **** 	for (i = 0; i < 8; i++)
 242              		.loc 1 32 14 is_stmt 1 discriminator 2 view .LVU51
  32:Core/Src/sk6812.c **** 	for (i = 0; i < 8; i++)
ARM GAS  /tmp/ccG8QyXt.s 			page 6


 243              		.loc 1 32 2 is_stmt 0 discriminator 2 view .LVU52
 244 001c BCF1070F 		cmp	ip, #7
 245 0020 05D8     		bhi	.L31
  34:Core/Src/sk6812.c **** 		green <<= 1;
 246              		.loc 1 34 3 is_stmt 1 view .LVU53
  34:Core/Src/sk6812.c **** 		green <<= 1;
 247              		.loc 1 34 11 is_stmt 0 view .LVU54
 248 0022 11F0800F 		tst	r1, #128
 249 0026 EFD1     		bne	.L32
 250 0028 4FF0010E 		mov	lr, #1
 251 002c EEE7     		b	.L19
 252              	.L31:
  36:Core/Src/sk6812.c **** 	}
  37:Core/Src/sk6812.c ****     for (i = 0; i < 8; i++)
 253              		.loc 1 37 12 view .LVU55
 254 002e 0021     		movs	r1, #0
 255              	.LVL24:
 256              		.loc 1 37 12 view .LVU56
 257 0030 09E0     		b	.L21
 258              	.LVL25:
 259              	.L34:
  38:Core/Src/sk6812.c **** 	{
  39:Core/Src/sk6812.c **** 		data[i+8] = ((red & 0x80) ? WS1 : WS0);
 260              		.loc 1 39 13 view .LVU57
 261 0032 4FF0040E 		mov	lr, #4
 262              	.L22:
 263              		.loc 1 39 7 discriminator 4 view .LVU58
 264 0036 01F1080C 		add	ip, r1, #8
 265              		.loc 1 39 13 discriminator 4 view .LVU59
 266 003a 03F80CE0 		strb	lr, [r3, ip]
  40:Core/Src/sk6812.c **** 		red <<= 1;
 267              		.loc 1 40 3 is_stmt 1 discriminator 4 view .LVU60
 268              		.loc 1 40 7 is_stmt 0 discriminator 4 view .LVU61
 269 003e 4000     		lsls	r0, r0, #1
 270              	.LVL26:
 271              		.loc 1 40 7 discriminator 4 view .LVU62
 272 0040 C0B2     		uxtb	r0, r0
 273              	.LVL27:
  37:Core/Src/sk6812.c **** 	{
 274              		.loc 1 37 24 is_stmt 1 discriminator 4 view .LVU63
  37:Core/Src/sk6812.c **** 	{
 275              		.loc 1 37 25 is_stmt 0 discriminator 4 view .LVU64
 276 0042 0131     		adds	r1, r1, #1
 277              	.LVL28:
  37:Core/Src/sk6812.c **** 	{
 278              		.loc 1 37 25 discriminator 4 view .LVU65
 279 0044 89B2     		uxth	r1, r1
 280              	.LVL29:
 281              	.L21:
  37:Core/Src/sk6812.c **** 	{
 282              		.loc 1 37 17 is_stmt 1 discriminator 2 view .LVU66
  37:Core/Src/sk6812.c **** 	{
 283              		.loc 1 37 5 is_stmt 0 discriminator 2 view .LVU67
 284 0046 0729     		cmp	r1, #7
 285 0048 05D8     		bhi	.L33
  39:Core/Src/sk6812.c **** 		red <<= 1;
 286              		.loc 1 39 3 is_stmt 1 view .LVU68
ARM GAS  /tmp/ccG8QyXt.s 			page 7


  39:Core/Src/sk6812.c **** 		red <<= 1;
 287              		.loc 1 39 13 is_stmt 0 view .LVU69
 288 004a 10F0800F 		tst	r0, #128
 289 004e F0D1     		bne	.L34
 290 0050 4FF0010E 		mov	lr, #1
 291 0054 EFE7     		b	.L22
 292              	.L33:
  41:Core/Src/sk6812.c **** 	}
  42:Core/Src/sk6812.c ****     for (i = 0; i < 8; i++)
 293              		.loc 1 42 12 view .LVU70
 294 0056 0021     		movs	r1, #0
 295              	.LVL30:
 296              		.loc 1 42 12 view .LVU71
 297 0058 09E0     		b	.L24
 298              	.LVL31:
 299              	.L36:
  43:Core/Src/sk6812.c **** 	{
  44:Core/Src/sk6812.c **** 		data[i+16] = ((blue & 0x80) ? WS1 : WS0);
 300              		.loc 1 44 14 view .LVU72
 301 005a 4FF0040C 		mov	ip, #4
 302              	.L25:
 303              		.loc 1 44 7 discriminator 4 view .LVU73
 304 005e 01F11000 		add	r0, r1, #16
 305              		.loc 1 44 14 discriminator 4 view .LVU74
 306 0062 03F800C0 		strb	ip, [r3, r0]
  45:Core/Src/sk6812.c **** 		blue <<= 1;
 307              		.loc 1 45 3 is_stmt 1 discriminator 4 view .LVU75
 308              		.loc 1 45 8 is_stmt 0 discriminator 4 view .LVU76
 309 0066 5200     		lsls	r2, r2, #1
 310              	.LVL32:
 311              		.loc 1 45 8 discriminator 4 view .LVU77
 312 0068 D2B2     		uxtb	r2, r2
 313              	.LVL33:
  42:Core/Src/sk6812.c **** 	{
 314              		.loc 1 42 24 is_stmt 1 discriminator 4 view .LVU78
  42:Core/Src/sk6812.c **** 	{
 315              		.loc 1 42 25 is_stmt 0 discriminator 4 view .LVU79
 316 006a 0131     		adds	r1, r1, #1
 317              	.LVL34:
  42:Core/Src/sk6812.c **** 	{
 318              		.loc 1 42 25 discriminator 4 view .LVU80
 319 006c 89B2     		uxth	r1, r1
 320              	.LVL35:
 321              	.L24:
  42:Core/Src/sk6812.c **** 	{
 322              		.loc 1 42 17 is_stmt 1 discriminator 2 view .LVU81
  42:Core/Src/sk6812.c **** 	{
 323              		.loc 1 42 5 is_stmt 0 discriminator 2 view .LVU82
 324 006e 0729     		cmp	r1, #7
 325 0070 05D8     		bhi	.L35
  44:Core/Src/sk6812.c **** 		blue <<= 1;
 326              		.loc 1 44 3 is_stmt 1 view .LVU83
  44:Core/Src/sk6812.c **** 		blue <<= 1;
 327              		.loc 1 44 14 is_stmt 0 view .LVU84
 328 0072 12F0800F 		tst	r2, #128
 329 0076 F0D1     		bne	.L36
 330 0078 4FF0010C 		mov	ip, #1
ARM GAS  /tmp/ccG8QyXt.s 			page 8


 331 007c EFE7     		b	.L25
 332              	.L35:
  46:Core/Src/sk6812.c **** 	}
  47:Core/Src/sk6812.c **** 
  48:Core/Src/sk6812.c **** }
 333              		.loc 1 48 1 view .LVU85
 334 007e 5DF804FB 		ldr	pc, [sp], #4
 335              		.cfi_endproc
 336              	.LFE68:
 338              		.section	.text.SK_WriteAll_RGB,"ax",%progbits
 339              		.align	1
 340              		.global	SK_WriteAll_RGB
 341              		.syntax unified
 342              		.thumb
 343              		.thumb_func
 344              		.fpu softvfp
 346              	SK_WriteAll_RGB:
 347              	.LVL36:
 348              	.LFB69:
  49:Core/Src/sk6812.c **** void SK_WriteAll_RGB(uint8_t red,uint8_t green,uint8_t blue)
  50:Core/Src/sk6812.c **** {
 349              		.loc 1 50 1 is_stmt 1 view -0
 350              		.cfi_startproc
 351              		@ args = 0, pretend = 0, frame = 24
 352              		@ frame_needed = 0, uses_anonymous_args = 0
 353              		.loc 1 50 1 is_stmt 0 view .LVU87
 354 0000 00B5     		push	{lr}
 355              	.LCFI4:
 356              		.cfi_def_cfa_offset 4
 357              		.cfi_offset 14, -4
 358 0002 87B0     		sub	sp, sp, #28
 359              	.LCFI5:
 360              		.cfi_def_cfa_offset 32
  51:Core/Src/sk6812.c **** 	//HAL_TIM_PWM_Stop_DMA(&htim2, TIM_CHANNEL_1);
  52:Core/Src/sk6812.c ****     uint16_t i,j;
 361              		.loc 1 52 5 is_stmt 1 view .LVU88
  53:Core/Src/sk6812.c **** 	uint8_t dat[24];
 362              		.loc 1 53 2 view .LVU89
  54:Core/Src/sk6812.c ****     SK_ReturnColor(red,green,blue,dat);
 363              		.loc 1 54 5 view .LVU90
 364 0004 6B46     		mov	r3, sp
 365 0006 FFF7FEFF 		bl	SK_ReturnColor
 366              	.LVL37:
  55:Core/Src/sk6812.c ****     for (i = 0; i < PIXEL_NUM; i++)
 367              		.loc 1 55 5 view .LVU91
 368              		.loc 1 55 12 is_stmt 0 view .LVU92
 369 000a 0020     		movs	r0, #0
 370              		.loc 1 55 5 view .LVU93
 371 000c 10E0     		b	.L38
 372              	.LVL38:
 373              	.L39:
  56:Core/Src/sk6812.c **** 	{
  57:Core/Src/sk6812.c **** 		for (j = 0; j < 24; j++)
  58:Core/Src/sk6812.c **** 		{
  59:Core/Src/sk6812.c **** 			send_Buf[i * 24 + j] = dat[j];
 374              		.loc 1 59 4 is_stmt 1 discriminator 3 view .LVU94
 375              		.loc 1 59 15 is_stmt 0 discriminator 3 view .LVU95
ARM GAS  /tmp/ccG8QyXt.s 			page 9


 376 000e 00EB4001 		add	r1, r0, r0, lsl #1
 377 0012 CA00     		lsls	r2, r1, #3
 378              		.loc 1 59 20 discriminator 3 view .LVU96
 379 0014 1A44     		add	r2, r2, r3
 380              		.loc 1 59 30 discriminator 3 view .LVU97
 381 0016 06A9     		add	r1, sp, #24
 382 0018 1944     		add	r1, r1, r3
 383 001a 11F818CC 		ldrb	ip, [r1, #-24]	@ zero_extendqisi2
 384              		.loc 1 59 25 discriminator 3 view .LVU98
 385 001e 0949     		ldr	r1, .L44
 386 0020 21F812C0 		strh	ip, [r1, r2, lsl #1]	@ movhi
  57:Core/Src/sk6812.c **** 		{
 387              		.loc 1 57 23 is_stmt 1 discriminator 3 view .LVU99
  57:Core/Src/sk6812.c **** 		{
 388              		.loc 1 57 24 is_stmt 0 discriminator 3 view .LVU100
 389 0024 0133     		adds	r3, r3, #1
 390              	.LVL39:
  57:Core/Src/sk6812.c **** 		{
 391              		.loc 1 57 24 discriminator 3 view .LVU101
 392 0026 9BB2     		uxth	r3, r3
 393              	.LVL40:
 394              	.L40:
  57:Core/Src/sk6812.c **** 		{
 395              		.loc 1 57 15 is_stmt 1 discriminator 1 view .LVU102
  57:Core/Src/sk6812.c **** 		{
 396              		.loc 1 57 3 is_stmt 0 discriminator 1 view .LVU103
 397 0028 172B     		cmp	r3, #23
 398 002a F0D9     		bls	.L39
  55:Core/Src/sk6812.c ****     for (i = 0; i < PIXEL_NUM; i++)
 399              		.loc 1 55 32 is_stmt 1 discriminator 2 view .LVU104
  55:Core/Src/sk6812.c ****     for (i = 0; i < PIXEL_NUM; i++)
 400              		.loc 1 55 33 is_stmt 0 discriminator 2 view .LVU105
 401 002c 0130     		adds	r0, r0, #1
 402              	.LVL41:
  55:Core/Src/sk6812.c ****     for (i = 0; i < PIXEL_NUM; i++)
 403              		.loc 1 55 33 discriminator 2 view .LVU106
 404 002e 80B2     		uxth	r0, r0
 405              	.LVL42:
 406              	.L38:
  55:Core/Src/sk6812.c ****     for (i = 0; i < PIXEL_NUM; i++)
 407              		.loc 1 55 17 is_stmt 1 discriminator 1 view .LVU107
  55:Core/Src/sk6812.c ****     for (i = 0; i < PIXEL_NUM; i++)
 408              		.loc 1 55 5 is_stmt 0 discriminator 1 view .LVU108
 409 0030 1328     		cmp	r0, #19
 410 0032 01D8     		bhi	.L43
  57:Core/Src/sk6812.c **** 		{
 411              		.loc 1 57 10 view .LVU109
 412 0034 0023     		movs	r3, #0
 413 0036 F7E7     		b	.L40
 414              	.L43:
  60:Core/Src/sk6812.c **** 		}
  61:Core/Src/sk6812.c **** 	}
  62:Core/Src/sk6812.c ****     SK_Load();
 415              		.loc 1 62 5 is_stmt 1 view .LVU110
 416 0038 FFF7FEFF 		bl	SK_Load
 417              	.LVL43:
  63:Core/Src/sk6812.c **** }
ARM GAS  /tmp/ccG8QyXt.s 			page 10


 418              		.loc 1 63 1 is_stmt 0 view .LVU111
 419 003c 07B0     		add	sp, sp, #28
 420              	.LCFI6:
 421              		.cfi_def_cfa_offset 4
 422              		@ sp needed
 423 003e 5DF804FB 		ldr	pc, [sp], #4
 424              	.L45:
 425 0042 00BF     		.align	2
 426              	.L44:
 427 0044 00000000 		.word	.LANCHOR0
 428              		.cfi_endproc
 429              	.LFE69:
 431              		.section	.text.SK_WritePixel,"ax",%progbits
 432              		.align	1
 433              		.global	SK_WritePixel
 434              		.syntax unified
 435              		.thumb
 436              		.thumb_func
 437              		.fpu softvfp
 439              	SK_WritePixel:
 440              	.LVL44:
 441              	.LFB70:
  64:Core/Src/sk6812.c **** void SK_WritePixel(uint8_t n,uint8_t red,uint8_t green,uint8_t blue)
  65:Core/Src/sk6812.c **** {
 442              		.loc 1 65 1 is_stmt 1 view -0
 443              		.cfi_startproc
 444              		@ args = 0, pretend = 0, frame = 24
 445              		@ frame_needed = 0, uses_anonymous_args = 0
 446              		.loc 1 65 1 is_stmt 0 view .LVU113
 447 0000 10B5     		push	{r4, lr}
 448              	.LCFI7:
 449              		.cfi_def_cfa_offset 8
 450              		.cfi_offset 4, -8
 451              		.cfi_offset 14, -4
 452 0002 86B0     		sub	sp, sp, #24
 453              	.LCFI8:
 454              		.cfi_def_cfa_offset 32
 455 0004 0446     		mov	r4, r0
 456 0006 0846     		mov	r0, r1
 457              	.LVL45:
 458              		.loc 1 65 1 view .LVU114
 459 0008 1146     		mov	r1, r2
 460              	.LVL46:
 461              		.loc 1 65 1 view .LVU115
 462 000a 1A46     		mov	r2, r3
 463              	.LVL47:
  66:Core/Src/sk6812.c **** 	//HAL_TIM_PWM_Stop_DMA(&htim2, TIM_CHANNEL_1);
  67:Core/Src/sk6812.c **** 	uint8_t dat[24];
 464              		.loc 1 67 2 is_stmt 1 view .LVU116
  68:Core/Src/sk6812.c ****     SK_ReturnColor(red,green,blue,dat);
 465              		.loc 1 68 5 view .LVU117
 466 000c 6B46     		mov	r3, sp
 467              	.LVL48:
 468              		.loc 1 68 5 is_stmt 0 view .LVU118
 469 000e FFF7FEFF 		bl	SK_ReturnColor
 470              	.LVL49:
  69:Core/Src/sk6812.c **** 	for (int i = 0; i < 24; i++)
ARM GAS  /tmp/ccG8QyXt.s 			page 11


 471              		.loc 1 69 2 is_stmt 1 view .LVU119
 472              	.LBB2:
 473              		.loc 1 69 7 view .LVU120
 474              		.loc 1 69 11 is_stmt 0 view .LVU121
 475 0012 0023     		movs	r3, #0
 476              		.loc 1 69 2 view .LVU122
 477 0014 0BE0     		b	.L47
 478              	.LVL50:
 479              	.L48:
  70:Core/Src/sk6812.c **** 	{
  71:Core/Src/sk6812.c **** 		send_Buf[n * 24 + i] = dat[i];
 480              		.loc 1 71 3 is_stmt 1 discriminator 3 view .LVU123
 481              		.loc 1 71 14 is_stmt 0 discriminator 3 view .LVU124
 482 0016 04EB4402 		add	r2, r4, r4, lsl #1
 483              		.loc 1 71 19 discriminator 3 view .LVU125
 484 001a 03EBC202 		add	r2, r3, r2, lsl #3
 485              		.loc 1 71 29 discriminator 3 view .LVU126
 486 001e 06A9     		add	r1, sp, #24
 487 0020 1944     		add	r1, r1, r3
 488 0022 11F8180C 		ldrb	r0, [r1, #-24]	@ zero_extendqisi2
 489              		.loc 1 71 24 discriminator 3 view .LVU127
 490 0026 0549     		ldr	r1, .L50
 491 0028 21F81200 		strh	r0, [r1, r2, lsl #1]	@ movhi
  69:Core/Src/sk6812.c **** 	for (int i = 0; i < 24; i++)
 492              		.loc 1 69 26 is_stmt 1 discriminator 3 view .LVU128
  69:Core/Src/sk6812.c **** 	for (int i = 0; i < 24; i++)
 493              		.loc 1 69 27 is_stmt 0 discriminator 3 view .LVU129
 494 002c 0133     		adds	r3, r3, #1
 495              	.LVL51:
 496              	.L47:
  69:Core/Src/sk6812.c **** 	for (int i = 0; i < 24; i++)
 497              		.loc 1 69 18 is_stmt 1 discriminator 1 view .LVU130
  69:Core/Src/sk6812.c **** 	for (int i = 0; i < 24; i++)
 498              		.loc 1 69 2 is_stmt 0 discriminator 1 view .LVU131
 499 002e 172B     		cmp	r3, #23
 500 0030 F1DD     		ble	.L48
 501              	.LBE2:
  72:Core/Src/sk6812.c **** 	}
  73:Core/Src/sk6812.c **** 	
  74:Core/Src/sk6812.c **** 	SK_Load();
 502              		.loc 1 74 2 is_stmt 1 view .LVU132
 503 0032 FFF7FEFF 		bl	SK_Load
 504              	.LVL52:
  75:Core/Src/sk6812.c **** }
 505              		.loc 1 75 1 is_stmt 0 view .LVU133
 506 0036 06B0     		add	sp, sp, #24
 507              	.LCFI9:
 508              		.cfi_def_cfa_offset 8
 509              		@ sp needed
 510 0038 10BD     		pop	{r4, pc}
 511              	.L51:
 512 003a 00BF     		.align	2
 513              	.L50:
 514 003c 00000000 		.word	.LANCHOR0
 515              		.cfi_endproc
 516              	.LFE70:
 518              		.section	.text.SK_Breathing_RGB,"ax",%progbits
ARM GAS  /tmp/ccG8QyXt.s 			page 12


 519              		.align	1
 520              		.global	SK_Breathing_RGB
 521              		.syntax unified
 522              		.thumb
 523              		.thumb_func
 524              		.fpu softvfp
 526              	SK_Breathing_RGB:
 527              	.LFB71:
  76:Core/Src/sk6812.c **** void SK_Breathing_RGB(void) {
 528              		.loc 1 76 29 is_stmt 1 view -0
 529              		.cfi_startproc
 530              		@ args = 0, pretend = 0, frame = 0
 531              		@ frame_needed = 0, uses_anonymous_args = 0
 532 0000 10B5     		push	{r4, lr}
 533              	.LCFI10:
 534              		.cfi_def_cfa_offset 8
 535              		.cfi_offset 4, -8
 536              		.cfi_offset 14, -4
  77:Core/Src/sk6812.c **** 	uint16_t red;
 537              		.loc 1 77 2 view .LVU135
  78:Core/Src/sk6812.c ****   	uint16_t green;
 538              		.loc 1 78 4 view .LVU136
  79:Core/Src/sk6812.c ****   	uint16_t blue;
 539              		.loc 1 79 4 view .LVU137
  80:Core/Src/sk6812.c **** 	for (red = 0; red < 256; red++)
 540              		.loc 1 80 2 view .LVU138
 541              	.LVL53:
 542              		.loc 1 80 11 is_stmt 0 view .LVU139
 543 0002 0024     		movs	r4, #0
 544              		.loc 1 80 2 view .LVU140
 545 0004 09E0     		b	.L53
 546              	.LVL54:
 547              	.L54:
  81:Core/Src/sk6812.c ****     {
  82:Core/Src/sk6812.c ****       SK_WriteAll_RGB(red,0,0);
 548              		.loc 1 82 7 is_stmt 1 discriminator 3 view .LVU141
 549 0006 0022     		movs	r2, #0
 550 0008 1146     		mov	r1, r2
 551 000a E0B2     		uxtb	r0, r4
 552 000c FFF7FEFF 		bl	SK_WriteAll_RGB
 553              	.LVL55:
  83:Core/Src/sk6812.c ****       HAL_Delay(5);
 554              		.loc 1 83 7 discriminator 3 view .LVU142
 555 0010 0520     		movs	r0, #5
 556 0012 FFF7FEFF 		bl	HAL_Delay
 557              	.LVL56:
  80:Core/Src/sk6812.c **** 	for (red = 0; red < 256; red++)
 558              		.loc 1 80 27 discriminator 3 view .LVU143
  80:Core/Src/sk6812.c **** 	for (red = 0; red < 256; red++)
 559              		.loc 1 80 30 is_stmt 0 discriminator 3 view .LVU144
 560 0016 0134     		adds	r4, r4, #1
 561              	.LVL57:
  80:Core/Src/sk6812.c **** 	for (red = 0; red < 256; red++)
 562              		.loc 1 80 30 discriminator 3 view .LVU145
 563 0018 A4B2     		uxth	r4, r4
 564              	.LVL58:
 565              	.L53:
ARM GAS  /tmp/ccG8QyXt.s 			page 13


  80:Core/Src/sk6812.c **** 	for (red = 0; red < 256; red++)
 566              		.loc 1 80 16 is_stmt 1 discriminator 1 view .LVU146
  80:Core/Src/sk6812.c **** 	for (red = 0; red < 256; red++)
 567              		.loc 1 80 2 is_stmt 0 discriminator 1 view .LVU147
 568 001a FF2C     		cmp	r4, #255
 569 001c F3D9     		bls	.L54
  84:Core/Src/sk6812.c ****     }
  85:Core/Src/sk6812.c ****     for (red = 255; red >0; red--)
 570              		.loc 1 85 14 view .LVU148
 571 001e FF24     		movs	r4, #255
 572              	.LVL59:
 573              		.loc 1 85 14 view .LVU149
 574 0020 09E0     		b	.L55
 575              	.LVL60:
 576              	.L56:
  86:Core/Src/sk6812.c ****     {
  87:Core/Src/sk6812.c ****       SK_WriteAll_RGB(red,0,0);
 577              		.loc 1 87 7 is_stmt 1 discriminator 3 view .LVU150
 578 0022 0022     		movs	r2, #0
 579 0024 1146     		mov	r1, r2
 580 0026 E0B2     		uxtb	r0, r4
 581 0028 FFF7FEFF 		bl	SK_WriteAll_RGB
 582              	.LVL61:
  88:Core/Src/sk6812.c ****       HAL_Delay(5);
 583              		.loc 1 88 7 discriminator 3 view .LVU151
 584 002c 0520     		movs	r0, #5
 585 002e FFF7FEFF 		bl	HAL_Delay
 586              	.LVL62:
  85:Core/Src/sk6812.c ****     {
 587              		.loc 1 85 29 discriminator 3 view .LVU152
  85:Core/Src/sk6812.c ****     {
 588              		.loc 1 85 32 is_stmt 0 discriminator 3 view .LVU153
 589 0032 013C     		subs	r4, r4, #1
 590              	.LVL63:
  85:Core/Src/sk6812.c ****     {
 591              		.loc 1 85 32 discriminator 3 view .LVU154
 592 0034 A4B2     		uxth	r4, r4
 593              	.LVL64:
 594              	.L55:
  85:Core/Src/sk6812.c ****     {
 595              		.loc 1 85 21 is_stmt 1 discriminator 1 view .LVU155
  85:Core/Src/sk6812.c ****     {
 596              		.loc 1 85 5 is_stmt 0 discriminator 1 view .LVU156
 597 0036 002C     		cmp	r4, #0
 598 0038 F3D1     		bne	.L56
 599 003a 09E0     		b	.L57
 600              	.LVL65:
 601              	.L58:
  89:Core/Src/sk6812.c ****     }
  90:Core/Src/sk6812.c ****     for (green = 0; green < 256; green++)
  91:Core/Src/sk6812.c ****     {
  92:Core/Src/sk6812.c ****       SK_WriteAll_RGB(0,green,0);
 602              		.loc 1 92 7 is_stmt 1 discriminator 3 view .LVU157
 603 003c 0022     		movs	r2, #0
 604 003e E1B2     		uxtb	r1, r4
 605 0040 1046     		mov	r0, r2
 606 0042 FFF7FEFF 		bl	SK_WriteAll_RGB
ARM GAS  /tmp/ccG8QyXt.s 			page 14


 607              	.LVL66:
  93:Core/Src/sk6812.c ****       HAL_Delay(5);
 608              		.loc 1 93 7 discriminator 3 view .LVU158
 609 0046 0520     		movs	r0, #5
 610 0048 FFF7FEFF 		bl	HAL_Delay
 611              	.LVL67:
  90:Core/Src/sk6812.c ****     {
 612              		.loc 1 90 34 discriminator 3 view .LVU159
  90:Core/Src/sk6812.c ****     {
 613              		.loc 1 90 39 is_stmt 0 discriminator 3 view .LVU160
 614 004c 0134     		adds	r4, r4, #1
 615              	.LVL68:
  90:Core/Src/sk6812.c ****     {
 616              		.loc 1 90 39 discriminator 3 view .LVU161
 617 004e A4B2     		uxth	r4, r4
 618              	.LVL69:
 619              	.L57:
  90:Core/Src/sk6812.c ****     {
 620              		.loc 1 90 21 is_stmt 1 discriminator 1 view .LVU162
  90:Core/Src/sk6812.c ****     {
 621              		.loc 1 90 5 is_stmt 0 discriminator 1 view .LVU163
 622 0050 FF2C     		cmp	r4, #255
 623 0052 F3D9     		bls	.L58
  94:Core/Src/sk6812.c ****     }
  95:Core/Src/sk6812.c ****     for (green = 255; green >0; green--)
 624              		.loc 1 95 16 view .LVU164
 625 0054 FF24     		movs	r4, #255
 626              	.LVL70:
 627              		.loc 1 95 16 view .LVU165
 628 0056 09E0     		b	.L59
 629              	.LVL71:
 630              	.L60:
  96:Core/Src/sk6812.c ****     {
  97:Core/Src/sk6812.c ****       SK_WriteAll_RGB(0,green,0);
 631              		.loc 1 97 7 is_stmt 1 discriminator 3 view .LVU166
 632 0058 0022     		movs	r2, #0
 633 005a E1B2     		uxtb	r1, r4
 634 005c 1046     		mov	r0, r2
 635 005e FFF7FEFF 		bl	SK_WriteAll_RGB
 636              	.LVL72:
  98:Core/Src/sk6812.c ****       HAL_Delay(5);
 637              		.loc 1 98 7 discriminator 3 view .LVU167
 638 0062 0520     		movs	r0, #5
 639 0064 FFF7FEFF 		bl	HAL_Delay
 640              	.LVL73:
  95:Core/Src/sk6812.c ****     {
 641              		.loc 1 95 33 discriminator 3 view .LVU168
  95:Core/Src/sk6812.c ****     {
 642              		.loc 1 95 38 is_stmt 0 discriminator 3 view .LVU169
 643 0068 013C     		subs	r4, r4, #1
 644              	.LVL74:
  95:Core/Src/sk6812.c ****     {
 645              		.loc 1 95 38 discriminator 3 view .LVU170
 646 006a A4B2     		uxth	r4, r4
 647              	.LVL75:
 648              	.L59:
  95:Core/Src/sk6812.c ****     {
ARM GAS  /tmp/ccG8QyXt.s 			page 15


 649              		.loc 1 95 23 is_stmt 1 discriminator 1 view .LVU171
  95:Core/Src/sk6812.c ****     {
 650              		.loc 1 95 5 is_stmt 0 discriminator 1 view .LVU172
 651 006c 002C     		cmp	r4, #0
 652 006e F3D1     		bne	.L60
 653 0070 09E0     		b	.L61
 654              	.LVL76:
 655              	.L62:
  99:Core/Src/sk6812.c ****     }
 100:Core/Src/sk6812.c ****     for (blue = 0; blue < 256; blue++)
 101:Core/Src/sk6812.c ****     {
 102:Core/Src/sk6812.c ****       SK_WriteAll_RGB(0,0,blue);
 656              		.loc 1 102 7 is_stmt 1 discriminator 3 view .LVU173
 657 0072 E2B2     		uxtb	r2, r4
 658 0074 0021     		movs	r1, #0
 659 0076 0846     		mov	r0, r1
 660 0078 FFF7FEFF 		bl	SK_WriteAll_RGB
 661              	.LVL77:
 103:Core/Src/sk6812.c ****       HAL_Delay(5);
 662              		.loc 1 103 7 discriminator 3 view .LVU174
 663 007c 0520     		movs	r0, #5
 664 007e FFF7FEFF 		bl	HAL_Delay
 665              	.LVL78:
 100:Core/Src/sk6812.c ****     {
 666              		.loc 1 100 32 discriminator 3 view .LVU175
 100:Core/Src/sk6812.c ****     {
 667              		.loc 1 100 36 is_stmt 0 discriminator 3 view .LVU176
 668 0082 0134     		adds	r4, r4, #1
 669              	.LVL79:
 100:Core/Src/sk6812.c ****     {
 670              		.loc 1 100 36 discriminator 3 view .LVU177
 671 0084 A4B2     		uxth	r4, r4
 672              	.LVL80:
 673              	.L61:
 100:Core/Src/sk6812.c ****     {
 674              		.loc 1 100 20 is_stmt 1 discriminator 1 view .LVU178
 100:Core/Src/sk6812.c ****     {
 675              		.loc 1 100 5 is_stmt 0 discriminator 1 view .LVU179
 676 0086 FF2C     		cmp	r4, #255
 677 0088 F3D9     		bls	.L62
 104:Core/Src/sk6812.c ****     }
 105:Core/Src/sk6812.c ****     for (blue = 255; blue >0; blue--)
 678              		.loc 1 105 15 view .LVU180
 679 008a FF24     		movs	r4, #255
 680              	.LVL81:
 681              		.loc 1 105 15 view .LVU181
 682 008c 09E0     		b	.L63
 683              	.LVL82:
 684              	.L64:
 106:Core/Src/sk6812.c ****     {
 107:Core/Src/sk6812.c ****       SK_WriteAll_RGB(0,0,blue);
 685              		.loc 1 107 7 is_stmt 1 discriminator 3 view .LVU182
 686 008e E2B2     		uxtb	r2, r4
 687 0090 0021     		movs	r1, #0
 688 0092 0846     		mov	r0, r1
 689 0094 FFF7FEFF 		bl	SK_WriteAll_RGB
 690              	.LVL83:
ARM GAS  /tmp/ccG8QyXt.s 			page 16


 108:Core/Src/sk6812.c ****       HAL_Delay(5);
 691              		.loc 1 108 7 discriminator 3 view .LVU183
 692 0098 0520     		movs	r0, #5
 693 009a FFF7FEFF 		bl	HAL_Delay
 694              	.LVL84:
 105:Core/Src/sk6812.c ****     {
 695              		.loc 1 105 31 discriminator 3 view .LVU184
 105:Core/Src/sk6812.c ****     {
 696              		.loc 1 105 35 is_stmt 0 discriminator 3 view .LVU185
 697 009e 013C     		subs	r4, r4, #1
 698              	.LVL85:
 105:Core/Src/sk6812.c ****     {
 699              		.loc 1 105 35 discriminator 3 view .LVU186
 700 00a0 A4B2     		uxth	r4, r4
 701              	.LVL86:
 702              	.L63:
 105:Core/Src/sk6812.c ****     {
 703              		.loc 1 105 22 is_stmt 1 discriminator 1 view .LVU187
 105:Core/Src/sk6812.c ****     {
 704              		.loc 1 105 5 is_stmt 0 discriminator 1 view .LVU188
 705 00a2 002C     		cmp	r4, #0
 706 00a4 F3D1     		bne	.L64
 109:Core/Src/sk6812.c ****     }
 110:Core/Src/sk6812.c **** }
 707              		.loc 1 110 1 view .LVU189
 708 00a6 10BD     		pop	{r4, pc}
 709              		.loc 1 110 1 view .LVU190
 710              		.cfi_endproc
 711              	.LFE71:
 713              		.section	.text.SK_Watering_RGB,"ax",%progbits
 714              		.align	1
 715              		.global	SK_Watering_RGB
 716              		.syntax unified
 717              		.thumb
 718              		.thumb_func
 719              		.fpu softvfp
 721              	SK_Watering_RGB:
 722              	.LFB72:
 111:Core/Src/sk6812.c **** void SK_Watering_RGB(void) {
 723              		.loc 1 111 28 is_stmt 1 view -0
 724              		.cfi_startproc
 725              		@ args = 0, pretend = 0, frame = 0
 726              		@ frame_needed = 0, uses_anonymous_args = 0
 727 0000 38B5     		push	{r3, r4, r5, lr}
 728              	.LCFI11:
 729              		.cfi_def_cfa_offset 16
 730              		.cfi_offset 3, -16
 731              		.cfi_offset 4, -12
 732              		.cfi_offset 5, -8
 733              		.cfi_offset 14, -4
 112:Core/Src/sk6812.c **** 	for (int i = 0; i <18; i++)
 734              		.loc 1 112 2 view .LVU192
 735              	.LBB3:
 736              		.loc 1 112 7 view .LVU193
 737              	.LVL87:
 738              		.loc 1 112 11 is_stmt 0 view .LVU194
 739 0002 0025     		movs	r5, #0
ARM GAS  /tmp/ccG8QyXt.s 			page 17


 740              		.loc 1 112 2 view .LVU195
 741 0004 1AE0     		b	.L67
 742              	.LVL88:
 743              	.L68:
 113:Core/Src/sk6812.c **** 	{
 114:Core/Src/sk6812.c **** 		SK_CloseAll();
 744              		.loc 1 114 3 is_stmt 1 discriminator 3 view .LVU196
 745 0006 FFF7FEFF 		bl	SK_CloseAll
 746              	.LVL89:
 115:Core/Src/sk6812.c **** 		SK_WritePixel(i,15,0,0);
 747              		.loc 1 115 3 discriminator 3 view .LVU197
 748 000a ECB2     		uxtb	r4, r5
 749 000c 0023     		movs	r3, #0
 750 000e 1A46     		mov	r2, r3
 751 0010 0F21     		movs	r1, #15
 752 0012 2046     		mov	r0, r4
 753 0014 FFF7FEFF 		bl	SK_WritePixel
 754              	.LVL90:
 116:Core/Src/sk6812.c **** 		SK_WritePixel(i+1,0,15,0);
 755              		.loc 1 116 3 discriminator 3 view .LVU198
 756 0018 601C     		adds	r0, r4, #1
 757 001a 0023     		movs	r3, #0
 758 001c 0F22     		movs	r2, #15
 759 001e 1946     		mov	r1, r3
 760 0020 C0B2     		uxtb	r0, r0
 761 0022 FFF7FEFF 		bl	SK_WritePixel
 762              	.LVL91:
 117:Core/Src/sk6812.c **** 		SK_WritePixel(i+2,0,0,15);
 763              		.loc 1 117 3 discriminator 3 view .LVU199
 764 0026 A01C     		adds	r0, r4, #2
 765 0028 0F23     		movs	r3, #15
 766 002a 0022     		movs	r2, #0
 767 002c 1146     		mov	r1, r2
 768 002e C0B2     		uxtb	r0, r0
 769 0030 FFF7FEFF 		bl	SK_WritePixel
 770              	.LVL92:
 118:Core/Src/sk6812.c **** 		HAL_Delay(50);
 771              		.loc 1 118 3 discriminator 3 view .LVU200
 772 0034 3220     		movs	r0, #50
 773 0036 FFF7FEFF 		bl	HAL_Delay
 774              	.LVL93:
 112:Core/Src/sk6812.c **** 	{
 775              		.loc 1 112 25 discriminator 3 view .LVU201
 112:Core/Src/sk6812.c **** 	{
 776              		.loc 1 112 26 is_stmt 0 discriminator 3 view .LVU202
 777 003a 0135     		adds	r5, r5, #1
 778              	.LVL94:
 779              	.L67:
 112:Core/Src/sk6812.c **** 	{
 780              		.loc 1 112 18 is_stmt 1 discriminator 1 view .LVU203
 112:Core/Src/sk6812.c **** 	{
 781              		.loc 1 112 2 is_stmt 0 discriminator 1 view .LVU204
 782 003c 112D     		cmp	r5, #17
 783 003e E2DD     		ble	.L68
 784              	.LBE3:
 119:Core/Src/sk6812.c **** 	}
 120:Core/Src/sk6812.c **** 	// for (int i = 0; i <20; i++)
ARM GAS  /tmp/ccG8QyXt.s 			page 18


 121:Core/Src/sk6812.c **** 	// {
 122:Core/Src/sk6812.c **** 	// 	SK_CloseAll();
 123:Core/Src/sk6812.c **** 	// 	SK_WritePixel(i,0,15,0);
 124:Core/Src/sk6812.c **** 	// 	//SK_WritePixel(i+1,0,255,0);
 125:Core/Src/sk6812.c **** 	// 	//SK_WritePixel(i+2,0,0,255);
 126:Core/Src/sk6812.c **** 	// 	HAL_Delay(200);
 127:Core/Src/sk6812.c **** 	// }
 128:Core/Src/sk6812.c **** 	// for (int i = 0; i <20; i++)
 129:Core/Src/sk6812.c **** 	// {
 130:Core/Src/sk6812.c **** 	// 	SK_CloseAll();
 131:Core/Src/sk6812.c **** 	// 	SK_WritePixel(i,0,0,15);
 132:Core/Src/sk6812.c **** 	// 	//SK_WritePixel(i+1,0,255,0);
 133:Core/Src/sk6812.c **** 	// 	//SK_WritePixel(i+2,0,0,255);
 134:Core/Src/sk6812.c **** 	// 	HAL_Delay(200);
 135:Core/Src/sk6812.c **** 	// }
 136:Core/Src/sk6812.c **** 	
 137:Core/Src/sk6812.c **** }
 785              		.loc 1 137 1 view .LVU205
 786 0040 38BD     		pop	{r3, r4, r5, pc}
 787              		.loc 1 137 1 view .LVU206
 788              		.cfi_endproc
 789              	.LFE72:
 791              		.section	.text.SK_RGBtoRGB,"ax",%progbits
 792              		.align	1
 793              		.global	SK_RGBtoRGB
 794              		.syntax unified
 795              		.thumb
 796              		.thumb_func
 797              		.fpu softvfp
 799              	SK_RGBtoRGB:
 800              	.LVL95:
 801              	.LFB73:
 138:Core/Src/sk6812.c **** void SK_RGBtoRGB(uint8_t r1,uint8_t g1,uint8_t b1,uint8_t r2,uint8_t g2,uint8_t b2,uint32_t time,ui
 802              		.loc 1 138 111 is_stmt 1 view -0
 803              		.cfi_startproc
 804              		@ args = 16, pretend = 0, frame = 8
 805              		@ frame_needed = 0, uses_anonymous_args = 0
 806              		.loc 1 138 111 is_stmt 0 view .LVU208
 807 0000 2DE9F04F 		push	{r4, r5, r6, r7, r8, r9, r10, fp, lr}
 808              	.LCFI12:
 809              		.cfi_def_cfa_offset 36
 810              		.cfi_offset 4, -36
 811              		.cfi_offset 5, -32
 812              		.cfi_offset 6, -28
 813              		.cfi_offset 7, -24
 814              		.cfi_offset 8, -20
 815              		.cfi_offset 9, -16
 816              		.cfi_offset 10, -12
 817              		.cfi_offset 11, -8
 818              		.cfi_offset 14, -4
 819 0004 83B0     		sub	sp, sp, #12
 820              	.LCFI13:
 821              		.cfi_def_cfa_offset 48
 822 0006 0446     		mov	r4, r0
 823 0008 0E46     		mov	r6, r1
 824 000a 1746     		mov	r7, r2
 825 000c 1D46     		mov	r5, r3
ARM GAS  /tmp/ccG8QyXt.s 			page 19


 826 000e 9DF83080 		ldrb	r8, [sp, #48]	@ zero_extendqisi2
 827 0012 9DF83490 		ldrb	r9, [sp, #52]	@ zero_extendqisi2
 828 0016 DDF838A0 		ldr	r10, [sp, #56]
 829 001a BDF83C30 		ldrh	r3, [sp, #60]
 830              	.LVL96:
 831              		.loc 1 138 111 view .LVU209
 832 001e 0193     		str	r3, [sp, #4]
 139:Core/Src/sk6812.c **** 	uint16_t temp;
 833              		.loc 1 139 2 is_stmt 1 view .LVU210
 140:Core/Src/sk6812.c **** 	if(r1==r2&&g1==g2&&b1==b2){
 834              		.loc 1 140 2 view .LVU211
 835              		.loc 1 140 4 is_stmt 0 view .LVU212
 836 0020 A842     		cmp	r0, r5
 837 0022 19D0     		beq	.L123
 838              	.L71:
 141:Core/Src/sk6812.c **** 		return;
 142:Core/Src/sk6812.c **** 	}
 143:Core/Src/sk6812.c **** 	if (r1!=r2&&g1==g2&&b1==b2||r1==r2&&g1!=g2&&b1==b2||r1==r2&&g1==g2&&b1!=b2)
 839              		.loc 1 143 2 is_stmt 1 view .LVU213
 840              		.loc 1 143 5 is_stmt 0 view .LVU214
 841 0024 AC42     		cmp	r4, r5
 842 0026 01D0     		beq	.L73
 843              		.loc 1 143 12 discriminator 1 view .LVU215
 844 0028 4645     		cmp	r6, r8
 845 002a 1CD0     		beq	.L74
 846              	.L73:
 847              		.loc 1 143 28 discriminator 4 view .LVU216
 848 002c AC42     		cmp	r4, r5
 849 002e 18D0     		beq	.L124
 850              	.L75:
 851              		.loc 1 143 52 discriminator 9 view .LVU217
 852 0030 AC42     		cmp	r4, r5
 853 0032 1ED0     		beq	.L125
 854              	.LVL97:
 855              	.L77:
 144:Core/Src/sk6812.c **** 	{
 145:Core/Src/sk6812.c **** 		if(r1!=r2){
 146:Core/Src/sk6812.c **** 			for (int i = r1; (r1<r2)?(i <= r2):(i >= r2); (r1<r2)?(i++):(i--))
 147:Core/Src/sk6812.c **** 			{
 148:Core/Src/sk6812.c **** 				
 149:Core/Src/sk6812.c **** 				SK_WritePixel(led,i,g1,b1);
 150:Core/Src/sk6812.c **** 			
 151:Core/Src/sk6812.c **** 				HAL_Delay(time/abs(r1-r2));
 152:Core/Src/sk6812.c **** 			}
 153:Core/Src/sk6812.c **** 		}
 154:Core/Src/sk6812.c **** 		else if(g1!=g2){
 155:Core/Src/sk6812.c **** 			for (int i = g1;  (g1<g2)?(i <= g2):(i >= g2); (g1<g2)?(i++):(i--))
 156:Core/Src/sk6812.c **** 			{
 157:Core/Src/sk6812.c **** 				
 158:Core/Src/sk6812.c **** 				SK_WritePixel(led,r1,i,b1);
 159:Core/Src/sk6812.c **** 				
 160:Core/Src/sk6812.c **** 				HAL_Delay(time/abs(g1-g2));
 161:Core/Src/sk6812.c **** 			}
 162:Core/Src/sk6812.c **** 		}
 163:Core/Src/sk6812.c **** 		else if(b1!=b2){
 164:Core/Src/sk6812.c **** 			for (int i = b1; (b1<b2)?(i <= b2):(i >= b2); (b1<b2)?(i++):(i--))
 165:Core/Src/sk6812.c **** 			{
ARM GAS  /tmp/ccG8QyXt.s 			page 20


 166:Core/Src/sk6812.c **** 				
 167:Core/Src/sk6812.c **** 				SK_WritePixel(led,r1,g1,i);
 168:Core/Src/sk6812.c **** 				
 169:Core/Src/sk6812.c **** 				HAL_Delay(time/abs(b1-b2));
 170:Core/Src/sk6812.c **** 			}
 171:Core/Src/sk6812.c **** 		}
 172:Core/Src/sk6812.c **** 	}
 173:Core/Src/sk6812.c **** 	if (r1!=r2&&g1!=g2&&b1==b2||r1!=r2&&g1==g2&&b1!=b2||r1==r2&&g1!=g2&&b1!=b2)
 856              		.loc 1 173 2 is_stmt 1 view .LVU218
 857              		.loc 1 173 5 is_stmt 0 view .LVU219
 858 0034 AC42     		cmp	r4, r5
 859 0036 04D0     		beq	.L98
 860              		.loc 1 173 12 discriminator 1 view .LVU220
 861 0038 4645     		cmp	r6, r8
 862 003a 02D0     		beq	.L98
 863              		.loc 1 173 20 discriminator 3 view .LVU221
 864 003c 4F45     		cmp	r7, r9
 865 003e 00F09680 		beq	.L99
 866              	.L98:
 867              		.loc 1 173 28 discriminator 5 view .LVU222
 868 0042 AC42     		cmp	r4, r5
 869 0044 02D0     		beq	.L100
 870              		.loc 1 173 36 discriminator 6 view .LVU223
 871 0046 4645     		cmp	r6, r8
 872 0048 00F08E80 		beq	.L126
 873              	.L100:
 874              		.loc 1 173 52 discriminator 10 view .LVU224
 875 004c AC42     		cmp	r4, r5
 876 004e 00F09780 		beq	.L127
 877              	.L70:
 174:Core/Src/sk6812.c **** 	{
 175:Core/Src/sk6812.c **** 		if(r1==r2){
 176:Core/Src/sk6812.c **** 			for (int i = g1; (g1<g2)?(i <= g2):(i >= g2); (g1<g2)?(i++):(i--))
 177:Core/Src/sk6812.c **** 			{
 178:Core/Src/sk6812.c **** 				
 179:Core/Src/sk6812.c **** 				SK_WritePixel(led,r1,i,b1+(b2-b1)/abs(g1-g2)*i);
 180:Core/Src/sk6812.c **** 				
 181:Core/Src/sk6812.c **** 				HAL_Delay(time/abs(g1-g2));
 182:Core/Src/sk6812.c **** 			}
 183:Core/Src/sk6812.c **** 		}
 184:Core/Src/sk6812.c **** 		else if(g1==g2){
 185:Core/Src/sk6812.c **** 			for (int i = b1; (b1<b2)?(i <= b2):(i >= b2); (b1<b2)?(i++):(i--))
 186:Core/Src/sk6812.c **** 			{
 187:Core/Src/sk6812.c **** 				
 188:Core/Src/sk6812.c **** 				SK_WritePixel(led,r1+(r2-r1)/abs(b1-b2)*i,g1,i);
 189:Core/Src/sk6812.c **** 				
 190:Core/Src/sk6812.c **** 				HAL_Delay(time/abs(b1-b2));
 191:Core/Src/sk6812.c **** 			}
 192:Core/Src/sk6812.c **** 		}
 193:Core/Src/sk6812.c **** 		else if(b1==b2){
 194:Core/Src/sk6812.c **** 			for (int i = r1; (r1<r2)?(i <= r2):(i >= r2); (r1<r2)?(i++):(i--))
 195:Core/Src/sk6812.c **** 			{
 196:Core/Src/sk6812.c **** 				
 197:Core/Src/sk6812.c **** 				SK_WritePixel(led,i,g1+(g2-g1)/abs(r1-r2)*i,b1);
 198:Core/Src/sk6812.c **** 				
 199:Core/Src/sk6812.c **** 				HAL_Delay(time/abs(r1-r2));
 200:Core/Src/sk6812.c **** 			}
ARM GAS  /tmp/ccG8QyXt.s 			page 21


 201:Core/Src/sk6812.c **** 		}
 202:Core/Src/sk6812.c **** 	}
 203:Core/Src/sk6812.c **** 	if(r1!=r2&&g1!=g2&&b1!=b2){
 204:Core/Src/sk6812.c **** 		if(abs(r2-r1)>abs(g2-g1)){
 205:Core/Src/sk6812.c **** 
 206:Core/Src/sk6812.c **** 		}else{
 207:Core/Src/sk6812.c **** 
 208:Core/Src/sk6812.c **** 		}
 209:Core/Src/sk6812.c **** 		
 210:Core/Src/sk6812.c **** 	}
 211:Core/Src/sk6812.c **** }
 878              		.loc 1 211 1 view .LVU225
 879 0052 03B0     		add	sp, sp, #12
 880              	.LCFI14:
 881              		.cfi_remember_state
 882              		.cfi_def_cfa_offset 36
 883              		@ sp needed
 884 0054 BDE8F08F 		pop	{r4, r5, r6, r7, r8, r9, r10, fp, pc}
 885              	.LVL98:
 886              	.L123:
 887              	.LCFI15:
 888              		.cfi_restore_state
 140:Core/Src/sk6812.c **** 		return;
 889              		.loc 1 140 11 discriminator 1 view .LVU226
 890 0058 4145     		cmp	r1, r8
 891 005a E3D1     		bne	.L71
 140:Core/Src/sk6812.c **** 		return;
 892              		.loc 1 140 19 discriminator 2 view .LVU227
 893 005c 4A45     		cmp	r2, r9
 894 005e E1D1     		bne	.L71
 895 0060 F7E7     		b	.L70
 896              	.L124:
 143:Core/Src/sk6812.c **** 	{
 897              		.loc 1 143 36 discriminator 5 view .LVU228
 898 0062 4645     		cmp	r6, r8
 899 0064 E4D0     		beq	.L75
 900              	.L74:
 143:Core/Src/sk6812.c **** 	{
 901              		.loc 1 143 28 discriminator 7 view .LVU229
 902 0066 4F45     		cmp	r7, r9
 903 0068 E2D1     		bne	.L75
 904              	.L76:
 145:Core/Src/sk6812.c **** 			for (int i = r1; (r1<r2)?(i <= r2):(i >= r2); (r1<r2)?(i++):(i--))
 905              		.loc 1 145 3 is_stmt 1 view .LVU230
 145:Core/Src/sk6812.c **** 			for (int i = r1; (r1<r2)?(i <= r2):(i >= r2); (r1<r2)?(i++):(i--))
 906              		.loc 1 145 5 is_stmt 0 view .LVU231
 907 006a AC42     		cmp	r4, r5
 908 006c 2AD0     		beq	.L78
 146:Core/Src/sk6812.c **** 			{
 909              		.loc 1 146 4 is_stmt 1 view .LVU232
 910              	.LBB4:
 146:Core/Src/sk6812.c **** 			{
 911              		.loc 1 146 9 view .LVU233
 912              	.LVL99:
 146:Core/Src/sk6812.c **** 			{
 913              		.loc 1 146 13 is_stmt 0 view .LVU234
 914 006e A346     		mov	fp, r4
ARM GAS  /tmp/ccG8QyXt.s 			page 22


 146:Core/Src/sk6812.c **** 			{
 915              		.loc 1 146 4 view .LVU235
 916 0070 06E0     		b	.L79
 917              	.LVL100:
 918              	.L125:
 146:Core/Src/sk6812.c **** 			{
 919              		.loc 1 146 4 view .LVU236
 920              	.LBE4:
 143:Core/Src/sk6812.c **** 	{
 921              		.loc 1 143 60 discriminator 10 view .LVU237
 922 0072 4645     		cmp	r6, r8
 923 0074 DED1     		bne	.L77
 143:Core/Src/sk6812.c **** 	{
 924              		.loc 1 143 68 discriminator 11 view .LVU238
 925 0076 4F45     		cmp	r7, r9
 926 0078 F7D1     		bne	.L76
 927              	.LBB6:
 928 007a DBE7     		b	.L77
 929              	.LVL101:
 930              	.L80:
 143:Core/Src/sk6812.c **** 	{
 931              		.loc 1 143 68 discriminator 11 view .LVU239
 932              	.LBE6:
 933              	.LBB8:
 146:Core/Src/sk6812.c **** 			{
 934              		.loc 1 146 66 discriminator 3 view .LVU240
 935 007c 0BF1FF3B 		add	fp, fp, #-1
 936              	.LVL102:
 937              	.L79:
 146:Core/Src/sk6812.c **** 			{
 938              		.loc 1 146 21 is_stmt 1 discriminator 5 view .LVU241
 939 0080 AC42     		cmp	r4, r5
 940 0082 1AD2     		bcs	.L82
 146:Core/Src/sk6812.c **** 			{
 941              		.loc 1 146 21 is_stmt 0 discriminator 6 view .LVU242
 942 0084 5D45     		cmp	r5, fp
 943 0086 B4BF     		ite	lt
 944 0088 0023     		movlt	r3, #0
 945 008a 0123     		movge	r3, #1
 946              	.L83:
 146:Core/Src/sk6812.c **** 			{
 947              		.loc 1 146 4 discriminator 9 view .LVU243
 948 008c 002B     		cmp	r3, #0
 949 008e D1D0     		beq	.L77
 950              	.LBB5:
 149:Core/Src/sk6812.c **** 			
 951              		.loc 1 149 5 is_stmt 1 discriminator 10 view .LVU244
 952 0090 3B46     		mov	r3, r7
 953 0092 3246     		mov	r2, r6
 954 0094 5FFA8BF1 		uxtb	r1, fp
 955 0098 9DF80400 		ldrb	r0, [sp, #4]	@ zero_extendqisi2
 956 009c FFF7FEFF 		bl	SK_WritePixel
 957              	.LVL103:
 151:Core/Src/sk6812.c **** 			}
 958              		.loc 1 151 5 discriminator 10 view .LVU245
 151:Core/Src/sk6812.c **** 			}
 959              		.loc 1 151 26 is_stmt 0 discriminator 10 view .LVU246
ARM GAS  /tmp/ccG8QyXt.s 			page 23


 960 00a0 601B     		subs	r0, r4, r5
 151:Core/Src/sk6812.c **** 			}
 961              		.loc 1 151 20 discriminator 10 view .LVU247
 962 00a2 0028     		cmp	r0, #0
 963 00a4 B8BF     		it	lt
 964 00a6 4042     		rsblt	r0, r0, #0
 151:Core/Src/sk6812.c **** 			}
 965              		.loc 1 151 5 discriminator 10 view .LVU248
 966 00a8 BAFBF0F0 		udiv	r0, r10, r0
 967 00ac FFF7FEFF 		bl	HAL_Delay
 968              	.LVL104:
 969              	.LBE5:
 146:Core/Src/sk6812.c **** 			{
 970              		.loc 1 146 50 is_stmt 1 discriminator 10 view .LVU249
 146:Core/Src/sk6812.c **** 			{
 971              		.loc 1 146 63 is_stmt 0 discriminator 10 view .LVU250
 972 00b0 AC42     		cmp	r4, r5
 973 00b2 E3D2     		bcs	.L80
 146:Core/Src/sk6812.c **** 			{
 974              		.loc 1 146 60 discriminator 2 view .LVU251
 975 00b4 0BF1010B 		add	fp, fp, #1
 976              	.LVL105:
 146:Core/Src/sk6812.c **** 			{
 977              		.loc 1 146 60 discriminator 2 view .LVU252
 978 00b8 E2E7     		b	.L79
 979              	.L82:
 146:Core/Src/sk6812.c **** 			{
 980              		.loc 1 146 21 discriminator 7 view .LVU253
 981 00ba 5D45     		cmp	r5, fp
 982 00bc CCBF     		ite	gt
 983 00be 0023     		movgt	r3, #0
 984 00c0 0123     		movle	r3, #1
 985 00c2 E3E7     		b	.L83
 986              	.LVL106:
 987              	.L78:
 146:Core/Src/sk6812.c **** 			{
 988              		.loc 1 146 21 discriminator 7 view .LVU254
 989              	.LBE8:
 154:Core/Src/sk6812.c **** 			for (int i = g1;  (g1<g2)?(i <= g2):(i >= g2); (g1<g2)?(i++):(i--))
 990              		.loc 1 154 8 is_stmt 1 view .LVU255
 154:Core/Src/sk6812.c **** 			for (int i = g1;  (g1<g2)?(i <= g2):(i >= g2); (g1<g2)?(i++):(i--))
 991              		.loc 1 154 10 is_stmt 0 view .LVU256
 992 00c4 4645     		cmp	r6, r8
 993 00c6 26D0     		beq	.L85
 155:Core/Src/sk6812.c **** 			{
 994              		.loc 1 155 4 is_stmt 1 view .LVU257
 995              	.LBB9:
 155:Core/Src/sk6812.c **** 			{
 996              		.loc 1 155 9 view .LVU258
 997              	.LVL107:
 155:Core/Src/sk6812.c **** 			{
 998              		.loc 1 155 13 is_stmt 0 view .LVU259
 999 00c8 B346     		mov	fp, r6
 155:Core/Src/sk6812.c **** 			{
 1000              		.loc 1 155 4 view .LVU260
 1001 00ca 01E0     		b	.L86
 1002              	.LVL108:
ARM GAS  /tmp/ccG8QyXt.s 			page 24


 1003              	.L87:
 155:Core/Src/sk6812.c **** 			{
 1004              		.loc 1 155 67 discriminator 3 view .LVU261
 1005 00cc 0BF1FF3B 		add	fp, fp, #-1
 1006              	.LVL109:
 1007              	.L86:
 155:Core/Src/sk6812.c **** 			{
 1008              		.loc 1 155 22 is_stmt 1 discriminator 5 view .LVU262
 1009 00d0 4645     		cmp	r6, r8
 1010 00d2 1BD2     		bcs	.L89
 155:Core/Src/sk6812.c **** 			{
 1011              		.loc 1 155 22 is_stmt 0 discriminator 6 view .LVU263
 1012 00d4 D845     		cmp	r8, fp
 1013 00d6 B4BF     		ite	lt
 1014 00d8 0023     		movlt	r3, #0
 1015 00da 0123     		movge	r3, #1
 1016              	.L90:
 155:Core/Src/sk6812.c **** 			{
 1017              		.loc 1 155 4 discriminator 9 view .LVU264
 1018 00dc 002B     		cmp	r3, #0
 1019 00de A9D0     		beq	.L77
 1020              	.LBB10:
 158:Core/Src/sk6812.c **** 				
 1021              		.loc 1 158 5 is_stmt 1 discriminator 10 view .LVU265
 1022 00e0 3B46     		mov	r3, r7
 1023 00e2 5FFA8BF2 		uxtb	r2, fp
 1024 00e6 2146     		mov	r1, r4
 1025 00e8 9DF80400 		ldrb	r0, [sp, #4]	@ zero_extendqisi2
 1026 00ec FFF7FEFF 		bl	SK_WritePixel
 1027              	.LVL110:
 160:Core/Src/sk6812.c **** 			}
 1028              		.loc 1 160 5 discriminator 10 view .LVU266
 160:Core/Src/sk6812.c **** 			}
 1029              		.loc 1 160 26 is_stmt 0 discriminator 10 view .LVU267
 1030 00f0 A6EB0800 		sub	r0, r6, r8
 160:Core/Src/sk6812.c **** 			}
 1031              		.loc 1 160 20 discriminator 10 view .LVU268
 1032 00f4 0028     		cmp	r0, #0
 1033 00f6 B8BF     		it	lt
 1034 00f8 4042     		rsblt	r0, r0, #0
 160:Core/Src/sk6812.c **** 			}
 1035              		.loc 1 160 5 discriminator 10 view .LVU269
 1036 00fa BAFBF0F0 		udiv	r0, r10, r0
 1037 00fe FFF7FEFF 		bl	HAL_Delay
 1038              	.LVL111:
 1039              	.LBE10:
 155:Core/Src/sk6812.c **** 			{
 1040              		.loc 1 155 51 is_stmt 1 discriminator 10 view .LVU270
 155:Core/Src/sk6812.c **** 			{
 1041              		.loc 1 155 64 is_stmt 0 discriminator 10 view .LVU271
 1042 0102 4645     		cmp	r6, r8
 1043 0104 E2D2     		bcs	.L87
 155:Core/Src/sk6812.c **** 			{
 1044              		.loc 1 155 61 discriminator 2 view .LVU272
 1045 0106 0BF1010B 		add	fp, fp, #1
 1046              	.LVL112:
 155:Core/Src/sk6812.c **** 			{
ARM GAS  /tmp/ccG8QyXt.s 			page 25


 1047              		.loc 1 155 61 discriminator 2 view .LVU273
 1048 010a E1E7     		b	.L86
 1049              	.L89:
 155:Core/Src/sk6812.c **** 			{
 1050              		.loc 1 155 22 discriminator 7 view .LVU274
 1051 010c D845     		cmp	r8, fp
 1052 010e CCBF     		ite	gt
 1053 0110 0023     		movgt	r3, #0
 1054 0112 0123     		movle	r3, #1
 1055 0114 E2E7     		b	.L90
 1056              	.LVL113:
 1057              	.L85:
 155:Core/Src/sk6812.c **** 			{
 1058              		.loc 1 155 22 discriminator 7 view .LVU275
 1059              	.LBE9:
 163:Core/Src/sk6812.c **** 			for (int i = b1; (b1<b2)?(i <= b2):(i >= b2); (b1<b2)?(i++):(i--))
 1060              		.loc 1 163 8 is_stmt 1 view .LVU276
 163:Core/Src/sk6812.c **** 			for (int i = b1; (b1<b2)?(i <= b2):(i >= b2); (b1<b2)?(i++):(i--))
 1061              		.loc 1 163 10 is_stmt 0 view .LVU277
 1062 0116 4F45     		cmp	r7, r9
 1063 0118 8CD0     		beq	.L77
 164:Core/Src/sk6812.c **** 			{
 1064              		.loc 1 164 4 is_stmt 1 view .LVU278
 1065              	.LBB11:
 164:Core/Src/sk6812.c **** 			{
 1066              		.loc 1 164 9 view .LVU279
 1067              	.LVL114:
 164:Core/Src/sk6812.c **** 			{
 1068              		.loc 1 164 13 is_stmt 0 view .LVU280
 1069 011a BB46     		mov	fp, r7
 164:Core/Src/sk6812.c **** 			{
 1070              		.loc 1 164 4 view .LVU281
 1071 011c 01E0     		b	.L92
 1072              	.LVL115:
 1073              	.L93:
 164:Core/Src/sk6812.c **** 			{
 1074              		.loc 1 164 66 discriminator 3 view .LVU282
 1075 011e 0BF1FF3B 		add	fp, fp, #-1
 1076              	.LVL116:
 1077              	.L92:
 164:Core/Src/sk6812.c **** 			{
 1078              		.loc 1 164 21 is_stmt 1 discriminator 5 view .LVU283
 1079 0122 4F45     		cmp	r7, r9
 1080 0124 1BD2     		bcs	.L95
 164:Core/Src/sk6812.c **** 			{
 1081              		.loc 1 164 21 is_stmt 0 discriminator 6 view .LVU284
 1082 0126 D945     		cmp	r9, fp
 1083 0128 B4BF     		ite	lt
 1084 012a 0023     		movlt	r3, #0
 1085 012c 0123     		movge	r3, #1
 1086              	.L96:
 164:Core/Src/sk6812.c **** 			{
 1087              		.loc 1 164 4 discriminator 9 view .LVU285
 1088 012e 002B     		cmp	r3, #0
 1089 0130 80D0     		beq	.L77
 1090              	.LBB7:
 167:Core/Src/sk6812.c **** 				
ARM GAS  /tmp/ccG8QyXt.s 			page 26


 1091              		.loc 1 167 5 is_stmt 1 discriminator 10 view .LVU286
 1092 0132 5FFA8BF3 		uxtb	r3, fp
 1093 0136 3246     		mov	r2, r6
 1094 0138 2146     		mov	r1, r4
 1095 013a 9DF80400 		ldrb	r0, [sp, #4]	@ zero_extendqisi2
 1096 013e FFF7FEFF 		bl	SK_WritePixel
 1097              	.LVL117:
 169:Core/Src/sk6812.c **** 			}
 1098              		.loc 1 169 5 discriminator 10 view .LVU287
 169:Core/Src/sk6812.c **** 			}
 1099              		.loc 1 169 26 is_stmt 0 discriminator 10 view .LVU288
 1100 0142 A7EB0900 		sub	r0, r7, r9
 169:Core/Src/sk6812.c **** 			}
 1101              		.loc 1 169 20 discriminator 10 view .LVU289
 1102 0146 0028     		cmp	r0, #0
 1103 0148 B8BF     		it	lt
 1104 014a 4042     		rsblt	r0, r0, #0
 169:Core/Src/sk6812.c **** 			}
 1105              		.loc 1 169 5 discriminator 10 view .LVU290
 1106 014c BAFBF0F0 		udiv	r0, r10, r0
 1107 0150 FFF7FEFF 		bl	HAL_Delay
 1108              	.LVL118:
 1109              	.LBE7:
 164:Core/Src/sk6812.c **** 			{
 1110              		.loc 1 164 50 is_stmt 1 discriminator 10 view .LVU291
 164:Core/Src/sk6812.c **** 			{
 1111              		.loc 1 164 63 is_stmt 0 discriminator 10 view .LVU292
 1112 0154 4F45     		cmp	r7, r9
 1113 0156 E2D2     		bcs	.L93
 164:Core/Src/sk6812.c **** 			{
 1114              		.loc 1 164 60 discriminator 2 view .LVU293
 1115 0158 0BF1010B 		add	fp, fp, #1
 1116              	.LVL119:
 164:Core/Src/sk6812.c **** 			{
 1117              		.loc 1 164 60 discriminator 2 view .LVU294
 1118 015c E1E7     		b	.L92
 1119              	.L95:
 164:Core/Src/sk6812.c **** 			{
 1120              		.loc 1 164 21 discriminator 7 view .LVU295
 1121 015e D945     		cmp	r9, fp
 1122 0160 CCBF     		ite	gt
 1123 0162 0023     		movgt	r3, #0
 1124 0164 0123     		movle	r3, #1
 1125 0166 E2E7     		b	.L96
 1126              	.LVL120:
 1127              	.L126:
 164:Core/Src/sk6812.c **** 			{
 1128              		.loc 1 164 21 discriminator 7 view .LVU296
 1129              	.LBE11:
 173:Core/Src/sk6812.c **** 	{
 1130              		.loc 1 173 44 discriminator 8 view .LVU297
 1131 0168 4F45     		cmp	r7, r9
 1132 016a 3FF46FAF 		beq	.L100
 1133              	.L99:
 175:Core/Src/sk6812.c **** 			for (int i = g1; (g1<g2)?(i <= g2):(i >= g2); (g1<g2)?(i++):(i--))
 1134              		.loc 1 175 3 is_stmt 1 view .LVU298
 175:Core/Src/sk6812.c **** 			for (int i = g1; (g1<g2)?(i <= g2):(i >= g2); (g1<g2)?(i++):(i--))
ARM GAS  /tmp/ccG8QyXt.s 			page 27


 1135              		.loc 1 175 5 is_stmt 0 view .LVU299
 1136 016e AC42     		cmp	r4, r5
 1137 0170 0CD0     		beq	.L128
 184:Core/Src/sk6812.c **** 			for (int i = b1; (b1<b2)?(i <= b2):(i >= b2); (b1<b2)?(i++):(i--))
 1138              		.loc 1 184 8 is_stmt 1 view .LVU300
 184:Core/Src/sk6812.c **** 			for (int i = b1; (b1<b2)?(i <= b2):(i >= b2); (b1<b2)?(i++):(i--))
 1139              		.loc 1 184 10 is_stmt 0 view .LVU301
 1140 0172 4645     		cmp	r6, r8
 1141 0174 38D0     		beq	.L129
 193:Core/Src/sk6812.c **** 			for (int i = r1; (r1<r2)?(i <= r2):(i >= r2); (r1<r2)?(i++):(i--))
 1142              		.loc 1 193 8 is_stmt 1 view .LVU302
 193:Core/Src/sk6812.c **** 			for (int i = r1; (r1<r2)?(i <= r2):(i >= r2); (r1<r2)?(i++):(i--))
 1143              		.loc 1 193 10 is_stmt 0 view .LVU303
 1144 0176 4F45     		cmp	r7, r9
 1145 0178 7FF46BAF 		bne	.L70
 194:Core/Src/sk6812.c **** 			{
 1146              		.loc 1 194 4 is_stmt 1 view .LVU304
 1147              	.LBB12:
 194:Core/Src/sk6812.c **** 			{
 1148              		.loc 1 194 9 view .LVU305
 1149              	.LVL121:
 194:Core/Src/sk6812.c **** 			{
 1150              		.loc 1 194 13 is_stmt 0 view .LVU306
 1151 017c A346     		mov	fp, r4
 194:Core/Src/sk6812.c **** 			{
 1152              		.loc 1 194 4 view .LVU307
 1153 017e 64E0     		b	.L116
 1154              	.LVL122:
 1155              	.L127:
 194:Core/Src/sk6812.c **** 			{
 1156              		.loc 1 194 4 view .LVU308
 1157              	.LBE12:
 173:Core/Src/sk6812.c **** 	{
 1158              		.loc 1 173 60 discriminator 11 view .LVU309
 1159 0180 4645     		cmp	r6, r8
 1160 0182 3FF466AF 		beq	.L70
 173:Core/Src/sk6812.c **** 	{
 1161              		.loc 1 173 68 discriminator 12 view .LVU310
 1162 0186 4F45     		cmp	r7, r9
 1163 0188 F1D1     		bne	.L99
 1164              	.LBB14:
 1165 018a 62E7     		b	.L70
 1166              	.L128:
 1167              	.LBE14:
 176:Core/Src/sk6812.c **** 			{
 1168              		.loc 1 176 4 is_stmt 1 view .LVU311
 1169              	.LBB15:
 176:Core/Src/sk6812.c **** 			{
 1170              		.loc 1 176 9 view .LVU312
 1171              	.LVL123:
 176:Core/Src/sk6812.c **** 			{
 1172              		.loc 1 176 13 is_stmt 0 view .LVU313
 1173 018c B346     		mov	fp, r6
 176:Core/Src/sk6812.c **** 			{
 1174              		.loc 1 176 4 view .LVU314
 1175 018e 01E0     		b	.L103
 1176              	.LVL124:
ARM GAS  /tmp/ccG8QyXt.s 			page 28


 1177              	.L104:
 176:Core/Src/sk6812.c **** 			{
 1178              		.loc 1 176 66 discriminator 3 view .LVU315
 1179 0190 0BF1FF3B 		add	fp, fp, #-1
 1180              	.LVL125:
 1181              	.L103:
 176:Core/Src/sk6812.c **** 			{
 1182              		.loc 1 176 21 is_stmt 1 discriminator 5 view .LVU316
 1183 0194 4645     		cmp	r6, r8
 1184 0196 22D2     		bcs	.L106
 176:Core/Src/sk6812.c **** 			{
 1185              		.loc 1 176 21 is_stmt 0 discriminator 6 view .LVU317
 1186 0198 D845     		cmp	r8, fp
 1187 019a B4BF     		ite	lt
 1188 019c 0023     		movlt	r3, #0
 1189 019e 0123     		movge	r3, #1
 1190              	.L107:
 176:Core/Src/sk6812.c **** 			{
 1191              		.loc 1 176 4 discriminator 9 view .LVU318
 1192 01a0 002B     		cmp	r3, #0
 1193 01a2 3FF456AF 		beq	.L70
 1194              	.LBB16:
 179:Core/Src/sk6812.c **** 				
 1195              		.loc 1 179 5 is_stmt 1 discriminator 10 view .LVU319
 1196 01a6 5FFA8BF2 		uxtb	r2, fp
 179:Core/Src/sk6812.c **** 				
 1197              		.loc 1 179 34 is_stmt 0 discriminator 10 view .LVU320
 1198 01aa A9EB0703 		sub	r3, r9, r7
 179:Core/Src/sk6812.c **** 				
 1199              		.loc 1 179 45 discriminator 10 view .LVU321
 1200 01ae A6EB0805 		sub	r5, r6, r8
 179:Core/Src/sk6812.c **** 				
 1201              		.loc 1 179 39 discriminator 10 view .LVU322
 1202 01b2 002D     		cmp	r5, #0
 1203 01b4 B8BF     		it	lt
 1204 01b6 6D42     		rsblt	r5, r5, #0
 179:Core/Src/sk6812.c **** 				
 1205              		.loc 1 179 38 discriminator 10 view .LVU323
 1206 01b8 93FBF5F3 		sdiv	r3, r3, r5
 179:Core/Src/sk6812.c **** 				
 1207              		.loc 1 179 5 discriminator 10 view .LVU324
 1208 01bc 03FB0273 		mla	r3, r3, r2, r7
 1209 01c0 DBB2     		uxtb	r3, r3
 1210 01c2 2146     		mov	r1, r4
 1211 01c4 9DF80400 		ldrb	r0, [sp, #4]	@ zero_extendqisi2
 1212 01c8 FFF7FEFF 		bl	SK_WritePixel
 1213              	.LVL126:
 181:Core/Src/sk6812.c **** 			}
 1214              		.loc 1 181 5 is_stmt 1 discriminator 10 view .LVU325
 1215 01cc BAFBF5F0 		udiv	r0, r10, r5
 1216 01d0 FFF7FEFF 		bl	HAL_Delay
 1217              	.LVL127:
 1218              	.LBE16:
 176:Core/Src/sk6812.c **** 			{
 1219              		.loc 1 176 50 discriminator 10 view .LVU326
 176:Core/Src/sk6812.c **** 			{
 1220              		.loc 1 176 63 is_stmt 0 discriminator 10 view .LVU327
ARM GAS  /tmp/ccG8QyXt.s 			page 29


 1221 01d4 4645     		cmp	r6, r8
 1222 01d6 DBD2     		bcs	.L104
 176:Core/Src/sk6812.c **** 			{
 1223              		.loc 1 176 60 discriminator 2 view .LVU328
 1224 01d8 0BF1010B 		add	fp, fp, #1
 1225              	.LVL128:
 176:Core/Src/sk6812.c **** 			{
 1226              		.loc 1 176 60 discriminator 2 view .LVU329
 1227 01dc DAE7     		b	.L103
 1228              	.L106:
 176:Core/Src/sk6812.c **** 			{
 1229              		.loc 1 176 21 discriminator 7 view .LVU330
 1230 01de D845     		cmp	r8, fp
 1231 01e0 CCBF     		ite	gt
 1232 01e2 0023     		movgt	r3, #0
 1233 01e4 0123     		movle	r3, #1
 1234 01e6 DBE7     		b	.L107
 1235              	.LVL129:
 1236              	.L129:
 176:Core/Src/sk6812.c **** 			{
 1237              		.loc 1 176 21 discriminator 7 view .LVU331
 1238              	.LBE15:
 185:Core/Src/sk6812.c **** 			{
 1239              		.loc 1 185 4 is_stmt 1 view .LVU332
 1240              	.LBB17:
 185:Core/Src/sk6812.c **** 			{
 1241              		.loc 1 185 9 view .LVU333
 185:Core/Src/sk6812.c **** 			{
 1242              		.loc 1 185 13 is_stmt 0 view .LVU334
 1243 01e8 BB46     		mov	fp, r7
 185:Core/Src/sk6812.c **** 			{
 1244              		.loc 1 185 4 view .LVU335
 1245 01ea 01E0     		b	.L110
 1246              	.LVL130:
 1247              	.L111:
 185:Core/Src/sk6812.c **** 			{
 1248              		.loc 1 185 66 discriminator 3 view .LVU336
 1249 01ec 0BF1FF3B 		add	fp, fp, #-1
 1250              	.LVL131:
 1251              	.L110:
 185:Core/Src/sk6812.c **** 			{
 1252              		.loc 1 185 21 is_stmt 1 discriminator 5 view .LVU337
 1253 01f0 4F45     		cmp	r7, r9
 1254 01f2 23D2     		bcs	.L113
 185:Core/Src/sk6812.c **** 			{
 1255              		.loc 1 185 21 is_stmt 0 discriminator 6 view .LVU338
 1256 01f4 D945     		cmp	r9, fp
 1257 01f6 B4BF     		ite	lt
 1258 01f8 0023     		movlt	r3, #0
 1259 01fa 0123     		movge	r3, #1
 1260              	.L114:
 185:Core/Src/sk6812.c **** 			{
 1261              		.loc 1 185 4 discriminator 9 view .LVU339
 1262 01fc 002B     		cmp	r3, #0
 1263 01fe 3FF428AF 		beq	.L70
 1264              	.LBB18:
 188:Core/Src/sk6812.c **** 				
ARM GAS  /tmp/ccG8QyXt.s 			page 30


 1265              		.loc 1 188 5 is_stmt 1 discriminator 10 view .LVU340
 188:Core/Src/sk6812.c **** 				
 1266              		.loc 1 188 29 is_stmt 0 discriminator 10 view .LVU341
 1267 0202 291B     		subs	r1, r5, r4
 188:Core/Src/sk6812.c **** 				
 1268              		.loc 1 188 40 discriminator 10 view .LVU342
 1269 0204 A7EB0908 		sub	r8, r7, r9
 188:Core/Src/sk6812.c **** 				
 1270              		.loc 1 188 34 discriminator 10 view .LVU343
 1271 0208 B8F1000F 		cmp	r8, #0
 1272 020c B8BF     		it	lt
 1273 020e C8F10008 		rsblt	r8, r8, #0
 188:Core/Src/sk6812.c **** 				
 1274              		.loc 1 188 33 discriminator 10 view .LVU344
 1275 0212 91FBF8F1 		sdiv	r1, r1, r8
 188:Core/Src/sk6812.c **** 				
 1276              		.loc 1 188 5 discriminator 10 view .LVU345
 1277 0216 5FFA8BF3 		uxtb	r3, fp
 1278 021a 01FB0341 		mla	r1, r1, r3, r4
 1279 021e 3246     		mov	r2, r6
 1280 0220 C9B2     		uxtb	r1, r1
 1281 0222 9DF80400 		ldrb	r0, [sp, #4]	@ zero_extendqisi2
 1282 0226 FFF7FEFF 		bl	SK_WritePixel
 1283              	.LVL132:
 190:Core/Src/sk6812.c **** 			}
 1284              		.loc 1 190 5 is_stmt 1 discriminator 10 view .LVU346
 1285 022a BAFBF8F0 		udiv	r0, r10, r8
 1286 022e FFF7FEFF 		bl	HAL_Delay
 1287              	.LVL133:
 1288              	.LBE18:
 185:Core/Src/sk6812.c **** 			{
 1289              		.loc 1 185 50 discriminator 10 view .LVU347
 185:Core/Src/sk6812.c **** 			{
 1290              		.loc 1 185 63 is_stmt 0 discriminator 10 view .LVU348
 1291 0232 4F45     		cmp	r7, r9
 1292 0234 DAD2     		bcs	.L111
 185:Core/Src/sk6812.c **** 			{
 1293              		.loc 1 185 60 discriminator 2 view .LVU349
 1294 0236 0BF1010B 		add	fp, fp, #1
 1295              	.LVL134:
 185:Core/Src/sk6812.c **** 			{
 1296              		.loc 1 185 60 discriminator 2 view .LVU350
 1297 023a D9E7     		b	.L110
 1298              	.L113:
 185:Core/Src/sk6812.c **** 			{
 1299              		.loc 1 185 21 discriminator 7 view .LVU351
 1300 023c D945     		cmp	r9, fp
 1301 023e CCBF     		ite	gt
 1302 0240 0023     		movgt	r3, #0
 1303 0242 0123     		movle	r3, #1
 1304 0244 DAE7     		b	.L114
 1305              	.LVL135:
 1306              	.L117:
 185:Core/Src/sk6812.c **** 			{
 1307              		.loc 1 185 21 discriminator 7 view .LVU352
 1308              	.LBE17:
 1309              	.LBB19:
ARM GAS  /tmp/ccG8QyXt.s 			page 31


 194:Core/Src/sk6812.c **** 			{
 1310              		.loc 1 194 66 discriminator 3 view .LVU353
 1311 0246 0BF1FF3B 		add	fp, fp, #-1
 1312              	.LVL136:
 1313              	.L116:
 194:Core/Src/sk6812.c **** 			{
 1314              		.loc 1 194 21 is_stmt 1 discriminator 5 view .LVU354
 1315 024a AC42     		cmp	r4, r5
 1316 024c 24D2     		bcs	.L119
 194:Core/Src/sk6812.c **** 			{
 1317              		.loc 1 194 21 is_stmt 0 discriminator 6 view .LVU355
 1318 024e 5D45     		cmp	r5, fp
 1319 0250 B4BF     		ite	lt
 1320 0252 0023     		movlt	r3, #0
 1321 0254 0123     		movge	r3, #1
 1322              	.L120:
 194:Core/Src/sk6812.c **** 			{
 1323              		.loc 1 194 4 discriminator 9 view .LVU356
 1324 0256 002B     		cmp	r3, #0
 1325 0258 3FF4FBAE 		beq	.L70
 1326              	.LBB13:
 197:Core/Src/sk6812.c **** 				
 1327              		.loc 1 197 5 is_stmt 1 discriminator 10 view .LVU357
 1328 025c 5FFA8BF1 		uxtb	r1, fp
 197:Core/Src/sk6812.c **** 				
 1329              		.loc 1 197 31 is_stmt 0 discriminator 10 view .LVU358
 1330 0260 A8EB0602 		sub	r2, r8, r6
 197:Core/Src/sk6812.c **** 				
 1331              		.loc 1 197 42 discriminator 10 view .LVU359
 1332 0264 A4EB0509 		sub	r9, r4, r5
 197:Core/Src/sk6812.c **** 				
 1333              		.loc 1 197 36 discriminator 10 view .LVU360
 1334 0268 B9F1000F 		cmp	r9, #0
 1335 026c B8BF     		it	lt
 1336 026e C9F10009 		rsblt	r9, r9, #0
 197:Core/Src/sk6812.c **** 				
 1337              		.loc 1 197 35 discriminator 10 view .LVU361
 1338 0272 92FBF9F2 		sdiv	r2, r2, r9
 197:Core/Src/sk6812.c **** 				
 1339              		.loc 1 197 5 discriminator 10 view .LVU362
 1340 0276 02FB0162 		mla	r2, r2, r1, r6
 1341 027a 3B46     		mov	r3, r7
 1342 027c D2B2     		uxtb	r2, r2
 1343 027e 9DF80400 		ldrb	r0, [sp, #4]	@ zero_extendqisi2
 1344 0282 FFF7FEFF 		bl	SK_WritePixel
 1345              	.LVL137:
 199:Core/Src/sk6812.c **** 			}
 1346              		.loc 1 199 5 is_stmt 1 discriminator 10 view .LVU363
 1347 0286 BAFBF9F0 		udiv	r0, r10, r9
 1348 028a FFF7FEFF 		bl	HAL_Delay
 1349              	.LVL138:
 1350              	.LBE13:
 194:Core/Src/sk6812.c **** 			{
 1351              		.loc 1 194 50 discriminator 10 view .LVU364
 194:Core/Src/sk6812.c **** 			{
 1352              		.loc 1 194 63 is_stmt 0 discriminator 10 view .LVU365
 1353 028e AC42     		cmp	r4, r5
ARM GAS  /tmp/ccG8QyXt.s 			page 32


 1354 0290 D9D2     		bcs	.L117
 194:Core/Src/sk6812.c **** 			{
 1355              		.loc 1 194 60 discriminator 2 view .LVU366
 1356 0292 0BF1010B 		add	fp, fp, #1
 1357              	.LVL139:
 194:Core/Src/sk6812.c **** 			{
 1358              		.loc 1 194 60 discriminator 2 view .LVU367
 1359 0296 D8E7     		b	.L116
 1360              	.L119:
 194:Core/Src/sk6812.c **** 			{
 1361              		.loc 1 194 21 discriminator 7 view .LVU368
 1362 0298 5D45     		cmp	r5, fp
 1363 029a CCBF     		ite	gt
 1364 029c 0023     		movgt	r3, #0
 1365 029e 0123     		movle	r3, #1
 1366 02a0 D9E7     		b	.L120
 1367              	.LBE19:
 1368              		.cfi_endproc
 1369              	.LFE73:
 1371              		.global	__aeabi_ui2d
 1372              		.global	__aeabi_dmul
 1373              		.global	__aeabi_d2uiz
 1374              		.global	__aeabi_dadd
 1375              		.global	__aeabi_dsub
 1376              		.section	.text.SK_RainbowStep,"ax",%progbits
 1377              		.align	1
 1378              		.global	SK_RainbowStep
 1379              		.syntax unified
 1380              		.thumb
 1381              		.thumb_func
 1382              		.fpu softvfp
 1384              	SK_RainbowStep:
 1385              	.LVL140:
 1386              	.LFB74:
 212:Core/Src/sk6812.c **** // SK_RGBtoRGB(255,0,0,255,255,255,0,time,1);红黄
 213:Core/Src/sk6812.c **** 	// SK_RGBtoRGB(255,255,0,0,255,0,time,1);
 214:Core/Src/sk6812.c **** 	// SK_RGBtoRGB(0,255,0,0,255,255,time,1);
 215:Core/Src/sk6812.c **** 	// SK_RGBtoRGB(0,255,255,0,0,255,time,1);
 216:Core/Src/sk6812.c **** 	// SK_RGBtoRGB(0,0,255,255,0,255,time,1);
 217:Core/Src/sk6812.c **** 	// SK_RGBtoRGB(255,0,255,255,0,0,time,1);
 218:Core/Src/sk6812.c **** void SK_RainbowStep(uint32_t pos,uint16_t led){
 1387              		.loc 1 218 47 is_stmt 1 view -0
 1388              		.cfi_startproc
 1389              		@ args = 0, pretend = 0, frame = 0
 1390              		@ frame_needed = 0, uses_anonymous_args = 0
 1391              		.loc 1 218 47 is_stmt 0 view .LVU370
 1392 0000 10B5     		push	{r4, lr}
 1393              	.LCFI16:
 1394              		.cfi_def_cfa_offset 8
 1395              		.cfi_offset 4, -8
 1396              		.cfi_offset 14, -4
 1397 0002 0346     		mov	r3, r0
 1398 0004 0C46     		mov	r4, r1
 219:Core/Src/sk6812.c **** 	if (pos/256==0)
 1399              		.loc 1 219 2 is_stmt 1 view .LVU371
 1400              		.loc 1 219 5 is_stmt 0 view .LVU372
 1401 0006 FF28     		cmp	r0, #255
ARM GAS  /tmp/ccG8QyXt.s 			page 33


 1402 0008 41D9     		bls	.L167
 220:Core/Src/sk6812.c **** 	{
 221:Core/Src/sk6812.c **** 		//255,0,0 -> 255,165,0 红橙
 222:Core/Src/sk6812.c **** 		uint16_t i=0;
 223:Core/Src/sk6812.c **** 		uint16_t margin=165;
 224:Core/Src/sk6812.c **** 		while (i<256)
 225:Core/Src/sk6812.c **** 		{
 226:Core/Src/sk6812.c **** 			if (i==pos%256)
 227:Core/Src/sk6812.c **** 			{
 228:Core/Src/sk6812.c **** 				SK_WritePixel(led,255,pos%256/256.0*margin,0);
 229:Core/Src/sk6812.c **** 				break;
 230:Core/Src/sk6812.c **** 			}
 231:Core/Src/sk6812.c **** 			i++;
 232:Core/Src/sk6812.c **** 		}
 233:Core/Src/sk6812.c **** 		
 234:Core/Src/sk6812.c **** 	}
 235:Core/Src/sk6812.c **** 	else if (pos/256==1) 
 1403              		.loc 1 235 7 is_stmt 1 view .LVU373
 1404              		.loc 1 235 18 is_stmt 0 view .LVU374
 1405 000a A0F58072 		sub	r2, r0, #256
 1406              		.loc 1 235 10 view .LVU375
 1407 000e FF2A     		cmp	r2, #255
 1408 0010 5ED9     		bls	.L168
 236:Core/Src/sk6812.c **** 	{
 237:Core/Src/sk6812.c **** 		//255,165,0 -> 255,255,0 橙黄
 238:Core/Src/sk6812.c **** 		uint16_t i=0;
 239:Core/Src/sk6812.c **** 		uint16_t margin=255-165;
 240:Core/Src/sk6812.c **** 		while (i<256)
 241:Core/Src/sk6812.c **** 		{
 242:Core/Src/sk6812.c **** 			if (i==pos%256)
 243:Core/Src/sk6812.c **** 			{
 244:Core/Src/sk6812.c **** 				SK_WritePixel(led,255,165+pos%256/256.0*margin,0);
 245:Core/Src/sk6812.c **** 				break;
 246:Core/Src/sk6812.c **** 			}
 247:Core/Src/sk6812.c **** 			i++;
 248:Core/Src/sk6812.c **** 		}
 249:Core/Src/sk6812.c **** 		
 250:Core/Src/sk6812.c **** 	}
 251:Core/Src/sk6812.c **** 	else if (pos/256==2)
 1409              		.loc 1 251 7 is_stmt 1 view .LVU376
 1410              		.loc 1 251 18 is_stmt 0 view .LVU377
 1411 0012 A0F50072 		sub	r2, r0, #512
 1412              		.loc 1 251 10 view .LVU378
 1413 0016 FF2A     		cmp	r2, #255
 1414 0018 72D9     		bls	.L169
 252:Core/Src/sk6812.c **** 	{
 253:Core/Src/sk6812.c **** 		//255,255,0 -> 0,255,0 黄绿
 254:Core/Src/sk6812.c **** 		uint16_t i=0;
 255:Core/Src/sk6812.c **** 		uint16_t margin=255;
 256:Core/Src/sk6812.c **** 		while (i<256)
 257:Core/Src/sk6812.c **** 		{
 258:Core/Src/sk6812.c **** 			if (i==pos%256)
 259:Core/Src/sk6812.c **** 			{
 260:Core/Src/sk6812.c **** 				SK_WritePixel(led,255-pos%256,255,0);
 261:Core/Src/sk6812.c **** 				break;
 262:Core/Src/sk6812.c **** 			}
 263:Core/Src/sk6812.c **** 			i++;
ARM GAS  /tmp/ccG8QyXt.s 			page 34


 264:Core/Src/sk6812.c **** 		}
 265:Core/Src/sk6812.c **** 		
 266:Core/Src/sk6812.c **** 	}
 267:Core/Src/sk6812.c **** 	else if (pos/256==3) 
 1415              		.loc 1 267 7 is_stmt 1 view .LVU379
 1416              		.loc 1 267 18 is_stmt 0 view .LVU380
 1417 001a A0F54072 		sub	r2, r0, #768
 1418              		.loc 1 267 10 view .LVU381
 1419 001e FF2A     		cmp	r2, #255
 1420 0020 77D9     		bls	.L170
 268:Core/Src/sk6812.c **** 	{
 269:Core/Src/sk6812.c **** 		//0,255,0 -> 0,255,255 绿青
 270:Core/Src/sk6812.c **** 		uint16_t i=0;
 271:Core/Src/sk6812.c **** 		uint16_t margin=255;
 272:Core/Src/sk6812.c **** 		while (i<256)
 273:Core/Src/sk6812.c **** 		{
 274:Core/Src/sk6812.c **** 			if (i==pos%256)
 275:Core/Src/sk6812.c **** 			{
 276:Core/Src/sk6812.c **** 				SK_WritePixel(led,0,255,pos%256);
 277:Core/Src/sk6812.c **** 				break;
 278:Core/Src/sk6812.c **** 			}
 279:Core/Src/sk6812.c **** 			i++;
 280:Core/Src/sk6812.c **** 		}
 281:Core/Src/sk6812.c **** 		
 282:Core/Src/sk6812.c **** 	}
 283:Core/Src/sk6812.c **** 	else if (pos/256==4)
 1421              		.loc 1 283 7 is_stmt 1 view .LVU382
 1422              		.loc 1 283 18 is_stmt 0 view .LVU383
 1423 0022 A0F58062 		sub	r2, r0, #1024
 1424              		.loc 1 283 10 view .LVU384
 1425 0026 FF2A     		cmp	r2, #255
 1426 0028 40F29680 		bls	.L171
 284:Core/Src/sk6812.c **** 	{
 285:Core/Src/sk6812.c **** 		//0,255,255 -> 0,127,255 青 天蓝
 286:Core/Src/sk6812.c **** 		uint16_t i=0;
 287:Core/Src/sk6812.c **** 		uint16_t margin=255-127;
 288:Core/Src/sk6812.c **** 		while (i<256)
 289:Core/Src/sk6812.c **** 		{
 290:Core/Src/sk6812.c **** 			if (i==pos%256)
 291:Core/Src/sk6812.c **** 			{
 292:Core/Src/sk6812.c **** 				SK_WritePixel(led,0,255-pos%256/256.0*margin,255);
 293:Core/Src/sk6812.c **** 				break;
 294:Core/Src/sk6812.c **** 			}
 295:Core/Src/sk6812.c **** 			i++;
 296:Core/Src/sk6812.c **** 		}
 297:Core/Src/sk6812.c **** 		
 298:Core/Src/sk6812.c **** 	}
 299:Core/Src/sk6812.c **** 	else if (pos/256==5)
 1427              		.loc 1 299 7 is_stmt 1 view .LVU385
 1428              		.loc 1 299 18 is_stmt 0 view .LVU386
 1429 002c A0F5A062 		sub	r2, r0, #1280
 1430              		.loc 1 299 10 view .LVU387
 1431 0030 FF2A     		cmp	r2, #255
 1432 0032 40F2B580 		bls	.L172
 300:Core/Src/sk6812.c **** 	{
 301:Core/Src/sk6812.c **** 		//0,127,255 -> 0,0,255 天蓝 深蓝
 302:Core/Src/sk6812.c **** 		uint16_t i=0;
ARM GAS  /tmp/ccG8QyXt.s 			page 35


 303:Core/Src/sk6812.c **** 		uint16_t margin=127;
 304:Core/Src/sk6812.c **** 		while (i<256)
 305:Core/Src/sk6812.c **** 		{
 306:Core/Src/sk6812.c **** 			if (i==pos%256)
 307:Core/Src/sk6812.c **** 			{
 308:Core/Src/sk6812.c **** 				SK_WritePixel(led,0,127-pos%256/256.0*margin,255);
 309:Core/Src/sk6812.c **** 				break;
 310:Core/Src/sk6812.c **** 			}
 311:Core/Src/sk6812.c **** 			i++;
 312:Core/Src/sk6812.c **** 		}
 313:Core/Src/sk6812.c **** 		
 314:Core/Src/sk6812.c **** 	}
 315:Core/Src/sk6812.c **** 	else if (pos/256==6)
 1433              		.loc 1 315 7 is_stmt 1 view .LVU388
 1434              		.loc 1 315 18 is_stmt 0 view .LVU389
 1435 0036 A0F5C062 		sub	r2, r0, #1536
 1436              		.loc 1 315 10 view .LVU390
 1437 003a FF2A     		cmp	r2, #255
 1438 003c 40F2CE80 		bls	.L173
 316:Core/Src/sk6812.c **** 	{
 317:Core/Src/sk6812.c **** 		//0,0,255 -> 135,0,255 蓝靛
 318:Core/Src/sk6812.c **** 		uint16_t i=0;
 319:Core/Src/sk6812.c **** 		uint16_t margin=135;
 320:Core/Src/sk6812.c **** 		while (i<256)
 321:Core/Src/sk6812.c **** 		{
 322:Core/Src/sk6812.c **** 			if (i==pos%256)
 323:Core/Src/sk6812.c **** 			{
 324:Core/Src/sk6812.c **** 				SK_WritePixel(led,pos%256/256.0*margin,0,255);
 325:Core/Src/sk6812.c **** 				break;
 326:Core/Src/sk6812.c **** 			}
 327:Core/Src/sk6812.c **** 			i++;
 328:Core/Src/sk6812.c **** 		}
 329:Core/Src/sk6812.c **** 		
 330:Core/Src/sk6812.c **** 	}
 331:Core/Src/sk6812.c **** 	else if (pos/256==7) 
 1439              		.loc 1 331 7 is_stmt 1 view .LVU391
 1440              		.loc 1 331 18 is_stmt 0 view .LVU392
 1441 0040 A0F5E062 		sub	r2, r0, #1792
 1442              		.loc 1 331 10 view .LVU393
 1443 0044 FF2A     		cmp	r2, #255
 1444 0046 40F2EB80 		bls	.L174
 332:Core/Src/sk6812.c **** 	{
 333:Core/Src/sk6812.c **** 		//135,0,255 -> 255,0,255 靛紫
 334:Core/Src/sk6812.c **** 		uint16_t i=0;
 335:Core/Src/sk6812.c **** 		uint16_t margin=255-135;
 336:Core/Src/sk6812.c **** 		while (i<256)
 337:Core/Src/sk6812.c **** 		{
 338:Core/Src/sk6812.c **** 			if (i==pos%256)
 339:Core/Src/sk6812.c **** 			{
 340:Core/Src/sk6812.c **** 				SK_WritePixel(led,135+pos%256/256.0*margin,0,255);
 341:Core/Src/sk6812.c **** 				break;
 342:Core/Src/sk6812.c **** 			}
 343:Core/Src/sk6812.c **** 			i++;
 344:Core/Src/sk6812.c **** 		}
 345:Core/Src/sk6812.c **** 		
 346:Core/Src/sk6812.c **** 	}
 347:Core/Src/sk6812.c **** 	else if (pos/256==8) 
ARM GAS  /tmp/ccG8QyXt.s 			page 36


 1445              		.loc 1 347 7 is_stmt 1 view .LVU394
 1446              		.loc 1 347 18 is_stmt 0 view .LVU395
 1447 004a A0F50062 		sub	r2, r0, #2048
 1448              		.loc 1 347 10 view .LVU396
 1449 004e FF2A     		cmp	r2, #255
 1450 0050 1CD8     		bhi	.L130
 1451              	.LBB20:
 348:Core/Src/sk6812.c **** 	{
 349:Core/Src/sk6812.c **** 		//255,0,255 -> 255,0,0 紫红
 350:Core/Src/sk6812.c **** 		uint16_t i=0;
 1452              		.loc 1 350 12 view .LVU397
 1453 0052 0022     		movs	r2, #0
 1454              	.LVL141:
 1455              	.L164:
 351:Core/Src/sk6812.c **** 		uint16_t margin=255;
 352:Core/Src/sk6812.c **** 		while (i<256)
 1456              		.loc 1 352 9 is_stmt 1 view .LVU398
 1457 0054 FF2A     		cmp	r2, #255
 1458 0056 19D8     		bhi	.L130
 353:Core/Src/sk6812.c **** 		{
 354:Core/Src/sk6812.c **** 			if (i==pos%256)
 1459              		.loc 1 354 4 view .LVU399
 1460              		.loc 1 354 14 is_stmt 0 view .LVU400
 1461 0058 D9B2     		uxtb	r1, r3
 1462              		.loc 1 354 7 view .LVU401
 1463 005a 8A42     		cmp	r2, r1
 1464 005c 00F0EA80 		beq	.L185
 355:Core/Src/sk6812.c **** 			{
 356:Core/Src/sk6812.c **** 				SK_WritePixel(led,255,0,255-pos%256);
 357:Core/Src/sk6812.c **** 				break;
 358:Core/Src/sk6812.c **** 			}
 359:Core/Src/sk6812.c **** 			i++;
 1465              		.loc 1 359 4 is_stmt 1 view .LVU402
 1466              		.loc 1 359 5 is_stmt 0 view .LVU403
 1467 0060 0132     		adds	r2, r2, #1
 1468              	.LVL142:
 1469              		.loc 1 359 5 view .LVU404
 1470 0062 92B2     		uxth	r2, r2
 1471              	.LVL143:
 1472              		.loc 1 359 5 view .LVU405
 1473 0064 F6E7     		b	.L164
 1474              	.LVL144:
 1475              	.L186:
 1476              		.loc 1 359 5 view .LVU406
 1477              	.LBE20:
 1478              	.LBB21:
 228:Core/Src/sk6812.c **** 				break;
 1479              		.loc 1 228 5 is_stmt 1 view .LVU407
 228:Core/Src/sk6812.c **** 				break;
 1480              		.loc 1 228 34 is_stmt 0 view .LVU408
 1481 0066 FFF7FEFF 		bl	__aeabi_ui2d
 1482              	.LVL145:
 228:Core/Src/sk6812.c **** 				break;
 1483              		.loc 1 228 34 view .LVU409
 1484 006a 0022     		movs	r2, #0
 1485 006c 7E4B     		ldr	r3, .L193+32
 1486 006e FFF7FEFF 		bl	__aeabi_dmul
ARM GAS  /tmp/ccG8QyXt.s 			page 37


 1487              	.LVL146:
 228:Core/Src/sk6812.c **** 				break;
 1488              		.loc 1 228 40 view .LVU410
 1489 0072 75A3     		adr	r3, .L193
 1490 0074 D3E90023 		ldrd	r2, [r3]
 1491 0078 FFF7FEFF 		bl	__aeabi_dmul
 1492              	.LVL147:
 228:Core/Src/sk6812.c **** 				break;
 1493              		.loc 1 228 5 view .LVU411
 1494 007c FFF7FEFF 		bl	__aeabi_d2uiz
 1495              	.LVL148:
 1496 0080 0023     		movs	r3, #0
 1497 0082 C2B2     		uxtb	r2, r0
 1498 0084 FF21     		movs	r1, #255
 1499 0086 E0B2     		uxtb	r0, r4
 1500 0088 FFF7FEFF 		bl	SK_WritePixel
 1501              	.LVL149:
 229:Core/Src/sk6812.c **** 			}
 1502              		.loc 1 229 5 is_stmt 1 view .LVU412
 1503              	.L130:
 229:Core/Src/sk6812.c **** 			}
 1504              		.loc 1 229 5 is_stmt 0 view .LVU413
 1505              	.LBE21:
 360:Core/Src/sk6812.c **** 		}
 361:Core/Src/sk6812.c **** 		
 362:Core/Src/sk6812.c **** 	}
 363:Core/Src/sk6812.c **** 	
 364:Core/Src/sk6812.c **** }
 1506              		.loc 1 364 1 view .LVU414
 1507 008c 10BD     		pop	{r4, pc}
 1508              	.LVL150:
 1509              	.L167:
 1510              	.LBB22:
 222:Core/Src/sk6812.c **** 		uint16_t margin=165;
 1511              		.loc 1 222 12 view .LVU415
 1512 008e 0022     		movs	r2, #0
 1513              	.LVL151:
 1514              	.L131:
 224:Core/Src/sk6812.c **** 		{
 1515              		.loc 1 224 9 is_stmt 1 view .LVU416
 1516 0090 FF2A     		cmp	r2, #255
 1517 0092 FBD8     		bhi	.L130
 226:Core/Src/sk6812.c **** 			{
 1518              		.loc 1 226 4 view .LVU417
 226:Core/Src/sk6812.c **** 			{
 1519              		.loc 1 226 14 is_stmt 0 view .LVU418
 1520 0094 D8B2     		uxtb	r0, r3
 226:Core/Src/sk6812.c **** 			{
 1521              		.loc 1 226 7 view .LVU419
 1522 0096 8242     		cmp	r2, r0
 1523 0098 E5D0     		beq	.L186
 231:Core/Src/sk6812.c **** 		}
 1524              		.loc 1 231 4 is_stmt 1 view .LVU420
 231:Core/Src/sk6812.c **** 		}
 1525              		.loc 1 231 5 is_stmt 0 view .LVU421
 1526 009a 0132     		adds	r2, r2, #1
 1527              	.LVL152:
ARM GAS  /tmp/ccG8QyXt.s 			page 38


 231:Core/Src/sk6812.c **** 		}
 1528              		.loc 1 231 5 view .LVU422
 1529 009c 92B2     		uxth	r2, r2
 1530              	.LVL153:
 231:Core/Src/sk6812.c **** 		}
 1531              		.loc 1 231 5 view .LVU423
 1532 009e F7E7     		b	.L131
 1533              	.LVL154:
 1534              	.L187:
 231:Core/Src/sk6812.c **** 		}
 1535              		.loc 1 231 5 view .LVU424
 1536              	.LBE22:
 1537              	.LBB23:
 244:Core/Src/sk6812.c **** 				break;
 1538              		.loc 1 244 5 is_stmt 1 view .LVU425
 244:Core/Src/sk6812.c **** 				break;
 1539              		.loc 1 244 38 is_stmt 0 view .LVU426
 1540 00a0 FFF7FEFF 		bl	__aeabi_ui2d
 1541              	.LVL155:
 244:Core/Src/sk6812.c **** 				break;
 1542              		.loc 1 244 38 view .LVU427
 1543 00a4 0022     		movs	r2, #0
 1544 00a6 704B     		ldr	r3, .L193+32
 1545 00a8 FFF7FEFF 		bl	__aeabi_dmul
 1546              	.LVL156:
 244:Core/Src/sk6812.c **** 				break;
 1547              		.loc 1 244 44 view .LVU428
 1548 00ac 0022     		movs	r2, #0
 1549 00ae 6F4B     		ldr	r3, .L193+36
 1550 00b0 FFF7FEFF 		bl	__aeabi_dmul
 1551              	.LVL157:
 244:Core/Src/sk6812.c **** 				break;
 1552              		.loc 1 244 30 view .LVU429
 1553 00b4 64A3     		adr	r3, .L193
 1554 00b6 D3E90023 		ldrd	r2, [r3]
 1555 00ba FFF7FEFF 		bl	__aeabi_dadd
 1556              	.LVL158:
 244:Core/Src/sk6812.c **** 				break;
 1557              		.loc 1 244 5 view .LVU430
 1558 00be FFF7FEFF 		bl	__aeabi_d2uiz
 1559              	.LVL159:
 1560 00c2 0023     		movs	r3, #0
 1561 00c4 C2B2     		uxtb	r2, r0
 1562 00c6 FF21     		movs	r1, #255
 1563 00c8 E0B2     		uxtb	r0, r4
 1564 00ca FFF7FEFF 		bl	SK_WritePixel
 1565              	.LVL160:
 245:Core/Src/sk6812.c **** 			}
 1566              		.loc 1 245 5 is_stmt 1 view .LVU431
 1567 00ce DDE7     		b	.L130
 1568              	.LVL161:
 1569              	.L168:
 238:Core/Src/sk6812.c **** 		uint16_t margin=255-165;
 1570              		.loc 1 238 12 is_stmt 0 view .LVU432
 1571 00d0 0022     		movs	r2, #0
 1572              	.LVL162:
 1573              	.L136:
ARM GAS  /tmp/ccG8QyXt.s 			page 39


 240:Core/Src/sk6812.c **** 		{
 1574              		.loc 1 240 9 is_stmt 1 view .LVU433
 1575 00d2 FF2A     		cmp	r2, #255
 1576 00d4 DAD8     		bhi	.L130
 242:Core/Src/sk6812.c **** 			{
 1577              		.loc 1 242 4 view .LVU434
 242:Core/Src/sk6812.c **** 			{
 1578              		.loc 1 242 14 is_stmt 0 view .LVU435
 1579 00d6 D8B2     		uxtb	r0, r3
 242:Core/Src/sk6812.c **** 			{
 1580              		.loc 1 242 7 view .LVU436
 1581 00d8 8242     		cmp	r2, r0
 1582 00da E1D0     		beq	.L187
 247:Core/Src/sk6812.c **** 		}
 1583              		.loc 1 247 4 is_stmt 1 view .LVU437
 247:Core/Src/sk6812.c **** 		}
 1584              		.loc 1 247 5 is_stmt 0 view .LVU438
 1585 00dc 0132     		adds	r2, r2, #1
 1586              	.LVL163:
 247:Core/Src/sk6812.c **** 		}
 1587              		.loc 1 247 5 view .LVU439
 1588 00de 92B2     		uxth	r2, r2
 1589              	.LVL164:
 247:Core/Src/sk6812.c **** 		}
 1590              		.loc 1 247 5 view .LVU440
 1591 00e0 F7E7     		b	.L136
 1592              	.LVL165:
 1593              	.L142:
 247:Core/Src/sk6812.c **** 		}
 1594              		.loc 1 247 5 view .LVU441
 1595              	.LBE23:
 1596              	.LBB24:
 263:Core/Src/sk6812.c **** 		}
 1597              		.loc 1 263 4 is_stmt 1 view .LVU442
 263:Core/Src/sk6812.c **** 		}
 1598              		.loc 1 263 5 is_stmt 0 view .LVU443
 1599 00e2 0132     		adds	r2, r2, #1
 1600              	.LVL166:
 263:Core/Src/sk6812.c **** 		}
 1601              		.loc 1 263 5 view .LVU444
 1602 00e4 92B2     		uxth	r2, r2
 1603              	.LVL167:
 1604              	.L140:
 256:Core/Src/sk6812.c **** 		{
 1605              		.loc 1 256 9 is_stmt 1 view .LVU445
 1606 00e6 FF2A     		cmp	r2, #255
 1607 00e8 D0D8     		bhi	.L130
 258:Core/Src/sk6812.c **** 			{
 1608              		.loc 1 258 4 view .LVU446
 258:Core/Src/sk6812.c **** 			{
 1609              		.loc 1 258 14 is_stmt 0 view .LVU447
 1610 00ea D9B2     		uxtb	r1, r3
 258:Core/Src/sk6812.c **** 			{
 1611              		.loc 1 258 7 view .LVU448
 1612 00ec 8A42     		cmp	r2, r1
 1613 00ee F8D1     		bne	.L142
 260:Core/Src/sk6812.c **** 				break;
ARM GAS  /tmp/ccG8QyXt.s 			page 40


 1614              		.loc 1 260 5 is_stmt 1 view .LVU449
 1615 00f0 D943     		mvns	r1, r3
 1616 00f2 0023     		movs	r3, #0
 1617 00f4 FF22     		movs	r2, #255
 1618              	.LVL168:
 260:Core/Src/sk6812.c **** 				break;
 1619              		.loc 1 260 5 is_stmt 0 view .LVU450
 1620 00f6 C9B2     		uxtb	r1, r1
 1621 00f8 E0B2     		uxtb	r0, r4
 1622              	.LVL169:
 260:Core/Src/sk6812.c **** 				break;
 1623              		.loc 1 260 5 view .LVU451
 1624 00fa FFF7FEFF 		bl	SK_WritePixel
 1625              	.LVL170:
 261:Core/Src/sk6812.c **** 			}
 1626              		.loc 1 261 5 is_stmt 1 view .LVU452
 1627 00fe C5E7     		b	.L130
 1628              	.LVL171:
 1629              	.L169:
 254:Core/Src/sk6812.c **** 		uint16_t margin=255;
 1630              		.loc 1 254 12 is_stmt 0 view .LVU453
 1631 0100 0022     		movs	r2, #0
 1632 0102 F0E7     		b	.L140
 1633              	.LVL172:
 1634              	.L188:
 254:Core/Src/sk6812.c **** 		uint16_t margin=255;
 1635              		.loc 1 254 12 view .LVU454
 1636              	.LBE24:
 1637              	.LBB25:
 276:Core/Src/sk6812.c **** 				break;
 1638              		.loc 1 276 5 is_stmt 1 view .LVU455
 1639 0104 0B46     		mov	r3, r1
 1640 0106 FF22     		movs	r2, #255
 1641              	.LVL173:
 276:Core/Src/sk6812.c **** 				break;
 1642              		.loc 1 276 5 is_stmt 0 view .LVU456
 1643 0108 0021     		movs	r1, #0
 1644 010a E0B2     		uxtb	r0, r4
 1645              	.LVL174:
 276:Core/Src/sk6812.c **** 				break;
 1646              		.loc 1 276 5 view .LVU457
 1647 010c FFF7FEFF 		bl	SK_WritePixel
 1648              	.LVL175:
 277:Core/Src/sk6812.c **** 			}
 1649              		.loc 1 277 5 is_stmt 1 view .LVU458
 1650 0110 BCE7     		b	.L130
 1651              	.LVL176:
 1652              	.L170:
 270:Core/Src/sk6812.c **** 		uint16_t margin=255;
 1653              		.loc 1 270 12 is_stmt 0 view .LVU459
 1654 0112 0022     		movs	r2, #0
 1655              	.LVL177:
 1656              	.L144:
 272:Core/Src/sk6812.c **** 		{
 1657              		.loc 1 272 9 is_stmt 1 view .LVU460
 1658 0114 FF2A     		cmp	r2, #255
 1659 0116 B9D8     		bhi	.L130
ARM GAS  /tmp/ccG8QyXt.s 			page 41


 274:Core/Src/sk6812.c **** 			{
 1660              		.loc 1 274 4 view .LVU461
 274:Core/Src/sk6812.c **** 			{
 1661              		.loc 1 274 14 is_stmt 0 view .LVU462
 1662 0118 D9B2     		uxtb	r1, r3
 274:Core/Src/sk6812.c **** 			{
 1663              		.loc 1 274 7 view .LVU463
 1664 011a 8A42     		cmp	r2, r1
 1665 011c F2D0     		beq	.L188
 279:Core/Src/sk6812.c **** 		}
 1666              		.loc 1 279 4 is_stmt 1 view .LVU464
 279:Core/Src/sk6812.c **** 		}
 1667              		.loc 1 279 5 is_stmt 0 view .LVU465
 1668 011e 0132     		adds	r2, r2, #1
 1669              	.LVL178:
 279:Core/Src/sk6812.c **** 		}
 1670              		.loc 1 279 5 view .LVU466
 1671 0120 92B2     		uxth	r2, r2
 1672              	.LVL179:
 279:Core/Src/sk6812.c **** 		}
 1673              		.loc 1 279 5 view .LVU467
 1674 0122 F7E7     		b	.L144
 1675              	.LVL180:
 1676              	.L189:
 279:Core/Src/sk6812.c **** 		}
 1677              		.loc 1 279 5 view .LVU468
 1678              	.LBE25:
 1679              	.LBB26:
 292:Core/Src/sk6812.c **** 				break;
 1680              		.loc 1 292 5 is_stmt 1 view .LVU469
 292:Core/Src/sk6812.c **** 				break;
 1681              		.loc 1 292 36 is_stmt 0 view .LVU470
 1682 0124 FFF7FEFF 		bl	__aeabi_ui2d
 1683              	.LVL181:
 292:Core/Src/sk6812.c **** 				break;
 1684              		.loc 1 292 36 view .LVU471
 1685 0128 0022     		movs	r2, #0
 1686 012a 4F4B     		ldr	r3, .L193+32
 1687 012c FFF7FEFF 		bl	__aeabi_dmul
 1688              	.LVL182:
 292:Core/Src/sk6812.c **** 				break;
 1689              		.loc 1 292 42 view .LVU472
 1690 0130 0022     		movs	r2, #0
 1691 0132 4F4B     		ldr	r3, .L193+40
 1692 0134 FFF7FEFF 		bl	__aeabi_dmul
 1693              	.LVL183:
 1694 0138 0246     		mov	r2, r0
 1695 013a 0B46     		mov	r3, r1
 292:Core/Src/sk6812.c **** 				break;
 1696              		.loc 1 292 28 view .LVU473
 1697 013c 44A1     		adr	r1, .L193+8
 1698 013e D1E90001 		ldrd	r0, [r1]
 1699 0142 FFF7FEFF 		bl	__aeabi_dsub
 1700              	.LVL184:
 292:Core/Src/sk6812.c **** 				break;
 1701              		.loc 1 292 5 view .LVU474
 1702 0146 FFF7FEFF 		bl	__aeabi_d2uiz
ARM GAS  /tmp/ccG8QyXt.s 			page 42


 1703              	.LVL185:
 1704 014a FF23     		movs	r3, #255
 1705 014c C2B2     		uxtb	r2, r0
 1706 014e 0021     		movs	r1, #0
 1707 0150 E0B2     		uxtb	r0, r4
 1708 0152 FFF7FEFF 		bl	SK_WritePixel
 1709              	.LVL186:
 293:Core/Src/sk6812.c **** 			}
 1710              		.loc 1 293 5 is_stmt 1 view .LVU475
 1711 0156 99E7     		b	.L130
 1712              	.LVL187:
 1713              	.L171:
 286:Core/Src/sk6812.c **** 		uint16_t margin=255-127;
 1714              		.loc 1 286 12 is_stmt 0 view .LVU476
 1715 0158 0022     		movs	r2, #0
 1716              	.LVL188:
 1717              	.L148:
 288:Core/Src/sk6812.c **** 		{
 1718              		.loc 1 288 9 is_stmt 1 view .LVU477
 1719 015a FF2A     		cmp	r2, #255
 1720 015c 96D8     		bhi	.L130
 290:Core/Src/sk6812.c **** 			{
 1721              		.loc 1 290 4 view .LVU478
 290:Core/Src/sk6812.c **** 			{
 1722              		.loc 1 290 14 is_stmt 0 view .LVU479
 1723 015e D8B2     		uxtb	r0, r3
 290:Core/Src/sk6812.c **** 			{
 1724              		.loc 1 290 7 view .LVU480
 1725 0160 8242     		cmp	r2, r0
 1726 0162 DFD0     		beq	.L189
 295:Core/Src/sk6812.c **** 		}
 1727              		.loc 1 295 4 is_stmt 1 view .LVU481
 295:Core/Src/sk6812.c **** 		}
 1728              		.loc 1 295 5 is_stmt 0 view .LVU482
 1729 0164 0132     		adds	r2, r2, #1
 1730              	.LVL189:
 295:Core/Src/sk6812.c **** 		}
 1731              		.loc 1 295 5 view .LVU483
 1732 0166 92B2     		uxth	r2, r2
 1733              	.LVL190:
 295:Core/Src/sk6812.c **** 		}
 1734              		.loc 1 295 5 view .LVU484
 1735 0168 F7E7     		b	.L148
 1736              	.LVL191:
 1737              	.L190:
 295:Core/Src/sk6812.c **** 		}
 1738              		.loc 1 295 5 view .LVU485
 1739              	.LBE26:
 1740              	.LBB27:
 308:Core/Src/sk6812.c **** 				break;
 1741              		.loc 1 308 5 is_stmt 1 view .LVU486
 308:Core/Src/sk6812.c **** 				break;
 1742              		.loc 1 308 36 is_stmt 0 view .LVU487
 1743 016a FFF7FEFF 		bl	__aeabi_ui2d
 1744              	.LVL192:
 308:Core/Src/sk6812.c **** 				break;
 1745              		.loc 1 308 36 view .LVU488
ARM GAS  /tmp/ccG8QyXt.s 			page 43


 1746 016e 0022     		movs	r2, #0
 1747 0170 3D4B     		ldr	r3, .L193+32
 1748 0172 FFF7FEFF 		bl	__aeabi_dmul
 1749              	.LVL193:
 308:Core/Src/sk6812.c **** 				break;
 1750              		.loc 1 308 42 view .LVU489
 1751 0176 38A3     		adr	r3, .L193+16
 1752 0178 D3E90023 		ldrd	r2, [r3]
 1753 017c FFF7FEFF 		bl	__aeabi_dmul
 1754              	.LVL194:
 1755 0180 0246     		mov	r2, r0
 1756 0182 0B46     		mov	r3, r1
 308:Core/Src/sk6812.c **** 				break;
 1757              		.loc 1 308 28 view .LVU490
 1758 0184 34A1     		adr	r1, .L193+16
 1759 0186 D1E90001 		ldrd	r0, [r1]
 1760 018a FFF7FEFF 		bl	__aeabi_dsub
 1761              	.LVL195:
 308:Core/Src/sk6812.c **** 				break;
 1762              		.loc 1 308 5 view .LVU491
 1763 018e FFF7FEFF 		bl	__aeabi_d2uiz
 1764              	.LVL196:
 1765 0192 FF23     		movs	r3, #255
 1766 0194 C2B2     		uxtb	r2, r0
 1767 0196 0021     		movs	r1, #0
 1768 0198 E0B2     		uxtb	r0, r4
 1769 019a FFF7FEFF 		bl	SK_WritePixel
 1770              	.LVL197:
 309:Core/Src/sk6812.c **** 			}
 1771              		.loc 1 309 5 is_stmt 1 view .LVU492
 1772 019e 75E7     		b	.L130
 1773              	.LVL198:
 1774              	.L172:
 302:Core/Src/sk6812.c **** 		uint16_t margin=127;
 1775              		.loc 1 302 12 is_stmt 0 view .LVU493
 1776 01a0 0022     		movs	r2, #0
 1777              	.LVL199:
 1778              	.L152:
 304:Core/Src/sk6812.c **** 		{
 1779              		.loc 1 304 9 is_stmt 1 view .LVU494
 1780 01a2 FF2A     		cmp	r2, #255
 1781 01a4 3FF672AF 		bhi	.L130
 306:Core/Src/sk6812.c **** 			{
 1782              		.loc 1 306 4 view .LVU495
 306:Core/Src/sk6812.c **** 			{
 1783              		.loc 1 306 14 is_stmt 0 view .LVU496
 1784 01a8 D8B2     		uxtb	r0, r3
 306:Core/Src/sk6812.c **** 			{
 1785              		.loc 1 306 7 view .LVU497
 1786 01aa 8242     		cmp	r2, r0
 1787 01ac DDD0     		beq	.L190
 311:Core/Src/sk6812.c **** 		}
 1788              		.loc 1 311 4 is_stmt 1 view .LVU498
 311:Core/Src/sk6812.c **** 		}
 1789              		.loc 1 311 5 is_stmt 0 view .LVU499
 1790 01ae 0132     		adds	r2, r2, #1
 1791              	.LVL200:
ARM GAS  /tmp/ccG8QyXt.s 			page 44


 311:Core/Src/sk6812.c **** 		}
 1792              		.loc 1 311 5 view .LVU500
 1793 01b0 92B2     		uxth	r2, r2
 1794              	.LVL201:
 311:Core/Src/sk6812.c **** 		}
 1795              		.loc 1 311 5 view .LVU501
 1796 01b2 F6E7     		b	.L152
 1797              	.LVL202:
 1798              	.L191:
 311:Core/Src/sk6812.c **** 		}
 1799              		.loc 1 311 5 view .LVU502
 1800              	.LBE27:
 1801              	.LBB28:
 324:Core/Src/sk6812.c **** 				break;
 1802              		.loc 1 324 5 is_stmt 1 view .LVU503
 324:Core/Src/sk6812.c **** 				break;
 1803              		.loc 1 324 30 is_stmt 0 view .LVU504
 1804 01b4 FFF7FEFF 		bl	__aeabi_ui2d
 1805              	.LVL203:
 324:Core/Src/sk6812.c **** 				break;
 1806              		.loc 1 324 30 view .LVU505
 1807 01b8 0022     		movs	r2, #0
 1808 01ba 2B4B     		ldr	r3, .L193+32
 1809 01bc FFF7FEFF 		bl	__aeabi_dmul
 1810              	.LVL204:
 324:Core/Src/sk6812.c **** 				break;
 1811              		.loc 1 324 36 view .LVU506
 1812 01c0 27A3     		adr	r3, .L193+24
 1813 01c2 D3E90023 		ldrd	r2, [r3]
 1814 01c6 FFF7FEFF 		bl	__aeabi_dmul
 1815              	.LVL205:
 324:Core/Src/sk6812.c **** 				break;
 1816              		.loc 1 324 5 view .LVU507
 1817 01ca FFF7FEFF 		bl	__aeabi_d2uiz
 1818              	.LVL206:
 1819 01ce FF23     		movs	r3, #255
 1820 01d0 0022     		movs	r2, #0
 1821 01d2 C1B2     		uxtb	r1, r0
 1822 01d4 E0B2     		uxtb	r0, r4
 1823 01d6 FFF7FEFF 		bl	SK_WritePixel
 1824              	.LVL207:
 325:Core/Src/sk6812.c **** 			}
 1825              		.loc 1 325 5 is_stmt 1 view .LVU508
 1826 01da 57E7     		b	.L130
 1827              	.LVL208:
 1828              	.L173:
 318:Core/Src/sk6812.c **** 		uint16_t margin=135;
 1829              		.loc 1 318 12 is_stmt 0 view .LVU509
 1830 01dc 0022     		movs	r2, #0
 1831              	.LVL209:
 1832              	.L156:
 320:Core/Src/sk6812.c **** 		{
 1833              		.loc 1 320 9 is_stmt 1 view .LVU510
 1834 01de FF2A     		cmp	r2, #255
 1835 01e0 3FF654AF 		bhi	.L130
 322:Core/Src/sk6812.c **** 			{
 1836              		.loc 1 322 4 view .LVU511
ARM GAS  /tmp/ccG8QyXt.s 			page 45


 322:Core/Src/sk6812.c **** 			{
 1837              		.loc 1 322 14 is_stmt 0 view .LVU512
 1838 01e4 D8B2     		uxtb	r0, r3
 322:Core/Src/sk6812.c **** 			{
 1839              		.loc 1 322 7 view .LVU513
 1840 01e6 8242     		cmp	r2, r0
 1841 01e8 E4D0     		beq	.L191
 327:Core/Src/sk6812.c **** 		}
 1842              		.loc 1 327 4 is_stmt 1 view .LVU514
 327:Core/Src/sk6812.c **** 		}
 1843              		.loc 1 327 5 is_stmt 0 view .LVU515
 1844 01ea 0132     		adds	r2, r2, #1
 1845              	.LVL210:
 327:Core/Src/sk6812.c **** 		}
 1846              		.loc 1 327 5 view .LVU516
 1847 01ec 92B2     		uxth	r2, r2
 1848              	.LVL211:
 327:Core/Src/sk6812.c **** 		}
 1849              		.loc 1 327 5 view .LVU517
 1850 01ee F6E7     		b	.L156
 1851              	.LVL212:
 1852              	.L192:
 327:Core/Src/sk6812.c **** 		}
 1853              		.loc 1 327 5 view .LVU518
 1854              	.LBE28:
 1855              	.LBB29:
 340:Core/Src/sk6812.c **** 				break;
 1856              		.loc 1 340 5 is_stmt 1 view .LVU519
 340:Core/Src/sk6812.c **** 				break;
 1857              		.loc 1 340 34 is_stmt 0 view .LVU520
 1858 01f0 FFF7FEFF 		bl	__aeabi_ui2d
 1859              	.LVL213:
 340:Core/Src/sk6812.c **** 				break;
 1860              		.loc 1 340 34 view .LVU521
 1861 01f4 0022     		movs	r2, #0
 1862 01f6 1C4B     		ldr	r3, .L193+32
 1863 01f8 FFF7FEFF 		bl	__aeabi_dmul
 1864              	.LVL214:
 340:Core/Src/sk6812.c **** 				break;
 1865              		.loc 1 340 40 view .LVU522
 1866 01fc 0022     		movs	r2, #0
 1867 01fe 1D4B     		ldr	r3, .L193+44
 1868 0200 FFF7FEFF 		bl	__aeabi_dmul
 1869              	.LVL215:
 340:Core/Src/sk6812.c **** 				break;
 1870              		.loc 1 340 26 view .LVU523
 1871 0204 16A3     		adr	r3, .L193+24
 1872 0206 D3E90023 		ldrd	r2, [r3]
 1873 020a FFF7FEFF 		bl	__aeabi_dadd
 1874              	.LVL216:
 340:Core/Src/sk6812.c **** 				break;
 1875              		.loc 1 340 5 view .LVU524
 1876 020e FFF7FEFF 		bl	__aeabi_d2uiz
 1877              	.LVL217:
 1878 0212 FF23     		movs	r3, #255
 1879 0214 0022     		movs	r2, #0
 1880 0216 C1B2     		uxtb	r1, r0
ARM GAS  /tmp/ccG8QyXt.s 			page 46


 1881 0218 E0B2     		uxtb	r0, r4
 1882 021a FFF7FEFF 		bl	SK_WritePixel
 1883              	.LVL218:
 341:Core/Src/sk6812.c **** 			}
 1884              		.loc 1 341 5 is_stmt 1 view .LVU525
 1885 021e 35E7     		b	.L130
 1886              	.LVL219:
 1887              	.L174:
 334:Core/Src/sk6812.c **** 		uint16_t margin=255-135;
 1888              		.loc 1 334 12 is_stmt 0 view .LVU526
 1889 0220 0022     		movs	r2, #0
 1890              	.LVL220:
 1891              	.L160:
 336:Core/Src/sk6812.c **** 		{
 1892              		.loc 1 336 9 is_stmt 1 view .LVU527
 1893 0222 FF2A     		cmp	r2, #255
 1894 0224 3FF632AF 		bhi	.L130
 338:Core/Src/sk6812.c **** 			{
 1895              		.loc 1 338 4 view .LVU528
 338:Core/Src/sk6812.c **** 			{
 1896              		.loc 1 338 14 is_stmt 0 view .LVU529
 1897 0228 D8B2     		uxtb	r0, r3
 338:Core/Src/sk6812.c **** 			{
 1898              		.loc 1 338 7 view .LVU530
 1899 022a 8242     		cmp	r2, r0
 1900 022c E0D0     		beq	.L192
 343:Core/Src/sk6812.c **** 		}
 1901              		.loc 1 343 4 is_stmt 1 view .LVU531
 343:Core/Src/sk6812.c **** 		}
 1902              		.loc 1 343 5 is_stmt 0 view .LVU532
 1903 022e 0132     		adds	r2, r2, #1
 1904              	.LVL221:
 343:Core/Src/sk6812.c **** 		}
 1905              		.loc 1 343 5 view .LVU533
 1906 0230 92B2     		uxth	r2, r2
 1907              	.LVL222:
 343:Core/Src/sk6812.c **** 		}
 1908              		.loc 1 343 5 view .LVU534
 1909 0232 F6E7     		b	.L160
 1910              	.LVL223:
 1911              	.L185:
 343:Core/Src/sk6812.c **** 		}
 1912              		.loc 1 343 5 view .LVU535
 1913              	.LBE29:
 1914              	.LBB30:
 356:Core/Src/sk6812.c **** 				break;
 1915              		.loc 1 356 5 is_stmt 1 view .LVU536
 1916 0234 DB43     		mvns	r3, r3
 1917 0236 DBB2     		uxtb	r3, r3
 1918 0238 0022     		movs	r2, #0
 1919              	.LVL224:
 356:Core/Src/sk6812.c **** 				break;
 1920              		.loc 1 356 5 is_stmt 0 view .LVU537
 1921 023a FF21     		movs	r1, #255
 1922 023c E0B2     		uxtb	r0, r4
 1923              	.LVL225:
 356:Core/Src/sk6812.c **** 				break;
ARM GAS  /tmp/ccG8QyXt.s 			page 47


 1924              		.loc 1 356 5 view .LVU538
 1925 023e FFF7FEFF 		bl	SK_WritePixel
 1926              	.LVL226:
 357:Core/Src/sk6812.c **** 			}
 1927              		.loc 1 357 5 is_stmt 1 view .LVU539
 1928 0242 23E7     		b	.L130
 1929              	.L194:
 1930 0244 AFF30080 		.align	3
 1931              	.L193:
 1932 0248 00000000 		.word	0
 1933 024c 00A06440 		.word	1080336384
 1934 0250 00000000 		.word	0
 1935 0254 00E06F40 		.word	1081073664
 1936 0258 00000000 		.word	0
 1937 025c 00C05F40 		.word	1080016896
 1938 0260 00000000 		.word	0
 1939 0264 00E06040 		.word	1080090624
 1940 0268 0000703F 		.word	1064304640
 1941 026c 00805640 		.word	1079410688
 1942 0270 00006040 		.word	1080033280
 1943 0274 00005E40 		.word	1079902208
 1944              	.LBE30:
 1945              		.cfi_endproc
 1946              	.LFE74:
 1948              		.section	.text.SK_Rainbow,"ax",%progbits
 1949              		.align	1
 1950              		.global	SK_Rainbow
 1951              		.syntax unified
 1952              		.thumb
 1953              		.thumb_func
 1954              		.fpu softvfp
 1956              	SK_Rainbow:
 1957              	.LVL227:
 1958              	.LFB75:
 365:Core/Src/sk6812.c **** void SK_Rainbow(uint8_t n){
 1959              		.loc 1 365 27 view -0
 1960              		.cfi_startproc
 1961              		@ args = 0, pretend = 0, frame = 0
 1962              		@ frame_needed = 0, uses_anonymous_args = 0
 1963              		.loc 1 365 27 is_stmt 0 view .LVU541
 1964 0000 70B5     		push	{r4, r5, r6, lr}
 1965              	.LCFI17:
 1966              		.cfi_def_cfa_offset 16
 1967              		.cfi_offset 4, -16
 1968              		.cfi_offset 5, -12
 1969              		.cfi_offset 6, -8
 1970              		.cfi_offset 14, -4
 1971 0002 0546     		mov	r5, r0
 366:Core/Src/sk6812.c **** 	uint32_t time=1024;
 1972              		.loc 1 366 2 is_stmt 1 view .LVU542
 1973              	.LVL228:
 367:Core/Src/sk6812.c **** 	for (uint32_t pos = 0; pos < 256*9; pos++)
 1974              		.loc 1 367 2 view .LVU543
 1975              	.LBB31:
 1976              		.loc 1 367 7 view .LVU544
 1977              		.loc 1 367 16 is_stmt 0 view .LVU545
 1978 0004 0026     		movs	r6, #0
ARM GAS  /tmp/ccG8QyXt.s 			page 48


 1979              		.loc 1 367 2 view .LVU546
 1980 0006 19E0     		b	.L196
 1981              	.LVL229:
 1982              	.L197:
 1983              	.LBB32:
 368:Core/Src/sk6812.c **** 	{
 369:Core/Src/sk6812.c **** 		for (int j = 0; j < n; j++)
 370:Core/Src/sk6812.c **** 		{
 371:Core/Src/sk6812.c **** 			SK_RainbowStep((pos+255*j/n/2)%(256*9),j);
 1984              		.loc 1 371 4 is_stmt 1 discriminator 3 view .LVU547
 1985              		.loc 1 371 27 is_stmt 0 discriminator 3 view .LVU548
 1986 0008 C4EB0423 		rsb	r3, r4, r4, lsl #8
 1987              		.loc 1 371 29 discriminator 3 view .LVU549
 1988 000c 93FBF5F3 		sdiv	r3, r3, r5
 1989              		.loc 1 371 31 discriminator 3 view .LVU550
 1990 0010 03EBD373 		add	r3, r3, r3, lsr #31
 1991              		.loc 1 371 23 discriminator 3 view .LVU551
 1992 0014 06EB6303 		add	r3, r6, r3, asr #1
 1993              		.loc 1 371 4 discriminator 3 view .LVU552
 1994 0018 0B48     		ldr	r0, .L202
 1995 001a A0FB0320 		umull	r2, r0, r0, r3
 1996 001e 400A     		lsrs	r0, r0, #9
 1997 0020 00EBC000 		add	r0, r0, r0, lsl #3
 1998 0024 A1B2     		uxth	r1, r4
 1999 0026 A3EB0020 		sub	r0, r3, r0, lsl #8
 2000 002a FFF7FEFF 		bl	SK_RainbowStep
 2001              	.LVL230:
 372:Core/Src/sk6812.c **** 			//HAL_Delay(1);
 373:Core/Src/sk6812.c **** 			Delay_us(100);
 2002              		.loc 1 373 4 is_stmt 1 discriminator 3 view .LVU553
 2003 002e 6420     		movs	r0, #100
 2004 0030 FFF7FEFF 		bl	Delay_us
 2005              	.LVL231:
 369:Core/Src/sk6812.c **** 		{
 2006              		.loc 1 369 26 discriminator 3 view .LVU554
 369:Core/Src/sk6812.c **** 		{
 2007              		.loc 1 369 27 is_stmt 0 discriminator 3 view .LVU555
 2008 0034 0134     		adds	r4, r4, #1
 2009              	.LVL232:
 2010              	.L198:
 369:Core/Src/sk6812.c **** 		{
 2011              		.loc 1 369 19 is_stmt 1 discriminator 1 view .LVU556
 369:Core/Src/sk6812.c **** 		{
 2012              		.loc 1 369 3 is_stmt 0 discriminator 1 view .LVU557
 2013 0036 A542     		cmp	r5, r4
 2014 0038 E6DC     		bgt	.L197
 2015              	.LBE32:
 367:Core/Src/sk6812.c **** 	{
 2016              		.loc 1 367 38 is_stmt 1 discriminator 2 view .LVU558
 367:Core/Src/sk6812.c **** 	{
 2017              		.loc 1 367 41 is_stmt 0 discriminator 2 view .LVU559
 2018 003a 0136     		adds	r6, r6, #1
 2019              	.LVL233:
 2020              	.L196:
 367:Core/Src/sk6812.c **** 	{
 2021              		.loc 1 367 25 is_stmt 1 discriminator 1 view .LVU560
 367:Core/Src/sk6812.c **** 	{
ARM GAS  /tmp/ccG8QyXt.s 			page 49


 2022              		.loc 1 367 2 is_stmt 0 discriminator 1 view .LVU561
 2023 003c B6F5106F 		cmp	r6, #2304
 2024 0040 01D2     		bcs	.L201
 2025              	.LBB33:
 369:Core/Src/sk6812.c **** 		{
 2026              		.loc 1 369 12 view .LVU562
 2027 0042 0024     		movs	r4, #0
 2028 0044 F7E7     		b	.L198
 2029              	.L201:
 2030              	.LBE33:
 2031              	.LBE31:
 374:Core/Src/sk6812.c **** 			
 375:Core/Src/sk6812.c **** 		}
 376:Core/Src/sk6812.c **** 
 377:Core/Src/sk6812.c **** 	}
 378:Core/Src/sk6812.c **** }
 2032              		.loc 1 378 1 view .LVU563
 2033 0046 70BD     		pop	{r4, r5, r6, pc}
 2034              	.LVL234:
 2035              	.L203:
 2036              		.loc 1 378 1 view .LVU564
 2037              		.align	2
 2038              	.L202:
 2039 0048 398EE338 		.word	954437177
 2040              		.cfi_endproc
 2041              	.LFE75:
 2043              		.global	send_Buf
 2044              		.section	.bss.send_Buf,"aw",%nobits
 2045              		.align	2
 2046              		.set	.LANCHOR0,. + 0
 2049              	send_Buf:
 2050 0000 00000000 		.space	1100
 2050      00000000 
 2050      00000000 
 2050      00000000 
 2050      00000000 
 2051              		.text
 2052              	.Letext0:
 2053              		.file 2 "/home/akinya/gcc-arm-none-eabi/arm-none-eabi/include/machine/_default_types.h"
 2054              		.file 3 "/home/akinya/gcc-arm-none-eabi/arm-none-eabi/include/sys/_stdint.h"
 2055              		.file 4 "Drivers/CMSIS/Device/ST/STM32F1xx/Include/stm32f103xb.h"
 2056              		.file 5 "Drivers/STM32F1xx_HAL_Driver/Inc/stm32f1xx_hal_def.h"
 2057              		.file 6 "Drivers/STM32F1xx_HAL_Driver/Inc/stm32f1xx_hal_dma.h"
 2058              		.file 7 "Drivers/STM32F1xx_HAL_Driver/Inc/stm32f1xx_hal_tim.h"
 2059              		.file 8 "Core/Inc/tim.h"
 2060              		.file 9 "<built-in>"
 2061              		.file 10 "Drivers/STM32F1xx_HAL_Driver/Inc/stm32f1xx_hal.h"
 2062              		.file 11 "Drivers/STM32F1xx_HAL_Driver/Inc/stm32f1xx_hal_rcc.h"
 2063              		.file 12 "Drivers/STM32F1xx_HAL_Driver/Inc/stm32f1xx_hal_cortex.h"
ARM GAS  /tmp/ccG8QyXt.s 			page 50

